(dp1
S'longitud'
p2
(dp3
S'type'
p4
S'string'
p5
sS'sortable'
p6
I3
sS'sql'
p7
S'CHAR(512)'
p8
ssS'id'
p9
(dp10
g4
S'id'
p11
sg6
I1
sg7
S'INTEGER PRIMARY KEY AUTOINCREMENT'
p12
ssS'texto'
p13
(dp14
g4
g5
sg6
I2
sg7
S'CHAR(30000) NOT NULL'
p15
ssS'long'
p16
(dp17
S'sortable'
p18
I4
sS'type'
p19
S'integer'
p20
sS'sql'
p21
S'INTEGER'
p22
ssS'selector'
p23
(dp24
S'type'
p25
S'integer'
p26
sS'sortable'
p27
I3
sS'sql'
p28
S'INTEGER'
p29
ss.