(dp1
S'message'
p2
(dp3
S'type'
p4
S'string'
p5
sS'sortable'
p6
I2
sS'sql'
p7
S'CHAR(512)'
p8
ssS'mensaje'
p9
(dp10
S'type'
p11
S'string'
p12
sS'sortable'
p13
I2
sS'sql'
p14
S'CHAR(512)'
p15
ssS'id'
p16
(dp17
g11
S'id'
p18
sg13
I1
sg14
S'INTEGER PRIMARY KEY AUTOINCREMENT'
p19
ss.