(dp1
S'output'
p2
S''
sS'layer'
p3
S'C:\\Users\\Atomico\\web2py\\applications\\Desglosar_Emails\\views\\default/entrada_mod2.html'
p4
sS'code'
p5
S'response.write(\'<!DOCTYPE html>\\n<html lang="\', escape=False)\nresponse.write(T.accepted_language or \'en\')\nresponse.write(\'" class="no-js"><!-- no-js need it for modernzr -->\\n  <head>\\n    \\n    <meta charset="utf-8" />\\t  \\t\\n    <!-- www.phpied.com/conditional-comments-block-downloads/ -->\\n    <!--[if IE]><![endif]-->    \\n    <!-- Always force latest IE rendering engine \\n\\t (even in intranet) & Chrome Frame \\n\\t Remove this if you use the .htaccess -->\\n    <meta http-equiv="X-UA-Compatible" content="IE=edge,chrome=1">\\n    \\n    <title>\', escape=False)\nresponse.write(response.title or request.application)\nresponse.write(\'</title>\\n    \\n    <!-- http://dev.w3.org/html5/markup/meta.name.html -->\\n    <meta name="application-name" content="\', escape=False)\nresponse.write(request.application)\nresponse.write(\'" />\\t\\n    \\n    <!-- Speaking of Google, don\\\'t forget to set your site up: \\n\\t http://google.com/webmasters -->\\n    <meta name="google-site-verification" content="" />\\n    \\n    <!--  Mobile Viewport Fix\\n\\t  j.mp/mobileviewport & davidbcalhoun.com/2010/viewport-metatag \\n\\t  device-width: Occupy full width of the screen in its current orientation\\n\\t  initial-scale = 1.0 retains dimensions instead of zooming out if page height > device height\\n\\t  maximum-scale = 1.0 retains dimensions instead of zooming in if page width < device width\\n      -->\\n    <meta name="viewport" content="width=device-width, initial-scale=1.0, maximum-scale=1.0">\\n    \\n    <!-- Place favicon.ico and apple-touch-icon.png in the root of your domain and delete these references -->\\n    <link rel="shortcut icon" href="\', escape=False)\nresponse.write(URL(\'static\',\'favicon.ico\'))\nresponse.write(\'" type="image/x-icon">\\n    <link rel="apple-touch-icon" href="\', escape=False)\nresponse.write(URL(\'static\',\'favicon.png\'))\nresponse.write(\'">\\n\\n    <!-- For the less-enabled mobile browsers like Opera Mini -->\\n    <link rel="stylesheet" media="handheld" href="\', escape=False)\nresponse.write(URL(\'static\',\'css/handheld.css\'))\nresponse.write(\'">\\n    \\n    <!-- All JavaScript at the bottom, except for Modernizr which enables HTML5 elements & feature detects -->\\n    <script src="\', escape=False)\nresponse.write(URL(\'static\',\'js/modernizr-1.7.min.js\'))\nresponse.write(\'"></script>\\n    \\n    \', escape=False)\n#------  require CSS and JS files for this page (read info in base.css) ------\nresponse.write(\'\\n    \', escape=False)\nresponse.files.append(URL(\'static\',\'css/base.css\'))\nresponse.write(\'\\n    \', escape=False)\nresponse.files.append(URL(\'static\',\'css/superfish.css\'))\nresponse.write(\'\\n    \', escape=False)\nresponse.files.append(URL(\'static\',\'js/superfish.js\'))\nresponse.write(\'\\n    \', escape=False)\n#------ include web2py specific js code (jquery, calendar, form stuff) ------\nresponse.write(\'\\n    \', escape=False)\nresponse.files.insert(0,URL(\'static\',\'js/jquery.js\'))\nresponse.files.insert(1,URL(\'static\',\'css/calendar.css\'))\nresponse.files.insert(2,URL(\'static\',\'js/calendar.js\'))\nfor _item in response.meta or []:\n    response.write(\'\\n     <meta name="\', escape=False)\n    response.write(_item)\n    response.write(\'" content="\', escape=False)\n    response.write(response.meta[_item])\n    response.write(\'" />\', escape=False)\n    pass\nfor _k,_file in enumerate(response.files or []):\n    if _file in response.files[:_k]:\n        continue\n    _file0=_file.lower().split(\'?\')[0]\n    if _file0.endswith(\'.css\'):\n        response.write(\'\\n     <link href="\', escape=False)\n        response.write(_file)\n        response.write(\'" rel="stylesheet" type="text/css" />\', escape=False)\n    elif _file0.endswith(\'.js\'):\n        response.write(\'\\n     <script src="\', escape=False)\n        response.write(_file)\n        response.write(\'" type="text/javascript"></script>\', escape=False)\n        pass\n    pass\nresponse.write(\'\\n    <script type="text/javascript"><!--\\n    // These variables are used by the web2py_ajax_init function in web2py_ajax.js (which is loaded below).\\n    var w2p_ajax_confirm_message = "\', escape=False)\nresponse.write(T(\'Are you sure you want to delete this object?\'))\nresponse.write(\'";\\n    var w2p_ajax_date_format = "\', escape=False)\nresponse.write(T(\'%Y-%m-%d\'))\nresponse.write(\'";\\n    var w2p_ajax_datetime_format = "\', escape=False)\nresponse.write(T(\'%Y-%m-%d %H:%M:%S\'))\nresponse.write(\'";\\n    //--></script>\\n    <script src="\', escape=False)\nresponse.write(URL(\'static\',\'js/web2py_ajax.js\'))\nresponse.write(\'" type="text/javascript"></script>\\n\', escape=False)\nresponse.write(\'\\n\\n    \', escape=False)\n#using sidebars need to know what sidebar you want to use\n#prior of using it, because of static width size of content, you can use\n#left_sidebar, right_sidebar, both or none (False left and right)\nleft_sidebar_enabled = globals().get(\'left_sidebar_enabled\',False)\nright_sidebar_enabled = globals().get(\'right_sidebar_enabled\',False)\nif left_sidebar_enabled and right_sidebar_enabled: width_content=\'63%\'\nelif left_sidebar_enabled != right_sidebar_enabled: width_content=\'740px\'\nelse: width_content=\'100%\'\nif left_sidebar_enabled: left_sidebar_style = \'style="display: block;"\'\nelse: left_sidebar_style = \'style="display: none;"\'\nif right_sidebar_enabled: right_sidebar_style = \'style="display: block;"\'\nelse: right_sidebar_style = \'style="display: none;"\'\nstyle_content = \'style="width: %s"\' % width_content\nresponse.write(\'\\n  </head>\\n  \\n  <!-- paulirish.com/2008/conditional-stylesheets-vs-css-hacks-answer-neither/ -->\\t\\n  <!--[if lt IE 7 ]> <body class="ie6"> <![endif]-->\\n  <!--[if IE 7 ]>    <body class="ie7"> <![endif]-->\\n  <!--[if IE 8 ]>    <body class="ie8"> <![endif]-->\\n  <!--[if IE 9 ]>    <body class="ie9"> <![endif]-->\\n  <!--[if (gt IE 9)|!(IE)]><!--> <body> <!--<![endif]-->\\n    \\n    <div class="flash">\', escape=False)\nresponse.write(response.flash or \'\')\nresponse.write(\'</div> <!-- notification div -->\\n    \\n    <div id="container">\\t      \\t\\t      \\t\\n      \\n      <div id="wrapper">\\t\\t\\n\\t\\n\\t<div id="header"> <!-- header and login nav -->\\n\\t  \', escape=False)\nresponse.write(\' <!-- this is default header -->\\n\\t  \', escape=False)\ntry:\n    response.write(auth.navbar(action=URL(\'default\',\'user\')))\nexcept:pass\nresponse.write(\'\\t\\t          \\n\\t  <h1><span id="appname">\', escape=False)\nresponse.write(request.application.capitalize())\nresponse.write(\'</span>App</h1>\\n\\t  <div style="clear: both;"></div><!-- Clear the divs -->\\n\\t  \', escape=False)\nresponse.write(\'\\t\\t\\t\\t  \\t\\t\\t\\t\\t  \\n\\t</div><!-- header  -->\\n\\t\\n\\t<div id="statusbar"><!-- statusbar is menu zone -->\\n\\t  \', escape=False)\nresponse.write(\' <!-- this is default statusbar -->\\n\\t  \', escape=False)\n#------ superfish menu ------\nresponse.write(\'\\n\\t  \', escape=False)\nresponse.write(MENU(response.menu,_class=\'sf-menu\'))\nresponse.write(\'\\n\\t  <script type="text/javascript">\\n\\t    jQuery(document).ready(function(){\\n\\t    jQuery(\\\'ul.sf-menu\\\').superfish();});\\n\\t  </script>\\n\\t  <div style="clear: both;"></div><!-- Clear the divs -->\\t\\n\\t  \', escape=False)\nresponse.write(\'\\t\\t\\t\\t\\n\\t</div><!-- statusbar -->\\n\\t\\n\\t<div id="page"> <!-- Here my central body -->\\t  \\n\\n\\t  \', escape=False)\nif left_sidebar_enabled:\n    response.write(\'\\n          <div id="left_sidebar" \', escape=False)\n    response.write(XML(left_sidebar_style))\n    response.write(\' >\\n            <div style="padding: 4px;">\\n\\t      \', escape=False)\n    response.write(\'Content Left Sidebar\', escape=False)\n    response.write(\'\\t\\t  \\n            </div>\\n          </div><!-- left_sidebar -->\\n\\t  \', escape=False)\n    pass\nresponse.write(\'\\n\\n\\t  <!-- content -->\\n\\t  <div id="content" \', escape=False)\nresponse.write(XML(style_content))\nresponse.write(\' >\\n\\t    \', escape=False)\nresponse.write(\'\\r\\n<h1>default/entrada_mod2.html</h1>\\r\\n<h2>Formulario</h2>\\r\\n\', escape=False)\nresponse.write(form)\nresponse.write(\'\\r\\n\\r\\n<h3>Tratamiento darle la longitud a cada elemento</h3>\\r\\n\', escape=False)\nrows=db().select(db.persona.ALL)\nresponse.write(rows)\nresponse.write(\'\\r\\nlen(db().select(db.persona.ALL) es \', escape=False)\nresponse.write(len(db().select(db.persona.ALL)))\nresponse.write(\'\\r\\n<br/>\\r\\nM\\xc3\\xa1s cosas: \\r\\n\', escape=False)\nultimo=db(db.persona.id==len(db().select(db.persona.ALL))).select()[0]\nresponse.write(ultimo.nombre)\nresponse.write(\'\\r\\n<br/>Aqu\\xc3\\xad el perro. \\r\\n\', escape=False)\npersona_id=db(db.persona==2).select()[0]\n<br/>\n{{\ndb.perro.insert(nombre="Chasta",nacimiento=None,amo=persona_id)\nrows2=db().select(db.perro.ALL)\nresponse.write(rows2)\nresponse.write(len(db(db.perro.amo==db.persona.id).select()))\nresponse.write(\'\\r\\n\', escape=False)\nresponse.write(\'\\t\\n\\t  </div>\\n\\t  <!-- content -->\\n\\n\\t  \', escape=False)\nif right_sidebar_enabled:\n    response.write(\'\\n          <div id="right_sidebar" \', escape=False)\n    response.write(XML(right_sidebar_style))\n    response.write(\' >\\n            <div style="padding: 4px;">\\n              \', escape=False)\n    response.write(\'Content Right Sidebar\', escape=False)\n    response.write(\'\\n            </div>\\n\\t  </div><!-- right_sidebar -->\\n          \', escape=False)\n    pass\nresponse.write(\'\\n\\n\\n\\t  <div style="clear: both;"></div><!-- Clear the divs -->\\n\\t  \\n\\t</div><!-- page -->\\t\\t\\t\\t\\t\\t\\t\\n\\t\\n\\t<div id="footer">\\n\\t  \', escape=False)\nresponse.write(\' <!-- this is default footer -->\\n\\t  <a href="http://www.web2py.com/" style="float: left; padding-right: 6px;">\\n\\t    <img src="\', escape=False)\nresponse.write(URL(\'static\',\'images/poweredby.png\'))\nresponse.write(\'"/>\\n\\t  </a>\\n\\t  \', escape=False)\nresponse.write(T(\'Copyright\'))\nresponse.write(\' &#169; 2010\\t\\t\\t\\t\\n\\t  <div style="clear: both;"></div><!-- Clear the divs -->\\n\\t  \', escape=False)\nresponse.write(\'\\n\\n\\t</div><!-- footer -->\\t\\t\\t\\n      </div><!-- wrapper -->\\n    </div><!-- container -->\\t\\t\\n    \\n    <!--[if lt IE 7 ]>\\n\\t<script src="\', escape=False)\nresponse.write(URL(\'static\',\'js/dd_belatedpng.js\'))\nresponse.write(\'"></script>\\n\\t<script> DD_belatedPNG.fix(\\\'img, .png_bg\\\'); //fix any <img> or .png_bg background-images </script>\\n\\t<![endif]-->\\n    \\n    <!-- asynchronous google analytics: mathiasbynens.be/notes/async-analytics-snippet \\n\\t change the UA-XXXXX-X to be your site\\\'s ID -->\\n    <!--   \\n\\t   <script>\\n\\t     var _gaq = [[\\\'_setAccount\\\', \\\'UA-XXXXX-X\\\'], [\\\'_trackPageview\\\']];\\n\\t     (function(d, t) {\\n\\t     var g = d.createElement(t),\\n\\t     s = d.getElementsByTagName(t)[0];\\n\\t     g.async = true;\\n\\t     g.src = \\\'//www.google-analytics.com/ga.js\\\';\\n\\t     s.parentNode.insertBefore(g, s);\\n\\t     })(document, \\\'script\\\');\\n\\t   </script>\\n\\t   -->    \\n  </body>\\n</html>\\n\', escape=False)'
p6
sS'snapshot'
p7
(dp8
S'exception'
p9
(dp10
S'__getslice__'
p11
S"<method-wrapper '__getslice__' of exceptions.SyntaxError object at 0x0767DF70>"
p12
sS'text'
p13
S"'<br/>\\n'"
p14
sS'__str__'
p15
S"<method-wrapper '__str__' of exceptions.SyntaxError object at 0x0767DF70>"
p16
sS'__reduce__'
p17
S'<built-in method __reduce__ of exceptions.SyntaxError object at 0x0767DF70>'
p18
sS'__dict__'
p19
S'{}'
p20
sS'__init__'
p21
S"<method-wrapper '__init__' of exceptions.SyntaxError object at 0x0767DF70>"
p22
sS'__setattr__'
p23
S"<method-wrapper '__setattr__' of exceptions.SyntaxError object at 0x0767DF70>"
p24
sS'__reduce_ex__'
p25
S'<built-in method __reduce_ex__ of exceptions.SyntaxError object at 0x0767DF70>'
p26
sS'__new__'
p27
S'<built-in method __new__ of type object at 0x1E1CDBD0>'
p28
sS'__class__'
p29
S"<type 'exceptions.SyntaxError'>"
p30
sS'filename'
p31
S"r'C:\\Users\\Atomico\\web2py\\applications\\Desglosar_Emails\\views\\default/entrada_mod2.html'"
p32
sS'lineno'
p33
S'112'
p34
sS'msg'
p35
S"'invalid syntax'"
p36
sS'__doc__'
p37
S"'Invalid syntax.'"
p38
sS'__getitem__'
p39
S"<method-wrapper '__getitem__' of exceptions.SyntaxError object at 0x0767DF70>"
p40
sS'__setstate__'
p41
S'<built-in method __setstate__ of exceptions.SyntaxError object at 0x0767DF70>'
p42
sS'__getattribute__'
p43
S"<method-wrapper '__getattribute__' of exceptions.SyntaxError object at 0x0767DF70>"
p44
sS'print_file_and_line'
p45
S'None'
p46
sS'args'
p47
S"('invalid syntax', (r'C:\\Users\\Atomico\\web2py\\applications\\Desglosar_Emails\\views\\default/entrada_mod2.html', 112, 1, '<br/>\\n'))"
p48
sS'offset'
p49
S'1'
sS'__delattr__'
p50
S"<method-wrapper '__delattr__' of exceptions.SyntaxError object at 0x0767DF70>"
p51
sS'__repr__'
p52
S"<method-wrapper '__repr__' of exceptions.SyntaxError object at 0x0767DF70>"
p53
sS'__hash__'
p54
S"<method-wrapper '__hash__' of exceptions.SyntaxError object at 0x0767DF70>"
p55
ssS'evalue'
p56
S'invalid syntax (default/entrada_mod2.html, line 112)'
p57
sS'request'
p58
ccopy_reg
_reconstructor
p59
(cgluon.html
BEAUTIFY
p60
c__builtin__
object
p61
NtRp62
(dp63
S'attributes'
p64
(dp65
sS'components'
p66
(lp67
g59
(cgluon.html
TABLE
p68
g61
NtRp69
(dp70
g64
(dp71
S'level'
p72
I5
ssS'parent'
p73
Nsg66
(lp74
g59
(cgluon.html
TR
p75
g61
NtRp76
(dp77
g64
(dp78
sg73
g69
sg66
(lp79
g59
(cgluon.html
TD
p80
g61
NtRp81
(dp82
g64
(dp83
S'_style'
p84
S'font-weight:bold;'
p85
ssg73
g76
sg66
(lp86
S'ajax'
p87
asbag59
(g80
g61
NtRp88
(dp89
g64
(dp90
S'_valign'
p91
S'top'
p92
ssg73
g76
sg66
(lp93
S':'
asbag59
(g80
g61
NtRp94
(dp95
g64
(dp96
sg73
g76
sg66
(lp97
g59
(g60
g61
NtRp98
(dp99
g64
(dp100
g72
I5
ssg73
g94
sg66
(lp101
S'False'
p102
asbasbasbag59
(g75
g61
NtRp103
(dp104
g64
(dp105
sg73
g69
sg66
(lp106
g59
(g80
g61
NtRp107
(dp108
g64
(dp109
g84
g85
ssg73
g103
sg66
(lp110
S'application'
p111
asbag59
(g80
g61
NtRp112
(dp113
g64
(dp114
g91
g92
ssg73
g103
sg66
(lp115
S':'
asbag59
(g80
g61
NtRp116
(dp117
g64
(dp118
sg73
g103
sg66
(lp119
g59
(g60
g61
NtRp120
(dp121
g64
(dp122
g72
I5
ssg73
g116
sg66
(lp123
S'Desglosar_Emails'
p124
asbasbasbag59
(g75
g61
NtRp125
(dp126
g64
(dp127
sg73
g69
sg66
(lp128
g59
(g80
g61
NtRp129
(dp130
g64
(dp131
g84
g85
ssg73
g125
sg66
(lp132
g47
asbag59
(g80
g61
NtRp133
(dp134
g64
(dp135
g91
g92
ssg73
g125
sg66
(lp136
S':'
asbag59
(g80
g61
NtRp137
(dp138
g64
(dp139
sg73
g125
sg66
(lp140
g59
(g60
g61
NtRp141
(dp142
g64
(dp143
g72
I5
ssg73
g137
sg66
(lp144
g59
(g68
g61
NtRp145
(dp146
g64
(dp147
g72
I4
ssg73
Nsg66
(lp148
sbasbasbasbag59
(g75
g61
NtRp149
(dp150
g64
(dp151
sg73
g69
sg66
(lp152
g59
(g80
g61
NtRp153
(dp154
g64
(dp155
g84
g85
ssg73
g149
sg66
(lp156
S'body'
p157
asbag59
(g80
g61
NtRp158
(dp159
g64
(dp160
g91
g92
ssg73
g149
sg66
(lp161
S':'
asbag59
(g80
g61
NtRp162
(dp163
g64
(dp164
sg73
g149
sg66
(lp165
g59
(g60
g61
NtRp166
(dp167
g64
(dp168
g72
I5
ssg73
g162
sg66
(lp169
S'<cStringIO.StringO object at 0x073DCCE0>'
p170
asbasbasbag59
(g75
g61
NtRp171
(dp172
g64
(dp173
sg73
g69
sg66
(lp174
g59
(g80
g61
NtRp175
(dp176
g64
(dp177
g84
g85
ssg73
g171
sg66
(lp178
S'client'
p179
asbag59
(g80
g61
NtRp180
(dp181
g64
(dp182
g91
g92
ssg73
g171
sg66
(lp183
S':'
asbag59
(g80
g61
NtRp184
(dp185
g64
(dp186
sg73
g171
sg66
(lp187
g59
(g60
g61
NtRp188
(dp189
g64
(dp190
g72
I5
ssg73
g184
sg66
(lp191
S'127.0.0.1'
p192
asbasbasbag59
(g75
g61
NtRp193
(dp194
g64
(dp195
sg73
g69
sg66
(lp196
g59
(g80
g61
NtRp197
(dp198
g64
(dp199
g84
g85
ssg73
g193
sg66
(lp200
S'controller'
p201
asbag59
(g80
g61
NtRp202
(dp203
g64
(dp204
g91
g92
ssg73
g193
sg66
(lp205
S':'
asbag59
(g80
g61
NtRp206
(dp207
g64
(dp208
sg73
g193
sg66
(lp209
g59
(g60
g61
NtRp210
(dp211
g64
(dp212
g72
I5
ssg73
g206
sg66
(lp213
S'default'
p214
asbasbasbag59
(g75
g61
NtRp215
(dp216
g64
(dp217
sg73
g69
sg66
(lp218
g59
(g80
g61
NtRp219
(dp220
g64
(dp221
g84
g85
ssg73
g215
sg66
(lp222
S'cookies'
p223
asbag59
(g80
g61
NtRp224
(dp225
g64
(dp226
g91
g92
ssg73
g215
sg66
(lp227
S':'
asbag59
(g80
g61
NtRp228
(dp229
g64
(dp230
sg73
g215
sg66
(lp231
g59
(g60
g61
NtRp232
(dp233
g64
(dp234
g72
I5
ssg73
g228
sg66
(lp235
g59
(g68
g61
NtRp236
(dp237
g64
(dp238
g72
I4
ssg73
Nsg66
(lp239
g59
(g75
g61
NtRp240
(dp241
g64
(dp242
sg73
g236
sg66
(lp243
g59
(g80
g61
NtRp244
(dp245
g64
(dp246
g84
g85
ssg73
g240
sg66
(lp247
S'session_id_admin'
p248
asbag59
(g80
g61
NtRp249
(dp250
g64
(dp251
g91
g92
ssg73
g240
sg66
(lp252
S':'
asbag59
(g80
g61
NtRp253
(dp254
g64
(dp255
sg73
g240
sg66
(lp256
g59
(g60
g61
NtRp257
(dp258
g64
(dp259
g72
I4
ssg73
g253
sg66
(lp260
g59
(g68
g61
NtRp261
(dp262
g64
(dp263
g72
I3
ssg73
Nsg66
(lp264
g59
(g75
g61
NtRp265
(dp266
g64
(dp267
sg73
g261
sg66
(lp268
g59
(g80
g61
NtRp269
(dp270
g64
(dp271
g84
g85
ssg73
g265
sg66
(lp272
S'comment'
p273
asbag59
(g80
g61
NtRp274
(dp275
g64
(dp276
g91
g92
ssg73
g265
sg66
(lp277
S':'
asbag59
(g80
g61
NtRp278
(dp279
g64
(dp280
sg73
g265
sg66
(lp281
g59
(g60
g61
NtRp282
(dp283
g64
(dp284
g72
I3
ssg73
g278
sg66
(lp285
S''
asbasbasbag59
(g75
g61
NtRp286
(dp287
g64
(dp288
sg73
g261
sg66
(lp289
g59
(g80
g61
NtRp290
(dp291
g64
(dp292
g84
g85
ssg73
g286
sg66
(lp293
S'domain'
p294
asbag59
(g80
g61
NtRp295
(dp296
g64
(dp297
g91
g92
ssg73
g286
sg66
(lp298
S':'
asbag59
(g80
g61
NtRp299
(dp300
g64
(dp301
sg73
g286
sg66
(lp302
g59
(g60
g61
NtRp303
(dp304
g64
(dp305
g72
I3
ssg73
g299
sg66
(lp306
S''
asbasbasbag59
(g75
g61
NtRp307
(dp308
g64
(dp309
sg73
g261
sg66
(lp310
g59
(g80
g61
NtRp311
(dp312
g64
(dp313
g84
g85
ssg73
g307
sg66
(lp314
S'expires'
p315
asbag59
(g80
g61
NtRp316
(dp317
g64
(dp318
g91
g92
ssg73
g307
sg66
(lp319
S':'
asbag59
(g80
g61
NtRp320
(dp321
g64
(dp322
sg73
g307
sg66
(lp323
g59
(g60
g61
NtRp324
(dp325
g64
(dp326
g72
I3
ssg73
g320
sg66
(lp327
S''
asbasbasbag59
(g75
g61
NtRp328
(dp329
g64
(dp330
sg73
g261
sg66
(lp331
g59
(g80
g61
NtRp332
(dp333
g64
(dp334
g84
g85
ssg73
g328
sg66
(lp335
S'max-age'
p336
asbag59
(g80
g61
NtRp337
(dp338
g64
(dp339
g91
g92
ssg73
g328
sg66
(lp340
S':'
asbag59
(g80
g61
NtRp341
(dp342
g64
(dp343
sg73
g328
sg66
(lp344
g59
(g60
g61
NtRp345
(dp346
g64
(dp347
g72
I3
ssg73
g341
sg66
(lp348
S''
asbasbasbag59
(g75
g61
NtRp349
(dp350
g64
(dp351
sg73
g261
sg66
(lp352
g59
(g80
g61
NtRp353
(dp354
g64
(dp355
g84
g85
ssg73
g349
sg66
(lp356
S'path'
p357
asbag59
(g80
g61
NtRp358
(dp359
g64
(dp360
g91
g92
ssg73
g349
sg66
(lp361
S':'
asbag59
(g80
g61
NtRp362
(dp363
g64
(dp364
sg73
g349
sg66
(lp365
g59
(g60
g61
NtRp366
(dp367
g64
(dp368
g72
I3
ssg73
g362
sg66
(lp369
S''
asbasbasbag59
(g75
g61
NtRp370
(dp371
g64
(dp372
sg73
g261
sg66
(lp373
g59
(g80
g61
NtRp374
(dp375
g64
(dp376
g84
g85
ssg73
g370
sg66
(lp377
S'secure'
p378
asbag59
(g80
g61
NtRp379
(dp380
g64
(dp381
g91
g92
ssg73
g370
sg66
(lp382
S':'
asbag59
(g80
g61
NtRp383
(dp384
g64
(dp385
sg73
g370
sg66
(lp386
g59
(g60
g61
NtRp387
(dp388
g64
(dp389
g72
I3
ssg73
g383
sg66
(lp390
S''
asbasbasbag59
(g75
g61
NtRp391
(dp392
g64
(dp393
sg73
g261
sg66
(lp394
g59
(g80
g61
NtRp395
(dp396
g64
(dp397
g84
g85
ssg73
g391
sg66
(lp398
S'version'
p399
asbag59
(g80
g61
NtRp400
(dp401
g64
(dp402
g91
g92
ssg73
g391
sg66
(lp403
S':'
asbag59
(g80
g61
NtRp404
(dp405
g64
(dp406
sg73
g391
sg66
(lp407
g59
(g60
g61
NtRp408
(dp409
g64
(dp410
g72
I3
ssg73
g404
sg66
(lp411
S''
asbasbasbasbasbasbasbag59
(g75
g61
NtRp412
(dp413
g64
(dp414
sg73
g236
sg66
(lp415
g59
(g80
g61
NtRp416
(dp417
g64
(dp418
g84
g85
ssg73
g412
sg66
(lp419
S'session_id_cual_es_tu_nombre'
p420
asbag59
(g80
g61
NtRp421
(dp422
g64
(dp423
g91
g92
ssg73
g412
sg66
(lp424
S':'
asbag59
(g80
g61
NtRp425
(dp426
g64
(dp427
sg73
g412
sg66
(lp428
g59
(g60
g61
NtRp429
(dp430
g64
(dp431
g72
I4
ssg73
g425
sg66
(lp432
g59
(g68
g61
NtRp433
(dp434
g64
(dp435
g72
I3
ssg73
Nsg66
(lp436
g59
(g75
g61
NtRp437
(dp438
g64
(dp439
sg73
g433
sg66
(lp440
g59
(g80
g61
NtRp441
(dp442
g64
(dp443
g84
g85
ssg73
g437
sg66
(lp444
g273
asbag59
(g80
g61
NtRp445
(dp446
g64
(dp447
g91
g92
ssg73
g437
sg66
(lp448
S':'
asbag59
(g80
g61
NtRp449
(dp450
g64
(dp451
sg73
g437
sg66
(lp452
g59
(g60
g61
NtRp453
(dp454
g64
(dp455
g72
I3
ssg73
g449
sg66
(lp456
S''
asbasbasbag59
(g75
g61
NtRp457
(dp458
g64
(dp459
sg73
g433
sg66
(lp460
g59
(g80
g61
NtRp461
(dp462
g64
(dp463
g84
g85
ssg73
g457
sg66
(lp464
g294
asbag59
(g80
g61
NtRp465
(dp466
g64
(dp467
g91
g92
ssg73
g457
sg66
(lp468
S':'
asbag59
(g80
g61
NtRp469
(dp470
g64
(dp471
sg73
g457
sg66
(lp472
g59
(g60
g61
NtRp473
(dp474
g64
(dp475
g72
I3
ssg73
g469
sg66
(lp476
S''
asbasbasbag59
(g75
g61
NtRp477
(dp478
g64
(dp479
sg73
g433
sg66
(lp480
g59
(g80
g61
NtRp481
(dp482
g64
(dp483
g84
g85
ssg73
g477
sg66
(lp484
g315
asbag59
(g80
g61
NtRp485
(dp486
g64
(dp487
g91
g92
ssg73
g477
sg66
(lp488
S':'
asbag59
(g80
g61
NtRp489
(dp490
g64
(dp491
sg73
g477
sg66
(lp492
g59
(g60
g61
NtRp493
(dp494
g64
(dp495
g72
I3
ssg73
g489
sg66
(lp496
S''
asbasbasbag59
(g75
g61
NtRp497
(dp498
g64
(dp499
sg73
g433
sg66
(lp500
g59
(g80
g61
NtRp501
(dp502
g64
(dp503
g84
g85
ssg73
g497
sg66
(lp504
g336
asbag59
(g80
g61
NtRp505
(dp506
g64
(dp507
g91
g92
ssg73
g497
sg66
(lp508
S':'
asbag59
(g80
g61
NtRp509
(dp510
g64
(dp511
sg73
g497
sg66
(lp512
g59
(g60
g61
NtRp513
(dp514
g64
(dp515
g72
I3
ssg73
g509
sg66
(lp516
S''
asbasbasbag59
(g75
g61
NtRp517
(dp518
g64
(dp519
sg73
g433
sg66
(lp520
g59
(g80
g61
NtRp521
(dp522
g64
(dp523
g84
g85
ssg73
g517
sg66
(lp524
g357
asbag59
(g80
g61
NtRp525
(dp526
g64
(dp527
g91
g92
ssg73
g517
sg66
(lp528
S':'
asbag59
(g80
g61
NtRp529
(dp530
g64
(dp531
sg73
g517
sg66
(lp532
g59
(g60
g61
NtRp533
(dp534
g64
(dp535
g72
I3
ssg73
g529
sg66
(lp536
S''
asbasbasbag59
(g75
g61
NtRp537
(dp538
g64
(dp539
sg73
g433
sg66
(lp540
g59
(g80
g61
NtRp541
(dp542
g64
(dp543
g84
g85
ssg73
g537
sg66
(lp544
g378
asbag59
(g80
g61
NtRp545
(dp546
g64
(dp547
g91
g92
ssg73
g537
sg66
(lp548
S':'
asbag59
(g80
g61
NtRp549
(dp550
g64
(dp551
sg73
g537
sg66
(lp552
g59
(g60
g61
NtRp553
(dp554
g64
(dp555
g72
I3
ssg73
g549
sg66
(lp556
S''
asbasbasbag59
(g75
g61
NtRp557
(dp558
g64
(dp559
sg73
g433
sg66
(lp560
g59
(g80
g61
NtRp561
(dp562
g64
(dp563
g84
g85
ssg73
g557
sg66
(lp564
g399
asbag59
(g80
g61
NtRp565
(dp566
g64
(dp567
g91
g92
ssg73
g557
sg66
(lp568
S':'
asbag59
(g80
g61
NtRp569
(dp570
g64
(dp571
sg73
g557
sg66
(lp572
g59
(g60
g61
NtRp573
(dp574
g64
(dp575
g72
I3
ssg73
g569
sg66
(lp576
S''
asbasbasbasbasbasbasbag59
(g75
g61
NtRp577
(dp578
g64
(dp579
sg73
g236
sg66
(lp580
g59
(g80
g61
NtRp581
(dp582
g64
(dp583
g84
g85
ssg73
g577
sg66
(lp584
S'session_id_desglosar_emails'
p585
asbag59
(g80
g61
NtRp586
(dp587
g64
(dp588
g91
g92
ssg73
g577
sg66
(lp589
S':'
asbag59
(g80
g61
NtRp590
(dp591
g64
(dp592
sg73
g577
sg66
(lp593
g59
(g60
g61
NtRp594
(dp595
g64
(dp596
g72
I4
ssg73
g590
sg66
(lp597
g59
(g68
g61
NtRp598
(dp599
g64
(dp600
g72
I3
ssg73
Nsg66
(lp601
g59
(g75
g61
NtRp602
(dp603
g64
(dp604
sg73
g598
sg66
(lp605
g59
(g80
g61
NtRp606
(dp607
g64
(dp608
g84
g85
ssg73
g602
sg66
(lp609
g273
asbag59
(g80
g61
NtRp610
(dp611
g64
(dp612
g91
g92
ssg73
g602
sg66
(lp613
S':'
asbag59
(g80
g61
NtRp614
(dp615
g64
(dp616
sg73
g602
sg66
(lp617
g59
(g60
g61
NtRp618
(dp619
g64
(dp620
g72
I3
ssg73
g614
sg66
(lp621
S''
asbasbasbag59
(g75
g61
NtRp622
(dp623
g64
(dp624
sg73
g598
sg66
(lp625
g59
(g80
g61
NtRp626
(dp627
g64
(dp628
g84
g85
ssg73
g622
sg66
(lp629
g294
asbag59
(g80
g61
NtRp630
(dp631
g64
(dp632
g91
g92
ssg73
g622
sg66
(lp633
S':'
asbag59
(g80
g61
NtRp634
(dp635
g64
(dp636
sg73
g622
sg66
(lp637
g59
(g60
g61
NtRp638
(dp639
g64
(dp640
g72
I3
ssg73
g634
sg66
(lp641
S''
asbasbasbag59
(g75
g61
NtRp642
(dp643
g64
(dp644
sg73
g598
sg66
(lp645
g59
(g80
g61
NtRp646
(dp647
g64
(dp648
g84
g85
ssg73
g642
sg66
(lp649
g315
asbag59
(g80
g61
NtRp650
(dp651
g64
(dp652
g91
g92
ssg73
g642
sg66
(lp653
S':'
asbag59
(g80
g61
NtRp654
(dp655
g64
(dp656
sg73
g642
sg66
(lp657
g59
(g60
g61
NtRp658
(dp659
g64
(dp660
g72
I3
ssg73
g654
sg66
(lp661
S''
asbasbasbag59
(g75
g61
NtRp662
(dp663
g64
(dp664
sg73
g598
sg66
(lp665
g59
(g80
g61
NtRp666
(dp667
g64
(dp668
g84
g85
ssg73
g662
sg66
(lp669
g336
asbag59
(g80
g61
NtRp670
(dp671
g64
(dp672
g91
g92
ssg73
g662
sg66
(lp673
S':'
asbag59
(g80
g61
NtRp674
(dp675
g64
(dp676
sg73
g662
sg66
(lp677
g59
(g60
g61
NtRp678
(dp679
g64
(dp680
g72
I3
ssg73
g674
sg66
(lp681
S''
asbasbasbag59
(g75
g61
NtRp682
(dp683
g64
(dp684
sg73
g598
sg66
(lp685
g59
(g80
g61
NtRp686
(dp687
g64
(dp688
g84
g85
ssg73
g682
sg66
(lp689
g357
asbag59
(g80
g61
NtRp690
(dp691
g64
(dp692
g91
g92
ssg73
g682
sg66
(lp693
S':'
asbag59
(g80
g61
NtRp694
(dp695
g64
(dp696
sg73
g682
sg66
(lp697
g59
(g60
g61
NtRp698
(dp699
g64
(dp700
g72
I3
ssg73
g694
sg66
(lp701
S''
asbasbasbag59
(g75
g61
NtRp702
(dp703
g64
(dp704
sg73
g598
sg66
(lp705
g59
(g80
g61
NtRp706
(dp707
g64
(dp708
g84
g85
ssg73
g702
sg66
(lp709
g378
asbag59
(g80
g61
NtRp710
(dp711
g64
(dp712
g91
g92
ssg73
g702
sg66
(lp713
S':'
asbag59
(g80
g61
NtRp714
(dp715
g64
(dp716
sg73
g702
sg66
(lp717
g59
(g60
g61
NtRp718
(dp719
g64
(dp720
g72
I3
ssg73
g714
sg66
(lp721
S''
asbasbasbag59
(g75
g61
NtRp722
(dp723
g64
(dp724
sg73
g598
sg66
(lp725
g59
(g80
g61
NtRp726
(dp727
g64
(dp728
g84
g85
ssg73
g722
sg66
(lp729
g399
asbag59
(g80
g61
NtRp730
(dp731
g64
(dp732
g91
g92
ssg73
g722
sg66
(lp733
S':'
asbag59
(g80
g61
NtRp734
(dp735
g64
(dp736
sg73
g722
sg66
(lp737
g59
(g60
g61
NtRp738
(dp739
g64
(dp740
g72
I3
ssg73
g734
sg66
(lp741
S''
asbasbasbasbasbasbasbag59
(g75
g61
NtRp742
(dp743
g64
(dp744
sg73
g236
sg66
(lp745
g59
(g80
g61
NtRp746
(dp747
g64
(dp748
g84
g85
ssg73
g742
sg66
(lp749
S'session_id_hemoal'
p750
asbag59
(g80
g61
NtRp751
(dp752
g64
(dp753
g91
g92
ssg73
g742
sg66
(lp754
S':'
asbag59
(g80
g61
NtRp755
(dp756
g64
(dp757
sg73
g742
sg66
(lp758
g59
(g60
g61
NtRp759
(dp760
g64
(dp761
g72
I4
ssg73
g755
sg66
(lp762
g59
(g68
g61
NtRp763
(dp764
g64
(dp765
g72
I3
ssg73
Nsg66
(lp766
g59
(g75
g61
NtRp767
(dp768
g64
(dp769
sg73
g763
sg66
(lp770
g59
(g80
g61
NtRp771
(dp772
g64
(dp773
g84
g85
ssg73
g767
sg66
(lp774
g273
asbag59
(g80
g61
NtRp775
(dp776
g64
(dp777
g91
g92
ssg73
g767
sg66
(lp778
S':'
asbag59
(g80
g61
NtRp779
(dp780
g64
(dp781
sg73
g767
sg66
(lp782
g59
(g60
g61
NtRp783
(dp784
g64
(dp785
g72
I3
ssg73
g779
sg66
(lp786
S''
asbasbasbag59
(g75
g61
NtRp787
(dp788
g64
(dp789
sg73
g763
sg66
(lp790
g59
(g80
g61
NtRp791
(dp792
g64
(dp793
g84
g85
ssg73
g787
sg66
(lp794
g294
asbag59
(g80
g61
NtRp795
(dp796
g64
(dp797
g91
g92
ssg73
g787
sg66
(lp798
S':'
asbag59
(g80
g61
NtRp799
(dp800
g64
(dp801
sg73
g787
sg66
(lp802
g59
(g60
g61
NtRp803
(dp804
g64
(dp805
g72
I3
ssg73
g799
sg66
(lp806
S''
asbasbasbag59
(g75
g61
NtRp807
(dp808
g64
(dp809
sg73
g763
sg66
(lp810
g59
(g80
g61
NtRp811
(dp812
g64
(dp813
g84
g85
ssg73
g807
sg66
(lp814
g315
asbag59
(g80
g61
NtRp815
(dp816
g64
(dp817
g91
g92
ssg73
g807
sg66
(lp818
S':'
asbag59
(g80
g61
NtRp819
(dp820
g64
(dp821
sg73
g807
sg66
(lp822
g59
(g60
g61
NtRp823
(dp824
g64
(dp825
g72
I3
ssg73
g819
sg66
(lp826
S''
asbasbasbag59
(g75
g61
NtRp827
(dp828
g64
(dp829
sg73
g763
sg66
(lp830
g59
(g80
g61
NtRp831
(dp832
g64
(dp833
g84
g85
ssg73
g827
sg66
(lp834
g336
asbag59
(g80
g61
NtRp835
(dp836
g64
(dp837
g91
g92
ssg73
g827
sg66
(lp838
S':'
asbag59
(g80
g61
NtRp839
(dp840
g64
(dp841
sg73
g827
sg66
(lp842
g59
(g60
g61
NtRp843
(dp844
g64
(dp845
g72
I3
ssg73
g839
sg66
(lp846
S''
asbasbasbag59
(g75
g61
NtRp847
(dp848
g64
(dp849
sg73
g763
sg66
(lp850
g59
(g80
g61
NtRp851
(dp852
g64
(dp853
g84
g85
ssg73
g847
sg66
(lp854
g357
asbag59
(g80
g61
NtRp855
(dp856
g64
(dp857
g91
g92
ssg73
g847
sg66
(lp858
S':'
asbag59
(g80
g61
NtRp859
(dp860
g64
(dp861
sg73
g847
sg66
(lp862
g59
(g60
g61
NtRp863
(dp864
g64
(dp865
g72
I3
ssg73
g859
sg66
(lp866
S''
asbasbasbag59
(g75
g61
NtRp867
(dp868
g64
(dp869
sg73
g763
sg66
(lp870
g59
(g80
g61
NtRp871
(dp872
g64
(dp873
g84
g85
ssg73
g867
sg66
(lp874
g378
asbag59
(g80
g61
NtRp875
(dp876
g64
(dp877
g91
g92
ssg73
g867
sg66
(lp878
S':'
asbag59
(g80
g61
NtRp879
(dp880
g64
(dp881
sg73
g867
sg66
(lp882
g59
(g60
g61
NtRp883
(dp884
g64
(dp885
g72
I3
ssg73
g879
sg66
(lp886
S''
asbasbasbag59
(g75
g61
NtRp887
(dp888
g64
(dp889
sg73
g763
sg66
(lp890
g59
(g80
g61
NtRp891
(dp892
g64
(dp893
g84
g85
ssg73
g887
sg66
(lp894
g399
asbag59
(g80
g61
NtRp895
(dp896
g64
(dp897
g91
g92
ssg73
g887
sg66
(lp898
S':'
asbag59
(g80
g61
NtRp899
(dp900
g64
(dp901
sg73
g887
sg66
(lp902
g59
(g60
g61
NtRp903
(dp904
g64
(dp905
g72
I3
ssg73
g899
sg66
(lp906
S''
asbasbasbasbasbasbasbag59
(g75
g61
NtRp907
(dp908
g64
(dp909
sg73
g236
sg66
(lp910
g59
(g80
g61
NtRp911
(dp912
g64
(dp913
g84
g85
ssg73
g907
sg66
(lp914
S'session_id_listado_1'
p915
asbag59
(g80
g61
NtRp916
(dp917
g64
(dp918
g91
g92
ssg73
g907
sg66
(lp919
S':'
asbag59
(g80
g61
NtRp920
(dp921
g64
(dp922
sg73
g907
sg66
(lp923
g59
(g60
g61
NtRp924
(dp925
g64
(dp926
g72
I4
ssg73
g920
sg66
(lp927
g59
(g68
g61
NtRp928
(dp929
g64
(dp930
g72
I3
ssg73
Nsg66
(lp931
g59
(g75
g61
NtRp932
(dp933
g64
(dp934
sg73
g928
sg66
(lp935
g59
(g80
g61
NtRp936
(dp937
g64
(dp938
g84
g85
ssg73
g932
sg66
(lp939
g273
asbag59
(g80
g61
NtRp940
(dp941
g64
(dp942
g91
g92
ssg73
g932
sg66
(lp943
S':'
asbag59
(g80
g61
NtRp944
(dp945
g64
(dp946
sg73
g932
sg66
(lp947
g59
(g60
g61
NtRp948
(dp949
g64
(dp950
g72
I3
ssg73
g944
sg66
(lp951
S''
asbasbasbag59
(g75
g61
NtRp952
(dp953
g64
(dp954
sg73
g928
sg66
(lp955
g59
(g80
g61
NtRp956
(dp957
g64
(dp958
g84
g85
ssg73
g952
sg66
(lp959
g294
asbag59
(g80
g61
NtRp960
(dp961
g64
(dp962
g91
g92
ssg73
g952
sg66
(lp963
S':'
asbag59
(g80
g61
NtRp964
(dp965
g64
(dp966
sg73
g952
sg66
(lp967
g59
(g60
g61
NtRp968
(dp969
g64
(dp970
g72
I3
ssg73
g964
sg66
(lp971
S''
asbasbasbag59
(g75
g61
NtRp972
(dp973
g64
(dp974
sg73
g928
sg66
(lp975
g59
(g80
g61
NtRp976
(dp977
g64
(dp978
g84
g85
ssg73
g972
sg66
(lp979
g315
asbag59
(g80
g61
NtRp980
(dp981
g64
(dp982
g91
g92
ssg73
g972
sg66
(lp983
S':'
asbag59
(g80
g61
NtRp984
(dp985
g64
(dp986
sg73
g972
sg66
(lp987
g59
(g60
g61
NtRp988
(dp989
g64
(dp990
g72
I3
ssg73
g984
sg66
(lp991
S''
asbasbasbag59
(g75
g61
NtRp992
(dp993
g64
(dp994
sg73
g928
sg66
(lp995
g59
(g80
g61
NtRp996
(dp997
g64
(dp998
g84
g85
ssg73
g992
sg66
(lp999
g336
asbag59
(g80
g61
NtRp1000
(dp1001
g64
(dp1002
g91
g92
ssg73
g992
sg66
(lp1003
S':'
asbag59
(g80
g61
NtRp1004
(dp1005
g64
(dp1006
sg73
g992
sg66
(lp1007
g59
(g60
g61
NtRp1008
(dp1009
g64
(dp1010
g72
I3
ssg73
g1004
sg66
(lp1011
S''
asbasbasbag59
(g75
g61
NtRp1012
(dp1013
g64
(dp1014
sg73
g928
sg66
(lp1015
g59
(g80
g61
NtRp1016
(dp1017
g64
(dp1018
g84
g85
ssg73
g1012
sg66
(lp1019
g357
asbag59
(g80
g61
NtRp1020
(dp1021
g64
(dp1022
g91
g92
ssg73
g1012
sg66
(lp1023
S':'
asbag59
(g80
g61
NtRp1024
(dp1025
g64
(dp1026
sg73
g1012
sg66
(lp1027
g59
(g60
g61
NtRp1028
(dp1029
g64
(dp1030
g72
I3
ssg73
g1024
sg66
(lp1031
S''
asbasbasbag59
(g75
g61
NtRp1032
(dp1033
g64
(dp1034
sg73
g928
sg66
(lp1035
g59
(g80
g61
NtRp1036
(dp1037
g64
(dp1038
g84
g85
ssg73
g1032
sg66
(lp1039
g378
asbag59
(g80
g61
NtRp1040
(dp1041
g64
(dp1042
g91
g92
ssg73
g1032
sg66
(lp1043
S':'
asbag59
(g80
g61
NtRp1044
(dp1045
g64
(dp1046
sg73
g1032
sg66
(lp1047
g59
(g60
g61
NtRp1048
(dp1049
g64
(dp1050
g72
I3
ssg73
g1044
sg66
(lp1051
S''
asbasbasbag59
(g75
g61
NtRp1052
(dp1053
g64
(dp1054
sg73
g928
sg66
(lp1055
g59
(g80
g61
NtRp1056
(dp1057
g64
(dp1058
g84
g85
ssg73
g1052
sg66
(lp1059
g399
asbag59
(g80
g61
NtRp1060
(dp1061
g64
(dp1062
g91
g92
ssg73
g1052
sg66
(lp1063
S':'
asbag59
(g80
g61
NtRp1064
(dp1065
g64
(dp1066
sg73
g1052
sg66
(lp1067
g59
(g60
g61
NtRp1068
(dp1069
g64
(dp1070
g72
I3
ssg73
g1064
sg66
(lp1071
S''
asbasbasbasbasbasbasbag59
(g75
g61
NtRp1072
(dp1073
g64
(dp1074
sg73
g236
sg66
(lp1075
g59
(g80
g61
NtRp1076
(dp1077
g64
(dp1078
g84
g85
ssg73
g1072
sg66
(lp1079
S'session_id_myappjav'
p1080
asbag59
(g80
g61
NtRp1081
(dp1082
g64
(dp1083
g91
g92
ssg73
g1072
sg66
(lp1084
S':'
asbag59
(g80
g61
NtRp1085
(dp1086
g64
(dp1087
sg73
g1072
sg66
(lp1088
g59
(g60
g61
NtRp1089
(dp1090
g64
(dp1091
g72
I4
ssg73
g1085
sg66
(lp1092
g59
(g68
g61
NtRp1093
(dp1094
g64
(dp1095
g72
I3
ssg73
Nsg66
(lp1096
g59
(g75
g61
NtRp1097
(dp1098
g64
(dp1099
sg73
g1093
sg66
(lp1100
g59
(g80
g61
NtRp1101
(dp1102
g64
(dp1103
g84
g85
ssg73
g1097
sg66
(lp1104
g273
asbag59
(g80
g61
NtRp1105
(dp1106
g64
(dp1107
g91
g92
ssg73
g1097
sg66
(lp1108
S':'
asbag59
(g80
g61
NtRp1109
(dp1110
g64
(dp1111
sg73
g1097
sg66
(lp1112
g59
(g60
g61
NtRp1113
(dp1114
g64
(dp1115
g72
I3
ssg73
g1109
sg66
(lp1116
S''
asbasbasbag59
(g75
g61
NtRp1117
(dp1118
g64
(dp1119
sg73
g1093
sg66
(lp1120
g59
(g80
g61
NtRp1121
(dp1122
g64
(dp1123
g84
g85
ssg73
g1117
sg66
(lp1124
g294
asbag59
(g80
g61
NtRp1125
(dp1126
g64
(dp1127
g91
g92
ssg73
g1117
sg66
(lp1128
S':'
asbag59
(g80
g61
NtRp1129
(dp1130
g64
(dp1131
sg73
g1117
sg66
(lp1132
g59
(g60
g61
NtRp1133
(dp1134
g64
(dp1135
g72
I3
ssg73
g1129
sg66
(lp1136
S''
asbasbasbag59
(g75
g61
NtRp1137
(dp1138
g64
(dp1139
sg73
g1093
sg66
(lp1140
g59
(g80
g61
NtRp1141
(dp1142
g64
(dp1143
g84
g85
ssg73
g1137
sg66
(lp1144
g315
asbag59
(g80
g61
NtRp1145
(dp1146
g64
(dp1147
g91
g92
ssg73
g1137
sg66
(lp1148
S':'
asbag59
(g80
g61
NtRp1149
(dp1150
g64
(dp1151
sg73
g1137
sg66
(lp1152
g59
(g60
g61
NtRp1153
(dp1154
g64
(dp1155
g72
I3
ssg73
g1149
sg66
(lp1156
S''
asbasbasbag59
(g75
g61
NtRp1157
(dp1158
g64
(dp1159
sg73
g1093
sg66
(lp1160
g59
(g80
g61
NtRp1161
(dp1162
g64
(dp1163
g84
g85
ssg73
g1157
sg66
(lp1164
g336
asbag59
(g80
g61
NtRp1165
(dp1166
g64
(dp1167
g91
g92
ssg73
g1157
sg66
(lp1168
S':'
asbag59
(g80
g61
NtRp1169
(dp1170
g64
(dp1171
sg73
g1157
sg66
(lp1172
g59
(g60
g61
NtRp1173
(dp1174
g64
(dp1175
g72
I3
ssg73
g1169
sg66
(lp1176
S''
asbasbasbag59
(g75
g61
NtRp1177
(dp1178
g64
(dp1179
sg73
g1093
sg66
(lp1180
g59
(g80
g61
NtRp1181
(dp1182
g64
(dp1183
g84
g85
ssg73
g1177
sg66
(lp1184
g357
asbag59
(g80
g61
NtRp1185
(dp1186
g64
(dp1187
g91
g92
ssg73
g1177
sg66
(lp1188
S':'
asbag59
(g80
g61
NtRp1189
(dp1190
g64
(dp1191
sg73
g1177
sg66
(lp1192
g59
(g60
g61
NtRp1193
(dp1194
g64
(dp1195
g72
I3
ssg73
g1189
sg66
(lp1196
S''
asbasbasbag59
(g75
g61
NtRp1197
(dp1198
g64
(dp1199
sg73
g1093
sg66
(lp1200
g59
(g80
g61
NtRp1201
(dp1202
g64
(dp1203
g84
g85
ssg73
g1197
sg66
(lp1204
g378
asbag59
(g80
g61
NtRp1205
(dp1206
g64
(dp1207
g91
g92
ssg73
g1197
sg66
(lp1208
S':'
asbag59
(g80
g61
NtRp1209
(dp1210
g64
(dp1211
sg73
g1197
sg66
(lp1212
g59
(g60
g61
NtRp1213
(dp1214
g64
(dp1215
g72
I3
ssg73
g1209
sg66
(lp1216
S''
asbasbasbag59
(g75
g61
NtRp1217
(dp1218
g64
(dp1219
sg73
g1093
sg66
(lp1220
g59
(g80
g61
NtRp1221
(dp1222
g64
(dp1223
g84
g85
ssg73
g1217
sg66
(lp1224
g399
asbag59
(g80
g61
NtRp1225
(dp1226
g64
(dp1227
g91
g92
ssg73
g1217
sg66
(lp1228
S':'
asbag59
(g80
g61
NtRp1229
(dp1230
g64
(dp1231
sg73
g1217
sg66
(lp1232
g59
(g60
g61
NtRp1233
(dp1234
g64
(dp1235
g72
I3
ssg73
g1229
sg66
(lp1236
S''
asbasbasbasbasbasbasbag59
(g75
g61
NtRp1237
(dp1238
g64
(dp1239
sg73
g236
sg66
(lp1240
g59
(g80
g61
NtRp1241
(dp1242
g64
(dp1243
g84
g85
ssg73
g1237
sg66
(lp1244
S'session_id_welcome'
p1245
asbag59
(g80
g61
NtRp1246
(dp1247
g64
(dp1248
g91
g92
ssg73
g1237
sg66
(lp1249
S':'
asbag59
(g80
g61
NtRp1250
(dp1251
g64
(dp1252
sg73
g1237
sg66
(lp1253
g59
(g60
g61
NtRp1254
(dp1255
g64
(dp1256
g72
I4
ssg73
g1250
sg66
(lp1257
g59
(g68
g61
NtRp1258
(dp1259
g64
(dp1260
g72
I3
ssg73
Nsg66
(lp1261
g59
(g75
g61
NtRp1262
(dp1263
g64
(dp1264
sg73
g1258
sg66
(lp1265
g59
(g80
g61
NtRp1266
(dp1267
g64
(dp1268
g84
g85
ssg73
g1262
sg66
(lp1269
g273
asbag59
(g80
g61
NtRp1270
(dp1271
g64
(dp1272
g91
g92
ssg73
g1262
sg66
(lp1273
S':'
asbag59
(g80
g61
NtRp1274
(dp1275
g64
(dp1276
sg73
g1262
sg66
(lp1277
g59
(g60
g61
NtRp1278
(dp1279
g64
(dp1280
g72
I3
ssg73
g1274
sg66
(lp1281
S''
asbasbasbag59
(g75
g61
NtRp1282
(dp1283
g64
(dp1284
sg73
g1258
sg66
(lp1285
g59
(g80
g61
NtRp1286
(dp1287
g64
(dp1288
g84
g85
ssg73
g1282
sg66
(lp1289
g294
asbag59
(g80
g61
NtRp1290
(dp1291
g64
(dp1292
g91
g92
ssg73
g1282
sg66
(lp1293
S':'
asbag59
(g80
g61
NtRp1294
(dp1295
g64
(dp1296
sg73
g1282
sg66
(lp1297
g59
(g60
g61
NtRp1298
(dp1299
g64
(dp1300
g72
I3
ssg73
g1294
sg66
(lp1301
S''
asbasbasbag59
(g75
g61
NtRp1302
(dp1303
g64
(dp1304
sg73
g1258
sg66
(lp1305
g59
(g80
g61
NtRp1306
(dp1307
g64
(dp1308
g84
g85
ssg73
g1302
sg66
(lp1309
g315
asbag59
(g80
g61
NtRp1310
(dp1311
g64
(dp1312
g91
g92
ssg73
g1302
sg66
(lp1313
S':'
asbag59
(g80
g61
NtRp1314
(dp1315
g64
(dp1316
sg73
g1302
sg66
(lp1317
g59
(g60
g61
NtRp1318
(dp1319
g64
(dp1320
g72
I3
ssg73
g1314
sg66
(lp1321
S''
asbasbasbag59
(g75
g61
NtRp1322
(dp1323
g64
(dp1324
sg73
g1258
sg66
(lp1325
g59
(g80
g61
NtRp1326
(dp1327
g64
(dp1328
g84
g85
ssg73
g1322
sg66
(lp1329
g336
asbag59
(g80
g61
NtRp1330
(dp1331
g64
(dp1332
g91
g92
ssg73
g1322
sg66
(lp1333
S':'
asbag59
(g80
g61
NtRp1334
(dp1335
g64
(dp1336
sg73
g1322
sg66
(lp1337
g59
(g60
g61
NtRp1338
(dp1339
g64
(dp1340
g72
I3
ssg73
g1334
sg66
(lp1341
S''
asbasbasbag59
(g75
g61
NtRp1342
(dp1343
g64
(dp1344
sg73
g1258
sg66
(lp1345
g59
(g80
g61
NtRp1346
(dp1347
g64
(dp1348
g84
g85
ssg73
g1342
sg66
(lp1349
g357
asbag59
(g80
g61
NtRp1350
(dp1351
g64
(dp1352
g91
g92
ssg73
g1342
sg66
(lp1353
S':'
asbag59
(g80
g61
NtRp1354
(dp1355
g64
(dp1356
sg73
g1342
sg66
(lp1357
g59
(g60
g61
NtRp1358
(dp1359
g64
(dp1360
g72
I3
ssg73
g1354
sg66
(lp1361
S''
asbasbasbag59
(g75
g61
NtRp1362
(dp1363
g64
(dp1364
sg73
g1258
sg66
(lp1365
g59
(g80
g61
NtRp1366
(dp1367
g64
(dp1368
g84
g85
ssg73
g1362
sg66
(lp1369
g378
asbag59
(g80
g61
NtRp1370
(dp1371
g64
(dp1372
g91
g92
ssg73
g1362
sg66
(lp1373
S':'
asbag59
(g80
g61
NtRp1374
(dp1375
g64
(dp1376
sg73
g1362
sg66
(lp1377
g59
(g60
g61
NtRp1378
(dp1379
g64
(dp1380
g72
I3
ssg73
g1374
sg66
(lp1381
S''
asbasbasbag59
(g75
g61
NtRp1382
(dp1383
g64
(dp1384
sg73
g1258
sg66
(lp1385
g59
(g80
g61
NtRp1386
(dp1387
g64
(dp1388
g84
g85
ssg73
g1382
sg66
(lp1389
g399
asbag59
(g80
g61
NtRp1390
(dp1391
g64
(dp1392
g91
g92
ssg73
g1382
sg66
(lp1393
S':'
asbag59
(g80
g61
NtRp1394
(dp1395
g64
(dp1396
sg73
g1382
sg66
(lp1397
g59
(g60
g61
NtRp1398
(dp1399
g64
(dp1400
g72
I3
ssg73
g1394
sg66
(lp1401
S''
asbasbasbasbasbasbasbasbasbasbasbag59
(g75
g61
NtRp1402
(dp1403
g64
(dp1404
sg73
g69
sg66
(lp1405
g59
(g80
g61
NtRp1406
(dp1407
g64
(dp1408
g84
g85
ssg73
g1402
sg66
(lp1409
S'env'
p1410
asbag59
(g80
g61
NtRp1411
(dp1412
g64
(dp1413
g91
g92
ssg73
g1402
sg66
(lp1414
S':'
asbag59
(g80
g61
NtRp1415
(dp1416
g64
(dp1417
sg73
g1402
sg66
(lp1418
g59
(g60
g61
NtRp1419
(dp1420
g64
(dp1421
g72
I5
ssg73
g1415
sg66
(lp1422
g59
(g68
g61
NtRp1423
(dp1424
g64
(dp1425
g72
I4
ssg73
Nsg66
(lp1426
g59
(g75
g61
NtRp1427
(dp1428
g64
(dp1429
sg73
g1423
sg66
(lp1430
g59
(g80
g61
NtRp1431
(dp1432
g64
(dp1433
g84
g85
ssg73
g1427
sg66
(lp1434
S'app_folders'
p1435
asbag59
(g80
g61
NtRp1436
(dp1437
g64
(dp1438
g91
g92
ssg73
g1427
sg66
(lp1439
S':'
asbag59
(g80
g61
NtRp1440
(dp1441
g64
(dp1442
sg73
g1427
sg66
(lp1443
g59
(g60
g61
NtRp1444
(dp1445
g64
(dp1446
g72
I4
ssg73
g1440
sg66
(lp1447
S"set(['C:\\\\Users\\\\Atomico\\\\web2py\\\\applications\\\\Desglosar_Emails\\\\', 'C:\\\\Users\\\\Atomico\\\\web2py\\\\applications\\\\Cual_es_tu_nombre\\\\', 'C:\\\\Users\\\\Atomico\\\\web2py\\\\applications\\\\admin\\\\', 'C:\\\\Users\\\\Atomico\\\\web2py\\\\applications\\\\hemoal\\\\', 'C:\\\\Users\\\\Atomico\\\\web2py\\\\applications\\\\myAppJav\\\\', 'C:\\\\Users\\\\Atomico\\\\web2py\\\\applications\\\\welcome\\\\', 'C:\\\\Users\\\\Atomico\\\\web2py\\\\applications\\\\examples\\\\'])"
p1448
asbasbasbag59
(g75
g61
NtRp1449
(dp1450
g64
(dp1451
sg73
g1423
sg66
(lp1452
g59
(g80
g61
NtRp1453
(dp1454
g64
(dp1455
g84
g85
ssg73
g1449
sg66
(lp1456
S'applications_parent'
p1457
asbag59
(g80
g61
NtRp1458
(dp1459
g64
(dp1460
g91
g92
ssg73
g1449
sg66
(lp1461
S':'
asbag59
(g80
g61
NtRp1462
(dp1463
g64
(dp1464
sg73
g1449
sg66
(lp1465
g59
(g60
g61
NtRp1466
(dp1467
g64
(dp1468
g72
I4
ssg73
g1462
sg66
(lp1469
S'C:\\Users\\Atomico\\web2py'
p1470
asbasbasbag59
(g75
g61
NtRp1471
(dp1472
g64
(dp1473
sg73
g1423
sg66
(lp1474
g59
(g80
g61
NtRp1475
(dp1476
g64
(dp1477
g84
g85
ssg73
g1471
sg66
(lp1478
S'cmd_args'
p1479
asbag59
(g80
g61
NtRp1480
(dp1481
g64
(dp1482
g91
g92
ssg73
g1471
sg66
(lp1483
S':'
asbag59
(g80
g61
NtRp1484
(dp1485
g64
(dp1486
sg73
g1471
sg66
(lp1487
g59
(g60
g61
NtRp1488
(dp1489
g64
(dp1490
g72
I4
ssg73
g1484
sg66
(lp1491
g59
(g68
g61
NtRp1492
(dp1493
g64
(dp1494
g72
I3
ssg73
Nsg66
(lp1495
sbasbasbasbag59
(g75
g61
NtRp1496
(dp1497
g64
(dp1498
sg73
g1423
sg66
(lp1499
g59
(g80
g61
NtRp1500
(dp1501
g64
(dp1502
g84
g85
ssg73
g1496
sg66
(lp1503
S'cmd_options'
p1504
asbag59
(g80
g61
NtRp1505
(dp1506
g64
(dp1507
g91
g92
ssg73
g1496
sg66
(lp1508
S':'
asbag59
(g80
g61
NtRp1509
(dp1510
g64
(dp1511
sg73
g1496
sg66
(lp1512
g59
(g60
g61
NtRp1513
(dp1514
g64
(dp1515
g72
I4
ssg73
g1509
sg66
(lp1516
S"<Values at 0x306b620: {'verbose': False, 'ip': '127.0.0.1', 'shutdown_timeout': 5, 'taskbar': False, 'port': 8000, 'maxthreads': None, 'softcron': False, 'server_name': 'Swing', 'bpython': False, 'nogui': False, 'nocron': False, 'extcron': False, 'debuglevel': 30, 'test': None, 'folder': 'C:\\\\Users\\\\Atomico\\\\web2py', 'config': '', 'import_models': False, 'winservice': '', 'shell': None, 'run': '', 'log_filename': 'httpserver.log', 'args': [''], 'profiler_filename': None, 'ssl_private_key': '', 'password': '<ask>', 'request_queue_size': 5, 'ssl_certificate': '', 'cronjob': False, 'plain': False, 'quiet': False, 'interfaces': None, 'minthreads': None, 'timeout': 10, 'numthreads': None, 'nobanner': False, 'pid_filename': 'httpserver.pid'}>"
p1517
asbasbasbag59
(g75
g61
NtRp1518
(dp1519
g64
(dp1520
sg73
g1423
sg66
(lp1521
g59
(g80
g61
NtRp1522
(dp1523
g64
(dp1524
g84
g85
ssg73
g1518
sg66
(lp1525
S'db_sessions'
p1526
asbag59
(g80
g61
NtRp1527
(dp1528
g64
(dp1529
g91
g92
ssg73
g1518
sg66
(lp1530
S':'
asbag59
(g80
g61
NtRp1531
(dp1532
g64
(dp1533
sg73
g1518
sg66
(lp1534
g59
(g60
g61
NtRp1535
(dp1536
g64
(dp1537
g72
I4
ssg73
g1531
sg66
(lp1538
S'set([])'
p1539
asbasbasbag59
(g75
g61
NtRp1540
(dp1541
g64
(dp1542
sg73
g1423
sg66
(lp1543
g59
(g80
g61
NtRp1544
(dp1545
g64
(dp1546
g84
g85
ssg73
g1540
sg66
(lp1547
S'debugging'
p1548
asbag59
(g80
g61
NtRp1549
(dp1550
g64
(dp1551
g91
g92
ssg73
g1540
sg66
(lp1552
S':'
asbag59
(g80
g61
NtRp1553
(dp1554
g64
(dp1555
sg73
g1540
sg66
(lp1556
g59
(g60
g61
NtRp1557
(dp1558
g64
(dp1559
g72
I4
ssg73
g1553
sg66
(lp1560
g102
asbasbasbag59
(g75
g61
NtRp1561
(dp1562
g64
(dp1563
sg73
g1423
sg66
(lp1564
g59
(g80
g61
NtRp1565
(dp1566
g64
(dp1567
g84
g85
ssg73
g1561
sg66
(lp1568
S'gluon_parent'
p1569
asbag59
(g80
g61
NtRp1570
(dp1571
g64
(dp1572
g91
g92
ssg73
g1561
sg66
(lp1573
S':'
asbag59
(g80
g61
NtRp1574
(dp1575
g64
(dp1576
sg73
g1561
sg66
(lp1577
g59
(g60
g61
NtRp1578
(dp1579
g64
(dp1580
g72
I4
ssg73
g1574
sg66
(lp1581
S'C:\\Users\\Atomico\\web2py'
p1582
asbasbasbag59
(g75
g61
NtRp1583
(dp1584
g64
(dp1585
sg73
g1423
sg66
(lp1586
g59
(g80
g61
NtRp1587
(dp1588
g64
(dp1589
g84
g85
ssg73
g1583
sg66
(lp1590
S'http_accept'
p1591
asbag59
(g80
g61
NtRp1592
(dp1593
g64
(dp1594
g91
g92
ssg73
g1583
sg66
(lp1595
S':'
asbag59
(g80
g61
NtRp1596
(dp1597
g64
(dp1598
sg73
g1583
sg66
(lp1599
g59
(g60
g61
NtRp1600
(dp1601
g64
(dp1602
g72
I4
ssg73
g1596
sg66
(lp1603
S'text/html,application/xhtml+xml,application/xml;q=0.9,*/*;q=0.8'
p1604
asbasbasbag59
(g75
g61
NtRp1605
(dp1606
g64
(dp1607
sg73
g1423
sg66
(lp1608
g59
(g80
g61
NtRp1609
(dp1610
g64
(dp1611
g84
g85
ssg73
g1605
sg66
(lp1612
S'http_accept_charset'
p1613
asbag59
(g80
g61
NtRp1614
(dp1615
g64
(dp1616
g91
g92
ssg73
g1605
sg66
(lp1617
S':'
asbag59
(g80
g61
NtRp1618
(dp1619
g64
(dp1620
sg73
g1605
sg66
(lp1621
g59
(g60
g61
NtRp1622
(dp1623
g64
(dp1624
g72
I4
ssg73
g1618
sg66
(lp1625
S'ISO-8859-1,utf-8;q=0.7,*;q=0.7'
p1626
asbasbasbag59
(g75
g61
NtRp1627
(dp1628
g64
(dp1629
sg73
g1423
sg66
(lp1630
g59
(g80
g61
NtRp1631
(dp1632
g64
(dp1633
g84
g85
ssg73
g1627
sg66
(lp1634
S'http_accept_encoding'
p1635
asbag59
(g80
g61
NtRp1636
(dp1637
g64
(dp1638
g91
g92
ssg73
g1627
sg66
(lp1639
S':'
asbag59
(g80
g61
NtRp1640
(dp1641
g64
(dp1642
sg73
g1627
sg66
(lp1643
g59
(g60
g61
NtRp1644
(dp1645
g64
(dp1646
g72
I4
ssg73
g1640
sg66
(lp1647
S'gzip, deflate'
p1648
asbasbasbag59
(g75
g61
NtRp1649
(dp1650
g64
(dp1651
sg73
g1423
sg66
(lp1652
g59
(g80
g61
NtRp1653
(dp1654
g64
(dp1655
g84
g85
ssg73
g1649
sg66
(lp1656
S'http_accept_language'
p1657
asbag59
(g80
g61
NtRp1658
(dp1659
g64
(dp1660
g91
g92
ssg73
g1649
sg66
(lp1661
S':'
asbag59
(g80
g61
NtRp1662
(dp1663
g64
(dp1664
sg73
g1649
sg66
(lp1665
g59
(g60
g61
NtRp1666
(dp1667
g64
(dp1668
g72
I4
ssg73
g1662
sg66
(lp1669
S'es-es,es;q=0.8,en-us;q=0.5,en;q=0.3'
p1670
asbasbasbag59
(g75
g61
NtRp1671
(dp1672
g64
(dp1673
sg73
g1423
sg66
(lp1674
g59
(g80
g61
NtRp1675
(dp1676
g64
(dp1677
g84
g85
ssg73
g1671
sg66
(lp1678
S'http_cache_control'
p1679
asbag59
(g80
g61
NtRp1680
(dp1681
g64
(dp1682
g91
g92
ssg73
g1671
sg66
(lp1683
S':'
asbag59
(g80
g61
NtRp1684
(dp1685
g64
(dp1686
sg73
g1671
sg66
(lp1687
g59
(g60
g61
NtRp1688
(dp1689
g64
(dp1690
g72
I4
ssg73
g1684
sg66
(lp1691
S'max-age=0'
p1692
asbasbasbag59
(g75
g61
NtRp1693
(dp1694
g64
(dp1695
sg73
g1423
sg66
(lp1696
g59
(g80
g61
NtRp1697
(dp1698
g64
(dp1699
g84
g85
ssg73
g1693
sg66
(lp1700
S'http_connection'
p1701
asbag59
(g80
g61
NtRp1702
(dp1703
g64
(dp1704
g91
g92
ssg73
g1693
sg66
(lp1705
S':'
asbag59
(g80
g61
NtRp1706
(dp1707
g64
(dp1708
sg73
g1693
sg66
(lp1709
g59
(g60
g61
NtRp1710
(dp1711
g64
(dp1712
g72
I4
ssg73
g1706
sg66
(lp1713
S'keep-alive'
p1714
asbasbasbag59
(g75
g61
NtRp1715
(dp1716
g64
(dp1717
sg73
g1423
sg66
(lp1718
g59
(g80
g61
NtRp1719
(dp1720
g64
(dp1721
g84
g85
ssg73
g1715
sg66
(lp1722
S'http_cookie'
p1723
asbag59
(g80
g61
NtRp1724
(dp1725
g64
(dp1726
g91
g92
ssg73
g1715
sg66
(lp1727
S':'
asbag59
(g80
g61
NtRp1728
(dp1729
g64
(dp1730
sg73
g1715
sg66
(lp1731
g59
(g60
g61
NtRp1732
(dp1733
g64
(dp1734
g72
I4
ssg73
g1728
sg66
(lp1735
S'session_id_welcome=127.0.0.1-082a2830-9bb6-4bfb-b2e2-4857b06c191e; session_id_admin=127.0.0.1-a96e0cfe-5117-4d37-8e25-f7dd128ab504; session_id_listado_1=127.0.0.1-477ec098-5436-4f6e-bfee-1a0bd88f6f9e; session_id_desglosar_emails=127.0.0.1-0a11b3b2-660c-433c-b71f-fc129286f26c; session_id_hemoal=127.0.0.1-442afb36-a73d-4692-979c-372017ada9e5; session_id_myappjav=127.0.0.1-b6da3776-a7b2-40a7-ab82-4eca2d3263a1; session_id_cual_es_tu_nombre=127.0.0.1-5e59e375-704d-4241-8b9c-5fd9f8c15773'
p1736
asbasbasbag59
(g75
g61
NtRp1737
(dp1738
g64
(dp1739
sg73
g1423
sg66
(lp1740
g59
(g80
g61
NtRp1741
(dp1742
g64
(dp1743
g84
g85
ssg73
g1737
sg66
(lp1744
S'http_host'
p1745
asbag59
(g80
g61
NtRp1746
(dp1747
g64
(dp1748
g91
g92
ssg73
g1737
sg66
(lp1749
S':'
asbag59
(g80
g61
NtRp1750
(dp1751
g64
(dp1752
sg73
g1737
sg66
(lp1753
g59
(g60
g61
NtRp1754
(dp1755
g64
(dp1756
g72
I4
ssg73
g1750
sg66
(lp1757
S'127.0.0.1:8000'
p1758
asbasbasbag59
(g75
g61
NtRp1759
(dp1760
g64
(dp1761
sg73
g1423
sg66
(lp1762
g59
(g80
g61
NtRp1763
(dp1764
g64
(dp1765
g84
g85
ssg73
g1759
sg66
(lp1766
S'http_user_agent'
p1767
asbag59
(g80
g61
NtRp1768
(dp1769
g64
(dp1770
g91
g92
ssg73
g1759
sg66
(lp1771
S':'
asbag59
(g80
g61
NtRp1772
(dp1773
g64
(dp1774
sg73
g1759
sg66
(lp1775
g59
(g60
g61
NtRp1776
(dp1777
g64
(dp1778
g72
I4
ssg73
g1772
sg66
(lp1779
S'Mozilla/5.0 (Windows NT 6.1; WOW64; rv:6.0.2) Gecko/20100101 Firefox/6.0.2'
p1780
asbasbasbag59
(g75
g61
NtRp1781
(dp1782
g64
(dp1783
sg73
g1423
sg66
(lp1784
g59
(g80
g61
NtRp1785
(dp1786
g64
(dp1787
g84
g85
ssg73
g1781
sg66
(lp1788
S'is_jython'
p1789
asbag59
(g80
g61
NtRp1790
(dp1791
g64
(dp1792
g91
g92
ssg73
g1781
sg66
(lp1793
S':'
asbag59
(g80
g61
NtRp1794
(dp1795
g64
(dp1796
sg73
g1781
sg66
(lp1797
g59
(g60
g61
NtRp1798
(dp1799
g64
(dp1800
g72
I4
ssg73
g1794
sg66
(lp1801
g102
asbasbasbag59
(g75
g61
NtRp1802
(dp1803
g64
(dp1804
sg73
g1423
sg66
(lp1805
g59
(g80
g61
NtRp1806
(dp1807
g64
(dp1808
g84
g85
ssg73
g1802
sg66
(lp1809
S'path_info'
p1810
asbag59
(g80
g61
NtRp1811
(dp1812
g64
(dp1813
g91
g92
ssg73
g1802
sg66
(lp1814
S':'
asbag59
(g80
g61
NtRp1815
(dp1816
g64
(dp1817
sg73
g1802
sg66
(lp1818
g59
(g60
g61
NtRp1819
(dp1820
g64
(dp1821
g72
I4
ssg73
g1815
sg66
(lp1822
S'/Desglosar_Emails/default/entrada_mod2'
p1823
asbasbasbag59
(g75
g61
NtRp1824
(dp1825
g64
(dp1826
sg73
g1423
sg66
(lp1827
g59
(g80
g61
NtRp1828
(dp1829
g64
(dp1830
g84
g85
ssg73
g1824
sg66
(lp1831
S'query_string'
p1832
asbag59
(g80
g61
NtRp1833
(dp1834
g64
(dp1835
g91
g92
ssg73
g1824
sg66
(lp1836
S':'
asbag59
(g80
g61
NtRp1837
(dp1838
g64
(dp1839
sg73
g1824
sg66
(lp1840
g59
(g60
g61
NtRp1841
(dp1842
g64
(dp1843
g72
I4
ssg73
g1837
sg66
(lp1844
S''
asbasbasbag59
(g75
g61
NtRp1845
(dp1846
g64
(dp1847
sg73
g1423
sg66
(lp1848
g59
(g80
g61
NtRp1849
(dp1850
g64
(dp1851
g84
g85
ssg73
g1845
sg66
(lp1852
S'remote_addr'
p1853
asbag59
(g80
g61
NtRp1854
(dp1855
g64
(dp1856
g91
g92
ssg73
g1845
sg66
(lp1857
S':'
asbag59
(g80
g61
NtRp1858
(dp1859
g64
(dp1860
sg73
g1845
sg66
(lp1861
g59
(g60
g61
NtRp1862
(dp1863
g64
(dp1864
g72
I4
ssg73
g1858
sg66
(lp1865
g192
asbasbasbag59
(g75
g61
NtRp1866
(dp1867
g64
(dp1868
sg73
g1423
sg66
(lp1869
g59
(g80
g61
NtRp1870
(dp1871
g64
(dp1872
g84
g85
ssg73
g1866
sg66
(lp1873
S'remote_port'
p1874
asbag59
(g80
g61
NtRp1875
(dp1876
g64
(dp1877
g91
g92
ssg73
g1866
sg66
(lp1878
S':'
asbag59
(g80
g61
NtRp1879
(dp1880
g64
(dp1881
sg73
g1866
sg66
(lp1882
g59
(g60
g61
NtRp1883
(dp1884
g64
(dp1885
g72
I4
ssg73
g1879
sg66
(lp1886
S'55259'
p1887
asbasbasbag59
(g75
g61
NtRp1888
(dp1889
g64
(dp1890
sg73
g1423
sg66
(lp1891
g59
(g80
g61
NtRp1892
(dp1893
g64
(dp1894
g84
g85
ssg73
g1888
sg66
(lp1895
S'request_method'
p1896
asbag59
(g80
g61
NtRp1897
(dp1898
g64
(dp1899
g91
g92
ssg73
g1888
sg66
(lp1900
S':'
asbag59
(g80
g61
NtRp1901
(dp1902
g64
(dp1903
sg73
g1888
sg66
(lp1904
g59
(g60
g61
NtRp1905
(dp1906
g64
(dp1907
g72
I4
ssg73
g1901
sg66
(lp1908
S'GET'
p1909
asbasbasbag59
(g75
g61
NtRp1910
(dp1911
g64
(dp1912
sg73
g1423
sg66
(lp1913
g59
(g80
g61
NtRp1914
(dp1915
g64
(dp1916
g84
g85
ssg73
g1910
sg66
(lp1917
S'script_name'
p1918
asbag59
(g80
g61
NtRp1919
(dp1920
g64
(dp1921
g91
g92
ssg73
g1910
sg66
(lp1922
S':'
asbag59
(g80
g61
NtRp1923
(dp1924
g64
(dp1925
sg73
g1910
sg66
(lp1926
g59
(g60
g61
NtRp1927
(dp1928
g64
(dp1929
g72
I4
ssg73
g1923
sg66
(lp1930
S''
asbasbasbag59
(g75
g61
NtRp1931
(dp1932
g64
(dp1933
sg73
g1423
sg66
(lp1934
g59
(g80
g61
NtRp1935
(dp1936
g64
(dp1937
g84
g85
ssg73
g1931
sg66
(lp1938
S'server_name'
p1939
asbag59
(g80
g61
NtRp1940
(dp1941
g64
(dp1942
g91
g92
ssg73
g1931
sg66
(lp1943
S':'
asbag59
(g80
g61
NtRp1944
(dp1945
g64
(dp1946
sg73
g1931
sg66
(lp1947
g59
(g60
g61
NtRp1948
(dp1949
g64
(dp1950
g72
I4
ssg73
g1944
sg66
(lp1951
S'Swing'
p1952
asbasbasbag59
(g75
g61
NtRp1953
(dp1954
g64
(dp1955
sg73
g1423
sg66
(lp1956
g59
(g80
g61
NtRp1957
(dp1958
g64
(dp1959
g84
g85
ssg73
g1953
sg66
(lp1960
S'server_port'
p1961
asbag59
(g80
g61
NtRp1962
(dp1963
g64
(dp1964
g91
g92
ssg73
g1953
sg66
(lp1965
S':'
asbag59
(g80
g61
NtRp1966
(dp1967
g64
(dp1968
sg73
g1953
sg66
(lp1969
g59
(g60
g61
NtRp1970
(dp1971
g64
(dp1972
g72
I4
ssg73
g1966
sg66
(lp1973
S'8000'
p1974
asbasbasbag59
(g75
g61
NtRp1975
(dp1976
g64
(dp1977
sg73
g1423
sg66
(lp1978
g59
(g80
g61
NtRp1979
(dp1980
g64
(dp1981
g84
g85
ssg73
g1975
sg66
(lp1982
S'server_protocol'
p1983
asbag59
(g80
g61
NtRp1984
(dp1985
g64
(dp1986
g91
g92
ssg73
g1975
sg66
(lp1987
S':'
asbag59
(g80
g61
NtRp1988
(dp1989
g64
(dp1990
sg73
g1975
sg66
(lp1991
g59
(g60
g61
NtRp1992
(dp1993
g64
(dp1994
g72
I4
ssg73
g1988
sg66
(lp1995
S'HTTP/1.1'
p1996
asbasbasbag59
(g75
g61
NtRp1997
(dp1998
g64
(dp1999
sg73
g1423
sg66
(lp2000
g59
(g80
g61
NtRp2001
(dp2002
g64
(dp2003
g84
g85
ssg73
g1997
sg66
(lp2004
S'server_software'
p2005
asbag59
(g80
g61
NtRp2006
(dp2007
g64
(dp2008
g91
g92
ssg73
g1997
sg66
(lp2009
S':'
asbag59
(g80
g61
NtRp2010
(dp2011
g64
(dp2012
sg73
g1997
sg66
(lp2013
g59
(g60
g61
NtRp2014
(dp2015
g64
(dp2016
g72
I4
ssg73
g2010
sg66
(lp2017
S'Rocket 1.2.2'
p2018
asbasbasbag59
(g75
g61
NtRp2019
(dp2020
g64
(dp2021
sg73
g1423
sg66
(lp2022
g59
(g80
g61
NtRp2023
(dp2024
g64
(dp2025
g84
g85
ssg73
g2019
sg66
(lp2026
S'web2py_crontype'
p2027
asbag59
(g80
g61
NtRp2028
(dp2029
g64
(dp2030
g91
g92
ssg73
g2019
sg66
(lp2031
S':'
asbag59
(g80
g61
NtRp2032
(dp2033
g64
(dp2034
sg73
g2019
sg66
(lp2035
g59
(g60
g61
NtRp2036
(dp2037
g64
(dp2038
g72
I4
ssg73
g2032
sg66
(lp2039
S'hard'
p2040
asbasbasbag59
(g75
g61
NtRp2041
(dp2042
g64
(dp2043
sg73
g1423
sg66
(lp2044
g59
(g80
g61
NtRp2045
(dp2046
g64
(dp2047
g84
g85
ssg73
g2041
sg66
(lp2048
S'web2py_path'
p2049
asbag59
(g80
g61
NtRp2050
(dp2051
g64
(dp2052
g91
g92
ssg73
g2041
sg66
(lp2053
S':'
asbag59
(g80
g61
NtRp2054
(dp2055
g64
(dp2056
sg73
g2041
sg66
(lp2057
g59
(g60
g61
NtRp2058
(dp2059
g64
(dp2060
g72
I4
ssg73
g2054
sg66
(lp2061
g1470
asbasbasbag59
(g75
g61
NtRp2062
(dp2063
g64
(dp2064
sg73
g1423
sg66
(lp2065
g59
(g80
g61
NtRp2066
(dp2067
g64
(dp2068
g84
g85
ssg73
g2062
sg66
(lp2069
S'web2py_version'
p2070
asbag59
(g80
g61
NtRp2071
(dp2072
g64
(dp2073
g91
g92
ssg73
g2062
sg66
(lp2074
S':'
asbag59
(g80
g61
NtRp2075
(dp2076
g64
(dp2077
sg73
g2062
sg66
(lp2078
g59
(g60
g61
NtRp2079
(dp2080
g64
(dp2081
g72
I4
ssg73
g2075
sg66
(lp2082
S'Version 1.98.2 (2011-08-04 00:47:09)\n'
p2083
asbasbasbag59
(g75
g61
NtRp2084
(dp2085
g64
(dp2086
sg73
g1423
sg66
(lp2087
g59
(g80
g61
NtRp2088
(dp2089
g64
(dp2090
g84
g85
ssg73
g2084
sg66
(lp2091
S'wsgi_errors'
p2092
asbag59
(g80
g61
NtRp2093
(dp2094
g64
(dp2095
g91
g92
ssg73
g2084
sg66
(lp2096
S':'
asbag59
(g80
g61
NtRp2097
(dp2098
g64
(dp2099
sg73
g2084
sg66
(lp2100
g59
(g60
g61
NtRp2101
(dp2102
g64
(dp2103
g72
I4
ssg73
g2097
sg66
(lp2104
S"<open file '<stderr>', mode 'w' at 0x003100B0>"
p2105
asbasbasbag59
(g75
g61
NtRp2106
(dp2107
g64
(dp2108
sg73
g1423
sg66
(lp2109
g59
(g80
g61
NtRp2110
(dp2111
g64
(dp2112
g84
g85
ssg73
g2106
sg66
(lp2113
S'wsgi_file_wrapper'
p2114
asbag59
(g80
g61
NtRp2115
(dp2116
g64
(dp2117
g91
g92
ssg73
g2106
sg66
(lp2118
S':'
asbag59
(g80
g61
NtRp2119
(dp2120
g64
(dp2121
sg73
g2106
sg66
(lp2122
g59
(g60
g61
NtRp2123
(dp2124
g64
(dp2125
g72
I4
ssg73
g2119
sg66
(lp2126
S'<class gluon.rocket.FileWrapper at 0x02FFC1B0>'
p2127
asbasbasbag59
(g75
g61
NtRp2128
(dp2129
g64
(dp2130
sg73
g1423
sg66
(lp2131
g59
(g80
g61
NtRp2132
(dp2133
g64
(dp2134
g84
g85
ssg73
g2128
sg66
(lp2135
S'wsgi_input'
p2136
asbag59
(g80
g61
NtRp2137
(dp2138
g64
(dp2139
g91
g92
ssg73
g2128
sg66
(lp2140
S':'
asbag59
(g80
g61
NtRp2141
(dp2142
g64
(dp2143
sg73
g2128
sg66
(lp2144
g59
(g60
g61
NtRp2145
(dp2146
g64
(dp2147
g72
I4
ssg73
g2141
sg66
(lp2148
S'<socket._fileobject object at 0x08B8E830>'
p2149
asbasbasbag59
(g75
g61
NtRp2150
(dp2151
g64
(dp2152
sg73
g1423
sg66
(lp2153
g59
(g80
g61
NtRp2154
(dp2155
g64
(dp2156
g84
g85
ssg73
g2150
sg66
(lp2157
S'wsgi_multiprocess'
p2158
asbag59
(g80
g61
NtRp2159
(dp2160
g64
(dp2161
g91
g92
ssg73
g2150
sg66
(lp2162
S':'
asbag59
(g80
g61
NtRp2163
(dp2164
g64
(dp2165
sg73
g2150
sg66
(lp2166
g59
(g60
g61
NtRp2167
(dp2168
g64
(dp2169
g72
I4
ssg73
g2163
sg66
(lp2170
g102
asbasbasbag59
(g75
g61
NtRp2171
(dp2172
g64
(dp2173
sg73
g1423
sg66
(lp2174
g59
(g80
g61
NtRp2175
(dp2176
g64
(dp2177
g84
g85
ssg73
g2171
sg66
(lp2178
S'wsgi_multithread'
p2179
asbag59
(g80
g61
NtRp2180
(dp2181
g64
(dp2182
g91
g92
ssg73
g2171
sg66
(lp2183
S':'
asbag59
(g80
g61
NtRp2184
(dp2185
g64
(dp2186
sg73
g2171
sg66
(lp2187
g59
(g60
g61
NtRp2188
(dp2189
g64
(dp2190
g72
I4
ssg73
g2184
sg66
(lp2191
S'True'
p2192
asbasbasbag59
(g75
g61
NtRp2193
(dp2194
g64
(dp2195
sg73
g1423
sg66
(lp2196
g59
(g80
g61
NtRp2197
(dp2198
g64
(dp2199
g84
g85
ssg73
g2193
sg66
(lp2200
S'wsgi_run_once'
p2201
asbag59
(g80
g61
NtRp2202
(dp2203
g64
(dp2204
g91
g92
ssg73
g2193
sg66
(lp2205
S':'
asbag59
(g80
g61
NtRp2206
(dp2207
g64
(dp2208
sg73
g2193
sg66
(lp2209
g59
(g60
g61
NtRp2210
(dp2211
g64
(dp2212
g72
I4
ssg73
g2206
sg66
(lp2213
g102
asbasbasbag59
(g75
g61
NtRp2214
(dp2215
g64
(dp2216
sg73
g1423
sg66
(lp2217
g59
(g80
g61
NtRp2218
(dp2219
g64
(dp2220
g84
g85
ssg73
g2214
sg66
(lp2221
S'wsgi_url_scheme'
p2222
asbag59
(g80
g61
NtRp2223
(dp2224
g64
(dp2225
g91
g92
ssg73
g2214
sg66
(lp2226
S':'
asbag59
(g80
g61
NtRp2227
(dp2228
g64
(dp2229
sg73
g2214
sg66
(lp2230
g59
(g60
g61
NtRp2231
(dp2232
g64
(dp2233
g72
I4
ssg73
g2227
sg66
(lp2234
S'http'
p2235
asbasbasbag59
(g75
g61
NtRp2236
(dp2237
g64
(dp2238
sg73
g1423
sg66
(lp2239
g59
(g80
g61
NtRp2240
(dp2241
g64
(dp2242
g84
g85
ssg73
g2236
sg66
(lp2243
S'wsgi_version'
p2244
asbag59
(g80
g61
NtRp2245
(dp2246
g64
(dp2247
g91
g92
ssg73
g2236
sg66
(lp2248
S':'
asbag59
(g80
g61
NtRp2249
(dp2250
g64
(dp2251
sg73
g2236
sg66
(lp2252
g59
(g60
g61
NtRp2253
(dp2254
g64
(dp2255
g72
I4
ssg73
g2249
sg66
(lp2256
g59
(g68
g61
NtRp2257
(dp2258
g64
(dp2259
g72
I3
ssg73
Nsg66
(lp2260
g59
(g75
g61
NtRp2261
(dp2262
g64
(dp2263
sg73
g2257
sg66
(lp2264
g59
(g80
g61
NtRp2265
(dp2266
g64
(dp2267
sg73
g2261
sg66
(lp2268
g59
(g60
g61
NtRp2269
(dp2270
g64
(dp2271
g72
I3
ssg73
g2265
sg66
(lp2272
S'1'
asbasbasbag59
(g75
g61
NtRp2273
(dp2274
g64
(dp2275
sg73
g2257
sg66
(lp2276
g59
(g80
g61
NtRp2277
(dp2278
g64
(dp2279
sg73
g2273
sg66
(lp2280
g59
(g60
g61
NtRp2281
(dp2282
g64
(dp2283
g72
I3
ssg73
g2277
sg66
(lp2284
S'0'
asbasbasbasbasbasbasbasbasbasbasbag59
(g75
g61
NtRp2285
(dp2286
g64
(dp2287
sg73
g69
sg66
(lp2288
g59
(g80
g61
NtRp2289
(dp2290
g64
(dp2291
g84
g85
ssg73
g2285
sg66
(lp2292
S'extension'
p2293
asbag59
(g80
g61
NtRp2294
(dp2295
g64
(dp2296
g91
g92
ssg73
g2285
sg66
(lp2297
S':'
asbag59
(g80
g61
NtRp2298
(dp2299
g64
(dp2300
sg73
g2285
sg66
(lp2301
g59
(g60
g61
NtRp2302
(dp2303
g64
(dp2304
g72
I5
ssg73
g2298
sg66
(lp2305
S'html'
p2306
asbasbasbag59
(g75
g61
NtRp2307
(dp2308
g64
(dp2309
sg73
g69
sg66
(lp2310
g59
(g80
g61
NtRp2311
(dp2312
g64
(dp2313
g84
g85
ssg73
g2307
sg66
(lp2314
S'folder'
p2315
asbag59
(g80
g61
NtRp2316
(dp2317
g64
(dp2318
g91
g92
ssg73
g2307
sg66
(lp2319
S':'
asbag59
(g80
g61
NtRp2320
(dp2321
g64
(dp2322
sg73
g2307
sg66
(lp2323
g59
(g60
g61
NtRp2324
(dp2325
g64
(dp2326
g72
I5
ssg73
g2320
sg66
(lp2327
S'C:\\Users\\Atomico\\web2py\\applications\\Desglosar_Emails\\'
p2328
asbasbasbag59
(g75
g61
NtRp2329
(dp2330
g64
(dp2331
sg73
g69
sg66
(lp2332
g59
(g80
g61
NtRp2333
(dp2334
g64
(dp2335
g84
g85
ssg73
g2329
sg66
(lp2336
S'function'
p2337
asbag59
(g80
g61
NtRp2338
(dp2339
g64
(dp2340
g91
g92
ssg73
g2329
sg66
(lp2341
S':'
asbag59
(g80
g61
NtRp2342
(dp2343
g64
(dp2344
sg73
g2329
sg66
(lp2345
g59
(g60
g61
NtRp2346
(dp2347
g64
(dp2348
g72
I5
ssg73
g2342
sg66
(lp2349
S'entrada_mod2'
p2350
asbasbasbag59
(g75
g61
NtRp2351
(dp2352
g64
(dp2353
sg73
g69
sg66
(lp2354
g59
(g80
g61
NtRp2355
(dp2356
g64
(dp2357
g84
g85
ssg73
g2351
sg66
(lp2358
S'get_vars'
p2359
asbag59
(g80
g61
NtRp2360
(dp2361
g64
(dp2362
g91
g92
ssg73
g2351
sg66
(lp2363
S':'
asbag59
(g80
g61
NtRp2364
(dp2365
g64
(dp2366
sg73
g2351
sg66
(lp2367
g59
(g60
g61
NtRp2368
(dp2369
g64
(dp2370
g72
I5
ssg73
g2364
sg66
(lp2371
g59
(g68
g61
NtRp2372
(dp2373
g64
(dp2374
g72
I4
ssg73
Nsg66
(lp2375
sbasbasbasbag59
(g75
g61
NtRp2376
(dp2377
g64
(dp2378
sg73
g69
sg66
(lp2379
g59
(g80
g61
NtRp2380
(dp2381
g64
(dp2382
g84
g85
ssg73
g2376
sg66
(lp2383
S'is_https'
p2384
asbag59
(g80
g61
NtRp2385
(dp2386
g64
(dp2387
g91
g92
ssg73
g2376
sg66
(lp2388
S':'
asbag59
(g80
g61
NtRp2389
(dp2390
g64
(dp2391
sg73
g2376
sg66
(lp2392
g59
(g60
g61
NtRp2393
(dp2394
g64
(dp2395
g72
I5
ssg73
g2389
sg66
(lp2396
g102
asbasbasbag59
(g75
g61
NtRp2397
(dp2398
g64
(dp2399
sg73
g69
sg66
(lp2400
g59
(g80
g61
NtRp2401
(dp2402
g64
(dp2403
g84
g85
ssg73
g2397
sg66
(lp2404
S'is_local'
p2405
asbag59
(g80
g61
NtRp2406
(dp2407
g64
(dp2408
g91
g92
ssg73
g2397
sg66
(lp2409
S':'
asbag59
(g80
g61
NtRp2410
(dp2411
g64
(dp2412
sg73
g2397
sg66
(lp2413
g59
(g60
g61
NtRp2414
(dp2415
g64
(dp2416
g72
I5
ssg73
g2410
sg66
(lp2417
g2192
asbasbasbag59
(g75
g61
NtRp2418
(dp2419
g64
(dp2420
sg73
g69
sg66
(lp2421
g59
(g80
g61
NtRp2422
(dp2423
g64
(dp2424
g84
g85
ssg73
g2418
sg66
(lp2425
S'is_restful'
p2426
asbag59
(g80
g61
NtRp2427
(dp2428
g64
(dp2429
g91
g92
ssg73
g2418
sg66
(lp2430
S':'
asbag59
(g80
g61
NtRp2431
(dp2432
g64
(dp2433
sg73
g2418
sg66
(lp2434
g59
(g60
g61
NtRp2435
(dp2436
g64
(dp2437
g72
I5
ssg73
g2431
sg66
(lp2438
g102
asbasbasbag59
(g75
g61
NtRp2439
(dp2440
g64
(dp2441
sg73
g69
sg66
(lp2442
g59
(g80
g61
NtRp2443
(dp2444
g64
(dp2445
g84
g85
ssg73
g2439
sg66
(lp2446
S'now'
p2447
asbag59
(g80
g61
NtRp2448
(dp2449
g64
(dp2450
g91
g92
ssg73
g2439
sg66
(lp2451
S':'
asbag59
(g80
g61
NtRp2452
(dp2453
g64
(dp2454
sg73
g2439
sg66
(lp2455
g59
(g60
g61
NtRp2456
(dp2457
g64
(dp2458
g72
I5
ssg73
g2452
sg66
(lp2459
S'datetime.datetime(2011, 9, 19, 11, 14, 2, 808000)'
p2460
asbasbasbag59
(g75
g61
NtRp2461
(dp2462
g64
(dp2463
sg73
g69
sg66
(lp2464
g59
(g80
g61
NtRp2465
(dp2466
g64
(dp2467
g84
g85
ssg73
g2461
sg66
(lp2468
S'post_vars'
p2469
asbag59
(g80
g61
NtRp2470
(dp2471
g64
(dp2472
g91
g92
ssg73
g2461
sg66
(lp2473
S':'
asbag59
(g80
g61
NtRp2474
(dp2475
g64
(dp2476
sg73
g2461
sg66
(lp2477
g59
(g60
g61
NtRp2478
(dp2479
g64
(dp2480
g72
I5
ssg73
g2474
sg66
(lp2481
g59
(g68
g61
NtRp2482
(dp2483
g64
(dp2484
g72
I4
ssg73
Nsg66
(lp2485
sbasbasbasbag59
(g75
g61
NtRp2486
(dp2487
g64
(dp2488
sg73
g69
sg66
(lp2489
g59
(g80
g61
NtRp2490
(dp2491
g64
(dp2492
g84
g85
ssg73
g2486
sg66
(lp2493
S'url'
p2494
asbag59
(g80
g61
NtRp2495
(dp2496
g64
(dp2497
g91
g92
ssg73
g2486
sg66
(lp2498
S':'
asbag59
(g80
g61
NtRp2499
(dp2500
g64
(dp2501
sg73
g2486
sg66
(lp2502
g59
(g60
g61
NtRp2503
(dp2504
g64
(dp2505
g72
I5
ssg73
g2499
sg66
(lp2506
S'/Desglosar_Emails/default/entrada_mod2'
p2507
asbasbasbag59
(g75
g61
NtRp2508
(dp2509
g64
(dp2510
sg73
g69
sg66
(lp2511
g59
(g80
g61
NtRp2512
(dp2513
g64
(dp2514
g84
g85
ssg73
g2508
sg66
(lp2515
S'uuid'
p2516
asbag59
(g80
g61
NtRp2517
(dp2518
g64
(dp2519
g91
g92
ssg73
g2508
sg66
(lp2520
S':'
asbag59
(g80
g61
NtRp2521
(dp2522
g64
(dp2523
sg73
g2508
sg66
(lp2524
g59
(g60
g61
NtRp2525
(dp2526
g64
(dp2527
g72
I5
ssg73
g2521
sg66
(lp2528
S'Desglosar_Emails/127.0.0.1.2011-09-19.11-14-02.c89427c4-3a4b-4cb8-9a99-c78cbc7d1aed'
p2529
asbasbasbag59
(g75
g61
NtRp2530
(dp2531
g64
(dp2532
sg73
g69
sg66
(lp2533
g59
(g80
g61
NtRp2534
(dp2535
g64
(dp2536
g84
g85
ssg73
g2530
sg66
(lp2537
S'vars'
p2538
asbag59
(g80
g61
NtRp2539
(dp2540
g64
(dp2541
g91
g92
ssg73
g2530
sg66
(lp2542
S':'
asbag59
(g80
g61
NtRp2543
(dp2544
g64
(dp2545
sg73
g2530
sg66
(lp2546
g59
(g60
g61
NtRp2547
(dp2548
g64
(dp2549
g72
I5
ssg73
g2543
sg66
(lp2550
g59
(g68
g61
NtRp2551
(dp2552
g64
(dp2553
g72
I4
ssg73
Nsg66
(lp2554
sbasbasbasbag59
(g75
g61
NtRp2555
(dp2556
g64
(dp2557
sg73
g69
sg66
(lp2558
g59
(g80
g61
NtRp2559
(dp2560
g64
(dp2561
g84
g85
ssg73
g2555
sg66
(lp2562
S'wsgi'
p2563
asbag59
(g80
g61
NtRp2564
(dp2565
g64
(dp2566
g91
g92
ssg73
g2555
sg66
(lp2567
S':'
asbag59
(g80
g61
NtRp2568
(dp2569
g64
(dp2570
sg73
g2555
sg66
(lp2571
g59
(g60
g61
NtRp2572
(dp2573
g64
(dp2574
g72
I5
ssg73
g2568
sg66
(lp2575
g59
(g68
g61
NtRp2576
(dp2577
g64
(dp2578
g72
I4
ssg73
Nsg66
(lp2579
g59
(g75
g61
NtRp2580
(dp2581
g64
(dp2582
sg73
g2576
sg66
(lp2583
g59
(g80
g61
NtRp2584
(dp2585
g64
(dp2586
g84
g85
ssg73
g2580
sg66
(lp2587
S'environ'
p2588
asbag59
(g80
g61
NtRp2589
(dp2590
g64
(dp2591
g91
g92
ssg73
g2580
sg66
(lp2592
S':'
asbag59
(g80
g61
NtRp2593
(dp2594
g64
(dp2595
sg73
g2580
sg66
(lp2596
g59
(g60
g61
NtRp2597
(dp2598
g64
(dp2599
g72
I4
ssg73
g2593
sg66
(lp2600
g59
(g68
g61
NtRp2601
(dp2602
g64
(dp2603
g72
I3
ssg73
Nsg66
(lp2604
g59
(g75
g61
NtRp2605
(dp2606
g64
(dp2607
sg73
g2601
sg66
(lp2608
g59
(g80
g61
NtRp2609
(dp2610
g64
(dp2611
g84
g85
ssg73
g2605
sg66
(lp2612
S'HTTP_ACCEPT'
p2613
asbag59
(g80
g61
NtRp2614
(dp2615
g64
(dp2616
g91
g92
ssg73
g2605
sg66
(lp2617
S':'
asbag59
(g80
g61
NtRp2618
(dp2619
g64
(dp2620
sg73
g2605
sg66
(lp2621
g59
(g60
g61
NtRp2622
(dp2623
g64
(dp2624
g72
I3
ssg73
g2618
sg66
(lp2625
g1604
asbasbasbag59
(g75
g61
NtRp2626
(dp2627
g64
(dp2628
sg73
g2601
sg66
(lp2629
g59
(g80
g61
NtRp2630
(dp2631
g64
(dp2632
g84
g85
ssg73
g2626
sg66
(lp2633
S'HTTP_ACCEPT_CHARSET'
p2634
asbag59
(g80
g61
NtRp2635
(dp2636
g64
(dp2637
g91
g92
ssg73
g2626
sg66
(lp2638
S':'
asbag59
(g80
g61
NtRp2639
(dp2640
g64
(dp2641
sg73
g2626
sg66
(lp2642
g59
(g60
g61
NtRp2643
(dp2644
g64
(dp2645
g72
I3
ssg73
g2639
sg66
(lp2646
g1626
asbasbasbag59
(g75
g61
NtRp2647
(dp2648
g64
(dp2649
sg73
g2601
sg66
(lp2650
g59
(g80
g61
NtRp2651
(dp2652
g64
(dp2653
g84
g85
ssg73
g2647
sg66
(lp2654
S'HTTP_ACCEPT_ENCODING'
p2655
asbag59
(g80
g61
NtRp2656
(dp2657
g64
(dp2658
g91
g92
ssg73
g2647
sg66
(lp2659
S':'
asbag59
(g80
g61
NtRp2660
(dp2661
g64
(dp2662
sg73
g2647
sg66
(lp2663
g59
(g60
g61
NtRp2664
(dp2665
g64
(dp2666
g72
I3
ssg73
g2660
sg66
(lp2667
g1648
asbasbasbag59
(g75
g61
NtRp2668
(dp2669
g64
(dp2670
sg73
g2601
sg66
(lp2671
g59
(g80
g61
NtRp2672
(dp2673
g64
(dp2674
g84
g85
ssg73
g2668
sg66
(lp2675
S'HTTP_ACCEPT_LANGUAGE'
p2676
asbag59
(g80
g61
NtRp2677
(dp2678
g64
(dp2679
g91
g92
ssg73
g2668
sg66
(lp2680
S':'
asbag59
(g80
g61
NtRp2681
(dp2682
g64
(dp2683
sg73
g2668
sg66
(lp2684
g59
(g60
g61
NtRp2685
(dp2686
g64
(dp2687
g72
I3
ssg73
g2681
sg66
(lp2688
g1670
asbasbasbag59
(g75
g61
NtRp2689
(dp2690
g64
(dp2691
sg73
g2601
sg66
(lp2692
g59
(g80
g61
NtRp2693
(dp2694
g64
(dp2695
g84
g85
ssg73
g2689
sg66
(lp2696
S'HTTP_CACHE_CONTROL'
p2697
asbag59
(g80
g61
NtRp2698
(dp2699
g64
(dp2700
g91
g92
ssg73
g2689
sg66
(lp2701
S':'
asbag59
(g80
g61
NtRp2702
(dp2703
g64
(dp2704
sg73
g2689
sg66
(lp2705
g59
(g60
g61
NtRp2706
(dp2707
g64
(dp2708
g72
I3
ssg73
g2702
sg66
(lp2709
g1692
asbasbasbag59
(g75
g61
NtRp2710
(dp2711
g64
(dp2712
sg73
g2601
sg66
(lp2713
g59
(g80
g61
NtRp2714
(dp2715
g64
(dp2716
g84
g85
ssg73
g2710
sg66
(lp2717
S'HTTP_CONNECTION'
p2718
asbag59
(g80
g61
NtRp2719
(dp2720
g64
(dp2721
g91
g92
ssg73
g2710
sg66
(lp2722
S':'
asbag59
(g80
g61
NtRp2723
(dp2724
g64
(dp2725
sg73
g2710
sg66
(lp2726
g59
(g60
g61
NtRp2727
(dp2728
g64
(dp2729
g72
I3
ssg73
g2723
sg66
(lp2730
g1714
asbasbasbag59
(g75
g61
NtRp2731
(dp2732
g64
(dp2733
sg73
g2601
sg66
(lp2734
g59
(g80
g61
NtRp2735
(dp2736
g64
(dp2737
g84
g85
ssg73
g2731
sg66
(lp2738
S'HTTP_COOKIE'
p2739
asbag59
(g80
g61
NtRp2740
(dp2741
g64
(dp2742
g91
g92
ssg73
g2731
sg66
(lp2743
S':'
asbag59
(g80
g61
NtRp2744
(dp2745
g64
(dp2746
sg73
g2731
sg66
(lp2747
g59
(g60
g61
NtRp2748
(dp2749
g64
(dp2750
g72
I3
ssg73
g2744
sg66
(lp2751
g1736
asbasbasbag59
(g75
g61
NtRp2752
(dp2753
g64
(dp2754
sg73
g2601
sg66
(lp2755
g59
(g80
g61
NtRp2756
(dp2757
g64
(dp2758
g84
g85
ssg73
g2752
sg66
(lp2759
S'HTTP_HOST'
p2760
asbag59
(g80
g61
NtRp2761
(dp2762
g64
(dp2763
g91
g92
ssg73
g2752
sg66
(lp2764
S':'
asbag59
(g80
g61
NtRp2765
(dp2766
g64
(dp2767
sg73
g2752
sg66
(lp2768
g59
(g60
g61
NtRp2769
(dp2770
g64
(dp2771
g72
I3
ssg73
g2765
sg66
(lp2772
g1758
asbasbasbag59
(g75
g61
NtRp2773
(dp2774
g64
(dp2775
sg73
g2601
sg66
(lp2776
g59
(g80
g61
NtRp2777
(dp2778
g64
(dp2779
g84
g85
ssg73
g2773
sg66
(lp2780
S'HTTP_USER_AGENT'
p2781
asbag59
(g80
g61
NtRp2782
(dp2783
g64
(dp2784
g91
g92
ssg73
g2773
sg66
(lp2785
S':'
asbag59
(g80
g61
NtRp2786
(dp2787
g64
(dp2788
sg73
g2773
sg66
(lp2789
g59
(g60
g61
NtRp2790
(dp2791
g64
(dp2792
g72
I3
ssg73
g2786
sg66
(lp2793
g1780
asbasbasbag59
(g75
g61
NtRp2794
(dp2795
g64
(dp2796
sg73
g2601
sg66
(lp2797
g59
(g80
g61
NtRp2798
(dp2799
g64
(dp2800
g84
g85
ssg73
g2794
sg66
(lp2801
S'PATH_INFO'
p2802
asbag59
(g80
g61
NtRp2803
(dp2804
g64
(dp2805
g91
g92
ssg73
g2794
sg66
(lp2806
S':'
asbag59
(g80
g61
NtRp2807
(dp2808
g64
(dp2809
sg73
g2794
sg66
(lp2810
g59
(g60
g61
NtRp2811
(dp2812
g64
(dp2813
g72
I3
ssg73
g2807
sg66
(lp2814
g1823
asbasbasbag59
(g75
g61
NtRp2815
(dp2816
g64
(dp2817
sg73
g2601
sg66
(lp2818
g59
(g80
g61
NtRp2819
(dp2820
g64
(dp2821
g84
g85
ssg73
g2815
sg66
(lp2822
S'QUERY_STRING'
p2823
asbag59
(g80
g61
NtRp2824
(dp2825
g64
(dp2826
g91
g92
ssg73
g2815
sg66
(lp2827
S':'
asbag59
(g80
g61
NtRp2828
(dp2829
g64
(dp2830
sg73
g2815
sg66
(lp2831
g59
(g60
g61
NtRp2832
(dp2833
g64
(dp2834
g72
I3
ssg73
g2828
sg66
(lp2835
S''
asbasbasbag59
(g75
g61
NtRp2836
(dp2837
g64
(dp2838
sg73
g2601
sg66
(lp2839
g59
(g80
g61
NtRp2840
(dp2841
g64
(dp2842
g84
g85
ssg73
g2836
sg66
(lp2843
S'REMOTE_ADDR'
p2844
asbag59
(g80
g61
NtRp2845
(dp2846
g64
(dp2847
g91
g92
ssg73
g2836
sg66
(lp2848
S':'
asbag59
(g80
g61
NtRp2849
(dp2850
g64
(dp2851
sg73
g2836
sg66
(lp2852
g59
(g60
g61
NtRp2853
(dp2854
g64
(dp2855
g72
I3
ssg73
g2849
sg66
(lp2856
g192
asbasbasbag59
(g75
g61
NtRp2857
(dp2858
g64
(dp2859
sg73
g2601
sg66
(lp2860
g59
(g80
g61
NtRp2861
(dp2862
g64
(dp2863
g84
g85
ssg73
g2857
sg66
(lp2864
S'REMOTE_PORT'
p2865
asbag59
(g80
g61
NtRp2866
(dp2867
g64
(dp2868
g91
g92
ssg73
g2857
sg66
(lp2869
S':'
asbag59
(g80
g61
NtRp2870
(dp2871
g64
(dp2872
sg73
g2857
sg66
(lp2873
g59
(g60
g61
NtRp2874
(dp2875
g64
(dp2876
g72
I3
ssg73
g2870
sg66
(lp2877
g1887
asbasbasbag59
(g75
g61
NtRp2878
(dp2879
g64
(dp2880
sg73
g2601
sg66
(lp2881
g59
(g80
g61
NtRp2882
(dp2883
g64
(dp2884
g84
g85
ssg73
g2878
sg66
(lp2885
S'REQUEST_METHOD'
p2886
asbag59
(g80
g61
NtRp2887
(dp2888
g64
(dp2889
g91
g92
ssg73
g2878
sg66
(lp2890
S':'
asbag59
(g80
g61
NtRp2891
(dp2892
g64
(dp2893
sg73
g2878
sg66
(lp2894
g59
(g60
g61
NtRp2895
(dp2896
g64
(dp2897
g72
I3
ssg73
g2891
sg66
(lp2898
g1909
asbasbasbag59
(g75
g61
NtRp2899
(dp2900
g64
(dp2901
sg73
g2601
sg66
(lp2902
g59
(g80
g61
NtRp2903
(dp2904
g64
(dp2905
g84
g85
ssg73
g2899
sg66
(lp2906
S'SCRIPT_NAME'
p2907
asbag59
(g80
g61
NtRp2908
(dp2909
g64
(dp2910
g91
g92
ssg73
g2899
sg66
(lp2911
S':'
asbag59
(g80
g61
NtRp2912
(dp2913
g64
(dp2914
sg73
g2899
sg66
(lp2915
g59
(g60
g61
NtRp2916
(dp2917
g64
(dp2918
g72
I3
ssg73
g2912
sg66
(lp2919
S''
asbasbasbag59
(g75
g61
NtRp2920
(dp2921
g64
(dp2922
sg73
g2601
sg66
(lp2923
g59
(g80
g61
NtRp2924
(dp2925
g64
(dp2926
g84
g85
ssg73
g2920
sg66
(lp2927
S'SERVER_NAME'
p2928
asbag59
(g80
g61
NtRp2929
(dp2930
g64
(dp2931
g91
g92
ssg73
g2920
sg66
(lp2932
S':'
asbag59
(g80
g61
NtRp2933
(dp2934
g64
(dp2935
sg73
g2920
sg66
(lp2936
g59
(g60
g61
NtRp2937
(dp2938
g64
(dp2939
g72
I3
ssg73
g2933
sg66
(lp2940
g1952
asbasbasbag59
(g75
g61
NtRp2941
(dp2942
g64
(dp2943
sg73
g2601
sg66
(lp2944
g59
(g80
g61
NtRp2945
(dp2946
g64
(dp2947
g84
g85
ssg73
g2941
sg66
(lp2948
S'SERVER_PORT'
p2949
asbag59
(g80
g61
NtRp2950
(dp2951
g64
(dp2952
g91
g92
ssg73
g2941
sg66
(lp2953
S':'
asbag59
(g80
g61
NtRp2954
(dp2955
g64
(dp2956
sg73
g2941
sg66
(lp2957
g59
(g60
g61
NtRp2958
(dp2959
g64
(dp2960
g72
I3
ssg73
g2954
sg66
(lp2961
g1974
asbasbasbag59
(g75
g61
NtRp2962
(dp2963
g64
(dp2964
sg73
g2601
sg66
(lp2965
g59
(g80
g61
NtRp2966
(dp2967
g64
(dp2968
g84
g85
ssg73
g2962
sg66
(lp2969
S'SERVER_PROTOCOL'
p2970
asbag59
(g80
g61
NtRp2971
(dp2972
g64
(dp2973
g91
g92
ssg73
g2962
sg66
(lp2974
S':'
asbag59
(g80
g61
NtRp2975
(dp2976
g64
(dp2977
sg73
g2962
sg66
(lp2978
g59
(g60
g61
NtRp2979
(dp2980
g64
(dp2981
g72
I3
ssg73
g2975
sg66
(lp2982
g1996
asbasbasbag59
(g75
g61
NtRp2983
(dp2984
g64
(dp2985
sg73
g2601
sg66
(lp2986
g59
(g80
g61
NtRp2987
(dp2988
g64
(dp2989
g84
g85
ssg73
g2983
sg66
(lp2990
S'SERVER_SOFTWARE'
p2991
asbag59
(g80
g61
NtRp2992
(dp2993
g64
(dp2994
g91
g92
ssg73
g2983
sg66
(lp2995
S':'
asbag59
(g80
g61
NtRp2996
(dp2997
g64
(dp2998
sg73
g2983
sg66
(lp2999
g59
(g60
g61
NtRp3000
(dp3001
g64
(dp3002
g72
I3
ssg73
g2996
sg66
(lp3003
g2018
asbasbasbag59
(g75
g61
NtRp3004
(dp3005
g64
(dp3006
sg73
g2601
sg66
(lp3007
g59
(g80
g61
NtRp3008
(dp3009
g64
(dp3010
g84
g85
ssg73
g3004
sg66
(lp3011
S'wsgi.errors'
p3012
asbag59
(g80
g61
NtRp3013
(dp3014
g64
(dp3015
g91
g92
ssg73
g3004
sg66
(lp3016
S':'
asbag59
(g80
g61
NtRp3017
(dp3018
g64
(dp3019
sg73
g3004
sg66
(lp3020
g59
(g60
g61
NtRp3021
(dp3022
g64
(dp3023
g72
I3
ssg73
g3017
sg66
(lp3024
S"<open file '<stderr>', mode 'w' at 0x003100B0>"
p3025
asbasbasbag59
(g75
g61
NtRp3026
(dp3027
g64
(dp3028
sg73
g2601
sg66
(lp3029
g59
(g80
g61
NtRp3030
(dp3031
g64
(dp3032
g84
g85
ssg73
g3026
sg66
(lp3033
S'wsgi.file_wrapper'
p3034
asbag59
(g80
g61
NtRp3035
(dp3036
g64
(dp3037
g91
g92
ssg73
g3026
sg66
(lp3038
S':'
asbag59
(g80
g61
NtRp3039
(dp3040
g64
(dp3041
sg73
g3026
sg66
(lp3042
g59
(g60
g61
NtRp3043
(dp3044
g64
(dp3045
g72
I3
ssg73
g3039
sg66
(lp3046
S'<class gluon.rocket.FileWrapper at 0x02FFC1B0>'
p3047
asbasbasbag59
(g75
g61
NtRp3048
(dp3049
g64
(dp3050
sg73
g2601
sg66
(lp3051
g59
(g80
g61
NtRp3052
(dp3053
g64
(dp3054
g84
g85
ssg73
g3048
sg66
(lp3055
S'wsgi.input'
p3056
asbag59
(g80
g61
NtRp3057
(dp3058
g64
(dp3059
g91
g92
ssg73
g3048
sg66
(lp3060
S':'
asbag59
(g80
g61
NtRp3061
(dp3062
g64
(dp3063
sg73
g3048
sg66
(lp3064
g59
(g60
g61
NtRp3065
(dp3066
g64
(dp3067
g72
I3
ssg73
g3061
sg66
(lp3068
S'<cStringIO.StringO object at 0x073DCCE0>'
p3069
asbasbasbag59
(g75
g61
NtRp3070
(dp3071
g64
(dp3072
sg73
g2601
sg66
(lp3073
g59
(g80
g61
NtRp3074
(dp3075
g64
(dp3076
g84
g85
ssg73
g3070
sg66
(lp3077
S'wsgi.multiprocess'
p3078
asbag59
(g80
g61
NtRp3079
(dp3080
g64
(dp3081
g91
g92
ssg73
g3070
sg66
(lp3082
S':'
asbag59
(g80
g61
NtRp3083
(dp3084
g64
(dp3085
sg73
g3070
sg66
(lp3086
g59
(g60
g61
NtRp3087
(dp3088
g64
(dp3089
g72
I3
ssg73
g3083
sg66
(lp3090
g102
asbasbasbag59
(g75
g61
NtRp3091
(dp3092
g64
(dp3093
sg73
g2601
sg66
(lp3094
g59
(g80
g61
NtRp3095
(dp3096
g64
(dp3097
g84
g85
ssg73
g3091
sg66
(lp3098
S'wsgi.multithread'
p3099
asbag59
(g80
g61
NtRp3100
(dp3101
g64
(dp3102
g91
g92
ssg73
g3091
sg66
(lp3103
S':'
asbag59
(g80
g61
NtRp3104
(dp3105
g64
(dp3106
sg73
g3091
sg66
(lp3107
g59
(g60
g61
NtRp3108
(dp3109
g64
(dp3110
g72
I3
ssg73
g3104
sg66
(lp3111
g2192
asbasbasbag59
(g75
g61
NtRp3112
(dp3113
g64
(dp3114
sg73
g2601
sg66
(lp3115
g59
(g80
g61
NtRp3116
(dp3117
g64
(dp3118
g84
g85
ssg73
g3112
sg66
(lp3119
S'wsgi.run_once'
p3120
asbag59
(g80
g61
NtRp3121
(dp3122
g64
(dp3123
g91
g92
ssg73
g3112
sg66
(lp3124
S':'
asbag59
(g80
g61
NtRp3125
(dp3126
g64
(dp3127
sg73
g3112
sg66
(lp3128
g59
(g60
g61
NtRp3129
(dp3130
g64
(dp3131
g72
I3
ssg73
g3125
sg66
(lp3132
g102
asbasbasbag59
(g75
g61
NtRp3133
(dp3134
g64
(dp3135
sg73
g2601
sg66
(lp3136
g59
(g80
g61
NtRp3137
(dp3138
g64
(dp3139
g84
g85
ssg73
g3133
sg66
(lp3140
S'wsgi.url_scheme'
p3141
asbag59
(g80
g61
NtRp3142
(dp3143
g64
(dp3144
g91
g92
ssg73
g3133
sg66
(lp3145
S':'
asbag59
(g80
g61
NtRp3146
(dp3147
g64
(dp3148
sg73
g3133
sg66
(lp3149
g59
(g60
g61
NtRp3150
(dp3151
g64
(dp3152
g72
I3
ssg73
g3146
sg66
(lp3153
g2235
asbasbasbag59
(g75
g61
NtRp3154
(dp3155
g64
(dp3156
sg73
g2601
sg66
(lp3157
g59
(g80
g61
NtRp3158
(dp3159
g64
(dp3160
g84
g85
ssg73
g3154
sg66
(lp3161
S'wsgi.version'
p3162
asbag59
(g80
g61
NtRp3163
(dp3164
g64
(dp3165
g91
g92
ssg73
g3154
sg66
(lp3166
S':'
asbag59
(g80
g61
NtRp3167
(dp3168
g64
(dp3169
sg73
g3154
sg66
(lp3170
g59
(g60
g61
NtRp3171
(dp3172
g64
(dp3173
g72
I3
ssg73
g3167
sg66
(lp3174
S'1'
asbasbasbasbasbasbasbasbasbasbasbasbasbsS'frames'
p3175
(lp3176
(dp3177
S'file'
p3178
S'C:\\Users\\Atomico\\web2py\\gluon\\restricted.py'
p3179
sS'dump'
p3180
(dp3181
sS'lnum'
p3182
I191
sS'lines'
p3183
(dp3184
sS'call'
p3185
S'(code=\'response.write(\\\'<!DOCTYPE html>\\\\n<html lang="\\\', ...t   -->    \\\\n  </body>\\\\n</html>\\\\n\\\', escape=False)\', environment={\'A\': <class \'gluon.html.A\'>, \'B\': <class \'gluon.html.B\'>, \'BEAUTIFY\': <class \'gluon.html.BEAUTIFY\'>, \'BODY\': <class \'gluon.html.BODY\'>, \'BR\': <class \'gluon.html.BR\'>, \'BUTTON\': <class \'gluon.html.BUTTON\'>, \'CAT\': <class \'gluon.html.CAT\'>, \'CENTER\': <class \'gluon.html.CENTER\'>, \'CLEANUP\': <class \'gluon.validators.CLEANUP\'>, \'CODE\': <class \'gluon.html.CODE\'>, ...}, layer=r\'C:\\Users\\Atomico\\web2py\\applications\\Desglosar_Emails\\views\\default/entrada_mod2.html\')'
p3186
sS'func'
p3187
S'restricted'
p3188
sa(dp3189
g3178
S'C:\\Users\\Atomico\\web2py\\gluon\\restricted.py'
p3190
sg3180
(dp3191
sg3182
I178
sg3183
(dp3192
sg3185
S'(code=\'response.write(\\\'<!DOCTYPE html>\\\\n<html lang="\\\', ...t   -->    \\\\n  </body>\\\\n</html>\\\\n\\\', escape=False)\', layer=r\'C:\\Users\\Atomico\\web2py\\applications\\Desglosar_Emails\\views\\default/entrada_mod2.html\')'
p3193
sg3187
S'compile2'
p3194
sasS'pyver'
p3195
S'Python 2.5.4: C:\\Users\\Atomico\\web2py\\web2py.exe'
p3196
sS'session'
p3197
g59
(g60
g61
NtRp3198
(dp3199
g64
(dp3200
sg66
(lp3201
g59
(g68
g61
NtRp3202
(dp3203
g64
(dp3204
g72
I5
ssg73
Nsg66
(lp3205
g59
(g75
g61
NtRp3206
(dp3207
g64
(dp3208
sg73
g3202
sg66
(lp3209
g59
(g80
g61
NtRp3210
(dp3211
g64
(dp3212
g84
g85
ssg73
g3206
sg66
(lp3213
S'last_query'
p3214
asbag59
(g80
g61
NtRp3215
(dp3216
g64
(dp3217
g91
g92
ssg73
g3206
sg66
(lp3218
S':'
asbag59
(g80
g61
NtRp3219
(dp3220
g64
(dp3221
sg73
g3206
sg66
(lp3222
g59
(g60
g61
NtRp3223
(dp3224
g64
(dp3225
g72
I5
ssg73
g3219
sg66
(lp3226
S'db.persona.id>0'
p3227
asbasbasbasbasbsS'etype'
p3228
S"<type 'exceptions.SyntaxError'>"
p3229
sS'date'
p3230
S'Mon Sep 19 11:14:02 2011'
p3231
sS'response'
p3232
g59
(g60
g61
NtRp3233
(dp3234
g64
(dp3235
sg66
(lp3236
g59
(g68
g61
NtRp3237
(dp3238
g64
(dp3239
g72
I5
ssg73
Nsg66
(lp3240
g59
(g75
g61
NtRp3241
(dp3242
g64
(dp3243
sg73
g3237
sg66
(lp3244
g59
(g80
g61
NtRp3245
(dp3246
g64
(dp3247
g84
g85
ssg73
g3241
sg66
(lp3248
g157
asbag59
(g80
g61
NtRp3249
(dp3250
g64
(dp3251
g91
g92
ssg73
g3241
sg66
(lp3252
S':'
asbag59
(g80
g61
NtRp3253
(dp3254
g64
(dp3255
sg73
g3241
sg66
(lp3256
g59
(g60
g61
NtRp3257
(dp3258
g64
(dp3259
g72
I5
ssg73
g3253
sg66
(lp3260
S'<cStringIO.StringO object at 0x073DCB00>'
p3261
asbasbasbag59
(g75
g61
NtRp3262
(dp3263
g64
(dp3264
sg73
g3237
sg66
(lp3265
g59
(g80
g61
NtRp3266
(dp3267
g64
(dp3268
g84
g85
ssg73
g3262
sg66
(lp3269
g223
asbag59
(g80
g61
NtRp3270
(dp3271
g64
(dp3272
g91
g92
ssg73
g3262
sg66
(lp3273
S':'
asbag59
(g80
g61
NtRp3274
(dp3275
g64
(dp3276
sg73
g3262
sg66
(lp3277
g59
(g60
g61
NtRp3278
(dp3279
g64
(dp3280
g72
I5
ssg73
g3274
sg66
(lp3281
g59
(g68
g61
NtRp3282
(dp3283
g64
(dp3284
g72
I4
ssg73
Nsg66
(lp3285
g59
(g75
g61
NtRp3286
(dp3287
g64
(dp3288
sg73
g3282
sg66
(lp3289
g59
(g80
g61
NtRp3290
(dp3291
g64
(dp3292
g84
g85
ssg73
g3286
sg66
(lp3293
S'session_id_desglosar_emails'
p3294
asbag59
(g80
g61
NtRp3295
(dp3296
g64
(dp3297
g91
g92
ssg73
g3286
sg66
(lp3298
S':'
asbag59
(g80
g61
NtRp3299
(dp3300
g64
(dp3301
sg73
g3286
sg66
(lp3302
g59
(g60
g61
NtRp3303
(dp3304
g64
(dp3305
g72
I4
ssg73
g3299
sg66
(lp3306
g59
(g68
g61
NtRp3307
(dp3308
g64
(dp3309
g72
I3
ssg73
Nsg66
(lp3310
g59
(g75
g61
NtRp3311
(dp3312
g64
(dp3313
sg73
g3307
sg66
(lp3314
g59
(g80
g61
NtRp3315
(dp3316
g64
(dp3317
g84
g85
ssg73
g3311
sg66
(lp3318
g273
asbag59
(g80
g61
NtRp3319
(dp3320
g64
(dp3321
g91
g92
ssg73
g3311
sg66
(lp3322
S':'
asbag59
(g80
g61
NtRp3323
(dp3324
g64
(dp3325
sg73
g3311
sg66
(lp3326
g59
(g60
g61
NtRp3327
(dp3328
g64
(dp3329
g72
I3
ssg73
g3323
sg66
(lp3330
S''
asbasbasbag59
(g75
g61
NtRp3331
(dp3332
g64
(dp3333
sg73
g3307
sg66
(lp3334
g59
(g80
g61
NtRp3335
(dp3336
g64
(dp3337
g84
g85
ssg73
g3331
sg66
(lp3338
g294
asbag59
(g80
g61
NtRp3339
(dp3340
g64
(dp3341
g91
g92
ssg73
g3331
sg66
(lp3342
S':'
asbag59
(g80
g61
NtRp3343
(dp3344
g64
(dp3345
sg73
g3331
sg66
(lp3346
g59
(g60
g61
NtRp3347
(dp3348
g64
(dp3349
g72
I3
ssg73
g3343
sg66
(lp3350
S''
asbasbasbag59
(g75
g61
NtRp3351
(dp3352
g64
(dp3353
sg73
g3307
sg66
(lp3354
g59
(g80
g61
NtRp3355
(dp3356
g64
(dp3357
g84
g85
ssg73
g3351
sg66
(lp3358
g315
asbag59
(g80
g61
NtRp3359
(dp3360
g64
(dp3361
g91
g92
ssg73
g3351
sg66
(lp3362
S':'
asbag59
(g80
g61
NtRp3363
(dp3364
g64
(dp3365
sg73
g3351
sg66
(lp3366
g59
(g60
g61
NtRp3367
(dp3368
g64
(dp3369
g72
I3
ssg73
g3363
sg66
(lp3370
S''
asbasbasbag59
(g75
g61
NtRp3371
(dp3372
g64
(dp3373
sg73
g3307
sg66
(lp3374
g59
(g80
g61
NtRp3375
(dp3376
g64
(dp3377
g84
g85
ssg73
g3371
sg66
(lp3378
g336
asbag59
(g80
g61
NtRp3379
(dp3380
g64
(dp3381
g91
g92
ssg73
g3371
sg66
(lp3382
S':'
asbag59
(g80
g61
NtRp3383
(dp3384
g64
(dp3385
sg73
g3371
sg66
(lp3386
g59
(g60
g61
NtRp3387
(dp3388
g64
(dp3389
g72
I3
ssg73
g3383
sg66
(lp3390
S''
asbasbasbag59
(g75
g61
NtRp3391
(dp3392
g64
(dp3393
sg73
g3307
sg66
(lp3394
g59
(g80
g61
NtRp3395
(dp3396
g64
(dp3397
g84
g85
ssg73
g3391
sg66
(lp3398
g357
asbag59
(g80
g61
NtRp3399
(dp3400
g64
(dp3401
g91
g92
ssg73
g3391
sg66
(lp3402
S':'
asbag59
(g80
g61
NtRp3403
(dp3404
g64
(dp3405
sg73
g3391
sg66
(lp3406
g59
(g60
g61
NtRp3407
(dp3408
g64
(dp3409
g72
I3
ssg73
g3403
sg66
(lp3410
S'/'
asbasbasbag59
(g75
g61
NtRp3411
(dp3412
g64
(dp3413
sg73
g3307
sg66
(lp3414
g59
(g80
g61
NtRp3415
(dp3416
g64
(dp3417
g84
g85
ssg73
g3411
sg66
(lp3418
g378
asbag59
(g80
g61
NtRp3419
(dp3420
g64
(dp3421
g91
g92
ssg73
g3411
sg66
(lp3422
S':'
asbag59
(g80
g61
NtRp3423
(dp3424
g64
(dp3425
sg73
g3411
sg66
(lp3426
g59
(g60
g61
NtRp3427
(dp3428
g64
(dp3429
g72
I3
ssg73
g3423
sg66
(lp3430
S''
asbasbasbag59
(g75
g61
NtRp3431
(dp3432
g64
(dp3433
sg73
g3307
sg66
(lp3434
g59
(g80
g61
NtRp3435
(dp3436
g64
(dp3437
g84
g85
ssg73
g3431
sg66
(lp3438
g399
asbag59
(g80
g61
NtRp3439
(dp3440
g64
(dp3441
g91
g92
ssg73
g3431
sg66
(lp3442
S':'
asbag59
(g80
g61
NtRp3443
(dp3444
g64
(dp3445
sg73
g3431
sg66
(lp3446
g59
(g60
g61
NtRp3447
(dp3448
g64
(dp3449
g72
I3
ssg73
g3443
sg66
(lp3450
S''
asbasbasbasbasbasbasbasbasbasbasbag59
(g75
g61
NtRp3451
(dp3452
g64
(dp3453
sg73
g3237
sg66
(lp3454
g59
(g80
g61
NtRp3455
(dp3456
g64
(dp3457
g84
g85
ssg73
g3451
sg66
(lp3458
S'files'
p3459
asbag59
(g80
g61
NtRp3460
(dp3461
g64
(dp3462
g91
g92
ssg73
g3451
sg66
(lp3463
S':'
asbag59
(g80
g61
NtRp3464
(dp3465
g64
(dp3466
sg73
g3451
sg66
(lp3467
g59
(g60
g61
NtRp3468
(dp3469
g64
(dp3470
g72
I5
ssg73
g3464
sg66
(lp3471
g59
(g68
g61
NtRp3472
(dp3473
g64
(dp3474
g72
I4
ssg73
Nsg66
(lp3475
sbasbasbasbag59
(g75
g61
NtRp3476
(dp3477
g64
(dp3478
sg73
g3237
sg66
(lp3479
g59
(g80
g61
NtRp3480
(dp3481
g64
(dp3482
g84
g85
ssg73
g3476
sg66
(lp3483
S'flash'
p3484
asbag59
(g80
g61
NtRp3485
(dp3486
g64
(dp3487
g91
g92
ssg73
g3476
sg66
(lp3488
S':'
asbag59
(g80
g61
NtRp3489
(dp3490
g64
(dp3491
sg73
g3476
sg66
(lp3492
g59
(g60
g61
NtRp3493
(dp3494
g64
(dp3495
g72
I5
ssg73
g3489
sg66
(lp3496
S''
asbasbasbag59
(g75
g61
NtRp3497
(dp3498
g64
(dp3499
sg73
g3237
sg66
(lp3500
g59
(g80
g61
NtRp3501
(dp3502
g64
(dp3503
g84
g85
ssg73
g3497
sg66
(lp3504
S'generic_patterns'
p3505
asbag59
(g80
g61
NtRp3506
(dp3507
g64
(dp3508
g91
g92
ssg73
g3497
sg66
(lp3509
S':'
asbag59
(g80
g61
NtRp3510
(dp3511
g64
(dp3512
sg73
g3497
sg66
(lp3513
g59
(g60
g61
NtRp3514
(dp3515
g64
(dp3516
g72
I5
ssg73
g3510
sg66
(lp3517
g59
(g68
g61
NtRp3518
(dp3519
g64
(dp3520
g72
I4
ssg73
Nsg66
(lp3521
sbasbasbasbag59
(g75
g61
NtRp3522
(dp3523
g64
(dp3524
sg73
g3237
sg66
(lp3525
g59
(g80
g61
NtRp3526
(dp3527
g64
(dp3528
g84
g85
ssg73
g3522
sg66
(lp3529
S'headers'
p3530
asbag59
(g80
g61
NtRp3531
(dp3532
g64
(dp3533
g91
g92
ssg73
g3522
sg66
(lp3534
S':'
asbag59
(g80
g61
NtRp3535
(dp3536
g64
(dp3537
sg73
g3522
sg66
(lp3538
g59
(g60
g61
NtRp3539
(dp3540
g64
(dp3541
g72
I5
ssg73
g3535
sg66
(lp3542
g59
(g68
g61
NtRp3543
(dp3544
g64
(dp3545
g72
I4
ssg73
Nsg66
(lp3546
g59
(g75
g61
NtRp3547
(dp3548
g64
(dp3549
sg73
g3543
sg66
(lp3550
g59
(g80
g61
NtRp3551
(dp3552
g64
(dp3553
g84
g85
ssg73
g3547
sg66
(lp3554
S'Cache-Control'
p3555
asbag59
(g80
g61
NtRp3556
(dp3557
g64
(dp3558
g91
g92
ssg73
g3547
sg66
(lp3559
S':'
asbag59
(g80
g61
NtRp3560
(dp3561
g64
(dp3562
sg73
g3547
sg66
(lp3563
g59
(g60
g61
NtRp3564
(dp3565
g64
(dp3566
g72
I4
ssg73
g3560
sg66
(lp3567
S'no-store, no-cache, must-revalidate, post-check=0, pre-check=0'
p3568
asbasbasbag59
(g75
g61
NtRp3569
(dp3570
g64
(dp3571
sg73
g3543
sg66
(lp3572
g59
(g80
g61
NtRp3573
(dp3574
g64
(dp3575
g84
g85
ssg73
g3569
sg66
(lp3576
S'Content-Type'
p3577
asbag59
(g80
g61
NtRp3578
(dp3579
g64
(dp3580
g91
g92
ssg73
g3569
sg66
(lp3581
S':'
asbag59
(g80
g61
NtRp3582
(dp3583
g64
(dp3584
sg73
g3569
sg66
(lp3585
g59
(g60
g61
NtRp3586
(dp3587
g64
(dp3588
g72
I4
ssg73
g3582
sg66
(lp3589
S'text/html; charset=utf-8'
p3590
asbasbasbag59
(g75
g61
NtRp3591
(dp3592
g64
(dp3593
sg73
g3543
sg66
(lp3594
g59
(g80
g61
NtRp3595
(dp3596
g64
(dp3597
g84
g85
ssg73
g3591
sg66
(lp3598
S'Expires'
p3599
asbag59
(g80
g61
NtRp3600
(dp3601
g64
(dp3602
g91
g92
ssg73
g3591
sg66
(lp3603
S':'
asbag59
(g80
g61
NtRp3604
(dp3605
g64
(dp3606
sg73
g3591
sg66
(lp3607
g59
(g60
g61
NtRp3608
(dp3609
g64
(dp3610
g72
I4
ssg73
g3604
sg66
(lp3611
S'Mon, 19 Sep 2011 09:14:02 GMT'
p3612
asbasbasbag59
(g75
g61
NtRp3613
(dp3614
g64
(dp3615
sg73
g3543
sg66
(lp3616
g59
(g80
g61
NtRp3617
(dp3618
g64
(dp3619
g84
g85
ssg73
g3613
sg66
(lp3620
S'Pragma'
p3621
asbag59
(g80
g61
NtRp3622
(dp3623
g64
(dp3624
g91
g92
ssg73
g3613
sg66
(lp3625
S':'
asbag59
(g80
g61
NtRp3626
(dp3627
g64
(dp3628
sg73
g3613
sg66
(lp3629
g59
(g60
g61
NtRp3630
(dp3631
g64
(dp3632
g72
I4
ssg73
g3626
sg66
(lp3633
S'no-cache'
p3634
asbasbasbag59
(g75
g61
NtRp3635
(dp3636
g64
(dp3637
sg73
g3543
sg66
(lp3638
g59
(g80
g61
NtRp3639
(dp3640
g64
(dp3641
g84
g85
ssg73
g3635
sg66
(lp3642
S'X-Powered-By'
p3643
asbag59
(g80
g61
NtRp3644
(dp3645
g64
(dp3646
g91
g92
ssg73
g3635
sg66
(lp3647
S':'
asbag59
(g80
g61
NtRp3648
(dp3649
g64
(dp3650
sg73
g3635
sg66
(lp3651
g59
(g60
g61
NtRp3652
(dp3653
g64
(dp3654
g72
I4
ssg73
g3648
sg66
(lp3655
S'web2py'
p3656
asbasbasbasbasbasbasbag59
(g75
g61
NtRp3657
(dp3658
g64
(dp3659
sg73
g3237
sg66
(lp3660
g59
(g80
g61
NtRp3661
(dp3662
g64
(dp3663
g84
g85
ssg73
g3657
sg66
(lp3664
S'menu'
p3665
asbag59
(g80
g61
NtRp3666
(dp3667
g64
(dp3668
g91
g92
ssg73
g3657
sg66
(lp3669
S':'
asbag59
(g80
g61
NtRp3670
(dp3671
g64
(dp3672
sg73
g3657
sg66
(lp3673
g59
(g60
g61
NtRp3674
(dp3675
g64
(dp3676
g72
I5
ssg73
g3670
sg66
(lp3677
g59
(g68
g61
NtRp3678
(dp3679
g64
(dp3680
g72
I4
ssg73
Nsg66
(lp3681
g59
(g75
g61
NtRp3682
(dp3683
g64
(dp3684
sg73
g3678
sg66
(lp3685
g59
(g80
g61
NtRp3686
(dp3687
g64
(dp3688
sg73
g3682
sg66
(lp3689
g59
(g60
g61
NtRp3690
(dp3691
g64
(dp3692
g72
I4
ssg73
g3686
sg66
(lp3693
g59
(g68
g61
NtRp3694
(dp3695
g64
(dp3696
g72
I3
ssg73
Nsg66
(lp3697
g59
(g75
g61
NtRp3698
(dp3699
g64
(dp3700
sg73
g3694
sg66
(lp3701
g59
(g80
g61
NtRp3702
(dp3703
g64
(dp3704
sg73
g3698
sg66
(lp3705
g59
(g60
g61
NtRp3706
(dp3707
g64
(dp3708
g72
I3
ssg73
g3702
sg66
(lp3709
cgluon.languages
lazyT_unpickle
p3710
(S't\x04\x00\x00\x00Home'
tRp3711
asbasbasbag59
(g75
g61
NtRp3712
(dp3713
g64
(dp3714
sg73
g3694
sg66
(lp3715
g59
(g80
g61
NtRp3716
(dp3717
g64
(dp3718
sg73
g3712
sg66
(lp3719
g59
(g60
g61
NtRp3720
(dp3721
g64
(dp3722
g72
I3
ssg73
g3716
sg66
(lp3723
g102
asbasbasbag59
(g75
g61
NtRp3724
(dp3725
g64
(dp3726
sg73
g3694
sg66
(lp3727
g59
(g80
g61
NtRp3728
(dp3729
g64
(dp3730
sg73
g3724
sg66
(lp3731
g59
(g60
g61
NtRp3732
(dp3733
g64
(dp3734
g72
I3
ssg73
g3728
sg66
(lp3735
S'/Desglosar_Emails/default/index'
p3736
asbasbasbag59
(g75
g61
NtRp3737
(dp3738
g64
(dp3739
sg73
g3694
sg66
(lp3740
g59
(g80
g61
NtRp3741
(dp3742
g64
(dp3743
sg73
g3737
sg66
(lp3744
g59
(g60
g61
NtRp3745
(dp3746
g64
(dp3747
g72
I3
ssg73
g3741
sg66
(lp3748
g59
(g68
g61
NtRp3749
(dp3750
g64
(dp3751
g72
I2
ssg73
Nsg66
(lp3752
sbasbasbasbasbasbasbasbag59
(g75
g61
NtRp3753
(dp3754
g64
(dp3755
sg73
g3678
sg66
(lp3756
g59
(g80
g61
NtRp3757
(dp3758
g64
(dp3759
sg73
g3753
sg66
(lp3760
g59
(g60
g61
NtRp3761
(dp3762
g64
(dp3763
g72
I4
ssg73
g3757
sg66
(lp3764
g59
(g68
g61
NtRp3765
(dp3766
g64
(dp3767
g72
I3
ssg73
Nsg66
(lp3768
g59
(g75
g61
NtRp3769
(dp3770
g64
(dp3771
sg73
g3765
sg66
(lp3772
g59
(g80
g61
NtRp3773
(dp3774
g64
(dp3775
sg73
g3769
sg66
(lp3776
g59
(g60
g61
NtRp3777
(dp3778
g64
(dp3779
g72
I3
ssg73
g3773
sg66
(lp3780
g3710
(S's\x08\x00\x00\x00This App'
tRp3781
asbasbasbag59
(g75
g61
NtRp3782
(dp3783
g64
(dp3784
sg73
g3765
sg66
(lp3785
g59
(g80
g61
NtRp3786
(dp3787
g64
(dp3788
sg73
g3782
sg66
(lp3789
g59
(g60
g61
NtRp3790
(dp3791
g64
(dp3792
g72
I3
ssg73
g3786
sg66
(lp3793
g102
asbasbasbag59
(g75
g61
NtRp3794
(dp3795
g64
(dp3796
sg73
g3765
sg66
(lp3797
g59
(g80
g61
NtRp3798
(dp3799
g64
(dp3800
sg73
g3794
sg66
(lp3801
g59
(g60
g61
NtRp3802
(dp3803
g64
(dp3804
g72
I3
ssg73
g3798
sg66
(lp3805
S'/admin/default/design/Desglosar_Emails'
p3806
asbasbasbag59
(g75
g61
NtRp3807
(dp3808
g64
(dp3809
sg73
g3765
sg66
(lp3810
g59
(g80
g61
NtRp3811
(dp3812
g64
(dp3813
sg73
g3807
sg66
(lp3814
g59
(g60
g61
NtRp3815
(dp3816
g64
(dp3817
g72
I3
ssg73
g3811
sg66
(lp3818
g59
(g68
g61
NtRp3819
(dp3820
g64
(dp3821
g72
I2
ssg73
Nsg66
(lp3822
g59
(g75
g61
NtRp3823
(dp3824
g64
(dp3825
sg73
g3819
sg66
(lp3826
g59
(g80
g61
NtRp3827
(dp3828
g64
(dp3829
sg73
g3823
sg66
(lp3830
g59
(g60
g61
NtRp3831
(dp3832
g64
(dp3833
g72
I2
ssg73
g3827
sg66
(lp3834
g59
(g68
g61
NtRp3835
(dp3836
g64
(dp3837
g72
I1
ssg73
Nsg66
(lp3838
g59
(g75
g61
NtRp3839
(dp3840
g64
(dp3841
sg73
g3835
sg66
(lp3842
g59
(g80
g61
NtRp3843
(dp3844
g64
(dp3845
sg73
g3839
sg66
(lp3846
g59
(g60
g61
NtRp3847
(dp3848
g64
(dp3849
g72
I1
ssg73
g3843
sg66
(lp3850
g3710
(S't\x0b\x00\x00\x00Controlador'
tRp3851
asbasbasbag59
(g75
g61
NtRp3852
(dp3853
g64
(dp3854
sg73
g3835
sg66
(lp3855
g59
(g80
g61
NtRp3856
(dp3857
g64
(dp3858
sg73
g3852
sg66
(lp3859
g59
(g60
g61
NtRp3860
(dp3861
g64
(dp3862
g72
I1
ssg73
g3856
sg66
(lp3863
I00
asbasbasbag59
(g75
g61
NtRp3864
(dp3865
g64
(dp3866
sg73
g3835
sg66
(lp3867
g59
(g80
g61
NtRp3868
(dp3869
g64
(dp3870
sg73
g3864
sg66
(lp3871
g59
(g60
g61
NtRp3872
(dp3873
g64
(dp3874
g72
I1
ssg73
g3868
sg66
(lp3875
S'/admin/default/edit/Desglosar_Emails/controllers/default.py'
p3876
asbasbasbasbasbasbasbag59
(g75
g61
NtRp3877
(dp3878
g64
(dp3879
sg73
g3819
sg66
(lp3880
g59
(g80
g61
NtRp3881
(dp3882
g64
(dp3883
sg73
g3877
sg66
(lp3884
g59
(g60
g61
NtRp3885
(dp3886
g64
(dp3887
g72
I2
ssg73
g3881
sg66
(lp3888
g59
(g68
g61
NtRp3889
(dp3890
g64
(dp3891
g72
I1
ssg73
Nsg66
(lp3892
g59
(g75
g61
NtRp3893
(dp3894
g64
(dp3895
sg73
g3889
sg66
(lp3896
g59
(g80
g61
NtRp3897
(dp3898
g64
(dp3899
sg73
g3893
sg66
(lp3900
g59
(g60
g61
NtRp3901
(dp3902
g64
(dp3903
g72
I1
ssg73
g3897
sg66
(lp3904
g3710
(S't\x05\x00\x00\x00Vista'
tRp3905
asbasbasbag59
(g75
g61
NtRp3906
(dp3907
g64
(dp3908
sg73
g3889
sg66
(lp3909
g59
(g80
g61
NtRp3910
(dp3911
g64
(dp3912
sg73
g3906
sg66
(lp3913
g59
(g60
g61
NtRp3914
(dp3915
g64
(dp3916
g72
I1
ssg73
g3910
sg66
(lp3917
I00
asbasbasbag59
(g75
g61
NtRp3918
(dp3919
g64
(dp3920
sg73
g3889
sg66
(lp3921
g59
(g80
g61
NtRp3922
(dp3923
g64
(dp3924
sg73
g3918
sg66
(lp3925
g59
(g60
g61
NtRp3926
(dp3927
g64
(dp3928
g72
I1
ssg73
g3922
sg66
(lp3929
S'/admin/default/edit/Desglosar_Emails/views/default/entrada_mod2.html'
p3930
asbasbasbasbasbasbasbag59
(g75
g61
NtRp3931
(dp3932
g64
(dp3933
sg73
g3819
sg66
(lp3934
g59
(g80
g61
NtRp3935
(dp3936
g64
(dp3937
sg73
g3931
sg66
(lp3938
g59
(g60
g61
NtRp3939
(dp3940
g64
(dp3941
g72
I2
ssg73
g3935
sg66
(lp3942
g59
(g68
g61
NtRp3943
(dp3944
g64
(dp3945
g72
I1
ssg73
Nsg66
(lp3946
g59
(g75
g61
NtRp3947
(dp3948
g64
(dp3949
sg73
g3943
sg66
(lp3950
g59
(g80
g61
NtRp3951
(dp3952
g64
(dp3953
sg73
g3947
sg66
(lp3954
g59
(g60
g61
NtRp3955
(dp3956
g64
(dp3957
g72
I1
ssg73
g3951
sg66
(lp3958
g3710
(S's\x12\x00\x00\x00Dise\xc3\xb1o de p\xc3\xa1gina'
tRp3959
asbasbasbag59
(g75
g61
NtRp3960
(dp3961
g64
(dp3962
sg73
g3943
sg66
(lp3963
g59
(g80
g61
NtRp3964
(dp3965
g64
(dp3966
sg73
g3960
sg66
(lp3967
g59
(g60
g61
NtRp3968
(dp3969
g64
(dp3970
g72
I1
ssg73
g3964
sg66
(lp3971
I00
asbasbasbag59
(g75
g61
NtRp3972
(dp3973
g64
(dp3974
sg73
g3943
sg66
(lp3975
g59
(g80
g61
NtRp3976
(dp3977
g64
(dp3978
sg73
g3972
sg66
(lp3979
g59
(g60
g61
NtRp3980
(dp3981
g64
(dp3982
g72
I1
ssg73
g3976
sg66
(lp3983
S'/admin/default/edit/Desglosar_Emails/views/layout.html'
p3984
asbasbasbasbasbasbasbag59
(g75
g61
NtRp3985
(dp3986
g64
(dp3987
sg73
g3819
sg66
(lp3988
g59
(g80
g61
NtRp3989
(dp3990
g64
(dp3991
sg73
g3985
sg66
(lp3992
g59
(g60
g61
NtRp3993
(dp3994
g64
(dp3995
g72
I2
ssg73
g3989
sg66
(lp3996
g59
(g68
g61
NtRp3997
(dp3998
g64
(dp3999
g72
I1
ssg73
Nsg66
(lp4000
g59
(g75
g61
NtRp4001
(dp4002
g64
(dp4003
sg73
g3997
sg66
(lp4004
g59
(g80
g61
NtRp4005
(dp4006
g64
(dp4007
sg73
g4001
sg66
(lp4008
g59
(g60
g61
NtRp4009
(dp4010
g64
(dp4011
g72
I1
ssg73
g4005
sg66
(lp4012
g3710
(S's\x0e\x00\x00\x00Hoja de estilo'
tRp4013
asbasbasbag59
(g75
g61
NtRp4014
(dp4015
g64
(dp4016
sg73
g3997
sg66
(lp4017
g59
(g80
g61
NtRp4018
(dp4019
g64
(dp4020
sg73
g4014
sg66
(lp4021
g59
(g60
g61
NtRp4022
(dp4023
g64
(dp4024
g72
I1
ssg73
g4018
sg66
(lp4025
I00
asbasbasbag59
(g75
g61
NtRp4026
(dp4027
g64
(dp4028
sg73
g3997
sg66
(lp4029
g59
(g80
g61
NtRp4030
(dp4031
g64
(dp4032
sg73
g4026
sg66
(lp4033
g59
(g60
g61
NtRp4034
(dp4035
g64
(dp4036
g72
I1
ssg73
g4030
sg66
(lp4037
S'/admin/default/edit/Desglosar_Emails/static/base.css'
p4038
asbasbasbasbasbasbasbag59
(g75
g61
NtRp4039
(dp4040
g64
(dp4041
sg73
g3819
sg66
(lp4042
g59
(g80
g61
NtRp4043
(dp4044
g64
(dp4045
sg73
g4039
sg66
(lp4046
g59
(g60
g61
NtRp4047
(dp4048
g64
(dp4049
g72
I2
ssg73
g4043
sg66
(lp4050
g59
(g68
g61
NtRp4051
(dp4052
g64
(dp4053
g72
I1
ssg73
Nsg66
(lp4054
g59
(g75
g61
NtRp4055
(dp4056
g64
(dp4057
sg73
g4051
sg66
(lp4058
g59
(g80
g61
NtRp4059
(dp4060
g64
(dp4061
sg73
g4055
sg66
(lp4062
g59
(g60
g61
NtRp4063
(dp4064
g64
(dp4065
g72
I1
ssg73
g4059
sg66
(lp4066
g3710
(S's\x0b\x00\x00\x00Modelo "db"'
tRp4067
asbasbasbag59
(g75
g61
NtRp4068
(dp4069
g64
(dp4070
sg73
g4051
sg66
(lp4071
g59
(g80
g61
NtRp4072
(dp4073
g64
(dp4074
sg73
g4068
sg66
(lp4075
g59
(g60
g61
NtRp4076
(dp4077
g64
(dp4078
g72
I1
ssg73
g4072
sg66
(lp4079
I00
asbasbasbag59
(g75
g61
NtRp4080
(dp4081
g64
(dp4082
sg73
g4051
sg66
(lp4083
g59
(g80
g61
NtRp4084
(dp4085
g64
(dp4086
sg73
g4080
sg66
(lp4087
g59
(g60
g61
NtRp4088
(dp4089
g64
(dp4090
g72
I1
ssg73
g4084
sg66
(lp4091
S'/admin/default/edit/Desglosar_Emails/models/db.py'
p4092
asbasbasbasbasbasbasbag59
(g75
g61
NtRp4093
(dp4094
g64
(dp4095
sg73
g3819
sg66
(lp4096
g59
(g80
g61
NtRp4097
(dp4098
g64
(dp4099
sg73
g4093
sg66
(lp4100
g59
(g60
g61
NtRp4101
(dp4102
g64
(dp4103
g72
I2
ssg73
g4097
sg66
(lp4104
g59
(g68
g61
NtRp4105
(dp4106
g64
(dp4107
g72
I1
ssg73
Nsg66
(lp4108
g59
(g75
g61
NtRp4109
(dp4110
g64
(dp4111
sg73
g4105
sg66
(lp4112
g59
(g80
g61
NtRp4113
(dp4114
g64
(dp4115
sg73
g4109
sg66
(lp4116
g59
(g60
g61
NtRp4117
(dp4118
g64
(dp4119
g72
I1
ssg73
g4113
sg66
(lp4120
g3710
(S's\r\x00\x00\x00Modelo "menu"'
tRp4121
asbasbasbag59
(g75
g61
NtRp4122
(dp4123
g64
(dp4124
sg73
g4105
sg66
(lp4125
g59
(g80
g61
NtRp4126
(dp4127
g64
(dp4128
sg73
g4122
sg66
(lp4129
g59
(g60
g61
NtRp4130
(dp4131
g64
(dp4132
g72
I1
ssg73
g4126
sg66
(lp4133
I00
asbasbasbag59
(g75
g61
NtRp4134
(dp4135
g64
(dp4136
sg73
g4105
sg66
(lp4137
g59
(g80
g61
NtRp4138
(dp4139
g64
(dp4140
sg73
g4134
sg66
(lp4141
g59
(g60
g61
NtRp4142
(dp4143
g64
(dp4144
g72
I1
ssg73
g4138
sg66
(lp4145
S'/admin/default/edit/Desglosar_Emails/models/menu.py'
p4146
asbasbasbasbasbasbasbag59
(g75
g61
NtRp4147
(dp4148
g64
(dp4149
sg73
g3819
sg66
(lp4150
g59
(g80
g61
NtRp4151
(dp4152
g64
(dp4153
sg73
g4147
sg66
(lp4154
g59
(g60
g61
NtRp4155
(dp4156
g64
(dp4157
g72
I2
ssg73
g4151
sg66
(lp4158
g59
(g68
g61
NtRp4159
(dp4160
g64
(dp4161
g72
I1
ssg73
Nsg66
(lp4162
g59
(g75
g61
NtRp4163
(dp4164
g64
(dp4165
sg73
g4159
sg66
(lp4166
g59
(g80
g61
NtRp4167
(dp4168
g64
(dp4169
sg73
g4163
sg66
(lp4170
g59
(g60
g61
NtRp4171
(dp4172
g64
(dp4173
g72
I1
ssg73
g4167
sg66
(lp4174
g3710
(S's\r\x00\x00\x00Base de datos'
tRp4175
asbasbasbag59
(g75
g61
NtRp4176
(dp4177
g64
(dp4178
sg73
g4159
sg66
(lp4179
g59
(g80
g61
NtRp4180
(dp4181
g64
(dp4182
sg73
g4176
sg66
(lp4183
g59
(g60
g61
NtRp4184
(dp4185
g64
(dp4186
g72
I1
ssg73
g4180
sg66
(lp4187
I00
asbasbasbag59
(g75
g61
NtRp4188
(dp4189
g64
(dp4190
sg73
g4159
sg66
(lp4191
g59
(g80
g61
NtRp4192
(dp4193
g64
(dp4194
sg73
g4188
sg66
(lp4195
g59
(g60
g61
NtRp4196
(dp4197
g64
(dp4198
g72
I1
ssg73
g4192
sg66
(lp4199
S'/Desglosar_Emails/appadmin/index'
p4200
asbasbasbasbasbasbasbag59
(g75
g61
NtRp4201
(dp4202
g64
(dp4203
sg73
g3819
sg66
(lp4204
g59
(g80
g61
NtRp4205
(dp4206
g64
(dp4207
sg73
g4201
sg66
(lp4208
g59
(g60
g61
NtRp4209
(dp4210
g64
(dp4211
g72
I2
ssg73
g4205
sg66
(lp4212
g59
(g68
g61
NtRp4213
(dp4214
g64
(dp4215
g72
I1
ssg73
Nsg66
(lp4216
g59
(g75
g61
NtRp4217
(dp4218
g64
(dp4219
sg73
g4213
sg66
(lp4220
g59
(g80
g61
NtRp4221
(dp4222
g64
(dp4223
sg73
g4217
sg66
(lp4224
g59
(g60
g61
NtRp4225
(dp4226
g64
(dp4227
g72
I1
ssg73
g4221
sg66
(lp4228
g3710
(S't\x06\x00\x00\x00Errors'
tRp4229
asbasbasbag59
(g75
g61
NtRp4230
(dp4231
g64
(dp4232
sg73
g4213
sg66
(lp4233
g59
(g80
g61
NtRp4234
(dp4235
g64
(dp4236
sg73
g4230
sg66
(lp4237
g59
(g60
g61
NtRp4238
(dp4239
g64
(dp4240
g72
I1
ssg73
g4234
sg66
(lp4241
I00
asbasbasbag59
(g75
g61
NtRp4242
(dp4243
g64
(dp4244
sg73
g4213
sg66
(lp4245
g59
(g80
g61
NtRp4246
(dp4247
g64
(dp4248
sg73
g4242
sg66
(lp4249
g59
(g60
g61
NtRp4250
(dp4251
g64
(dp4252
g72
I1
ssg73
g4246
sg66
(lp4253
S'/admin/default/errors/Desglosar_Emails'
p4254
asbasbasbasbasbasbasbag59
(g75
g61
NtRp4255
(dp4256
g64
(dp4257
sg73
g3819
sg66
(lp4258
g59
(g80
g61
NtRp4259
(dp4260
g64
(dp4261
sg73
g4255
sg66
(lp4262
g59
(g60
g61
NtRp4263
(dp4264
g64
(dp4265
g72
I2
ssg73
g4259
sg66
(lp4266
g59
(g68
g61
NtRp4267
(dp4268
g64
(dp4269
g72
I1
ssg73
Nsg66
(lp4270
g59
(g75
g61
NtRp4271
(dp4272
g64
(dp4273
sg73
g4267
sg66
(lp4274
g59
(g80
g61
NtRp4275
(dp4276
g64
(dp4277
sg73
g4271
sg66
(lp4278
g59
(g60
g61
NtRp4279
(dp4280
g64
(dp4281
g72
I1
ssg73
g4275
sg66
(lp4282
g3710
(S's\t\x00\x00\x00Acerca de'
tRp4283
asbasbasbag59
(g75
g61
NtRp4284
(dp4285
g64
(dp4286
sg73
g4267
sg66
(lp4287
g59
(g80
g61
NtRp4288
(dp4289
g64
(dp4290
sg73
g4284
sg66
(lp4291
g59
(g60
g61
NtRp4292
(dp4293
g64
(dp4294
g72
I1
ssg73
g4288
sg66
(lp4295
I00
asbasbasbag59
(g75
g61
NtRp4296
(dp4297
g64
(dp4298
sg73
g4267
sg66
(lp4299
g59
(g80
g61
NtRp4300
(dp4301
g64
(dp4302
sg73
g4296
sg66
(lp4303
g59
(g60
g61
NtRp4304
(dp4305
g64
(dp4306
g72
I1
ssg73
g4300
sg66
(lp4307
S'/admin/default/about/Desglosar_Emails'
p4308
asbasbasbasbasbasbasbasbasbasbasbasbasbasbasbag59
(g75
g61
NtRp4309
(dp4310
g64
(dp4311
sg73
g3678
sg66
(lp4312
g59
(g80
g61
NtRp4313
(dp4314
g64
(dp4315
sg73
g4309
sg66
(lp4316
g59
(g60
g61
NtRp4317
(dp4318
g64
(dp4319
g72
I4
ssg73
g4313
sg66
(lp4320
g59
(g68
g61
NtRp4321
(dp4322
g64
(dp4323
g72
I3
ssg73
Nsg66
(lp4324
g59
(g75
g61
NtRp4325
(dp4326
g64
(dp4327
sg73
g4321
sg66
(lp4328
g59
(g80
g61
NtRp4329
(dp4330
g64
(dp4331
sg73
g4325
sg66
(lp4332
g59
(g60
g61
NtRp4333
(dp4334
g64
(dp4335
g72
I3
ssg73
g4329
sg66
(lp4336
g3710
(S't\t\x00\x00\x00Resources'
tRp4337
asbasbasbag59
(g75
g61
NtRp4338
(dp4339
g64
(dp4340
sg73
g4321
sg66
(lp4341
g59
(g80
g61
NtRp4342
(dp4343
g64
(dp4344
sg73
g4338
sg66
(lp4345
g59
(g60
g61
NtRp4346
(dp4347
g64
(dp4348
g72
I3
ssg73
g4342
sg66
(lp4349
g102
asbasbasbag59
(g75
g61
NtRp4350
(dp4351
g64
(dp4352
sg73
g4321
sg66
(lp4353
g59
(g80
g61
NtRp4354
(dp4355
g64
(dp4356
sg73
g4350
sg66
(lp4357
g59
(g60
g61
NtRp4358
(dp4359
g64
(dp4360
g72
I3
ssg73
g4354
sg66
(lp4361
S'None'
p4362
asbasbasbag59
(g75
g61
NtRp4363
(dp4364
g64
(dp4365
sg73
g4321
sg66
(lp4366
g59
(g80
g61
NtRp4367
(dp4368
g64
(dp4369
sg73
g4363
sg66
(lp4370
g59
(g60
g61
NtRp4371
(dp4372
g64
(dp4373
g72
I3
ssg73
g4367
sg66
(lp4374
g59
(g68
g61
NtRp4375
(dp4376
g64
(dp4377
g72
I2
ssg73
Nsg66
(lp4378
g59
(g75
g61
NtRp4379
(dp4380
g64
(dp4381
sg73
g4375
sg66
(lp4382
g59
(g80
g61
NtRp4383
(dp4384
g64
(dp4385
sg73
g4379
sg66
(lp4386
g59
(g60
g61
NtRp4387
(dp4388
g64
(dp4389
g72
I2
ssg73
g4383
sg66
(lp4390
g59
(g68
g61
NtRp4391
(dp4392
g64
(dp4393
g72
I1
ssg73
Nsg66
(lp4394
g59
(g75
g61
NtRp4395
(dp4396
g64
(dp4397
sg73
g4391
sg66
(lp4398
g59
(g80
g61
NtRp4399
(dp4400
g64
(dp4401
sg73
g4395
sg66
(lp4402
g59
(g60
g61
NtRp4403
(dp4404
g64
(dp4405
g72
I1
ssg73
g4399
sg66
(lp4406
g3710
(S's\x0e\x00\x00\x00Documentaci\xc3\xb3n'
tRp4407
asbasbasbag59
(g75
g61
NtRp4408
(dp4409
g64
(dp4410
sg73
g4391
sg66
(lp4411
g59
(g80
g61
NtRp4412
(dp4413
g64
(dp4414
sg73
g4408
sg66
(lp4415
g59
(g60
g61
NtRp4416
(dp4417
g64
(dp4418
g72
I1
ssg73
g4412
sg66
(lp4419
I00
asbasbasbag59
(g75
g61
NtRp4420
(dp4421
g64
(dp4422
sg73
g4391
sg66
(lp4423
g59
(g80
g61
NtRp4424
(dp4425
g64
(dp4426
sg73
g4420
sg66
(lp4427
g59
(g60
g61
NtRp4428
(dp4429
g64
(dp4430
g72
I1
ssg73
g4424
sg66
(lp4431
S'http://www.web2py.com/book'
p4432
asbasbasbag59
(g75
g61
NtRp4433
(dp4434
g64
(dp4435
sg73
g4391
sg66
(lp4436
g59
(g80
g61
NtRp4437
(dp4438
g64
(dp4439
sg73
g4433
sg66
(lp4440
g59
(g60
g61
NtRp4441
(dp4442
g64
(dp4443
g72
I1
ssg73
g4437
sg66
(lp4444
(lp4445
(g3710
(S't\x07\x00\x00\x00Preface'
tRp4446
I00
S'http://www.web2py.com/book/default/chapter/00'
tp4447
a(g3710
(S't\x0c\x00\x00\x00Introduction'
tRp4448
I00
S'http://www.web2py.com/book/default/chapter/01'
tp4449
a(g3710
(S't\x06\x00\x00\x00Python'
tRp4450
I00
S'http://www.web2py.com/book/default/chapter/02'
tp4451
a(g3710
(S't\x08\x00\x00\x00Overview'
tRp4452
I00
S'http://www.web2py.com/book/default/chapter/03'
tp4453
a(g3710
(S's\x08\x00\x00\x00The Core'
tRp4454
I00
S'http://www.web2py.com/book/default/chapter/04'
tp4455
a(g3710
(S's\t\x00\x00\x00The Views'
tRp4456
I00
S'http://www.web2py.com/book/default/chapter/05'
tp4457
a(g3710
(S's\r\x00\x00\x00Base de datos'
tRp4458
I00
S'http://www.web2py.com/book/default/chapter/06'
tp4459
a(g3710
(S's\x14\x00\x00\x00Forms and Validators'
tRp4460
I00
S'http://www.web2py.com/book/default/chapter/07'
tp4461
a(g3710
(S's\x0e\x00\x00\x00Access Control'
tRp4462
I00
S'http://www.web2py.com/book/default/chapter/08'
tp4463
a(g3710
(S't\x08\x00\x00\x00Services'
tRp4464
I00
S'http://www.web2py.com/book/default/chapter/09'
tp4465
a(g3710
(S's\x0c\x00\x00\x00Ajax Recipes'
tRp4466
I00
S'http://www.web2py.com/book/default/chapter/10'
tp4467
a(g3710
(S's\x12\x00\x00\x00Deployment Recipes'
tRp4468
I00
S'http://www.web2py.com/book/default/chapter/11'
tp4469
a(g3710
(S's\r\x00\x00\x00Other Recipes'
tRp4470
I00
S'http://www.web2py.com/book/default/chapter/12'
tp4471
a(g3710
(S's\r\x00\x00\x00Buy this book'
tRp4472
I00
S'http://stores.lulu.com/web2py'
tp4473
aasbasbasbasbasbasbasbag59
(g75
g61
NtRp4474
(dp4475
g64
(dp4476
sg73
g4375
sg66
(lp4477
g59
(g80
g61
NtRp4478
(dp4479
g64
(dp4480
sg73
g4474
sg66
(lp4481
g59
(g60
g61
NtRp4482
(dp4483
g64
(dp4484
g72
I2
ssg73
g4478
sg66
(lp4485
g59
(g68
g61
NtRp4486
(dp4487
g64
(dp4488
g72
I1
ssg73
Nsg66
(lp4489
g59
(g75
g61
NtRp4490
(dp4491
g64
(dp4492
sg73
g4486
sg66
(lp4493
g59
(g80
g61
NtRp4494
(dp4495
g64
(dp4496
sg73
g4490
sg66
(lp4497
g59
(g60
g61
NtRp4498
(dp4499
g64
(dp4500
g72
I1
ssg73
g4494
sg66
(lp4501
g3710
(S't\t\x00\x00\x00Community'
tRp4502
asbasbasbag59
(g75
g61
NtRp4503
(dp4504
g64
(dp4505
sg73
g4486
sg66
(lp4506
g59
(g80
g61
NtRp4507
(dp4508
g64
(dp4509
sg73
g4503
sg66
(lp4510
g59
(g60
g61
NtRp4511
(dp4512
g64
(dp4513
g72
I1
ssg73
g4507
sg66
(lp4514
I00
asbasbasbag59
(g75
g61
NtRp4515
(dp4516
g64
(dp4517
sg73
g4486
sg66
(lp4518
g59
(g80
g61
NtRp4519
(dp4520
g64
(dp4521
sg73
g4515
sg66
(lp4522
g59
(g60
g61
NtRp4523
(dp4524
g64
(dp4525
g72
I1
ssg73
g4519
sg66
(lp4526
Nasbasbasbag59
(g75
g61
NtRp4527
(dp4528
g64
(dp4529
sg73
g4486
sg66
(lp4530
g59
(g80
g61
NtRp4531
(dp4532
g64
(dp4533
sg73
g4527
sg66
(lp4534
g59
(g60
g61
NtRp4535
(dp4536
g64
(dp4537
g72
I1
ssg73
g4531
sg66
(lp4538
(lp4539
(g3710
(S't\x06\x00\x00\x00Groups'
tRp4540
I00
S'http://www.web2py.com/examples/default/usergroups'
tp4541
a(g3710
(S't\x07\x00\x00\x00Twitter'
tRp4542
I00
S'http://twitter.com/web2py'
tp4543
a(g3710
(S's\t\x00\x00\x00Live chat'
tRp4544
I00
S'http://mibbit.com/?channel=%23web2py&server=irc.mibbit.net'
tp4545
a(g3710
(S's\n\x00\x00\x00User Voice'
tRp4546
I00
S'http://web2py.uservoice.com/'
tp4547
aasbasbasbasbasbasbasbag59
(g75
g61
NtRp4548
(dp4549
g64
(dp4550
sg73
g4375
sg66
(lp4551
g59
(g80
g61
NtRp4552
(dp4553
g64
(dp4554
sg73
g4548
sg66
(lp4555
g59
(g60
g61
NtRp4556
(dp4557
g64
(dp4558
g72
I2
ssg73
g4552
sg66
(lp4559
g59
(g68
g61
NtRp4560
(dp4561
g64
(dp4562
g72
I1
ssg73
Nsg66
(lp4563
g59
(g75
g61
NtRp4564
(dp4565
g64
(dp4566
sg73
g4560
sg66
(lp4567
g59
(g80
g61
NtRp4568
(dp4569
g64
(dp4570
sg73
g4564
sg66
(lp4571
g59
(g60
g61
NtRp4572
(dp4573
g64
(dp4574
g72
I1
ssg73
g4568
sg66
(lp4575
g3710
(S't\x06\x00\x00\x00Web2py'
tRp4576
asbasbasbag59
(g75
g61
NtRp4577
(dp4578
g64
(dp4579
sg73
g4560
sg66
(lp4580
g59
(g80
g61
NtRp4581
(dp4582
g64
(dp4583
sg73
g4577
sg66
(lp4584
g59
(g60
g61
NtRp4585
(dp4586
g64
(dp4587
g72
I1
ssg73
g4581
sg66
(lp4588
I00
asbasbasbag59
(g75
g61
NtRp4589
(dp4590
g64
(dp4591
sg73
g4560
sg66
(lp4592
g59
(g80
g61
NtRp4593
(dp4594
g64
(dp4595
sg73
g4589
sg66
(lp4596
g59
(g60
g61
NtRp4597
(dp4598
g64
(dp4599
g72
I1
ssg73
g4593
sg66
(lp4600
S'http://www.web2py.com'
p4601
asbasbasbag59
(g75
g61
NtRp4602
(dp4603
g64
(dp4604
sg73
g4560
sg66
(lp4605
g59
(g80
g61
NtRp4606
(dp4607
g64
(dp4608
sg73
g4602
sg66
(lp4609
g59
(g60
g61
NtRp4610
(dp4611
g64
(dp4612
g72
I1
ssg73
g4606
sg66
(lp4613
(lp4614
(g3710
(S't\x08\x00\x00\x00Download'
tRp4615
I00
S'http://www.web2py.com/examples/default/download'
tp4616
a(g3710
(S't\x07\x00\x00\x00Support'
tRp4617
I00
S'http://www.web2py.com/examples/default/support'
tp4618
a(g3710
(S's\x0e\x00\x00\x00Quick Examples'
tRp4619
I00
S'http://web2py.com/examples/default/examples'
tp4620
a(g3710
(S't\x03\x00\x00\x00FAQ'
tRp4621
I00
S'http://web2py.com/AlterEgo'
tp4622
a(g3710
(S's\x11\x00\x00\x00Free Applications'
tRp4623
I00
S'http://web2py.com/appliances'
tp4624
a(g3710
(S't\x07\x00\x00\x00Plugins'
tRp4625
I00
S'http://web2py.com/plugins'
tp4626
a(g3710
(S't\x07\x00\x00\x00Recipes'
tRp4627
I00
S'http://web2pyslices.com/'
tp4628
a(g3710
(S't\x04\x00\x00\x00Demo'
tRp4629
I00
S'http://web2py.com/demo_admin'
tp4630
a(g3710
(S't\x08\x00\x00\x00Semantic'
tRp4631
I00
S'http://web2py.com/semantic'
tp4632
a(g3710
(S't\x07\x00\x00\x00Layouts'
tRp4633
I00
S'http://web2py.com/layouts'
tp4634
a(g3710
(S't\x06\x00\x00\x00Videos'
tRp4635
I00
S'http://www.web2py.com/examples/default/videos/'
tp4636
aasbasbasbasbasbasbasbasbasbasbasbasbasbasbasbasbasbasbasbag59
(g75
g61
NtRp4637
(dp4638
g64
(dp4639
sg73
g3237
sg66
(lp4640
g59
(g80
g61
NtRp4641
(dp4642
g64
(dp4643
g84
g85
ssg73
g4637
sg66
(lp4644
S'meta'
p4645
asbag59
(g80
g61
NtRp4646
(dp4647
g64
(dp4648
g91
g92
ssg73
g4637
sg66
(lp4649
S':'
asbag59
(g80
g61
NtRp4650
(dp4651
g64
(dp4652
sg73
g4637
sg66
(lp4653
g59
(g60
g61
NtRp4654
(dp4655
g64
(dp4656
g72
I5
ssg73
g4650
sg66
(lp4657
g59
(g68
g61
NtRp4658
(dp4659
g64
(dp4660
g72
I4
ssg73
Nsg66
(lp4661
g59
(g75
g61
NtRp4662
(dp4663
g64
(dp4664
sg73
g4658
sg66
(lp4665
g59
(g80
g61
NtRp4666
(dp4667
g64
(dp4668
g84
g85
ssg73
g4662
sg66
(lp4669
S'author'
p4670
asbag59
(g80
g61
NtRp4671
(dp4672
g64
(dp4673
g91
g92
ssg73
g4662
sg66
(lp4674
S':'
asbag59
(g80
g61
NtRp4675
(dp4676
g64
(dp4677
sg73
g4662
sg66
(lp4678
g59
(g60
g61
NtRp4679
(dp4680
g64
(dp4681
g72
I4
ssg73
g4675
sg66
(lp4682
S'you'
p4683
asbasbasbag59
(g75
g61
NtRp4684
(dp4685
g64
(dp4686
sg73
g4658
sg66
(lp4687
g59
(g80
g61
NtRp4688
(dp4689
g64
(dp4690
g84
g85
ssg73
g4684
sg66
(lp4691
S'copyright'
p4692
asbag59
(g80
g61
NtRp4693
(dp4694
g64
(dp4695
g91
g92
ssg73
g4684
sg66
(lp4696
S':'
asbag59
(g80
g61
NtRp4697
(dp4698
g64
(dp4699
sg73
g4684
sg66
(lp4700
g59
(g60
g61
NtRp4701
(dp4702
g64
(dp4703
g72
I4
ssg73
g4697
sg66
(lp4704
S'Copyright 2007-2010'
p4705
asbasbasbag59
(g75
g61
NtRp4706
(dp4707
g64
(dp4708
sg73
g4658
sg66
(lp4709
g59
(g80
g61
NtRp4710
(dp4711
g64
(dp4712
g84
g85
ssg73
g4706
sg66
(lp4713
S'description'
p4714
asbag59
(g80
g61
NtRp4715
(dp4716
g64
(dp4717
g91
g92
ssg73
g4706
sg66
(lp4718
S':'
asbag59
(g80
g61
NtRp4719
(dp4720
g64
(dp4721
sg73
g4706
sg66
(lp4722
g59
(g60
g61
NtRp4723
(dp4724
g64
(dp4725
g72
I4
ssg73
g4719
sg66
(lp4726
S'Free and open source full-stack enterprise framework for agile development of fast, scalable, secure and portable database-driven web-based applications. Written and programmable in Python'
p4727
asbasbasbag59
(g75
g61
NtRp4728
(dp4729
g64
(dp4730
sg73
g4658
sg66
(lp4731
g59
(g80
g61
NtRp4732
(dp4733
g64
(dp4734
g84
g85
ssg73
g4728
sg66
(lp4735
S'generator'
p4736
asbag59
(g80
g61
NtRp4737
(dp4738
g64
(dp4739
g91
g92
ssg73
g4728
sg66
(lp4740
S':'
asbag59
(g80
g61
NtRp4741
(dp4742
g64
(dp4743
sg73
g4728
sg66
(lp4744
g59
(g60
g61
NtRp4745
(dp4746
g64
(dp4747
g72
I4
ssg73
g4741
sg66
(lp4748
S'Web2py Enterprise Framework'
p4749
asbasbasbag59
(g75
g61
NtRp4750
(dp4751
g64
(dp4752
sg73
g4658
sg66
(lp4753
g59
(g80
g61
NtRp4754
(dp4755
g64
(dp4756
g84
g85
ssg73
g4750
sg66
(lp4757
S'keywords'
p4758
asbag59
(g80
g61
NtRp4759
(dp4760
g64
(dp4761
g91
g92
ssg73
g4750
sg66
(lp4762
S':'
asbag59
(g80
g61
NtRp4763
(dp4764
g64
(dp4765
sg73
g4750
sg66
(lp4766
g59
(g60
g61
NtRp4767
(dp4768
g64
(dp4769
g72
I4
ssg73
g4763
sg66
(lp4770
S'web2py, python, framework'
p4771
asbasbasbasbasbasbasbag59
(g75
g61
NtRp4772
(dp4773
g64
(dp4774
sg73
g3237
sg66
(lp4775
g59
(g80
g61
NtRp4776
(dp4777
g64
(dp4778
g84
g85
ssg73
g4772
sg66
(lp4779
S'postprocessing'
p4780
asbag59
(g80
g61
NtRp4781
(dp4782
g64
(dp4783
g91
g92
ssg73
g4772
sg66
(lp4784
S':'
asbag59
(g80
g61
NtRp4785
(dp4786
g64
(dp4787
sg73
g4772
sg66
(lp4788
g59
(g60
g61
NtRp4789
(dp4790
g64
(dp4791
g72
I5
ssg73
g4785
sg66
(lp4792
g59
(g68
g61
NtRp4793
(dp4794
g64
(dp4795
g72
I4
ssg73
Nsg66
(lp4796
sbasbasbasbag59
(g75
g61
NtRp4797
(dp4798
g64
(dp4799
sg73
g3237
sg66
(lp4800
g59
(g80
g61
NtRp4801
(dp4802
g64
(dp4803
g84
g85
ssg73
g4797
sg66
(lp4804
S'session_file'
p4805
asbag59
(g80
g61
NtRp4806
(dp4807
g64
(dp4808
g91
g92
ssg73
g4797
sg66
(lp4809
S':'
asbag59
(g80
g61
NtRp4810
(dp4811
g64
(dp4812
sg73
g4797
sg66
(lp4813
g59
(g60
g61
NtRp4814
(dp4815
g64
(dp4816
g72
I5
ssg73
g4810
sg66
(lp4817
S"<open file 'C:\\Users\\Atomico\\web2py\\applications\\Desglosar_Emails\\sessions\\127.0.0.1-0a11b3b2-660c-433c-b71f-fc129286f26c', mode 'rb+' at 0x07639848>"
p4818
asbasbasbag59
(g75
g61
NtRp4819
(dp4820
g64
(dp4821
sg73
g3237
sg66
(lp4822
g59
(g80
g61
NtRp4823
(dp4824
g64
(dp4825
g84
g85
ssg73
g4819
sg66
(lp4826
S'session_filename'
p4827
asbag59
(g80
g61
NtRp4828
(dp4829
g64
(dp4830
g91
g92
ssg73
g4819
sg66
(lp4831
S':'
asbag59
(g80
g61
NtRp4832
(dp4833
g64
(dp4834
sg73
g4819
sg66
(lp4835
g59
(g60
g61
NtRp4836
(dp4837
g64
(dp4838
g72
I5
ssg73
g4832
sg66
(lp4839
S'C:\\Users\\Atomico\\web2py\\applications\\Desglosar_Emails\\sessions\\127.0.0.1-0a11b3b2-660c-433c-b71f-fc129286f26c'
p4840
asbasbasbag59
(g75
g61
NtRp4841
(dp4842
g64
(dp4843
sg73
g3237
sg66
(lp4844
g59
(g80
g61
NtRp4845
(dp4846
g64
(dp4847
g84
g85
ssg73
g4841
sg66
(lp4848
S'session_id'
p4849
asbag59
(g80
g61
NtRp4850
(dp4851
g64
(dp4852
g91
g92
ssg73
g4841
sg66
(lp4853
S':'
asbag59
(g80
g61
NtRp4854
(dp4855
g64
(dp4856
sg73
g4841
sg66
(lp4857
g59
(g60
g61
NtRp4858
(dp4859
g64
(dp4860
g72
I5
ssg73
g4854
sg66
(lp4861
S'127.0.0.1-0a11b3b2-660c-433c-b71f-fc129286f26c'
p4862
asbasbasbag59
(g75
g61
NtRp4863
(dp4864
g64
(dp4865
sg73
g3237
sg66
(lp4866
g59
(g80
g61
NtRp4867
(dp4868
g64
(dp4869
g84
g85
ssg73
g4863
sg66
(lp4870
S'session_id_name'
p4871
asbag59
(g80
g61
NtRp4872
(dp4873
g64
(dp4874
g91
g92
ssg73
g4863
sg66
(lp4875
S':'
asbag59
(g80
g61
NtRp4876
(dp4877
g64
(dp4878
sg73
g4863
sg66
(lp4879
g59
(g60
g61
NtRp4880
(dp4881
g64
(dp4882
g72
I5
ssg73
g4876
sg66
(lp4883
g3294
asbasbasbag59
(g75
g61
NtRp4884
(dp4885
g64
(dp4886
sg73
g3237
sg66
(lp4887
g59
(g80
g61
NtRp4888
(dp4889
g64
(dp4890
g84
g85
ssg73
g4884
sg66
(lp4891
S'session_locked'
p4892
asbag59
(g80
g61
NtRp4893
(dp4894
g64
(dp4895
g91
g92
ssg73
g4884
sg66
(lp4896
S':'
asbag59
(g80
g61
NtRp4897
(dp4898
g64
(dp4899
sg73
g4884
sg66
(lp4900
g59
(g60
g61
NtRp4901
(dp4902
g64
(dp4903
g72
I5
ssg73
g4897
sg66
(lp4904
g2192
asbasbasbag59
(g75
g61
NtRp4905
(dp4906
g64
(dp4907
sg73
g3237
sg66
(lp4908
g59
(g80
g61
NtRp4909
(dp4910
g64
(dp4911
g84
g85
ssg73
g4905
sg66
(lp4912
S'session_new'
p4913
asbag59
(g80
g61
NtRp4914
(dp4915
g64
(dp4916
g91
g92
ssg73
g4905
sg66
(lp4917
S':'
asbag59
(g80
g61
NtRp4918
(dp4919
g64
(dp4920
sg73
g4905
sg66
(lp4921
g59
(g60
g61
NtRp4922
(dp4923
g64
(dp4924
g72
I5
ssg73
g4918
sg66
(lp4925
g102
asbasbasbag59
(g75
g61
NtRp4926
(dp4927
g64
(dp4928
sg73
g3237
sg66
(lp4929
g59
(g80
g61
NtRp4930
(dp4931
g64
(dp4932
g84
g85
ssg73
g4926
sg66
(lp4933
S'status'
p4934
asbag59
(g80
g61
NtRp4935
(dp4936
g64
(dp4937
g91
g92
ssg73
g4926
sg66
(lp4938
S':'
asbag59
(g80
g61
NtRp4939
(dp4940
g64
(dp4941
sg73
g4926
sg66
(lp4942
g59
(g60
g61
NtRp4943
(dp4944
g64
(dp4945
g72
I5
ssg73
g4939
sg66
(lp4946
S'200'
p4947
asbasbasbag59
(g75
g61
NtRp4948
(dp4949
g64
(dp4950
sg73
g3237
sg66
(lp4951
g59
(g80
g61
NtRp4952
(dp4953
g64
(dp4954
g84
g85
ssg73
g4948
sg66
(lp4955
S'subtitle'
p4956
asbag59
(g80
g61
NtRp4957
(dp4958
g64
(dp4959
g91
g92
ssg73
g4948
sg66
(lp4960
S':'
asbag59
(g80
g61
NtRp4961
(dp4962
g64
(dp4963
sg73
g4948
sg66
(lp4964
g59
(g60
g61
NtRp4965
(dp4966
g64
(dp4967
g72
I5
ssg73
g4961
sg66
(lp4968
g3710
(S's\t\x00\x00\x00Adaptame!'
tRp4969
asbasbasbag59
(g75
g61
NtRp4970
(dp4971
g64
(dp4972
sg73
g3237
sg66
(lp4973
g59
(g80
g61
NtRp4974
(dp4975
g64
(dp4976
g84
g85
ssg73
g4970
sg66
(lp4977
S'title'
p4978
asbag59
(g80
g61
NtRp4979
(dp4980
g64
(dp4981
g91
g92
ssg73
g4970
sg66
(lp4982
S':'
asbag59
(g80
g61
NtRp4983
(dp4984
g64
(dp4985
sg73
g4970
sg66
(lp4986
g59
(g60
g61
NtRp4987
(dp4988
g64
(dp4989
g72
I5
ssg73
g4983
sg66
(lp4990
g124
asbasbasbag59
(g75
g61
NtRp4991
(dp4992
g64
(dp4993
sg73
g3237
sg66
(lp4994
g59
(g80
g61
NtRp4995
(dp4996
g64
(dp4997
g84
g85
ssg73
g4991
sg66
(lp4998
g2516
asbag59
(g80
g61
NtRp4999
(dp5000
g64
(dp5001
g91
g92
ssg73
g4991
sg66
(lp5002
S':'
asbag59
(g80
g61
NtRp5003
(dp5004
g64
(dp5005
sg73
g4991
sg66
(lp5006
g59
(g60
g61
NtRp5007
(dp5008
g64
(dp5009
g72
I5
ssg73
g5003
sg66
(lp5010
g2529
asbasbasbag59
(g75
g61
NtRp5011
(dp5012
g64
(dp5013
sg73
g3237
sg66
(lp5014
g59
(g80
g61
NtRp5015
(dp5016
g64
(dp5017
g84
g85
ssg73
g5011
sg66
(lp5018
S'view'
p5019
asbag59
(g80
g61
NtRp5020
(dp5021
g64
(dp5022
g91
g92
ssg73
g5011
sg66
(lp5023
S':'
asbag59
(g80
g61
NtRp5024
(dp5025
g64
(dp5026
sg73
g5011
sg66
(lp5027
g59
(g60
g61
NtRp5028
(dp5029
g64
(dp5030
g72
I5
ssg73
g5024
sg66
(lp5031
S'default/entrada_mod2.html'
p5032
asbasbasbasbasbsS'locals'
p5033
(dp5034
g3
S"r'C:\\Users\\Atomico\\web2py\\applications\\Desglosar_Emails\\views\\default/entrada_mod2.html'"
p5035
sg5
S'\'response.write(\\\'<!DOCTYPE html>\\\\n<html lang="\\\', ...t   -->    \\\\n  </body>\\\\n</html>\\\\n\\\', escape=False)\''
p5036
sssS'traceback'
p5037
S'Traceback (most recent call last):\n  File "gluon/restricted.py", line 191, in restricted\n  File "gluon/restricted.py", line 178, in compile2\n  File "C:\\Users\\Atomico\\web2py\\applications\\Desglosar_Emails\\views\\default/entrada_mod2.html", line 112\n    <br/>\n    ^\nSyntaxError: invalid syntax\n'
p5038
s.