(dp1
S'output'
p2
S''
sS'layer'
p3
S'C:\\Users\\Atomico\\web2py\\applications\\Desglosar_Emails\\controllers/default.py'
p4
sS'code'
p5
S"def entrada_mod3():\n    form=SQLFORM(db.info4)\n    if form.accepts(request.vars,session):pass\n    \n    return dict(form=form)\n   \ndef borrardb():\n    db.contactos.truncate()\n    db.info4.truncate()\n    \n    return dict(cad='Cagada pastoret')\n    \ndef relaciones():\n    form=FORM(INPUT(_name='argumentos',notnull=True),\n              INPUT(_type='submit'))\n    if form.accepts(request.vars,session):\n        session.argumentos=form.vars.argumentos\n        \n    form2=FORM(INPUT(_name='texto'),\n               INPUT(_type='submit'))\n    if form2.accepts(request.vars,session):\n        texto=form2.vars.texto\n        \n    return dict(cad='Que si',form=form,form2=form2,texto=texto)\n\nresponse._vars=response._caller(relaciones)\n"
p6
sS'snapshot'
p7
(dp8
S'exception'
p9
(dp10
S'__hash__'
p11
S"<method-wrapper '__hash__' of exceptions.UnboundLocalError object at 0x079CD3A0>"
p12
sS'__setattr__'
p13
S"<method-wrapper '__setattr__' of exceptions.UnboundLocalError object at 0x079CD3A0>"
p14
sS'__reduce_ex__'
p15
S'<built-in method __reduce_ex__ of exceptions.UnboundLocalError object at 0x079CD3A0>'
p16
sS'__getslice__'
p17
S"<method-wrapper '__getslice__' of exceptions.UnboundLocalError object at 0x079CD3A0>"
p18
sS'__getitem__'
p19
S"<method-wrapper '__getitem__' of exceptions.UnboundLocalError object at 0x079CD3A0>"
p20
sS'__setstate__'
p21
S'<built-in method __setstate__ of exceptions.UnboundLocalError object at 0x079CD3A0>'
p22
sS'__reduce__'
p23
S'<built-in method __reduce__ of exceptions.UnboundLocalError object at 0x079CD3A0>'
p24
sS'__str__'
p25
S"<method-wrapper '__str__' of exceptions.UnboundLocalError object at 0x079CD3A0>"
p26
sS'args'
p27
S'("local variable \'texto\' referenced before assignment",)'
p28
sS'__getattribute__'
p29
S"<method-wrapper '__getattribute__' of exceptions.UnboundLocalError object at 0x079CD3A0>"
p30
sS'__class__'
p31
S"<type 'exceptions.UnboundLocalError'>"
p32
sS'__delattr__'
p33
S"<method-wrapper '__delattr__' of exceptions.UnboundLocalError object at 0x079CD3A0>"
p34
sS'__repr__'
p35
S"<method-wrapper '__repr__' of exceptions.UnboundLocalError object at 0x079CD3A0>"
p36
sS'__dict__'
p37
S'{}'
p38
sS'__doc__'
p39
S"'Local name referenced but not bound to a value.'"
p40
sS'__init__'
p41
S"<method-wrapper '__init__' of exceptions.UnboundLocalError object at 0x079CD3A0>"
p42
sS'__new__'
p43
S'<built-in method __new__ of type object at 0x1E1CD9A0>'
p44
ssS'evalue'
p45
S"local variable 'texto' referenced before assignment"
p46
sS'request'
p47
ccopy_reg
_reconstructor
p48
(cgluon.html
BEAUTIFY
p49
c__builtin__
object
p50
NtRp51
(dp52
S'attributes'
p53
(dp54
sS'components'
p55
(lp56
g48
(cgluon.html
TABLE
p57
g50
NtRp58
(dp59
g53
(dp60
S'level'
p61
I5
ssS'parent'
p62
Nsg55
(lp63
g48
(cgluon.html
TR
p64
g50
NtRp65
(dp66
g53
(dp67
sg62
g58
sg55
(lp68
g48
(cgluon.html
TD
p69
g50
NtRp70
(dp71
g53
(dp72
S'_style'
p73
S'font-weight:bold;'
p74
ssg62
g65
sg55
(lp75
S'ajax'
p76
asbag48
(g69
g50
NtRp77
(dp78
g53
(dp79
S'_valign'
p80
S'top'
p81
ssg62
g65
sg55
(lp82
S':'
asbag48
(g69
g50
NtRp83
(dp84
g53
(dp85
sg62
g65
sg55
(lp86
g48
(g49
g50
NtRp87
(dp88
g53
(dp89
g61
I5
ssg62
g83
sg55
(lp90
S'False'
p91
asbasbasbag48
(g64
g50
NtRp92
(dp93
g53
(dp94
sg62
g58
sg55
(lp95
g48
(g69
g50
NtRp96
(dp97
g53
(dp98
g73
g74
ssg62
g92
sg55
(lp99
S'application'
p100
asbag48
(g69
g50
NtRp101
(dp102
g53
(dp103
g80
g81
ssg62
g92
sg55
(lp104
S':'
asbag48
(g69
g50
NtRp105
(dp106
g53
(dp107
sg62
g92
sg55
(lp108
g48
(g49
g50
NtRp109
(dp110
g53
(dp111
g61
I5
ssg62
g105
sg55
(lp112
S'Desglosar_Emails'
p113
asbasbasbag48
(g64
g50
NtRp114
(dp115
g53
(dp116
sg62
g58
sg55
(lp117
g48
(g69
g50
NtRp118
(dp119
g53
(dp120
g73
g74
ssg62
g114
sg55
(lp121
g27
asbag48
(g69
g50
NtRp122
(dp123
g53
(dp124
g80
g81
ssg62
g114
sg55
(lp125
S':'
asbag48
(g69
g50
NtRp126
(dp127
g53
(dp128
sg62
g114
sg55
(lp129
g48
(g49
g50
NtRp130
(dp131
g53
(dp132
g61
I5
ssg62
g126
sg55
(lp133
g48
(g57
g50
NtRp134
(dp135
g53
(dp136
g61
I4
ssg62
Nsg55
(lp137
sbasbasbasbag48
(g64
g50
NtRp138
(dp139
g53
(dp140
sg62
g58
sg55
(lp141
g48
(g69
g50
NtRp142
(dp143
g53
(dp144
g73
g74
ssg62
g138
sg55
(lp145
S'body'
p146
asbag48
(g69
g50
NtRp147
(dp148
g53
(dp149
g80
g81
ssg62
g138
sg55
(lp150
S':'
asbag48
(g69
g50
NtRp151
(dp152
g53
(dp153
sg62
g138
sg55
(lp154
g48
(g49
g50
NtRp155
(dp156
g53
(dp157
g61
I5
ssg62
g151
sg55
(lp158
S'<cStringIO.StringO object at 0x07B39440>'
p159
asbasbasbag48
(g64
g50
NtRp160
(dp161
g53
(dp162
sg62
g58
sg55
(lp163
g48
(g69
g50
NtRp164
(dp165
g53
(dp166
g73
g74
ssg62
g160
sg55
(lp167
S'client'
p168
asbag48
(g69
g50
NtRp169
(dp170
g53
(dp171
g80
g81
ssg62
g160
sg55
(lp172
S':'
asbag48
(g69
g50
NtRp173
(dp174
g53
(dp175
sg62
g160
sg55
(lp176
g48
(g49
g50
NtRp177
(dp178
g53
(dp179
g61
I5
ssg62
g173
sg55
(lp180
S'127.0.0.1'
p181
asbasbasbag48
(g64
g50
NtRp182
(dp183
g53
(dp184
sg62
g58
sg55
(lp185
g48
(g69
g50
NtRp186
(dp187
g53
(dp188
g73
g74
ssg62
g182
sg55
(lp189
S'controller'
p190
asbag48
(g69
g50
NtRp191
(dp192
g53
(dp193
g80
g81
ssg62
g182
sg55
(lp194
S':'
asbag48
(g69
g50
NtRp195
(dp196
g53
(dp197
sg62
g182
sg55
(lp198
g48
(g49
g50
NtRp199
(dp200
g53
(dp201
g61
I5
ssg62
g195
sg55
(lp202
S'default'
p203
asbasbasbag48
(g64
g50
NtRp204
(dp205
g53
(dp206
sg62
g58
sg55
(lp207
g48
(g69
g50
NtRp208
(dp209
g53
(dp210
g73
g74
ssg62
g204
sg55
(lp211
S'cookies'
p212
asbag48
(g69
g50
NtRp213
(dp214
g53
(dp215
g80
g81
ssg62
g204
sg55
(lp216
S':'
asbag48
(g69
g50
NtRp217
(dp218
g53
(dp219
sg62
g204
sg55
(lp220
g48
(g49
g50
NtRp221
(dp222
g53
(dp223
g61
I5
ssg62
g217
sg55
(lp224
g48
(g57
g50
NtRp225
(dp226
g53
(dp227
g61
I4
ssg62
Nsg55
(lp228
g48
(g64
g50
NtRp229
(dp230
g53
(dp231
sg62
g225
sg55
(lp232
g48
(g69
g50
NtRp233
(dp234
g53
(dp235
g73
g74
ssg62
g229
sg55
(lp236
S'session_id_admin'
p237
asbag48
(g69
g50
NtRp238
(dp239
g53
(dp240
g80
g81
ssg62
g229
sg55
(lp241
S':'
asbag48
(g69
g50
NtRp242
(dp243
g53
(dp244
sg62
g229
sg55
(lp245
g48
(g49
g50
NtRp246
(dp247
g53
(dp248
g61
I4
ssg62
g242
sg55
(lp249
g48
(g57
g50
NtRp250
(dp251
g53
(dp252
g61
I3
ssg62
Nsg55
(lp253
g48
(g64
g50
NtRp254
(dp255
g53
(dp256
sg62
g250
sg55
(lp257
g48
(g69
g50
NtRp258
(dp259
g53
(dp260
g73
g74
ssg62
g254
sg55
(lp261
S'comment'
p262
asbag48
(g69
g50
NtRp263
(dp264
g53
(dp265
g80
g81
ssg62
g254
sg55
(lp266
S':'
asbag48
(g69
g50
NtRp267
(dp268
g53
(dp269
sg62
g254
sg55
(lp270
g48
(g49
g50
NtRp271
(dp272
g53
(dp273
g61
I3
ssg62
g267
sg55
(lp274
S''
asbasbasbag48
(g64
g50
NtRp275
(dp276
g53
(dp277
sg62
g250
sg55
(lp278
g48
(g69
g50
NtRp279
(dp280
g53
(dp281
g73
g74
ssg62
g275
sg55
(lp282
S'domain'
p283
asbag48
(g69
g50
NtRp284
(dp285
g53
(dp286
g80
g81
ssg62
g275
sg55
(lp287
S':'
asbag48
(g69
g50
NtRp288
(dp289
g53
(dp290
sg62
g275
sg55
(lp291
g48
(g49
g50
NtRp292
(dp293
g53
(dp294
g61
I3
ssg62
g288
sg55
(lp295
S''
asbasbasbag48
(g64
g50
NtRp296
(dp297
g53
(dp298
sg62
g250
sg55
(lp299
g48
(g69
g50
NtRp300
(dp301
g53
(dp302
g73
g74
ssg62
g296
sg55
(lp303
S'expires'
p304
asbag48
(g69
g50
NtRp305
(dp306
g53
(dp307
g80
g81
ssg62
g296
sg55
(lp308
S':'
asbag48
(g69
g50
NtRp309
(dp310
g53
(dp311
sg62
g296
sg55
(lp312
g48
(g49
g50
NtRp313
(dp314
g53
(dp315
g61
I3
ssg62
g309
sg55
(lp316
S''
asbasbasbag48
(g64
g50
NtRp317
(dp318
g53
(dp319
sg62
g250
sg55
(lp320
g48
(g69
g50
NtRp321
(dp322
g53
(dp323
g73
g74
ssg62
g317
sg55
(lp324
S'max-age'
p325
asbag48
(g69
g50
NtRp326
(dp327
g53
(dp328
g80
g81
ssg62
g317
sg55
(lp329
S':'
asbag48
(g69
g50
NtRp330
(dp331
g53
(dp332
sg62
g317
sg55
(lp333
g48
(g49
g50
NtRp334
(dp335
g53
(dp336
g61
I3
ssg62
g330
sg55
(lp337
S''
asbasbasbag48
(g64
g50
NtRp338
(dp339
g53
(dp340
sg62
g250
sg55
(lp341
g48
(g69
g50
NtRp342
(dp343
g53
(dp344
g73
g74
ssg62
g338
sg55
(lp345
S'path'
p346
asbag48
(g69
g50
NtRp347
(dp348
g53
(dp349
g80
g81
ssg62
g338
sg55
(lp350
S':'
asbag48
(g69
g50
NtRp351
(dp352
g53
(dp353
sg62
g338
sg55
(lp354
g48
(g49
g50
NtRp355
(dp356
g53
(dp357
g61
I3
ssg62
g351
sg55
(lp358
S''
asbasbasbag48
(g64
g50
NtRp359
(dp360
g53
(dp361
sg62
g250
sg55
(lp362
g48
(g69
g50
NtRp363
(dp364
g53
(dp365
g73
g74
ssg62
g359
sg55
(lp366
S'secure'
p367
asbag48
(g69
g50
NtRp368
(dp369
g53
(dp370
g80
g81
ssg62
g359
sg55
(lp371
S':'
asbag48
(g69
g50
NtRp372
(dp373
g53
(dp374
sg62
g359
sg55
(lp375
g48
(g49
g50
NtRp376
(dp377
g53
(dp378
g61
I3
ssg62
g372
sg55
(lp379
S''
asbasbasbag48
(g64
g50
NtRp380
(dp381
g53
(dp382
sg62
g250
sg55
(lp383
g48
(g69
g50
NtRp384
(dp385
g53
(dp386
g73
g74
ssg62
g380
sg55
(lp387
S'version'
p388
asbag48
(g69
g50
NtRp389
(dp390
g53
(dp391
g80
g81
ssg62
g380
sg55
(lp392
S':'
asbag48
(g69
g50
NtRp393
(dp394
g53
(dp395
sg62
g380
sg55
(lp396
g48
(g49
g50
NtRp397
(dp398
g53
(dp399
g61
I3
ssg62
g393
sg55
(lp400
S''
asbasbasbasbasbasbasbag48
(g64
g50
NtRp401
(dp402
g53
(dp403
sg62
g225
sg55
(lp404
g48
(g69
g50
NtRp405
(dp406
g53
(dp407
g73
g74
ssg62
g401
sg55
(lp408
S'session_id_borrar2'
p409
asbag48
(g69
g50
NtRp410
(dp411
g53
(dp412
g80
g81
ssg62
g401
sg55
(lp413
S':'
asbag48
(g69
g50
NtRp414
(dp415
g53
(dp416
sg62
g401
sg55
(lp417
g48
(g49
g50
NtRp418
(dp419
g53
(dp420
g61
I4
ssg62
g414
sg55
(lp421
g48
(g57
g50
NtRp422
(dp423
g53
(dp424
g61
I3
ssg62
Nsg55
(lp425
g48
(g64
g50
NtRp426
(dp427
g53
(dp428
sg62
g422
sg55
(lp429
g48
(g69
g50
NtRp430
(dp431
g53
(dp432
g73
g74
ssg62
g426
sg55
(lp433
g262
asbag48
(g69
g50
NtRp434
(dp435
g53
(dp436
g80
g81
ssg62
g426
sg55
(lp437
S':'
asbag48
(g69
g50
NtRp438
(dp439
g53
(dp440
sg62
g426
sg55
(lp441
g48
(g49
g50
NtRp442
(dp443
g53
(dp444
g61
I3
ssg62
g438
sg55
(lp445
S''
asbasbasbag48
(g64
g50
NtRp446
(dp447
g53
(dp448
sg62
g422
sg55
(lp449
g48
(g69
g50
NtRp450
(dp451
g53
(dp452
g73
g74
ssg62
g446
sg55
(lp453
g283
asbag48
(g69
g50
NtRp454
(dp455
g53
(dp456
g80
g81
ssg62
g446
sg55
(lp457
S':'
asbag48
(g69
g50
NtRp458
(dp459
g53
(dp460
sg62
g446
sg55
(lp461
g48
(g49
g50
NtRp462
(dp463
g53
(dp464
g61
I3
ssg62
g458
sg55
(lp465
S''
asbasbasbag48
(g64
g50
NtRp466
(dp467
g53
(dp468
sg62
g422
sg55
(lp469
g48
(g69
g50
NtRp470
(dp471
g53
(dp472
g73
g74
ssg62
g466
sg55
(lp473
g304
asbag48
(g69
g50
NtRp474
(dp475
g53
(dp476
g80
g81
ssg62
g466
sg55
(lp477
S':'
asbag48
(g69
g50
NtRp478
(dp479
g53
(dp480
sg62
g466
sg55
(lp481
g48
(g49
g50
NtRp482
(dp483
g53
(dp484
g61
I3
ssg62
g478
sg55
(lp485
S''
asbasbasbag48
(g64
g50
NtRp486
(dp487
g53
(dp488
sg62
g422
sg55
(lp489
g48
(g69
g50
NtRp490
(dp491
g53
(dp492
g73
g74
ssg62
g486
sg55
(lp493
g325
asbag48
(g69
g50
NtRp494
(dp495
g53
(dp496
g80
g81
ssg62
g486
sg55
(lp497
S':'
asbag48
(g69
g50
NtRp498
(dp499
g53
(dp500
sg62
g486
sg55
(lp501
g48
(g49
g50
NtRp502
(dp503
g53
(dp504
g61
I3
ssg62
g498
sg55
(lp505
S''
asbasbasbag48
(g64
g50
NtRp506
(dp507
g53
(dp508
sg62
g422
sg55
(lp509
g48
(g69
g50
NtRp510
(dp511
g53
(dp512
g73
g74
ssg62
g506
sg55
(lp513
g346
asbag48
(g69
g50
NtRp514
(dp515
g53
(dp516
g80
g81
ssg62
g506
sg55
(lp517
S':'
asbag48
(g69
g50
NtRp518
(dp519
g53
(dp520
sg62
g506
sg55
(lp521
g48
(g49
g50
NtRp522
(dp523
g53
(dp524
g61
I3
ssg62
g518
sg55
(lp525
S''
asbasbasbag48
(g64
g50
NtRp526
(dp527
g53
(dp528
sg62
g422
sg55
(lp529
g48
(g69
g50
NtRp530
(dp531
g53
(dp532
g73
g74
ssg62
g526
sg55
(lp533
g367
asbag48
(g69
g50
NtRp534
(dp535
g53
(dp536
g80
g81
ssg62
g526
sg55
(lp537
S':'
asbag48
(g69
g50
NtRp538
(dp539
g53
(dp540
sg62
g526
sg55
(lp541
g48
(g49
g50
NtRp542
(dp543
g53
(dp544
g61
I3
ssg62
g538
sg55
(lp545
S''
asbasbasbag48
(g64
g50
NtRp546
(dp547
g53
(dp548
sg62
g422
sg55
(lp549
g48
(g69
g50
NtRp550
(dp551
g53
(dp552
g73
g74
ssg62
g546
sg55
(lp553
g388
asbag48
(g69
g50
NtRp554
(dp555
g53
(dp556
g80
g81
ssg62
g546
sg55
(lp557
S':'
asbag48
(g69
g50
NtRp558
(dp559
g53
(dp560
sg62
g546
sg55
(lp561
g48
(g49
g50
NtRp562
(dp563
g53
(dp564
g61
I3
ssg62
g558
sg55
(lp565
S''
asbasbasbasbasbasbasbag48
(g64
g50
NtRp566
(dp567
g53
(dp568
sg62
g225
sg55
(lp569
g48
(g69
g50
NtRp570
(dp571
g53
(dp572
g73
g74
ssg62
g566
sg55
(lp573
S'session_id_desglosar_emails'
p574
asbag48
(g69
g50
NtRp575
(dp576
g53
(dp577
g80
g81
ssg62
g566
sg55
(lp578
S':'
asbag48
(g69
g50
NtRp579
(dp580
g53
(dp581
sg62
g566
sg55
(lp582
g48
(g49
g50
NtRp583
(dp584
g53
(dp585
g61
I4
ssg62
g579
sg55
(lp586
g48
(g57
g50
NtRp587
(dp588
g53
(dp589
g61
I3
ssg62
Nsg55
(lp590
g48
(g64
g50
NtRp591
(dp592
g53
(dp593
sg62
g587
sg55
(lp594
g48
(g69
g50
NtRp595
(dp596
g53
(dp597
g73
g74
ssg62
g591
sg55
(lp598
g262
asbag48
(g69
g50
NtRp599
(dp600
g53
(dp601
g80
g81
ssg62
g591
sg55
(lp602
S':'
asbag48
(g69
g50
NtRp603
(dp604
g53
(dp605
sg62
g591
sg55
(lp606
g48
(g49
g50
NtRp607
(dp608
g53
(dp609
g61
I3
ssg62
g603
sg55
(lp610
S''
asbasbasbag48
(g64
g50
NtRp611
(dp612
g53
(dp613
sg62
g587
sg55
(lp614
g48
(g69
g50
NtRp615
(dp616
g53
(dp617
g73
g74
ssg62
g611
sg55
(lp618
g283
asbag48
(g69
g50
NtRp619
(dp620
g53
(dp621
g80
g81
ssg62
g611
sg55
(lp622
S':'
asbag48
(g69
g50
NtRp623
(dp624
g53
(dp625
sg62
g611
sg55
(lp626
g48
(g49
g50
NtRp627
(dp628
g53
(dp629
g61
I3
ssg62
g623
sg55
(lp630
S''
asbasbasbag48
(g64
g50
NtRp631
(dp632
g53
(dp633
sg62
g587
sg55
(lp634
g48
(g69
g50
NtRp635
(dp636
g53
(dp637
g73
g74
ssg62
g631
sg55
(lp638
g304
asbag48
(g69
g50
NtRp639
(dp640
g53
(dp641
g80
g81
ssg62
g631
sg55
(lp642
S':'
asbag48
(g69
g50
NtRp643
(dp644
g53
(dp645
sg62
g631
sg55
(lp646
g48
(g49
g50
NtRp647
(dp648
g53
(dp649
g61
I3
ssg62
g643
sg55
(lp650
S''
asbasbasbag48
(g64
g50
NtRp651
(dp652
g53
(dp653
sg62
g587
sg55
(lp654
g48
(g69
g50
NtRp655
(dp656
g53
(dp657
g73
g74
ssg62
g651
sg55
(lp658
g325
asbag48
(g69
g50
NtRp659
(dp660
g53
(dp661
g80
g81
ssg62
g651
sg55
(lp662
S':'
asbag48
(g69
g50
NtRp663
(dp664
g53
(dp665
sg62
g651
sg55
(lp666
g48
(g49
g50
NtRp667
(dp668
g53
(dp669
g61
I3
ssg62
g663
sg55
(lp670
S''
asbasbasbag48
(g64
g50
NtRp671
(dp672
g53
(dp673
sg62
g587
sg55
(lp674
g48
(g69
g50
NtRp675
(dp676
g53
(dp677
g73
g74
ssg62
g671
sg55
(lp678
g346
asbag48
(g69
g50
NtRp679
(dp680
g53
(dp681
g80
g81
ssg62
g671
sg55
(lp682
S':'
asbag48
(g69
g50
NtRp683
(dp684
g53
(dp685
sg62
g671
sg55
(lp686
g48
(g49
g50
NtRp687
(dp688
g53
(dp689
g61
I3
ssg62
g683
sg55
(lp690
S''
asbasbasbag48
(g64
g50
NtRp691
(dp692
g53
(dp693
sg62
g587
sg55
(lp694
g48
(g69
g50
NtRp695
(dp696
g53
(dp697
g73
g74
ssg62
g691
sg55
(lp698
g367
asbag48
(g69
g50
NtRp699
(dp700
g53
(dp701
g80
g81
ssg62
g691
sg55
(lp702
S':'
asbag48
(g69
g50
NtRp703
(dp704
g53
(dp705
sg62
g691
sg55
(lp706
g48
(g49
g50
NtRp707
(dp708
g53
(dp709
g61
I3
ssg62
g703
sg55
(lp710
S''
asbasbasbag48
(g64
g50
NtRp711
(dp712
g53
(dp713
sg62
g587
sg55
(lp714
g48
(g69
g50
NtRp715
(dp716
g53
(dp717
g73
g74
ssg62
g711
sg55
(lp718
g388
asbag48
(g69
g50
NtRp719
(dp720
g53
(dp721
g80
g81
ssg62
g711
sg55
(lp722
S':'
asbag48
(g69
g50
NtRp723
(dp724
g53
(dp725
sg62
g711
sg55
(lp726
g48
(g49
g50
NtRp727
(dp728
g53
(dp729
g61
I3
ssg62
g723
sg55
(lp730
S''
asbasbasbasbasbasbasbag48
(g64
g50
NtRp731
(dp732
g53
(dp733
sg62
g225
sg55
(lp734
g48
(g69
g50
NtRp735
(dp736
g53
(dp737
g73
g74
ssg62
g731
sg55
(lp738
S'session_id_myappjav'
p739
asbag48
(g69
g50
NtRp740
(dp741
g53
(dp742
g80
g81
ssg62
g731
sg55
(lp743
S':'
asbag48
(g69
g50
NtRp744
(dp745
g53
(dp746
sg62
g731
sg55
(lp747
g48
(g49
g50
NtRp748
(dp749
g53
(dp750
g61
I4
ssg62
g744
sg55
(lp751
g48
(g57
g50
NtRp752
(dp753
g53
(dp754
g61
I3
ssg62
Nsg55
(lp755
g48
(g64
g50
NtRp756
(dp757
g53
(dp758
sg62
g752
sg55
(lp759
g48
(g69
g50
NtRp760
(dp761
g53
(dp762
g73
g74
ssg62
g756
sg55
(lp763
g262
asbag48
(g69
g50
NtRp764
(dp765
g53
(dp766
g80
g81
ssg62
g756
sg55
(lp767
S':'
asbag48
(g69
g50
NtRp768
(dp769
g53
(dp770
sg62
g756
sg55
(lp771
g48
(g49
g50
NtRp772
(dp773
g53
(dp774
g61
I3
ssg62
g768
sg55
(lp775
S''
asbasbasbag48
(g64
g50
NtRp776
(dp777
g53
(dp778
sg62
g752
sg55
(lp779
g48
(g69
g50
NtRp780
(dp781
g53
(dp782
g73
g74
ssg62
g776
sg55
(lp783
g283
asbag48
(g69
g50
NtRp784
(dp785
g53
(dp786
g80
g81
ssg62
g776
sg55
(lp787
S':'
asbag48
(g69
g50
NtRp788
(dp789
g53
(dp790
sg62
g776
sg55
(lp791
g48
(g49
g50
NtRp792
(dp793
g53
(dp794
g61
I3
ssg62
g788
sg55
(lp795
S''
asbasbasbag48
(g64
g50
NtRp796
(dp797
g53
(dp798
sg62
g752
sg55
(lp799
g48
(g69
g50
NtRp800
(dp801
g53
(dp802
g73
g74
ssg62
g796
sg55
(lp803
g304
asbag48
(g69
g50
NtRp804
(dp805
g53
(dp806
g80
g81
ssg62
g796
sg55
(lp807
S':'
asbag48
(g69
g50
NtRp808
(dp809
g53
(dp810
sg62
g796
sg55
(lp811
g48
(g49
g50
NtRp812
(dp813
g53
(dp814
g61
I3
ssg62
g808
sg55
(lp815
S''
asbasbasbag48
(g64
g50
NtRp816
(dp817
g53
(dp818
sg62
g752
sg55
(lp819
g48
(g69
g50
NtRp820
(dp821
g53
(dp822
g73
g74
ssg62
g816
sg55
(lp823
g325
asbag48
(g69
g50
NtRp824
(dp825
g53
(dp826
g80
g81
ssg62
g816
sg55
(lp827
S':'
asbag48
(g69
g50
NtRp828
(dp829
g53
(dp830
sg62
g816
sg55
(lp831
g48
(g49
g50
NtRp832
(dp833
g53
(dp834
g61
I3
ssg62
g828
sg55
(lp835
S''
asbasbasbag48
(g64
g50
NtRp836
(dp837
g53
(dp838
sg62
g752
sg55
(lp839
g48
(g69
g50
NtRp840
(dp841
g53
(dp842
g73
g74
ssg62
g836
sg55
(lp843
g346
asbag48
(g69
g50
NtRp844
(dp845
g53
(dp846
g80
g81
ssg62
g836
sg55
(lp847
S':'
asbag48
(g69
g50
NtRp848
(dp849
g53
(dp850
sg62
g836
sg55
(lp851
g48
(g49
g50
NtRp852
(dp853
g53
(dp854
g61
I3
ssg62
g848
sg55
(lp855
S''
asbasbasbag48
(g64
g50
NtRp856
(dp857
g53
(dp858
sg62
g752
sg55
(lp859
g48
(g69
g50
NtRp860
(dp861
g53
(dp862
g73
g74
ssg62
g856
sg55
(lp863
g367
asbag48
(g69
g50
NtRp864
(dp865
g53
(dp866
g80
g81
ssg62
g856
sg55
(lp867
S':'
asbag48
(g69
g50
NtRp868
(dp869
g53
(dp870
sg62
g856
sg55
(lp871
g48
(g49
g50
NtRp872
(dp873
g53
(dp874
g61
I3
ssg62
g868
sg55
(lp875
S''
asbasbasbag48
(g64
g50
NtRp876
(dp877
g53
(dp878
sg62
g752
sg55
(lp879
g48
(g69
g50
NtRp880
(dp881
g53
(dp882
g73
g74
ssg62
g876
sg55
(lp883
g388
asbag48
(g69
g50
NtRp884
(dp885
g53
(dp886
g80
g81
ssg62
g876
sg55
(lp887
S':'
asbag48
(g69
g50
NtRp888
(dp889
g53
(dp890
sg62
g876
sg55
(lp891
g48
(g49
g50
NtRp892
(dp893
g53
(dp894
g61
I3
ssg62
g888
sg55
(lp895
S''
asbasbasbasbasbasbasbag48
(g64
g50
NtRp896
(dp897
g53
(dp898
sg62
g225
sg55
(lp899
g48
(g69
g50
NtRp900
(dp901
g53
(dp902
g73
g74
ssg62
g896
sg55
(lp903
S'session_id_welcome'
p904
asbag48
(g69
g50
NtRp905
(dp906
g53
(dp907
g80
g81
ssg62
g896
sg55
(lp908
S':'
asbag48
(g69
g50
NtRp909
(dp910
g53
(dp911
sg62
g896
sg55
(lp912
g48
(g49
g50
NtRp913
(dp914
g53
(dp915
g61
I4
ssg62
g909
sg55
(lp916
g48
(g57
g50
NtRp917
(dp918
g53
(dp919
g61
I3
ssg62
Nsg55
(lp920
g48
(g64
g50
NtRp921
(dp922
g53
(dp923
sg62
g917
sg55
(lp924
g48
(g69
g50
NtRp925
(dp926
g53
(dp927
g73
g74
ssg62
g921
sg55
(lp928
g262
asbag48
(g69
g50
NtRp929
(dp930
g53
(dp931
g80
g81
ssg62
g921
sg55
(lp932
S':'
asbag48
(g69
g50
NtRp933
(dp934
g53
(dp935
sg62
g921
sg55
(lp936
g48
(g49
g50
NtRp937
(dp938
g53
(dp939
g61
I3
ssg62
g933
sg55
(lp940
S''
asbasbasbag48
(g64
g50
NtRp941
(dp942
g53
(dp943
sg62
g917
sg55
(lp944
g48
(g69
g50
NtRp945
(dp946
g53
(dp947
g73
g74
ssg62
g941
sg55
(lp948
g283
asbag48
(g69
g50
NtRp949
(dp950
g53
(dp951
g80
g81
ssg62
g941
sg55
(lp952
S':'
asbag48
(g69
g50
NtRp953
(dp954
g53
(dp955
sg62
g941
sg55
(lp956
g48
(g49
g50
NtRp957
(dp958
g53
(dp959
g61
I3
ssg62
g953
sg55
(lp960
S''
asbasbasbag48
(g64
g50
NtRp961
(dp962
g53
(dp963
sg62
g917
sg55
(lp964
g48
(g69
g50
NtRp965
(dp966
g53
(dp967
g73
g74
ssg62
g961
sg55
(lp968
g304
asbag48
(g69
g50
NtRp969
(dp970
g53
(dp971
g80
g81
ssg62
g961
sg55
(lp972
S':'
asbag48
(g69
g50
NtRp973
(dp974
g53
(dp975
sg62
g961
sg55
(lp976
g48
(g49
g50
NtRp977
(dp978
g53
(dp979
g61
I3
ssg62
g973
sg55
(lp980
S''
asbasbasbag48
(g64
g50
NtRp981
(dp982
g53
(dp983
sg62
g917
sg55
(lp984
g48
(g69
g50
NtRp985
(dp986
g53
(dp987
g73
g74
ssg62
g981
sg55
(lp988
g325
asbag48
(g69
g50
NtRp989
(dp990
g53
(dp991
g80
g81
ssg62
g981
sg55
(lp992
S':'
asbag48
(g69
g50
NtRp993
(dp994
g53
(dp995
sg62
g981
sg55
(lp996
g48
(g49
g50
NtRp997
(dp998
g53
(dp999
g61
I3
ssg62
g993
sg55
(lp1000
S''
asbasbasbag48
(g64
g50
NtRp1001
(dp1002
g53
(dp1003
sg62
g917
sg55
(lp1004
g48
(g69
g50
NtRp1005
(dp1006
g53
(dp1007
g73
g74
ssg62
g1001
sg55
(lp1008
g346
asbag48
(g69
g50
NtRp1009
(dp1010
g53
(dp1011
g80
g81
ssg62
g1001
sg55
(lp1012
S':'
asbag48
(g69
g50
NtRp1013
(dp1014
g53
(dp1015
sg62
g1001
sg55
(lp1016
g48
(g49
g50
NtRp1017
(dp1018
g53
(dp1019
g61
I3
ssg62
g1013
sg55
(lp1020
S''
asbasbasbag48
(g64
g50
NtRp1021
(dp1022
g53
(dp1023
sg62
g917
sg55
(lp1024
g48
(g69
g50
NtRp1025
(dp1026
g53
(dp1027
g73
g74
ssg62
g1021
sg55
(lp1028
g367
asbag48
(g69
g50
NtRp1029
(dp1030
g53
(dp1031
g80
g81
ssg62
g1021
sg55
(lp1032
S':'
asbag48
(g69
g50
NtRp1033
(dp1034
g53
(dp1035
sg62
g1021
sg55
(lp1036
g48
(g49
g50
NtRp1037
(dp1038
g53
(dp1039
g61
I3
ssg62
g1033
sg55
(lp1040
S''
asbasbasbag48
(g64
g50
NtRp1041
(dp1042
g53
(dp1043
sg62
g917
sg55
(lp1044
g48
(g69
g50
NtRp1045
(dp1046
g53
(dp1047
g73
g74
ssg62
g1041
sg55
(lp1048
g388
asbag48
(g69
g50
NtRp1049
(dp1050
g53
(dp1051
g80
g81
ssg62
g1041
sg55
(lp1052
S':'
asbag48
(g69
g50
NtRp1053
(dp1054
g53
(dp1055
sg62
g1041
sg55
(lp1056
g48
(g49
g50
NtRp1057
(dp1058
g53
(dp1059
g61
I3
ssg62
g1053
sg55
(lp1060
S''
asbasbasbasbasbasbasbasbasbasbasbag48
(g64
g50
NtRp1061
(dp1062
g53
(dp1063
sg62
g58
sg55
(lp1064
g48
(g69
g50
NtRp1065
(dp1066
g53
(dp1067
g73
g74
ssg62
g1061
sg55
(lp1068
S'env'
p1069
asbag48
(g69
g50
NtRp1070
(dp1071
g53
(dp1072
g80
g81
ssg62
g1061
sg55
(lp1073
S':'
asbag48
(g69
g50
NtRp1074
(dp1075
g53
(dp1076
sg62
g1061
sg55
(lp1077
g48
(g49
g50
NtRp1078
(dp1079
g53
(dp1080
g61
I5
ssg62
g1074
sg55
(lp1081
g48
(g57
g50
NtRp1082
(dp1083
g53
(dp1084
g61
I4
ssg62
Nsg55
(lp1085
g48
(g64
g50
NtRp1086
(dp1087
g53
(dp1088
sg62
g1082
sg55
(lp1089
g48
(g69
g50
NtRp1090
(dp1091
g53
(dp1092
g73
g74
ssg62
g1086
sg55
(lp1093
S'app_folders'
p1094
asbag48
(g69
g50
NtRp1095
(dp1096
g53
(dp1097
g80
g81
ssg62
g1086
sg55
(lp1098
S':'
asbag48
(g69
g50
NtRp1099
(dp1100
g53
(dp1101
sg62
g1086
sg55
(lp1102
g48
(g49
g50
NtRp1103
(dp1104
g53
(dp1105
g61
I4
ssg62
g1099
sg55
(lp1106
S"set(['C:\\\\Users\\\\Atomico\\\\web2py\\\\applications\\\\welcome\\\\', 'C:\\\\Users\\\\Atomico\\\\web2py\\\\applications\\\\Desglosar_Emails\\\\', 'C:\\\\Users\\\\Atomico\\\\web2py\\\\applications\\\\admin\\\\'])"
p1107
asbasbasbag48
(g64
g50
NtRp1108
(dp1109
g53
(dp1110
sg62
g1082
sg55
(lp1111
g48
(g69
g50
NtRp1112
(dp1113
g53
(dp1114
g73
g74
ssg62
g1108
sg55
(lp1115
S'applications_parent'
p1116
asbag48
(g69
g50
NtRp1117
(dp1118
g53
(dp1119
g80
g81
ssg62
g1108
sg55
(lp1120
S':'
asbag48
(g69
g50
NtRp1121
(dp1122
g53
(dp1123
sg62
g1108
sg55
(lp1124
g48
(g49
g50
NtRp1125
(dp1126
g53
(dp1127
g61
I4
ssg62
g1121
sg55
(lp1128
S'C:\\Users\\Atomico\\web2py'
p1129
asbasbasbag48
(g64
g50
NtRp1130
(dp1131
g53
(dp1132
sg62
g1082
sg55
(lp1133
g48
(g69
g50
NtRp1134
(dp1135
g53
(dp1136
g73
g74
ssg62
g1130
sg55
(lp1137
S'cmd_args'
p1138
asbag48
(g69
g50
NtRp1139
(dp1140
g53
(dp1141
g80
g81
ssg62
g1130
sg55
(lp1142
S':'
asbag48
(g69
g50
NtRp1143
(dp1144
g53
(dp1145
sg62
g1130
sg55
(lp1146
g48
(g49
g50
NtRp1147
(dp1148
g53
(dp1149
g61
I4
ssg62
g1143
sg55
(lp1150
g48
(g57
g50
NtRp1151
(dp1152
g53
(dp1153
g61
I3
ssg62
Nsg55
(lp1154
sbasbasbasbag48
(g64
g50
NtRp1155
(dp1156
g53
(dp1157
sg62
g1082
sg55
(lp1158
g48
(g69
g50
NtRp1159
(dp1160
g53
(dp1161
g73
g74
ssg62
g1155
sg55
(lp1162
S'cmd_options'
p1163
asbag48
(g69
g50
NtRp1164
(dp1165
g53
(dp1166
g80
g81
ssg62
g1155
sg55
(lp1167
S':'
asbag48
(g69
g50
NtRp1168
(dp1169
g53
(dp1170
sg62
g1155
sg55
(lp1171
g48
(g49
g50
NtRp1172
(dp1173
g53
(dp1174
g61
I4
ssg62
g1168
sg55
(lp1175
S"<Values at 0x31fe5d0: {'verbose': False, 'ip': '127.0.0.1', 'shutdown_timeout': 5, 'taskbar': False, 'port': 8000, 'maxthreads': None, 'softcron': False, 'server_name': 'Swing', 'bpython': False, 'nogui': False, 'nocron': False, 'extcron': False, 'debuglevel': 30, 'test': None, 'folder': 'C:\\\\Users\\\\Atomico\\\\web2py', 'config': '', 'import_models': False, 'winservice': '', 'shell': None, 'run': '', 'log_filename': 'httpserver.log', 'args': [''], 'profiler_filename': None, 'ssl_private_key': '', 'password': '<ask>', 'request_queue_size': 5, 'ssl_certificate': '', 'cronjob': False, 'plain': False, 'quiet': False, 'interfaces': None, 'minthreads': None, 'timeout': 10, 'numthreads': None, 'nobanner': False, 'pid_filename': 'httpserver.pid'}>"
p1176
asbasbasbag48
(g64
g50
NtRp1177
(dp1178
g53
(dp1179
sg62
g1082
sg55
(lp1180
g48
(g69
g50
NtRp1181
(dp1182
g53
(dp1183
g73
g74
ssg62
g1177
sg55
(lp1184
S'db_sessions'
p1185
asbag48
(g69
g50
NtRp1186
(dp1187
g53
(dp1188
g80
g81
ssg62
g1177
sg55
(lp1189
S':'
asbag48
(g69
g50
NtRp1190
(dp1191
g53
(dp1192
sg62
g1177
sg55
(lp1193
g48
(g49
g50
NtRp1194
(dp1195
g53
(dp1196
g61
I4
ssg62
g1190
sg55
(lp1197
S'set([])'
p1198
asbasbasbag48
(g64
g50
NtRp1199
(dp1200
g53
(dp1201
sg62
g1082
sg55
(lp1202
g48
(g69
g50
NtRp1203
(dp1204
g53
(dp1205
g73
g74
ssg62
g1199
sg55
(lp1206
S'debugging'
p1207
asbag48
(g69
g50
NtRp1208
(dp1209
g53
(dp1210
g80
g81
ssg62
g1199
sg55
(lp1211
S':'
asbag48
(g69
g50
NtRp1212
(dp1213
g53
(dp1214
sg62
g1199
sg55
(lp1215
g48
(g49
g50
NtRp1216
(dp1217
g53
(dp1218
g61
I4
ssg62
g1212
sg55
(lp1219
g91
asbasbasbag48
(g64
g50
NtRp1220
(dp1221
g53
(dp1222
sg62
g1082
sg55
(lp1223
g48
(g69
g50
NtRp1224
(dp1225
g53
(dp1226
g73
g74
ssg62
g1220
sg55
(lp1227
S'gluon_parent'
p1228
asbag48
(g69
g50
NtRp1229
(dp1230
g53
(dp1231
g80
g81
ssg62
g1220
sg55
(lp1232
S':'
asbag48
(g69
g50
NtRp1233
(dp1234
g53
(dp1235
sg62
g1220
sg55
(lp1236
g48
(g49
g50
NtRp1237
(dp1238
g53
(dp1239
g61
I4
ssg62
g1233
sg55
(lp1240
S'C:\\Users\\Atomico\\web2py'
p1241
asbasbasbag48
(g64
g50
NtRp1242
(dp1243
g53
(dp1244
sg62
g1082
sg55
(lp1245
g48
(g69
g50
NtRp1246
(dp1247
g53
(dp1248
g73
g74
ssg62
g1242
sg55
(lp1249
S'http_accept'
p1250
asbag48
(g69
g50
NtRp1251
(dp1252
g53
(dp1253
g80
g81
ssg62
g1242
sg55
(lp1254
S':'
asbag48
(g69
g50
NtRp1255
(dp1256
g53
(dp1257
sg62
g1242
sg55
(lp1258
g48
(g49
g50
NtRp1259
(dp1260
g53
(dp1261
g61
I4
ssg62
g1255
sg55
(lp1262
S'text/html,application/xhtml+xml,application/xml;q=0.9,*/*;q=0.8'
p1263
asbasbasbag48
(g64
g50
NtRp1264
(dp1265
g53
(dp1266
sg62
g1082
sg55
(lp1267
g48
(g69
g50
NtRp1268
(dp1269
g53
(dp1270
g73
g74
ssg62
g1264
sg55
(lp1271
S'http_accept_charset'
p1272
asbag48
(g69
g50
NtRp1273
(dp1274
g53
(dp1275
g80
g81
ssg62
g1264
sg55
(lp1276
S':'
asbag48
(g69
g50
NtRp1277
(dp1278
g53
(dp1279
sg62
g1264
sg55
(lp1280
g48
(g49
g50
NtRp1281
(dp1282
g53
(dp1283
g61
I4
ssg62
g1277
sg55
(lp1284
S'ISO-8859-1,utf-8;q=0.7,*;q=0.7'
p1285
asbasbasbag48
(g64
g50
NtRp1286
(dp1287
g53
(dp1288
sg62
g1082
sg55
(lp1289
g48
(g69
g50
NtRp1290
(dp1291
g53
(dp1292
g73
g74
ssg62
g1286
sg55
(lp1293
S'http_accept_encoding'
p1294
asbag48
(g69
g50
NtRp1295
(dp1296
g53
(dp1297
g80
g81
ssg62
g1286
sg55
(lp1298
S':'
asbag48
(g69
g50
NtRp1299
(dp1300
g53
(dp1301
sg62
g1286
sg55
(lp1302
g48
(g49
g50
NtRp1303
(dp1304
g53
(dp1305
g61
I4
ssg62
g1299
sg55
(lp1306
S'gzip, deflate'
p1307
asbasbasbag48
(g64
g50
NtRp1308
(dp1309
g53
(dp1310
sg62
g1082
sg55
(lp1311
g48
(g69
g50
NtRp1312
(dp1313
g53
(dp1314
g73
g74
ssg62
g1308
sg55
(lp1315
S'http_accept_language'
p1316
asbag48
(g69
g50
NtRp1317
(dp1318
g53
(dp1319
g80
g81
ssg62
g1308
sg55
(lp1320
S':'
asbag48
(g69
g50
NtRp1321
(dp1322
g53
(dp1323
sg62
g1308
sg55
(lp1324
g48
(g49
g50
NtRp1325
(dp1326
g53
(dp1327
g61
I4
ssg62
g1321
sg55
(lp1328
S'es-es,es;q=0.8,en-us;q=0.5,en;q=0.3'
p1329
asbasbasbag48
(g64
g50
NtRp1330
(dp1331
g53
(dp1332
sg62
g1082
sg55
(lp1333
g48
(g69
g50
NtRp1334
(dp1335
g53
(dp1336
g73
g74
ssg62
g1330
sg55
(lp1337
S'http_connection'
p1338
asbag48
(g69
g50
NtRp1339
(dp1340
g53
(dp1341
g80
g81
ssg62
g1330
sg55
(lp1342
S':'
asbag48
(g69
g50
NtRp1343
(dp1344
g53
(dp1345
sg62
g1330
sg55
(lp1346
g48
(g49
g50
NtRp1347
(dp1348
g53
(dp1349
g61
I4
ssg62
g1343
sg55
(lp1350
S'keep-alive'
p1351
asbasbasbag48
(g64
g50
NtRp1352
(dp1353
g53
(dp1354
sg62
g1082
sg55
(lp1355
g48
(g69
g50
NtRp1356
(dp1357
g53
(dp1358
g73
g74
ssg62
g1352
sg55
(lp1359
S'http_cookie'
p1360
asbag48
(g69
g50
NtRp1361
(dp1362
g53
(dp1363
g80
g81
ssg62
g1352
sg55
(lp1364
S':'
asbag48
(g69
g50
NtRp1365
(dp1366
g53
(dp1367
sg62
g1352
sg55
(lp1368
g48
(g49
g50
NtRp1369
(dp1370
g53
(dp1371
g61
I4
ssg62
g1365
sg55
(lp1372
S'session_id_welcome=127.0.0.1-d4a19c8f-3eb1-49d7-87c7-849a3de2f2be; session_id_admin=127.0.0.1-ab41072a-78d8-41d9-b0f6-43c9e78f0c91; session_id_desglosar_emails=127.0.0.1-78cf8050-df87-4502-afb9-ed0c3843b414; session_id_borrar2=127.0.0.1-7b2821ce-f980-4deb-be8f-1de8266b25b6; session_id_myappjav=127.0.0.1-c0868253-65dd-491c-a2e7-2dc9aaaa4724'
p1373
asbasbasbag48
(g64
g50
NtRp1374
(dp1375
g53
(dp1376
sg62
g1082
sg55
(lp1377
g48
(g69
g50
NtRp1378
(dp1379
g53
(dp1380
g73
g74
ssg62
g1374
sg55
(lp1381
S'http_host'
p1382
asbag48
(g69
g50
NtRp1383
(dp1384
g53
(dp1385
g80
g81
ssg62
g1374
sg55
(lp1386
S':'
asbag48
(g69
g50
NtRp1387
(dp1388
g53
(dp1389
sg62
g1374
sg55
(lp1390
g48
(g49
g50
NtRp1391
(dp1392
g53
(dp1393
g61
I4
ssg62
g1387
sg55
(lp1394
S'127.0.0.1:8000'
p1395
asbasbasbag48
(g64
g50
NtRp1396
(dp1397
g53
(dp1398
sg62
g1082
sg55
(lp1399
g48
(g69
g50
NtRp1400
(dp1401
g53
(dp1402
g73
g74
ssg62
g1396
sg55
(lp1403
S'http_referer'
p1404
asbag48
(g69
g50
NtRp1405
(dp1406
g53
(dp1407
g80
g81
ssg62
g1396
sg55
(lp1408
S':'
asbag48
(g69
g50
NtRp1409
(dp1410
g53
(dp1411
sg62
g1396
sg55
(lp1412
g48
(g49
g50
NtRp1413
(dp1414
g53
(dp1415
g61
I4
ssg62
g1409
sg55
(lp1416
S'http://127.0.0.1:8000/admin/default/design/Desglosar_Emails'
p1417
asbasbasbag48
(g64
g50
NtRp1418
(dp1419
g53
(dp1420
sg62
g1082
sg55
(lp1421
g48
(g69
g50
NtRp1422
(dp1423
g53
(dp1424
g73
g74
ssg62
g1418
sg55
(lp1425
S'http_user_agent'
p1426
asbag48
(g69
g50
NtRp1427
(dp1428
g53
(dp1429
g80
g81
ssg62
g1418
sg55
(lp1430
S':'
asbag48
(g69
g50
NtRp1431
(dp1432
g53
(dp1433
sg62
g1418
sg55
(lp1434
g48
(g49
g50
NtRp1435
(dp1436
g53
(dp1437
g61
I4
ssg62
g1431
sg55
(lp1438
S'Mozilla/5.0 (Windows NT 6.1; WOW64; rv:6.0.2) Gecko/20100101 Firefox/6.0.2'
p1439
asbasbasbag48
(g64
g50
NtRp1440
(dp1441
g53
(dp1442
sg62
g1082
sg55
(lp1443
g48
(g69
g50
NtRp1444
(dp1445
g53
(dp1446
g73
g74
ssg62
g1440
sg55
(lp1447
S'is_jython'
p1448
asbag48
(g69
g50
NtRp1449
(dp1450
g53
(dp1451
g80
g81
ssg62
g1440
sg55
(lp1452
S':'
asbag48
(g69
g50
NtRp1453
(dp1454
g53
(dp1455
sg62
g1440
sg55
(lp1456
g48
(g49
g50
NtRp1457
(dp1458
g53
(dp1459
g61
I4
ssg62
g1453
sg55
(lp1460
g91
asbasbasbag48
(g64
g50
NtRp1461
(dp1462
g53
(dp1463
sg62
g1082
sg55
(lp1464
g48
(g69
g50
NtRp1465
(dp1466
g53
(dp1467
g73
g74
ssg62
g1461
sg55
(lp1468
S'path_info'
p1469
asbag48
(g69
g50
NtRp1470
(dp1471
g53
(dp1472
g80
g81
ssg62
g1461
sg55
(lp1473
S':'
asbag48
(g69
g50
NtRp1474
(dp1475
g53
(dp1476
sg62
g1461
sg55
(lp1477
g48
(g49
g50
NtRp1478
(dp1479
g53
(dp1480
g61
I4
ssg62
g1474
sg55
(lp1481
S'/Desglosar_Emails/default/relaciones'
p1482
asbasbasbag48
(g64
g50
NtRp1483
(dp1484
g53
(dp1485
sg62
g1082
sg55
(lp1486
g48
(g69
g50
NtRp1487
(dp1488
g53
(dp1489
g73
g74
ssg62
g1483
sg55
(lp1490
S'query_string'
p1491
asbag48
(g69
g50
NtRp1492
(dp1493
g53
(dp1494
g80
g81
ssg62
g1483
sg55
(lp1495
S':'
asbag48
(g69
g50
NtRp1496
(dp1497
g53
(dp1498
sg62
g1483
sg55
(lp1499
g48
(g49
g50
NtRp1500
(dp1501
g53
(dp1502
g61
I4
ssg62
g1496
sg55
(lp1503
S''
asbasbasbag48
(g64
g50
NtRp1504
(dp1505
g53
(dp1506
sg62
g1082
sg55
(lp1507
g48
(g69
g50
NtRp1508
(dp1509
g53
(dp1510
g73
g74
ssg62
g1504
sg55
(lp1511
S'remote_addr'
p1512
asbag48
(g69
g50
NtRp1513
(dp1514
g53
(dp1515
g80
g81
ssg62
g1504
sg55
(lp1516
S':'
asbag48
(g69
g50
NtRp1517
(dp1518
g53
(dp1519
sg62
g1504
sg55
(lp1520
g48
(g49
g50
NtRp1521
(dp1522
g53
(dp1523
g61
I4
ssg62
g1517
sg55
(lp1524
g181
asbasbasbag48
(g64
g50
NtRp1525
(dp1526
g53
(dp1527
sg62
g1082
sg55
(lp1528
g48
(g69
g50
NtRp1529
(dp1530
g53
(dp1531
g73
g74
ssg62
g1525
sg55
(lp1532
S'remote_port'
p1533
asbag48
(g69
g50
NtRp1534
(dp1535
g53
(dp1536
g80
g81
ssg62
g1525
sg55
(lp1537
S':'
asbag48
(g69
g50
NtRp1538
(dp1539
g53
(dp1540
sg62
g1525
sg55
(lp1541
g48
(g49
g50
NtRp1542
(dp1543
g53
(dp1544
g61
I4
ssg62
g1538
sg55
(lp1545
S'51993'
p1546
asbasbasbag48
(g64
g50
NtRp1547
(dp1548
g53
(dp1549
sg62
g1082
sg55
(lp1550
g48
(g69
g50
NtRp1551
(dp1552
g53
(dp1553
g73
g74
ssg62
g1547
sg55
(lp1554
S'request_method'
p1555
asbag48
(g69
g50
NtRp1556
(dp1557
g53
(dp1558
g80
g81
ssg62
g1547
sg55
(lp1559
S':'
asbag48
(g69
g50
NtRp1560
(dp1561
g53
(dp1562
sg62
g1547
sg55
(lp1563
g48
(g49
g50
NtRp1564
(dp1565
g53
(dp1566
g61
I4
ssg62
g1560
sg55
(lp1567
S'GET'
p1568
asbasbasbag48
(g64
g50
NtRp1569
(dp1570
g53
(dp1571
sg62
g1082
sg55
(lp1572
g48
(g69
g50
NtRp1573
(dp1574
g53
(dp1575
g73
g74
ssg62
g1569
sg55
(lp1576
S'script_name'
p1577
asbag48
(g69
g50
NtRp1578
(dp1579
g53
(dp1580
g80
g81
ssg62
g1569
sg55
(lp1581
S':'
asbag48
(g69
g50
NtRp1582
(dp1583
g53
(dp1584
sg62
g1569
sg55
(lp1585
g48
(g49
g50
NtRp1586
(dp1587
g53
(dp1588
g61
I4
ssg62
g1582
sg55
(lp1589
S''
asbasbasbag48
(g64
g50
NtRp1590
(dp1591
g53
(dp1592
sg62
g1082
sg55
(lp1593
g48
(g69
g50
NtRp1594
(dp1595
g53
(dp1596
g73
g74
ssg62
g1590
sg55
(lp1597
S'server_name'
p1598
asbag48
(g69
g50
NtRp1599
(dp1600
g53
(dp1601
g80
g81
ssg62
g1590
sg55
(lp1602
S':'
asbag48
(g69
g50
NtRp1603
(dp1604
g53
(dp1605
sg62
g1590
sg55
(lp1606
g48
(g49
g50
NtRp1607
(dp1608
g53
(dp1609
g61
I4
ssg62
g1603
sg55
(lp1610
S'Swing'
p1611
asbasbasbag48
(g64
g50
NtRp1612
(dp1613
g53
(dp1614
sg62
g1082
sg55
(lp1615
g48
(g69
g50
NtRp1616
(dp1617
g53
(dp1618
g73
g74
ssg62
g1612
sg55
(lp1619
S'server_port'
p1620
asbag48
(g69
g50
NtRp1621
(dp1622
g53
(dp1623
g80
g81
ssg62
g1612
sg55
(lp1624
S':'
asbag48
(g69
g50
NtRp1625
(dp1626
g53
(dp1627
sg62
g1612
sg55
(lp1628
g48
(g49
g50
NtRp1629
(dp1630
g53
(dp1631
g61
I4
ssg62
g1625
sg55
(lp1632
S'8000'
p1633
asbasbasbag48
(g64
g50
NtRp1634
(dp1635
g53
(dp1636
sg62
g1082
sg55
(lp1637
g48
(g69
g50
NtRp1638
(dp1639
g53
(dp1640
g73
g74
ssg62
g1634
sg55
(lp1641
S'server_protocol'
p1642
asbag48
(g69
g50
NtRp1643
(dp1644
g53
(dp1645
g80
g81
ssg62
g1634
sg55
(lp1646
S':'
asbag48
(g69
g50
NtRp1647
(dp1648
g53
(dp1649
sg62
g1634
sg55
(lp1650
g48
(g49
g50
NtRp1651
(dp1652
g53
(dp1653
g61
I4
ssg62
g1647
sg55
(lp1654
S'HTTP/1.1'
p1655
asbasbasbag48
(g64
g50
NtRp1656
(dp1657
g53
(dp1658
sg62
g1082
sg55
(lp1659
g48
(g69
g50
NtRp1660
(dp1661
g53
(dp1662
g73
g74
ssg62
g1656
sg55
(lp1663
S'server_software'
p1664
asbag48
(g69
g50
NtRp1665
(dp1666
g53
(dp1667
g80
g81
ssg62
g1656
sg55
(lp1668
S':'
asbag48
(g69
g50
NtRp1669
(dp1670
g53
(dp1671
sg62
g1656
sg55
(lp1672
g48
(g49
g50
NtRp1673
(dp1674
g53
(dp1675
g61
I4
ssg62
g1669
sg55
(lp1676
S'Rocket 1.2.2'
p1677
asbasbasbag48
(g64
g50
NtRp1678
(dp1679
g53
(dp1680
sg62
g1082
sg55
(lp1681
g48
(g69
g50
NtRp1682
(dp1683
g53
(dp1684
g73
g74
ssg62
g1678
sg55
(lp1685
S'web2py_crontype'
p1686
asbag48
(g69
g50
NtRp1687
(dp1688
g53
(dp1689
g80
g81
ssg62
g1678
sg55
(lp1690
S':'
asbag48
(g69
g50
NtRp1691
(dp1692
g53
(dp1693
sg62
g1678
sg55
(lp1694
g48
(g49
g50
NtRp1695
(dp1696
g53
(dp1697
g61
I4
ssg62
g1691
sg55
(lp1698
S'hard'
p1699
asbasbasbag48
(g64
g50
NtRp1700
(dp1701
g53
(dp1702
sg62
g1082
sg55
(lp1703
g48
(g69
g50
NtRp1704
(dp1705
g53
(dp1706
g73
g74
ssg62
g1700
sg55
(lp1707
S'web2py_path'
p1708
asbag48
(g69
g50
NtRp1709
(dp1710
g53
(dp1711
g80
g81
ssg62
g1700
sg55
(lp1712
S':'
asbag48
(g69
g50
NtRp1713
(dp1714
g53
(dp1715
sg62
g1700
sg55
(lp1716
g48
(g49
g50
NtRp1717
(dp1718
g53
(dp1719
g61
I4
ssg62
g1713
sg55
(lp1720
g1129
asbasbasbag48
(g64
g50
NtRp1721
(dp1722
g53
(dp1723
sg62
g1082
sg55
(lp1724
g48
(g69
g50
NtRp1725
(dp1726
g53
(dp1727
g73
g74
ssg62
g1721
sg55
(lp1728
S'web2py_version'
p1729
asbag48
(g69
g50
NtRp1730
(dp1731
g53
(dp1732
g80
g81
ssg62
g1721
sg55
(lp1733
S':'
asbag48
(g69
g50
NtRp1734
(dp1735
g53
(dp1736
sg62
g1721
sg55
(lp1737
g48
(g49
g50
NtRp1738
(dp1739
g53
(dp1740
g61
I4
ssg62
g1734
sg55
(lp1741
S'Version 1.98.2 (2011-08-04 00:47:09)\n'
p1742
asbasbasbag48
(g64
g50
NtRp1743
(dp1744
g53
(dp1745
sg62
g1082
sg55
(lp1746
g48
(g69
g50
NtRp1747
(dp1748
g53
(dp1749
g73
g74
ssg62
g1743
sg55
(lp1750
S'wsgi_errors'
p1751
asbag48
(g69
g50
NtRp1752
(dp1753
g53
(dp1754
g80
g81
ssg62
g1743
sg55
(lp1755
S':'
asbag48
(g69
g50
NtRp1756
(dp1757
g53
(dp1758
sg62
g1743
sg55
(lp1759
g48
(g49
g50
NtRp1760
(dp1761
g53
(dp1762
g61
I4
ssg62
g1756
sg55
(lp1763
S"<open file '<stderr>', mode 'w' at 0x004200B0>"
p1764
asbasbasbag48
(g64
g50
NtRp1765
(dp1766
g53
(dp1767
sg62
g1082
sg55
(lp1768
g48
(g69
g50
NtRp1769
(dp1770
g53
(dp1771
g73
g74
ssg62
g1765
sg55
(lp1772
S'wsgi_file_wrapper'
p1773
asbag48
(g69
g50
NtRp1774
(dp1775
g53
(dp1776
g80
g81
ssg62
g1765
sg55
(lp1777
S':'
asbag48
(g69
g50
NtRp1778
(dp1779
g53
(dp1780
sg62
g1765
sg55
(lp1781
g48
(g49
g50
NtRp1782
(dp1783
g53
(dp1784
g61
I4
ssg62
g1778
sg55
(lp1785
S'<class gluon.rocket.FileWrapper at 0x031911B0>'
p1786
asbasbasbag48
(g64
g50
NtRp1787
(dp1788
g53
(dp1789
sg62
g1082
sg55
(lp1790
g48
(g69
g50
NtRp1791
(dp1792
g53
(dp1793
g73
g74
ssg62
g1787
sg55
(lp1794
S'wsgi_input'
p1795
asbag48
(g69
g50
NtRp1796
(dp1797
g53
(dp1798
g80
g81
ssg62
g1787
sg55
(lp1799
S':'
asbag48
(g69
g50
NtRp1800
(dp1801
g53
(dp1802
sg62
g1787
sg55
(lp1803
g48
(g49
g50
NtRp1804
(dp1805
g53
(dp1806
g61
I4
ssg62
g1800
sg55
(lp1807
S'<socket._fileobject object at 0x07E7E6F0>'
p1808
asbasbasbag48
(g64
g50
NtRp1809
(dp1810
g53
(dp1811
sg62
g1082
sg55
(lp1812
g48
(g69
g50
NtRp1813
(dp1814
g53
(dp1815
g73
g74
ssg62
g1809
sg55
(lp1816
S'wsgi_multiprocess'
p1817
asbag48
(g69
g50
NtRp1818
(dp1819
g53
(dp1820
g80
g81
ssg62
g1809
sg55
(lp1821
S':'
asbag48
(g69
g50
NtRp1822
(dp1823
g53
(dp1824
sg62
g1809
sg55
(lp1825
g48
(g49
g50
NtRp1826
(dp1827
g53
(dp1828
g61
I4
ssg62
g1822
sg55
(lp1829
g91
asbasbasbag48
(g64
g50
NtRp1830
(dp1831
g53
(dp1832
sg62
g1082
sg55
(lp1833
g48
(g69
g50
NtRp1834
(dp1835
g53
(dp1836
g73
g74
ssg62
g1830
sg55
(lp1837
S'wsgi_multithread'
p1838
asbag48
(g69
g50
NtRp1839
(dp1840
g53
(dp1841
g80
g81
ssg62
g1830
sg55
(lp1842
S':'
asbag48
(g69
g50
NtRp1843
(dp1844
g53
(dp1845
sg62
g1830
sg55
(lp1846
g48
(g49
g50
NtRp1847
(dp1848
g53
(dp1849
g61
I4
ssg62
g1843
sg55
(lp1850
S'True'
p1851
asbasbasbag48
(g64
g50
NtRp1852
(dp1853
g53
(dp1854
sg62
g1082
sg55
(lp1855
g48
(g69
g50
NtRp1856
(dp1857
g53
(dp1858
g73
g74
ssg62
g1852
sg55
(lp1859
S'wsgi_run_once'
p1860
asbag48
(g69
g50
NtRp1861
(dp1862
g53
(dp1863
g80
g81
ssg62
g1852
sg55
(lp1864
S':'
asbag48
(g69
g50
NtRp1865
(dp1866
g53
(dp1867
sg62
g1852
sg55
(lp1868
g48
(g49
g50
NtRp1869
(dp1870
g53
(dp1871
g61
I4
ssg62
g1865
sg55
(lp1872
g91
asbasbasbag48
(g64
g50
NtRp1873
(dp1874
g53
(dp1875
sg62
g1082
sg55
(lp1876
g48
(g69
g50
NtRp1877
(dp1878
g53
(dp1879
g73
g74
ssg62
g1873
sg55
(lp1880
S'wsgi_url_scheme'
p1881
asbag48
(g69
g50
NtRp1882
(dp1883
g53
(dp1884
g80
g81
ssg62
g1873
sg55
(lp1885
S':'
asbag48
(g69
g50
NtRp1886
(dp1887
g53
(dp1888
sg62
g1873
sg55
(lp1889
g48
(g49
g50
NtRp1890
(dp1891
g53
(dp1892
g61
I4
ssg62
g1886
sg55
(lp1893
S'http'
p1894
asbasbasbag48
(g64
g50
NtRp1895
(dp1896
g53
(dp1897
sg62
g1082
sg55
(lp1898
g48
(g69
g50
NtRp1899
(dp1900
g53
(dp1901
g73
g74
ssg62
g1895
sg55
(lp1902
S'wsgi_version'
p1903
asbag48
(g69
g50
NtRp1904
(dp1905
g53
(dp1906
g80
g81
ssg62
g1895
sg55
(lp1907
S':'
asbag48
(g69
g50
NtRp1908
(dp1909
g53
(dp1910
sg62
g1895
sg55
(lp1911
g48
(g49
g50
NtRp1912
(dp1913
g53
(dp1914
g61
I4
ssg62
g1908
sg55
(lp1915
g48
(g57
g50
NtRp1916
(dp1917
g53
(dp1918
g61
I3
ssg62
Nsg55
(lp1919
g48
(g64
g50
NtRp1920
(dp1921
g53
(dp1922
sg62
g1916
sg55
(lp1923
g48
(g69
g50
NtRp1924
(dp1925
g53
(dp1926
sg62
g1920
sg55
(lp1927
g48
(g49
g50
NtRp1928
(dp1929
g53
(dp1930
g61
I3
ssg62
g1924
sg55
(lp1931
S'1'
asbasbasbag48
(g64
g50
NtRp1932
(dp1933
g53
(dp1934
sg62
g1916
sg55
(lp1935
g48
(g69
g50
NtRp1936
(dp1937
g53
(dp1938
sg62
g1932
sg55
(lp1939
g48
(g49
g50
NtRp1940
(dp1941
g53
(dp1942
g61
I3
ssg62
g1936
sg55
(lp1943
S'0'
asbasbasbasbasbasbasbasbasbasbasbag48
(g64
g50
NtRp1944
(dp1945
g53
(dp1946
sg62
g58
sg55
(lp1947
g48
(g69
g50
NtRp1948
(dp1949
g53
(dp1950
g73
g74
ssg62
g1944
sg55
(lp1951
S'extension'
p1952
asbag48
(g69
g50
NtRp1953
(dp1954
g53
(dp1955
g80
g81
ssg62
g1944
sg55
(lp1956
S':'
asbag48
(g69
g50
NtRp1957
(dp1958
g53
(dp1959
sg62
g1944
sg55
(lp1960
g48
(g49
g50
NtRp1961
(dp1962
g53
(dp1963
g61
I5
ssg62
g1957
sg55
(lp1964
S'html'
p1965
asbasbasbag48
(g64
g50
NtRp1966
(dp1967
g53
(dp1968
sg62
g58
sg55
(lp1969
g48
(g69
g50
NtRp1970
(dp1971
g53
(dp1972
g73
g74
ssg62
g1966
sg55
(lp1973
S'folder'
p1974
asbag48
(g69
g50
NtRp1975
(dp1976
g53
(dp1977
g80
g81
ssg62
g1966
sg55
(lp1978
S':'
asbag48
(g69
g50
NtRp1979
(dp1980
g53
(dp1981
sg62
g1966
sg55
(lp1982
g48
(g49
g50
NtRp1983
(dp1984
g53
(dp1985
g61
I5
ssg62
g1979
sg55
(lp1986
S'C:\\Users\\Atomico\\web2py\\applications\\Desglosar_Emails\\'
p1987
asbasbasbag48
(g64
g50
NtRp1988
(dp1989
g53
(dp1990
sg62
g58
sg55
(lp1991
g48
(g69
g50
NtRp1992
(dp1993
g53
(dp1994
g73
g74
ssg62
g1988
sg55
(lp1995
S'function'
p1996
asbag48
(g69
g50
NtRp1997
(dp1998
g53
(dp1999
g80
g81
ssg62
g1988
sg55
(lp2000
S':'
asbag48
(g69
g50
NtRp2001
(dp2002
g53
(dp2003
sg62
g1988
sg55
(lp2004
g48
(g49
g50
NtRp2005
(dp2006
g53
(dp2007
g61
I5
ssg62
g2001
sg55
(lp2008
S'relaciones'
p2009
asbasbasbag48
(g64
g50
NtRp2010
(dp2011
g53
(dp2012
sg62
g58
sg55
(lp2013
g48
(g69
g50
NtRp2014
(dp2015
g53
(dp2016
g73
g74
ssg62
g2010
sg55
(lp2017
S'get_vars'
p2018
asbag48
(g69
g50
NtRp2019
(dp2020
g53
(dp2021
g80
g81
ssg62
g2010
sg55
(lp2022
S':'
asbag48
(g69
g50
NtRp2023
(dp2024
g53
(dp2025
sg62
g2010
sg55
(lp2026
g48
(g49
g50
NtRp2027
(dp2028
g53
(dp2029
g61
I5
ssg62
g2023
sg55
(lp2030
g48
(g57
g50
NtRp2031
(dp2032
g53
(dp2033
g61
I4
ssg62
Nsg55
(lp2034
sbasbasbasbag48
(g64
g50
NtRp2035
(dp2036
g53
(dp2037
sg62
g58
sg55
(lp2038
g48
(g69
g50
NtRp2039
(dp2040
g53
(dp2041
g73
g74
ssg62
g2035
sg55
(lp2042
S'is_https'
p2043
asbag48
(g69
g50
NtRp2044
(dp2045
g53
(dp2046
g80
g81
ssg62
g2035
sg55
(lp2047
S':'
asbag48
(g69
g50
NtRp2048
(dp2049
g53
(dp2050
sg62
g2035
sg55
(lp2051
g48
(g49
g50
NtRp2052
(dp2053
g53
(dp2054
g61
I5
ssg62
g2048
sg55
(lp2055
g91
asbasbasbag48
(g64
g50
NtRp2056
(dp2057
g53
(dp2058
sg62
g58
sg55
(lp2059
g48
(g69
g50
NtRp2060
(dp2061
g53
(dp2062
g73
g74
ssg62
g2056
sg55
(lp2063
S'is_local'
p2064
asbag48
(g69
g50
NtRp2065
(dp2066
g53
(dp2067
g80
g81
ssg62
g2056
sg55
(lp2068
S':'
asbag48
(g69
g50
NtRp2069
(dp2070
g53
(dp2071
sg62
g2056
sg55
(lp2072
g48
(g49
g50
NtRp2073
(dp2074
g53
(dp2075
g61
I5
ssg62
g2069
sg55
(lp2076
g1851
asbasbasbag48
(g64
g50
NtRp2077
(dp2078
g53
(dp2079
sg62
g58
sg55
(lp2080
g48
(g69
g50
NtRp2081
(dp2082
g53
(dp2083
g73
g74
ssg62
g2077
sg55
(lp2084
S'is_restful'
p2085
asbag48
(g69
g50
NtRp2086
(dp2087
g53
(dp2088
g80
g81
ssg62
g2077
sg55
(lp2089
S':'
asbag48
(g69
g50
NtRp2090
(dp2091
g53
(dp2092
sg62
g2077
sg55
(lp2093
g48
(g49
g50
NtRp2094
(dp2095
g53
(dp2096
g61
I5
ssg62
g2090
sg55
(lp2097
g91
asbasbasbag48
(g64
g50
NtRp2098
(dp2099
g53
(dp2100
sg62
g58
sg55
(lp2101
g48
(g69
g50
NtRp2102
(dp2103
g53
(dp2104
g73
g74
ssg62
g2098
sg55
(lp2105
S'now'
p2106
asbag48
(g69
g50
NtRp2107
(dp2108
g53
(dp2109
g80
g81
ssg62
g2098
sg55
(lp2110
S':'
asbag48
(g69
g50
NtRp2111
(dp2112
g53
(dp2113
sg62
g2098
sg55
(lp2114
g48
(g49
g50
NtRp2115
(dp2116
g53
(dp2117
g61
I5
ssg62
g2111
sg55
(lp2118
S'datetime.datetime(2011, 9, 20, 14, 22, 43, 502000)'
p2119
asbasbasbag48
(g64
g50
NtRp2120
(dp2121
g53
(dp2122
sg62
g58
sg55
(lp2123
g48
(g69
g50
NtRp2124
(dp2125
g53
(dp2126
g73
g74
ssg62
g2120
sg55
(lp2127
S'post_vars'
p2128
asbag48
(g69
g50
NtRp2129
(dp2130
g53
(dp2131
g80
g81
ssg62
g2120
sg55
(lp2132
S':'
asbag48
(g69
g50
NtRp2133
(dp2134
g53
(dp2135
sg62
g2120
sg55
(lp2136
g48
(g49
g50
NtRp2137
(dp2138
g53
(dp2139
g61
I5
ssg62
g2133
sg55
(lp2140
g48
(g57
g50
NtRp2141
(dp2142
g53
(dp2143
g61
I4
ssg62
Nsg55
(lp2144
sbasbasbasbag48
(g64
g50
NtRp2145
(dp2146
g53
(dp2147
sg62
g58
sg55
(lp2148
g48
(g69
g50
NtRp2149
(dp2150
g53
(dp2151
g73
g74
ssg62
g2145
sg55
(lp2152
S'url'
p2153
asbag48
(g69
g50
NtRp2154
(dp2155
g53
(dp2156
g80
g81
ssg62
g2145
sg55
(lp2157
S':'
asbag48
(g69
g50
NtRp2158
(dp2159
g53
(dp2160
sg62
g2145
sg55
(lp2161
g48
(g49
g50
NtRp2162
(dp2163
g53
(dp2164
g61
I5
ssg62
g2158
sg55
(lp2165
S'/Desglosar_Emails/default/relaciones'
p2166
asbasbasbag48
(g64
g50
NtRp2167
(dp2168
g53
(dp2169
sg62
g58
sg55
(lp2170
g48
(g69
g50
NtRp2171
(dp2172
g53
(dp2173
g73
g74
ssg62
g2167
sg55
(lp2174
S'uuid'
p2175
asbag48
(g69
g50
NtRp2176
(dp2177
g53
(dp2178
g80
g81
ssg62
g2167
sg55
(lp2179
S':'
asbag48
(g69
g50
NtRp2180
(dp2181
g53
(dp2182
sg62
g2167
sg55
(lp2183
g48
(g49
g50
NtRp2184
(dp2185
g53
(dp2186
g61
I5
ssg62
g2180
sg55
(lp2187
S'Desglosar_Emails/127.0.0.1.2011-09-20.14-22-43.fe780c65-41c7-4c6b-8274-7a273d10c5ea'
p2188
asbasbasbag48
(g64
g50
NtRp2189
(dp2190
g53
(dp2191
sg62
g58
sg55
(lp2192
g48
(g69
g50
NtRp2193
(dp2194
g53
(dp2195
g73
g74
ssg62
g2189
sg55
(lp2196
S'vars'
p2197
asbag48
(g69
g50
NtRp2198
(dp2199
g53
(dp2200
g80
g81
ssg62
g2189
sg55
(lp2201
S':'
asbag48
(g69
g50
NtRp2202
(dp2203
g53
(dp2204
sg62
g2189
sg55
(lp2205
g48
(g49
g50
NtRp2206
(dp2207
g53
(dp2208
g61
I5
ssg62
g2202
sg55
(lp2209
g48
(g57
g50
NtRp2210
(dp2211
g53
(dp2212
g61
I4
ssg62
Nsg55
(lp2213
sbasbasbasbag48
(g64
g50
NtRp2214
(dp2215
g53
(dp2216
sg62
g58
sg55
(lp2217
g48
(g69
g50
NtRp2218
(dp2219
g53
(dp2220
g73
g74
ssg62
g2214
sg55
(lp2221
S'wsgi'
p2222
asbag48
(g69
g50
NtRp2223
(dp2224
g53
(dp2225
g80
g81
ssg62
g2214
sg55
(lp2226
S':'
asbag48
(g69
g50
NtRp2227
(dp2228
g53
(dp2229
sg62
g2214
sg55
(lp2230
g48
(g49
g50
NtRp2231
(dp2232
g53
(dp2233
g61
I5
ssg62
g2227
sg55
(lp2234
g48
(g57
g50
NtRp2235
(dp2236
g53
(dp2237
g61
I4
ssg62
Nsg55
(lp2238
g48
(g64
g50
NtRp2239
(dp2240
g53
(dp2241
sg62
g2235
sg55
(lp2242
g48
(g69
g50
NtRp2243
(dp2244
g53
(dp2245
g73
g74
ssg62
g2239
sg55
(lp2246
S'environ'
p2247
asbag48
(g69
g50
NtRp2248
(dp2249
g53
(dp2250
g80
g81
ssg62
g2239
sg55
(lp2251
S':'
asbag48
(g69
g50
NtRp2252
(dp2253
g53
(dp2254
sg62
g2239
sg55
(lp2255
g48
(g49
g50
NtRp2256
(dp2257
g53
(dp2258
g61
I4
ssg62
g2252
sg55
(lp2259
g48
(g57
g50
NtRp2260
(dp2261
g53
(dp2262
g61
I3
ssg62
Nsg55
(lp2263
g48
(g64
g50
NtRp2264
(dp2265
g53
(dp2266
sg62
g2260
sg55
(lp2267
g48
(g69
g50
NtRp2268
(dp2269
g53
(dp2270
g73
g74
ssg62
g2264
sg55
(lp2271
S'HTTP_ACCEPT'
p2272
asbag48
(g69
g50
NtRp2273
(dp2274
g53
(dp2275
g80
g81
ssg62
g2264
sg55
(lp2276
S':'
asbag48
(g69
g50
NtRp2277
(dp2278
g53
(dp2279
sg62
g2264
sg55
(lp2280
g48
(g49
g50
NtRp2281
(dp2282
g53
(dp2283
g61
I3
ssg62
g2277
sg55
(lp2284
g1263
asbasbasbag48
(g64
g50
NtRp2285
(dp2286
g53
(dp2287
sg62
g2260
sg55
(lp2288
g48
(g69
g50
NtRp2289
(dp2290
g53
(dp2291
g73
g74
ssg62
g2285
sg55
(lp2292
S'HTTP_ACCEPT_CHARSET'
p2293
asbag48
(g69
g50
NtRp2294
(dp2295
g53
(dp2296
g80
g81
ssg62
g2285
sg55
(lp2297
S':'
asbag48
(g69
g50
NtRp2298
(dp2299
g53
(dp2300
sg62
g2285
sg55
(lp2301
g48
(g49
g50
NtRp2302
(dp2303
g53
(dp2304
g61
I3
ssg62
g2298
sg55
(lp2305
g1285
asbasbasbag48
(g64
g50
NtRp2306
(dp2307
g53
(dp2308
sg62
g2260
sg55
(lp2309
g48
(g69
g50
NtRp2310
(dp2311
g53
(dp2312
g73
g74
ssg62
g2306
sg55
(lp2313
S'HTTP_ACCEPT_ENCODING'
p2314
asbag48
(g69
g50
NtRp2315
(dp2316
g53
(dp2317
g80
g81
ssg62
g2306
sg55
(lp2318
S':'
asbag48
(g69
g50
NtRp2319
(dp2320
g53
(dp2321
sg62
g2306
sg55
(lp2322
g48
(g49
g50
NtRp2323
(dp2324
g53
(dp2325
g61
I3
ssg62
g2319
sg55
(lp2326
g1307
asbasbasbag48
(g64
g50
NtRp2327
(dp2328
g53
(dp2329
sg62
g2260
sg55
(lp2330
g48
(g69
g50
NtRp2331
(dp2332
g53
(dp2333
g73
g74
ssg62
g2327
sg55
(lp2334
S'HTTP_ACCEPT_LANGUAGE'
p2335
asbag48
(g69
g50
NtRp2336
(dp2337
g53
(dp2338
g80
g81
ssg62
g2327
sg55
(lp2339
S':'
asbag48
(g69
g50
NtRp2340
(dp2341
g53
(dp2342
sg62
g2327
sg55
(lp2343
g48
(g49
g50
NtRp2344
(dp2345
g53
(dp2346
g61
I3
ssg62
g2340
sg55
(lp2347
g1329
asbasbasbag48
(g64
g50
NtRp2348
(dp2349
g53
(dp2350
sg62
g2260
sg55
(lp2351
g48
(g69
g50
NtRp2352
(dp2353
g53
(dp2354
g73
g74
ssg62
g2348
sg55
(lp2355
S'HTTP_CONNECTION'
p2356
asbag48
(g69
g50
NtRp2357
(dp2358
g53
(dp2359
g80
g81
ssg62
g2348
sg55
(lp2360
S':'
asbag48
(g69
g50
NtRp2361
(dp2362
g53
(dp2363
sg62
g2348
sg55
(lp2364
g48
(g49
g50
NtRp2365
(dp2366
g53
(dp2367
g61
I3
ssg62
g2361
sg55
(lp2368
g1351
asbasbasbag48
(g64
g50
NtRp2369
(dp2370
g53
(dp2371
sg62
g2260
sg55
(lp2372
g48
(g69
g50
NtRp2373
(dp2374
g53
(dp2375
g73
g74
ssg62
g2369
sg55
(lp2376
S'HTTP_COOKIE'
p2377
asbag48
(g69
g50
NtRp2378
(dp2379
g53
(dp2380
g80
g81
ssg62
g2369
sg55
(lp2381
S':'
asbag48
(g69
g50
NtRp2382
(dp2383
g53
(dp2384
sg62
g2369
sg55
(lp2385
g48
(g49
g50
NtRp2386
(dp2387
g53
(dp2388
g61
I3
ssg62
g2382
sg55
(lp2389
g1373
asbasbasbag48
(g64
g50
NtRp2390
(dp2391
g53
(dp2392
sg62
g2260
sg55
(lp2393
g48
(g69
g50
NtRp2394
(dp2395
g53
(dp2396
g73
g74
ssg62
g2390
sg55
(lp2397
S'HTTP_HOST'
p2398
asbag48
(g69
g50
NtRp2399
(dp2400
g53
(dp2401
g80
g81
ssg62
g2390
sg55
(lp2402
S':'
asbag48
(g69
g50
NtRp2403
(dp2404
g53
(dp2405
sg62
g2390
sg55
(lp2406
g48
(g49
g50
NtRp2407
(dp2408
g53
(dp2409
g61
I3
ssg62
g2403
sg55
(lp2410
g1395
asbasbasbag48
(g64
g50
NtRp2411
(dp2412
g53
(dp2413
sg62
g2260
sg55
(lp2414
g48
(g69
g50
NtRp2415
(dp2416
g53
(dp2417
g73
g74
ssg62
g2411
sg55
(lp2418
S'HTTP_REFERER'
p2419
asbag48
(g69
g50
NtRp2420
(dp2421
g53
(dp2422
g80
g81
ssg62
g2411
sg55
(lp2423
S':'
asbag48
(g69
g50
NtRp2424
(dp2425
g53
(dp2426
sg62
g2411
sg55
(lp2427
g48
(g49
g50
NtRp2428
(dp2429
g53
(dp2430
g61
I3
ssg62
g2424
sg55
(lp2431
g1417
asbasbasbag48
(g64
g50
NtRp2432
(dp2433
g53
(dp2434
sg62
g2260
sg55
(lp2435
g48
(g69
g50
NtRp2436
(dp2437
g53
(dp2438
g73
g74
ssg62
g2432
sg55
(lp2439
S'HTTP_USER_AGENT'
p2440
asbag48
(g69
g50
NtRp2441
(dp2442
g53
(dp2443
g80
g81
ssg62
g2432
sg55
(lp2444
S':'
asbag48
(g69
g50
NtRp2445
(dp2446
g53
(dp2447
sg62
g2432
sg55
(lp2448
g48
(g49
g50
NtRp2449
(dp2450
g53
(dp2451
g61
I3
ssg62
g2445
sg55
(lp2452
g1439
asbasbasbag48
(g64
g50
NtRp2453
(dp2454
g53
(dp2455
sg62
g2260
sg55
(lp2456
g48
(g69
g50
NtRp2457
(dp2458
g53
(dp2459
g73
g74
ssg62
g2453
sg55
(lp2460
S'PATH_INFO'
p2461
asbag48
(g69
g50
NtRp2462
(dp2463
g53
(dp2464
g80
g81
ssg62
g2453
sg55
(lp2465
S':'
asbag48
(g69
g50
NtRp2466
(dp2467
g53
(dp2468
sg62
g2453
sg55
(lp2469
g48
(g49
g50
NtRp2470
(dp2471
g53
(dp2472
g61
I3
ssg62
g2466
sg55
(lp2473
g1482
asbasbasbag48
(g64
g50
NtRp2474
(dp2475
g53
(dp2476
sg62
g2260
sg55
(lp2477
g48
(g69
g50
NtRp2478
(dp2479
g53
(dp2480
g73
g74
ssg62
g2474
sg55
(lp2481
S'QUERY_STRING'
p2482
asbag48
(g69
g50
NtRp2483
(dp2484
g53
(dp2485
g80
g81
ssg62
g2474
sg55
(lp2486
S':'
asbag48
(g69
g50
NtRp2487
(dp2488
g53
(dp2489
sg62
g2474
sg55
(lp2490
g48
(g49
g50
NtRp2491
(dp2492
g53
(dp2493
g61
I3
ssg62
g2487
sg55
(lp2494
S''
asbasbasbag48
(g64
g50
NtRp2495
(dp2496
g53
(dp2497
sg62
g2260
sg55
(lp2498
g48
(g69
g50
NtRp2499
(dp2500
g53
(dp2501
g73
g74
ssg62
g2495
sg55
(lp2502
S'REMOTE_ADDR'
p2503
asbag48
(g69
g50
NtRp2504
(dp2505
g53
(dp2506
g80
g81
ssg62
g2495
sg55
(lp2507
S':'
asbag48
(g69
g50
NtRp2508
(dp2509
g53
(dp2510
sg62
g2495
sg55
(lp2511
g48
(g49
g50
NtRp2512
(dp2513
g53
(dp2514
g61
I3
ssg62
g2508
sg55
(lp2515
g181
asbasbasbag48
(g64
g50
NtRp2516
(dp2517
g53
(dp2518
sg62
g2260
sg55
(lp2519
g48
(g69
g50
NtRp2520
(dp2521
g53
(dp2522
g73
g74
ssg62
g2516
sg55
(lp2523
S'REMOTE_PORT'
p2524
asbag48
(g69
g50
NtRp2525
(dp2526
g53
(dp2527
g80
g81
ssg62
g2516
sg55
(lp2528
S':'
asbag48
(g69
g50
NtRp2529
(dp2530
g53
(dp2531
sg62
g2516
sg55
(lp2532
g48
(g49
g50
NtRp2533
(dp2534
g53
(dp2535
g61
I3
ssg62
g2529
sg55
(lp2536
g1546
asbasbasbag48
(g64
g50
NtRp2537
(dp2538
g53
(dp2539
sg62
g2260
sg55
(lp2540
g48
(g69
g50
NtRp2541
(dp2542
g53
(dp2543
g73
g74
ssg62
g2537
sg55
(lp2544
S'REQUEST_METHOD'
p2545
asbag48
(g69
g50
NtRp2546
(dp2547
g53
(dp2548
g80
g81
ssg62
g2537
sg55
(lp2549
S':'
asbag48
(g69
g50
NtRp2550
(dp2551
g53
(dp2552
sg62
g2537
sg55
(lp2553
g48
(g49
g50
NtRp2554
(dp2555
g53
(dp2556
g61
I3
ssg62
g2550
sg55
(lp2557
g1568
asbasbasbag48
(g64
g50
NtRp2558
(dp2559
g53
(dp2560
sg62
g2260
sg55
(lp2561
g48
(g69
g50
NtRp2562
(dp2563
g53
(dp2564
g73
g74
ssg62
g2558
sg55
(lp2565
S'SCRIPT_NAME'
p2566
asbag48
(g69
g50
NtRp2567
(dp2568
g53
(dp2569
g80
g81
ssg62
g2558
sg55
(lp2570
S':'
asbag48
(g69
g50
NtRp2571
(dp2572
g53
(dp2573
sg62
g2558
sg55
(lp2574
g48
(g49
g50
NtRp2575
(dp2576
g53
(dp2577
g61
I3
ssg62
g2571
sg55
(lp2578
S''
asbasbasbag48
(g64
g50
NtRp2579
(dp2580
g53
(dp2581
sg62
g2260
sg55
(lp2582
g48
(g69
g50
NtRp2583
(dp2584
g53
(dp2585
g73
g74
ssg62
g2579
sg55
(lp2586
S'SERVER_NAME'
p2587
asbag48
(g69
g50
NtRp2588
(dp2589
g53
(dp2590
g80
g81
ssg62
g2579
sg55
(lp2591
S':'
asbag48
(g69
g50
NtRp2592
(dp2593
g53
(dp2594
sg62
g2579
sg55
(lp2595
g48
(g49
g50
NtRp2596
(dp2597
g53
(dp2598
g61
I3
ssg62
g2592
sg55
(lp2599
g1611
asbasbasbag48
(g64
g50
NtRp2600
(dp2601
g53
(dp2602
sg62
g2260
sg55
(lp2603
g48
(g69
g50
NtRp2604
(dp2605
g53
(dp2606
g73
g74
ssg62
g2600
sg55
(lp2607
S'SERVER_PORT'
p2608
asbag48
(g69
g50
NtRp2609
(dp2610
g53
(dp2611
g80
g81
ssg62
g2600
sg55
(lp2612
S':'
asbag48
(g69
g50
NtRp2613
(dp2614
g53
(dp2615
sg62
g2600
sg55
(lp2616
g48
(g49
g50
NtRp2617
(dp2618
g53
(dp2619
g61
I3
ssg62
g2613
sg55
(lp2620
g1633
asbasbasbag48
(g64
g50
NtRp2621
(dp2622
g53
(dp2623
sg62
g2260
sg55
(lp2624
g48
(g69
g50
NtRp2625
(dp2626
g53
(dp2627
g73
g74
ssg62
g2621
sg55
(lp2628
S'SERVER_PROTOCOL'
p2629
asbag48
(g69
g50
NtRp2630
(dp2631
g53
(dp2632
g80
g81
ssg62
g2621
sg55
(lp2633
S':'
asbag48
(g69
g50
NtRp2634
(dp2635
g53
(dp2636
sg62
g2621
sg55
(lp2637
g48
(g49
g50
NtRp2638
(dp2639
g53
(dp2640
g61
I3
ssg62
g2634
sg55
(lp2641
g1655
asbasbasbag48
(g64
g50
NtRp2642
(dp2643
g53
(dp2644
sg62
g2260
sg55
(lp2645
g48
(g69
g50
NtRp2646
(dp2647
g53
(dp2648
g73
g74
ssg62
g2642
sg55
(lp2649
S'SERVER_SOFTWARE'
p2650
asbag48
(g69
g50
NtRp2651
(dp2652
g53
(dp2653
g80
g81
ssg62
g2642
sg55
(lp2654
S':'
asbag48
(g69
g50
NtRp2655
(dp2656
g53
(dp2657
sg62
g2642
sg55
(lp2658
g48
(g49
g50
NtRp2659
(dp2660
g53
(dp2661
g61
I3
ssg62
g2655
sg55
(lp2662
g1677
asbasbasbag48
(g64
g50
NtRp2663
(dp2664
g53
(dp2665
sg62
g2260
sg55
(lp2666
g48
(g69
g50
NtRp2667
(dp2668
g53
(dp2669
g73
g74
ssg62
g2663
sg55
(lp2670
S'wsgi.errors'
p2671
asbag48
(g69
g50
NtRp2672
(dp2673
g53
(dp2674
g80
g81
ssg62
g2663
sg55
(lp2675
S':'
asbag48
(g69
g50
NtRp2676
(dp2677
g53
(dp2678
sg62
g2663
sg55
(lp2679
g48
(g49
g50
NtRp2680
(dp2681
g53
(dp2682
g61
I3
ssg62
g2676
sg55
(lp2683
S"<open file '<stderr>', mode 'w' at 0x004200B0>"
p2684
asbasbasbag48
(g64
g50
NtRp2685
(dp2686
g53
(dp2687
sg62
g2260
sg55
(lp2688
g48
(g69
g50
NtRp2689
(dp2690
g53
(dp2691
g73
g74
ssg62
g2685
sg55
(lp2692
S'wsgi.file_wrapper'
p2693
asbag48
(g69
g50
NtRp2694
(dp2695
g53
(dp2696
g80
g81
ssg62
g2685
sg55
(lp2697
S':'
asbag48
(g69
g50
NtRp2698
(dp2699
g53
(dp2700
sg62
g2685
sg55
(lp2701
g48
(g49
g50
NtRp2702
(dp2703
g53
(dp2704
g61
I3
ssg62
g2698
sg55
(lp2705
S'<class gluon.rocket.FileWrapper at 0x031911B0>'
p2706
asbasbasbag48
(g64
g50
NtRp2707
(dp2708
g53
(dp2709
sg62
g2260
sg55
(lp2710
g48
(g69
g50
NtRp2711
(dp2712
g53
(dp2713
g73
g74
ssg62
g2707
sg55
(lp2714
S'wsgi.input'
p2715
asbag48
(g69
g50
NtRp2716
(dp2717
g53
(dp2718
g80
g81
ssg62
g2707
sg55
(lp2719
S':'
asbag48
(g69
g50
NtRp2720
(dp2721
g53
(dp2722
sg62
g2707
sg55
(lp2723
g48
(g49
g50
NtRp2724
(dp2725
g53
(dp2726
g61
I3
ssg62
g2720
sg55
(lp2727
S'<cStringIO.StringO object at 0x07B39440>'
p2728
asbasbasbag48
(g64
g50
NtRp2729
(dp2730
g53
(dp2731
sg62
g2260
sg55
(lp2732
g48
(g69
g50
NtRp2733
(dp2734
g53
(dp2735
g73
g74
ssg62
g2729
sg55
(lp2736
S'wsgi.multiprocess'
p2737
asbag48
(g69
g50
NtRp2738
(dp2739
g53
(dp2740
g80
g81
ssg62
g2729
sg55
(lp2741
S':'
asbag48
(g69
g50
NtRp2742
(dp2743
g53
(dp2744
sg62
g2729
sg55
(lp2745
g48
(g49
g50
NtRp2746
(dp2747
g53
(dp2748
g61
I3
ssg62
g2742
sg55
(lp2749
g91
asbasbasbag48
(g64
g50
NtRp2750
(dp2751
g53
(dp2752
sg62
g2260
sg55
(lp2753
g48
(g69
g50
NtRp2754
(dp2755
g53
(dp2756
g73
g74
ssg62
g2750
sg55
(lp2757
S'wsgi.multithread'
p2758
asbag48
(g69
g50
NtRp2759
(dp2760
g53
(dp2761
g80
g81
ssg62
g2750
sg55
(lp2762
S':'
asbag48
(g69
g50
NtRp2763
(dp2764
g53
(dp2765
sg62
g2750
sg55
(lp2766
g48
(g49
g50
NtRp2767
(dp2768
g53
(dp2769
g61
I3
ssg62
g2763
sg55
(lp2770
g1851
asbasbasbag48
(g64
g50
NtRp2771
(dp2772
g53
(dp2773
sg62
g2260
sg55
(lp2774
g48
(g69
g50
NtRp2775
(dp2776
g53
(dp2777
g73
g74
ssg62
g2771
sg55
(lp2778
S'wsgi.run_once'
p2779
asbag48
(g69
g50
NtRp2780
(dp2781
g53
(dp2782
g80
g81
ssg62
g2771
sg55
(lp2783
S':'
asbag48
(g69
g50
NtRp2784
(dp2785
g53
(dp2786
sg62
g2771
sg55
(lp2787
g48
(g49
g50
NtRp2788
(dp2789
g53
(dp2790
g61
I3
ssg62
g2784
sg55
(lp2791
g91
asbasbasbag48
(g64
g50
NtRp2792
(dp2793
g53
(dp2794
sg62
g2260
sg55
(lp2795
g48
(g69
g50
NtRp2796
(dp2797
g53
(dp2798
g73
g74
ssg62
g2792
sg55
(lp2799
S'wsgi.url_scheme'
p2800
asbag48
(g69
g50
NtRp2801
(dp2802
g53
(dp2803
g80
g81
ssg62
g2792
sg55
(lp2804
S':'
asbag48
(g69
g50
NtRp2805
(dp2806
g53
(dp2807
sg62
g2792
sg55
(lp2808
g48
(g49
g50
NtRp2809
(dp2810
g53
(dp2811
g61
I3
ssg62
g2805
sg55
(lp2812
g1894
asbasbasbag48
(g64
g50
NtRp2813
(dp2814
g53
(dp2815
sg62
g2260
sg55
(lp2816
g48
(g69
g50
NtRp2817
(dp2818
g53
(dp2819
g73
g74
ssg62
g2813
sg55
(lp2820
S'wsgi.version'
p2821
asbag48
(g69
g50
NtRp2822
(dp2823
g53
(dp2824
g80
g81
ssg62
g2813
sg55
(lp2825
S':'
asbag48
(g69
g50
NtRp2826
(dp2827
g53
(dp2828
sg62
g2813
sg55
(lp2829
g48
(g49
g50
NtRp2830
(dp2831
g53
(dp2832
g61
I3
ssg62
g2826
sg55
(lp2833
S'1'
asbasbasbasbasbasbasbasbasbasbasbasbasbsS'frames'
p2834
(lp2835
(dp2836
S'file'
p2837
S'C:\\Users\\Atomico\\web2py\\gluon\\restricted.py'
p2838
sS'dump'
p2839
(dp2840
sS'lnum'
p2841
I192
sS'lines'
p2842
(dp2843
sS'call'
p2844
S"(code='def entrada_mod3():\\n    form=SQLFORM(db.info4)\\n ...to)\\n\\nresponse._vars=response._caller(relaciones)\\n', environment={'A': <class 'gluon.html.A'>, 'B': <class 'gluon.html.B'>, 'BEAUTIFY': <class 'gluon.html.BEAUTIFY'>, 'BODY': <class 'gluon.html.BODY'>, 'BR': <class 'gluon.html.BR'>, 'BUTTON': <class 'gluon.html.BUTTON'>, 'CAT': <class 'gluon.html.CAT'>, 'CENTER': <class 'gluon.html.CENTER'>, 'CLEANUP': <class 'gluon.validators.CLEANUP'>, 'CODE': <class 'gluon.html.CODE'>, ...}, layer=r'C:\\Users\\Atomico\\web2py\\applications\\Desglosar_Emails\\controllers/default.py')"
p2845
sS'func'
p2846
S'restricted'
p2847
sa(dp2848
g2837
S'C:\\Users\\Atomico\\web2py\\applications\\Desglosar_Emails\\controllers\\default.py'
p2849
sg2839
(dp2850
sg2841
I26
sg2842
(dp2851
I15
S"              INPUT(_type='submit'))"
p2852
sI16
S'    if form.accepts(request.vars,session):'
p2853
sI17
S'        session.argumentos=form.vars.argumentos'
p2854
sI18
S''
sI19
S"    form2=FORM(INPUT(_name='texto'),"
p2855
sI20
S"               INPUT(_type='submit'))"
p2856
sI21
S'    if form2.accepts(request.vars,session):'
p2857
sI22
S'        texto=form2.vars.texto'
p2858
sI23
S''
sI24
S"    return dict(cad='Que si',form=form,form2=form2,texto=texto)"
p2859
ssg2844
S'()'
p2860
sg2846
S'<module>'
p2861
sa(dp2862
g2837
S'C:\\Users\\Atomico\\web2py\\gluon\\globals.py'
p2863
sg2839
(dp2864
sg2841
I145
sg2842
(dp2865
sg2844
S'(f=<function relaciones at 0x080A00F0>)'
p2866
sg2846
S'<lambda>'
p2867
sa(dp2868
g2837
S'C:\\Users\\Atomico\\web2py\\applications\\Desglosar_Emails\\controllers\\default.py'
p2869
sg2839
(dp2870
sg2841
I24
sg2842
(dp2871
I15
S"              INPUT(_type='submit'))"
p2872
sI16
S'    if form.accepts(request.vars,session):'
p2873
sI17
S'        session.argumentos=form.vars.argumentos'
p2874
sI18
S''
sI19
S"    form2=FORM(INPUT(_name='texto'),"
p2875
sI20
S"               INPUT(_type='submit'))"
p2876
sI21
S'    if form2.accepts(request.vars,session):'
p2877
sI22
S'        texto=form2.vars.texto'
p2878
sI23
S''
sI24
S"    return dict(cad='Que si',form=form,form2=form2,texto=texto)"
p2879
ssg2844
S'()'
p2880
sg2846
S'relaciones'
p2881
sasS'pyver'
p2882
S'Python 2.5.4: C:\\Users\\Atomico\\web2py\\web2py.exe'
p2883
sS'session'
p2884
g48
(g49
g50
NtRp2885
(dp2886
g53
(dp2887
sg55
(lp2888
g48
(g57
g50
NtRp2889
(dp2890
g53
(dp2891
g61
I5
ssg62
Nsg55
(lp2892
g48
(g64
g50
NtRp2893
(dp2894
g53
(dp2895
sg62
g2889
sg55
(lp2896
g48
(g69
g50
NtRp2897
(dp2898
g53
(dp2899
g73
g74
ssg62
g2893
sg55
(lp2900
S'argumentos'
p2901
asbag48
(g69
g50
NtRp2902
(dp2903
g53
(dp2904
g80
g81
ssg62
g2893
sg55
(lp2905
S':'
asbag48
(g69
g50
NtRp2906
(dp2907
g53
(dp2908
sg62
g2893
sg55
(lp2909
g48
(g49
g50
NtRp2910
(dp2911
g53
(dp2912
g61
I5
ssg62
g2906
sg55
(lp2913
S''
asbasbasbag48
(g64
g50
NtRp2914
(dp2915
g53
(dp2916
sg62
g2889
sg55
(lp2917
g48
(g69
g50
NtRp2918
(dp2919
g53
(dp2920
g73
g74
ssg62
g2914
sg55
(lp2921
S'last_query'
p2922
asbag48
(g69
g50
NtRp2923
(dp2924
g53
(dp2925
g80
g81
ssg62
g2914
sg55
(lp2926
S':'
asbag48
(g69
g50
NtRp2927
(dp2928
g53
(dp2929
sg62
g2914
sg55
(lp2930
g48
(g49
g50
NtRp2931
(dp2932
g53
(dp2933
g61
I5
ssg62
g2927
sg55
(lp2934
S'db.contactos.id>0'
p2935
asbasbasbasbasbsS'etype'
p2936
S"<type 'exceptions.UnboundLocalError'>"
p2937
sS'date'
p2938
S'Tue Sep 20 14:22:43 2011'
p2939
sS'response'
p2940
g48
(g49
g50
NtRp2941
(dp2942
g53
(dp2943
sg55
(lp2944
g48
(g57
g50
NtRp2945
(dp2946
g53
(dp2947
g61
I5
ssg62
Nsg55
(lp2948
g48
(g64
g50
NtRp2949
(dp2950
g53
(dp2951
sg62
g2945
sg55
(lp2952
g48
(g69
g50
NtRp2953
(dp2954
g53
(dp2955
g73
g74
ssg62
g2949
sg55
(lp2956
g146
asbag48
(g69
g50
NtRp2957
(dp2958
g53
(dp2959
g80
g81
ssg62
g2949
sg55
(lp2960
S':'
asbag48
(g69
g50
NtRp2961
(dp2962
g53
(dp2963
sg62
g2949
sg55
(lp2964
g48
(g49
g50
NtRp2965
(dp2966
g53
(dp2967
g61
I5
ssg62
g2961
sg55
(lp2968
S'<cStringIO.StringO object at 0x07B39F20>'
p2969
asbasbasbag48
(g64
g50
NtRp2970
(dp2971
g53
(dp2972
sg62
g2945
sg55
(lp2973
g48
(g69
g50
NtRp2974
(dp2975
g53
(dp2976
g73
g74
ssg62
g2970
sg55
(lp2977
g212
asbag48
(g69
g50
NtRp2978
(dp2979
g53
(dp2980
g80
g81
ssg62
g2970
sg55
(lp2981
S':'
asbag48
(g69
g50
NtRp2982
(dp2983
g53
(dp2984
sg62
g2970
sg55
(lp2985
g48
(g49
g50
NtRp2986
(dp2987
g53
(dp2988
g61
I5
ssg62
g2982
sg55
(lp2989
g48
(g57
g50
NtRp2990
(dp2991
g53
(dp2992
g61
I4
ssg62
Nsg55
(lp2993
g48
(g64
g50
NtRp2994
(dp2995
g53
(dp2996
sg62
g2990
sg55
(lp2997
g48
(g69
g50
NtRp2998
(dp2999
g53
(dp3000
g73
g74
ssg62
g2994
sg55
(lp3001
S'session_id_desglosar_emails'
p3002
asbag48
(g69
g50
NtRp3003
(dp3004
g53
(dp3005
g80
g81
ssg62
g2994
sg55
(lp3006
S':'
asbag48
(g69
g50
NtRp3007
(dp3008
g53
(dp3009
sg62
g2994
sg55
(lp3010
g48
(g49
g50
NtRp3011
(dp3012
g53
(dp3013
g61
I4
ssg62
g3007
sg55
(lp3014
g48
(g57
g50
NtRp3015
(dp3016
g53
(dp3017
g61
I3
ssg62
Nsg55
(lp3018
g48
(g64
g50
NtRp3019
(dp3020
g53
(dp3021
sg62
g3015
sg55
(lp3022
g48
(g69
g50
NtRp3023
(dp3024
g53
(dp3025
g73
g74
ssg62
g3019
sg55
(lp3026
g262
asbag48
(g69
g50
NtRp3027
(dp3028
g53
(dp3029
g80
g81
ssg62
g3019
sg55
(lp3030
S':'
asbag48
(g69
g50
NtRp3031
(dp3032
g53
(dp3033
sg62
g3019
sg55
(lp3034
g48
(g49
g50
NtRp3035
(dp3036
g53
(dp3037
g61
I3
ssg62
g3031
sg55
(lp3038
S''
asbasbasbag48
(g64
g50
NtRp3039
(dp3040
g53
(dp3041
sg62
g3015
sg55
(lp3042
g48
(g69
g50
NtRp3043
(dp3044
g53
(dp3045
g73
g74
ssg62
g3039
sg55
(lp3046
g283
asbag48
(g69
g50
NtRp3047
(dp3048
g53
(dp3049
g80
g81
ssg62
g3039
sg55
(lp3050
S':'
asbag48
(g69
g50
NtRp3051
(dp3052
g53
(dp3053
sg62
g3039
sg55
(lp3054
g48
(g49
g50
NtRp3055
(dp3056
g53
(dp3057
g61
I3
ssg62
g3051
sg55
(lp3058
S''
asbasbasbag48
(g64
g50
NtRp3059
(dp3060
g53
(dp3061
sg62
g3015
sg55
(lp3062
g48
(g69
g50
NtRp3063
(dp3064
g53
(dp3065
g73
g74
ssg62
g3059
sg55
(lp3066
g304
asbag48
(g69
g50
NtRp3067
(dp3068
g53
(dp3069
g80
g81
ssg62
g3059
sg55
(lp3070
S':'
asbag48
(g69
g50
NtRp3071
(dp3072
g53
(dp3073
sg62
g3059
sg55
(lp3074
g48
(g49
g50
NtRp3075
(dp3076
g53
(dp3077
g61
I3
ssg62
g3071
sg55
(lp3078
S''
asbasbasbag48
(g64
g50
NtRp3079
(dp3080
g53
(dp3081
sg62
g3015
sg55
(lp3082
g48
(g69
g50
NtRp3083
(dp3084
g53
(dp3085
g73
g74
ssg62
g3079
sg55
(lp3086
g325
asbag48
(g69
g50
NtRp3087
(dp3088
g53
(dp3089
g80
g81
ssg62
g3079
sg55
(lp3090
S':'
asbag48
(g69
g50
NtRp3091
(dp3092
g53
(dp3093
sg62
g3079
sg55
(lp3094
g48
(g49
g50
NtRp3095
(dp3096
g53
(dp3097
g61
I3
ssg62
g3091
sg55
(lp3098
S''
asbasbasbag48
(g64
g50
NtRp3099
(dp3100
g53
(dp3101
sg62
g3015
sg55
(lp3102
g48
(g69
g50
NtRp3103
(dp3104
g53
(dp3105
g73
g74
ssg62
g3099
sg55
(lp3106
g346
asbag48
(g69
g50
NtRp3107
(dp3108
g53
(dp3109
g80
g81
ssg62
g3099
sg55
(lp3110
S':'
asbag48
(g69
g50
NtRp3111
(dp3112
g53
(dp3113
sg62
g3099
sg55
(lp3114
g48
(g49
g50
NtRp3115
(dp3116
g53
(dp3117
g61
I3
ssg62
g3111
sg55
(lp3118
S'/'
asbasbasbag48
(g64
g50
NtRp3119
(dp3120
g53
(dp3121
sg62
g3015
sg55
(lp3122
g48
(g69
g50
NtRp3123
(dp3124
g53
(dp3125
g73
g74
ssg62
g3119
sg55
(lp3126
g367
asbag48
(g69
g50
NtRp3127
(dp3128
g53
(dp3129
g80
g81
ssg62
g3119
sg55
(lp3130
S':'
asbag48
(g69
g50
NtRp3131
(dp3132
g53
(dp3133
sg62
g3119
sg55
(lp3134
g48
(g49
g50
NtRp3135
(dp3136
g53
(dp3137
g61
I3
ssg62
g3131
sg55
(lp3138
S''
asbasbasbag48
(g64
g50
NtRp3139
(dp3140
g53
(dp3141
sg62
g3015
sg55
(lp3142
g48
(g69
g50
NtRp3143
(dp3144
g53
(dp3145
g73
g74
ssg62
g3139
sg55
(lp3146
g388
asbag48
(g69
g50
NtRp3147
(dp3148
g53
(dp3149
g80
g81
ssg62
g3139
sg55
(lp3150
S':'
asbag48
(g69
g50
NtRp3151
(dp3152
g53
(dp3153
sg62
g3139
sg55
(lp3154
g48
(g49
g50
NtRp3155
(dp3156
g53
(dp3157
g61
I3
ssg62
g3151
sg55
(lp3158
S''
asbasbasbasbasbasbasbasbasbasbasbag48
(g64
g50
NtRp3159
(dp3160
g53
(dp3161
sg62
g2945
sg55
(lp3162
g48
(g69
g50
NtRp3163
(dp3164
g53
(dp3165
g73
g74
ssg62
g3159
sg55
(lp3166
S'files'
p3167
asbag48
(g69
g50
NtRp3168
(dp3169
g53
(dp3170
g80
g81
ssg62
g3159
sg55
(lp3171
S':'
asbag48
(g69
g50
NtRp3172
(dp3173
g53
(dp3174
sg62
g3159
sg55
(lp3175
g48
(g49
g50
NtRp3176
(dp3177
g53
(dp3178
g61
I5
ssg62
g3172
sg55
(lp3179
g48
(g57
g50
NtRp3180
(dp3181
g53
(dp3182
g61
I4
ssg62
Nsg55
(lp3183
sbasbasbasbag48
(g64
g50
NtRp3184
(dp3185
g53
(dp3186
sg62
g2945
sg55
(lp3187
g48
(g69
g50
NtRp3188
(dp3189
g53
(dp3190
g73
g74
ssg62
g3184
sg55
(lp3191
S'flash'
p3192
asbag48
(g69
g50
NtRp3193
(dp3194
g53
(dp3195
g80
g81
ssg62
g3184
sg55
(lp3196
S':'
asbag48
(g69
g50
NtRp3197
(dp3198
g53
(dp3199
sg62
g3184
sg55
(lp3200
g48
(g49
g50
NtRp3201
(dp3202
g53
(dp3203
g61
I5
ssg62
g3197
sg55
(lp3204
S''
asbasbasbag48
(g64
g50
NtRp3205
(dp3206
g53
(dp3207
sg62
g2945
sg55
(lp3208
g48
(g69
g50
NtRp3209
(dp3210
g53
(dp3211
g73
g74
ssg62
g3205
sg55
(lp3212
S'generic_patterns'
p3213
asbag48
(g69
g50
NtRp3214
(dp3215
g53
(dp3216
g80
g81
ssg62
g3205
sg55
(lp3217
S':'
asbag48
(g69
g50
NtRp3218
(dp3219
g53
(dp3220
sg62
g3205
sg55
(lp3221
g48
(g49
g50
NtRp3222
(dp3223
g53
(dp3224
g61
I5
ssg62
g3218
sg55
(lp3225
g48
(g57
g50
NtRp3226
(dp3227
g53
(dp3228
g61
I4
ssg62
Nsg55
(lp3229
sbasbasbasbag48
(g64
g50
NtRp3230
(dp3231
g53
(dp3232
sg62
g2945
sg55
(lp3233
g48
(g69
g50
NtRp3234
(dp3235
g53
(dp3236
g73
g74
ssg62
g3230
sg55
(lp3237
S'headers'
p3238
asbag48
(g69
g50
NtRp3239
(dp3240
g53
(dp3241
g80
g81
ssg62
g3230
sg55
(lp3242
S':'
asbag48
(g69
g50
NtRp3243
(dp3244
g53
(dp3245
sg62
g3230
sg55
(lp3246
g48
(g49
g50
NtRp3247
(dp3248
g53
(dp3249
g61
I5
ssg62
g3243
sg55
(lp3250
g48
(g57
g50
NtRp3251
(dp3252
g53
(dp3253
g61
I4
ssg62
Nsg55
(lp3254
g48
(g64
g50
NtRp3255
(dp3256
g53
(dp3257
sg62
g3251
sg55
(lp3258
g48
(g69
g50
NtRp3259
(dp3260
g53
(dp3261
g73
g74
ssg62
g3255
sg55
(lp3262
S'Cache-Control'
p3263
asbag48
(g69
g50
NtRp3264
(dp3265
g53
(dp3266
g80
g81
ssg62
g3255
sg55
(lp3267
S':'
asbag48
(g69
g50
NtRp3268
(dp3269
g53
(dp3270
sg62
g3255
sg55
(lp3271
g48
(g49
g50
NtRp3272
(dp3273
g53
(dp3274
g61
I4
ssg62
g3268
sg55
(lp3275
S'no-store, no-cache, must-revalidate, post-check=0, pre-check=0'
p3276
asbasbasbag48
(g64
g50
NtRp3277
(dp3278
g53
(dp3279
sg62
g3251
sg55
(lp3280
g48
(g69
g50
NtRp3281
(dp3282
g53
(dp3283
g73
g74
ssg62
g3277
sg55
(lp3284
S'Content-Type'
p3285
asbag48
(g69
g50
NtRp3286
(dp3287
g53
(dp3288
g80
g81
ssg62
g3277
sg55
(lp3289
S':'
asbag48
(g69
g50
NtRp3290
(dp3291
g53
(dp3292
sg62
g3277
sg55
(lp3293
g48
(g49
g50
NtRp3294
(dp3295
g53
(dp3296
g61
I4
ssg62
g3290
sg55
(lp3297
S'text/html; charset=utf-8'
p3298
asbasbasbag48
(g64
g50
NtRp3299
(dp3300
g53
(dp3301
sg62
g3251
sg55
(lp3302
g48
(g69
g50
NtRp3303
(dp3304
g53
(dp3305
g73
g74
ssg62
g3299
sg55
(lp3306
S'Expires'
p3307
asbag48
(g69
g50
NtRp3308
(dp3309
g53
(dp3310
g80
g81
ssg62
g3299
sg55
(lp3311
S':'
asbag48
(g69
g50
NtRp3312
(dp3313
g53
(dp3314
sg62
g3299
sg55
(lp3315
g48
(g49
g50
NtRp3316
(dp3317
g53
(dp3318
g61
I4
ssg62
g3312
sg55
(lp3319
S'Tue, 20 Sep 2011 12:22:43 GMT'
p3320
asbasbasbag48
(g64
g50
NtRp3321
(dp3322
g53
(dp3323
sg62
g3251
sg55
(lp3324
g48
(g69
g50
NtRp3325
(dp3326
g53
(dp3327
g73
g74
ssg62
g3321
sg55
(lp3328
S'Pragma'
p3329
asbag48
(g69
g50
NtRp3330
(dp3331
g53
(dp3332
g80
g81
ssg62
g3321
sg55
(lp3333
S':'
asbag48
(g69
g50
NtRp3334
(dp3335
g53
(dp3336
sg62
g3321
sg55
(lp3337
g48
(g49
g50
NtRp3338
(dp3339
g53
(dp3340
g61
I4
ssg62
g3334
sg55
(lp3341
S'no-cache'
p3342
asbasbasbag48
(g64
g50
NtRp3343
(dp3344
g53
(dp3345
sg62
g3251
sg55
(lp3346
g48
(g69
g50
NtRp3347
(dp3348
g53
(dp3349
g73
g74
ssg62
g3343
sg55
(lp3350
S'X-Powered-By'
p3351
asbag48
(g69
g50
NtRp3352
(dp3353
g53
(dp3354
g80
g81
ssg62
g3343
sg55
(lp3355
S':'
asbag48
(g69
g50
NtRp3356
(dp3357
g53
(dp3358
sg62
g3343
sg55
(lp3359
g48
(g49
g50
NtRp3360
(dp3361
g53
(dp3362
g61
I4
ssg62
g3356
sg55
(lp3363
S'web2py'
p3364
asbasbasbasbasbasbasbag48
(g64
g50
NtRp3365
(dp3366
g53
(dp3367
sg62
g2945
sg55
(lp3368
g48
(g69
g50
NtRp3369
(dp3370
g53
(dp3371
g73
g74
ssg62
g3365
sg55
(lp3372
S'menu'
p3373
asbag48
(g69
g50
NtRp3374
(dp3375
g53
(dp3376
g80
g81
ssg62
g3365
sg55
(lp3377
S':'
asbag48
(g69
g50
NtRp3378
(dp3379
g53
(dp3380
sg62
g3365
sg55
(lp3381
g48
(g49
g50
NtRp3382
(dp3383
g53
(dp3384
g61
I5
ssg62
g3378
sg55
(lp3385
g48
(g57
g50
NtRp3386
(dp3387
g53
(dp3388
g61
I4
ssg62
Nsg55
(lp3389
g48
(g64
g50
NtRp3390
(dp3391
g53
(dp3392
sg62
g3386
sg55
(lp3393
g48
(g69
g50
NtRp3394
(dp3395
g53
(dp3396
sg62
g3390
sg55
(lp3397
g48
(g49
g50
NtRp3398
(dp3399
g53
(dp3400
g61
I4
ssg62
g3394
sg55
(lp3401
g48
(g57
g50
NtRp3402
(dp3403
g53
(dp3404
g61
I3
ssg62
Nsg55
(lp3405
g48
(g64
g50
NtRp3406
(dp3407
g53
(dp3408
sg62
g3402
sg55
(lp3409
g48
(g69
g50
NtRp3410
(dp3411
g53
(dp3412
sg62
g3406
sg55
(lp3413
g48
(g49
g50
NtRp3414
(dp3415
g53
(dp3416
g61
I3
ssg62
g3410
sg55
(lp3417
cgluon.languages
lazyT_unpickle
p3418
(S't\x04\x00\x00\x00Home'
tRp3419
asbasbasbag48
(g64
g50
NtRp3420
(dp3421
g53
(dp3422
sg62
g3402
sg55
(lp3423
g48
(g69
g50
NtRp3424
(dp3425
g53
(dp3426
sg62
g3420
sg55
(lp3427
g48
(g49
g50
NtRp3428
(dp3429
g53
(dp3430
g61
I3
ssg62
g3424
sg55
(lp3431
g91
asbasbasbag48
(g64
g50
NtRp3432
(dp3433
g53
(dp3434
sg62
g3402
sg55
(lp3435
g48
(g69
g50
NtRp3436
(dp3437
g53
(dp3438
sg62
g3432
sg55
(lp3439
g48
(g49
g50
NtRp3440
(dp3441
g53
(dp3442
g61
I3
ssg62
g3436
sg55
(lp3443
S'/Desglosar_Emails/default/index'
p3444
asbasbasbag48
(g64
g50
NtRp3445
(dp3446
g53
(dp3447
sg62
g3402
sg55
(lp3448
g48
(g69
g50
NtRp3449
(dp3450
g53
(dp3451
sg62
g3445
sg55
(lp3452
g48
(g49
g50
NtRp3453
(dp3454
g53
(dp3455
g61
I3
ssg62
g3449
sg55
(lp3456
g48
(g57
g50
NtRp3457
(dp3458
g53
(dp3459
g61
I2
ssg62
Nsg55
(lp3460
sbasbasbasbasbasbasbasbag48
(g64
g50
NtRp3461
(dp3462
g53
(dp3463
sg62
g3386
sg55
(lp3464
g48
(g69
g50
NtRp3465
(dp3466
g53
(dp3467
sg62
g3461
sg55
(lp3468
g48
(g49
g50
NtRp3469
(dp3470
g53
(dp3471
g61
I4
ssg62
g3465
sg55
(lp3472
g48
(g57
g50
NtRp3473
(dp3474
g53
(dp3475
g61
I3
ssg62
Nsg55
(lp3476
g48
(g64
g50
NtRp3477
(dp3478
g53
(dp3479
sg62
g3473
sg55
(lp3480
g48
(g69
g50
NtRp3481
(dp3482
g53
(dp3483
sg62
g3477
sg55
(lp3484
g48
(g49
g50
NtRp3485
(dp3486
g53
(dp3487
g61
I3
ssg62
g3481
sg55
(lp3488
g3418
(S's\x08\x00\x00\x00This App'
tRp3489
asbasbasbag48
(g64
g50
NtRp3490
(dp3491
g53
(dp3492
sg62
g3473
sg55
(lp3493
g48
(g69
g50
NtRp3494
(dp3495
g53
(dp3496
sg62
g3490
sg55
(lp3497
g48
(g49
g50
NtRp3498
(dp3499
g53
(dp3500
g61
I3
ssg62
g3494
sg55
(lp3501
g91
asbasbasbag48
(g64
g50
NtRp3502
(dp3503
g53
(dp3504
sg62
g3473
sg55
(lp3505
g48
(g69
g50
NtRp3506
(dp3507
g53
(dp3508
sg62
g3502
sg55
(lp3509
g48
(g49
g50
NtRp3510
(dp3511
g53
(dp3512
g61
I3
ssg62
g3506
sg55
(lp3513
S'/admin/default/design/Desglosar_Emails'
p3514
asbasbasbag48
(g64
g50
NtRp3515
(dp3516
g53
(dp3517
sg62
g3473
sg55
(lp3518
g48
(g69
g50
NtRp3519
(dp3520
g53
(dp3521
sg62
g3515
sg55
(lp3522
g48
(g49
g50
NtRp3523
(dp3524
g53
(dp3525
g61
I3
ssg62
g3519
sg55
(lp3526
g48
(g57
g50
NtRp3527
(dp3528
g53
(dp3529
g61
I2
ssg62
Nsg55
(lp3530
g48
(g64
g50
NtRp3531
(dp3532
g53
(dp3533
sg62
g3527
sg55
(lp3534
g48
(g69
g50
NtRp3535
(dp3536
g53
(dp3537
sg62
g3531
sg55
(lp3538
g48
(g49
g50
NtRp3539
(dp3540
g53
(dp3541
g61
I2
ssg62
g3535
sg55
(lp3542
g48
(g57
g50
NtRp3543
(dp3544
g53
(dp3545
g61
I1
ssg62
Nsg55
(lp3546
g48
(g64
g50
NtRp3547
(dp3548
g53
(dp3549
sg62
g3543
sg55
(lp3550
g48
(g69
g50
NtRp3551
(dp3552
g53
(dp3553
sg62
g3547
sg55
(lp3554
g48
(g49
g50
NtRp3555
(dp3556
g53
(dp3557
g61
I1
ssg62
g3551
sg55
(lp3558
g3418
(S't\x0b\x00\x00\x00Controlador'
tRp3559
asbasbasbag48
(g64
g50
NtRp3560
(dp3561
g53
(dp3562
sg62
g3543
sg55
(lp3563
g48
(g69
g50
NtRp3564
(dp3565
g53
(dp3566
sg62
g3560
sg55
(lp3567
g48
(g49
g50
NtRp3568
(dp3569
g53
(dp3570
g61
I1
ssg62
g3564
sg55
(lp3571
I00
asbasbasbag48
(g64
g50
NtRp3572
(dp3573
g53
(dp3574
sg62
g3543
sg55
(lp3575
g48
(g69
g50
NtRp3576
(dp3577
g53
(dp3578
sg62
g3572
sg55
(lp3579
g48
(g49
g50
NtRp3580
(dp3581
g53
(dp3582
g61
I1
ssg62
g3576
sg55
(lp3583
S'/admin/default/edit/Desglosar_Emails/controllers/default.py'
p3584
asbasbasbasbasbasbasbag48
(g64
g50
NtRp3585
(dp3586
g53
(dp3587
sg62
g3527
sg55
(lp3588
g48
(g69
g50
NtRp3589
(dp3590
g53
(dp3591
sg62
g3585
sg55
(lp3592
g48
(g49
g50
NtRp3593
(dp3594
g53
(dp3595
g61
I2
ssg62
g3589
sg55
(lp3596
g48
(g57
g50
NtRp3597
(dp3598
g53
(dp3599
g61
I1
ssg62
Nsg55
(lp3600
g48
(g64
g50
NtRp3601
(dp3602
g53
(dp3603
sg62
g3597
sg55
(lp3604
g48
(g69
g50
NtRp3605
(dp3606
g53
(dp3607
sg62
g3601
sg55
(lp3608
g48
(g49
g50
NtRp3609
(dp3610
g53
(dp3611
g61
I1
ssg62
g3605
sg55
(lp3612
g3418
(S't\x05\x00\x00\x00Vista'
tRp3613
asbasbasbag48
(g64
g50
NtRp3614
(dp3615
g53
(dp3616
sg62
g3597
sg55
(lp3617
g48
(g69
g50
NtRp3618
(dp3619
g53
(dp3620
sg62
g3614
sg55
(lp3621
g48
(g49
g50
NtRp3622
(dp3623
g53
(dp3624
g61
I1
ssg62
g3618
sg55
(lp3625
I00
asbasbasbag48
(g64
g50
NtRp3626
(dp3627
g53
(dp3628
sg62
g3597
sg55
(lp3629
g48
(g69
g50
NtRp3630
(dp3631
g53
(dp3632
sg62
g3626
sg55
(lp3633
g48
(g49
g50
NtRp3634
(dp3635
g53
(dp3636
g61
I1
ssg62
g3630
sg55
(lp3637
S'/admin/default/edit/Desglosar_Emails/views/default/relaciones.html'
p3638
asbasbasbasbasbasbasbag48
(g64
g50
NtRp3639
(dp3640
g53
(dp3641
sg62
g3527
sg55
(lp3642
g48
(g69
g50
NtRp3643
(dp3644
g53
(dp3645
sg62
g3639
sg55
(lp3646
g48
(g49
g50
NtRp3647
(dp3648
g53
(dp3649
g61
I2
ssg62
g3643
sg55
(lp3650
g48
(g57
g50
NtRp3651
(dp3652
g53
(dp3653
g61
I1
ssg62
Nsg55
(lp3654
g48
(g64
g50
NtRp3655
(dp3656
g53
(dp3657
sg62
g3651
sg55
(lp3658
g48
(g69
g50
NtRp3659
(dp3660
g53
(dp3661
sg62
g3655
sg55
(lp3662
g48
(g49
g50
NtRp3663
(dp3664
g53
(dp3665
g61
I1
ssg62
g3659
sg55
(lp3666
g3418
(S's\x12\x00\x00\x00Dise\xc3\xb1o de p\xc3\xa1gina'
tRp3667
asbasbasbag48
(g64
g50
NtRp3668
(dp3669
g53
(dp3670
sg62
g3651
sg55
(lp3671
g48
(g69
g50
NtRp3672
(dp3673
g53
(dp3674
sg62
g3668
sg55
(lp3675
g48
(g49
g50
NtRp3676
(dp3677
g53
(dp3678
g61
I1
ssg62
g3672
sg55
(lp3679
I00
asbasbasbag48
(g64
g50
NtRp3680
(dp3681
g53
(dp3682
sg62
g3651
sg55
(lp3683
g48
(g69
g50
NtRp3684
(dp3685
g53
(dp3686
sg62
g3680
sg55
(lp3687
g48
(g49
g50
NtRp3688
(dp3689
g53
(dp3690
g61
I1
ssg62
g3684
sg55
(lp3691
S'/admin/default/edit/Desglosar_Emails/views/layout.html'
p3692
asbasbasbasbasbasbasbag48
(g64
g50
NtRp3693
(dp3694
g53
(dp3695
sg62
g3527
sg55
(lp3696
g48
(g69
g50
NtRp3697
(dp3698
g53
(dp3699
sg62
g3693
sg55
(lp3700
g48
(g49
g50
NtRp3701
(dp3702
g53
(dp3703
g61
I2
ssg62
g3697
sg55
(lp3704
g48
(g57
g50
NtRp3705
(dp3706
g53
(dp3707
g61
I1
ssg62
Nsg55
(lp3708
g48
(g64
g50
NtRp3709
(dp3710
g53
(dp3711
sg62
g3705
sg55
(lp3712
g48
(g69
g50
NtRp3713
(dp3714
g53
(dp3715
sg62
g3709
sg55
(lp3716
g48
(g49
g50
NtRp3717
(dp3718
g53
(dp3719
g61
I1
ssg62
g3713
sg55
(lp3720
g3418
(S's\x0e\x00\x00\x00Hoja de estilo'
tRp3721
asbasbasbag48
(g64
g50
NtRp3722
(dp3723
g53
(dp3724
sg62
g3705
sg55
(lp3725
g48
(g69
g50
NtRp3726
(dp3727
g53
(dp3728
sg62
g3722
sg55
(lp3729
g48
(g49
g50
NtRp3730
(dp3731
g53
(dp3732
g61
I1
ssg62
g3726
sg55
(lp3733
I00
asbasbasbag48
(g64
g50
NtRp3734
(dp3735
g53
(dp3736
sg62
g3705
sg55
(lp3737
g48
(g69
g50
NtRp3738
(dp3739
g53
(dp3740
sg62
g3734
sg55
(lp3741
g48
(g49
g50
NtRp3742
(dp3743
g53
(dp3744
g61
I1
ssg62
g3738
sg55
(lp3745
S'/admin/default/edit/Desglosar_Emails/static/base.css'
p3746
asbasbasbasbasbasbasbag48
(g64
g50
NtRp3747
(dp3748
g53
(dp3749
sg62
g3527
sg55
(lp3750
g48
(g69
g50
NtRp3751
(dp3752
g53
(dp3753
sg62
g3747
sg55
(lp3754
g48
(g49
g50
NtRp3755
(dp3756
g53
(dp3757
g61
I2
ssg62
g3751
sg55
(lp3758
g48
(g57
g50
NtRp3759
(dp3760
g53
(dp3761
g61
I1
ssg62
Nsg55
(lp3762
g48
(g64
g50
NtRp3763
(dp3764
g53
(dp3765
sg62
g3759
sg55
(lp3766
g48
(g69
g50
NtRp3767
(dp3768
g53
(dp3769
sg62
g3763
sg55
(lp3770
g48
(g49
g50
NtRp3771
(dp3772
g53
(dp3773
g61
I1
ssg62
g3767
sg55
(lp3774
g3418
(S's\x0b\x00\x00\x00Modelo "db"'
tRp3775
asbasbasbag48
(g64
g50
NtRp3776
(dp3777
g53
(dp3778
sg62
g3759
sg55
(lp3779
g48
(g69
g50
NtRp3780
(dp3781
g53
(dp3782
sg62
g3776
sg55
(lp3783
g48
(g49
g50
NtRp3784
(dp3785
g53
(dp3786
g61
I1
ssg62
g3780
sg55
(lp3787
I00
asbasbasbag48
(g64
g50
NtRp3788
(dp3789
g53
(dp3790
sg62
g3759
sg55
(lp3791
g48
(g69
g50
NtRp3792
(dp3793
g53
(dp3794
sg62
g3788
sg55
(lp3795
g48
(g49
g50
NtRp3796
(dp3797
g53
(dp3798
g61
I1
ssg62
g3792
sg55
(lp3799
S'/admin/default/edit/Desglosar_Emails/models/db.py'
p3800
asbasbasbasbasbasbasbag48
(g64
g50
NtRp3801
(dp3802
g53
(dp3803
sg62
g3527
sg55
(lp3804
g48
(g69
g50
NtRp3805
(dp3806
g53
(dp3807
sg62
g3801
sg55
(lp3808
g48
(g49
g50
NtRp3809
(dp3810
g53
(dp3811
g61
I2
ssg62
g3805
sg55
(lp3812
g48
(g57
g50
NtRp3813
(dp3814
g53
(dp3815
g61
I1
ssg62
Nsg55
(lp3816
g48
(g64
g50
NtRp3817
(dp3818
g53
(dp3819
sg62
g3813
sg55
(lp3820
g48
(g69
g50
NtRp3821
(dp3822
g53
(dp3823
sg62
g3817
sg55
(lp3824
g48
(g49
g50
NtRp3825
(dp3826
g53
(dp3827
g61
I1
ssg62
g3821
sg55
(lp3828
g3418
(S's\r\x00\x00\x00Modelo "menu"'
tRp3829
asbasbasbag48
(g64
g50
NtRp3830
(dp3831
g53
(dp3832
sg62
g3813
sg55
(lp3833
g48
(g69
g50
NtRp3834
(dp3835
g53
(dp3836
sg62
g3830
sg55
(lp3837
g48
(g49
g50
NtRp3838
(dp3839
g53
(dp3840
g61
I1
ssg62
g3834
sg55
(lp3841
I00
asbasbasbag48
(g64
g50
NtRp3842
(dp3843
g53
(dp3844
sg62
g3813
sg55
(lp3845
g48
(g69
g50
NtRp3846
(dp3847
g53
(dp3848
sg62
g3842
sg55
(lp3849
g48
(g49
g50
NtRp3850
(dp3851
g53
(dp3852
g61
I1
ssg62
g3846
sg55
(lp3853
S'/admin/default/edit/Desglosar_Emails/models/menu.py'
p3854
asbasbasbasbasbasbasbag48
(g64
g50
NtRp3855
(dp3856
g53
(dp3857
sg62
g3527
sg55
(lp3858
g48
(g69
g50
NtRp3859
(dp3860
g53
(dp3861
sg62
g3855
sg55
(lp3862
g48
(g49
g50
NtRp3863
(dp3864
g53
(dp3865
g61
I2
ssg62
g3859
sg55
(lp3866
g48
(g57
g50
NtRp3867
(dp3868
g53
(dp3869
g61
I1
ssg62
Nsg55
(lp3870
g48
(g64
g50
NtRp3871
(dp3872
g53
(dp3873
sg62
g3867
sg55
(lp3874
g48
(g69
g50
NtRp3875
(dp3876
g53
(dp3877
sg62
g3871
sg55
(lp3878
g48
(g49
g50
NtRp3879
(dp3880
g53
(dp3881
g61
I1
ssg62
g3875
sg55
(lp3882
g3418
(S's\r\x00\x00\x00Base de datos'
tRp3883
asbasbasbag48
(g64
g50
NtRp3884
(dp3885
g53
(dp3886
sg62
g3867
sg55
(lp3887
g48
(g69
g50
NtRp3888
(dp3889
g53
(dp3890
sg62
g3884
sg55
(lp3891
g48
(g49
g50
NtRp3892
(dp3893
g53
(dp3894
g61
I1
ssg62
g3888
sg55
(lp3895
I00
asbasbasbag48
(g64
g50
NtRp3896
(dp3897
g53
(dp3898
sg62
g3867
sg55
(lp3899
g48
(g69
g50
NtRp3900
(dp3901
g53
(dp3902
sg62
g3896
sg55
(lp3903
g48
(g49
g50
NtRp3904
(dp3905
g53
(dp3906
g61
I1
ssg62
g3900
sg55
(lp3907
S'/Desglosar_Emails/appadmin/index'
p3908
asbasbasbasbasbasbasbag48
(g64
g50
NtRp3909
(dp3910
g53
(dp3911
sg62
g3527
sg55
(lp3912
g48
(g69
g50
NtRp3913
(dp3914
g53
(dp3915
sg62
g3909
sg55
(lp3916
g48
(g49
g50
NtRp3917
(dp3918
g53
(dp3919
g61
I2
ssg62
g3913
sg55
(lp3920
g48
(g57
g50
NtRp3921
(dp3922
g53
(dp3923
g61
I1
ssg62
Nsg55
(lp3924
g48
(g64
g50
NtRp3925
(dp3926
g53
(dp3927
sg62
g3921
sg55
(lp3928
g48
(g69
g50
NtRp3929
(dp3930
g53
(dp3931
sg62
g3925
sg55
(lp3932
g48
(g49
g50
NtRp3933
(dp3934
g53
(dp3935
g61
I1
ssg62
g3929
sg55
(lp3936
g3418
(S't\x06\x00\x00\x00Errors'
tRp3937
asbasbasbag48
(g64
g50
NtRp3938
(dp3939
g53
(dp3940
sg62
g3921
sg55
(lp3941
g48
(g69
g50
NtRp3942
(dp3943
g53
(dp3944
sg62
g3938
sg55
(lp3945
g48
(g49
g50
NtRp3946
(dp3947
g53
(dp3948
g61
I1
ssg62
g3942
sg55
(lp3949
I00
asbasbasbag48
(g64
g50
NtRp3950
(dp3951
g53
(dp3952
sg62
g3921
sg55
(lp3953
g48
(g69
g50
NtRp3954
(dp3955
g53
(dp3956
sg62
g3950
sg55
(lp3957
g48
(g49
g50
NtRp3958
(dp3959
g53
(dp3960
g61
I1
ssg62
g3954
sg55
(lp3961
S'/admin/default/errors/Desglosar_Emails'
p3962
asbasbasbasbasbasbasbag48
(g64
g50
NtRp3963
(dp3964
g53
(dp3965
sg62
g3527
sg55
(lp3966
g48
(g69
g50
NtRp3967
(dp3968
g53
(dp3969
sg62
g3963
sg55
(lp3970
g48
(g49
g50
NtRp3971
(dp3972
g53
(dp3973
g61
I2
ssg62
g3967
sg55
(lp3974
g48
(g57
g50
NtRp3975
(dp3976
g53
(dp3977
g61
I1
ssg62
Nsg55
(lp3978
g48
(g64
g50
NtRp3979
(dp3980
g53
(dp3981
sg62
g3975
sg55
(lp3982
g48
(g69
g50
NtRp3983
(dp3984
g53
(dp3985
sg62
g3979
sg55
(lp3986
g48
(g49
g50
NtRp3987
(dp3988
g53
(dp3989
g61
I1
ssg62
g3983
sg55
(lp3990
g3418
(S's\t\x00\x00\x00Acerca de'
tRp3991
asbasbasbag48
(g64
g50
NtRp3992
(dp3993
g53
(dp3994
sg62
g3975
sg55
(lp3995
g48
(g69
g50
NtRp3996
(dp3997
g53
(dp3998
sg62
g3992
sg55
(lp3999
g48
(g49
g50
NtRp4000
(dp4001
g53
(dp4002
g61
I1
ssg62
g3996
sg55
(lp4003
I00
asbasbasbag48
(g64
g50
NtRp4004
(dp4005
g53
(dp4006
sg62
g3975
sg55
(lp4007
g48
(g69
g50
NtRp4008
(dp4009
g53
(dp4010
sg62
g4004
sg55
(lp4011
g48
(g49
g50
NtRp4012
(dp4013
g53
(dp4014
g61
I1
ssg62
g4008
sg55
(lp4015
S'/admin/default/about/Desglosar_Emails'
p4016
asbasbasbasbasbasbasbasbasbasbasbasbasbasbasbag48
(g64
g50
NtRp4017
(dp4018
g53
(dp4019
sg62
g3386
sg55
(lp4020
g48
(g69
g50
NtRp4021
(dp4022
g53
(dp4023
sg62
g4017
sg55
(lp4024
g48
(g49
g50
NtRp4025
(dp4026
g53
(dp4027
g61
I4
ssg62
g4021
sg55
(lp4028
g48
(g57
g50
NtRp4029
(dp4030
g53
(dp4031
g61
I3
ssg62
Nsg55
(lp4032
g48
(g64
g50
NtRp4033
(dp4034
g53
(dp4035
sg62
g4029
sg55
(lp4036
g48
(g69
g50
NtRp4037
(dp4038
g53
(dp4039
sg62
g4033
sg55
(lp4040
g48
(g49
g50
NtRp4041
(dp4042
g53
(dp4043
g61
I3
ssg62
g4037
sg55
(lp4044
g3418
(S't\t\x00\x00\x00Resources'
tRp4045
asbasbasbag48
(g64
g50
NtRp4046
(dp4047
g53
(dp4048
sg62
g4029
sg55
(lp4049
g48
(g69
g50
NtRp4050
(dp4051
g53
(dp4052
sg62
g4046
sg55
(lp4053
g48
(g49
g50
NtRp4054
(dp4055
g53
(dp4056
g61
I3
ssg62
g4050
sg55
(lp4057
g91
asbasbasbag48
(g64
g50
NtRp4058
(dp4059
g53
(dp4060
sg62
g4029
sg55
(lp4061
g48
(g69
g50
NtRp4062
(dp4063
g53
(dp4064
sg62
g4058
sg55
(lp4065
g48
(g49
g50
NtRp4066
(dp4067
g53
(dp4068
g61
I3
ssg62
g4062
sg55
(lp4069
S'None'
p4070
asbasbasbag48
(g64
g50
NtRp4071
(dp4072
g53
(dp4073
sg62
g4029
sg55
(lp4074
g48
(g69
g50
NtRp4075
(dp4076
g53
(dp4077
sg62
g4071
sg55
(lp4078
g48
(g49
g50
NtRp4079
(dp4080
g53
(dp4081
g61
I3
ssg62
g4075
sg55
(lp4082
g48
(g57
g50
NtRp4083
(dp4084
g53
(dp4085
g61
I2
ssg62
Nsg55
(lp4086
g48
(g64
g50
NtRp4087
(dp4088
g53
(dp4089
sg62
g4083
sg55
(lp4090
g48
(g69
g50
NtRp4091
(dp4092
g53
(dp4093
sg62
g4087
sg55
(lp4094
g48
(g49
g50
NtRp4095
(dp4096
g53
(dp4097
g61
I2
ssg62
g4091
sg55
(lp4098
g48
(g57
g50
NtRp4099
(dp4100
g53
(dp4101
g61
I1
ssg62
Nsg55
(lp4102
g48
(g64
g50
NtRp4103
(dp4104
g53
(dp4105
sg62
g4099
sg55
(lp4106
g48
(g69
g50
NtRp4107
(dp4108
g53
(dp4109
sg62
g4103
sg55
(lp4110
g48
(g49
g50
NtRp4111
(dp4112
g53
(dp4113
g61
I1
ssg62
g4107
sg55
(lp4114
g3418
(S's\x0e\x00\x00\x00Documentaci\xc3\xb3n'
tRp4115
asbasbasbag48
(g64
g50
NtRp4116
(dp4117
g53
(dp4118
sg62
g4099
sg55
(lp4119
g48
(g69
g50
NtRp4120
(dp4121
g53
(dp4122
sg62
g4116
sg55
(lp4123
g48
(g49
g50
NtRp4124
(dp4125
g53
(dp4126
g61
I1
ssg62
g4120
sg55
(lp4127
I00
asbasbasbag48
(g64
g50
NtRp4128
(dp4129
g53
(dp4130
sg62
g4099
sg55
(lp4131
g48
(g69
g50
NtRp4132
(dp4133
g53
(dp4134
sg62
g4128
sg55
(lp4135
g48
(g49
g50
NtRp4136
(dp4137
g53
(dp4138
g61
I1
ssg62
g4132
sg55
(lp4139
S'http://www.web2py.com/book'
p4140
asbasbasbag48
(g64
g50
NtRp4141
(dp4142
g53
(dp4143
sg62
g4099
sg55
(lp4144
g48
(g69
g50
NtRp4145
(dp4146
g53
(dp4147
sg62
g4141
sg55
(lp4148
g48
(g49
g50
NtRp4149
(dp4150
g53
(dp4151
g61
I1
ssg62
g4145
sg55
(lp4152
(lp4153
(g3418
(S't\x07\x00\x00\x00Preface'
tRp4154
I00
S'http://www.web2py.com/book/default/chapter/00'
tp4155
a(g3418
(S't\x0c\x00\x00\x00Introduction'
tRp4156
I00
S'http://www.web2py.com/book/default/chapter/01'
tp4157
a(g3418
(S't\x06\x00\x00\x00Python'
tRp4158
I00
S'http://www.web2py.com/book/default/chapter/02'
tp4159
a(g3418
(S't\x08\x00\x00\x00Overview'
tRp4160
I00
S'http://www.web2py.com/book/default/chapter/03'
tp4161
a(g3418
(S's\x08\x00\x00\x00The Core'
tRp4162
I00
S'http://www.web2py.com/book/default/chapter/04'
tp4163
a(g3418
(S's\t\x00\x00\x00The Views'
tRp4164
I00
S'http://www.web2py.com/book/default/chapter/05'
tp4165
a(g3418
(S's\r\x00\x00\x00Base de datos'
tRp4166
I00
S'http://www.web2py.com/book/default/chapter/06'
tp4167
a(g3418
(S's\x14\x00\x00\x00Forms and Validators'
tRp4168
I00
S'http://www.web2py.com/book/default/chapter/07'
tp4169
a(g3418
(S's\x0e\x00\x00\x00Access Control'
tRp4170
I00
S'http://www.web2py.com/book/default/chapter/08'
tp4171
a(g3418
(S't\x08\x00\x00\x00Services'
tRp4172
I00
S'http://www.web2py.com/book/default/chapter/09'
tp4173
a(g3418
(S's\x0c\x00\x00\x00Ajax Recipes'
tRp4174
I00
S'http://www.web2py.com/book/default/chapter/10'
tp4175
a(g3418
(S's\x12\x00\x00\x00Deployment Recipes'
tRp4176
I00
S'http://www.web2py.com/book/default/chapter/11'
tp4177
a(g3418
(S's\r\x00\x00\x00Other Recipes'
tRp4178
I00
S'http://www.web2py.com/book/default/chapter/12'
tp4179
a(g3418
(S's\r\x00\x00\x00Buy this book'
tRp4180
I00
S'http://stores.lulu.com/web2py'
tp4181
aasbasbasbasbasbasbasbag48
(g64
g50
NtRp4182
(dp4183
g53
(dp4184
sg62
g4083
sg55
(lp4185
g48
(g69
g50
NtRp4186
(dp4187
g53
(dp4188
sg62
g4182
sg55
(lp4189
g48
(g49
g50
NtRp4190
(dp4191
g53
(dp4192
g61
I2
ssg62
g4186
sg55
(lp4193
g48
(g57
g50
NtRp4194
(dp4195
g53
(dp4196
g61
I1
ssg62
Nsg55
(lp4197
g48
(g64
g50
NtRp4198
(dp4199
g53
(dp4200
sg62
g4194
sg55
(lp4201
g48
(g69
g50
NtRp4202
(dp4203
g53
(dp4204
sg62
g4198
sg55
(lp4205
g48
(g49
g50
NtRp4206
(dp4207
g53
(dp4208
g61
I1
ssg62
g4202
sg55
(lp4209
g3418
(S't\t\x00\x00\x00Community'
tRp4210
asbasbasbag48
(g64
g50
NtRp4211
(dp4212
g53
(dp4213
sg62
g4194
sg55
(lp4214
g48
(g69
g50
NtRp4215
(dp4216
g53
(dp4217
sg62
g4211
sg55
(lp4218
g48
(g49
g50
NtRp4219
(dp4220
g53
(dp4221
g61
I1
ssg62
g4215
sg55
(lp4222
I00
asbasbasbag48
(g64
g50
NtRp4223
(dp4224
g53
(dp4225
sg62
g4194
sg55
(lp4226
g48
(g69
g50
NtRp4227
(dp4228
g53
(dp4229
sg62
g4223
sg55
(lp4230
g48
(g49
g50
NtRp4231
(dp4232
g53
(dp4233
g61
I1
ssg62
g4227
sg55
(lp4234
Nasbasbasbag48
(g64
g50
NtRp4235
(dp4236
g53
(dp4237
sg62
g4194
sg55
(lp4238
g48
(g69
g50
NtRp4239
(dp4240
g53
(dp4241
sg62
g4235
sg55
(lp4242
g48
(g49
g50
NtRp4243
(dp4244
g53
(dp4245
g61
I1
ssg62
g4239
sg55
(lp4246
(lp4247
(g3418
(S't\x06\x00\x00\x00Groups'
tRp4248
I00
S'http://www.web2py.com/examples/default/usergroups'
tp4249
a(g3418
(S't\x07\x00\x00\x00Twitter'
tRp4250
I00
S'http://twitter.com/web2py'
tp4251
a(g3418
(S's\t\x00\x00\x00Live chat'
tRp4252
I00
S'http://mibbit.com/?channel=%23web2py&server=irc.mibbit.net'
tp4253
a(g3418
(S's\n\x00\x00\x00User Voice'
tRp4254
I00
S'http://web2py.uservoice.com/'
tp4255
aasbasbasbasbasbasbasbag48
(g64
g50
NtRp4256
(dp4257
g53
(dp4258
sg62
g4083
sg55
(lp4259
g48
(g69
g50
NtRp4260
(dp4261
g53
(dp4262
sg62
g4256
sg55
(lp4263
g48
(g49
g50
NtRp4264
(dp4265
g53
(dp4266
g61
I2
ssg62
g4260
sg55
(lp4267
g48
(g57
g50
NtRp4268
(dp4269
g53
(dp4270
g61
I1
ssg62
Nsg55
(lp4271
g48
(g64
g50
NtRp4272
(dp4273
g53
(dp4274
sg62
g4268
sg55
(lp4275
g48
(g69
g50
NtRp4276
(dp4277
g53
(dp4278
sg62
g4272
sg55
(lp4279
g48
(g49
g50
NtRp4280
(dp4281
g53
(dp4282
g61
I1
ssg62
g4276
sg55
(lp4283
g3418
(S't\x06\x00\x00\x00Web2py'
tRp4284
asbasbasbag48
(g64
g50
NtRp4285
(dp4286
g53
(dp4287
sg62
g4268
sg55
(lp4288
g48
(g69
g50
NtRp4289
(dp4290
g53
(dp4291
sg62
g4285
sg55
(lp4292
g48
(g49
g50
NtRp4293
(dp4294
g53
(dp4295
g61
I1
ssg62
g4289
sg55
(lp4296
I00
asbasbasbag48
(g64
g50
NtRp4297
(dp4298
g53
(dp4299
sg62
g4268
sg55
(lp4300
g48
(g69
g50
NtRp4301
(dp4302
g53
(dp4303
sg62
g4297
sg55
(lp4304
g48
(g49
g50
NtRp4305
(dp4306
g53
(dp4307
g61
I1
ssg62
g4301
sg55
(lp4308
S'http://www.web2py.com'
p4309
asbasbasbag48
(g64
g50
NtRp4310
(dp4311
g53
(dp4312
sg62
g4268
sg55
(lp4313
g48
(g69
g50
NtRp4314
(dp4315
g53
(dp4316
sg62
g4310
sg55
(lp4317
g48
(g49
g50
NtRp4318
(dp4319
g53
(dp4320
g61
I1
ssg62
g4314
sg55
(lp4321
(lp4322
(g3418
(S't\x08\x00\x00\x00Download'
tRp4323
I00
S'http://www.web2py.com/examples/default/download'
tp4324
a(g3418
(S't\x07\x00\x00\x00Support'
tRp4325
I00
S'http://www.web2py.com/examples/default/support'
tp4326
a(g3418
(S's\x0e\x00\x00\x00Quick Examples'
tRp4327
I00
S'http://web2py.com/examples/default/examples'
tp4328
a(g3418
(S't\x03\x00\x00\x00FAQ'
tRp4329
I00
S'http://web2py.com/AlterEgo'
tp4330
a(g3418
(S's\x11\x00\x00\x00Free Applications'
tRp4331
I00
S'http://web2py.com/appliances'
tp4332
a(g3418
(S't\x07\x00\x00\x00Plugins'
tRp4333
I00
S'http://web2py.com/plugins'
tp4334
a(g3418
(S't\x07\x00\x00\x00Recipes'
tRp4335
I00
S'http://web2pyslices.com/'
tp4336
a(g3418
(S't\x04\x00\x00\x00Demo'
tRp4337
I00
S'http://web2py.com/demo_admin'
tp4338
a(g3418
(S't\x08\x00\x00\x00Semantic'
tRp4339
I00
S'http://web2py.com/semantic'
tp4340
a(g3418
(S't\x07\x00\x00\x00Layouts'
tRp4341
I00
S'http://web2py.com/layouts'
tp4342
a(g3418
(S't\x06\x00\x00\x00Videos'
tRp4343
I00
S'http://www.web2py.com/examples/default/videos/'
tp4344
aasbasbasbasbasbasbasbasbasbasbasbasbasbasbasbasbasbasbasbag48
(g64
g50
NtRp4345
(dp4346
g53
(dp4347
sg62
g2945
sg55
(lp4348
g48
(g69
g50
NtRp4349
(dp4350
g53
(dp4351
g73
g74
ssg62
g4345
sg55
(lp4352
S'meta'
p4353
asbag48
(g69
g50
NtRp4354
(dp4355
g53
(dp4356
g80
g81
ssg62
g4345
sg55
(lp4357
S':'
asbag48
(g69
g50
NtRp4358
(dp4359
g53
(dp4360
sg62
g4345
sg55
(lp4361
g48
(g49
g50
NtRp4362
(dp4363
g53
(dp4364
g61
I5
ssg62
g4358
sg55
(lp4365
g48
(g57
g50
NtRp4366
(dp4367
g53
(dp4368
g61
I4
ssg62
Nsg55
(lp4369
g48
(g64
g50
NtRp4370
(dp4371
g53
(dp4372
sg62
g4366
sg55
(lp4373
g48
(g69
g50
NtRp4374
(dp4375
g53
(dp4376
g73
g74
ssg62
g4370
sg55
(lp4377
S'author'
p4378
asbag48
(g69
g50
NtRp4379
(dp4380
g53
(dp4381
g80
g81
ssg62
g4370
sg55
(lp4382
S':'
asbag48
(g69
g50
NtRp4383
(dp4384
g53
(dp4385
sg62
g4370
sg55
(lp4386
g48
(g49
g50
NtRp4387
(dp4388
g53
(dp4389
g61
I4
ssg62
g4383
sg55
(lp4390
S'you'
p4391
asbasbasbag48
(g64
g50
NtRp4392
(dp4393
g53
(dp4394
sg62
g4366
sg55
(lp4395
g48
(g69
g50
NtRp4396
(dp4397
g53
(dp4398
g73
g74
ssg62
g4392
sg55
(lp4399
S'copyright'
p4400
asbag48
(g69
g50
NtRp4401
(dp4402
g53
(dp4403
g80
g81
ssg62
g4392
sg55
(lp4404
S':'
asbag48
(g69
g50
NtRp4405
(dp4406
g53
(dp4407
sg62
g4392
sg55
(lp4408
g48
(g49
g50
NtRp4409
(dp4410
g53
(dp4411
g61
I4
ssg62
g4405
sg55
(lp4412
S'Copyright 2007-2010'
p4413
asbasbasbag48
(g64
g50
NtRp4414
(dp4415
g53
(dp4416
sg62
g4366
sg55
(lp4417
g48
(g69
g50
NtRp4418
(dp4419
g53
(dp4420
g73
g74
ssg62
g4414
sg55
(lp4421
S'description'
p4422
asbag48
(g69
g50
NtRp4423
(dp4424
g53
(dp4425
g80
g81
ssg62
g4414
sg55
(lp4426
S':'
asbag48
(g69
g50
NtRp4427
(dp4428
g53
(dp4429
sg62
g4414
sg55
(lp4430
g48
(g49
g50
NtRp4431
(dp4432
g53
(dp4433
g61
I4
ssg62
g4427
sg55
(lp4434
S'Free and open source full-stack enterprise framework for agile development of fast, scalable, secure and portable database-driven web-based applications. Written and programmable in Python'
p4435
asbasbasbag48
(g64
g50
NtRp4436
(dp4437
g53
(dp4438
sg62
g4366
sg55
(lp4439
g48
(g69
g50
NtRp4440
(dp4441
g53
(dp4442
g73
g74
ssg62
g4436
sg55
(lp4443
S'generator'
p4444
asbag48
(g69
g50
NtRp4445
(dp4446
g53
(dp4447
g80
g81
ssg62
g4436
sg55
(lp4448
S':'
asbag48
(g69
g50
NtRp4449
(dp4450
g53
(dp4451
sg62
g4436
sg55
(lp4452
g48
(g49
g50
NtRp4453
(dp4454
g53
(dp4455
g61
I4
ssg62
g4449
sg55
(lp4456
S'Web2py Enterprise Framework'
p4457
asbasbasbag48
(g64
g50
NtRp4458
(dp4459
g53
(dp4460
sg62
g4366
sg55
(lp4461
g48
(g69
g50
NtRp4462
(dp4463
g53
(dp4464
g73
g74
ssg62
g4458
sg55
(lp4465
S'keywords'
p4466
asbag48
(g69
g50
NtRp4467
(dp4468
g53
(dp4469
g80
g81
ssg62
g4458
sg55
(lp4470
S':'
asbag48
(g69
g50
NtRp4471
(dp4472
g53
(dp4473
sg62
g4458
sg55
(lp4474
g48
(g49
g50
NtRp4475
(dp4476
g53
(dp4477
g61
I4
ssg62
g4471
sg55
(lp4478
S'web2py, python, framework'
p4479
asbasbasbasbasbasbasbag48
(g64
g50
NtRp4480
(dp4481
g53
(dp4482
sg62
g2945
sg55
(lp4483
g48
(g69
g50
NtRp4484
(dp4485
g53
(dp4486
g73
g74
ssg62
g4480
sg55
(lp4487
S'postprocessing'
p4488
asbag48
(g69
g50
NtRp4489
(dp4490
g53
(dp4491
g80
g81
ssg62
g4480
sg55
(lp4492
S':'
asbag48
(g69
g50
NtRp4493
(dp4494
g53
(dp4495
sg62
g4480
sg55
(lp4496
g48
(g49
g50
NtRp4497
(dp4498
g53
(dp4499
g61
I5
ssg62
g4493
sg55
(lp4500
g48
(g57
g50
NtRp4501
(dp4502
g53
(dp4503
g61
I4
ssg62
Nsg55
(lp4504
sbasbasbasbag48
(g64
g50
NtRp4505
(dp4506
g53
(dp4507
sg62
g2945
sg55
(lp4508
g48
(g69
g50
NtRp4509
(dp4510
g53
(dp4511
g73
g74
ssg62
g4505
sg55
(lp4512
S'session_file'
p4513
asbag48
(g69
g50
NtRp4514
(dp4515
g53
(dp4516
g80
g81
ssg62
g4505
sg55
(lp4517
S':'
asbag48
(g69
g50
NtRp4518
(dp4519
g53
(dp4520
sg62
g4505
sg55
(lp4521
g48
(g49
g50
NtRp4522
(dp4523
g53
(dp4524
g61
I5
ssg62
g4518
sg55
(lp4525
S"<open file 'C:\\Users\\Atomico\\web2py\\applications\\Desglosar_Emails\\sessions\\127.0.0.1-78cf8050-df87-4502-afb9-ed0c3843b414', mode 'rb+' at 0x07CC40B0>"
p4526
asbasbasbag48
(g64
g50
NtRp4527
(dp4528
g53
(dp4529
sg62
g2945
sg55
(lp4530
g48
(g69
g50
NtRp4531
(dp4532
g53
(dp4533
g73
g74
ssg62
g4527
sg55
(lp4534
S'session_filename'
p4535
asbag48
(g69
g50
NtRp4536
(dp4537
g53
(dp4538
g80
g81
ssg62
g4527
sg55
(lp4539
S':'
asbag48
(g69
g50
NtRp4540
(dp4541
g53
(dp4542
sg62
g4527
sg55
(lp4543
g48
(g49
g50
NtRp4544
(dp4545
g53
(dp4546
g61
I5
ssg62
g4540
sg55
(lp4547
S'C:\\Users\\Atomico\\web2py\\applications\\Desglosar_Emails\\sessions\\127.0.0.1-78cf8050-df87-4502-afb9-ed0c3843b414'
p4548
asbasbasbag48
(g64
g50
NtRp4549
(dp4550
g53
(dp4551
sg62
g2945
sg55
(lp4552
g48
(g69
g50
NtRp4553
(dp4554
g53
(dp4555
g73
g74
ssg62
g4549
sg55
(lp4556
S'session_id'
p4557
asbag48
(g69
g50
NtRp4558
(dp4559
g53
(dp4560
g80
g81
ssg62
g4549
sg55
(lp4561
S':'
asbag48
(g69
g50
NtRp4562
(dp4563
g53
(dp4564
sg62
g4549
sg55
(lp4565
g48
(g49
g50
NtRp4566
(dp4567
g53
(dp4568
g61
I5
ssg62
g4562
sg55
(lp4569
S'127.0.0.1-78cf8050-df87-4502-afb9-ed0c3843b414'
p4570
asbasbasbag48
(g64
g50
NtRp4571
(dp4572
g53
(dp4573
sg62
g2945
sg55
(lp4574
g48
(g69
g50
NtRp4575
(dp4576
g53
(dp4577
g73
g74
ssg62
g4571
sg55
(lp4578
S'session_id_name'
p4579
asbag48
(g69
g50
NtRp4580
(dp4581
g53
(dp4582
g80
g81
ssg62
g4571
sg55
(lp4583
S':'
asbag48
(g69
g50
NtRp4584
(dp4585
g53
(dp4586
sg62
g4571
sg55
(lp4587
g48
(g49
g50
NtRp4588
(dp4589
g53
(dp4590
g61
I5
ssg62
g4584
sg55
(lp4591
g3002
asbasbasbag48
(g64
g50
NtRp4592
(dp4593
g53
(dp4594
sg62
g2945
sg55
(lp4595
g48
(g69
g50
NtRp4596
(dp4597
g53
(dp4598
g73
g74
ssg62
g4592
sg55
(lp4599
S'session_locked'
p4600
asbag48
(g69
g50
NtRp4601
(dp4602
g53
(dp4603
g80
g81
ssg62
g4592
sg55
(lp4604
S':'
asbag48
(g69
g50
NtRp4605
(dp4606
g53
(dp4607
sg62
g4592
sg55
(lp4608
g48
(g49
g50
NtRp4609
(dp4610
g53
(dp4611
g61
I5
ssg62
g4605
sg55
(lp4612
g1851
asbasbasbag48
(g64
g50
NtRp4613
(dp4614
g53
(dp4615
sg62
g2945
sg55
(lp4616
g48
(g69
g50
NtRp4617
(dp4618
g53
(dp4619
g73
g74
ssg62
g4613
sg55
(lp4620
S'session_new'
p4621
asbag48
(g69
g50
NtRp4622
(dp4623
g53
(dp4624
g80
g81
ssg62
g4613
sg55
(lp4625
S':'
asbag48
(g69
g50
NtRp4626
(dp4627
g53
(dp4628
sg62
g4613
sg55
(lp4629
g48
(g49
g50
NtRp4630
(dp4631
g53
(dp4632
g61
I5
ssg62
g4626
sg55
(lp4633
g91
asbasbasbag48
(g64
g50
NtRp4634
(dp4635
g53
(dp4636
sg62
g2945
sg55
(lp4637
g48
(g69
g50
NtRp4638
(dp4639
g53
(dp4640
g73
g74
ssg62
g4634
sg55
(lp4641
S'status'
p4642
asbag48
(g69
g50
NtRp4643
(dp4644
g53
(dp4645
g80
g81
ssg62
g4634
sg55
(lp4646
S':'
asbag48
(g69
g50
NtRp4647
(dp4648
g53
(dp4649
sg62
g4634
sg55
(lp4650
g48
(g49
g50
NtRp4651
(dp4652
g53
(dp4653
g61
I5
ssg62
g4647
sg55
(lp4654
S'200'
p4655
asbasbasbag48
(g64
g50
NtRp4656
(dp4657
g53
(dp4658
sg62
g2945
sg55
(lp4659
g48
(g69
g50
NtRp4660
(dp4661
g53
(dp4662
g73
g74
ssg62
g4656
sg55
(lp4663
S'subtitle'
p4664
asbag48
(g69
g50
NtRp4665
(dp4666
g53
(dp4667
g80
g81
ssg62
g4656
sg55
(lp4668
S':'
asbag48
(g69
g50
NtRp4669
(dp4670
g53
(dp4671
sg62
g4656
sg55
(lp4672
g48
(g49
g50
NtRp4673
(dp4674
g53
(dp4675
g61
I5
ssg62
g4669
sg55
(lp4676
g3418
(S's\t\x00\x00\x00Adaptame!'
tRp4677
asbasbasbag48
(g64
g50
NtRp4678
(dp4679
g53
(dp4680
sg62
g2945
sg55
(lp4681
g48
(g69
g50
NtRp4682
(dp4683
g53
(dp4684
g73
g74
ssg62
g4678
sg55
(lp4685
S'title'
p4686
asbag48
(g69
g50
NtRp4687
(dp4688
g53
(dp4689
g80
g81
ssg62
g4678
sg55
(lp4690
S':'
asbag48
(g69
g50
NtRp4691
(dp4692
g53
(dp4693
sg62
g4678
sg55
(lp4694
g48
(g49
g50
NtRp4695
(dp4696
g53
(dp4697
g61
I5
ssg62
g4691
sg55
(lp4698
g113
asbasbasbag48
(g64
g50
NtRp4699
(dp4700
g53
(dp4701
sg62
g2945
sg55
(lp4702
g48
(g69
g50
NtRp4703
(dp4704
g53
(dp4705
g73
g74
ssg62
g4699
sg55
(lp4706
g2175
asbag48
(g69
g50
NtRp4707
(dp4708
g53
(dp4709
g80
g81
ssg62
g4699
sg55
(lp4710
S':'
asbag48
(g69
g50
NtRp4711
(dp4712
g53
(dp4713
sg62
g4699
sg55
(lp4714
g48
(g49
g50
NtRp4715
(dp4716
g53
(dp4717
g61
I5
ssg62
g4711
sg55
(lp4718
g2188
asbasbasbag48
(g64
g50
NtRp4719
(dp4720
g53
(dp4721
sg62
g2945
sg55
(lp4722
g48
(g69
g50
NtRp4723
(dp4724
g53
(dp4725
g73
g74
ssg62
g4719
sg55
(lp4726
S'view'
p4727
asbag48
(g69
g50
NtRp4728
(dp4729
g53
(dp4730
g80
g81
ssg62
g4719
sg55
(lp4731
S':'
asbag48
(g69
g50
NtRp4732
(dp4733
g53
(dp4734
sg62
g4719
sg55
(lp4735
g48
(g49
g50
NtRp4736
(dp4737
g53
(dp4738
g61
I5
ssg62
g4732
sg55
(lp4739
S'default/relaciones.html'
p4740
asbasbasbasbasbsS'locals'
p4741
(dp4742
S'form2'
p4743
S'<gluon.html.FORM object at 0x07A35450>'
p4744
sS'form'
p4745
S'<gluon.html.FORM object at 0x08333530>'
p4746
sssS'traceback'
p4747
S'Traceback (most recent call last):\n  File "gluon/restricted.py", line 192, in restricted\n  File "C:\\Users\\Atomico\\web2py\\applications\\Desglosar_Emails\\controllers/default.py", line 26, in <module>\n  File "gluon/globals.py", line 145, in <lambda>\n  File "C:\\Users\\Atomico\\web2py\\applications\\Desglosar_Emails\\controllers/default.py", line 24, in relaciones\nUnboundLocalError: local variable \'texto\' referenced before assignment\n'
p4748
s.