(dp1
S'output'
p2
S''
sS'layer'
p3
S'C:\\Users\\Atomico\\web2py\\applications\\Desglosar_Emails\\views\\default/entrada_mod2.html'
p4
sS'code'
p5
S'response.write(\'<!DOCTYPE html>\\n<html lang="\', escape=False)\nresponse.write(T.accepted_language or \'en\')\nresponse.write(\'" class="no-js"><!-- no-js need it for modernzr -->\\n  <head>\\n    \\n    <meta charset="utf-8" />\\t  \\t\\n    <!-- www.phpied.com/conditional-comments-block-downloads/ -->\\n    <!--[if IE]><![endif]-->    \\n    <!-- Always force latest IE rendering engine \\n\\t (even in intranet) & Chrome Frame \\n\\t Remove this if you use the .htaccess -->\\n    <meta http-equiv="X-UA-Compatible" content="IE=edge,chrome=1">\\n    \\n    <title>\', escape=False)\nresponse.write(response.title or request.application)\nresponse.write(\'</title>\\n    \\n    <!-- http://dev.w3.org/html5/markup/meta.name.html -->\\n    <meta name="application-name" content="\', escape=False)\nresponse.write(request.application)\nresponse.write(\'" />\\t\\n    \\n    <!-- Speaking of Google, don\\\'t forget to set your site up: \\n\\t http://google.com/webmasters -->\\n    <meta name="google-site-verification" content="" />\\n    \\n    <!--  Mobile Viewport Fix\\n\\t  j.mp/mobileviewport & davidbcalhoun.com/2010/viewport-metatag \\n\\t  device-width: Occupy full width of the screen in its current orientation\\n\\t  initial-scale = 1.0 retains dimensions instead of zooming out if page height > device height\\n\\t  maximum-scale = 1.0 retains dimensions instead of zooming in if page width < device width\\n      -->\\n    <meta name="viewport" content="width=device-width, initial-scale=1.0, maximum-scale=1.0">\\n    \\n    <!-- Place favicon.ico and apple-touch-icon.png in the root of your domain and delete these references -->\\n    <link rel="shortcut icon" href="\', escape=False)\nresponse.write(URL(\'static\',\'favicon.ico\'))\nresponse.write(\'" type="image/x-icon">\\n    <link rel="apple-touch-icon" href="\', escape=False)\nresponse.write(URL(\'static\',\'favicon.png\'))\nresponse.write(\'">\\n\\n    <!-- For the less-enabled mobile browsers like Opera Mini -->\\n    <link rel="stylesheet" media="handheld" href="\', escape=False)\nresponse.write(URL(\'static\',\'css/handheld.css\'))\nresponse.write(\'">\\n    \\n    <!-- All JavaScript at the bottom, except for Modernizr which enables HTML5 elements & feature detects -->\\n    <script src="\', escape=False)\nresponse.write(URL(\'static\',\'js/modernizr-1.7.min.js\'))\nresponse.write(\'"></script>\\n    \\n    \', escape=False)\n#------  require CSS and JS files for this page (read info in base.css) ------\nresponse.write(\'\\n    \', escape=False)\nresponse.files.append(URL(\'static\',\'css/base.css\'))\nresponse.write(\'\\n    \', escape=False)\nresponse.files.append(URL(\'static\',\'css/superfish.css\'))\nresponse.write(\'\\n    \', escape=False)\nresponse.files.append(URL(\'static\',\'js/superfish.js\'))\nresponse.write(\'\\n    \', escape=False)\n#------ include web2py specific js code (jquery, calendar, form stuff) ------\nresponse.write(\'\\n    \', escape=False)\nresponse.files.insert(0,URL(\'static\',\'js/jquery.js\'))\nresponse.files.insert(1,URL(\'static\',\'css/calendar.css\'))\nresponse.files.insert(2,URL(\'static\',\'js/calendar.js\'))\nfor _item in response.meta or []:\n    response.write(\'\\n     <meta name="\', escape=False)\n    response.write(_item)\n    response.write(\'" content="\', escape=False)\n    response.write(response.meta[_item])\n    response.write(\'" />\', escape=False)\n    pass\nfor _k,_file in enumerate(response.files or []):\n    if _file in response.files[:_k]:\n        continue\n    _file0=_file.lower().split(\'?\')[0]\n    if _file0.endswith(\'.css\'):\n        response.write(\'\\n     <link href="\', escape=False)\n        response.write(_file)\n        response.write(\'" rel="stylesheet" type="text/css" />\', escape=False)\n    elif _file0.endswith(\'.js\'):\n        response.write(\'\\n     <script src="\', escape=False)\n        response.write(_file)\n        response.write(\'" type="text/javascript"></script>\', escape=False)\n        pass\n    pass\nresponse.write(\'\\n    <script type="text/javascript"><!--\\n    // These variables are used by the web2py_ajax_init function in web2py_ajax.js (which is loaded below).\\n    var w2p_ajax_confirm_message = "\', escape=False)\nresponse.write(T(\'Are you sure you want to delete this object?\'))\nresponse.write(\'";\\n    var w2p_ajax_date_format = "\', escape=False)\nresponse.write(T(\'%Y-%m-%d\'))\nresponse.write(\'";\\n    var w2p_ajax_datetime_format = "\', escape=False)\nresponse.write(T(\'%Y-%m-%d %H:%M:%S\'))\nresponse.write(\'";\\n    //--></script>\\n    <script src="\', escape=False)\nresponse.write(URL(\'static\',\'js/web2py_ajax.js\'))\nresponse.write(\'" type="text/javascript"></script>\\n\', escape=False)\nresponse.write(\'\\n\\n    \', escape=False)\n#using sidebars need to know what sidebar you want to use\n#prior of using it, because of static width size of content, you can use\n#left_sidebar, right_sidebar, both or none (False left and right)\nleft_sidebar_enabled = globals().get(\'left_sidebar_enabled\',False)\nright_sidebar_enabled = globals().get(\'right_sidebar_enabled\',False)\nif left_sidebar_enabled and right_sidebar_enabled: width_content=\'63%\'\nelif left_sidebar_enabled != right_sidebar_enabled: width_content=\'740px\'\nelse: width_content=\'100%\'\nif left_sidebar_enabled: left_sidebar_style = \'style="display: block;"\'\nelse: left_sidebar_style = \'style="display: none;"\'\nif right_sidebar_enabled: right_sidebar_style = \'style="display: block;"\'\nelse: right_sidebar_style = \'style="display: none;"\'\nstyle_content = \'style="width: %s"\' % width_content\nresponse.write(\'\\n  </head>\\n  \\n  <!-- paulirish.com/2008/conditional-stylesheets-vs-css-hacks-answer-neither/ -->\\t\\n  <!--[if lt IE 7 ]> <body class="ie6"> <![endif]-->\\n  <!--[if IE 7 ]>    <body class="ie7"> <![endif]-->\\n  <!--[if IE 8 ]>    <body class="ie8"> <![endif]-->\\n  <!--[if IE 9 ]>    <body class="ie9"> <![endif]-->\\n  <!--[if (gt IE 9)|!(IE)]><!--> <body> <!--<![endif]-->\\n    \\n    <div class="flash">\', escape=False)\nresponse.write(response.flash or \'\')\nresponse.write(\'</div> <!-- notification div -->\\n    \\n    <div id="container">\\t      \\t\\t      \\t\\n      \\n      <div id="wrapper">\\t\\t\\n\\t\\n\\t<div id="header"> <!-- header and login nav -->\\n\\t  \', escape=False)\nresponse.write(\' <!-- this is default header -->\\n\\t  \', escape=False)\ntry:\n    response.write(auth.navbar(action=URL(\'default\',\'user\')))\nexcept:pass\nresponse.write(\'\\t\\t          \\n\\t  <h1><span id="appname">\', escape=False)\nresponse.write(request.application.capitalize())\nresponse.write(\'</span>App</h1>\\n\\t  <div style="clear: both;"></div><!-- Clear the divs -->\\n\\t  \', escape=False)\nresponse.write(\'\\t\\t\\t\\t  \\t\\t\\t\\t\\t  \\n\\t</div><!-- header  -->\\n\\t\\n\\t<div id="statusbar"><!-- statusbar is menu zone -->\\n\\t  \', escape=False)\nresponse.write(\' <!-- this is default statusbar -->\\n\\t  \', escape=False)\n#------ superfish menu ------\nresponse.write(\'\\n\\t  \', escape=False)\nresponse.write(MENU(response.menu,_class=\'sf-menu\'))\nresponse.write(\'\\n\\t  <script type="text/javascript">\\n\\t    jQuery(document).ready(function(){\\n\\t    jQuery(\\\'ul.sf-menu\\\').superfish();});\\n\\t  </script>\\n\\t  <div style="clear: both;"></div><!-- Clear the divs -->\\t\\n\\t  \', escape=False)\nresponse.write(\'\\t\\t\\t\\t\\n\\t</div><!-- statusbar -->\\n\\t\\n\\t<div id="page"> <!-- Here my central body -->\\t  \\n\\n\\t  \', escape=False)\nif left_sidebar_enabled:\n    response.write(\'\\n          <div id="left_sidebar" \', escape=False)\n    response.write(XML(left_sidebar_style))\n    response.write(\' >\\n            <div style="padding: 4px;">\\n\\t      \', escape=False)\n    response.write(\'Content Left Sidebar\', escape=False)\n    response.write(\'\\t\\t  \\n            </div>\\n          </div><!-- left_sidebar -->\\n\\t  \', escape=False)\n    pass\nresponse.write(\'\\n\\n\\t  <!-- content -->\\n\\t  <div id="content" \', escape=False)\nresponse.write(XML(style_content))\nresponse.write(\' >\\n\\t    \', escape=False)\nresponse.write(\'\\r\\n<h1>default/entrada_mod2.html</h1>\\r\\n<h2>Formulario</h2>\\r\\n\', escape=False)\nresponse.write(form)\nresponse.write(\'\\r\\n\\r\\n<h3>Tratamiento darle la longitud a cada elemento</h3>\\r\\n\', escape=False)\nrows=db().select(db.persona.ALL)\nresponse.write(rows)\nresponse.write(\'\\r\\nlen(db().select(db.persona.ALL) es \', escape=False)\nresponse.write(len(db().select(db.persona.ALL)))\nresponse.write(\'\\r\\n<br/>\\r\\nM\\xc3\\xa1s cosas: \\r\\n\', escape=False)\nultimo=db(db.persona.id==len(db().select(db.persona.ALL))).select()[0]\nresponse.write(ultimo.nombre)\nresponse.write(\'\\r\\n<br/>\\r\\nVoy a seleccionar todos los que est\\xc3\\xa9n por encima del 1975: \\r\\n\', escape=False)\npeople=db().select(db.persona.nombre,orderby=db.persona.nacimiento)\nfor i in range(len(people)):\n    response.write(i)\n    response.write(\' \')\n    response.write(people[i].nombre)\n    response.write(db[i].persona.nombre)\n    response.write("" <br> "")\n    pass\nresponse.write(\'\\r\\na\\r\\n\', escape=False)\nresponse.write(\'\\t\\n\\t  </div>\\n\\t  <!-- content -->\\n\\n\\t  \', escape=False)\nif right_sidebar_enabled:\n    response.write(\'\\n          <div id="right_sidebar" \', escape=False)\n    response.write(XML(right_sidebar_style))\n    response.write(\' >\\n            <div style="padding: 4px;">\\n              \', escape=False)\n    response.write(\'Content Right Sidebar\', escape=False)\n    response.write(\'\\n            </div>\\n\\t  </div><!-- right_sidebar -->\\n          \', escape=False)\n    pass\nresponse.write(\'\\n\\n\\n\\t  <div style="clear: both;"></div><!-- Clear the divs -->\\n\\t  \\n\\t</div><!-- page -->\\t\\t\\t\\t\\t\\t\\t\\n\\t\\n\\t<div id="footer">\\n\\t  \', escape=False)\nresponse.write(\' <!-- this is default footer -->\\n\\t  <a href="http://www.web2py.com/" style="float: left; padding-right: 6px;">\\n\\t    <img src="\', escape=False)\nresponse.write(URL(\'static\',\'images/poweredby.png\'))\nresponse.write(\'"/>\\n\\t  </a>\\n\\t  \', escape=False)\nresponse.write(T(\'Copyright\'))\nresponse.write(\' &#169; 2010\\t\\t\\t\\t\\n\\t  <div style="clear: both;"></div><!-- Clear the divs -->\\n\\t  \', escape=False)\nresponse.write(\'\\n\\n\\t</div><!-- footer -->\\t\\t\\t\\n      </div><!-- wrapper -->\\n    </div><!-- container -->\\t\\t\\n    \\n    <!--[if lt IE 7 ]>\\n\\t<script src="\', escape=False)\nresponse.write(URL(\'static\',\'js/dd_belatedpng.js\'))\nresponse.write(\'"></script>\\n\\t<script> DD_belatedPNG.fix(\\\'img, .png_bg\\\'); //fix any <img> or .png_bg background-images </script>\\n\\t<![endif]-->\\n    \\n    <!-- asynchronous google analytics: mathiasbynens.be/notes/async-analytics-snippet \\n\\t change the UA-XXXXX-X to be your site\\\'s ID -->\\n    <!--   \\n\\t   <script>\\n\\t     var _gaq = [[\\\'_setAccount\\\', \\\'UA-XXXXX-X\\\'], [\\\'_trackPageview\\\']];\\n\\t     (function(d, t) {\\n\\t     var g = d.createElement(t),\\n\\t     s = d.getElementsByTagName(t)[0];\\n\\t     g.async = true;\\n\\t     g.src = \\\'//www.google-analytics.com/ga.js\\\';\\n\\t     s.parentNode.insertBefore(g, s);\\n\\t     })(document, \\\'script\\\');\\n\\t   </script>\\n\\t   -->    \\n  </body>\\n</html>\\n\', escape=False)'
p6
sS'snapshot'
p7
(dp8
S'exception'
p9
(dp10
S'__hash__'
p11
S"<method-wrapper '__hash__' of exceptions.KeyError object at 0x0768F648>"
p12
sS'__setattr__'
p13
S"<method-wrapper '__setattr__' of exceptions.KeyError object at 0x0768F648>"
p14
sS'__reduce_ex__'
p15
S'<built-in method __reduce_ex__ of exceptions.KeyError object at 0x0768F648>'
p16
sS'__getslice__'
p17
S"<method-wrapper '__getslice__' of exceptions.KeyError object at 0x0768F648>"
p18
sS'__getitem__'
p19
S"<method-wrapper '__getitem__' of exceptions.KeyError object at 0x0768F648>"
p20
sS'__setstate__'
p21
S'<built-in method __setstate__ of exceptions.KeyError object at 0x0768F648>'
p22
sS'__reduce__'
p23
S'<built-in method __reduce__ of exceptions.KeyError object at 0x0768F648>'
p24
sS'__str__'
p25
S"<method-wrapper '__str__' of exceptions.KeyError object at 0x0768F648>"
p26
sS'args'
p27
S"('0',)"
p28
sS'__getattribute__'
p29
S"<method-wrapper '__getattribute__' of exceptions.KeyError object at 0x0768F648>"
p30
sS'__class__'
p31
S"<type 'exceptions.KeyError'>"
p32
sS'__delattr__'
p33
S"<method-wrapper '__delattr__' of exceptions.KeyError object at 0x0768F648>"
p34
sS'__repr__'
p35
S"<method-wrapper '__repr__' of exceptions.KeyError object at 0x0768F648>"
p36
sS'__dict__'
p37
S'{}'
p38
sS'__doc__'
p39
S"'Mapping key not found.'"
p40
sS'__init__'
p41
S"<method-wrapper '__init__' of exceptions.KeyError object at 0x0768F648>"
p42
sS'__new__'
p43
S'<built-in method __new__ of type object at 0x1E1CDFB8>'
p44
ssS'evalue'
p45
S"'0'"
p46
sS'request'
p47
ccopy_reg
_reconstructor
p48
(cgluon.html
BEAUTIFY
p49
c__builtin__
object
p50
NtRp51
(dp52
S'attributes'
p53
(dp54
sS'components'
p55
(lp56
g48
(cgluon.html
TABLE
p57
g50
NtRp58
(dp59
g53
(dp60
S'level'
p61
I5
ssS'parent'
p62
Nsg55
(lp63
g48
(cgluon.html
TR
p64
g50
NtRp65
(dp66
g53
(dp67
sg62
g58
sg55
(lp68
g48
(cgluon.html
TD
p69
g50
NtRp70
(dp71
g53
(dp72
S'_style'
p73
S'font-weight:bold;'
p74
ssg62
g65
sg55
(lp75
S'ajax'
p76
asbag48
(g69
g50
NtRp77
(dp78
g53
(dp79
S'_valign'
p80
S'top'
p81
ssg62
g65
sg55
(lp82
S':'
asbag48
(g69
g50
NtRp83
(dp84
g53
(dp85
sg62
g65
sg55
(lp86
g48
(g49
g50
NtRp87
(dp88
g53
(dp89
g61
I5
ssg62
g83
sg55
(lp90
S'False'
p91
asbasbasbag48
(g64
g50
NtRp92
(dp93
g53
(dp94
sg62
g58
sg55
(lp95
g48
(g69
g50
NtRp96
(dp97
g53
(dp98
g73
g74
ssg62
g92
sg55
(lp99
S'application'
p100
asbag48
(g69
g50
NtRp101
(dp102
g53
(dp103
g80
g81
ssg62
g92
sg55
(lp104
S':'
asbag48
(g69
g50
NtRp105
(dp106
g53
(dp107
sg62
g92
sg55
(lp108
g48
(g49
g50
NtRp109
(dp110
g53
(dp111
g61
I5
ssg62
g105
sg55
(lp112
S'Desglosar_Emails'
p113
asbasbasbag48
(g64
g50
NtRp114
(dp115
g53
(dp116
sg62
g58
sg55
(lp117
g48
(g69
g50
NtRp118
(dp119
g53
(dp120
g73
g74
ssg62
g114
sg55
(lp121
g27
asbag48
(g69
g50
NtRp122
(dp123
g53
(dp124
g80
g81
ssg62
g114
sg55
(lp125
S':'
asbag48
(g69
g50
NtRp126
(dp127
g53
(dp128
sg62
g114
sg55
(lp129
g48
(g49
g50
NtRp130
(dp131
g53
(dp132
g61
I5
ssg62
g126
sg55
(lp133
g48
(g57
g50
NtRp134
(dp135
g53
(dp136
g61
I4
ssg62
Nsg55
(lp137
sbasbasbasbag48
(g64
g50
NtRp138
(dp139
g53
(dp140
sg62
g58
sg55
(lp141
g48
(g69
g50
NtRp142
(dp143
g53
(dp144
g73
g74
ssg62
g138
sg55
(lp145
S'body'
p146
asbag48
(g69
g50
NtRp147
(dp148
g53
(dp149
g80
g81
ssg62
g138
sg55
(lp150
S':'
asbag48
(g69
g50
NtRp151
(dp152
g53
(dp153
sg62
g138
sg55
(lp154
g48
(g49
g50
NtRp155
(dp156
g53
(dp157
g61
I5
ssg62
g151
sg55
(lp158
S'<cStringIO.StringO object at 0x08E1B420>'
p159
asbasbasbag48
(g64
g50
NtRp160
(dp161
g53
(dp162
sg62
g58
sg55
(lp163
g48
(g69
g50
NtRp164
(dp165
g53
(dp166
g73
g74
ssg62
g160
sg55
(lp167
S'client'
p168
asbag48
(g69
g50
NtRp169
(dp170
g53
(dp171
g80
g81
ssg62
g160
sg55
(lp172
S':'
asbag48
(g69
g50
NtRp173
(dp174
g53
(dp175
sg62
g160
sg55
(lp176
g48
(g49
g50
NtRp177
(dp178
g53
(dp179
g61
I5
ssg62
g173
sg55
(lp180
S'127.0.0.1'
p181
asbasbasbag48
(g64
g50
NtRp182
(dp183
g53
(dp184
sg62
g58
sg55
(lp185
g48
(g69
g50
NtRp186
(dp187
g53
(dp188
g73
g74
ssg62
g182
sg55
(lp189
S'controller'
p190
asbag48
(g69
g50
NtRp191
(dp192
g53
(dp193
g80
g81
ssg62
g182
sg55
(lp194
S':'
asbag48
(g69
g50
NtRp195
(dp196
g53
(dp197
sg62
g182
sg55
(lp198
g48
(g49
g50
NtRp199
(dp200
g53
(dp201
g61
I5
ssg62
g195
sg55
(lp202
S'default'
p203
asbasbasbag48
(g64
g50
NtRp204
(dp205
g53
(dp206
sg62
g58
sg55
(lp207
g48
(g69
g50
NtRp208
(dp209
g53
(dp210
g73
g74
ssg62
g204
sg55
(lp211
S'cookies'
p212
asbag48
(g69
g50
NtRp213
(dp214
g53
(dp215
g80
g81
ssg62
g204
sg55
(lp216
S':'
asbag48
(g69
g50
NtRp217
(dp218
g53
(dp219
sg62
g204
sg55
(lp220
g48
(g49
g50
NtRp221
(dp222
g53
(dp223
g61
I5
ssg62
g217
sg55
(lp224
g48
(g57
g50
NtRp225
(dp226
g53
(dp227
g61
I4
ssg62
Nsg55
(lp228
g48
(g64
g50
NtRp229
(dp230
g53
(dp231
sg62
g225
sg55
(lp232
g48
(g69
g50
NtRp233
(dp234
g53
(dp235
g73
g74
ssg62
g229
sg55
(lp236
S'session_id_admin'
p237
asbag48
(g69
g50
NtRp238
(dp239
g53
(dp240
g80
g81
ssg62
g229
sg55
(lp241
S':'
asbag48
(g69
g50
NtRp242
(dp243
g53
(dp244
sg62
g229
sg55
(lp245
g48
(g49
g50
NtRp246
(dp247
g53
(dp248
g61
I4
ssg62
g242
sg55
(lp249
g48
(g57
g50
NtRp250
(dp251
g53
(dp252
g61
I3
ssg62
Nsg55
(lp253
g48
(g64
g50
NtRp254
(dp255
g53
(dp256
sg62
g250
sg55
(lp257
g48
(g69
g50
NtRp258
(dp259
g53
(dp260
g73
g74
ssg62
g254
sg55
(lp261
S'comment'
p262
asbag48
(g69
g50
NtRp263
(dp264
g53
(dp265
g80
g81
ssg62
g254
sg55
(lp266
S':'
asbag48
(g69
g50
NtRp267
(dp268
g53
(dp269
sg62
g254
sg55
(lp270
g48
(g49
g50
NtRp271
(dp272
g53
(dp273
g61
I3
ssg62
g267
sg55
(lp274
S''
asbasbasbag48
(g64
g50
NtRp275
(dp276
g53
(dp277
sg62
g250
sg55
(lp278
g48
(g69
g50
NtRp279
(dp280
g53
(dp281
g73
g74
ssg62
g275
sg55
(lp282
S'domain'
p283
asbag48
(g69
g50
NtRp284
(dp285
g53
(dp286
g80
g81
ssg62
g275
sg55
(lp287
S':'
asbag48
(g69
g50
NtRp288
(dp289
g53
(dp290
sg62
g275
sg55
(lp291
g48
(g49
g50
NtRp292
(dp293
g53
(dp294
g61
I3
ssg62
g288
sg55
(lp295
S''
asbasbasbag48
(g64
g50
NtRp296
(dp297
g53
(dp298
sg62
g250
sg55
(lp299
g48
(g69
g50
NtRp300
(dp301
g53
(dp302
g73
g74
ssg62
g296
sg55
(lp303
S'expires'
p304
asbag48
(g69
g50
NtRp305
(dp306
g53
(dp307
g80
g81
ssg62
g296
sg55
(lp308
S':'
asbag48
(g69
g50
NtRp309
(dp310
g53
(dp311
sg62
g296
sg55
(lp312
g48
(g49
g50
NtRp313
(dp314
g53
(dp315
g61
I3
ssg62
g309
sg55
(lp316
S''
asbasbasbag48
(g64
g50
NtRp317
(dp318
g53
(dp319
sg62
g250
sg55
(lp320
g48
(g69
g50
NtRp321
(dp322
g53
(dp323
g73
g74
ssg62
g317
sg55
(lp324
S'max-age'
p325
asbag48
(g69
g50
NtRp326
(dp327
g53
(dp328
g80
g81
ssg62
g317
sg55
(lp329
S':'
asbag48
(g69
g50
NtRp330
(dp331
g53
(dp332
sg62
g317
sg55
(lp333
g48
(g49
g50
NtRp334
(dp335
g53
(dp336
g61
I3
ssg62
g330
sg55
(lp337
S''
asbasbasbag48
(g64
g50
NtRp338
(dp339
g53
(dp340
sg62
g250
sg55
(lp341
g48
(g69
g50
NtRp342
(dp343
g53
(dp344
g73
g74
ssg62
g338
sg55
(lp345
S'path'
p346
asbag48
(g69
g50
NtRp347
(dp348
g53
(dp349
g80
g81
ssg62
g338
sg55
(lp350
S':'
asbag48
(g69
g50
NtRp351
(dp352
g53
(dp353
sg62
g338
sg55
(lp354
g48
(g49
g50
NtRp355
(dp356
g53
(dp357
g61
I3
ssg62
g351
sg55
(lp358
S''
asbasbasbag48
(g64
g50
NtRp359
(dp360
g53
(dp361
sg62
g250
sg55
(lp362
g48
(g69
g50
NtRp363
(dp364
g53
(dp365
g73
g74
ssg62
g359
sg55
(lp366
S'secure'
p367
asbag48
(g69
g50
NtRp368
(dp369
g53
(dp370
g80
g81
ssg62
g359
sg55
(lp371
S':'
asbag48
(g69
g50
NtRp372
(dp373
g53
(dp374
sg62
g359
sg55
(lp375
g48
(g49
g50
NtRp376
(dp377
g53
(dp378
g61
I3
ssg62
g372
sg55
(lp379
S''
asbasbasbag48
(g64
g50
NtRp380
(dp381
g53
(dp382
sg62
g250
sg55
(lp383
g48
(g69
g50
NtRp384
(dp385
g53
(dp386
g73
g74
ssg62
g380
sg55
(lp387
S'version'
p388
asbag48
(g69
g50
NtRp389
(dp390
g53
(dp391
g80
g81
ssg62
g380
sg55
(lp392
S':'
asbag48
(g69
g50
NtRp393
(dp394
g53
(dp395
sg62
g380
sg55
(lp396
g48
(g49
g50
NtRp397
(dp398
g53
(dp399
g61
I3
ssg62
g393
sg55
(lp400
S''
asbasbasbasbasbasbasbag48
(g64
g50
NtRp401
(dp402
g53
(dp403
sg62
g225
sg55
(lp404
g48
(g69
g50
NtRp405
(dp406
g53
(dp407
g73
g74
ssg62
g401
sg55
(lp408
S'session_id_cual_es_tu_nombre'
p409
asbag48
(g69
g50
NtRp410
(dp411
g53
(dp412
g80
g81
ssg62
g401
sg55
(lp413
S':'
asbag48
(g69
g50
NtRp414
(dp415
g53
(dp416
sg62
g401
sg55
(lp417
g48
(g49
g50
NtRp418
(dp419
g53
(dp420
g61
I4
ssg62
g414
sg55
(lp421
g48
(g57
g50
NtRp422
(dp423
g53
(dp424
g61
I3
ssg62
Nsg55
(lp425
g48
(g64
g50
NtRp426
(dp427
g53
(dp428
sg62
g422
sg55
(lp429
g48
(g69
g50
NtRp430
(dp431
g53
(dp432
g73
g74
ssg62
g426
sg55
(lp433
g262
asbag48
(g69
g50
NtRp434
(dp435
g53
(dp436
g80
g81
ssg62
g426
sg55
(lp437
S':'
asbag48
(g69
g50
NtRp438
(dp439
g53
(dp440
sg62
g426
sg55
(lp441
g48
(g49
g50
NtRp442
(dp443
g53
(dp444
g61
I3
ssg62
g438
sg55
(lp445
S''
asbasbasbag48
(g64
g50
NtRp446
(dp447
g53
(dp448
sg62
g422
sg55
(lp449
g48
(g69
g50
NtRp450
(dp451
g53
(dp452
g73
g74
ssg62
g446
sg55
(lp453
g283
asbag48
(g69
g50
NtRp454
(dp455
g53
(dp456
g80
g81
ssg62
g446
sg55
(lp457
S':'
asbag48
(g69
g50
NtRp458
(dp459
g53
(dp460
sg62
g446
sg55
(lp461
g48
(g49
g50
NtRp462
(dp463
g53
(dp464
g61
I3
ssg62
g458
sg55
(lp465
S''
asbasbasbag48
(g64
g50
NtRp466
(dp467
g53
(dp468
sg62
g422
sg55
(lp469
g48
(g69
g50
NtRp470
(dp471
g53
(dp472
g73
g74
ssg62
g466
sg55
(lp473
g304
asbag48
(g69
g50
NtRp474
(dp475
g53
(dp476
g80
g81
ssg62
g466
sg55
(lp477
S':'
asbag48
(g69
g50
NtRp478
(dp479
g53
(dp480
sg62
g466
sg55
(lp481
g48
(g49
g50
NtRp482
(dp483
g53
(dp484
g61
I3
ssg62
g478
sg55
(lp485
S''
asbasbasbag48
(g64
g50
NtRp486
(dp487
g53
(dp488
sg62
g422
sg55
(lp489
g48
(g69
g50
NtRp490
(dp491
g53
(dp492
g73
g74
ssg62
g486
sg55
(lp493
g325
asbag48
(g69
g50
NtRp494
(dp495
g53
(dp496
g80
g81
ssg62
g486
sg55
(lp497
S':'
asbag48
(g69
g50
NtRp498
(dp499
g53
(dp500
sg62
g486
sg55
(lp501
g48
(g49
g50
NtRp502
(dp503
g53
(dp504
g61
I3
ssg62
g498
sg55
(lp505
S''
asbasbasbag48
(g64
g50
NtRp506
(dp507
g53
(dp508
sg62
g422
sg55
(lp509
g48
(g69
g50
NtRp510
(dp511
g53
(dp512
g73
g74
ssg62
g506
sg55
(lp513
g346
asbag48
(g69
g50
NtRp514
(dp515
g53
(dp516
g80
g81
ssg62
g506
sg55
(lp517
S':'
asbag48
(g69
g50
NtRp518
(dp519
g53
(dp520
sg62
g506
sg55
(lp521
g48
(g49
g50
NtRp522
(dp523
g53
(dp524
g61
I3
ssg62
g518
sg55
(lp525
S''
asbasbasbag48
(g64
g50
NtRp526
(dp527
g53
(dp528
sg62
g422
sg55
(lp529
g48
(g69
g50
NtRp530
(dp531
g53
(dp532
g73
g74
ssg62
g526
sg55
(lp533
g367
asbag48
(g69
g50
NtRp534
(dp535
g53
(dp536
g80
g81
ssg62
g526
sg55
(lp537
S':'
asbag48
(g69
g50
NtRp538
(dp539
g53
(dp540
sg62
g526
sg55
(lp541
g48
(g49
g50
NtRp542
(dp543
g53
(dp544
g61
I3
ssg62
g538
sg55
(lp545
S''
asbasbasbag48
(g64
g50
NtRp546
(dp547
g53
(dp548
sg62
g422
sg55
(lp549
g48
(g69
g50
NtRp550
(dp551
g53
(dp552
g73
g74
ssg62
g546
sg55
(lp553
g388
asbag48
(g69
g50
NtRp554
(dp555
g53
(dp556
g80
g81
ssg62
g546
sg55
(lp557
S':'
asbag48
(g69
g50
NtRp558
(dp559
g53
(dp560
sg62
g546
sg55
(lp561
g48
(g49
g50
NtRp562
(dp563
g53
(dp564
g61
I3
ssg62
g558
sg55
(lp565
S''
asbasbasbasbasbasbasbag48
(g64
g50
NtRp566
(dp567
g53
(dp568
sg62
g225
sg55
(lp569
g48
(g69
g50
NtRp570
(dp571
g53
(dp572
g73
g74
ssg62
g566
sg55
(lp573
S'session_id_desglosar_emails'
p574
asbag48
(g69
g50
NtRp575
(dp576
g53
(dp577
g80
g81
ssg62
g566
sg55
(lp578
S':'
asbag48
(g69
g50
NtRp579
(dp580
g53
(dp581
sg62
g566
sg55
(lp582
g48
(g49
g50
NtRp583
(dp584
g53
(dp585
g61
I4
ssg62
g579
sg55
(lp586
g48
(g57
g50
NtRp587
(dp588
g53
(dp589
g61
I3
ssg62
Nsg55
(lp590
g48
(g64
g50
NtRp591
(dp592
g53
(dp593
sg62
g587
sg55
(lp594
g48
(g69
g50
NtRp595
(dp596
g53
(dp597
g73
g74
ssg62
g591
sg55
(lp598
g262
asbag48
(g69
g50
NtRp599
(dp600
g53
(dp601
g80
g81
ssg62
g591
sg55
(lp602
S':'
asbag48
(g69
g50
NtRp603
(dp604
g53
(dp605
sg62
g591
sg55
(lp606
g48
(g49
g50
NtRp607
(dp608
g53
(dp609
g61
I3
ssg62
g603
sg55
(lp610
S''
asbasbasbag48
(g64
g50
NtRp611
(dp612
g53
(dp613
sg62
g587
sg55
(lp614
g48
(g69
g50
NtRp615
(dp616
g53
(dp617
g73
g74
ssg62
g611
sg55
(lp618
g283
asbag48
(g69
g50
NtRp619
(dp620
g53
(dp621
g80
g81
ssg62
g611
sg55
(lp622
S':'
asbag48
(g69
g50
NtRp623
(dp624
g53
(dp625
sg62
g611
sg55
(lp626
g48
(g49
g50
NtRp627
(dp628
g53
(dp629
g61
I3
ssg62
g623
sg55
(lp630
S''
asbasbasbag48
(g64
g50
NtRp631
(dp632
g53
(dp633
sg62
g587
sg55
(lp634
g48
(g69
g50
NtRp635
(dp636
g53
(dp637
g73
g74
ssg62
g631
sg55
(lp638
g304
asbag48
(g69
g50
NtRp639
(dp640
g53
(dp641
g80
g81
ssg62
g631
sg55
(lp642
S':'
asbag48
(g69
g50
NtRp643
(dp644
g53
(dp645
sg62
g631
sg55
(lp646
g48
(g49
g50
NtRp647
(dp648
g53
(dp649
g61
I3
ssg62
g643
sg55
(lp650
S''
asbasbasbag48
(g64
g50
NtRp651
(dp652
g53
(dp653
sg62
g587
sg55
(lp654
g48
(g69
g50
NtRp655
(dp656
g53
(dp657
g73
g74
ssg62
g651
sg55
(lp658
g325
asbag48
(g69
g50
NtRp659
(dp660
g53
(dp661
g80
g81
ssg62
g651
sg55
(lp662
S':'
asbag48
(g69
g50
NtRp663
(dp664
g53
(dp665
sg62
g651
sg55
(lp666
g48
(g49
g50
NtRp667
(dp668
g53
(dp669
g61
I3
ssg62
g663
sg55
(lp670
S''
asbasbasbag48
(g64
g50
NtRp671
(dp672
g53
(dp673
sg62
g587
sg55
(lp674
g48
(g69
g50
NtRp675
(dp676
g53
(dp677
g73
g74
ssg62
g671
sg55
(lp678
g346
asbag48
(g69
g50
NtRp679
(dp680
g53
(dp681
g80
g81
ssg62
g671
sg55
(lp682
S':'
asbag48
(g69
g50
NtRp683
(dp684
g53
(dp685
sg62
g671
sg55
(lp686
g48
(g49
g50
NtRp687
(dp688
g53
(dp689
g61
I3
ssg62
g683
sg55
(lp690
S''
asbasbasbag48
(g64
g50
NtRp691
(dp692
g53
(dp693
sg62
g587
sg55
(lp694
g48
(g69
g50
NtRp695
(dp696
g53
(dp697
g73
g74
ssg62
g691
sg55
(lp698
g367
asbag48
(g69
g50
NtRp699
(dp700
g53
(dp701
g80
g81
ssg62
g691
sg55
(lp702
S':'
asbag48
(g69
g50
NtRp703
(dp704
g53
(dp705
sg62
g691
sg55
(lp706
g48
(g49
g50
NtRp707
(dp708
g53
(dp709
g61
I3
ssg62
g703
sg55
(lp710
S''
asbasbasbag48
(g64
g50
NtRp711
(dp712
g53
(dp713
sg62
g587
sg55
(lp714
g48
(g69
g50
NtRp715
(dp716
g53
(dp717
g73
g74
ssg62
g711
sg55
(lp718
g388
asbag48
(g69
g50
NtRp719
(dp720
g53
(dp721
g80
g81
ssg62
g711
sg55
(lp722
S':'
asbag48
(g69
g50
NtRp723
(dp724
g53
(dp725
sg62
g711
sg55
(lp726
g48
(g49
g50
NtRp727
(dp728
g53
(dp729
g61
I3
ssg62
g723
sg55
(lp730
S''
asbasbasbasbasbasbasbag48
(g64
g50
NtRp731
(dp732
g53
(dp733
sg62
g225
sg55
(lp734
g48
(g69
g50
NtRp735
(dp736
g53
(dp737
g73
g74
ssg62
g731
sg55
(lp738
S'session_id_hemoal'
p739
asbag48
(g69
g50
NtRp740
(dp741
g53
(dp742
g80
g81
ssg62
g731
sg55
(lp743
S':'
asbag48
(g69
g50
NtRp744
(dp745
g53
(dp746
sg62
g731
sg55
(lp747
g48
(g49
g50
NtRp748
(dp749
g53
(dp750
g61
I4
ssg62
g744
sg55
(lp751
g48
(g57
g50
NtRp752
(dp753
g53
(dp754
g61
I3
ssg62
Nsg55
(lp755
g48
(g64
g50
NtRp756
(dp757
g53
(dp758
sg62
g752
sg55
(lp759
g48
(g69
g50
NtRp760
(dp761
g53
(dp762
g73
g74
ssg62
g756
sg55
(lp763
g262
asbag48
(g69
g50
NtRp764
(dp765
g53
(dp766
g80
g81
ssg62
g756
sg55
(lp767
S':'
asbag48
(g69
g50
NtRp768
(dp769
g53
(dp770
sg62
g756
sg55
(lp771
g48
(g49
g50
NtRp772
(dp773
g53
(dp774
g61
I3
ssg62
g768
sg55
(lp775
S''
asbasbasbag48
(g64
g50
NtRp776
(dp777
g53
(dp778
sg62
g752
sg55
(lp779
g48
(g69
g50
NtRp780
(dp781
g53
(dp782
g73
g74
ssg62
g776
sg55
(lp783
g283
asbag48
(g69
g50
NtRp784
(dp785
g53
(dp786
g80
g81
ssg62
g776
sg55
(lp787
S':'
asbag48
(g69
g50
NtRp788
(dp789
g53
(dp790
sg62
g776
sg55
(lp791
g48
(g49
g50
NtRp792
(dp793
g53
(dp794
g61
I3
ssg62
g788
sg55
(lp795
S''
asbasbasbag48
(g64
g50
NtRp796
(dp797
g53
(dp798
sg62
g752
sg55
(lp799
g48
(g69
g50
NtRp800
(dp801
g53
(dp802
g73
g74
ssg62
g796
sg55
(lp803
g304
asbag48
(g69
g50
NtRp804
(dp805
g53
(dp806
g80
g81
ssg62
g796
sg55
(lp807
S':'
asbag48
(g69
g50
NtRp808
(dp809
g53
(dp810
sg62
g796
sg55
(lp811
g48
(g49
g50
NtRp812
(dp813
g53
(dp814
g61
I3
ssg62
g808
sg55
(lp815
S''
asbasbasbag48
(g64
g50
NtRp816
(dp817
g53
(dp818
sg62
g752
sg55
(lp819
g48
(g69
g50
NtRp820
(dp821
g53
(dp822
g73
g74
ssg62
g816
sg55
(lp823
g325
asbag48
(g69
g50
NtRp824
(dp825
g53
(dp826
g80
g81
ssg62
g816
sg55
(lp827
S':'
asbag48
(g69
g50
NtRp828
(dp829
g53
(dp830
sg62
g816
sg55
(lp831
g48
(g49
g50
NtRp832
(dp833
g53
(dp834
g61
I3
ssg62
g828
sg55
(lp835
S''
asbasbasbag48
(g64
g50
NtRp836
(dp837
g53
(dp838
sg62
g752
sg55
(lp839
g48
(g69
g50
NtRp840
(dp841
g53
(dp842
g73
g74
ssg62
g836
sg55
(lp843
g346
asbag48
(g69
g50
NtRp844
(dp845
g53
(dp846
g80
g81
ssg62
g836
sg55
(lp847
S':'
asbag48
(g69
g50
NtRp848
(dp849
g53
(dp850
sg62
g836
sg55
(lp851
g48
(g49
g50
NtRp852
(dp853
g53
(dp854
g61
I3
ssg62
g848
sg55
(lp855
S''
asbasbasbag48
(g64
g50
NtRp856
(dp857
g53
(dp858
sg62
g752
sg55
(lp859
g48
(g69
g50
NtRp860
(dp861
g53
(dp862
g73
g74
ssg62
g856
sg55
(lp863
g367
asbag48
(g69
g50
NtRp864
(dp865
g53
(dp866
g80
g81
ssg62
g856
sg55
(lp867
S':'
asbag48
(g69
g50
NtRp868
(dp869
g53
(dp870
sg62
g856
sg55
(lp871
g48
(g49
g50
NtRp872
(dp873
g53
(dp874
g61
I3
ssg62
g868
sg55
(lp875
S''
asbasbasbag48
(g64
g50
NtRp876
(dp877
g53
(dp878
sg62
g752
sg55
(lp879
g48
(g69
g50
NtRp880
(dp881
g53
(dp882
g73
g74
ssg62
g876
sg55
(lp883
g388
asbag48
(g69
g50
NtRp884
(dp885
g53
(dp886
g80
g81
ssg62
g876
sg55
(lp887
S':'
asbag48
(g69
g50
NtRp888
(dp889
g53
(dp890
sg62
g876
sg55
(lp891
g48
(g49
g50
NtRp892
(dp893
g53
(dp894
g61
I3
ssg62
g888
sg55
(lp895
S''
asbasbasbasbasbasbasbag48
(g64
g50
NtRp896
(dp897
g53
(dp898
sg62
g225
sg55
(lp899
g48
(g69
g50
NtRp900
(dp901
g53
(dp902
g73
g74
ssg62
g896
sg55
(lp903
S'session_id_listado_1'
p904
asbag48
(g69
g50
NtRp905
(dp906
g53
(dp907
g80
g81
ssg62
g896
sg55
(lp908
S':'
asbag48
(g69
g50
NtRp909
(dp910
g53
(dp911
sg62
g896
sg55
(lp912
g48
(g49
g50
NtRp913
(dp914
g53
(dp915
g61
I4
ssg62
g909
sg55
(lp916
g48
(g57
g50
NtRp917
(dp918
g53
(dp919
g61
I3
ssg62
Nsg55
(lp920
g48
(g64
g50
NtRp921
(dp922
g53
(dp923
sg62
g917
sg55
(lp924
g48
(g69
g50
NtRp925
(dp926
g53
(dp927
g73
g74
ssg62
g921
sg55
(lp928
g262
asbag48
(g69
g50
NtRp929
(dp930
g53
(dp931
g80
g81
ssg62
g921
sg55
(lp932
S':'
asbag48
(g69
g50
NtRp933
(dp934
g53
(dp935
sg62
g921
sg55
(lp936
g48
(g49
g50
NtRp937
(dp938
g53
(dp939
g61
I3
ssg62
g933
sg55
(lp940
S''
asbasbasbag48
(g64
g50
NtRp941
(dp942
g53
(dp943
sg62
g917
sg55
(lp944
g48
(g69
g50
NtRp945
(dp946
g53
(dp947
g73
g74
ssg62
g941
sg55
(lp948
g283
asbag48
(g69
g50
NtRp949
(dp950
g53
(dp951
g80
g81
ssg62
g941
sg55
(lp952
S':'
asbag48
(g69
g50
NtRp953
(dp954
g53
(dp955
sg62
g941
sg55
(lp956
g48
(g49
g50
NtRp957
(dp958
g53
(dp959
g61
I3
ssg62
g953
sg55
(lp960
S''
asbasbasbag48
(g64
g50
NtRp961
(dp962
g53
(dp963
sg62
g917
sg55
(lp964
g48
(g69
g50
NtRp965
(dp966
g53
(dp967
g73
g74
ssg62
g961
sg55
(lp968
g304
asbag48
(g69
g50
NtRp969
(dp970
g53
(dp971
g80
g81
ssg62
g961
sg55
(lp972
S':'
asbag48
(g69
g50
NtRp973
(dp974
g53
(dp975
sg62
g961
sg55
(lp976
g48
(g49
g50
NtRp977
(dp978
g53
(dp979
g61
I3
ssg62
g973
sg55
(lp980
S''
asbasbasbag48
(g64
g50
NtRp981
(dp982
g53
(dp983
sg62
g917
sg55
(lp984
g48
(g69
g50
NtRp985
(dp986
g53
(dp987
g73
g74
ssg62
g981
sg55
(lp988
g325
asbag48
(g69
g50
NtRp989
(dp990
g53
(dp991
g80
g81
ssg62
g981
sg55
(lp992
S':'
asbag48
(g69
g50
NtRp993
(dp994
g53
(dp995
sg62
g981
sg55
(lp996
g48
(g49
g50
NtRp997
(dp998
g53
(dp999
g61
I3
ssg62
g993
sg55
(lp1000
S''
asbasbasbag48
(g64
g50
NtRp1001
(dp1002
g53
(dp1003
sg62
g917
sg55
(lp1004
g48
(g69
g50
NtRp1005
(dp1006
g53
(dp1007
g73
g74
ssg62
g1001
sg55
(lp1008
g346
asbag48
(g69
g50
NtRp1009
(dp1010
g53
(dp1011
g80
g81
ssg62
g1001
sg55
(lp1012
S':'
asbag48
(g69
g50
NtRp1013
(dp1014
g53
(dp1015
sg62
g1001
sg55
(lp1016
g48
(g49
g50
NtRp1017
(dp1018
g53
(dp1019
g61
I3
ssg62
g1013
sg55
(lp1020
S''
asbasbasbag48
(g64
g50
NtRp1021
(dp1022
g53
(dp1023
sg62
g917
sg55
(lp1024
g48
(g69
g50
NtRp1025
(dp1026
g53
(dp1027
g73
g74
ssg62
g1021
sg55
(lp1028
g367
asbag48
(g69
g50
NtRp1029
(dp1030
g53
(dp1031
g80
g81
ssg62
g1021
sg55
(lp1032
S':'
asbag48
(g69
g50
NtRp1033
(dp1034
g53
(dp1035
sg62
g1021
sg55
(lp1036
g48
(g49
g50
NtRp1037
(dp1038
g53
(dp1039
g61
I3
ssg62
g1033
sg55
(lp1040
S''
asbasbasbag48
(g64
g50
NtRp1041
(dp1042
g53
(dp1043
sg62
g917
sg55
(lp1044
g48
(g69
g50
NtRp1045
(dp1046
g53
(dp1047
g73
g74
ssg62
g1041
sg55
(lp1048
g388
asbag48
(g69
g50
NtRp1049
(dp1050
g53
(dp1051
g80
g81
ssg62
g1041
sg55
(lp1052
S':'
asbag48
(g69
g50
NtRp1053
(dp1054
g53
(dp1055
sg62
g1041
sg55
(lp1056
g48
(g49
g50
NtRp1057
(dp1058
g53
(dp1059
g61
I3
ssg62
g1053
sg55
(lp1060
S''
asbasbasbasbasbasbasbag48
(g64
g50
NtRp1061
(dp1062
g53
(dp1063
sg62
g225
sg55
(lp1064
g48
(g69
g50
NtRp1065
(dp1066
g53
(dp1067
g73
g74
ssg62
g1061
sg55
(lp1068
S'session_id_myappjav'
p1069
asbag48
(g69
g50
NtRp1070
(dp1071
g53
(dp1072
g80
g81
ssg62
g1061
sg55
(lp1073
S':'
asbag48
(g69
g50
NtRp1074
(dp1075
g53
(dp1076
sg62
g1061
sg55
(lp1077
g48
(g49
g50
NtRp1078
(dp1079
g53
(dp1080
g61
I4
ssg62
g1074
sg55
(lp1081
g48
(g57
g50
NtRp1082
(dp1083
g53
(dp1084
g61
I3
ssg62
Nsg55
(lp1085
g48
(g64
g50
NtRp1086
(dp1087
g53
(dp1088
sg62
g1082
sg55
(lp1089
g48
(g69
g50
NtRp1090
(dp1091
g53
(dp1092
g73
g74
ssg62
g1086
sg55
(lp1093
g262
asbag48
(g69
g50
NtRp1094
(dp1095
g53
(dp1096
g80
g81
ssg62
g1086
sg55
(lp1097
S':'
asbag48
(g69
g50
NtRp1098
(dp1099
g53
(dp1100
sg62
g1086
sg55
(lp1101
g48
(g49
g50
NtRp1102
(dp1103
g53
(dp1104
g61
I3
ssg62
g1098
sg55
(lp1105
S''
asbasbasbag48
(g64
g50
NtRp1106
(dp1107
g53
(dp1108
sg62
g1082
sg55
(lp1109
g48
(g69
g50
NtRp1110
(dp1111
g53
(dp1112
g73
g74
ssg62
g1106
sg55
(lp1113
g283
asbag48
(g69
g50
NtRp1114
(dp1115
g53
(dp1116
g80
g81
ssg62
g1106
sg55
(lp1117
S':'
asbag48
(g69
g50
NtRp1118
(dp1119
g53
(dp1120
sg62
g1106
sg55
(lp1121
g48
(g49
g50
NtRp1122
(dp1123
g53
(dp1124
g61
I3
ssg62
g1118
sg55
(lp1125
S''
asbasbasbag48
(g64
g50
NtRp1126
(dp1127
g53
(dp1128
sg62
g1082
sg55
(lp1129
g48
(g69
g50
NtRp1130
(dp1131
g53
(dp1132
g73
g74
ssg62
g1126
sg55
(lp1133
g304
asbag48
(g69
g50
NtRp1134
(dp1135
g53
(dp1136
g80
g81
ssg62
g1126
sg55
(lp1137
S':'
asbag48
(g69
g50
NtRp1138
(dp1139
g53
(dp1140
sg62
g1126
sg55
(lp1141
g48
(g49
g50
NtRp1142
(dp1143
g53
(dp1144
g61
I3
ssg62
g1138
sg55
(lp1145
S''
asbasbasbag48
(g64
g50
NtRp1146
(dp1147
g53
(dp1148
sg62
g1082
sg55
(lp1149
g48
(g69
g50
NtRp1150
(dp1151
g53
(dp1152
g73
g74
ssg62
g1146
sg55
(lp1153
g325
asbag48
(g69
g50
NtRp1154
(dp1155
g53
(dp1156
g80
g81
ssg62
g1146
sg55
(lp1157
S':'
asbag48
(g69
g50
NtRp1158
(dp1159
g53
(dp1160
sg62
g1146
sg55
(lp1161
g48
(g49
g50
NtRp1162
(dp1163
g53
(dp1164
g61
I3
ssg62
g1158
sg55
(lp1165
S''
asbasbasbag48
(g64
g50
NtRp1166
(dp1167
g53
(dp1168
sg62
g1082
sg55
(lp1169
g48
(g69
g50
NtRp1170
(dp1171
g53
(dp1172
g73
g74
ssg62
g1166
sg55
(lp1173
g346
asbag48
(g69
g50
NtRp1174
(dp1175
g53
(dp1176
g80
g81
ssg62
g1166
sg55
(lp1177
S':'
asbag48
(g69
g50
NtRp1178
(dp1179
g53
(dp1180
sg62
g1166
sg55
(lp1181
g48
(g49
g50
NtRp1182
(dp1183
g53
(dp1184
g61
I3
ssg62
g1178
sg55
(lp1185
S''
asbasbasbag48
(g64
g50
NtRp1186
(dp1187
g53
(dp1188
sg62
g1082
sg55
(lp1189
g48
(g69
g50
NtRp1190
(dp1191
g53
(dp1192
g73
g74
ssg62
g1186
sg55
(lp1193
g367
asbag48
(g69
g50
NtRp1194
(dp1195
g53
(dp1196
g80
g81
ssg62
g1186
sg55
(lp1197
S':'
asbag48
(g69
g50
NtRp1198
(dp1199
g53
(dp1200
sg62
g1186
sg55
(lp1201
g48
(g49
g50
NtRp1202
(dp1203
g53
(dp1204
g61
I3
ssg62
g1198
sg55
(lp1205
S''
asbasbasbag48
(g64
g50
NtRp1206
(dp1207
g53
(dp1208
sg62
g1082
sg55
(lp1209
g48
(g69
g50
NtRp1210
(dp1211
g53
(dp1212
g73
g74
ssg62
g1206
sg55
(lp1213
g388
asbag48
(g69
g50
NtRp1214
(dp1215
g53
(dp1216
g80
g81
ssg62
g1206
sg55
(lp1217
S':'
asbag48
(g69
g50
NtRp1218
(dp1219
g53
(dp1220
sg62
g1206
sg55
(lp1221
g48
(g49
g50
NtRp1222
(dp1223
g53
(dp1224
g61
I3
ssg62
g1218
sg55
(lp1225
S''
asbasbasbasbasbasbasbag48
(g64
g50
NtRp1226
(dp1227
g53
(dp1228
sg62
g225
sg55
(lp1229
g48
(g69
g50
NtRp1230
(dp1231
g53
(dp1232
g73
g74
ssg62
g1226
sg55
(lp1233
S'session_id_welcome'
p1234
asbag48
(g69
g50
NtRp1235
(dp1236
g53
(dp1237
g80
g81
ssg62
g1226
sg55
(lp1238
S':'
asbag48
(g69
g50
NtRp1239
(dp1240
g53
(dp1241
sg62
g1226
sg55
(lp1242
g48
(g49
g50
NtRp1243
(dp1244
g53
(dp1245
g61
I4
ssg62
g1239
sg55
(lp1246
g48
(g57
g50
NtRp1247
(dp1248
g53
(dp1249
g61
I3
ssg62
Nsg55
(lp1250
g48
(g64
g50
NtRp1251
(dp1252
g53
(dp1253
sg62
g1247
sg55
(lp1254
g48
(g69
g50
NtRp1255
(dp1256
g53
(dp1257
g73
g74
ssg62
g1251
sg55
(lp1258
g262
asbag48
(g69
g50
NtRp1259
(dp1260
g53
(dp1261
g80
g81
ssg62
g1251
sg55
(lp1262
S':'
asbag48
(g69
g50
NtRp1263
(dp1264
g53
(dp1265
sg62
g1251
sg55
(lp1266
g48
(g49
g50
NtRp1267
(dp1268
g53
(dp1269
g61
I3
ssg62
g1263
sg55
(lp1270
S''
asbasbasbag48
(g64
g50
NtRp1271
(dp1272
g53
(dp1273
sg62
g1247
sg55
(lp1274
g48
(g69
g50
NtRp1275
(dp1276
g53
(dp1277
g73
g74
ssg62
g1271
sg55
(lp1278
g283
asbag48
(g69
g50
NtRp1279
(dp1280
g53
(dp1281
g80
g81
ssg62
g1271
sg55
(lp1282
S':'
asbag48
(g69
g50
NtRp1283
(dp1284
g53
(dp1285
sg62
g1271
sg55
(lp1286
g48
(g49
g50
NtRp1287
(dp1288
g53
(dp1289
g61
I3
ssg62
g1283
sg55
(lp1290
S''
asbasbasbag48
(g64
g50
NtRp1291
(dp1292
g53
(dp1293
sg62
g1247
sg55
(lp1294
g48
(g69
g50
NtRp1295
(dp1296
g53
(dp1297
g73
g74
ssg62
g1291
sg55
(lp1298
g304
asbag48
(g69
g50
NtRp1299
(dp1300
g53
(dp1301
g80
g81
ssg62
g1291
sg55
(lp1302
S':'
asbag48
(g69
g50
NtRp1303
(dp1304
g53
(dp1305
sg62
g1291
sg55
(lp1306
g48
(g49
g50
NtRp1307
(dp1308
g53
(dp1309
g61
I3
ssg62
g1303
sg55
(lp1310
S''
asbasbasbag48
(g64
g50
NtRp1311
(dp1312
g53
(dp1313
sg62
g1247
sg55
(lp1314
g48
(g69
g50
NtRp1315
(dp1316
g53
(dp1317
g73
g74
ssg62
g1311
sg55
(lp1318
g325
asbag48
(g69
g50
NtRp1319
(dp1320
g53
(dp1321
g80
g81
ssg62
g1311
sg55
(lp1322
S':'
asbag48
(g69
g50
NtRp1323
(dp1324
g53
(dp1325
sg62
g1311
sg55
(lp1326
g48
(g49
g50
NtRp1327
(dp1328
g53
(dp1329
g61
I3
ssg62
g1323
sg55
(lp1330
S''
asbasbasbag48
(g64
g50
NtRp1331
(dp1332
g53
(dp1333
sg62
g1247
sg55
(lp1334
g48
(g69
g50
NtRp1335
(dp1336
g53
(dp1337
g73
g74
ssg62
g1331
sg55
(lp1338
g346
asbag48
(g69
g50
NtRp1339
(dp1340
g53
(dp1341
g80
g81
ssg62
g1331
sg55
(lp1342
S':'
asbag48
(g69
g50
NtRp1343
(dp1344
g53
(dp1345
sg62
g1331
sg55
(lp1346
g48
(g49
g50
NtRp1347
(dp1348
g53
(dp1349
g61
I3
ssg62
g1343
sg55
(lp1350
S''
asbasbasbag48
(g64
g50
NtRp1351
(dp1352
g53
(dp1353
sg62
g1247
sg55
(lp1354
g48
(g69
g50
NtRp1355
(dp1356
g53
(dp1357
g73
g74
ssg62
g1351
sg55
(lp1358
g367
asbag48
(g69
g50
NtRp1359
(dp1360
g53
(dp1361
g80
g81
ssg62
g1351
sg55
(lp1362
S':'
asbag48
(g69
g50
NtRp1363
(dp1364
g53
(dp1365
sg62
g1351
sg55
(lp1366
g48
(g49
g50
NtRp1367
(dp1368
g53
(dp1369
g61
I3
ssg62
g1363
sg55
(lp1370
S''
asbasbasbag48
(g64
g50
NtRp1371
(dp1372
g53
(dp1373
sg62
g1247
sg55
(lp1374
g48
(g69
g50
NtRp1375
(dp1376
g53
(dp1377
g73
g74
ssg62
g1371
sg55
(lp1378
g388
asbag48
(g69
g50
NtRp1379
(dp1380
g53
(dp1381
g80
g81
ssg62
g1371
sg55
(lp1382
S':'
asbag48
(g69
g50
NtRp1383
(dp1384
g53
(dp1385
sg62
g1371
sg55
(lp1386
g48
(g49
g50
NtRp1387
(dp1388
g53
(dp1389
g61
I3
ssg62
g1383
sg55
(lp1390
S''
asbasbasbasbasbasbasbasbasbasbasbag48
(g64
g50
NtRp1391
(dp1392
g53
(dp1393
sg62
g58
sg55
(lp1394
g48
(g69
g50
NtRp1395
(dp1396
g53
(dp1397
g73
g74
ssg62
g1391
sg55
(lp1398
S'env'
p1399
asbag48
(g69
g50
NtRp1400
(dp1401
g53
(dp1402
g80
g81
ssg62
g1391
sg55
(lp1403
S':'
asbag48
(g69
g50
NtRp1404
(dp1405
g53
(dp1406
sg62
g1391
sg55
(lp1407
g48
(g49
g50
NtRp1408
(dp1409
g53
(dp1410
g61
I5
ssg62
g1404
sg55
(lp1411
g48
(g57
g50
NtRp1412
(dp1413
g53
(dp1414
g61
I4
ssg62
Nsg55
(lp1415
g48
(g64
g50
NtRp1416
(dp1417
g53
(dp1418
sg62
g1412
sg55
(lp1419
g48
(g69
g50
NtRp1420
(dp1421
g53
(dp1422
g73
g74
ssg62
g1416
sg55
(lp1423
S'app_folders'
p1424
asbag48
(g69
g50
NtRp1425
(dp1426
g53
(dp1427
g80
g81
ssg62
g1416
sg55
(lp1428
S':'
asbag48
(g69
g50
NtRp1429
(dp1430
g53
(dp1431
sg62
g1416
sg55
(lp1432
g48
(g49
g50
NtRp1433
(dp1434
g53
(dp1435
g61
I4
ssg62
g1429
sg55
(lp1436
S"set(['C:\\\\Users\\\\Atomico\\\\web2py\\\\applications\\\\Desglosar_Emails\\\\', 'C:\\\\Users\\\\Atomico\\\\web2py\\\\applications\\\\Cual_es_tu_nombre\\\\', 'C:\\\\Users\\\\Atomico\\\\web2py\\\\applications\\\\admin\\\\', 'C:\\\\Users\\\\Atomico\\\\web2py\\\\applications\\\\hemoal\\\\', 'C:\\\\Users\\\\Atomico\\\\web2py\\\\applications\\\\myAppJav\\\\', 'C:\\\\Users\\\\Atomico\\\\web2py\\\\applications\\\\welcome\\\\', 'C:\\\\Users\\\\Atomico\\\\web2py\\\\applications\\\\examples\\\\'])"
p1437
asbasbasbag48
(g64
g50
NtRp1438
(dp1439
g53
(dp1440
sg62
g1412
sg55
(lp1441
g48
(g69
g50
NtRp1442
(dp1443
g53
(dp1444
g73
g74
ssg62
g1438
sg55
(lp1445
S'applications_parent'
p1446
asbag48
(g69
g50
NtRp1447
(dp1448
g53
(dp1449
g80
g81
ssg62
g1438
sg55
(lp1450
S':'
asbag48
(g69
g50
NtRp1451
(dp1452
g53
(dp1453
sg62
g1438
sg55
(lp1454
g48
(g49
g50
NtRp1455
(dp1456
g53
(dp1457
g61
I4
ssg62
g1451
sg55
(lp1458
S'C:\\Users\\Atomico\\web2py'
p1459
asbasbasbag48
(g64
g50
NtRp1460
(dp1461
g53
(dp1462
sg62
g1412
sg55
(lp1463
g48
(g69
g50
NtRp1464
(dp1465
g53
(dp1466
g73
g74
ssg62
g1460
sg55
(lp1467
S'cmd_args'
p1468
asbag48
(g69
g50
NtRp1469
(dp1470
g53
(dp1471
g80
g81
ssg62
g1460
sg55
(lp1472
S':'
asbag48
(g69
g50
NtRp1473
(dp1474
g53
(dp1475
sg62
g1460
sg55
(lp1476
g48
(g49
g50
NtRp1477
(dp1478
g53
(dp1479
g61
I4
ssg62
g1473
sg55
(lp1480
g48
(g57
g50
NtRp1481
(dp1482
g53
(dp1483
g61
I3
ssg62
Nsg55
(lp1484
sbasbasbasbag48
(g64
g50
NtRp1485
(dp1486
g53
(dp1487
sg62
g1412
sg55
(lp1488
g48
(g69
g50
NtRp1489
(dp1490
g53
(dp1491
g73
g74
ssg62
g1485
sg55
(lp1492
S'cmd_options'
p1493
asbag48
(g69
g50
NtRp1494
(dp1495
g53
(dp1496
g80
g81
ssg62
g1485
sg55
(lp1497
S':'
asbag48
(g69
g50
NtRp1498
(dp1499
g53
(dp1500
sg62
g1485
sg55
(lp1501
g48
(g49
g50
NtRp1502
(dp1503
g53
(dp1504
g61
I4
ssg62
g1498
sg55
(lp1505
S"<Values at 0x306b620: {'verbose': False, 'ip': '127.0.0.1', 'shutdown_timeout': 5, 'taskbar': False, 'port': 8000, 'maxthreads': None, 'softcron': False, 'server_name': 'Swing', 'bpython': False, 'nogui': False, 'nocron': False, 'extcron': False, 'debuglevel': 30, 'test': None, 'folder': 'C:\\\\Users\\\\Atomico\\\\web2py', 'config': '', 'import_models': False, 'winservice': '', 'shell': None, 'run': '', 'log_filename': 'httpserver.log', 'args': [''], 'profiler_filename': None, 'ssl_private_key': '', 'password': '<ask>', 'request_queue_size': 5, 'ssl_certificate': '', 'cronjob': False, 'plain': False, 'quiet': False, 'interfaces': None, 'minthreads': None, 'timeout': 10, 'numthreads': None, 'nobanner': False, 'pid_filename': 'httpserver.pid'}>"
p1506
asbasbasbag48
(g64
g50
NtRp1507
(dp1508
g53
(dp1509
sg62
g1412
sg55
(lp1510
g48
(g69
g50
NtRp1511
(dp1512
g53
(dp1513
g73
g74
ssg62
g1507
sg55
(lp1514
S'db_sessions'
p1515
asbag48
(g69
g50
NtRp1516
(dp1517
g53
(dp1518
g80
g81
ssg62
g1507
sg55
(lp1519
S':'
asbag48
(g69
g50
NtRp1520
(dp1521
g53
(dp1522
sg62
g1507
sg55
(lp1523
g48
(g49
g50
NtRp1524
(dp1525
g53
(dp1526
g61
I4
ssg62
g1520
sg55
(lp1527
S'set([])'
p1528
asbasbasbag48
(g64
g50
NtRp1529
(dp1530
g53
(dp1531
sg62
g1412
sg55
(lp1532
g48
(g69
g50
NtRp1533
(dp1534
g53
(dp1535
g73
g74
ssg62
g1529
sg55
(lp1536
S'debugging'
p1537
asbag48
(g69
g50
NtRp1538
(dp1539
g53
(dp1540
g80
g81
ssg62
g1529
sg55
(lp1541
S':'
asbag48
(g69
g50
NtRp1542
(dp1543
g53
(dp1544
sg62
g1529
sg55
(lp1545
g48
(g49
g50
NtRp1546
(dp1547
g53
(dp1548
g61
I4
ssg62
g1542
sg55
(lp1549
g91
asbasbasbag48
(g64
g50
NtRp1550
(dp1551
g53
(dp1552
sg62
g1412
sg55
(lp1553
g48
(g69
g50
NtRp1554
(dp1555
g53
(dp1556
g73
g74
ssg62
g1550
sg55
(lp1557
S'gluon_parent'
p1558
asbag48
(g69
g50
NtRp1559
(dp1560
g53
(dp1561
g80
g81
ssg62
g1550
sg55
(lp1562
S':'
asbag48
(g69
g50
NtRp1563
(dp1564
g53
(dp1565
sg62
g1550
sg55
(lp1566
g48
(g49
g50
NtRp1567
(dp1568
g53
(dp1569
g61
I4
ssg62
g1563
sg55
(lp1570
S'C:\\Users\\Atomico\\web2py'
p1571
asbasbasbag48
(g64
g50
NtRp1572
(dp1573
g53
(dp1574
sg62
g1412
sg55
(lp1575
g48
(g69
g50
NtRp1576
(dp1577
g53
(dp1578
g73
g74
ssg62
g1572
sg55
(lp1579
S'http_accept'
p1580
asbag48
(g69
g50
NtRp1581
(dp1582
g53
(dp1583
g80
g81
ssg62
g1572
sg55
(lp1584
S':'
asbag48
(g69
g50
NtRp1585
(dp1586
g53
(dp1587
sg62
g1572
sg55
(lp1588
g48
(g49
g50
NtRp1589
(dp1590
g53
(dp1591
g61
I4
ssg62
g1585
sg55
(lp1592
S'text/html,application/xhtml+xml,application/xml;q=0.9,*/*;q=0.8'
p1593
asbasbasbag48
(g64
g50
NtRp1594
(dp1595
g53
(dp1596
sg62
g1412
sg55
(lp1597
g48
(g69
g50
NtRp1598
(dp1599
g53
(dp1600
g73
g74
ssg62
g1594
sg55
(lp1601
S'http_accept_charset'
p1602
asbag48
(g69
g50
NtRp1603
(dp1604
g53
(dp1605
g80
g81
ssg62
g1594
sg55
(lp1606
S':'
asbag48
(g69
g50
NtRp1607
(dp1608
g53
(dp1609
sg62
g1594
sg55
(lp1610
g48
(g49
g50
NtRp1611
(dp1612
g53
(dp1613
g61
I4
ssg62
g1607
sg55
(lp1614
S'ISO-8859-1,utf-8;q=0.7,*;q=0.7'
p1615
asbasbasbag48
(g64
g50
NtRp1616
(dp1617
g53
(dp1618
sg62
g1412
sg55
(lp1619
g48
(g69
g50
NtRp1620
(dp1621
g53
(dp1622
g73
g74
ssg62
g1616
sg55
(lp1623
S'http_accept_encoding'
p1624
asbag48
(g69
g50
NtRp1625
(dp1626
g53
(dp1627
g80
g81
ssg62
g1616
sg55
(lp1628
S':'
asbag48
(g69
g50
NtRp1629
(dp1630
g53
(dp1631
sg62
g1616
sg55
(lp1632
g48
(g49
g50
NtRp1633
(dp1634
g53
(dp1635
g61
I4
ssg62
g1629
sg55
(lp1636
S'gzip, deflate'
p1637
asbasbasbag48
(g64
g50
NtRp1638
(dp1639
g53
(dp1640
sg62
g1412
sg55
(lp1641
g48
(g69
g50
NtRp1642
(dp1643
g53
(dp1644
g73
g74
ssg62
g1638
sg55
(lp1645
S'http_accept_language'
p1646
asbag48
(g69
g50
NtRp1647
(dp1648
g53
(dp1649
g80
g81
ssg62
g1638
sg55
(lp1650
S':'
asbag48
(g69
g50
NtRp1651
(dp1652
g53
(dp1653
sg62
g1638
sg55
(lp1654
g48
(g49
g50
NtRp1655
(dp1656
g53
(dp1657
g61
I4
ssg62
g1651
sg55
(lp1658
S'es-es,es;q=0.8,en-us;q=0.5,en;q=0.3'
p1659
asbasbasbag48
(g64
g50
NtRp1660
(dp1661
g53
(dp1662
sg62
g1412
sg55
(lp1663
g48
(g69
g50
NtRp1664
(dp1665
g53
(dp1666
g73
g74
ssg62
g1660
sg55
(lp1667
S'http_cache_control'
p1668
asbag48
(g69
g50
NtRp1669
(dp1670
g53
(dp1671
g80
g81
ssg62
g1660
sg55
(lp1672
S':'
asbag48
(g69
g50
NtRp1673
(dp1674
g53
(dp1675
sg62
g1660
sg55
(lp1676
g48
(g49
g50
NtRp1677
(dp1678
g53
(dp1679
g61
I4
ssg62
g1673
sg55
(lp1680
S'max-age=0'
p1681
asbasbasbag48
(g64
g50
NtRp1682
(dp1683
g53
(dp1684
sg62
g1412
sg55
(lp1685
g48
(g69
g50
NtRp1686
(dp1687
g53
(dp1688
g73
g74
ssg62
g1682
sg55
(lp1689
S'http_connection'
p1690
asbag48
(g69
g50
NtRp1691
(dp1692
g53
(dp1693
g80
g81
ssg62
g1682
sg55
(lp1694
S':'
asbag48
(g69
g50
NtRp1695
(dp1696
g53
(dp1697
sg62
g1682
sg55
(lp1698
g48
(g49
g50
NtRp1699
(dp1700
g53
(dp1701
g61
I4
ssg62
g1695
sg55
(lp1702
S'keep-alive'
p1703
asbasbasbag48
(g64
g50
NtRp1704
(dp1705
g53
(dp1706
sg62
g1412
sg55
(lp1707
g48
(g69
g50
NtRp1708
(dp1709
g53
(dp1710
g73
g74
ssg62
g1704
sg55
(lp1711
S'http_cookie'
p1712
asbag48
(g69
g50
NtRp1713
(dp1714
g53
(dp1715
g80
g81
ssg62
g1704
sg55
(lp1716
S':'
asbag48
(g69
g50
NtRp1717
(dp1718
g53
(dp1719
sg62
g1704
sg55
(lp1720
g48
(g49
g50
NtRp1721
(dp1722
g53
(dp1723
g61
I4
ssg62
g1717
sg55
(lp1724
S'session_id_welcome=127.0.0.1-082a2830-9bb6-4bfb-b2e2-4857b06c191e; session_id_admin=127.0.0.1-a96e0cfe-5117-4d37-8e25-f7dd128ab504; session_id_listado_1=127.0.0.1-477ec098-5436-4f6e-bfee-1a0bd88f6f9e; session_id_desglosar_emails=127.0.0.1-0a11b3b2-660c-433c-b71f-fc129286f26c; session_id_hemoal=127.0.0.1-442afb36-a73d-4692-979c-372017ada9e5; session_id_myappjav=127.0.0.1-b6da3776-a7b2-40a7-ab82-4eca2d3263a1; session_id_cual_es_tu_nombre=127.0.0.1-5e59e375-704d-4241-8b9c-5fd9f8c15773'
p1725
asbasbasbag48
(g64
g50
NtRp1726
(dp1727
g53
(dp1728
sg62
g1412
sg55
(lp1729
g48
(g69
g50
NtRp1730
(dp1731
g53
(dp1732
g73
g74
ssg62
g1726
sg55
(lp1733
S'http_host'
p1734
asbag48
(g69
g50
NtRp1735
(dp1736
g53
(dp1737
g80
g81
ssg62
g1726
sg55
(lp1738
S':'
asbag48
(g69
g50
NtRp1739
(dp1740
g53
(dp1741
sg62
g1726
sg55
(lp1742
g48
(g49
g50
NtRp1743
(dp1744
g53
(dp1745
g61
I4
ssg62
g1739
sg55
(lp1746
S'127.0.0.1:8000'
p1747
asbasbasbag48
(g64
g50
NtRp1748
(dp1749
g53
(dp1750
sg62
g1412
sg55
(lp1751
g48
(g69
g50
NtRp1752
(dp1753
g53
(dp1754
g73
g74
ssg62
g1748
sg55
(lp1755
S'http_referer'
p1756
asbag48
(g69
g50
NtRp1757
(dp1758
g53
(dp1759
g80
g81
ssg62
g1748
sg55
(lp1760
S':'
asbag48
(g69
g50
NtRp1761
(dp1762
g53
(dp1763
sg62
g1748
sg55
(lp1764
g48
(g49
g50
NtRp1765
(dp1766
g53
(dp1767
g61
I4
ssg62
g1761
sg55
(lp1768
S'http://127.0.0.1:8000/admin/default/design/Desglosar_Emails'
p1769
asbasbasbag48
(g64
g50
NtRp1770
(dp1771
g53
(dp1772
sg62
g1412
sg55
(lp1773
g48
(g69
g50
NtRp1774
(dp1775
g53
(dp1776
g73
g74
ssg62
g1770
sg55
(lp1777
S'http_user_agent'
p1778
asbag48
(g69
g50
NtRp1779
(dp1780
g53
(dp1781
g80
g81
ssg62
g1770
sg55
(lp1782
S':'
asbag48
(g69
g50
NtRp1783
(dp1784
g53
(dp1785
sg62
g1770
sg55
(lp1786
g48
(g49
g50
NtRp1787
(dp1788
g53
(dp1789
g61
I4
ssg62
g1783
sg55
(lp1790
S'Mozilla/5.0 (Windows NT 6.1; WOW64; rv:6.0.2) Gecko/20100101 Firefox/6.0.2'
p1791
asbasbasbag48
(g64
g50
NtRp1792
(dp1793
g53
(dp1794
sg62
g1412
sg55
(lp1795
g48
(g69
g50
NtRp1796
(dp1797
g53
(dp1798
g73
g74
ssg62
g1792
sg55
(lp1799
S'is_jython'
p1800
asbag48
(g69
g50
NtRp1801
(dp1802
g53
(dp1803
g80
g81
ssg62
g1792
sg55
(lp1804
S':'
asbag48
(g69
g50
NtRp1805
(dp1806
g53
(dp1807
sg62
g1792
sg55
(lp1808
g48
(g49
g50
NtRp1809
(dp1810
g53
(dp1811
g61
I4
ssg62
g1805
sg55
(lp1812
g91
asbasbasbag48
(g64
g50
NtRp1813
(dp1814
g53
(dp1815
sg62
g1412
sg55
(lp1816
g48
(g69
g50
NtRp1817
(dp1818
g53
(dp1819
g73
g74
ssg62
g1813
sg55
(lp1820
S'path_info'
p1821
asbag48
(g69
g50
NtRp1822
(dp1823
g53
(dp1824
g80
g81
ssg62
g1813
sg55
(lp1825
S':'
asbag48
(g69
g50
NtRp1826
(dp1827
g53
(dp1828
sg62
g1813
sg55
(lp1829
g48
(g49
g50
NtRp1830
(dp1831
g53
(dp1832
g61
I4
ssg62
g1826
sg55
(lp1833
S'/Desglosar_Emails/default/entrada_mod2'
p1834
asbasbasbag48
(g64
g50
NtRp1835
(dp1836
g53
(dp1837
sg62
g1412
sg55
(lp1838
g48
(g69
g50
NtRp1839
(dp1840
g53
(dp1841
g73
g74
ssg62
g1835
sg55
(lp1842
S'query_string'
p1843
asbag48
(g69
g50
NtRp1844
(dp1845
g53
(dp1846
g80
g81
ssg62
g1835
sg55
(lp1847
S':'
asbag48
(g69
g50
NtRp1848
(dp1849
g53
(dp1850
sg62
g1835
sg55
(lp1851
g48
(g49
g50
NtRp1852
(dp1853
g53
(dp1854
g61
I4
ssg62
g1848
sg55
(lp1855
S''
asbasbasbag48
(g64
g50
NtRp1856
(dp1857
g53
(dp1858
sg62
g1412
sg55
(lp1859
g48
(g69
g50
NtRp1860
(dp1861
g53
(dp1862
g73
g74
ssg62
g1856
sg55
(lp1863
S'remote_addr'
p1864
asbag48
(g69
g50
NtRp1865
(dp1866
g53
(dp1867
g80
g81
ssg62
g1856
sg55
(lp1868
S':'
asbag48
(g69
g50
NtRp1869
(dp1870
g53
(dp1871
sg62
g1856
sg55
(lp1872
g48
(g49
g50
NtRp1873
(dp1874
g53
(dp1875
g61
I4
ssg62
g1869
sg55
(lp1876
g181
asbasbasbag48
(g64
g50
NtRp1877
(dp1878
g53
(dp1879
sg62
g1412
sg55
(lp1880
g48
(g69
g50
NtRp1881
(dp1882
g53
(dp1883
g73
g74
ssg62
g1877
sg55
(lp1884
S'remote_port'
p1885
asbag48
(g69
g50
NtRp1886
(dp1887
g53
(dp1888
g80
g81
ssg62
g1877
sg55
(lp1889
S':'
asbag48
(g69
g50
NtRp1890
(dp1891
g53
(dp1892
sg62
g1877
sg55
(lp1893
g48
(g49
g50
NtRp1894
(dp1895
g53
(dp1896
g61
I4
ssg62
g1890
sg55
(lp1897
S'54714'
p1898
asbasbasbag48
(g64
g50
NtRp1899
(dp1900
g53
(dp1901
sg62
g1412
sg55
(lp1902
g48
(g69
g50
NtRp1903
(dp1904
g53
(dp1905
g73
g74
ssg62
g1899
sg55
(lp1906
S'request_method'
p1907
asbag48
(g69
g50
NtRp1908
(dp1909
g53
(dp1910
g80
g81
ssg62
g1899
sg55
(lp1911
S':'
asbag48
(g69
g50
NtRp1912
(dp1913
g53
(dp1914
sg62
g1899
sg55
(lp1915
g48
(g49
g50
NtRp1916
(dp1917
g53
(dp1918
g61
I4
ssg62
g1912
sg55
(lp1919
S'GET'
p1920
asbasbasbag48
(g64
g50
NtRp1921
(dp1922
g53
(dp1923
sg62
g1412
sg55
(lp1924
g48
(g69
g50
NtRp1925
(dp1926
g53
(dp1927
g73
g74
ssg62
g1921
sg55
(lp1928
S'script_name'
p1929
asbag48
(g69
g50
NtRp1930
(dp1931
g53
(dp1932
g80
g81
ssg62
g1921
sg55
(lp1933
S':'
asbag48
(g69
g50
NtRp1934
(dp1935
g53
(dp1936
sg62
g1921
sg55
(lp1937
g48
(g49
g50
NtRp1938
(dp1939
g53
(dp1940
g61
I4
ssg62
g1934
sg55
(lp1941
S''
asbasbasbag48
(g64
g50
NtRp1942
(dp1943
g53
(dp1944
sg62
g1412
sg55
(lp1945
g48
(g69
g50
NtRp1946
(dp1947
g53
(dp1948
g73
g74
ssg62
g1942
sg55
(lp1949
S'server_name'
p1950
asbag48
(g69
g50
NtRp1951
(dp1952
g53
(dp1953
g80
g81
ssg62
g1942
sg55
(lp1954
S':'
asbag48
(g69
g50
NtRp1955
(dp1956
g53
(dp1957
sg62
g1942
sg55
(lp1958
g48
(g49
g50
NtRp1959
(dp1960
g53
(dp1961
g61
I4
ssg62
g1955
sg55
(lp1962
S'Swing'
p1963
asbasbasbag48
(g64
g50
NtRp1964
(dp1965
g53
(dp1966
sg62
g1412
sg55
(lp1967
g48
(g69
g50
NtRp1968
(dp1969
g53
(dp1970
g73
g74
ssg62
g1964
sg55
(lp1971
S'server_port'
p1972
asbag48
(g69
g50
NtRp1973
(dp1974
g53
(dp1975
g80
g81
ssg62
g1964
sg55
(lp1976
S':'
asbag48
(g69
g50
NtRp1977
(dp1978
g53
(dp1979
sg62
g1964
sg55
(lp1980
g48
(g49
g50
NtRp1981
(dp1982
g53
(dp1983
g61
I4
ssg62
g1977
sg55
(lp1984
S'8000'
p1985
asbasbasbag48
(g64
g50
NtRp1986
(dp1987
g53
(dp1988
sg62
g1412
sg55
(lp1989
g48
(g69
g50
NtRp1990
(dp1991
g53
(dp1992
g73
g74
ssg62
g1986
sg55
(lp1993
S'server_protocol'
p1994
asbag48
(g69
g50
NtRp1995
(dp1996
g53
(dp1997
g80
g81
ssg62
g1986
sg55
(lp1998
S':'
asbag48
(g69
g50
NtRp1999
(dp2000
g53
(dp2001
sg62
g1986
sg55
(lp2002
g48
(g49
g50
NtRp2003
(dp2004
g53
(dp2005
g61
I4
ssg62
g1999
sg55
(lp2006
S'HTTP/1.1'
p2007
asbasbasbag48
(g64
g50
NtRp2008
(dp2009
g53
(dp2010
sg62
g1412
sg55
(lp2011
g48
(g69
g50
NtRp2012
(dp2013
g53
(dp2014
g73
g74
ssg62
g2008
sg55
(lp2015
S'server_software'
p2016
asbag48
(g69
g50
NtRp2017
(dp2018
g53
(dp2019
g80
g81
ssg62
g2008
sg55
(lp2020
S':'
asbag48
(g69
g50
NtRp2021
(dp2022
g53
(dp2023
sg62
g2008
sg55
(lp2024
g48
(g49
g50
NtRp2025
(dp2026
g53
(dp2027
g61
I4
ssg62
g2021
sg55
(lp2028
S'Rocket 1.2.2'
p2029
asbasbasbag48
(g64
g50
NtRp2030
(dp2031
g53
(dp2032
sg62
g1412
sg55
(lp2033
g48
(g69
g50
NtRp2034
(dp2035
g53
(dp2036
g73
g74
ssg62
g2030
sg55
(lp2037
S'web2py_crontype'
p2038
asbag48
(g69
g50
NtRp2039
(dp2040
g53
(dp2041
g80
g81
ssg62
g2030
sg55
(lp2042
S':'
asbag48
(g69
g50
NtRp2043
(dp2044
g53
(dp2045
sg62
g2030
sg55
(lp2046
g48
(g49
g50
NtRp2047
(dp2048
g53
(dp2049
g61
I4
ssg62
g2043
sg55
(lp2050
S'hard'
p2051
asbasbasbag48
(g64
g50
NtRp2052
(dp2053
g53
(dp2054
sg62
g1412
sg55
(lp2055
g48
(g69
g50
NtRp2056
(dp2057
g53
(dp2058
g73
g74
ssg62
g2052
sg55
(lp2059
S'web2py_path'
p2060
asbag48
(g69
g50
NtRp2061
(dp2062
g53
(dp2063
g80
g81
ssg62
g2052
sg55
(lp2064
S':'
asbag48
(g69
g50
NtRp2065
(dp2066
g53
(dp2067
sg62
g2052
sg55
(lp2068
g48
(g49
g50
NtRp2069
(dp2070
g53
(dp2071
g61
I4
ssg62
g2065
sg55
(lp2072
g1459
asbasbasbag48
(g64
g50
NtRp2073
(dp2074
g53
(dp2075
sg62
g1412
sg55
(lp2076
g48
(g69
g50
NtRp2077
(dp2078
g53
(dp2079
g73
g74
ssg62
g2073
sg55
(lp2080
S'web2py_version'
p2081
asbag48
(g69
g50
NtRp2082
(dp2083
g53
(dp2084
g80
g81
ssg62
g2073
sg55
(lp2085
S':'
asbag48
(g69
g50
NtRp2086
(dp2087
g53
(dp2088
sg62
g2073
sg55
(lp2089
g48
(g49
g50
NtRp2090
(dp2091
g53
(dp2092
g61
I4
ssg62
g2086
sg55
(lp2093
S'Version 1.98.2 (2011-08-04 00:47:09)\n'
p2094
asbasbasbag48
(g64
g50
NtRp2095
(dp2096
g53
(dp2097
sg62
g1412
sg55
(lp2098
g48
(g69
g50
NtRp2099
(dp2100
g53
(dp2101
g73
g74
ssg62
g2095
sg55
(lp2102
S'wsgi_errors'
p2103
asbag48
(g69
g50
NtRp2104
(dp2105
g53
(dp2106
g80
g81
ssg62
g2095
sg55
(lp2107
S':'
asbag48
(g69
g50
NtRp2108
(dp2109
g53
(dp2110
sg62
g2095
sg55
(lp2111
g48
(g49
g50
NtRp2112
(dp2113
g53
(dp2114
g61
I4
ssg62
g2108
sg55
(lp2115
S"<open file '<stderr>', mode 'w' at 0x003100B0>"
p2116
asbasbasbag48
(g64
g50
NtRp2117
(dp2118
g53
(dp2119
sg62
g1412
sg55
(lp2120
g48
(g69
g50
NtRp2121
(dp2122
g53
(dp2123
g73
g74
ssg62
g2117
sg55
(lp2124
S'wsgi_file_wrapper'
p2125
asbag48
(g69
g50
NtRp2126
(dp2127
g53
(dp2128
g80
g81
ssg62
g2117
sg55
(lp2129
S':'
asbag48
(g69
g50
NtRp2130
(dp2131
g53
(dp2132
sg62
g2117
sg55
(lp2133
g48
(g49
g50
NtRp2134
(dp2135
g53
(dp2136
g61
I4
ssg62
g2130
sg55
(lp2137
S'<class gluon.rocket.FileWrapper at 0x02FFC1B0>'
p2138
asbasbasbag48
(g64
g50
NtRp2139
(dp2140
g53
(dp2141
sg62
g1412
sg55
(lp2142
g48
(g69
g50
NtRp2143
(dp2144
g53
(dp2145
g73
g74
ssg62
g2139
sg55
(lp2146
S'wsgi_input'
p2147
asbag48
(g69
g50
NtRp2148
(dp2149
g53
(dp2150
g80
g81
ssg62
g2139
sg55
(lp2151
S':'
asbag48
(g69
g50
NtRp2152
(dp2153
g53
(dp2154
sg62
g2139
sg55
(lp2155
g48
(g49
g50
NtRp2156
(dp2157
g53
(dp2158
g61
I4
ssg62
g2152
sg55
(lp2159
S'<socket._fileobject object at 0x08727830>'
p2160
asbasbasbag48
(g64
g50
NtRp2161
(dp2162
g53
(dp2163
sg62
g1412
sg55
(lp2164
g48
(g69
g50
NtRp2165
(dp2166
g53
(dp2167
g73
g74
ssg62
g2161
sg55
(lp2168
S'wsgi_multiprocess'
p2169
asbag48
(g69
g50
NtRp2170
(dp2171
g53
(dp2172
g80
g81
ssg62
g2161
sg55
(lp2173
S':'
asbag48
(g69
g50
NtRp2174
(dp2175
g53
(dp2176
sg62
g2161
sg55
(lp2177
g48
(g49
g50
NtRp2178
(dp2179
g53
(dp2180
g61
I4
ssg62
g2174
sg55
(lp2181
g91
asbasbasbag48
(g64
g50
NtRp2182
(dp2183
g53
(dp2184
sg62
g1412
sg55
(lp2185
g48
(g69
g50
NtRp2186
(dp2187
g53
(dp2188
g73
g74
ssg62
g2182
sg55
(lp2189
S'wsgi_multithread'
p2190
asbag48
(g69
g50
NtRp2191
(dp2192
g53
(dp2193
g80
g81
ssg62
g2182
sg55
(lp2194
S':'
asbag48
(g69
g50
NtRp2195
(dp2196
g53
(dp2197
sg62
g2182
sg55
(lp2198
g48
(g49
g50
NtRp2199
(dp2200
g53
(dp2201
g61
I4
ssg62
g2195
sg55
(lp2202
S'True'
p2203
asbasbasbag48
(g64
g50
NtRp2204
(dp2205
g53
(dp2206
sg62
g1412
sg55
(lp2207
g48
(g69
g50
NtRp2208
(dp2209
g53
(dp2210
g73
g74
ssg62
g2204
sg55
(lp2211
S'wsgi_run_once'
p2212
asbag48
(g69
g50
NtRp2213
(dp2214
g53
(dp2215
g80
g81
ssg62
g2204
sg55
(lp2216
S':'
asbag48
(g69
g50
NtRp2217
(dp2218
g53
(dp2219
sg62
g2204
sg55
(lp2220
g48
(g49
g50
NtRp2221
(dp2222
g53
(dp2223
g61
I4
ssg62
g2217
sg55
(lp2224
g91
asbasbasbag48
(g64
g50
NtRp2225
(dp2226
g53
(dp2227
sg62
g1412
sg55
(lp2228
g48
(g69
g50
NtRp2229
(dp2230
g53
(dp2231
g73
g74
ssg62
g2225
sg55
(lp2232
S'wsgi_url_scheme'
p2233
asbag48
(g69
g50
NtRp2234
(dp2235
g53
(dp2236
g80
g81
ssg62
g2225
sg55
(lp2237
S':'
asbag48
(g69
g50
NtRp2238
(dp2239
g53
(dp2240
sg62
g2225
sg55
(lp2241
g48
(g49
g50
NtRp2242
(dp2243
g53
(dp2244
g61
I4
ssg62
g2238
sg55
(lp2245
S'http'
p2246
asbasbasbag48
(g64
g50
NtRp2247
(dp2248
g53
(dp2249
sg62
g1412
sg55
(lp2250
g48
(g69
g50
NtRp2251
(dp2252
g53
(dp2253
g73
g74
ssg62
g2247
sg55
(lp2254
S'wsgi_version'
p2255
asbag48
(g69
g50
NtRp2256
(dp2257
g53
(dp2258
g80
g81
ssg62
g2247
sg55
(lp2259
S':'
asbag48
(g69
g50
NtRp2260
(dp2261
g53
(dp2262
sg62
g2247
sg55
(lp2263
g48
(g49
g50
NtRp2264
(dp2265
g53
(dp2266
g61
I4
ssg62
g2260
sg55
(lp2267
g48
(g57
g50
NtRp2268
(dp2269
g53
(dp2270
g61
I3
ssg62
Nsg55
(lp2271
g48
(g64
g50
NtRp2272
(dp2273
g53
(dp2274
sg62
g2268
sg55
(lp2275
g48
(g69
g50
NtRp2276
(dp2277
g53
(dp2278
sg62
g2272
sg55
(lp2279
g48
(g49
g50
NtRp2280
(dp2281
g53
(dp2282
g61
I3
ssg62
g2276
sg55
(lp2283
S'1'
asbasbasbag48
(g64
g50
NtRp2284
(dp2285
g53
(dp2286
sg62
g2268
sg55
(lp2287
g48
(g69
g50
NtRp2288
(dp2289
g53
(dp2290
sg62
g2284
sg55
(lp2291
g48
(g49
g50
NtRp2292
(dp2293
g53
(dp2294
g61
I3
ssg62
g2288
sg55
(lp2295
S'0'
asbasbasbasbasbasbasbasbasbasbasbag48
(g64
g50
NtRp2296
(dp2297
g53
(dp2298
sg62
g58
sg55
(lp2299
g48
(g69
g50
NtRp2300
(dp2301
g53
(dp2302
g73
g74
ssg62
g2296
sg55
(lp2303
S'extension'
p2304
asbag48
(g69
g50
NtRp2305
(dp2306
g53
(dp2307
g80
g81
ssg62
g2296
sg55
(lp2308
S':'
asbag48
(g69
g50
NtRp2309
(dp2310
g53
(dp2311
sg62
g2296
sg55
(lp2312
g48
(g49
g50
NtRp2313
(dp2314
g53
(dp2315
g61
I5
ssg62
g2309
sg55
(lp2316
S'html'
p2317
asbasbasbag48
(g64
g50
NtRp2318
(dp2319
g53
(dp2320
sg62
g58
sg55
(lp2321
g48
(g69
g50
NtRp2322
(dp2323
g53
(dp2324
g73
g74
ssg62
g2318
sg55
(lp2325
S'folder'
p2326
asbag48
(g69
g50
NtRp2327
(dp2328
g53
(dp2329
g80
g81
ssg62
g2318
sg55
(lp2330
S':'
asbag48
(g69
g50
NtRp2331
(dp2332
g53
(dp2333
sg62
g2318
sg55
(lp2334
g48
(g49
g50
NtRp2335
(dp2336
g53
(dp2337
g61
I5
ssg62
g2331
sg55
(lp2338
S'C:\\Users\\Atomico\\web2py\\applications\\Desglosar_Emails\\'
p2339
asbasbasbag48
(g64
g50
NtRp2340
(dp2341
g53
(dp2342
sg62
g58
sg55
(lp2343
g48
(g69
g50
NtRp2344
(dp2345
g53
(dp2346
g73
g74
ssg62
g2340
sg55
(lp2347
S'function'
p2348
asbag48
(g69
g50
NtRp2349
(dp2350
g53
(dp2351
g80
g81
ssg62
g2340
sg55
(lp2352
S':'
asbag48
(g69
g50
NtRp2353
(dp2354
g53
(dp2355
sg62
g2340
sg55
(lp2356
g48
(g49
g50
NtRp2357
(dp2358
g53
(dp2359
g61
I5
ssg62
g2353
sg55
(lp2360
S'entrada_mod2'
p2361
asbasbasbag48
(g64
g50
NtRp2362
(dp2363
g53
(dp2364
sg62
g58
sg55
(lp2365
g48
(g69
g50
NtRp2366
(dp2367
g53
(dp2368
g73
g74
ssg62
g2362
sg55
(lp2369
S'get_vars'
p2370
asbag48
(g69
g50
NtRp2371
(dp2372
g53
(dp2373
g80
g81
ssg62
g2362
sg55
(lp2374
S':'
asbag48
(g69
g50
NtRp2375
(dp2376
g53
(dp2377
sg62
g2362
sg55
(lp2378
g48
(g49
g50
NtRp2379
(dp2380
g53
(dp2381
g61
I5
ssg62
g2375
sg55
(lp2382
g48
(g57
g50
NtRp2383
(dp2384
g53
(dp2385
g61
I4
ssg62
Nsg55
(lp2386
sbasbasbasbag48
(g64
g50
NtRp2387
(dp2388
g53
(dp2389
sg62
g58
sg55
(lp2390
g48
(g69
g50
NtRp2391
(dp2392
g53
(dp2393
g73
g74
ssg62
g2387
sg55
(lp2394
S'is_https'
p2395
asbag48
(g69
g50
NtRp2396
(dp2397
g53
(dp2398
g80
g81
ssg62
g2387
sg55
(lp2399
S':'
asbag48
(g69
g50
NtRp2400
(dp2401
g53
(dp2402
sg62
g2387
sg55
(lp2403
g48
(g49
g50
NtRp2404
(dp2405
g53
(dp2406
g61
I5
ssg62
g2400
sg55
(lp2407
g91
asbasbasbag48
(g64
g50
NtRp2408
(dp2409
g53
(dp2410
sg62
g58
sg55
(lp2411
g48
(g69
g50
NtRp2412
(dp2413
g53
(dp2414
g73
g74
ssg62
g2408
sg55
(lp2415
S'is_local'
p2416
asbag48
(g69
g50
NtRp2417
(dp2418
g53
(dp2419
g80
g81
ssg62
g2408
sg55
(lp2420
S':'
asbag48
(g69
g50
NtRp2421
(dp2422
g53
(dp2423
sg62
g2408
sg55
(lp2424
g48
(g49
g50
NtRp2425
(dp2426
g53
(dp2427
g61
I5
ssg62
g2421
sg55
(lp2428
g2203
asbasbasbag48
(g64
g50
NtRp2429
(dp2430
g53
(dp2431
sg62
g58
sg55
(lp2432
g48
(g69
g50
NtRp2433
(dp2434
g53
(dp2435
g73
g74
ssg62
g2429
sg55
(lp2436
S'is_restful'
p2437
asbag48
(g69
g50
NtRp2438
(dp2439
g53
(dp2440
g80
g81
ssg62
g2429
sg55
(lp2441
S':'
asbag48
(g69
g50
NtRp2442
(dp2443
g53
(dp2444
sg62
g2429
sg55
(lp2445
g48
(g49
g50
NtRp2446
(dp2447
g53
(dp2448
g61
I5
ssg62
g2442
sg55
(lp2449
g91
asbasbasbag48
(g64
g50
NtRp2450
(dp2451
g53
(dp2452
sg62
g58
sg55
(lp2453
g48
(g69
g50
NtRp2454
(dp2455
g53
(dp2456
g73
g74
ssg62
g2450
sg55
(lp2457
S'now'
p2458
asbag48
(g69
g50
NtRp2459
(dp2460
g53
(dp2461
g80
g81
ssg62
g2450
sg55
(lp2462
S':'
asbag48
(g69
g50
NtRp2463
(dp2464
g53
(dp2465
sg62
g2450
sg55
(lp2466
g48
(g49
g50
NtRp2467
(dp2468
g53
(dp2469
g61
I5
ssg62
g2463
sg55
(lp2470
S'datetime.datetime(2011, 9, 19, 10, 6, 26, 383000)'
p2471
asbasbasbag48
(g64
g50
NtRp2472
(dp2473
g53
(dp2474
sg62
g58
sg55
(lp2475
g48
(g69
g50
NtRp2476
(dp2477
g53
(dp2478
g73
g74
ssg62
g2472
sg55
(lp2479
S'post_vars'
p2480
asbag48
(g69
g50
NtRp2481
(dp2482
g53
(dp2483
g80
g81
ssg62
g2472
sg55
(lp2484
S':'
asbag48
(g69
g50
NtRp2485
(dp2486
g53
(dp2487
sg62
g2472
sg55
(lp2488
g48
(g49
g50
NtRp2489
(dp2490
g53
(dp2491
g61
I5
ssg62
g2485
sg55
(lp2492
g48
(g57
g50
NtRp2493
(dp2494
g53
(dp2495
g61
I4
ssg62
Nsg55
(lp2496
sbasbasbasbag48
(g64
g50
NtRp2497
(dp2498
g53
(dp2499
sg62
g58
sg55
(lp2500
g48
(g69
g50
NtRp2501
(dp2502
g53
(dp2503
g73
g74
ssg62
g2497
sg55
(lp2504
S'url'
p2505
asbag48
(g69
g50
NtRp2506
(dp2507
g53
(dp2508
g80
g81
ssg62
g2497
sg55
(lp2509
S':'
asbag48
(g69
g50
NtRp2510
(dp2511
g53
(dp2512
sg62
g2497
sg55
(lp2513
g48
(g49
g50
NtRp2514
(dp2515
g53
(dp2516
g61
I5
ssg62
g2510
sg55
(lp2517
S'/Desglosar_Emails/default/entrada_mod2'
p2518
asbasbasbag48
(g64
g50
NtRp2519
(dp2520
g53
(dp2521
sg62
g58
sg55
(lp2522
g48
(g69
g50
NtRp2523
(dp2524
g53
(dp2525
g73
g74
ssg62
g2519
sg55
(lp2526
S'uuid'
p2527
asbag48
(g69
g50
NtRp2528
(dp2529
g53
(dp2530
g80
g81
ssg62
g2519
sg55
(lp2531
S':'
asbag48
(g69
g50
NtRp2532
(dp2533
g53
(dp2534
sg62
g2519
sg55
(lp2535
g48
(g49
g50
NtRp2536
(dp2537
g53
(dp2538
g61
I5
ssg62
g2532
sg55
(lp2539
S'Desglosar_Emails/127.0.0.1.2011-09-19.10-06-26.a5a315ad-0335-4915-affe-1087236592d9'
p2540
asbasbasbag48
(g64
g50
NtRp2541
(dp2542
g53
(dp2543
sg62
g58
sg55
(lp2544
g48
(g69
g50
NtRp2545
(dp2546
g53
(dp2547
g73
g74
ssg62
g2541
sg55
(lp2548
S'vars'
p2549
asbag48
(g69
g50
NtRp2550
(dp2551
g53
(dp2552
g80
g81
ssg62
g2541
sg55
(lp2553
S':'
asbag48
(g69
g50
NtRp2554
(dp2555
g53
(dp2556
sg62
g2541
sg55
(lp2557
g48
(g49
g50
NtRp2558
(dp2559
g53
(dp2560
g61
I5
ssg62
g2554
sg55
(lp2561
g48
(g57
g50
NtRp2562
(dp2563
g53
(dp2564
g61
I4
ssg62
Nsg55
(lp2565
sbasbasbasbag48
(g64
g50
NtRp2566
(dp2567
g53
(dp2568
sg62
g58
sg55
(lp2569
g48
(g69
g50
NtRp2570
(dp2571
g53
(dp2572
g73
g74
ssg62
g2566
sg55
(lp2573
S'wsgi'
p2574
asbag48
(g69
g50
NtRp2575
(dp2576
g53
(dp2577
g80
g81
ssg62
g2566
sg55
(lp2578
S':'
asbag48
(g69
g50
NtRp2579
(dp2580
g53
(dp2581
sg62
g2566
sg55
(lp2582
g48
(g49
g50
NtRp2583
(dp2584
g53
(dp2585
g61
I5
ssg62
g2579
sg55
(lp2586
g48
(g57
g50
NtRp2587
(dp2588
g53
(dp2589
g61
I4
ssg62
Nsg55
(lp2590
g48
(g64
g50
NtRp2591
(dp2592
g53
(dp2593
sg62
g2587
sg55
(lp2594
g48
(g69
g50
NtRp2595
(dp2596
g53
(dp2597
g73
g74
ssg62
g2591
sg55
(lp2598
S'environ'
p2599
asbag48
(g69
g50
NtRp2600
(dp2601
g53
(dp2602
g80
g81
ssg62
g2591
sg55
(lp2603
S':'
asbag48
(g69
g50
NtRp2604
(dp2605
g53
(dp2606
sg62
g2591
sg55
(lp2607
g48
(g49
g50
NtRp2608
(dp2609
g53
(dp2610
g61
I4
ssg62
g2604
sg55
(lp2611
g48
(g57
g50
NtRp2612
(dp2613
g53
(dp2614
g61
I3
ssg62
Nsg55
(lp2615
g48
(g64
g50
NtRp2616
(dp2617
g53
(dp2618
sg62
g2612
sg55
(lp2619
g48
(g69
g50
NtRp2620
(dp2621
g53
(dp2622
g73
g74
ssg62
g2616
sg55
(lp2623
S'HTTP_ACCEPT'
p2624
asbag48
(g69
g50
NtRp2625
(dp2626
g53
(dp2627
g80
g81
ssg62
g2616
sg55
(lp2628
S':'
asbag48
(g69
g50
NtRp2629
(dp2630
g53
(dp2631
sg62
g2616
sg55
(lp2632
g48
(g49
g50
NtRp2633
(dp2634
g53
(dp2635
g61
I3
ssg62
g2629
sg55
(lp2636
g1593
asbasbasbag48
(g64
g50
NtRp2637
(dp2638
g53
(dp2639
sg62
g2612
sg55
(lp2640
g48
(g69
g50
NtRp2641
(dp2642
g53
(dp2643
g73
g74
ssg62
g2637
sg55
(lp2644
S'HTTP_ACCEPT_CHARSET'
p2645
asbag48
(g69
g50
NtRp2646
(dp2647
g53
(dp2648
g80
g81
ssg62
g2637
sg55
(lp2649
S':'
asbag48
(g69
g50
NtRp2650
(dp2651
g53
(dp2652
sg62
g2637
sg55
(lp2653
g48
(g49
g50
NtRp2654
(dp2655
g53
(dp2656
g61
I3
ssg62
g2650
sg55
(lp2657
g1615
asbasbasbag48
(g64
g50
NtRp2658
(dp2659
g53
(dp2660
sg62
g2612
sg55
(lp2661
g48
(g69
g50
NtRp2662
(dp2663
g53
(dp2664
g73
g74
ssg62
g2658
sg55
(lp2665
S'HTTP_ACCEPT_ENCODING'
p2666
asbag48
(g69
g50
NtRp2667
(dp2668
g53
(dp2669
g80
g81
ssg62
g2658
sg55
(lp2670
S':'
asbag48
(g69
g50
NtRp2671
(dp2672
g53
(dp2673
sg62
g2658
sg55
(lp2674
g48
(g49
g50
NtRp2675
(dp2676
g53
(dp2677
g61
I3
ssg62
g2671
sg55
(lp2678
g1637
asbasbasbag48
(g64
g50
NtRp2679
(dp2680
g53
(dp2681
sg62
g2612
sg55
(lp2682
g48
(g69
g50
NtRp2683
(dp2684
g53
(dp2685
g73
g74
ssg62
g2679
sg55
(lp2686
S'HTTP_ACCEPT_LANGUAGE'
p2687
asbag48
(g69
g50
NtRp2688
(dp2689
g53
(dp2690
g80
g81
ssg62
g2679
sg55
(lp2691
S':'
asbag48
(g69
g50
NtRp2692
(dp2693
g53
(dp2694
sg62
g2679
sg55
(lp2695
g48
(g49
g50
NtRp2696
(dp2697
g53
(dp2698
g61
I3
ssg62
g2692
sg55
(lp2699
g1659
asbasbasbag48
(g64
g50
NtRp2700
(dp2701
g53
(dp2702
sg62
g2612
sg55
(lp2703
g48
(g69
g50
NtRp2704
(dp2705
g53
(dp2706
g73
g74
ssg62
g2700
sg55
(lp2707
S'HTTP_CACHE_CONTROL'
p2708
asbag48
(g69
g50
NtRp2709
(dp2710
g53
(dp2711
g80
g81
ssg62
g2700
sg55
(lp2712
S':'
asbag48
(g69
g50
NtRp2713
(dp2714
g53
(dp2715
sg62
g2700
sg55
(lp2716
g48
(g49
g50
NtRp2717
(dp2718
g53
(dp2719
g61
I3
ssg62
g2713
sg55
(lp2720
g1681
asbasbasbag48
(g64
g50
NtRp2721
(dp2722
g53
(dp2723
sg62
g2612
sg55
(lp2724
g48
(g69
g50
NtRp2725
(dp2726
g53
(dp2727
g73
g74
ssg62
g2721
sg55
(lp2728
S'HTTP_CONNECTION'
p2729
asbag48
(g69
g50
NtRp2730
(dp2731
g53
(dp2732
g80
g81
ssg62
g2721
sg55
(lp2733
S':'
asbag48
(g69
g50
NtRp2734
(dp2735
g53
(dp2736
sg62
g2721
sg55
(lp2737
g48
(g49
g50
NtRp2738
(dp2739
g53
(dp2740
g61
I3
ssg62
g2734
sg55
(lp2741
g1703
asbasbasbag48
(g64
g50
NtRp2742
(dp2743
g53
(dp2744
sg62
g2612
sg55
(lp2745
g48
(g69
g50
NtRp2746
(dp2747
g53
(dp2748
g73
g74
ssg62
g2742
sg55
(lp2749
S'HTTP_COOKIE'
p2750
asbag48
(g69
g50
NtRp2751
(dp2752
g53
(dp2753
g80
g81
ssg62
g2742
sg55
(lp2754
S':'
asbag48
(g69
g50
NtRp2755
(dp2756
g53
(dp2757
sg62
g2742
sg55
(lp2758
g48
(g49
g50
NtRp2759
(dp2760
g53
(dp2761
g61
I3
ssg62
g2755
sg55
(lp2762
g1725
asbasbasbag48
(g64
g50
NtRp2763
(dp2764
g53
(dp2765
sg62
g2612
sg55
(lp2766
g48
(g69
g50
NtRp2767
(dp2768
g53
(dp2769
g73
g74
ssg62
g2763
sg55
(lp2770
S'HTTP_HOST'
p2771
asbag48
(g69
g50
NtRp2772
(dp2773
g53
(dp2774
g80
g81
ssg62
g2763
sg55
(lp2775
S':'
asbag48
(g69
g50
NtRp2776
(dp2777
g53
(dp2778
sg62
g2763
sg55
(lp2779
g48
(g49
g50
NtRp2780
(dp2781
g53
(dp2782
g61
I3
ssg62
g2776
sg55
(lp2783
g1747
asbasbasbag48
(g64
g50
NtRp2784
(dp2785
g53
(dp2786
sg62
g2612
sg55
(lp2787
g48
(g69
g50
NtRp2788
(dp2789
g53
(dp2790
g73
g74
ssg62
g2784
sg55
(lp2791
S'HTTP_REFERER'
p2792
asbag48
(g69
g50
NtRp2793
(dp2794
g53
(dp2795
g80
g81
ssg62
g2784
sg55
(lp2796
S':'
asbag48
(g69
g50
NtRp2797
(dp2798
g53
(dp2799
sg62
g2784
sg55
(lp2800
g48
(g49
g50
NtRp2801
(dp2802
g53
(dp2803
g61
I3
ssg62
g2797
sg55
(lp2804
g1769
asbasbasbag48
(g64
g50
NtRp2805
(dp2806
g53
(dp2807
sg62
g2612
sg55
(lp2808
g48
(g69
g50
NtRp2809
(dp2810
g53
(dp2811
g73
g74
ssg62
g2805
sg55
(lp2812
S'HTTP_USER_AGENT'
p2813
asbag48
(g69
g50
NtRp2814
(dp2815
g53
(dp2816
g80
g81
ssg62
g2805
sg55
(lp2817
S':'
asbag48
(g69
g50
NtRp2818
(dp2819
g53
(dp2820
sg62
g2805
sg55
(lp2821
g48
(g49
g50
NtRp2822
(dp2823
g53
(dp2824
g61
I3
ssg62
g2818
sg55
(lp2825
g1791
asbasbasbag48
(g64
g50
NtRp2826
(dp2827
g53
(dp2828
sg62
g2612
sg55
(lp2829
g48
(g69
g50
NtRp2830
(dp2831
g53
(dp2832
g73
g74
ssg62
g2826
sg55
(lp2833
S'PATH_INFO'
p2834
asbag48
(g69
g50
NtRp2835
(dp2836
g53
(dp2837
g80
g81
ssg62
g2826
sg55
(lp2838
S':'
asbag48
(g69
g50
NtRp2839
(dp2840
g53
(dp2841
sg62
g2826
sg55
(lp2842
g48
(g49
g50
NtRp2843
(dp2844
g53
(dp2845
g61
I3
ssg62
g2839
sg55
(lp2846
g1834
asbasbasbag48
(g64
g50
NtRp2847
(dp2848
g53
(dp2849
sg62
g2612
sg55
(lp2850
g48
(g69
g50
NtRp2851
(dp2852
g53
(dp2853
g73
g74
ssg62
g2847
sg55
(lp2854
S'QUERY_STRING'
p2855
asbag48
(g69
g50
NtRp2856
(dp2857
g53
(dp2858
g80
g81
ssg62
g2847
sg55
(lp2859
S':'
asbag48
(g69
g50
NtRp2860
(dp2861
g53
(dp2862
sg62
g2847
sg55
(lp2863
g48
(g49
g50
NtRp2864
(dp2865
g53
(dp2866
g61
I3
ssg62
g2860
sg55
(lp2867
S''
asbasbasbag48
(g64
g50
NtRp2868
(dp2869
g53
(dp2870
sg62
g2612
sg55
(lp2871
g48
(g69
g50
NtRp2872
(dp2873
g53
(dp2874
g73
g74
ssg62
g2868
sg55
(lp2875
S'REMOTE_ADDR'
p2876
asbag48
(g69
g50
NtRp2877
(dp2878
g53
(dp2879
g80
g81
ssg62
g2868
sg55
(lp2880
S':'
asbag48
(g69
g50
NtRp2881
(dp2882
g53
(dp2883
sg62
g2868
sg55
(lp2884
g48
(g49
g50
NtRp2885
(dp2886
g53
(dp2887
g61
I3
ssg62
g2881
sg55
(lp2888
g181
asbasbasbag48
(g64
g50
NtRp2889
(dp2890
g53
(dp2891
sg62
g2612
sg55
(lp2892
g48
(g69
g50
NtRp2893
(dp2894
g53
(dp2895
g73
g74
ssg62
g2889
sg55
(lp2896
S'REMOTE_PORT'
p2897
asbag48
(g69
g50
NtRp2898
(dp2899
g53
(dp2900
g80
g81
ssg62
g2889
sg55
(lp2901
S':'
asbag48
(g69
g50
NtRp2902
(dp2903
g53
(dp2904
sg62
g2889
sg55
(lp2905
g48
(g49
g50
NtRp2906
(dp2907
g53
(dp2908
g61
I3
ssg62
g2902
sg55
(lp2909
g1898
asbasbasbag48
(g64
g50
NtRp2910
(dp2911
g53
(dp2912
sg62
g2612
sg55
(lp2913
g48
(g69
g50
NtRp2914
(dp2915
g53
(dp2916
g73
g74
ssg62
g2910
sg55
(lp2917
S'REQUEST_METHOD'
p2918
asbag48
(g69
g50
NtRp2919
(dp2920
g53
(dp2921
g80
g81
ssg62
g2910
sg55
(lp2922
S':'
asbag48
(g69
g50
NtRp2923
(dp2924
g53
(dp2925
sg62
g2910
sg55
(lp2926
g48
(g49
g50
NtRp2927
(dp2928
g53
(dp2929
g61
I3
ssg62
g2923
sg55
(lp2930
g1920
asbasbasbag48
(g64
g50
NtRp2931
(dp2932
g53
(dp2933
sg62
g2612
sg55
(lp2934
g48
(g69
g50
NtRp2935
(dp2936
g53
(dp2937
g73
g74
ssg62
g2931
sg55
(lp2938
S'SCRIPT_NAME'
p2939
asbag48
(g69
g50
NtRp2940
(dp2941
g53
(dp2942
g80
g81
ssg62
g2931
sg55
(lp2943
S':'
asbag48
(g69
g50
NtRp2944
(dp2945
g53
(dp2946
sg62
g2931
sg55
(lp2947
g48
(g49
g50
NtRp2948
(dp2949
g53
(dp2950
g61
I3
ssg62
g2944
sg55
(lp2951
S''
asbasbasbag48
(g64
g50
NtRp2952
(dp2953
g53
(dp2954
sg62
g2612
sg55
(lp2955
g48
(g69
g50
NtRp2956
(dp2957
g53
(dp2958
g73
g74
ssg62
g2952
sg55
(lp2959
S'SERVER_NAME'
p2960
asbag48
(g69
g50
NtRp2961
(dp2962
g53
(dp2963
g80
g81
ssg62
g2952
sg55
(lp2964
S':'
asbag48
(g69
g50
NtRp2965
(dp2966
g53
(dp2967
sg62
g2952
sg55
(lp2968
g48
(g49
g50
NtRp2969
(dp2970
g53
(dp2971
g61
I3
ssg62
g2965
sg55
(lp2972
g1963
asbasbasbag48
(g64
g50
NtRp2973
(dp2974
g53
(dp2975
sg62
g2612
sg55
(lp2976
g48
(g69
g50
NtRp2977
(dp2978
g53
(dp2979
g73
g74
ssg62
g2973
sg55
(lp2980
S'SERVER_PORT'
p2981
asbag48
(g69
g50
NtRp2982
(dp2983
g53
(dp2984
g80
g81
ssg62
g2973
sg55
(lp2985
S':'
asbag48
(g69
g50
NtRp2986
(dp2987
g53
(dp2988
sg62
g2973
sg55
(lp2989
g48
(g49
g50
NtRp2990
(dp2991
g53
(dp2992
g61
I3
ssg62
g2986
sg55
(lp2993
g1985
asbasbasbag48
(g64
g50
NtRp2994
(dp2995
g53
(dp2996
sg62
g2612
sg55
(lp2997
g48
(g69
g50
NtRp2998
(dp2999
g53
(dp3000
g73
g74
ssg62
g2994
sg55
(lp3001
S'SERVER_PROTOCOL'
p3002
asbag48
(g69
g50
NtRp3003
(dp3004
g53
(dp3005
g80
g81
ssg62
g2994
sg55
(lp3006
S':'
asbag48
(g69
g50
NtRp3007
(dp3008
g53
(dp3009
sg62
g2994
sg55
(lp3010
g48
(g49
g50
NtRp3011
(dp3012
g53
(dp3013
g61
I3
ssg62
g3007
sg55
(lp3014
g2007
asbasbasbag48
(g64
g50
NtRp3015
(dp3016
g53
(dp3017
sg62
g2612
sg55
(lp3018
g48
(g69
g50
NtRp3019
(dp3020
g53
(dp3021
g73
g74
ssg62
g3015
sg55
(lp3022
S'SERVER_SOFTWARE'
p3023
asbag48
(g69
g50
NtRp3024
(dp3025
g53
(dp3026
g80
g81
ssg62
g3015
sg55
(lp3027
S':'
asbag48
(g69
g50
NtRp3028
(dp3029
g53
(dp3030
sg62
g3015
sg55
(lp3031
g48
(g49
g50
NtRp3032
(dp3033
g53
(dp3034
g61
I3
ssg62
g3028
sg55
(lp3035
g2029
asbasbasbag48
(g64
g50
NtRp3036
(dp3037
g53
(dp3038
sg62
g2612
sg55
(lp3039
g48
(g69
g50
NtRp3040
(dp3041
g53
(dp3042
g73
g74
ssg62
g3036
sg55
(lp3043
S'wsgi.errors'
p3044
asbag48
(g69
g50
NtRp3045
(dp3046
g53
(dp3047
g80
g81
ssg62
g3036
sg55
(lp3048
S':'
asbag48
(g69
g50
NtRp3049
(dp3050
g53
(dp3051
sg62
g3036
sg55
(lp3052
g48
(g49
g50
NtRp3053
(dp3054
g53
(dp3055
g61
I3
ssg62
g3049
sg55
(lp3056
S"<open file '<stderr>', mode 'w' at 0x003100B0>"
p3057
asbasbasbag48
(g64
g50
NtRp3058
(dp3059
g53
(dp3060
sg62
g2612
sg55
(lp3061
g48
(g69
g50
NtRp3062
(dp3063
g53
(dp3064
g73
g74
ssg62
g3058
sg55
(lp3065
S'wsgi.file_wrapper'
p3066
asbag48
(g69
g50
NtRp3067
(dp3068
g53
(dp3069
g80
g81
ssg62
g3058
sg55
(lp3070
S':'
asbag48
(g69
g50
NtRp3071
(dp3072
g53
(dp3073
sg62
g3058
sg55
(lp3074
g48
(g49
g50
NtRp3075
(dp3076
g53
(dp3077
g61
I3
ssg62
g3071
sg55
(lp3078
S'<class gluon.rocket.FileWrapper at 0x02FFC1B0>'
p3079
asbasbasbag48
(g64
g50
NtRp3080
(dp3081
g53
(dp3082
sg62
g2612
sg55
(lp3083
g48
(g69
g50
NtRp3084
(dp3085
g53
(dp3086
g73
g74
ssg62
g3080
sg55
(lp3087
S'wsgi.input'
p3088
asbag48
(g69
g50
NtRp3089
(dp3090
g53
(dp3091
g80
g81
ssg62
g3080
sg55
(lp3092
S':'
asbag48
(g69
g50
NtRp3093
(dp3094
g53
(dp3095
sg62
g3080
sg55
(lp3096
g48
(g49
g50
NtRp3097
(dp3098
g53
(dp3099
g61
I3
ssg62
g3093
sg55
(lp3100
S'<cStringIO.StringO object at 0x08E1B420>'
p3101
asbasbasbag48
(g64
g50
NtRp3102
(dp3103
g53
(dp3104
sg62
g2612
sg55
(lp3105
g48
(g69
g50
NtRp3106
(dp3107
g53
(dp3108
g73
g74
ssg62
g3102
sg55
(lp3109
S'wsgi.multiprocess'
p3110
asbag48
(g69
g50
NtRp3111
(dp3112
g53
(dp3113
g80
g81
ssg62
g3102
sg55
(lp3114
S':'
asbag48
(g69
g50
NtRp3115
(dp3116
g53
(dp3117
sg62
g3102
sg55
(lp3118
g48
(g49
g50
NtRp3119
(dp3120
g53
(dp3121
g61
I3
ssg62
g3115
sg55
(lp3122
g91
asbasbasbag48
(g64
g50
NtRp3123
(dp3124
g53
(dp3125
sg62
g2612
sg55
(lp3126
g48
(g69
g50
NtRp3127
(dp3128
g53
(dp3129
g73
g74
ssg62
g3123
sg55
(lp3130
S'wsgi.multithread'
p3131
asbag48
(g69
g50
NtRp3132
(dp3133
g53
(dp3134
g80
g81
ssg62
g3123
sg55
(lp3135
S':'
asbag48
(g69
g50
NtRp3136
(dp3137
g53
(dp3138
sg62
g3123
sg55
(lp3139
g48
(g49
g50
NtRp3140
(dp3141
g53
(dp3142
g61
I3
ssg62
g3136
sg55
(lp3143
g2203
asbasbasbag48
(g64
g50
NtRp3144
(dp3145
g53
(dp3146
sg62
g2612
sg55
(lp3147
g48
(g69
g50
NtRp3148
(dp3149
g53
(dp3150
g73
g74
ssg62
g3144
sg55
(lp3151
S'wsgi.run_once'
p3152
asbag48
(g69
g50
NtRp3153
(dp3154
g53
(dp3155
g80
g81
ssg62
g3144
sg55
(lp3156
S':'
asbag48
(g69
g50
NtRp3157
(dp3158
g53
(dp3159
sg62
g3144
sg55
(lp3160
g48
(g49
g50
NtRp3161
(dp3162
g53
(dp3163
g61
I3
ssg62
g3157
sg55
(lp3164
g91
asbasbasbag48
(g64
g50
NtRp3165
(dp3166
g53
(dp3167
sg62
g2612
sg55
(lp3168
g48
(g69
g50
NtRp3169
(dp3170
g53
(dp3171
g73
g74
ssg62
g3165
sg55
(lp3172
S'wsgi.url_scheme'
p3173
asbag48
(g69
g50
NtRp3174
(dp3175
g53
(dp3176
g80
g81
ssg62
g3165
sg55
(lp3177
S':'
asbag48
(g69
g50
NtRp3178
(dp3179
g53
(dp3180
sg62
g3165
sg55
(lp3181
g48
(g49
g50
NtRp3182
(dp3183
g53
(dp3184
g61
I3
ssg62
g3178
sg55
(lp3185
g2246
asbasbasbag48
(g64
g50
NtRp3186
(dp3187
g53
(dp3188
sg62
g2612
sg55
(lp3189
g48
(g69
g50
NtRp3190
(dp3191
g53
(dp3192
g73
g74
ssg62
g3186
sg55
(lp3193
S'wsgi.version'
p3194
asbag48
(g69
g50
NtRp3195
(dp3196
g53
(dp3197
g80
g81
ssg62
g3186
sg55
(lp3198
S':'
asbag48
(g69
g50
NtRp3199
(dp3200
g53
(dp3201
sg62
g3186
sg55
(lp3202
g48
(g49
g50
NtRp3203
(dp3204
g53
(dp3205
g61
I3
ssg62
g3199
sg55
(lp3206
S'1'
asbasbasbasbasbasbasbasbasbasbasbasbasbsS'frames'
p3207
(lp3208
(dp3209
S'file'
p3210
S'C:\\Users\\Atomico\\web2py\\gluon\\restricted.py'
p3211
sS'dump'
p3212
(dp3213
sS'lnum'
p3214
I192
sS'lines'
p3215
(dp3216
sS'call'
p3217
S'(code=\'response.write(\\\'<!DOCTYPE html>\\\\n<html lang="\\\', ...t   -->    \\\\n  </body>\\\\n</html>\\\\n\\\', escape=False)\', environment={\'A\': <class \'gluon.html.A\'>, \'B\': <class \'gluon.html.B\'>, \'BEAUTIFY\': <class \'gluon.html.BEAUTIFY\'>, \'BODY\': <class \'gluon.html.BODY\'>, \'BR\': <class \'gluon.html.BR\'>, \'BUTTON\': <class \'gluon.html.BUTTON\'>, \'CAT\': <class \'gluon.html.CAT\'>, \'CENTER\': <class \'gluon.html.CENTER\'>, \'CLEANUP\': <class \'gluon.validators.CLEANUP\'>, \'CODE\': <class \'gluon.html.CODE\'>, ...}, layer=r\'C:\\Users\\Atomico\\web2py\\applications\\Desglosar_Emails\\views\\default/entrada_mod2.html\')'
p3218
sS'func'
p3219
S'restricted'
p3220
sa(dp3221
g3210
S'C:\\Users\\Atomico\\web2py\\applications\\Desglosar_Emails\\views\\default\\entrada_mod2.html'
p3222
sg3212
(dp3223
sg3214
I116
sg3215
(dp3224
I107
S"response.write('\\r\\n<br/>\\r\\nM\\xc3\\xa1s cosas: \\r\\n', escape=False)"
p3225
sI108
S'ultimo=db(db.persona.id==len(db().select(db.persona.ALL))).select()[0]'
p3226
sI109
S'response.write(ultimo.nombre)'
p3227
sI110
S"response.write('\\r\\n<br/>\\r\\nVoy a seleccionar todos los que est\\xc3\\xa9n por encima del 1975: \\r\\n', escape=False)"
p3228
sI111
S'people=db().select(db.persona.nombre,orderby=db.persona.nacimiento)'
p3229
sI112
S'for i in range(len(people)):'
p3230
sI113
S'    response.write(i)'
p3231
sI114
S"    response.write(' ')"
p3232
sI115
S'    response.write(people[i].nombre)'
p3233
sI116
S'    response.write(db[i].persona.nombre)'
p3234
sI117
S'    response.write("" <br> "")'
p3235
sI118
S'    pass'
p3236
sI119
S"response.write('\\r\\na\\r\\n', escape=False)"
p3237
sI120
S"response.write('\\t\\n\\t  </div>\\n\\t  <!-- content -->\\n\\n\\t  ', escape=False)"
p3238
sI121
S'if right_sidebar_enabled:'
p3239
sI122
S'    response.write(\'\\n          <div id="right_sidebar" \', escape=False)'
p3240
sI123
S'    response.write(XML(right_sidebar_style))'
p3241
sI124
S'    response.write(\' >\\n            <div style="padding: 4px;">\\n              \', escape=False)'
p3242
sI125
S"    response.write('Content Right Sidebar', escape=False)"
p3243
sI126
S"    response.write('\\n            </div>\\n\\t  </div><!-- right_sidebar -->\\n          ', escape=False)"
p3244
ssg3217
S'()'
p3245
sg3219
S'<module>'
p3246
sa(dp3247
g3210
S'C:\\Users\\Atomico\\web2py\\gluon\\dal.py'
p3248
sg3212
(dp3249
sg3214
I4325
sg3215
(dp3250
sg3217
S"(self=<DAL {'_db_codec': 'UTF-8', 'info2': <Table {'AL...ing_references': {}, '_uri': 'sqlite://mydb.db'}>, key=0)"
p3251
sg3219
g19
sasS'pyver'
p3252
S'Python 2.5.4: C:\\Users\\Atomico\\web2py\\web2py.exe'
p3253
sS'session'
p3254
g48
(g49
g50
NtRp3255
(dp3256
g53
(dp3257
sg55
(lp3258
g48
(g57
g50
NtRp3259
(dp3260
g53
(dp3261
g61
I5
ssg62
Nsg55
(lp3262
g48
(g64
g50
NtRp3263
(dp3264
g53
(dp3265
sg62
g3259
sg55
(lp3266
g48
(g69
g50
NtRp3267
(dp3268
g53
(dp3269
g73
g74
ssg62
g3263
sg55
(lp3270
S'last_query'
p3271
asbag48
(g69
g50
NtRp3272
(dp3273
g53
(dp3274
g80
g81
ssg62
g3263
sg55
(lp3275
S':'
asbag48
(g69
g50
NtRp3276
(dp3277
g53
(dp3278
sg62
g3263
sg55
(lp3279
g48
(g49
g50
NtRp3280
(dp3281
g53
(dp3282
g61
I5
ssg62
g3276
sg55
(lp3283
S'db.persona.id>0'
p3284
asbasbasbasbasbsS'etype'
p3285
S"<type 'exceptions.KeyError'>"
p3286
sS'date'
p3287
S'Mon Sep 19 10:06:26 2011'
p3288
sS'response'
p3289
g48
(g49
g50
NtRp3290
(dp3291
g53
(dp3292
sg55
(lp3293
g48
(g57
g50
NtRp3294
(dp3295
g53
(dp3296
g61
I5
ssg62
Nsg55
(lp3297
g48
(g64
g50
NtRp3298
(dp3299
g53
(dp3300
sg62
g3294
sg55
(lp3301
g48
(g69
g50
NtRp3302
(dp3303
g53
(dp3304
g73
g74
ssg62
g3298
sg55
(lp3305
g146
asbag48
(g69
g50
NtRp3306
(dp3307
g53
(dp3308
g80
g81
ssg62
g3298
sg55
(lp3309
S':'
asbag48
(g69
g50
NtRp3310
(dp3311
g53
(dp3312
sg62
g3298
sg55
(lp3313
g48
(g49
g50
NtRp3314
(dp3315
g53
(dp3316
g61
I5
ssg62
g3310
sg55
(lp3317
S'<cStringIO.StringO object at 0x08E1B5A0>'
p3318
asbasbasbag48
(g64
g50
NtRp3319
(dp3320
g53
(dp3321
sg62
g3294
sg55
(lp3322
g48
(g69
g50
NtRp3323
(dp3324
g53
(dp3325
g73
g74
ssg62
g3319
sg55
(lp3326
g212
asbag48
(g69
g50
NtRp3327
(dp3328
g53
(dp3329
g80
g81
ssg62
g3319
sg55
(lp3330
S':'
asbag48
(g69
g50
NtRp3331
(dp3332
g53
(dp3333
sg62
g3319
sg55
(lp3334
g48
(g49
g50
NtRp3335
(dp3336
g53
(dp3337
g61
I5
ssg62
g3331
sg55
(lp3338
g48
(g57
g50
NtRp3339
(dp3340
g53
(dp3341
g61
I4
ssg62
Nsg55
(lp3342
g48
(g64
g50
NtRp3343
(dp3344
g53
(dp3345
sg62
g3339
sg55
(lp3346
g48
(g69
g50
NtRp3347
(dp3348
g53
(dp3349
g73
g74
ssg62
g3343
sg55
(lp3350
S'session_id_desglosar_emails'
p3351
asbag48
(g69
g50
NtRp3352
(dp3353
g53
(dp3354
g80
g81
ssg62
g3343
sg55
(lp3355
S':'
asbag48
(g69
g50
NtRp3356
(dp3357
g53
(dp3358
sg62
g3343
sg55
(lp3359
g48
(g49
g50
NtRp3360
(dp3361
g53
(dp3362
g61
I4
ssg62
g3356
sg55
(lp3363
g48
(g57
g50
NtRp3364
(dp3365
g53
(dp3366
g61
I3
ssg62
Nsg55
(lp3367
g48
(g64
g50
NtRp3368
(dp3369
g53
(dp3370
sg62
g3364
sg55
(lp3371
g48
(g69
g50
NtRp3372
(dp3373
g53
(dp3374
g73
g74
ssg62
g3368
sg55
(lp3375
g262
asbag48
(g69
g50
NtRp3376
(dp3377
g53
(dp3378
g80
g81
ssg62
g3368
sg55
(lp3379
S':'
asbag48
(g69
g50
NtRp3380
(dp3381
g53
(dp3382
sg62
g3368
sg55
(lp3383
g48
(g49
g50
NtRp3384
(dp3385
g53
(dp3386
g61
I3
ssg62
g3380
sg55
(lp3387
S''
asbasbasbag48
(g64
g50
NtRp3388
(dp3389
g53
(dp3390
sg62
g3364
sg55
(lp3391
g48
(g69
g50
NtRp3392
(dp3393
g53
(dp3394
g73
g74
ssg62
g3388
sg55
(lp3395
g283
asbag48
(g69
g50
NtRp3396
(dp3397
g53
(dp3398
g80
g81
ssg62
g3388
sg55
(lp3399
S':'
asbag48
(g69
g50
NtRp3400
(dp3401
g53
(dp3402
sg62
g3388
sg55
(lp3403
g48
(g49
g50
NtRp3404
(dp3405
g53
(dp3406
g61
I3
ssg62
g3400
sg55
(lp3407
S''
asbasbasbag48
(g64
g50
NtRp3408
(dp3409
g53
(dp3410
sg62
g3364
sg55
(lp3411
g48
(g69
g50
NtRp3412
(dp3413
g53
(dp3414
g73
g74
ssg62
g3408
sg55
(lp3415
g304
asbag48
(g69
g50
NtRp3416
(dp3417
g53
(dp3418
g80
g81
ssg62
g3408
sg55
(lp3419
S':'
asbag48
(g69
g50
NtRp3420
(dp3421
g53
(dp3422
sg62
g3408
sg55
(lp3423
g48
(g49
g50
NtRp3424
(dp3425
g53
(dp3426
g61
I3
ssg62
g3420
sg55
(lp3427
S''
asbasbasbag48
(g64
g50
NtRp3428
(dp3429
g53
(dp3430
sg62
g3364
sg55
(lp3431
g48
(g69
g50
NtRp3432
(dp3433
g53
(dp3434
g73
g74
ssg62
g3428
sg55
(lp3435
g325
asbag48
(g69
g50
NtRp3436
(dp3437
g53
(dp3438
g80
g81
ssg62
g3428
sg55
(lp3439
S':'
asbag48
(g69
g50
NtRp3440
(dp3441
g53
(dp3442
sg62
g3428
sg55
(lp3443
g48
(g49
g50
NtRp3444
(dp3445
g53
(dp3446
g61
I3
ssg62
g3440
sg55
(lp3447
S''
asbasbasbag48
(g64
g50
NtRp3448
(dp3449
g53
(dp3450
sg62
g3364
sg55
(lp3451
g48
(g69
g50
NtRp3452
(dp3453
g53
(dp3454
g73
g74
ssg62
g3448
sg55
(lp3455
g346
asbag48
(g69
g50
NtRp3456
(dp3457
g53
(dp3458
g80
g81
ssg62
g3448
sg55
(lp3459
S':'
asbag48
(g69
g50
NtRp3460
(dp3461
g53
(dp3462
sg62
g3448
sg55
(lp3463
g48
(g49
g50
NtRp3464
(dp3465
g53
(dp3466
g61
I3
ssg62
g3460
sg55
(lp3467
S'/'
asbasbasbag48
(g64
g50
NtRp3468
(dp3469
g53
(dp3470
sg62
g3364
sg55
(lp3471
g48
(g69
g50
NtRp3472
(dp3473
g53
(dp3474
g73
g74
ssg62
g3468
sg55
(lp3475
g367
asbag48
(g69
g50
NtRp3476
(dp3477
g53
(dp3478
g80
g81
ssg62
g3468
sg55
(lp3479
S':'
asbag48
(g69
g50
NtRp3480
(dp3481
g53
(dp3482
sg62
g3468
sg55
(lp3483
g48
(g49
g50
NtRp3484
(dp3485
g53
(dp3486
g61
I3
ssg62
g3480
sg55
(lp3487
S''
asbasbasbag48
(g64
g50
NtRp3488
(dp3489
g53
(dp3490
sg62
g3364
sg55
(lp3491
g48
(g69
g50
NtRp3492
(dp3493
g53
(dp3494
g73
g74
ssg62
g3488
sg55
(lp3495
g388
asbag48
(g69
g50
NtRp3496
(dp3497
g53
(dp3498
g80
g81
ssg62
g3488
sg55
(lp3499
S':'
asbag48
(g69
g50
NtRp3500
(dp3501
g53
(dp3502
sg62
g3488
sg55
(lp3503
g48
(g49
g50
NtRp3504
(dp3505
g53
(dp3506
g61
I3
ssg62
g3500
sg55
(lp3507
S''
asbasbasbasbasbasbasbasbasbasbasbag48
(g64
g50
NtRp3508
(dp3509
g53
(dp3510
sg62
g3294
sg55
(lp3511
g48
(g69
g50
NtRp3512
(dp3513
g53
(dp3514
g73
g74
ssg62
g3508
sg55
(lp3515
S'files'
p3516
asbag48
(g69
g50
NtRp3517
(dp3518
g53
(dp3519
g80
g81
ssg62
g3508
sg55
(lp3520
S':'
asbag48
(g69
g50
NtRp3521
(dp3522
g53
(dp3523
sg62
g3508
sg55
(lp3524
g48
(g49
g50
NtRp3525
(dp3526
g53
(dp3527
g61
I5
ssg62
g3521
sg55
(lp3528
g48
(g57
g50
NtRp3529
(dp3530
g53
(dp3531
g61
I4
ssg62
Nsg55
(lp3532
g48
(g64
g50
NtRp3533
(dp3534
g53
(dp3535
sg62
g3529
sg55
(lp3536
g48
(g69
g50
NtRp3537
(dp3538
g53
(dp3539
sg62
g3533
sg55
(lp3540
g48
(g49
g50
NtRp3541
(dp3542
g53
(dp3543
g61
I4
ssg62
g3537
sg55
(lp3544
S'/Desglosar_Emails/static/js/jquery.js'
p3545
asbasbasbag48
(g64
g50
NtRp3546
(dp3547
g53
(dp3548
sg62
g3529
sg55
(lp3549
g48
(g69
g50
NtRp3550
(dp3551
g53
(dp3552
sg62
g3546
sg55
(lp3553
g48
(g49
g50
NtRp3554
(dp3555
g53
(dp3556
g61
I4
ssg62
g3550
sg55
(lp3557
S'/Desglosar_Emails/static/css/calendar.css'
p3558
asbasbasbag48
(g64
g50
NtRp3559
(dp3560
g53
(dp3561
sg62
g3529
sg55
(lp3562
g48
(g69
g50
NtRp3563
(dp3564
g53
(dp3565
sg62
g3559
sg55
(lp3566
g48
(g49
g50
NtRp3567
(dp3568
g53
(dp3569
g61
I4
ssg62
g3563
sg55
(lp3570
S'/Desglosar_Emails/static/js/calendar.js'
p3571
asbasbasbag48
(g64
g50
NtRp3572
(dp3573
g53
(dp3574
sg62
g3529
sg55
(lp3575
g48
(g69
g50
NtRp3576
(dp3577
g53
(dp3578
sg62
g3572
sg55
(lp3579
g48
(g49
g50
NtRp3580
(dp3581
g53
(dp3582
g61
I4
ssg62
g3576
sg55
(lp3583
S'/Desglosar_Emails/static/css/base.css'
p3584
asbasbasbag48
(g64
g50
NtRp3585
(dp3586
g53
(dp3587
sg62
g3529
sg55
(lp3588
g48
(g69
g50
NtRp3589
(dp3590
g53
(dp3591
sg62
g3585
sg55
(lp3592
g48
(g49
g50
NtRp3593
(dp3594
g53
(dp3595
g61
I4
ssg62
g3589
sg55
(lp3596
S'/Desglosar_Emails/static/css/superfish.css'
p3597
asbasbasbag48
(g64
g50
NtRp3598
(dp3599
g53
(dp3600
sg62
g3529
sg55
(lp3601
g48
(g69
g50
NtRp3602
(dp3603
g53
(dp3604
sg62
g3598
sg55
(lp3605
g48
(g49
g50
NtRp3606
(dp3607
g53
(dp3608
g61
I4
ssg62
g3602
sg55
(lp3609
S'/Desglosar_Emails/static/js/superfish.js'
p3610
asbasbasbasbasbasbasbag48
(g64
g50
NtRp3611
(dp3612
g53
(dp3613
sg62
g3294
sg55
(lp3614
g48
(g69
g50
NtRp3615
(dp3616
g53
(dp3617
g73
g74
ssg62
g3611
sg55
(lp3618
S'flash'
p3619
asbag48
(g69
g50
NtRp3620
(dp3621
g53
(dp3622
g80
g81
ssg62
g3611
sg55
(lp3623
S':'
asbag48
(g69
g50
NtRp3624
(dp3625
g53
(dp3626
sg62
g3611
sg55
(lp3627
g48
(g49
g50
NtRp3628
(dp3629
g53
(dp3630
g61
I5
ssg62
g3624
sg55
(lp3631
S''
asbasbasbag48
(g64
g50
NtRp3632
(dp3633
g53
(dp3634
sg62
g3294
sg55
(lp3635
g48
(g69
g50
NtRp3636
(dp3637
g53
(dp3638
g73
g74
ssg62
g3632
sg55
(lp3639
S'generic_patterns'
p3640
asbag48
(g69
g50
NtRp3641
(dp3642
g53
(dp3643
g80
g81
ssg62
g3632
sg55
(lp3644
S':'
asbag48
(g69
g50
NtRp3645
(dp3646
g53
(dp3647
sg62
g3632
sg55
(lp3648
g48
(g49
g50
NtRp3649
(dp3650
g53
(dp3651
g61
I5
ssg62
g3645
sg55
(lp3652
g48
(g57
g50
NtRp3653
(dp3654
g53
(dp3655
g61
I4
ssg62
Nsg55
(lp3656
sbasbasbasbag48
(g64
g50
NtRp3657
(dp3658
g53
(dp3659
sg62
g3294
sg55
(lp3660
g48
(g69
g50
NtRp3661
(dp3662
g53
(dp3663
g73
g74
ssg62
g3657
sg55
(lp3664
S'headers'
p3665
asbag48
(g69
g50
NtRp3666
(dp3667
g53
(dp3668
g80
g81
ssg62
g3657
sg55
(lp3669
S':'
asbag48
(g69
g50
NtRp3670
(dp3671
g53
(dp3672
sg62
g3657
sg55
(lp3673
g48
(g49
g50
NtRp3674
(dp3675
g53
(dp3676
g61
I5
ssg62
g3670
sg55
(lp3677
g48
(g57
g50
NtRp3678
(dp3679
g53
(dp3680
g61
I4
ssg62
Nsg55
(lp3681
g48
(g64
g50
NtRp3682
(dp3683
g53
(dp3684
sg62
g3678
sg55
(lp3685
g48
(g69
g50
NtRp3686
(dp3687
g53
(dp3688
g73
g74
ssg62
g3682
sg55
(lp3689
S'Cache-Control'
p3690
asbag48
(g69
g50
NtRp3691
(dp3692
g53
(dp3693
g80
g81
ssg62
g3682
sg55
(lp3694
S':'
asbag48
(g69
g50
NtRp3695
(dp3696
g53
(dp3697
sg62
g3682
sg55
(lp3698
g48
(g49
g50
NtRp3699
(dp3700
g53
(dp3701
g61
I4
ssg62
g3695
sg55
(lp3702
S'no-store, no-cache, must-revalidate, post-check=0, pre-check=0'
p3703
asbasbasbag48
(g64
g50
NtRp3704
(dp3705
g53
(dp3706
sg62
g3678
sg55
(lp3707
g48
(g69
g50
NtRp3708
(dp3709
g53
(dp3710
g73
g74
ssg62
g3704
sg55
(lp3711
S'Content-Type'
p3712
asbag48
(g69
g50
NtRp3713
(dp3714
g53
(dp3715
g80
g81
ssg62
g3704
sg55
(lp3716
S':'
asbag48
(g69
g50
NtRp3717
(dp3718
g53
(dp3719
sg62
g3704
sg55
(lp3720
g48
(g49
g50
NtRp3721
(dp3722
g53
(dp3723
g61
I4
ssg62
g3717
sg55
(lp3724
S'text/html; charset=utf-8'
p3725
asbasbasbag48
(g64
g50
NtRp3726
(dp3727
g53
(dp3728
sg62
g3678
sg55
(lp3729
g48
(g69
g50
NtRp3730
(dp3731
g53
(dp3732
g73
g74
ssg62
g3726
sg55
(lp3733
S'Expires'
p3734
asbag48
(g69
g50
NtRp3735
(dp3736
g53
(dp3737
g80
g81
ssg62
g3726
sg55
(lp3738
S':'
asbag48
(g69
g50
NtRp3739
(dp3740
g53
(dp3741
sg62
g3726
sg55
(lp3742
g48
(g49
g50
NtRp3743
(dp3744
g53
(dp3745
g61
I4
ssg62
g3739
sg55
(lp3746
S'Mon, 19 Sep 2011 08:06:26 GMT'
p3747
asbasbasbag48
(g64
g50
NtRp3748
(dp3749
g53
(dp3750
sg62
g3678
sg55
(lp3751
g48
(g69
g50
NtRp3752
(dp3753
g53
(dp3754
g73
g74
ssg62
g3748
sg55
(lp3755
S'Pragma'
p3756
asbag48
(g69
g50
NtRp3757
(dp3758
g53
(dp3759
g80
g81
ssg62
g3748
sg55
(lp3760
S':'
asbag48
(g69
g50
NtRp3761
(dp3762
g53
(dp3763
sg62
g3748
sg55
(lp3764
g48
(g49
g50
NtRp3765
(dp3766
g53
(dp3767
g61
I4
ssg62
g3761
sg55
(lp3768
S'no-cache'
p3769
asbasbasbag48
(g64
g50
NtRp3770
(dp3771
g53
(dp3772
sg62
g3678
sg55
(lp3773
g48
(g69
g50
NtRp3774
(dp3775
g53
(dp3776
g73
g74
ssg62
g3770
sg55
(lp3777
S'X-Powered-By'
p3778
asbag48
(g69
g50
NtRp3779
(dp3780
g53
(dp3781
g80
g81
ssg62
g3770
sg55
(lp3782
S':'
asbag48
(g69
g50
NtRp3783
(dp3784
g53
(dp3785
sg62
g3770
sg55
(lp3786
g48
(g49
g50
NtRp3787
(dp3788
g53
(dp3789
g61
I4
ssg62
g3783
sg55
(lp3790
S'web2py'
p3791
asbasbasbasbasbasbasbag48
(g64
g50
NtRp3792
(dp3793
g53
(dp3794
sg62
g3294
sg55
(lp3795
g48
(g69
g50
NtRp3796
(dp3797
g53
(dp3798
g73
g74
ssg62
g3792
sg55
(lp3799
S'menu'
p3800
asbag48
(g69
g50
NtRp3801
(dp3802
g53
(dp3803
g80
g81
ssg62
g3792
sg55
(lp3804
S':'
asbag48
(g69
g50
NtRp3805
(dp3806
g53
(dp3807
sg62
g3792
sg55
(lp3808
g48
(g49
g50
NtRp3809
(dp3810
g53
(dp3811
g61
I5
ssg62
g3805
sg55
(lp3812
g48
(g57
g50
NtRp3813
(dp3814
g53
(dp3815
g61
I4
ssg62
Nsg55
(lp3816
g48
(g64
g50
NtRp3817
(dp3818
g53
(dp3819
sg62
g3813
sg55
(lp3820
g48
(g69
g50
NtRp3821
(dp3822
g53
(dp3823
sg62
g3817
sg55
(lp3824
g48
(g49
g50
NtRp3825
(dp3826
g53
(dp3827
g61
I4
ssg62
g3821
sg55
(lp3828
g48
(g57
g50
NtRp3829
(dp3830
g53
(dp3831
g61
I3
ssg62
Nsg55
(lp3832
g48
(g64
g50
NtRp3833
(dp3834
g53
(dp3835
sg62
g3829
sg55
(lp3836
g48
(g69
g50
NtRp3837
(dp3838
g53
(dp3839
sg62
g3833
sg55
(lp3840
g48
(g49
g50
NtRp3841
(dp3842
g53
(dp3843
g61
I3
ssg62
g3837
sg55
(lp3844
cgluon.languages
lazyT_unpickle
p3845
(S't\x04\x00\x00\x00Home'
tRp3846
asbasbasbag48
(g64
g50
NtRp3847
(dp3848
g53
(dp3849
sg62
g3829
sg55
(lp3850
g48
(g69
g50
NtRp3851
(dp3852
g53
(dp3853
sg62
g3847
sg55
(lp3854
g48
(g49
g50
NtRp3855
(dp3856
g53
(dp3857
g61
I3
ssg62
g3851
sg55
(lp3858
g91
asbasbasbag48
(g64
g50
NtRp3859
(dp3860
g53
(dp3861
sg62
g3829
sg55
(lp3862
g48
(g69
g50
NtRp3863
(dp3864
g53
(dp3865
sg62
g3859
sg55
(lp3866
g48
(g49
g50
NtRp3867
(dp3868
g53
(dp3869
g61
I3
ssg62
g3863
sg55
(lp3870
S'/Desglosar_Emails/default/index'
p3871
asbasbasbag48
(g64
g50
NtRp3872
(dp3873
g53
(dp3874
sg62
g3829
sg55
(lp3875
g48
(g69
g50
NtRp3876
(dp3877
g53
(dp3878
sg62
g3872
sg55
(lp3879
g48
(g49
g50
NtRp3880
(dp3881
g53
(dp3882
g61
I3
ssg62
g3876
sg55
(lp3883
g48
(g57
g50
NtRp3884
(dp3885
g53
(dp3886
g61
I2
ssg62
Nsg55
(lp3887
sbasbasbasbasbasbasbasbag48
(g64
g50
NtRp3888
(dp3889
g53
(dp3890
sg62
g3813
sg55
(lp3891
g48
(g69
g50
NtRp3892
(dp3893
g53
(dp3894
sg62
g3888
sg55
(lp3895
g48
(g49
g50
NtRp3896
(dp3897
g53
(dp3898
g61
I4
ssg62
g3892
sg55
(lp3899
g48
(g57
g50
NtRp3900
(dp3901
g53
(dp3902
g61
I3
ssg62
Nsg55
(lp3903
g48
(g64
g50
NtRp3904
(dp3905
g53
(dp3906
sg62
g3900
sg55
(lp3907
g48
(g69
g50
NtRp3908
(dp3909
g53
(dp3910
sg62
g3904
sg55
(lp3911
g48
(g49
g50
NtRp3912
(dp3913
g53
(dp3914
g61
I3
ssg62
g3908
sg55
(lp3915
g3845
(S's\x08\x00\x00\x00This App'
tRp3916
asbasbasbag48
(g64
g50
NtRp3917
(dp3918
g53
(dp3919
sg62
g3900
sg55
(lp3920
g48
(g69
g50
NtRp3921
(dp3922
g53
(dp3923
sg62
g3917
sg55
(lp3924
g48
(g49
g50
NtRp3925
(dp3926
g53
(dp3927
g61
I3
ssg62
g3921
sg55
(lp3928
g91
asbasbasbag48
(g64
g50
NtRp3929
(dp3930
g53
(dp3931
sg62
g3900
sg55
(lp3932
g48
(g69
g50
NtRp3933
(dp3934
g53
(dp3935
sg62
g3929
sg55
(lp3936
g48
(g49
g50
NtRp3937
(dp3938
g53
(dp3939
g61
I3
ssg62
g3933
sg55
(lp3940
S'/admin/default/design/Desglosar_Emails'
p3941
asbasbasbag48
(g64
g50
NtRp3942
(dp3943
g53
(dp3944
sg62
g3900
sg55
(lp3945
g48
(g69
g50
NtRp3946
(dp3947
g53
(dp3948
sg62
g3942
sg55
(lp3949
g48
(g49
g50
NtRp3950
(dp3951
g53
(dp3952
g61
I3
ssg62
g3946
sg55
(lp3953
g48
(g57
g50
NtRp3954
(dp3955
g53
(dp3956
g61
I2
ssg62
Nsg55
(lp3957
g48
(g64
g50
NtRp3958
(dp3959
g53
(dp3960
sg62
g3954
sg55
(lp3961
g48
(g69
g50
NtRp3962
(dp3963
g53
(dp3964
sg62
g3958
sg55
(lp3965
g48
(g49
g50
NtRp3966
(dp3967
g53
(dp3968
g61
I2
ssg62
g3962
sg55
(lp3969
g48
(g57
g50
NtRp3970
(dp3971
g53
(dp3972
g61
I1
ssg62
Nsg55
(lp3973
g48
(g64
g50
NtRp3974
(dp3975
g53
(dp3976
sg62
g3970
sg55
(lp3977
g48
(g69
g50
NtRp3978
(dp3979
g53
(dp3980
sg62
g3974
sg55
(lp3981
g48
(g49
g50
NtRp3982
(dp3983
g53
(dp3984
g61
I1
ssg62
g3978
sg55
(lp3985
g3845
(S't\x0b\x00\x00\x00Controlador'
tRp3986
asbasbasbag48
(g64
g50
NtRp3987
(dp3988
g53
(dp3989
sg62
g3970
sg55
(lp3990
g48
(g69
g50
NtRp3991
(dp3992
g53
(dp3993
sg62
g3987
sg55
(lp3994
g48
(g49
g50
NtRp3995
(dp3996
g53
(dp3997
g61
I1
ssg62
g3991
sg55
(lp3998
I00
asbasbasbag48
(g64
g50
NtRp3999
(dp4000
g53
(dp4001
sg62
g3970
sg55
(lp4002
g48
(g69
g50
NtRp4003
(dp4004
g53
(dp4005
sg62
g3999
sg55
(lp4006
g48
(g49
g50
NtRp4007
(dp4008
g53
(dp4009
g61
I1
ssg62
g4003
sg55
(lp4010
S'/admin/default/edit/Desglosar_Emails/controllers/default.py'
p4011
asbasbasbasbasbasbasbag48
(g64
g50
NtRp4012
(dp4013
g53
(dp4014
sg62
g3954
sg55
(lp4015
g48
(g69
g50
NtRp4016
(dp4017
g53
(dp4018
sg62
g4012
sg55
(lp4019
g48
(g49
g50
NtRp4020
(dp4021
g53
(dp4022
g61
I2
ssg62
g4016
sg55
(lp4023
g48
(g57
g50
NtRp4024
(dp4025
g53
(dp4026
g61
I1
ssg62
Nsg55
(lp4027
g48
(g64
g50
NtRp4028
(dp4029
g53
(dp4030
sg62
g4024
sg55
(lp4031
g48
(g69
g50
NtRp4032
(dp4033
g53
(dp4034
sg62
g4028
sg55
(lp4035
g48
(g49
g50
NtRp4036
(dp4037
g53
(dp4038
g61
I1
ssg62
g4032
sg55
(lp4039
g3845
(S't\x05\x00\x00\x00Vista'
tRp4040
asbasbasbag48
(g64
g50
NtRp4041
(dp4042
g53
(dp4043
sg62
g4024
sg55
(lp4044
g48
(g69
g50
NtRp4045
(dp4046
g53
(dp4047
sg62
g4041
sg55
(lp4048
g48
(g49
g50
NtRp4049
(dp4050
g53
(dp4051
g61
I1
ssg62
g4045
sg55
(lp4052
I00
asbasbasbag48
(g64
g50
NtRp4053
(dp4054
g53
(dp4055
sg62
g4024
sg55
(lp4056
g48
(g69
g50
NtRp4057
(dp4058
g53
(dp4059
sg62
g4053
sg55
(lp4060
g48
(g49
g50
NtRp4061
(dp4062
g53
(dp4063
g61
I1
ssg62
g4057
sg55
(lp4064
S'/admin/default/edit/Desglosar_Emails/views/default/entrada_mod2.html'
p4065
asbasbasbasbasbasbasbag48
(g64
g50
NtRp4066
(dp4067
g53
(dp4068
sg62
g3954
sg55
(lp4069
g48
(g69
g50
NtRp4070
(dp4071
g53
(dp4072
sg62
g4066
sg55
(lp4073
g48
(g49
g50
NtRp4074
(dp4075
g53
(dp4076
g61
I2
ssg62
g4070
sg55
(lp4077
g48
(g57
g50
NtRp4078
(dp4079
g53
(dp4080
g61
I1
ssg62
Nsg55
(lp4081
g48
(g64
g50
NtRp4082
(dp4083
g53
(dp4084
sg62
g4078
sg55
(lp4085
g48
(g69
g50
NtRp4086
(dp4087
g53
(dp4088
sg62
g4082
sg55
(lp4089
g48
(g49
g50
NtRp4090
(dp4091
g53
(dp4092
g61
I1
ssg62
g4086
sg55
(lp4093
g3845
(S's\x12\x00\x00\x00Dise\xc3\xb1o de p\xc3\xa1gina'
tRp4094
asbasbasbag48
(g64
g50
NtRp4095
(dp4096
g53
(dp4097
sg62
g4078
sg55
(lp4098
g48
(g69
g50
NtRp4099
(dp4100
g53
(dp4101
sg62
g4095
sg55
(lp4102
g48
(g49
g50
NtRp4103
(dp4104
g53
(dp4105
g61
I1
ssg62
g4099
sg55
(lp4106
I00
asbasbasbag48
(g64
g50
NtRp4107
(dp4108
g53
(dp4109
sg62
g4078
sg55
(lp4110
g48
(g69
g50
NtRp4111
(dp4112
g53
(dp4113
sg62
g4107
sg55
(lp4114
g48
(g49
g50
NtRp4115
(dp4116
g53
(dp4117
g61
I1
ssg62
g4111
sg55
(lp4118
S'/admin/default/edit/Desglosar_Emails/views/layout.html'
p4119
asbasbasbasbasbasbasbag48
(g64
g50
NtRp4120
(dp4121
g53
(dp4122
sg62
g3954
sg55
(lp4123
g48
(g69
g50
NtRp4124
(dp4125
g53
(dp4126
sg62
g4120
sg55
(lp4127
g48
(g49
g50
NtRp4128
(dp4129
g53
(dp4130
g61
I2
ssg62
g4124
sg55
(lp4131
g48
(g57
g50
NtRp4132
(dp4133
g53
(dp4134
g61
I1
ssg62
Nsg55
(lp4135
g48
(g64
g50
NtRp4136
(dp4137
g53
(dp4138
sg62
g4132
sg55
(lp4139
g48
(g69
g50
NtRp4140
(dp4141
g53
(dp4142
sg62
g4136
sg55
(lp4143
g48
(g49
g50
NtRp4144
(dp4145
g53
(dp4146
g61
I1
ssg62
g4140
sg55
(lp4147
g3845
(S's\x0e\x00\x00\x00Hoja de estilo'
tRp4148
asbasbasbag48
(g64
g50
NtRp4149
(dp4150
g53
(dp4151
sg62
g4132
sg55
(lp4152
g48
(g69
g50
NtRp4153
(dp4154
g53
(dp4155
sg62
g4149
sg55
(lp4156
g48
(g49
g50
NtRp4157
(dp4158
g53
(dp4159
g61
I1
ssg62
g4153
sg55
(lp4160
I00
asbasbasbag48
(g64
g50
NtRp4161
(dp4162
g53
(dp4163
sg62
g4132
sg55
(lp4164
g48
(g69
g50
NtRp4165
(dp4166
g53
(dp4167
sg62
g4161
sg55
(lp4168
g48
(g49
g50
NtRp4169
(dp4170
g53
(dp4171
g61
I1
ssg62
g4165
sg55
(lp4172
S'/admin/default/edit/Desglosar_Emails/static/base.css'
p4173
asbasbasbasbasbasbasbag48
(g64
g50
NtRp4174
(dp4175
g53
(dp4176
sg62
g3954
sg55
(lp4177
g48
(g69
g50
NtRp4178
(dp4179
g53
(dp4180
sg62
g4174
sg55
(lp4181
g48
(g49
g50
NtRp4182
(dp4183
g53
(dp4184
g61
I2
ssg62
g4178
sg55
(lp4185
g48
(g57
g50
NtRp4186
(dp4187
g53
(dp4188
g61
I1
ssg62
Nsg55
(lp4189
g48
(g64
g50
NtRp4190
(dp4191
g53
(dp4192
sg62
g4186
sg55
(lp4193
g48
(g69
g50
NtRp4194
(dp4195
g53
(dp4196
sg62
g4190
sg55
(lp4197
g48
(g49
g50
NtRp4198
(dp4199
g53
(dp4200
g61
I1
ssg62
g4194
sg55
(lp4201
g3845
(S's\x0b\x00\x00\x00Modelo "db"'
tRp4202
asbasbasbag48
(g64
g50
NtRp4203
(dp4204
g53
(dp4205
sg62
g4186
sg55
(lp4206
g48
(g69
g50
NtRp4207
(dp4208
g53
(dp4209
sg62
g4203
sg55
(lp4210
g48
(g49
g50
NtRp4211
(dp4212
g53
(dp4213
g61
I1
ssg62
g4207
sg55
(lp4214
I00
asbasbasbag48
(g64
g50
NtRp4215
(dp4216
g53
(dp4217
sg62
g4186
sg55
(lp4218
g48
(g69
g50
NtRp4219
(dp4220
g53
(dp4221
sg62
g4215
sg55
(lp4222
g48
(g49
g50
NtRp4223
(dp4224
g53
(dp4225
g61
I1
ssg62
g4219
sg55
(lp4226
S'/admin/default/edit/Desglosar_Emails/models/db.py'
p4227
asbasbasbasbasbasbasbag48
(g64
g50
NtRp4228
(dp4229
g53
(dp4230
sg62
g3954
sg55
(lp4231
g48
(g69
g50
NtRp4232
(dp4233
g53
(dp4234
sg62
g4228
sg55
(lp4235
g48
(g49
g50
NtRp4236
(dp4237
g53
(dp4238
g61
I2
ssg62
g4232
sg55
(lp4239
g48
(g57
g50
NtRp4240
(dp4241
g53
(dp4242
g61
I1
ssg62
Nsg55
(lp4243
g48
(g64
g50
NtRp4244
(dp4245
g53
(dp4246
sg62
g4240
sg55
(lp4247
g48
(g69
g50
NtRp4248
(dp4249
g53
(dp4250
sg62
g4244
sg55
(lp4251
g48
(g49
g50
NtRp4252
(dp4253
g53
(dp4254
g61
I1
ssg62
g4248
sg55
(lp4255
g3845
(S's\r\x00\x00\x00Modelo "menu"'
tRp4256
asbasbasbag48
(g64
g50
NtRp4257
(dp4258
g53
(dp4259
sg62
g4240
sg55
(lp4260
g48
(g69
g50
NtRp4261
(dp4262
g53
(dp4263
sg62
g4257
sg55
(lp4264
g48
(g49
g50
NtRp4265
(dp4266
g53
(dp4267
g61
I1
ssg62
g4261
sg55
(lp4268
I00
asbasbasbag48
(g64
g50
NtRp4269
(dp4270
g53
(dp4271
sg62
g4240
sg55
(lp4272
g48
(g69
g50
NtRp4273
(dp4274
g53
(dp4275
sg62
g4269
sg55
(lp4276
g48
(g49
g50
NtRp4277
(dp4278
g53
(dp4279
g61
I1
ssg62
g4273
sg55
(lp4280
S'/admin/default/edit/Desglosar_Emails/models/menu.py'
p4281
asbasbasbasbasbasbasbag48
(g64
g50
NtRp4282
(dp4283
g53
(dp4284
sg62
g3954
sg55
(lp4285
g48
(g69
g50
NtRp4286
(dp4287
g53
(dp4288
sg62
g4282
sg55
(lp4289
g48
(g49
g50
NtRp4290
(dp4291
g53
(dp4292
g61
I2
ssg62
g4286
sg55
(lp4293
g48
(g57
g50
NtRp4294
(dp4295
g53
(dp4296
g61
I1
ssg62
Nsg55
(lp4297
g48
(g64
g50
NtRp4298
(dp4299
g53
(dp4300
sg62
g4294
sg55
(lp4301
g48
(g69
g50
NtRp4302
(dp4303
g53
(dp4304
sg62
g4298
sg55
(lp4305
g48
(g49
g50
NtRp4306
(dp4307
g53
(dp4308
g61
I1
ssg62
g4302
sg55
(lp4309
g3845
(S's\r\x00\x00\x00Base de datos'
tRp4310
asbasbasbag48
(g64
g50
NtRp4311
(dp4312
g53
(dp4313
sg62
g4294
sg55
(lp4314
g48
(g69
g50
NtRp4315
(dp4316
g53
(dp4317
sg62
g4311
sg55
(lp4318
g48
(g49
g50
NtRp4319
(dp4320
g53
(dp4321
g61
I1
ssg62
g4315
sg55
(lp4322
I00
asbasbasbag48
(g64
g50
NtRp4323
(dp4324
g53
(dp4325
sg62
g4294
sg55
(lp4326
g48
(g69
g50
NtRp4327
(dp4328
g53
(dp4329
sg62
g4323
sg55
(lp4330
g48
(g49
g50
NtRp4331
(dp4332
g53
(dp4333
g61
I1
ssg62
g4327
sg55
(lp4334
S'/Desglosar_Emails/appadmin/index'
p4335
asbasbasbasbasbasbasbag48
(g64
g50
NtRp4336
(dp4337
g53
(dp4338
sg62
g3954
sg55
(lp4339
g48
(g69
g50
NtRp4340
(dp4341
g53
(dp4342
sg62
g4336
sg55
(lp4343
g48
(g49
g50
NtRp4344
(dp4345
g53
(dp4346
g61
I2
ssg62
g4340
sg55
(lp4347
g48
(g57
g50
NtRp4348
(dp4349
g53
(dp4350
g61
I1
ssg62
Nsg55
(lp4351
g48
(g64
g50
NtRp4352
(dp4353
g53
(dp4354
sg62
g4348
sg55
(lp4355
g48
(g69
g50
NtRp4356
(dp4357
g53
(dp4358
sg62
g4352
sg55
(lp4359
g48
(g49
g50
NtRp4360
(dp4361
g53
(dp4362
g61
I1
ssg62
g4356
sg55
(lp4363
g3845
(S't\x06\x00\x00\x00Errors'
tRp4364
asbasbasbag48
(g64
g50
NtRp4365
(dp4366
g53
(dp4367
sg62
g4348
sg55
(lp4368
g48
(g69
g50
NtRp4369
(dp4370
g53
(dp4371
sg62
g4365
sg55
(lp4372
g48
(g49
g50
NtRp4373
(dp4374
g53
(dp4375
g61
I1
ssg62
g4369
sg55
(lp4376
I00
asbasbasbag48
(g64
g50
NtRp4377
(dp4378
g53
(dp4379
sg62
g4348
sg55
(lp4380
g48
(g69
g50
NtRp4381
(dp4382
g53
(dp4383
sg62
g4377
sg55
(lp4384
g48
(g49
g50
NtRp4385
(dp4386
g53
(dp4387
g61
I1
ssg62
g4381
sg55
(lp4388
S'/admin/default/errors/Desglosar_Emails'
p4389
asbasbasbasbasbasbasbag48
(g64
g50
NtRp4390
(dp4391
g53
(dp4392
sg62
g3954
sg55
(lp4393
g48
(g69
g50
NtRp4394
(dp4395
g53
(dp4396
sg62
g4390
sg55
(lp4397
g48
(g49
g50
NtRp4398
(dp4399
g53
(dp4400
g61
I2
ssg62
g4394
sg55
(lp4401
g48
(g57
g50
NtRp4402
(dp4403
g53
(dp4404
g61
I1
ssg62
Nsg55
(lp4405
g48
(g64
g50
NtRp4406
(dp4407
g53
(dp4408
sg62
g4402
sg55
(lp4409
g48
(g69
g50
NtRp4410
(dp4411
g53
(dp4412
sg62
g4406
sg55
(lp4413
g48
(g49
g50
NtRp4414
(dp4415
g53
(dp4416
g61
I1
ssg62
g4410
sg55
(lp4417
g3845
(S's\t\x00\x00\x00Acerca de'
tRp4418
asbasbasbag48
(g64
g50
NtRp4419
(dp4420
g53
(dp4421
sg62
g4402
sg55
(lp4422
g48
(g69
g50
NtRp4423
(dp4424
g53
(dp4425
sg62
g4419
sg55
(lp4426
g48
(g49
g50
NtRp4427
(dp4428
g53
(dp4429
g61
I1
ssg62
g4423
sg55
(lp4430
I00
asbasbasbag48
(g64
g50
NtRp4431
(dp4432
g53
(dp4433
sg62
g4402
sg55
(lp4434
g48
(g69
g50
NtRp4435
(dp4436
g53
(dp4437
sg62
g4431
sg55
(lp4438
g48
(g49
g50
NtRp4439
(dp4440
g53
(dp4441
g61
I1
ssg62
g4435
sg55
(lp4442
S'/admin/default/about/Desglosar_Emails'
p4443
asbasbasbasbasbasbasbasbasbasbasbasbasbasbasbag48
(g64
g50
NtRp4444
(dp4445
g53
(dp4446
sg62
g3813
sg55
(lp4447
g48
(g69
g50
NtRp4448
(dp4449
g53
(dp4450
sg62
g4444
sg55
(lp4451
g48
(g49
g50
NtRp4452
(dp4453
g53
(dp4454
g61
I4
ssg62
g4448
sg55
(lp4455
g48
(g57
g50
NtRp4456
(dp4457
g53
(dp4458
g61
I3
ssg62
Nsg55
(lp4459
g48
(g64
g50
NtRp4460
(dp4461
g53
(dp4462
sg62
g4456
sg55
(lp4463
g48
(g69
g50
NtRp4464
(dp4465
g53
(dp4466
sg62
g4460
sg55
(lp4467
g48
(g49
g50
NtRp4468
(dp4469
g53
(dp4470
g61
I3
ssg62
g4464
sg55
(lp4471
g3845
(S't\t\x00\x00\x00Resources'
tRp4472
asbasbasbag48
(g64
g50
NtRp4473
(dp4474
g53
(dp4475
sg62
g4456
sg55
(lp4476
g48
(g69
g50
NtRp4477
(dp4478
g53
(dp4479
sg62
g4473
sg55
(lp4480
g48
(g49
g50
NtRp4481
(dp4482
g53
(dp4483
g61
I3
ssg62
g4477
sg55
(lp4484
g91
asbasbasbag48
(g64
g50
NtRp4485
(dp4486
g53
(dp4487
sg62
g4456
sg55
(lp4488
g48
(g69
g50
NtRp4489
(dp4490
g53
(dp4491
sg62
g4485
sg55
(lp4492
g48
(g49
g50
NtRp4493
(dp4494
g53
(dp4495
g61
I3
ssg62
g4489
sg55
(lp4496
S'None'
p4497
asbasbasbag48
(g64
g50
NtRp4498
(dp4499
g53
(dp4500
sg62
g4456
sg55
(lp4501
g48
(g69
g50
NtRp4502
(dp4503
g53
(dp4504
sg62
g4498
sg55
(lp4505
g48
(g49
g50
NtRp4506
(dp4507
g53
(dp4508
g61
I3
ssg62
g4502
sg55
(lp4509
g48
(g57
g50
NtRp4510
(dp4511
g53
(dp4512
g61
I2
ssg62
Nsg55
(lp4513
g48
(g64
g50
NtRp4514
(dp4515
g53
(dp4516
sg62
g4510
sg55
(lp4517
g48
(g69
g50
NtRp4518
(dp4519
g53
(dp4520
sg62
g4514
sg55
(lp4521
g48
(g49
g50
NtRp4522
(dp4523
g53
(dp4524
g61
I2
ssg62
g4518
sg55
(lp4525
g48
(g57
g50
NtRp4526
(dp4527
g53
(dp4528
g61
I1
ssg62
Nsg55
(lp4529
g48
(g64
g50
NtRp4530
(dp4531
g53
(dp4532
sg62
g4526
sg55
(lp4533
g48
(g69
g50
NtRp4534
(dp4535
g53
(dp4536
sg62
g4530
sg55
(lp4537
g48
(g49
g50
NtRp4538
(dp4539
g53
(dp4540
g61
I1
ssg62
g4534
sg55
(lp4541
g3845
(S's\x0e\x00\x00\x00Documentaci\xc3\xb3n'
tRp4542
asbasbasbag48
(g64
g50
NtRp4543
(dp4544
g53
(dp4545
sg62
g4526
sg55
(lp4546
g48
(g69
g50
NtRp4547
(dp4548
g53
(dp4549
sg62
g4543
sg55
(lp4550
g48
(g49
g50
NtRp4551
(dp4552
g53
(dp4553
g61
I1
ssg62
g4547
sg55
(lp4554
I00
asbasbasbag48
(g64
g50
NtRp4555
(dp4556
g53
(dp4557
sg62
g4526
sg55
(lp4558
g48
(g69
g50
NtRp4559
(dp4560
g53
(dp4561
sg62
g4555
sg55
(lp4562
g48
(g49
g50
NtRp4563
(dp4564
g53
(dp4565
g61
I1
ssg62
g4559
sg55
(lp4566
S'http://www.web2py.com/book'
p4567
asbasbasbag48
(g64
g50
NtRp4568
(dp4569
g53
(dp4570
sg62
g4526
sg55
(lp4571
g48
(g69
g50
NtRp4572
(dp4573
g53
(dp4574
sg62
g4568
sg55
(lp4575
g48
(g49
g50
NtRp4576
(dp4577
g53
(dp4578
g61
I1
ssg62
g4572
sg55
(lp4579
(lp4580
(g3845
(S't\x07\x00\x00\x00Preface'
tRp4581
I00
S'http://www.web2py.com/book/default/chapter/00'
tp4582
a(g3845
(S't\x0c\x00\x00\x00Introduction'
tRp4583
I00
S'http://www.web2py.com/book/default/chapter/01'
tp4584
a(g3845
(S't\x06\x00\x00\x00Python'
tRp4585
I00
S'http://www.web2py.com/book/default/chapter/02'
tp4586
a(g3845
(S't\x08\x00\x00\x00Overview'
tRp4587
I00
S'http://www.web2py.com/book/default/chapter/03'
tp4588
a(g3845
(S's\x08\x00\x00\x00The Core'
tRp4589
I00
S'http://www.web2py.com/book/default/chapter/04'
tp4590
a(g3845
(S's\t\x00\x00\x00The Views'
tRp4591
I00
S'http://www.web2py.com/book/default/chapter/05'
tp4592
a(g3845
(S's\r\x00\x00\x00Base de datos'
tRp4593
I00
S'http://www.web2py.com/book/default/chapter/06'
tp4594
a(g3845
(S's\x14\x00\x00\x00Forms and Validators'
tRp4595
I00
S'http://www.web2py.com/book/default/chapter/07'
tp4596
a(g3845
(S's\x0e\x00\x00\x00Access Control'
tRp4597
I00
S'http://www.web2py.com/book/default/chapter/08'
tp4598
a(g3845
(S't\x08\x00\x00\x00Services'
tRp4599
I00
S'http://www.web2py.com/book/default/chapter/09'
tp4600
a(g3845
(S's\x0c\x00\x00\x00Ajax Recipes'
tRp4601
I00
S'http://www.web2py.com/book/default/chapter/10'
tp4602
a(g3845
(S's\x12\x00\x00\x00Deployment Recipes'
tRp4603
I00
S'http://www.web2py.com/book/default/chapter/11'
tp4604
a(g3845
(S's\r\x00\x00\x00Other Recipes'
tRp4605
I00
S'http://www.web2py.com/book/default/chapter/12'
tp4606
a(g3845
(S's\r\x00\x00\x00Buy this book'
tRp4607
I00
S'http://stores.lulu.com/web2py'
tp4608
aasbasbasbasbasbasbasbag48
(g64
g50
NtRp4609
(dp4610
g53
(dp4611
sg62
g4510
sg55
(lp4612
g48
(g69
g50
NtRp4613
(dp4614
g53
(dp4615
sg62
g4609
sg55
(lp4616
g48
(g49
g50
NtRp4617
(dp4618
g53
(dp4619
g61
I2
ssg62
g4613
sg55
(lp4620
g48
(g57
g50
NtRp4621
(dp4622
g53
(dp4623
g61
I1
ssg62
Nsg55
(lp4624
g48
(g64
g50
NtRp4625
(dp4626
g53
(dp4627
sg62
g4621
sg55
(lp4628
g48
(g69
g50
NtRp4629
(dp4630
g53
(dp4631
sg62
g4625
sg55
(lp4632
g48
(g49
g50
NtRp4633
(dp4634
g53
(dp4635
g61
I1
ssg62
g4629
sg55
(lp4636
g3845
(S't\t\x00\x00\x00Community'
tRp4637
asbasbasbag48
(g64
g50
NtRp4638
(dp4639
g53
(dp4640
sg62
g4621
sg55
(lp4641
g48
(g69
g50
NtRp4642
(dp4643
g53
(dp4644
sg62
g4638
sg55
(lp4645
g48
(g49
g50
NtRp4646
(dp4647
g53
(dp4648
g61
I1
ssg62
g4642
sg55
(lp4649
I00
asbasbasbag48
(g64
g50
NtRp4650
(dp4651
g53
(dp4652
sg62
g4621
sg55
(lp4653
g48
(g69
g50
NtRp4654
(dp4655
g53
(dp4656
sg62
g4650
sg55
(lp4657
g48
(g49
g50
NtRp4658
(dp4659
g53
(dp4660
g61
I1
ssg62
g4654
sg55
(lp4661
Nasbasbasbag48
(g64
g50
NtRp4662
(dp4663
g53
(dp4664
sg62
g4621
sg55
(lp4665
g48
(g69
g50
NtRp4666
(dp4667
g53
(dp4668
sg62
g4662
sg55
(lp4669
g48
(g49
g50
NtRp4670
(dp4671
g53
(dp4672
g61
I1
ssg62
g4666
sg55
(lp4673
(lp4674
(g3845
(S't\x06\x00\x00\x00Groups'
tRp4675
I00
S'http://www.web2py.com/examples/default/usergroups'
tp4676
a(g3845
(S't\x07\x00\x00\x00Twitter'
tRp4677
I00
S'http://twitter.com/web2py'
tp4678
a(g3845
(S's\t\x00\x00\x00Live chat'
tRp4679
I00
S'http://mibbit.com/?channel=%23web2py&server=irc.mibbit.net'
tp4680
a(g3845
(S's\n\x00\x00\x00User Voice'
tRp4681
I00
S'http://web2py.uservoice.com/'
tp4682
aasbasbasbasbasbasbasbag48
(g64
g50
NtRp4683
(dp4684
g53
(dp4685
sg62
g4510
sg55
(lp4686
g48
(g69
g50
NtRp4687
(dp4688
g53
(dp4689
sg62
g4683
sg55
(lp4690
g48
(g49
g50
NtRp4691
(dp4692
g53
(dp4693
g61
I2
ssg62
g4687
sg55
(lp4694
g48
(g57
g50
NtRp4695
(dp4696
g53
(dp4697
g61
I1
ssg62
Nsg55
(lp4698
g48
(g64
g50
NtRp4699
(dp4700
g53
(dp4701
sg62
g4695
sg55
(lp4702
g48
(g69
g50
NtRp4703
(dp4704
g53
(dp4705
sg62
g4699
sg55
(lp4706
g48
(g49
g50
NtRp4707
(dp4708
g53
(dp4709
g61
I1
ssg62
g4703
sg55
(lp4710
g3845
(S't\x06\x00\x00\x00Web2py'
tRp4711
asbasbasbag48
(g64
g50
NtRp4712
(dp4713
g53
(dp4714
sg62
g4695
sg55
(lp4715
g48
(g69
g50
NtRp4716
(dp4717
g53
(dp4718
sg62
g4712
sg55
(lp4719
g48
(g49
g50
NtRp4720
(dp4721
g53
(dp4722
g61
I1
ssg62
g4716
sg55
(lp4723
I00
asbasbasbag48
(g64
g50
NtRp4724
(dp4725
g53
(dp4726
sg62
g4695
sg55
(lp4727
g48
(g69
g50
NtRp4728
(dp4729
g53
(dp4730
sg62
g4724
sg55
(lp4731
g48
(g49
g50
NtRp4732
(dp4733
g53
(dp4734
g61
I1
ssg62
g4728
sg55
(lp4735
S'http://www.web2py.com'
p4736
asbasbasbag48
(g64
g50
NtRp4737
(dp4738
g53
(dp4739
sg62
g4695
sg55
(lp4740
g48
(g69
g50
NtRp4741
(dp4742
g53
(dp4743
sg62
g4737
sg55
(lp4744
g48
(g49
g50
NtRp4745
(dp4746
g53
(dp4747
g61
I1
ssg62
g4741
sg55
(lp4748
(lp4749
(g3845
(S't\x08\x00\x00\x00Download'
tRp4750
I00
S'http://www.web2py.com/examples/default/download'
tp4751
a(g3845
(S't\x07\x00\x00\x00Support'
tRp4752
I00
S'http://www.web2py.com/examples/default/support'
tp4753
a(g3845
(S's\x0e\x00\x00\x00Quick Examples'
tRp4754
I00
S'http://web2py.com/examples/default/examples'
tp4755
a(g3845
(S't\x03\x00\x00\x00FAQ'
tRp4756
I00
S'http://web2py.com/AlterEgo'
tp4757
a(g3845
(S's\x11\x00\x00\x00Free Applications'
tRp4758
I00
S'http://web2py.com/appliances'
tp4759
a(g3845
(S't\x07\x00\x00\x00Plugins'
tRp4760
I00
S'http://web2py.com/plugins'
tp4761
a(g3845
(S't\x07\x00\x00\x00Recipes'
tRp4762
I00
S'http://web2pyslices.com/'
tp4763
a(g3845
(S't\x04\x00\x00\x00Demo'
tRp4764
I00
S'http://web2py.com/demo_admin'
tp4765
a(g3845
(S't\x08\x00\x00\x00Semantic'
tRp4766
I00
S'http://web2py.com/semantic'
tp4767
a(g3845
(S't\x07\x00\x00\x00Layouts'
tRp4768
I00
S'http://web2py.com/layouts'
tp4769
a(g3845
(S't\x06\x00\x00\x00Videos'
tRp4770
I00
S'http://www.web2py.com/examples/default/videos/'
tp4771
aasbasbasbasbasbasbasbasbasbasbasbasbasbasbasbasbasbasbasbag48
(g64
g50
NtRp4772
(dp4773
g53
(dp4774
sg62
g3294
sg55
(lp4775
g48
(g69
g50
NtRp4776
(dp4777
g53
(dp4778
g73
g74
ssg62
g4772
sg55
(lp4779
S'meta'
p4780
asbag48
(g69
g50
NtRp4781
(dp4782
g53
(dp4783
g80
g81
ssg62
g4772
sg55
(lp4784
S':'
asbag48
(g69
g50
NtRp4785
(dp4786
g53
(dp4787
sg62
g4772
sg55
(lp4788
g48
(g49
g50
NtRp4789
(dp4790
g53
(dp4791
g61
I5
ssg62
g4785
sg55
(lp4792
g48
(g57
g50
NtRp4793
(dp4794
g53
(dp4795
g61
I4
ssg62
Nsg55
(lp4796
g48
(g64
g50
NtRp4797
(dp4798
g53
(dp4799
sg62
g4793
sg55
(lp4800
g48
(g69
g50
NtRp4801
(dp4802
g53
(dp4803
g73
g74
ssg62
g4797
sg55
(lp4804
S'author'
p4805
asbag48
(g69
g50
NtRp4806
(dp4807
g53
(dp4808
g80
g81
ssg62
g4797
sg55
(lp4809
S':'
asbag48
(g69
g50
NtRp4810
(dp4811
g53
(dp4812
sg62
g4797
sg55
(lp4813
g48
(g49
g50
NtRp4814
(dp4815
g53
(dp4816
g61
I4
ssg62
g4810
sg55
(lp4817
S'you'
p4818
asbasbasbag48
(g64
g50
NtRp4819
(dp4820
g53
(dp4821
sg62
g4793
sg55
(lp4822
g48
(g69
g50
NtRp4823
(dp4824
g53
(dp4825
g73
g74
ssg62
g4819
sg55
(lp4826
S'copyright'
p4827
asbag48
(g69
g50
NtRp4828
(dp4829
g53
(dp4830
g80
g81
ssg62
g4819
sg55
(lp4831
S':'
asbag48
(g69
g50
NtRp4832
(dp4833
g53
(dp4834
sg62
g4819
sg55
(lp4835
g48
(g49
g50
NtRp4836
(dp4837
g53
(dp4838
g61
I4
ssg62
g4832
sg55
(lp4839
S'Copyright 2007-2010'
p4840
asbasbasbag48
(g64
g50
NtRp4841
(dp4842
g53
(dp4843
sg62
g4793
sg55
(lp4844
g48
(g69
g50
NtRp4845
(dp4846
g53
(dp4847
g73
g74
ssg62
g4841
sg55
(lp4848
S'description'
p4849
asbag48
(g69
g50
NtRp4850
(dp4851
g53
(dp4852
g80
g81
ssg62
g4841
sg55
(lp4853
S':'
asbag48
(g69
g50
NtRp4854
(dp4855
g53
(dp4856
sg62
g4841
sg55
(lp4857
g48
(g49
g50
NtRp4858
(dp4859
g53
(dp4860
g61
I4
ssg62
g4854
sg55
(lp4861
S'Free and open source full-stack enterprise framework for agile development of fast, scalable, secure and portable database-driven web-based applications. Written and programmable in Python'
p4862
asbasbasbag48
(g64
g50
NtRp4863
(dp4864
g53
(dp4865
sg62
g4793
sg55
(lp4866
g48
(g69
g50
NtRp4867
(dp4868
g53
(dp4869
g73
g74
ssg62
g4863
sg55
(lp4870
S'generator'
p4871
asbag48
(g69
g50
NtRp4872
(dp4873
g53
(dp4874
g80
g81
ssg62
g4863
sg55
(lp4875
S':'
asbag48
(g69
g50
NtRp4876
(dp4877
g53
(dp4878
sg62
g4863
sg55
(lp4879
g48
(g49
g50
NtRp4880
(dp4881
g53
(dp4882
g61
I4
ssg62
g4876
sg55
(lp4883
S'Web2py Enterprise Framework'
p4884
asbasbasbag48
(g64
g50
NtRp4885
(dp4886
g53
(dp4887
sg62
g4793
sg55
(lp4888
g48
(g69
g50
NtRp4889
(dp4890
g53
(dp4891
g73
g74
ssg62
g4885
sg55
(lp4892
S'keywords'
p4893
asbag48
(g69
g50
NtRp4894
(dp4895
g53
(dp4896
g80
g81
ssg62
g4885
sg55
(lp4897
S':'
asbag48
(g69
g50
NtRp4898
(dp4899
g53
(dp4900
sg62
g4885
sg55
(lp4901
g48
(g49
g50
NtRp4902
(dp4903
g53
(dp4904
g61
I4
ssg62
g4898
sg55
(lp4905
S'web2py, python, framework'
p4906
asbasbasbasbasbasbasbag48
(g64
g50
NtRp4907
(dp4908
g53
(dp4909
sg62
g3294
sg55
(lp4910
g48
(g69
g50
NtRp4911
(dp4912
g53
(dp4913
g73
g74
ssg62
g4907
sg55
(lp4914
S'postprocessing'
p4915
asbag48
(g69
g50
NtRp4916
(dp4917
g53
(dp4918
g80
g81
ssg62
g4907
sg55
(lp4919
S':'
asbag48
(g69
g50
NtRp4920
(dp4921
g53
(dp4922
sg62
g4907
sg55
(lp4923
g48
(g49
g50
NtRp4924
(dp4925
g53
(dp4926
g61
I5
ssg62
g4920
sg55
(lp4927
g48
(g57
g50
NtRp4928
(dp4929
g53
(dp4930
g61
I4
ssg62
Nsg55
(lp4931
sbasbasbasbag48
(g64
g50
NtRp4932
(dp4933
g53
(dp4934
sg62
g3294
sg55
(lp4935
g48
(g69
g50
NtRp4936
(dp4937
g53
(dp4938
g73
g74
ssg62
g4932
sg55
(lp4939
S'session_file'
p4940
asbag48
(g69
g50
NtRp4941
(dp4942
g53
(dp4943
g80
g81
ssg62
g4932
sg55
(lp4944
S':'
asbag48
(g69
g50
NtRp4945
(dp4946
g53
(dp4947
sg62
g4932
sg55
(lp4948
g48
(g49
g50
NtRp4949
(dp4950
g53
(dp4951
g61
I5
ssg62
g4945
sg55
(lp4952
S"<open file 'C:\\Users\\Atomico\\web2py\\applications\\Desglosar_Emails\\sessions\\127.0.0.1-0a11b3b2-660c-433c-b71f-fc129286f26c', mode 'rb+' at 0x076C3188>"
p4953
asbasbasbag48
(g64
g50
NtRp4954
(dp4955
g53
(dp4956
sg62
g3294
sg55
(lp4957
g48
(g69
g50
NtRp4958
(dp4959
g53
(dp4960
g73
g74
ssg62
g4954
sg55
(lp4961
S'session_filename'
p4962
asbag48
(g69
g50
NtRp4963
(dp4964
g53
(dp4965
g80
g81
ssg62
g4954
sg55
(lp4966
S':'
asbag48
(g69
g50
NtRp4967
(dp4968
g53
(dp4969
sg62
g4954
sg55
(lp4970
g48
(g49
g50
NtRp4971
(dp4972
g53
(dp4973
g61
I5
ssg62
g4967
sg55
(lp4974
S'C:\\Users\\Atomico\\web2py\\applications\\Desglosar_Emails\\sessions\\127.0.0.1-0a11b3b2-660c-433c-b71f-fc129286f26c'
p4975
asbasbasbag48
(g64
g50
NtRp4976
(dp4977
g53
(dp4978
sg62
g3294
sg55
(lp4979
g48
(g69
g50
NtRp4980
(dp4981
g53
(dp4982
g73
g74
ssg62
g4976
sg55
(lp4983
S'session_id'
p4984
asbag48
(g69
g50
NtRp4985
(dp4986
g53
(dp4987
g80
g81
ssg62
g4976
sg55
(lp4988
S':'
asbag48
(g69
g50
NtRp4989
(dp4990
g53
(dp4991
sg62
g4976
sg55
(lp4992
g48
(g49
g50
NtRp4993
(dp4994
g53
(dp4995
g61
I5
ssg62
g4989
sg55
(lp4996
S'127.0.0.1-0a11b3b2-660c-433c-b71f-fc129286f26c'
p4997
asbasbasbag48
(g64
g50
NtRp4998
(dp4999
g53
(dp5000
sg62
g3294
sg55
(lp5001
g48
(g69
g50
NtRp5002
(dp5003
g53
(dp5004
g73
g74
ssg62
g4998
sg55
(lp5005
S'session_id_name'
p5006
asbag48
(g69
g50
NtRp5007
(dp5008
g53
(dp5009
g80
g81
ssg62
g4998
sg55
(lp5010
S':'
asbag48
(g69
g50
NtRp5011
(dp5012
g53
(dp5013
sg62
g4998
sg55
(lp5014
g48
(g49
g50
NtRp5015
(dp5016
g53
(dp5017
g61
I5
ssg62
g5011
sg55
(lp5018
g3351
asbasbasbag48
(g64
g50
NtRp5019
(dp5020
g53
(dp5021
sg62
g3294
sg55
(lp5022
g48
(g69
g50
NtRp5023
(dp5024
g53
(dp5025
g73
g74
ssg62
g5019
sg55
(lp5026
S'session_locked'
p5027
asbag48
(g69
g50
NtRp5028
(dp5029
g53
(dp5030
g80
g81
ssg62
g5019
sg55
(lp5031
S':'
asbag48
(g69
g50
NtRp5032
(dp5033
g53
(dp5034
sg62
g5019
sg55
(lp5035
g48
(g49
g50
NtRp5036
(dp5037
g53
(dp5038
g61
I5
ssg62
g5032
sg55
(lp5039
g2203
asbasbasbag48
(g64
g50
NtRp5040
(dp5041
g53
(dp5042
sg62
g3294
sg55
(lp5043
g48
(g69
g50
NtRp5044
(dp5045
g53
(dp5046
g73
g74
ssg62
g5040
sg55
(lp5047
S'session_new'
p5048
asbag48
(g69
g50
NtRp5049
(dp5050
g53
(dp5051
g80
g81
ssg62
g5040
sg55
(lp5052
S':'
asbag48
(g69
g50
NtRp5053
(dp5054
g53
(dp5055
sg62
g5040
sg55
(lp5056
g48
(g49
g50
NtRp5057
(dp5058
g53
(dp5059
g61
I5
ssg62
g5053
sg55
(lp5060
g91
asbasbasbag48
(g64
g50
NtRp5061
(dp5062
g53
(dp5063
sg62
g3294
sg55
(lp5064
g48
(g69
g50
NtRp5065
(dp5066
g53
(dp5067
g73
g74
ssg62
g5061
sg55
(lp5068
S'status'
p5069
asbag48
(g69
g50
NtRp5070
(dp5071
g53
(dp5072
g80
g81
ssg62
g5061
sg55
(lp5073
S':'
asbag48
(g69
g50
NtRp5074
(dp5075
g53
(dp5076
sg62
g5061
sg55
(lp5077
g48
(g49
g50
NtRp5078
(dp5079
g53
(dp5080
g61
I5
ssg62
g5074
sg55
(lp5081
S'200'
p5082
asbasbasbag48
(g64
g50
NtRp5083
(dp5084
g53
(dp5085
sg62
g3294
sg55
(lp5086
g48
(g69
g50
NtRp5087
(dp5088
g53
(dp5089
g73
g74
ssg62
g5083
sg55
(lp5090
S'subtitle'
p5091
asbag48
(g69
g50
NtRp5092
(dp5093
g53
(dp5094
g80
g81
ssg62
g5083
sg55
(lp5095
S':'
asbag48
(g69
g50
NtRp5096
(dp5097
g53
(dp5098
sg62
g5083
sg55
(lp5099
g48
(g49
g50
NtRp5100
(dp5101
g53
(dp5102
g61
I5
ssg62
g5096
sg55
(lp5103
g3845
(S's\t\x00\x00\x00Adaptame!'
tRp5104
asbasbasbag48
(g64
g50
NtRp5105
(dp5106
g53
(dp5107
sg62
g3294
sg55
(lp5108
g48
(g69
g50
NtRp5109
(dp5110
g53
(dp5111
g73
g74
ssg62
g5105
sg55
(lp5112
S'title'
p5113
asbag48
(g69
g50
NtRp5114
(dp5115
g53
(dp5116
g80
g81
ssg62
g5105
sg55
(lp5117
S':'
asbag48
(g69
g50
NtRp5118
(dp5119
g53
(dp5120
sg62
g5105
sg55
(lp5121
g48
(g49
g50
NtRp5122
(dp5123
g53
(dp5124
g61
I5
ssg62
g5118
sg55
(lp5125
g113
asbasbasbag48
(g64
g50
NtRp5126
(dp5127
g53
(dp5128
sg62
g3294
sg55
(lp5129
g48
(g69
g50
NtRp5130
(dp5131
g53
(dp5132
g73
g74
ssg62
g5126
sg55
(lp5133
g2527
asbag48
(g69
g50
NtRp5134
(dp5135
g53
(dp5136
g80
g81
ssg62
g5126
sg55
(lp5137
S':'
asbag48
(g69
g50
NtRp5138
(dp5139
g53
(dp5140
sg62
g5126
sg55
(lp5141
g48
(g49
g50
NtRp5142
(dp5143
g53
(dp5144
g61
I5
ssg62
g5138
sg55
(lp5145
g2540
asbasbasbag48
(g64
g50
NtRp5146
(dp5147
g53
(dp5148
sg62
g3294
sg55
(lp5149
g48
(g69
g50
NtRp5150
(dp5151
g53
(dp5152
g73
g74
ssg62
g5146
sg55
(lp5153
S'view'
p5154
asbag48
(g69
g50
NtRp5155
(dp5156
g53
(dp5157
g80
g81
ssg62
g5146
sg55
(lp5158
S':'
asbag48
(g69
g50
NtRp5159
(dp5160
g53
(dp5161
sg62
g5146
sg55
(lp5162
g48
(g49
g50
NtRp5163
(dp5164
g53
(dp5165
g61
I5
ssg62
g5159
sg55
(lp5166
S'default/entrada_mod2.html'
p5167
asbasbasbasbasbsS'locals'
p5168
(dp5169
S'self'
p5170
S"<DAL {'_db_codec': 'UTF-8', 'info2': <Table {'AL...ing_references': {}, '_uri': 'sqlite://mydb.db'}>"
p5171
sS'key'
p5172
S'0'
sssS'traceback'
p5173
S'Traceback (most recent call last):\n  File "gluon/restricted.py", line 192, in restricted\n  File "C:\\Users\\Atomico\\web2py\\applications\\Desglosar_Emails\\views\\default/entrada_mod2.html", line 116, in <module>\n  File "gluon/dal.py", line 4325, in __getitem__\nKeyError: \'0\'\n'
p5174
s.