(dp1
S'output'
p2
S''
sS'layer'
p3
S'C:\\Users\\Atomico\\web2py\\applications\\Desglosar_Emails\\controllers/default.py'
p4
sS'code'
p5
S'def entrada():\n    form=SQLFORM(db.info)\n    if form.accepts(request.vars,session): pass\n    \n    txt=db.info[12].texto\n    c=0\n    for i in range(len(txt)): c=c+1\n    response.write(\'el total de c es \'+str(c)+\'. \')\n   \n    import re\n    pattern=re.compile(".*a[0-5].*")\n    for i in range(len(txt)):\n    ## encontrar el primer email\n        s=txt[:i]\n        if pattern.search(s):\n            response.write(\'Se ha encontrado a1 o a2 o a3 o a4 o a5 o a0\')\n        elif not pattern.search(s) and i==(len(txt)-1):\n            response.write(\'Nanai contrai\')\n        \n    response.write(\'La len(txt) es \'+str(len(txt))+\' y la i es \'+str(i))\n    response.write(\'*********************\')\n\n    cont=0\n    for i in xrange(0,4):\n        cont=cont+1\n        response.write(\'Para el valor i \'+str(i)+\' el contador se pone a \'+str(cont))\n    response.write(\' y el resultado final es de i \'+str(i)+\' el contador se pone a \'+str(cont)+\'. \')\n    i=0\n    while i<len(txt):\n        response.write(txt[i]+\'-\')\n        i=i+1\n    response.write(\'. La len(txt) es de \'+str(len(txt))+\' y la i se ha quedado en \'+str(i))\n    \n    return dict(form=form)\n    \ndef entrada_mod1():\n    form=SQLFORM(db.info2)\n    if form.accepts(request.vars,session): pass\n    db.info2.long=len(db.info2.texto)\n    return form\n\nresponse._vars=response._caller(entrada_mod1)\n'
p6
sS'snapshot'
p7
(dp8
S'exception'
p9
(dp10
S'__hash__'
p11
S"<method-wrapper '__hash__' of exceptions.TypeError object at 0x07FBD350>"
p12
sS'__setattr__'
p13
S"<method-wrapper '__setattr__' of exceptions.TypeError object at 0x07FBD350>"
p14
sS'__reduce_ex__'
p15
S'<built-in method __reduce_ex__ of exceptions.TypeError object at 0x07FBD350>'
p16
sS'__getslice__'
p17
S"<method-wrapper '__getslice__' of exceptions.TypeError object at 0x07FBD350>"
p18
sS'__getitem__'
p19
S"<method-wrapper '__getitem__' of exceptions.TypeError object at 0x07FBD350>"
p20
sS'__setstate__'
p21
S'<built-in method __setstate__ of exceptions.TypeError object at 0x07FBD350>'
p22
sS'__reduce__'
p23
S'<built-in method __reduce__ of exceptions.TypeError object at 0x07FBD350>'
p24
sS'__str__'
p25
S"<method-wrapper '__str__' of exceptions.TypeError object at 0x07FBD350>"
p26
sS'args'
p27
S'("object of type \'Field\' has no len()",)'
p28
sS'__getattribute__'
p29
S"<method-wrapper '__getattribute__' of exceptions.TypeError object at 0x07FBD350>"
p30
sS'__class__'
p31
S"<type 'exceptions.TypeError'>"
p32
sS'__delattr__'
p33
S"<method-wrapper '__delattr__' of exceptions.TypeError object at 0x07FBD350>"
p34
sS'__repr__'
p35
S"<method-wrapper '__repr__' of exceptions.TypeError object at 0x07FBD350>"
p36
sS'__dict__'
p37
S'{}'
p38
sS'__doc__'
p39
S"'Inappropriate argument type.'"
p40
sS'__init__'
p41
S"<method-wrapper '__init__' of exceptions.TypeError object at 0x07FBD350>"
p42
sS'__new__'
p43
S'<built-in method __new__ of type object at 0x1E1CCD78>'
p44
ssS'evalue'
p45
S"object of type 'Field' has no len()"
p46
sS'request'
p47
ccopy_reg
_reconstructor
p48
(cgluon.html
BEAUTIFY
p49
c__builtin__
object
p50
NtRp51
(dp52
S'attributes'
p53
(dp54
sS'components'
p55
(lp56
g48
(cgluon.html
TABLE
p57
g50
NtRp58
(dp59
g53
(dp60
S'level'
p61
I5
ssS'parent'
p62
Nsg55
(lp63
g48
(cgluon.html
TR
p64
g50
NtRp65
(dp66
g53
(dp67
sg62
g58
sg55
(lp68
g48
(cgluon.html
TD
p69
g50
NtRp70
(dp71
g53
(dp72
S'_style'
p73
S'font-weight:bold;'
p74
ssg62
g65
sg55
(lp75
S'ajax'
p76
asbag48
(g69
g50
NtRp77
(dp78
g53
(dp79
S'_valign'
p80
S'top'
p81
ssg62
g65
sg55
(lp82
S':'
asbag48
(g69
g50
NtRp83
(dp84
g53
(dp85
sg62
g65
sg55
(lp86
g48
(g49
g50
NtRp87
(dp88
g53
(dp89
g61
I5
ssg62
g83
sg55
(lp90
S'False'
p91
asbasbasbag48
(g64
g50
NtRp92
(dp93
g53
(dp94
sg62
g58
sg55
(lp95
g48
(g69
g50
NtRp96
(dp97
g53
(dp98
g73
g74
ssg62
g92
sg55
(lp99
S'application'
p100
asbag48
(g69
g50
NtRp101
(dp102
g53
(dp103
g80
g81
ssg62
g92
sg55
(lp104
S':'
asbag48
(g69
g50
NtRp105
(dp106
g53
(dp107
sg62
g92
sg55
(lp108
g48
(g49
g50
NtRp109
(dp110
g53
(dp111
g61
I5
ssg62
g105
sg55
(lp112
S'Desglosar_Emails'
p113
asbasbasbag48
(g64
g50
NtRp114
(dp115
g53
(dp116
sg62
g58
sg55
(lp117
g48
(g69
g50
NtRp118
(dp119
g53
(dp120
g73
g74
ssg62
g114
sg55
(lp121
g27
asbag48
(g69
g50
NtRp122
(dp123
g53
(dp124
g80
g81
ssg62
g114
sg55
(lp125
S':'
asbag48
(g69
g50
NtRp126
(dp127
g53
(dp128
sg62
g114
sg55
(lp129
g48
(g49
g50
NtRp130
(dp131
g53
(dp132
g61
I5
ssg62
g126
sg55
(lp133
g48
(g57
g50
NtRp134
(dp135
g53
(dp136
g61
I4
ssg62
Nsg55
(lp137
sbasbasbasbag48
(g64
g50
NtRp138
(dp139
g53
(dp140
sg62
g58
sg55
(lp141
g48
(g69
g50
NtRp142
(dp143
g53
(dp144
g73
g74
ssg62
g138
sg55
(lp145
S'body'
p146
asbag48
(g69
g50
NtRp147
(dp148
g53
(dp149
g80
g81
ssg62
g138
sg55
(lp150
S':'
asbag48
(g69
g50
NtRp151
(dp152
g53
(dp153
sg62
g138
sg55
(lp154
g48
(g49
g50
NtRp155
(dp156
g53
(dp157
g61
I5
ssg62
g151
sg55
(lp158
S'<cStringIO.StringO object at 0x07F0D280>'
p159
asbasbasbag48
(g64
g50
NtRp160
(dp161
g53
(dp162
sg62
g58
sg55
(lp163
g48
(g69
g50
NtRp164
(dp165
g53
(dp166
g73
g74
ssg62
g160
sg55
(lp167
S'client'
p168
asbag48
(g69
g50
NtRp169
(dp170
g53
(dp171
g80
g81
ssg62
g160
sg55
(lp172
S':'
asbag48
(g69
g50
NtRp173
(dp174
g53
(dp175
sg62
g160
sg55
(lp176
g48
(g49
g50
NtRp177
(dp178
g53
(dp179
g61
I5
ssg62
g173
sg55
(lp180
S'127.0.0.1'
p181
asbasbasbag48
(g64
g50
NtRp182
(dp183
g53
(dp184
sg62
g58
sg55
(lp185
g48
(g69
g50
NtRp186
(dp187
g53
(dp188
g73
g74
ssg62
g182
sg55
(lp189
S'controller'
p190
asbag48
(g69
g50
NtRp191
(dp192
g53
(dp193
g80
g81
ssg62
g182
sg55
(lp194
S':'
asbag48
(g69
g50
NtRp195
(dp196
g53
(dp197
sg62
g182
sg55
(lp198
g48
(g49
g50
NtRp199
(dp200
g53
(dp201
g61
I5
ssg62
g195
sg55
(lp202
S'default'
p203
asbasbasbag48
(g64
g50
NtRp204
(dp205
g53
(dp206
sg62
g58
sg55
(lp207
g48
(g69
g50
NtRp208
(dp209
g53
(dp210
g73
g74
ssg62
g204
sg55
(lp211
S'cookies'
p212
asbag48
(g69
g50
NtRp213
(dp214
g53
(dp215
g80
g81
ssg62
g204
sg55
(lp216
S':'
asbag48
(g69
g50
NtRp217
(dp218
g53
(dp219
sg62
g204
sg55
(lp220
g48
(g49
g50
NtRp221
(dp222
g53
(dp223
g61
I5
ssg62
g217
sg55
(lp224
g48
(g57
g50
NtRp225
(dp226
g53
(dp227
g61
I4
ssg62
Nsg55
(lp228
g48
(g64
g50
NtRp229
(dp230
g53
(dp231
sg62
g225
sg55
(lp232
g48
(g69
g50
NtRp233
(dp234
g53
(dp235
g73
g74
ssg62
g229
sg55
(lp236
S'session_id_admin'
p237
asbag48
(g69
g50
NtRp238
(dp239
g53
(dp240
g80
g81
ssg62
g229
sg55
(lp241
S':'
asbag48
(g69
g50
NtRp242
(dp243
g53
(dp244
sg62
g229
sg55
(lp245
g48
(g49
g50
NtRp246
(dp247
g53
(dp248
g61
I4
ssg62
g242
sg55
(lp249
g48
(g57
g50
NtRp250
(dp251
g53
(dp252
g61
I3
ssg62
Nsg55
(lp253
g48
(g64
g50
NtRp254
(dp255
g53
(dp256
sg62
g250
sg55
(lp257
g48
(g69
g50
NtRp258
(dp259
g53
(dp260
g73
g74
ssg62
g254
sg55
(lp261
S'comment'
p262
asbag48
(g69
g50
NtRp263
(dp264
g53
(dp265
g80
g81
ssg62
g254
sg55
(lp266
S':'
asbag48
(g69
g50
NtRp267
(dp268
g53
(dp269
sg62
g254
sg55
(lp270
g48
(g49
g50
NtRp271
(dp272
g53
(dp273
g61
I3
ssg62
g267
sg55
(lp274
S''
asbasbasbag48
(g64
g50
NtRp275
(dp276
g53
(dp277
sg62
g250
sg55
(lp278
g48
(g69
g50
NtRp279
(dp280
g53
(dp281
g73
g74
ssg62
g275
sg55
(lp282
S'domain'
p283
asbag48
(g69
g50
NtRp284
(dp285
g53
(dp286
g80
g81
ssg62
g275
sg55
(lp287
S':'
asbag48
(g69
g50
NtRp288
(dp289
g53
(dp290
sg62
g275
sg55
(lp291
g48
(g49
g50
NtRp292
(dp293
g53
(dp294
g61
I3
ssg62
g288
sg55
(lp295
S''
asbasbasbag48
(g64
g50
NtRp296
(dp297
g53
(dp298
sg62
g250
sg55
(lp299
g48
(g69
g50
NtRp300
(dp301
g53
(dp302
g73
g74
ssg62
g296
sg55
(lp303
S'expires'
p304
asbag48
(g69
g50
NtRp305
(dp306
g53
(dp307
g80
g81
ssg62
g296
sg55
(lp308
S':'
asbag48
(g69
g50
NtRp309
(dp310
g53
(dp311
sg62
g296
sg55
(lp312
g48
(g49
g50
NtRp313
(dp314
g53
(dp315
g61
I3
ssg62
g309
sg55
(lp316
S''
asbasbasbag48
(g64
g50
NtRp317
(dp318
g53
(dp319
sg62
g250
sg55
(lp320
g48
(g69
g50
NtRp321
(dp322
g53
(dp323
g73
g74
ssg62
g317
sg55
(lp324
S'max-age'
p325
asbag48
(g69
g50
NtRp326
(dp327
g53
(dp328
g80
g81
ssg62
g317
sg55
(lp329
S':'
asbag48
(g69
g50
NtRp330
(dp331
g53
(dp332
sg62
g317
sg55
(lp333
g48
(g49
g50
NtRp334
(dp335
g53
(dp336
g61
I3
ssg62
g330
sg55
(lp337
S''
asbasbasbag48
(g64
g50
NtRp338
(dp339
g53
(dp340
sg62
g250
sg55
(lp341
g48
(g69
g50
NtRp342
(dp343
g53
(dp344
g73
g74
ssg62
g338
sg55
(lp345
S'path'
p346
asbag48
(g69
g50
NtRp347
(dp348
g53
(dp349
g80
g81
ssg62
g338
sg55
(lp350
S':'
asbag48
(g69
g50
NtRp351
(dp352
g53
(dp353
sg62
g338
sg55
(lp354
g48
(g49
g50
NtRp355
(dp356
g53
(dp357
g61
I3
ssg62
g351
sg55
(lp358
S''
asbasbasbag48
(g64
g50
NtRp359
(dp360
g53
(dp361
sg62
g250
sg55
(lp362
g48
(g69
g50
NtRp363
(dp364
g53
(dp365
g73
g74
ssg62
g359
sg55
(lp366
S'secure'
p367
asbag48
(g69
g50
NtRp368
(dp369
g53
(dp370
g80
g81
ssg62
g359
sg55
(lp371
S':'
asbag48
(g69
g50
NtRp372
(dp373
g53
(dp374
sg62
g359
sg55
(lp375
g48
(g49
g50
NtRp376
(dp377
g53
(dp378
g61
I3
ssg62
g372
sg55
(lp379
S''
asbasbasbag48
(g64
g50
NtRp380
(dp381
g53
(dp382
sg62
g250
sg55
(lp383
g48
(g69
g50
NtRp384
(dp385
g53
(dp386
g73
g74
ssg62
g380
sg55
(lp387
S'version'
p388
asbag48
(g69
g50
NtRp389
(dp390
g53
(dp391
g80
g81
ssg62
g380
sg55
(lp392
S':'
asbag48
(g69
g50
NtRp393
(dp394
g53
(dp395
sg62
g380
sg55
(lp396
g48
(g49
g50
NtRp397
(dp398
g53
(dp399
g61
I3
ssg62
g393
sg55
(lp400
S''
asbasbasbasbasbasbasbag48
(g64
g50
NtRp401
(dp402
g53
(dp403
sg62
g225
sg55
(lp404
g48
(g69
g50
NtRp405
(dp406
g53
(dp407
g73
g74
ssg62
g401
sg55
(lp408
S'session_id_desglosar_emails'
p409
asbag48
(g69
g50
NtRp410
(dp411
g53
(dp412
g80
g81
ssg62
g401
sg55
(lp413
S':'
asbag48
(g69
g50
NtRp414
(dp415
g53
(dp416
sg62
g401
sg55
(lp417
g48
(g49
g50
NtRp418
(dp419
g53
(dp420
g61
I4
ssg62
g414
sg55
(lp421
g48
(g57
g50
NtRp422
(dp423
g53
(dp424
g61
I3
ssg62
Nsg55
(lp425
g48
(g64
g50
NtRp426
(dp427
g53
(dp428
sg62
g422
sg55
(lp429
g48
(g69
g50
NtRp430
(dp431
g53
(dp432
g73
g74
ssg62
g426
sg55
(lp433
g262
asbag48
(g69
g50
NtRp434
(dp435
g53
(dp436
g80
g81
ssg62
g426
sg55
(lp437
S':'
asbag48
(g69
g50
NtRp438
(dp439
g53
(dp440
sg62
g426
sg55
(lp441
g48
(g49
g50
NtRp442
(dp443
g53
(dp444
g61
I3
ssg62
g438
sg55
(lp445
S''
asbasbasbag48
(g64
g50
NtRp446
(dp447
g53
(dp448
sg62
g422
sg55
(lp449
g48
(g69
g50
NtRp450
(dp451
g53
(dp452
g73
g74
ssg62
g446
sg55
(lp453
g283
asbag48
(g69
g50
NtRp454
(dp455
g53
(dp456
g80
g81
ssg62
g446
sg55
(lp457
S':'
asbag48
(g69
g50
NtRp458
(dp459
g53
(dp460
sg62
g446
sg55
(lp461
g48
(g49
g50
NtRp462
(dp463
g53
(dp464
g61
I3
ssg62
g458
sg55
(lp465
S''
asbasbasbag48
(g64
g50
NtRp466
(dp467
g53
(dp468
sg62
g422
sg55
(lp469
g48
(g69
g50
NtRp470
(dp471
g53
(dp472
g73
g74
ssg62
g466
sg55
(lp473
g304
asbag48
(g69
g50
NtRp474
(dp475
g53
(dp476
g80
g81
ssg62
g466
sg55
(lp477
S':'
asbag48
(g69
g50
NtRp478
(dp479
g53
(dp480
sg62
g466
sg55
(lp481
g48
(g49
g50
NtRp482
(dp483
g53
(dp484
g61
I3
ssg62
g478
sg55
(lp485
S''
asbasbasbag48
(g64
g50
NtRp486
(dp487
g53
(dp488
sg62
g422
sg55
(lp489
g48
(g69
g50
NtRp490
(dp491
g53
(dp492
g73
g74
ssg62
g486
sg55
(lp493
g325
asbag48
(g69
g50
NtRp494
(dp495
g53
(dp496
g80
g81
ssg62
g486
sg55
(lp497
S':'
asbag48
(g69
g50
NtRp498
(dp499
g53
(dp500
sg62
g486
sg55
(lp501
g48
(g49
g50
NtRp502
(dp503
g53
(dp504
g61
I3
ssg62
g498
sg55
(lp505
S''
asbasbasbag48
(g64
g50
NtRp506
(dp507
g53
(dp508
sg62
g422
sg55
(lp509
g48
(g69
g50
NtRp510
(dp511
g53
(dp512
g73
g74
ssg62
g506
sg55
(lp513
g346
asbag48
(g69
g50
NtRp514
(dp515
g53
(dp516
g80
g81
ssg62
g506
sg55
(lp517
S':'
asbag48
(g69
g50
NtRp518
(dp519
g53
(dp520
sg62
g506
sg55
(lp521
g48
(g49
g50
NtRp522
(dp523
g53
(dp524
g61
I3
ssg62
g518
sg55
(lp525
S''
asbasbasbag48
(g64
g50
NtRp526
(dp527
g53
(dp528
sg62
g422
sg55
(lp529
g48
(g69
g50
NtRp530
(dp531
g53
(dp532
g73
g74
ssg62
g526
sg55
(lp533
g367
asbag48
(g69
g50
NtRp534
(dp535
g53
(dp536
g80
g81
ssg62
g526
sg55
(lp537
S':'
asbag48
(g69
g50
NtRp538
(dp539
g53
(dp540
sg62
g526
sg55
(lp541
g48
(g49
g50
NtRp542
(dp543
g53
(dp544
g61
I3
ssg62
g538
sg55
(lp545
S''
asbasbasbag48
(g64
g50
NtRp546
(dp547
g53
(dp548
sg62
g422
sg55
(lp549
g48
(g69
g50
NtRp550
(dp551
g53
(dp552
g73
g74
ssg62
g546
sg55
(lp553
g388
asbag48
(g69
g50
NtRp554
(dp555
g53
(dp556
g80
g81
ssg62
g546
sg55
(lp557
S':'
asbag48
(g69
g50
NtRp558
(dp559
g53
(dp560
sg62
g546
sg55
(lp561
g48
(g49
g50
NtRp562
(dp563
g53
(dp564
g61
I3
ssg62
g558
sg55
(lp565
S''
asbasbasbasbasbasbasbag48
(g64
g50
NtRp566
(dp567
g53
(dp568
sg62
g225
sg55
(lp569
g48
(g69
g50
NtRp570
(dp571
g53
(dp572
g73
g74
ssg62
g566
sg55
(lp573
S'session_id_listado_1'
p574
asbag48
(g69
g50
NtRp575
(dp576
g53
(dp577
g80
g81
ssg62
g566
sg55
(lp578
S':'
asbag48
(g69
g50
NtRp579
(dp580
g53
(dp581
sg62
g566
sg55
(lp582
g48
(g49
g50
NtRp583
(dp584
g53
(dp585
g61
I4
ssg62
g579
sg55
(lp586
g48
(g57
g50
NtRp587
(dp588
g53
(dp589
g61
I3
ssg62
Nsg55
(lp590
g48
(g64
g50
NtRp591
(dp592
g53
(dp593
sg62
g587
sg55
(lp594
g48
(g69
g50
NtRp595
(dp596
g53
(dp597
g73
g74
ssg62
g591
sg55
(lp598
g262
asbag48
(g69
g50
NtRp599
(dp600
g53
(dp601
g80
g81
ssg62
g591
sg55
(lp602
S':'
asbag48
(g69
g50
NtRp603
(dp604
g53
(dp605
sg62
g591
sg55
(lp606
g48
(g49
g50
NtRp607
(dp608
g53
(dp609
g61
I3
ssg62
g603
sg55
(lp610
S''
asbasbasbag48
(g64
g50
NtRp611
(dp612
g53
(dp613
sg62
g587
sg55
(lp614
g48
(g69
g50
NtRp615
(dp616
g53
(dp617
g73
g74
ssg62
g611
sg55
(lp618
g283
asbag48
(g69
g50
NtRp619
(dp620
g53
(dp621
g80
g81
ssg62
g611
sg55
(lp622
S':'
asbag48
(g69
g50
NtRp623
(dp624
g53
(dp625
sg62
g611
sg55
(lp626
g48
(g49
g50
NtRp627
(dp628
g53
(dp629
g61
I3
ssg62
g623
sg55
(lp630
S''
asbasbasbag48
(g64
g50
NtRp631
(dp632
g53
(dp633
sg62
g587
sg55
(lp634
g48
(g69
g50
NtRp635
(dp636
g53
(dp637
g73
g74
ssg62
g631
sg55
(lp638
g304
asbag48
(g69
g50
NtRp639
(dp640
g53
(dp641
g80
g81
ssg62
g631
sg55
(lp642
S':'
asbag48
(g69
g50
NtRp643
(dp644
g53
(dp645
sg62
g631
sg55
(lp646
g48
(g49
g50
NtRp647
(dp648
g53
(dp649
g61
I3
ssg62
g643
sg55
(lp650
S''
asbasbasbag48
(g64
g50
NtRp651
(dp652
g53
(dp653
sg62
g587
sg55
(lp654
g48
(g69
g50
NtRp655
(dp656
g53
(dp657
g73
g74
ssg62
g651
sg55
(lp658
g325
asbag48
(g69
g50
NtRp659
(dp660
g53
(dp661
g80
g81
ssg62
g651
sg55
(lp662
S':'
asbag48
(g69
g50
NtRp663
(dp664
g53
(dp665
sg62
g651
sg55
(lp666
g48
(g49
g50
NtRp667
(dp668
g53
(dp669
g61
I3
ssg62
g663
sg55
(lp670
S''
asbasbasbag48
(g64
g50
NtRp671
(dp672
g53
(dp673
sg62
g587
sg55
(lp674
g48
(g69
g50
NtRp675
(dp676
g53
(dp677
g73
g74
ssg62
g671
sg55
(lp678
g346
asbag48
(g69
g50
NtRp679
(dp680
g53
(dp681
g80
g81
ssg62
g671
sg55
(lp682
S':'
asbag48
(g69
g50
NtRp683
(dp684
g53
(dp685
sg62
g671
sg55
(lp686
g48
(g49
g50
NtRp687
(dp688
g53
(dp689
g61
I3
ssg62
g683
sg55
(lp690
S''
asbasbasbag48
(g64
g50
NtRp691
(dp692
g53
(dp693
sg62
g587
sg55
(lp694
g48
(g69
g50
NtRp695
(dp696
g53
(dp697
g73
g74
ssg62
g691
sg55
(lp698
g367
asbag48
(g69
g50
NtRp699
(dp700
g53
(dp701
g80
g81
ssg62
g691
sg55
(lp702
S':'
asbag48
(g69
g50
NtRp703
(dp704
g53
(dp705
sg62
g691
sg55
(lp706
g48
(g49
g50
NtRp707
(dp708
g53
(dp709
g61
I3
ssg62
g703
sg55
(lp710
S''
asbasbasbag48
(g64
g50
NtRp711
(dp712
g53
(dp713
sg62
g587
sg55
(lp714
g48
(g69
g50
NtRp715
(dp716
g53
(dp717
g73
g74
ssg62
g711
sg55
(lp718
g388
asbag48
(g69
g50
NtRp719
(dp720
g53
(dp721
g80
g81
ssg62
g711
sg55
(lp722
S':'
asbag48
(g69
g50
NtRp723
(dp724
g53
(dp725
sg62
g711
sg55
(lp726
g48
(g49
g50
NtRp727
(dp728
g53
(dp729
g61
I3
ssg62
g723
sg55
(lp730
S''
asbasbasbasbasbasbasbag48
(g64
g50
NtRp731
(dp732
g53
(dp733
sg62
g225
sg55
(lp734
g48
(g69
g50
NtRp735
(dp736
g53
(dp737
g73
g74
ssg62
g731
sg55
(lp738
S'session_id_welcome'
p739
asbag48
(g69
g50
NtRp740
(dp741
g53
(dp742
g80
g81
ssg62
g731
sg55
(lp743
S':'
asbag48
(g69
g50
NtRp744
(dp745
g53
(dp746
sg62
g731
sg55
(lp747
g48
(g49
g50
NtRp748
(dp749
g53
(dp750
g61
I4
ssg62
g744
sg55
(lp751
g48
(g57
g50
NtRp752
(dp753
g53
(dp754
g61
I3
ssg62
Nsg55
(lp755
g48
(g64
g50
NtRp756
(dp757
g53
(dp758
sg62
g752
sg55
(lp759
g48
(g69
g50
NtRp760
(dp761
g53
(dp762
g73
g74
ssg62
g756
sg55
(lp763
g262
asbag48
(g69
g50
NtRp764
(dp765
g53
(dp766
g80
g81
ssg62
g756
sg55
(lp767
S':'
asbag48
(g69
g50
NtRp768
(dp769
g53
(dp770
sg62
g756
sg55
(lp771
g48
(g49
g50
NtRp772
(dp773
g53
(dp774
g61
I3
ssg62
g768
sg55
(lp775
S''
asbasbasbag48
(g64
g50
NtRp776
(dp777
g53
(dp778
sg62
g752
sg55
(lp779
g48
(g69
g50
NtRp780
(dp781
g53
(dp782
g73
g74
ssg62
g776
sg55
(lp783
g283
asbag48
(g69
g50
NtRp784
(dp785
g53
(dp786
g80
g81
ssg62
g776
sg55
(lp787
S':'
asbag48
(g69
g50
NtRp788
(dp789
g53
(dp790
sg62
g776
sg55
(lp791
g48
(g49
g50
NtRp792
(dp793
g53
(dp794
g61
I3
ssg62
g788
sg55
(lp795
S''
asbasbasbag48
(g64
g50
NtRp796
(dp797
g53
(dp798
sg62
g752
sg55
(lp799
g48
(g69
g50
NtRp800
(dp801
g53
(dp802
g73
g74
ssg62
g796
sg55
(lp803
g304
asbag48
(g69
g50
NtRp804
(dp805
g53
(dp806
g80
g81
ssg62
g796
sg55
(lp807
S':'
asbag48
(g69
g50
NtRp808
(dp809
g53
(dp810
sg62
g796
sg55
(lp811
g48
(g49
g50
NtRp812
(dp813
g53
(dp814
g61
I3
ssg62
g808
sg55
(lp815
S''
asbasbasbag48
(g64
g50
NtRp816
(dp817
g53
(dp818
sg62
g752
sg55
(lp819
g48
(g69
g50
NtRp820
(dp821
g53
(dp822
g73
g74
ssg62
g816
sg55
(lp823
g325
asbag48
(g69
g50
NtRp824
(dp825
g53
(dp826
g80
g81
ssg62
g816
sg55
(lp827
S':'
asbag48
(g69
g50
NtRp828
(dp829
g53
(dp830
sg62
g816
sg55
(lp831
g48
(g49
g50
NtRp832
(dp833
g53
(dp834
g61
I3
ssg62
g828
sg55
(lp835
S''
asbasbasbag48
(g64
g50
NtRp836
(dp837
g53
(dp838
sg62
g752
sg55
(lp839
g48
(g69
g50
NtRp840
(dp841
g53
(dp842
g73
g74
ssg62
g836
sg55
(lp843
g346
asbag48
(g69
g50
NtRp844
(dp845
g53
(dp846
g80
g81
ssg62
g836
sg55
(lp847
S':'
asbag48
(g69
g50
NtRp848
(dp849
g53
(dp850
sg62
g836
sg55
(lp851
g48
(g49
g50
NtRp852
(dp853
g53
(dp854
g61
I3
ssg62
g848
sg55
(lp855
S''
asbasbasbag48
(g64
g50
NtRp856
(dp857
g53
(dp858
sg62
g752
sg55
(lp859
g48
(g69
g50
NtRp860
(dp861
g53
(dp862
g73
g74
ssg62
g856
sg55
(lp863
g367
asbag48
(g69
g50
NtRp864
(dp865
g53
(dp866
g80
g81
ssg62
g856
sg55
(lp867
S':'
asbag48
(g69
g50
NtRp868
(dp869
g53
(dp870
sg62
g856
sg55
(lp871
g48
(g49
g50
NtRp872
(dp873
g53
(dp874
g61
I3
ssg62
g868
sg55
(lp875
S''
asbasbasbag48
(g64
g50
NtRp876
(dp877
g53
(dp878
sg62
g752
sg55
(lp879
g48
(g69
g50
NtRp880
(dp881
g53
(dp882
g73
g74
ssg62
g876
sg55
(lp883
g388
asbag48
(g69
g50
NtRp884
(dp885
g53
(dp886
g80
g81
ssg62
g876
sg55
(lp887
S':'
asbag48
(g69
g50
NtRp888
(dp889
g53
(dp890
sg62
g876
sg55
(lp891
g48
(g49
g50
NtRp892
(dp893
g53
(dp894
g61
I3
ssg62
g888
sg55
(lp895
S''
asbasbasbasbasbasbasbasbasbasbasbag48
(g64
g50
NtRp896
(dp897
g53
(dp898
sg62
g58
sg55
(lp899
g48
(g69
g50
NtRp900
(dp901
g53
(dp902
g73
g74
ssg62
g896
sg55
(lp903
S'env'
p904
asbag48
(g69
g50
NtRp905
(dp906
g53
(dp907
g80
g81
ssg62
g896
sg55
(lp908
S':'
asbag48
(g69
g50
NtRp909
(dp910
g53
(dp911
sg62
g896
sg55
(lp912
g48
(g49
g50
NtRp913
(dp914
g53
(dp915
g61
I5
ssg62
g909
sg55
(lp916
g48
(g57
g50
NtRp917
(dp918
g53
(dp919
g61
I4
ssg62
Nsg55
(lp920
g48
(g64
g50
NtRp921
(dp922
g53
(dp923
sg62
g917
sg55
(lp924
g48
(g69
g50
NtRp925
(dp926
g53
(dp927
g73
g74
ssg62
g921
sg55
(lp928
S'app_folders'
p929
asbag48
(g69
g50
NtRp930
(dp931
g53
(dp932
g80
g81
ssg62
g921
sg55
(lp933
S':'
asbag48
(g69
g50
NtRp934
(dp935
g53
(dp936
sg62
g921
sg55
(lp937
g48
(g49
g50
NtRp938
(dp939
g53
(dp940
g61
I4
ssg62
g934
sg55
(lp941
S"set(['C:\\\\Users\\\\Atomico\\\\web2py\\\\applications\\\\welcome\\\\', 'C:\\\\Users\\\\Atomico\\\\web2py\\\\applications\\\\Desglosar_Emails\\\\', 'C:\\\\Users\\\\Atomico\\\\web2py\\\\applications\\\\admin\\\\'])"
p942
asbasbasbag48
(g64
g50
NtRp943
(dp944
g53
(dp945
sg62
g917
sg55
(lp946
g48
(g69
g50
NtRp947
(dp948
g53
(dp949
g73
g74
ssg62
g943
sg55
(lp950
S'applications_parent'
p951
asbag48
(g69
g50
NtRp952
(dp953
g53
(dp954
g80
g81
ssg62
g943
sg55
(lp955
S':'
asbag48
(g69
g50
NtRp956
(dp957
g53
(dp958
sg62
g943
sg55
(lp959
g48
(g49
g50
NtRp960
(dp961
g53
(dp962
g61
I4
ssg62
g956
sg55
(lp963
S'C:\\Users\\Atomico\\web2py'
p964
asbasbasbag48
(g64
g50
NtRp965
(dp966
g53
(dp967
sg62
g917
sg55
(lp968
g48
(g69
g50
NtRp969
(dp970
g53
(dp971
g73
g74
ssg62
g965
sg55
(lp972
S'cmd_args'
p973
asbag48
(g69
g50
NtRp974
(dp975
g53
(dp976
g80
g81
ssg62
g965
sg55
(lp977
S':'
asbag48
(g69
g50
NtRp978
(dp979
g53
(dp980
sg62
g965
sg55
(lp981
g48
(g49
g50
NtRp982
(dp983
g53
(dp984
g61
I4
ssg62
g978
sg55
(lp985
g48
(g57
g50
NtRp986
(dp987
g53
(dp988
g61
I3
ssg62
Nsg55
(lp989
sbasbasbasbag48
(g64
g50
NtRp990
(dp991
g53
(dp992
sg62
g917
sg55
(lp993
g48
(g69
g50
NtRp994
(dp995
g53
(dp996
g73
g74
ssg62
g990
sg55
(lp997
S'cmd_options'
p998
asbag48
(g69
g50
NtRp999
(dp1000
g53
(dp1001
g80
g81
ssg62
g990
sg55
(lp1002
S':'
asbag48
(g69
g50
NtRp1003
(dp1004
g53
(dp1005
sg62
g990
sg55
(lp1006
g48
(g49
g50
NtRp1007
(dp1008
g53
(dp1009
g61
I4
ssg62
g1003
sg55
(lp1010
S"<Values at 0x30fb620: {'verbose': False, 'ip': '127.0.0.1', 'shutdown_timeout': 5, 'taskbar': False, 'port': 8000, 'maxthreads': None, 'softcron': False, 'server_name': 'Swing', 'bpython': False, 'nogui': False, 'nocron': False, 'extcron': False, 'debuglevel': 30, 'test': None, 'folder': 'C:\\\\Users\\\\Atomico\\\\web2py', 'config': '', 'import_models': False, 'winservice': '', 'shell': None, 'run': '', 'log_filename': 'httpserver.log', 'args': [''], 'profiler_filename': None, 'ssl_private_key': '', 'password': '<ask>', 'request_queue_size': 5, 'ssl_certificate': '', 'cronjob': False, 'plain': False, 'quiet': False, 'interfaces': None, 'minthreads': None, 'timeout': 10, 'numthreads': None, 'nobanner': False, 'pid_filename': 'httpserver.pid'}>"
p1011
asbasbasbag48
(g64
g50
NtRp1012
(dp1013
g53
(dp1014
sg62
g917
sg55
(lp1015
g48
(g69
g50
NtRp1016
(dp1017
g53
(dp1018
g73
g74
ssg62
g1012
sg55
(lp1019
S'db_sessions'
p1020
asbag48
(g69
g50
NtRp1021
(dp1022
g53
(dp1023
g80
g81
ssg62
g1012
sg55
(lp1024
S':'
asbag48
(g69
g50
NtRp1025
(dp1026
g53
(dp1027
sg62
g1012
sg55
(lp1028
g48
(g49
g50
NtRp1029
(dp1030
g53
(dp1031
g61
I4
ssg62
g1025
sg55
(lp1032
S'set([])'
p1033
asbasbasbag48
(g64
g50
NtRp1034
(dp1035
g53
(dp1036
sg62
g917
sg55
(lp1037
g48
(g69
g50
NtRp1038
(dp1039
g53
(dp1040
g73
g74
ssg62
g1034
sg55
(lp1041
S'debugging'
p1042
asbag48
(g69
g50
NtRp1043
(dp1044
g53
(dp1045
g80
g81
ssg62
g1034
sg55
(lp1046
S':'
asbag48
(g69
g50
NtRp1047
(dp1048
g53
(dp1049
sg62
g1034
sg55
(lp1050
g48
(g49
g50
NtRp1051
(dp1052
g53
(dp1053
g61
I4
ssg62
g1047
sg55
(lp1054
g91
asbasbasbag48
(g64
g50
NtRp1055
(dp1056
g53
(dp1057
sg62
g917
sg55
(lp1058
g48
(g69
g50
NtRp1059
(dp1060
g53
(dp1061
g73
g74
ssg62
g1055
sg55
(lp1062
S'gluon_parent'
p1063
asbag48
(g69
g50
NtRp1064
(dp1065
g53
(dp1066
g80
g81
ssg62
g1055
sg55
(lp1067
S':'
asbag48
(g69
g50
NtRp1068
(dp1069
g53
(dp1070
sg62
g1055
sg55
(lp1071
g48
(g49
g50
NtRp1072
(dp1073
g53
(dp1074
g61
I4
ssg62
g1068
sg55
(lp1075
S'C:\\Users\\Atomico\\web2py'
p1076
asbasbasbag48
(g64
g50
NtRp1077
(dp1078
g53
(dp1079
sg62
g917
sg55
(lp1080
g48
(g69
g50
NtRp1081
(dp1082
g53
(dp1083
g73
g74
ssg62
g1077
sg55
(lp1084
S'http_accept'
p1085
asbag48
(g69
g50
NtRp1086
(dp1087
g53
(dp1088
g80
g81
ssg62
g1077
sg55
(lp1089
S':'
asbag48
(g69
g50
NtRp1090
(dp1091
g53
(dp1092
sg62
g1077
sg55
(lp1093
g48
(g49
g50
NtRp1094
(dp1095
g53
(dp1096
g61
I4
ssg62
g1090
sg55
(lp1097
S'text/html,application/xhtml+xml,application/xml;q=0.9,*/*;q=0.8'
p1098
asbasbasbag48
(g64
g50
NtRp1099
(dp1100
g53
(dp1101
sg62
g917
sg55
(lp1102
g48
(g69
g50
NtRp1103
(dp1104
g53
(dp1105
g73
g74
ssg62
g1099
sg55
(lp1106
S'http_accept_charset'
p1107
asbag48
(g69
g50
NtRp1108
(dp1109
g53
(dp1110
g80
g81
ssg62
g1099
sg55
(lp1111
S':'
asbag48
(g69
g50
NtRp1112
(dp1113
g53
(dp1114
sg62
g1099
sg55
(lp1115
g48
(g49
g50
NtRp1116
(dp1117
g53
(dp1118
g61
I4
ssg62
g1112
sg55
(lp1119
S'ISO-8859-1,utf-8;q=0.7,*;q=0.7'
p1120
asbasbasbag48
(g64
g50
NtRp1121
(dp1122
g53
(dp1123
sg62
g917
sg55
(lp1124
g48
(g69
g50
NtRp1125
(dp1126
g53
(dp1127
g73
g74
ssg62
g1121
sg55
(lp1128
S'http_accept_encoding'
p1129
asbag48
(g69
g50
NtRp1130
(dp1131
g53
(dp1132
g80
g81
ssg62
g1121
sg55
(lp1133
S':'
asbag48
(g69
g50
NtRp1134
(dp1135
g53
(dp1136
sg62
g1121
sg55
(lp1137
g48
(g49
g50
NtRp1138
(dp1139
g53
(dp1140
g61
I4
ssg62
g1134
sg55
(lp1141
S'gzip, deflate'
p1142
asbasbasbag48
(g64
g50
NtRp1143
(dp1144
g53
(dp1145
sg62
g917
sg55
(lp1146
g48
(g69
g50
NtRp1147
(dp1148
g53
(dp1149
g73
g74
ssg62
g1143
sg55
(lp1150
S'http_accept_language'
p1151
asbag48
(g69
g50
NtRp1152
(dp1153
g53
(dp1154
g80
g81
ssg62
g1143
sg55
(lp1155
S':'
asbag48
(g69
g50
NtRp1156
(dp1157
g53
(dp1158
sg62
g1143
sg55
(lp1159
g48
(g49
g50
NtRp1160
(dp1161
g53
(dp1162
g61
I4
ssg62
g1156
sg55
(lp1163
S'es-es,es;q=0.8,en-us;q=0.5,en;q=0.3'
p1164
asbasbasbag48
(g64
g50
NtRp1165
(dp1166
g53
(dp1167
sg62
g917
sg55
(lp1168
g48
(g69
g50
NtRp1169
(dp1170
g53
(dp1171
g73
g74
ssg62
g1165
sg55
(lp1172
S'http_connection'
p1173
asbag48
(g69
g50
NtRp1174
(dp1175
g53
(dp1176
g80
g81
ssg62
g1165
sg55
(lp1177
S':'
asbag48
(g69
g50
NtRp1178
(dp1179
g53
(dp1180
sg62
g1165
sg55
(lp1181
g48
(g49
g50
NtRp1182
(dp1183
g53
(dp1184
g61
I4
ssg62
g1178
sg55
(lp1185
S'keep-alive'
p1186
asbasbasbag48
(g64
g50
NtRp1187
(dp1188
g53
(dp1189
sg62
g917
sg55
(lp1190
g48
(g69
g50
NtRp1191
(dp1192
g53
(dp1193
g73
g74
ssg62
g1187
sg55
(lp1194
S'http_cookie'
p1195
asbag48
(g69
g50
NtRp1196
(dp1197
g53
(dp1198
g80
g81
ssg62
g1187
sg55
(lp1199
S':'
asbag48
(g69
g50
NtRp1200
(dp1201
g53
(dp1202
sg62
g1187
sg55
(lp1203
g48
(g49
g50
NtRp1204
(dp1205
g53
(dp1206
g61
I4
ssg62
g1200
sg55
(lp1207
S'session_id_welcome=127.0.0.1-082a2830-9bb6-4bfb-b2e2-4857b06c191e; session_id_admin=127.0.0.1-47fb3a34-c5d7-4353-b3ad-9fae00359bf6; session_id_listado_1=127.0.0.1-477ec098-5436-4f6e-bfee-1a0bd88f6f9e; session_id_desglosar_emails=127.0.0.1-0a11b3b2-660c-433c-b71f-fc129286f26c'
p1208
asbasbasbag48
(g64
g50
NtRp1209
(dp1210
g53
(dp1211
sg62
g917
sg55
(lp1212
g48
(g69
g50
NtRp1213
(dp1214
g53
(dp1215
g73
g74
ssg62
g1209
sg55
(lp1216
S'http_host'
p1217
asbag48
(g69
g50
NtRp1218
(dp1219
g53
(dp1220
g80
g81
ssg62
g1209
sg55
(lp1221
S':'
asbag48
(g69
g50
NtRp1222
(dp1223
g53
(dp1224
sg62
g1209
sg55
(lp1225
g48
(g49
g50
NtRp1226
(dp1227
g53
(dp1228
g61
I4
ssg62
g1222
sg55
(lp1229
S'127.0.0.1:8000'
p1230
asbasbasbag48
(g64
g50
NtRp1231
(dp1232
g53
(dp1233
sg62
g917
sg55
(lp1234
g48
(g69
g50
NtRp1235
(dp1236
g53
(dp1237
g73
g74
ssg62
g1231
sg55
(lp1238
S'http_referer'
p1239
asbag48
(g69
g50
NtRp1240
(dp1241
g53
(dp1242
g80
g81
ssg62
g1231
sg55
(lp1243
S':'
asbag48
(g69
g50
NtRp1244
(dp1245
g53
(dp1246
sg62
g1231
sg55
(lp1247
g48
(g49
g50
NtRp1248
(dp1249
g53
(dp1250
g61
I4
ssg62
g1244
sg55
(lp1251
S'http://127.0.0.1:8000/admin/default/design/Desglosar_Emails'
p1252
asbasbasbag48
(g64
g50
NtRp1253
(dp1254
g53
(dp1255
sg62
g917
sg55
(lp1256
g48
(g69
g50
NtRp1257
(dp1258
g53
(dp1259
g73
g74
ssg62
g1253
sg55
(lp1260
S'http_user_agent'
p1261
asbag48
(g69
g50
NtRp1262
(dp1263
g53
(dp1264
g80
g81
ssg62
g1253
sg55
(lp1265
S':'
asbag48
(g69
g50
NtRp1266
(dp1267
g53
(dp1268
sg62
g1253
sg55
(lp1269
g48
(g49
g50
NtRp1270
(dp1271
g53
(dp1272
g61
I4
ssg62
g1266
sg55
(lp1273
S'Mozilla/5.0 (Windows NT 6.1; WOW64; rv:6.0.2) Gecko/20100101 Firefox/6.0.2'
p1274
asbasbasbag48
(g64
g50
NtRp1275
(dp1276
g53
(dp1277
sg62
g917
sg55
(lp1278
g48
(g69
g50
NtRp1279
(dp1280
g53
(dp1281
g73
g74
ssg62
g1275
sg55
(lp1282
S'is_jython'
p1283
asbag48
(g69
g50
NtRp1284
(dp1285
g53
(dp1286
g80
g81
ssg62
g1275
sg55
(lp1287
S':'
asbag48
(g69
g50
NtRp1288
(dp1289
g53
(dp1290
sg62
g1275
sg55
(lp1291
g48
(g49
g50
NtRp1292
(dp1293
g53
(dp1294
g61
I4
ssg62
g1288
sg55
(lp1295
g91
asbasbasbag48
(g64
g50
NtRp1296
(dp1297
g53
(dp1298
sg62
g917
sg55
(lp1299
g48
(g69
g50
NtRp1300
(dp1301
g53
(dp1302
g73
g74
ssg62
g1296
sg55
(lp1303
S'path_info'
p1304
asbag48
(g69
g50
NtRp1305
(dp1306
g53
(dp1307
g80
g81
ssg62
g1296
sg55
(lp1308
S':'
asbag48
(g69
g50
NtRp1309
(dp1310
g53
(dp1311
sg62
g1296
sg55
(lp1312
g48
(g49
g50
NtRp1313
(dp1314
g53
(dp1315
g61
I4
ssg62
g1309
sg55
(lp1316
S'/Desglosar_Emails/default/entrada_mod1'
p1317
asbasbasbag48
(g64
g50
NtRp1318
(dp1319
g53
(dp1320
sg62
g917
sg55
(lp1321
g48
(g69
g50
NtRp1322
(dp1323
g53
(dp1324
g73
g74
ssg62
g1318
sg55
(lp1325
S'query_string'
p1326
asbag48
(g69
g50
NtRp1327
(dp1328
g53
(dp1329
g80
g81
ssg62
g1318
sg55
(lp1330
S':'
asbag48
(g69
g50
NtRp1331
(dp1332
g53
(dp1333
sg62
g1318
sg55
(lp1334
g48
(g49
g50
NtRp1335
(dp1336
g53
(dp1337
g61
I4
ssg62
g1331
sg55
(lp1338
S''
asbasbasbag48
(g64
g50
NtRp1339
(dp1340
g53
(dp1341
sg62
g917
sg55
(lp1342
g48
(g69
g50
NtRp1343
(dp1344
g53
(dp1345
g73
g74
ssg62
g1339
sg55
(lp1346
S'remote_addr'
p1347
asbag48
(g69
g50
NtRp1348
(dp1349
g53
(dp1350
g80
g81
ssg62
g1339
sg55
(lp1351
S':'
asbag48
(g69
g50
NtRp1352
(dp1353
g53
(dp1354
sg62
g1339
sg55
(lp1355
g48
(g49
g50
NtRp1356
(dp1357
g53
(dp1358
g61
I4
ssg62
g1352
sg55
(lp1359
g181
asbasbasbag48
(g64
g50
NtRp1360
(dp1361
g53
(dp1362
sg62
g917
sg55
(lp1363
g48
(g69
g50
NtRp1364
(dp1365
g53
(dp1366
g73
g74
ssg62
g1360
sg55
(lp1367
S'remote_port'
p1368
asbag48
(g69
g50
NtRp1369
(dp1370
g53
(dp1371
g80
g81
ssg62
g1360
sg55
(lp1372
S':'
asbag48
(g69
g50
NtRp1373
(dp1374
g53
(dp1375
sg62
g1360
sg55
(lp1376
g48
(g49
g50
NtRp1377
(dp1378
g53
(dp1379
g61
I4
ssg62
g1373
sg55
(lp1380
S'62023'
p1381
asbasbasbag48
(g64
g50
NtRp1382
(dp1383
g53
(dp1384
sg62
g917
sg55
(lp1385
g48
(g69
g50
NtRp1386
(dp1387
g53
(dp1388
g73
g74
ssg62
g1382
sg55
(lp1389
S'request_method'
p1390
asbag48
(g69
g50
NtRp1391
(dp1392
g53
(dp1393
g80
g81
ssg62
g1382
sg55
(lp1394
S':'
asbag48
(g69
g50
NtRp1395
(dp1396
g53
(dp1397
sg62
g1382
sg55
(lp1398
g48
(g49
g50
NtRp1399
(dp1400
g53
(dp1401
g61
I4
ssg62
g1395
sg55
(lp1402
S'GET'
p1403
asbasbasbag48
(g64
g50
NtRp1404
(dp1405
g53
(dp1406
sg62
g917
sg55
(lp1407
g48
(g69
g50
NtRp1408
(dp1409
g53
(dp1410
g73
g74
ssg62
g1404
sg55
(lp1411
S'script_name'
p1412
asbag48
(g69
g50
NtRp1413
(dp1414
g53
(dp1415
g80
g81
ssg62
g1404
sg55
(lp1416
S':'
asbag48
(g69
g50
NtRp1417
(dp1418
g53
(dp1419
sg62
g1404
sg55
(lp1420
g48
(g49
g50
NtRp1421
(dp1422
g53
(dp1423
g61
I4
ssg62
g1417
sg55
(lp1424
S''
asbasbasbag48
(g64
g50
NtRp1425
(dp1426
g53
(dp1427
sg62
g917
sg55
(lp1428
g48
(g69
g50
NtRp1429
(dp1430
g53
(dp1431
g73
g74
ssg62
g1425
sg55
(lp1432
S'server_name'
p1433
asbag48
(g69
g50
NtRp1434
(dp1435
g53
(dp1436
g80
g81
ssg62
g1425
sg55
(lp1437
S':'
asbag48
(g69
g50
NtRp1438
(dp1439
g53
(dp1440
sg62
g1425
sg55
(lp1441
g48
(g49
g50
NtRp1442
(dp1443
g53
(dp1444
g61
I4
ssg62
g1438
sg55
(lp1445
S'Swing'
p1446
asbasbasbag48
(g64
g50
NtRp1447
(dp1448
g53
(dp1449
sg62
g917
sg55
(lp1450
g48
(g69
g50
NtRp1451
(dp1452
g53
(dp1453
g73
g74
ssg62
g1447
sg55
(lp1454
S'server_port'
p1455
asbag48
(g69
g50
NtRp1456
(dp1457
g53
(dp1458
g80
g81
ssg62
g1447
sg55
(lp1459
S':'
asbag48
(g69
g50
NtRp1460
(dp1461
g53
(dp1462
sg62
g1447
sg55
(lp1463
g48
(g49
g50
NtRp1464
(dp1465
g53
(dp1466
g61
I4
ssg62
g1460
sg55
(lp1467
S'8000'
p1468
asbasbasbag48
(g64
g50
NtRp1469
(dp1470
g53
(dp1471
sg62
g917
sg55
(lp1472
g48
(g69
g50
NtRp1473
(dp1474
g53
(dp1475
g73
g74
ssg62
g1469
sg55
(lp1476
S'server_protocol'
p1477
asbag48
(g69
g50
NtRp1478
(dp1479
g53
(dp1480
g80
g81
ssg62
g1469
sg55
(lp1481
S':'
asbag48
(g69
g50
NtRp1482
(dp1483
g53
(dp1484
sg62
g1469
sg55
(lp1485
g48
(g49
g50
NtRp1486
(dp1487
g53
(dp1488
g61
I4
ssg62
g1482
sg55
(lp1489
S'HTTP/1.1'
p1490
asbasbasbag48
(g64
g50
NtRp1491
(dp1492
g53
(dp1493
sg62
g917
sg55
(lp1494
g48
(g69
g50
NtRp1495
(dp1496
g53
(dp1497
g73
g74
ssg62
g1491
sg55
(lp1498
S'server_software'
p1499
asbag48
(g69
g50
NtRp1500
(dp1501
g53
(dp1502
g80
g81
ssg62
g1491
sg55
(lp1503
S':'
asbag48
(g69
g50
NtRp1504
(dp1505
g53
(dp1506
sg62
g1491
sg55
(lp1507
g48
(g49
g50
NtRp1508
(dp1509
g53
(dp1510
g61
I4
ssg62
g1504
sg55
(lp1511
S'Rocket 1.2.2'
p1512
asbasbasbag48
(g64
g50
NtRp1513
(dp1514
g53
(dp1515
sg62
g917
sg55
(lp1516
g48
(g69
g50
NtRp1517
(dp1518
g53
(dp1519
g73
g74
ssg62
g1513
sg55
(lp1520
S'web2py_crontype'
p1521
asbag48
(g69
g50
NtRp1522
(dp1523
g53
(dp1524
g80
g81
ssg62
g1513
sg55
(lp1525
S':'
asbag48
(g69
g50
NtRp1526
(dp1527
g53
(dp1528
sg62
g1513
sg55
(lp1529
g48
(g49
g50
NtRp1530
(dp1531
g53
(dp1532
g61
I4
ssg62
g1526
sg55
(lp1533
S'hard'
p1534
asbasbasbag48
(g64
g50
NtRp1535
(dp1536
g53
(dp1537
sg62
g917
sg55
(lp1538
g48
(g69
g50
NtRp1539
(dp1540
g53
(dp1541
g73
g74
ssg62
g1535
sg55
(lp1542
S'web2py_path'
p1543
asbag48
(g69
g50
NtRp1544
(dp1545
g53
(dp1546
g80
g81
ssg62
g1535
sg55
(lp1547
S':'
asbag48
(g69
g50
NtRp1548
(dp1549
g53
(dp1550
sg62
g1535
sg55
(lp1551
g48
(g49
g50
NtRp1552
(dp1553
g53
(dp1554
g61
I4
ssg62
g1548
sg55
(lp1555
g964
asbasbasbag48
(g64
g50
NtRp1556
(dp1557
g53
(dp1558
sg62
g917
sg55
(lp1559
g48
(g69
g50
NtRp1560
(dp1561
g53
(dp1562
g73
g74
ssg62
g1556
sg55
(lp1563
S'web2py_version'
p1564
asbag48
(g69
g50
NtRp1565
(dp1566
g53
(dp1567
g80
g81
ssg62
g1556
sg55
(lp1568
S':'
asbag48
(g69
g50
NtRp1569
(dp1570
g53
(dp1571
sg62
g1556
sg55
(lp1572
g48
(g49
g50
NtRp1573
(dp1574
g53
(dp1575
g61
I4
ssg62
g1569
sg55
(lp1576
S'Version 1.98.2 (2011-08-04 00:47:09)\n'
p1577
asbasbasbag48
(g64
g50
NtRp1578
(dp1579
g53
(dp1580
sg62
g917
sg55
(lp1581
g48
(g69
g50
NtRp1582
(dp1583
g53
(dp1584
g73
g74
ssg62
g1578
sg55
(lp1585
S'wsgi_errors'
p1586
asbag48
(g69
g50
NtRp1587
(dp1588
g53
(dp1589
g80
g81
ssg62
g1578
sg55
(lp1590
S':'
asbag48
(g69
g50
NtRp1591
(dp1592
g53
(dp1593
sg62
g1578
sg55
(lp1594
g48
(g49
g50
NtRp1595
(dp1596
g53
(dp1597
g61
I4
ssg62
g1591
sg55
(lp1598
S"<open file '<stderr>', mode 'w' at 0x01EF00B0>"
p1599
asbasbasbag48
(g64
g50
NtRp1600
(dp1601
g53
(dp1602
sg62
g917
sg55
(lp1603
g48
(g69
g50
NtRp1604
(dp1605
g53
(dp1606
g73
g74
ssg62
g1600
sg55
(lp1607
S'wsgi_file_wrapper'
p1608
asbag48
(g69
g50
NtRp1609
(dp1610
g53
(dp1611
g80
g81
ssg62
g1600
sg55
(lp1612
S':'
asbag48
(g69
g50
NtRp1613
(dp1614
g53
(dp1615
sg62
g1600
sg55
(lp1616
g48
(g49
g50
NtRp1617
(dp1618
g53
(dp1619
g61
I4
ssg62
g1613
sg55
(lp1620
S'<class gluon.rocket.FileWrapper at 0x0308C1B0>'
p1621
asbasbasbag48
(g64
g50
NtRp1622
(dp1623
g53
(dp1624
sg62
g917
sg55
(lp1625
g48
(g69
g50
NtRp1626
(dp1627
g53
(dp1628
g73
g74
ssg62
g1622
sg55
(lp1629
S'wsgi_input'
p1630
asbag48
(g69
g50
NtRp1631
(dp1632
g53
(dp1633
g80
g81
ssg62
g1622
sg55
(lp1634
S':'
asbag48
(g69
g50
NtRp1635
(dp1636
g53
(dp1637
sg62
g1622
sg55
(lp1638
g48
(g49
g50
NtRp1639
(dp1640
g53
(dp1641
g61
I4
ssg62
g1635
sg55
(lp1642
S'<socket._fileobject object at 0x07F0FF70>'
p1643
asbasbasbag48
(g64
g50
NtRp1644
(dp1645
g53
(dp1646
sg62
g917
sg55
(lp1647
g48
(g69
g50
NtRp1648
(dp1649
g53
(dp1650
g73
g74
ssg62
g1644
sg55
(lp1651
S'wsgi_multiprocess'
p1652
asbag48
(g69
g50
NtRp1653
(dp1654
g53
(dp1655
g80
g81
ssg62
g1644
sg55
(lp1656
S':'
asbag48
(g69
g50
NtRp1657
(dp1658
g53
(dp1659
sg62
g1644
sg55
(lp1660
g48
(g49
g50
NtRp1661
(dp1662
g53
(dp1663
g61
I4
ssg62
g1657
sg55
(lp1664
g91
asbasbasbag48
(g64
g50
NtRp1665
(dp1666
g53
(dp1667
sg62
g917
sg55
(lp1668
g48
(g69
g50
NtRp1669
(dp1670
g53
(dp1671
g73
g74
ssg62
g1665
sg55
(lp1672
S'wsgi_multithread'
p1673
asbag48
(g69
g50
NtRp1674
(dp1675
g53
(dp1676
g80
g81
ssg62
g1665
sg55
(lp1677
S':'
asbag48
(g69
g50
NtRp1678
(dp1679
g53
(dp1680
sg62
g1665
sg55
(lp1681
g48
(g49
g50
NtRp1682
(dp1683
g53
(dp1684
g61
I4
ssg62
g1678
sg55
(lp1685
S'True'
p1686
asbasbasbag48
(g64
g50
NtRp1687
(dp1688
g53
(dp1689
sg62
g917
sg55
(lp1690
g48
(g69
g50
NtRp1691
(dp1692
g53
(dp1693
g73
g74
ssg62
g1687
sg55
(lp1694
S'wsgi_run_once'
p1695
asbag48
(g69
g50
NtRp1696
(dp1697
g53
(dp1698
g80
g81
ssg62
g1687
sg55
(lp1699
S':'
asbag48
(g69
g50
NtRp1700
(dp1701
g53
(dp1702
sg62
g1687
sg55
(lp1703
g48
(g49
g50
NtRp1704
(dp1705
g53
(dp1706
g61
I4
ssg62
g1700
sg55
(lp1707
g91
asbasbasbag48
(g64
g50
NtRp1708
(dp1709
g53
(dp1710
sg62
g917
sg55
(lp1711
g48
(g69
g50
NtRp1712
(dp1713
g53
(dp1714
g73
g74
ssg62
g1708
sg55
(lp1715
S'wsgi_url_scheme'
p1716
asbag48
(g69
g50
NtRp1717
(dp1718
g53
(dp1719
g80
g81
ssg62
g1708
sg55
(lp1720
S':'
asbag48
(g69
g50
NtRp1721
(dp1722
g53
(dp1723
sg62
g1708
sg55
(lp1724
g48
(g49
g50
NtRp1725
(dp1726
g53
(dp1727
g61
I4
ssg62
g1721
sg55
(lp1728
S'http'
p1729
asbasbasbag48
(g64
g50
NtRp1730
(dp1731
g53
(dp1732
sg62
g917
sg55
(lp1733
g48
(g69
g50
NtRp1734
(dp1735
g53
(dp1736
g73
g74
ssg62
g1730
sg55
(lp1737
S'wsgi_version'
p1738
asbag48
(g69
g50
NtRp1739
(dp1740
g53
(dp1741
g80
g81
ssg62
g1730
sg55
(lp1742
S':'
asbag48
(g69
g50
NtRp1743
(dp1744
g53
(dp1745
sg62
g1730
sg55
(lp1746
g48
(g49
g50
NtRp1747
(dp1748
g53
(dp1749
g61
I4
ssg62
g1743
sg55
(lp1750
g48
(g57
g50
NtRp1751
(dp1752
g53
(dp1753
g61
I3
ssg62
Nsg55
(lp1754
g48
(g64
g50
NtRp1755
(dp1756
g53
(dp1757
sg62
g1751
sg55
(lp1758
g48
(g69
g50
NtRp1759
(dp1760
g53
(dp1761
sg62
g1755
sg55
(lp1762
g48
(g49
g50
NtRp1763
(dp1764
g53
(dp1765
g61
I3
ssg62
g1759
sg55
(lp1766
S'1'
asbasbasbag48
(g64
g50
NtRp1767
(dp1768
g53
(dp1769
sg62
g1751
sg55
(lp1770
g48
(g69
g50
NtRp1771
(dp1772
g53
(dp1773
sg62
g1767
sg55
(lp1774
g48
(g49
g50
NtRp1775
(dp1776
g53
(dp1777
g61
I3
ssg62
g1771
sg55
(lp1778
S'0'
asbasbasbasbasbasbasbasbasbasbasbag48
(g64
g50
NtRp1779
(dp1780
g53
(dp1781
sg62
g58
sg55
(lp1782
g48
(g69
g50
NtRp1783
(dp1784
g53
(dp1785
g73
g74
ssg62
g1779
sg55
(lp1786
S'extension'
p1787
asbag48
(g69
g50
NtRp1788
(dp1789
g53
(dp1790
g80
g81
ssg62
g1779
sg55
(lp1791
S':'
asbag48
(g69
g50
NtRp1792
(dp1793
g53
(dp1794
sg62
g1779
sg55
(lp1795
g48
(g49
g50
NtRp1796
(dp1797
g53
(dp1798
g61
I5
ssg62
g1792
sg55
(lp1799
S'html'
p1800
asbasbasbag48
(g64
g50
NtRp1801
(dp1802
g53
(dp1803
sg62
g58
sg55
(lp1804
g48
(g69
g50
NtRp1805
(dp1806
g53
(dp1807
g73
g74
ssg62
g1801
sg55
(lp1808
S'folder'
p1809
asbag48
(g69
g50
NtRp1810
(dp1811
g53
(dp1812
g80
g81
ssg62
g1801
sg55
(lp1813
S':'
asbag48
(g69
g50
NtRp1814
(dp1815
g53
(dp1816
sg62
g1801
sg55
(lp1817
g48
(g49
g50
NtRp1818
(dp1819
g53
(dp1820
g61
I5
ssg62
g1814
sg55
(lp1821
S'C:\\Users\\Atomico\\web2py\\applications\\Desglosar_Emails\\'
p1822
asbasbasbag48
(g64
g50
NtRp1823
(dp1824
g53
(dp1825
sg62
g58
sg55
(lp1826
g48
(g69
g50
NtRp1827
(dp1828
g53
(dp1829
g73
g74
ssg62
g1823
sg55
(lp1830
S'function'
p1831
asbag48
(g69
g50
NtRp1832
(dp1833
g53
(dp1834
g80
g81
ssg62
g1823
sg55
(lp1835
S':'
asbag48
(g69
g50
NtRp1836
(dp1837
g53
(dp1838
sg62
g1823
sg55
(lp1839
g48
(g49
g50
NtRp1840
(dp1841
g53
(dp1842
g61
I5
ssg62
g1836
sg55
(lp1843
S'entrada_mod1'
p1844
asbasbasbag48
(g64
g50
NtRp1845
(dp1846
g53
(dp1847
sg62
g58
sg55
(lp1848
g48
(g69
g50
NtRp1849
(dp1850
g53
(dp1851
g73
g74
ssg62
g1845
sg55
(lp1852
S'get_vars'
p1853
asbag48
(g69
g50
NtRp1854
(dp1855
g53
(dp1856
g80
g81
ssg62
g1845
sg55
(lp1857
S':'
asbag48
(g69
g50
NtRp1858
(dp1859
g53
(dp1860
sg62
g1845
sg55
(lp1861
g48
(g49
g50
NtRp1862
(dp1863
g53
(dp1864
g61
I5
ssg62
g1858
sg55
(lp1865
g48
(g57
g50
NtRp1866
(dp1867
g53
(dp1868
g61
I4
ssg62
Nsg55
(lp1869
sbasbasbasbag48
(g64
g50
NtRp1870
(dp1871
g53
(dp1872
sg62
g58
sg55
(lp1873
g48
(g69
g50
NtRp1874
(dp1875
g53
(dp1876
g73
g74
ssg62
g1870
sg55
(lp1877
S'is_https'
p1878
asbag48
(g69
g50
NtRp1879
(dp1880
g53
(dp1881
g80
g81
ssg62
g1870
sg55
(lp1882
S':'
asbag48
(g69
g50
NtRp1883
(dp1884
g53
(dp1885
sg62
g1870
sg55
(lp1886
g48
(g49
g50
NtRp1887
(dp1888
g53
(dp1889
g61
I5
ssg62
g1883
sg55
(lp1890
g91
asbasbasbag48
(g64
g50
NtRp1891
(dp1892
g53
(dp1893
sg62
g58
sg55
(lp1894
g48
(g69
g50
NtRp1895
(dp1896
g53
(dp1897
g73
g74
ssg62
g1891
sg55
(lp1898
S'is_local'
p1899
asbag48
(g69
g50
NtRp1900
(dp1901
g53
(dp1902
g80
g81
ssg62
g1891
sg55
(lp1903
S':'
asbag48
(g69
g50
NtRp1904
(dp1905
g53
(dp1906
sg62
g1891
sg55
(lp1907
g48
(g49
g50
NtRp1908
(dp1909
g53
(dp1910
g61
I5
ssg62
g1904
sg55
(lp1911
g1686
asbasbasbag48
(g64
g50
NtRp1912
(dp1913
g53
(dp1914
sg62
g58
sg55
(lp1915
g48
(g69
g50
NtRp1916
(dp1917
g53
(dp1918
g73
g74
ssg62
g1912
sg55
(lp1919
S'is_restful'
p1920
asbag48
(g69
g50
NtRp1921
(dp1922
g53
(dp1923
g80
g81
ssg62
g1912
sg55
(lp1924
S':'
asbag48
(g69
g50
NtRp1925
(dp1926
g53
(dp1927
sg62
g1912
sg55
(lp1928
g48
(g49
g50
NtRp1929
(dp1930
g53
(dp1931
g61
I5
ssg62
g1925
sg55
(lp1932
g91
asbasbasbag48
(g64
g50
NtRp1933
(dp1934
g53
(dp1935
sg62
g58
sg55
(lp1936
g48
(g69
g50
NtRp1937
(dp1938
g53
(dp1939
g73
g74
ssg62
g1933
sg55
(lp1940
S'now'
p1941
asbag48
(g69
g50
NtRp1942
(dp1943
g53
(dp1944
g80
g81
ssg62
g1933
sg55
(lp1945
S':'
asbag48
(g69
g50
NtRp1946
(dp1947
g53
(dp1948
sg62
g1933
sg55
(lp1949
g48
(g49
g50
NtRp1950
(dp1951
g53
(dp1952
g61
I5
ssg62
g1946
sg55
(lp1953
S'datetime.datetime(2011, 9, 18, 21, 14, 45, 37000)'
p1954
asbasbasbag48
(g64
g50
NtRp1955
(dp1956
g53
(dp1957
sg62
g58
sg55
(lp1958
g48
(g69
g50
NtRp1959
(dp1960
g53
(dp1961
g73
g74
ssg62
g1955
sg55
(lp1962
S'post_vars'
p1963
asbag48
(g69
g50
NtRp1964
(dp1965
g53
(dp1966
g80
g81
ssg62
g1955
sg55
(lp1967
S':'
asbag48
(g69
g50
NtRp1968
(dp1969
g53
(dp1970
sg62
g1955
sg55
(lp1971
g48
(g49
g50
NtRp1972
(dp1973
g53
(dp1974
g61
I5
ssg62
g1968
sg55
(lp1975
g48
(g57
g50
NtRp1976
(dp1977
g53
(dp1978
g61
I4
ssg62
Nsg55
(lp1979
sbasbasbasbag48
(g64
g50
NtRp1980
(dp1981
g53
(dp1982
sg62
g58
sg55
(lp1983
g48
(g69
g50
NtRp1984
(dp1985
g53
(dp1986
g73
g74
ssg62
g1980
sg55
(lp1987
S'url'
p1988
asbag48
(g69
g50
NtRp1989
(dp1990
g53
(dp1991
g80
g81
ssg62
g1980
sg55
(lp1992
S':'
asbag48
(g69
g50
NtRp1993
(dp1994
g53
(dp1995
sg62
g1980
sg55
(lp1996
g48
(g49
g50
NtRp1997
(dp1998
g53
(dp1999
g61
I5
ssg62
g1993
sg55
(lp2000
S'/Desglosar_Emails/default/entrada_mod1'
p2001
asbasbasbag48
(g64
g50
NtRp2002
(dp2003
g53
(dp2004
sg62
g58
sg55
(lp2005
g48
(g69
g50
NtRp2006
(dp2007
g53
(dp2008
g73
g74
ssg62
g2002
sg55
(lp2009
S'uuid'
p2010
asbag48
(g69
g50
NtRp2011
(dp2012
g53
(dp2013
g80
g81
ssg62
g2002
sg55
(lp2014
S':'
asbag48
(g69
g50
NtRp2015
(dp2016
g53
(dp2017
sg62
g2002
sg55
(lp2018
g48
(g49
g50
NtRp2019
(dp2020
g53
(dp2021
g61
I5
ssg62
g2015
sg55
(lp2022
S'Desglosar_Emails/127.0.0.1.2011-09-18.21-14-45.9842ca62-9089-4380-8d8b-0ddbabad24a5'
p2023
asbasbasbag48
(g64
g50
NtRp2024
(dp2025
g53
(dp2026
sg62
g58
sg55
(lp2027
g48
(g69
g50
NtRp2028
(dp2029
g53
(dp2030
g73
g74
ssg62
g2024
sg55
(lp2031
S'vars'
p2032
asbag48
(g69
g50
NtRp2033
(dp2034
g53
(dp2035
g80
g81
ssg62
g2024
sg55
(lp2036
S':'
asbag48
(g69
g50
NtRp2037
(dp2038
g53
(dp2039
sg62
g2024
sg55
(lp2040
g48
(g49
g50
NtRp2041
(dp2042
g53
(dp2043
g61
I5
ssg62
g2037
sg55
(lp2044
g48
(g57
g50
NtRp2045
(dp2046
g53
(dp2047
g61
I4
ssg62
Nsg55
(lp2048
sbasbasbasbag48
(g64
g50
NtRp2049
(dp2050
g53
(dp2051
sg62
g58
sg55
(lp2052
g48
(g69
g50
NtRp2053
(dp2054
g53
(dp2055
g73
g74
ssg62
g2049
sg55
(lp2056
S'wsgi'
p2057
asbag48
(g69
g50
NtRp2058
(dp2059
g53
(dp2060
g80
g81
ssg62
g2049
sg55
(lp2061
S':'
asbag48
(g69
g50
NtRp2062
(dp2063
g53
(dp2064
sg62
g2049
sg55
(lp2065
g48
(g49
g50
NtRp2066
(dp2067
g53
(dp2068
g61
I5
ssg62
g2062
sg55
(lp2069
g48
(g57
g50
NtRp2070
(dp2071
g53
(dp2072
g61
I4
ssg62
Nsg55
(lp2073
g48
(g64
g50
NtRp2074
(dp2075
g53
(dp2076
sg62
g2070
sg55
(lp2077
g48
(g69
g50
NtRp2078
(dp2079
g53
(dp2080
g73
g74
ssg62
g2074
sg55
(lp2081
S'environ'
p2082
asbag48
(g69
g50
NtRp2083
(dp2084
g53
(dp2085
g80
g81
ssg62
g2074
sg55
(lp2086
S':'
asbag48
(g69
g50
NtRp2087
(dp2088
g53
(dp2089
sg62
g2074
sg55
(lp2090
g48
(g49
g50
NtRp2091
(dp2092
g53
(dp2093
g61
I4
ssg62
g2087
sg55
(lp2094
g48
(g57
g50
NtRp2095
(dp2096
g53
(dp2097
g61
I3
ssg62
Nsg55
(lp2098
g48
(g64
g50
NtRp2099
(dp2100
g53
(dp2101
sg62
g2095
sg55
(lp2102
g48
(g69
g50
NtRp2103
(dp2104
g53
(dp2105
g73
g74
ssg62
g2099
sg55
(lp2106
S'HTTP_ACCEPT'
p2107
asbag48
(g69
g50
NtRp2108
(dp2109
g53
(dp2110
g80
g81
ssg62
g2099
sg55
(lp2111
S':'
asbag48
(g69
g50
NtRp2112
(dp2113
g53
(dp2114
sg62
g2099
sg55
(lp2115
g48
(g49
g50
NtRp2116
(dp2117
g53
(dp2118
g61
I3
ssg62
g2112
sg55
(lp2119
g1098
asbasbasbag48
(g64
g50
NtRp2120
(dp2121
g53
(dp2122
sg62
g2095
sg55
(lp2123
g48
(g69
g50
NtRp2124
(dp2125
g53
(dp2126
g73
g74
ssg62
g2120
sg55
(lp2127
S'HTTP_ACCEPT_CHARSET'
p2128
asbag48
(g69
g50
NtRp2129
(dp2130
g53
(dp2131
g80
g81
ssg62
g2120
sg55
(lp2132
S':'
asbag48
(g69
g50
NtRp2133
(dp2134
g53
(dp2135
sg62
g2120
sg55
(lp2136
g48
(g49
g50
NtRp2137
(dp2138
g53
(dp2139
g61
I3
ssg62
g2133
sg55
(lp2140
g1120
asbasbasbag48
(g64
g50
NtRp2141
(dp2142
g53
(dp2143
sg62
g2095
sg55
(lp2144
g48
(g69
g50
NtRp2145
(dp2146
g53
(dp2147
g73
g74
ssg62
g2141
sg55
(lp2148
S'HTTP_ACCEPT_ENCODING'
p2149
asbag48
(g69
g50
NtRp2150
(dp2151
g53
(dp2152
g80
g81
ssg62
g2141
sg55
(lp2153
S':'
asbag48
(g69
g50
NtRp2154
(dp2155
g53
(dp2156
sg62
g2141
sg55
(lp2157
g48
(g49
g50
NtRp2158
(dp2159
g53
(dp2160
g61
I3
ssg62
g2154
sg55
(lp2161
g1142
asbasbasbag48
(g64
g50
NtRp2162
(dp2163
g53
(dp2164
sg62
g2095
sg55
(lp2165
g48
(g69
g50
NtRp2166
(dp2167
g53
(dp2168
g73
g74
ssg62
g2162
sg55
(lp2169
S'HTTP_ACCEPT_LANGUAGE'
p2170
asbag48
(g69
g50
NtRp2171
(dp2172
g53
(dp2173
g80
g81
ssg62
g2162
sg55
(lp2174
S':'
asbag48
(g69
g50
NtRp2175
(dp2176
g53
(dp2177
sg62
g2162
sg55
(lp2178
g48
(g49
g50
NtRp2179
(dp2180
g53
(dp2181
g61
I3
ssg62
g2175
sg55
(lp2182
g1164
asbasbasbag48
(g64
g50
NtRp2183
(dp2184
g53
(dp2185
sg62
g2095
sg55
(lp2186
g48
(g69
g50
NtRp2187
(dp2188
g53
(dp2189
g73
g74
ssg62
g2183
sg55
(lp2190
S'HTTP_CONNECTION'
p2191
asbag48
(g69
g50
NtRp2192
(dp2193
g53
(dp2194
g80
g81
ssg62
g2183
sg55
(lp2195
S':'
asbag48
(g69
g50
NtRp2196
(dp2197
g53
(dp2198
sg62
g2183
sg55
(lp2199
g48
(g49
g50
NtRp2200
(dp2201
g53
(dp2202
g61
I3
ssg62
g2196
sg55
(lp2203
g1186
asbasbasbag48
(g64
g50
NtRp2204
(dp2205
g53
(dp2206
sg62
g2095
sg55
(lp2207
g48
(g69
g50
NtRp2208
(dp2209
g53
(dp2210
g73
g74
ssg62
g2204
sg55
(lp2211
S'HTTP_COOKIE'
p2212
asbag48
(g69
g50
NtRp2213
(dp2214
g53
(dp2215
g80
g81
ssg62
g2204
sg55
(lp2216
S':'
asbag48
(g69
g50
NtRp2217
(dp2218
g53
(dp2219
sg62
g2204
sg55
(lp2220
g48
(g49
g50
NtRp2221
(dp2222
g53
(dp2223
g61
I3
ssg62
g2217
sg55
(lp2224
g1208
asbasbasbag48
(g64
g50
NtRp2225
(dp2226
g53
(dp2227
sg62
g2095
sg55
(lp2228
g48
(g69
g50
NtRp2229
(dp2230
g53
(dp2231
g73
g74
ssg62
g2225
sg55
(lp2232
S'HTTP_HOST'
p2233
asbag48
(g69
g50
NtRp2234
(dp2235
g53
(dp2236
g80
g81
ssg62
g2225
sg55
(lp2237
S':'
asbag48
(g69
g50
NtRp2238
(dp2239
g53
(dp2240
sg62
g2225
sg55
(lp2241
g48
(g49
g50
NtRp2242
(dp2243
g53
(dp2244
g61
I3
ssg62
g2238
sg55
(lp2245
g1230
asbasbasbag48
(g64
g50
NtRp2246
(dp2247
g53
(dp2248
sg62
g2095
sg55
(lp2249
g48
(g69
g50
NtRp2250
(dp2251
g53
(dp2252
g73
g74
ssg62
g2246
sg55
(lp2253
S'HTTP_REFERER'
p2254
asbag48
(g69
g50
NtRp2255
(dp2256
g53
(dp2257
g80
g81
ssg62
g2246
sg55
(lp2258
S':'
asbag48
(g69
g50
NtRp2259
(dp2260
g53
(dp2261
sg62
g2246
sg55
(lp2262
g48
(g49
g50
NtRp2263
(dp2264
g53
(dp2265
g61
I3
ssg62
g2259
sg55
(lp2266
g1252
asbasbasbag48
(g64
g50
NtRp2267
(dp2268
g53
(dp2269
sg62
g2095
sg55
(lp2270
g48
(g69
g50
NtRp2271
(dp2272
g53
(dp2273
g73
g74
ssg62
g2267
sg55
(lp2274
S'HTTP_USER_AGENT'
p2275
asbag48
(g69
g50
NtRp2276
(dp2277
g53
(dp2278
g80
g81
ssg62
g2267
sg55
(lp2279
S':'
asbag48
(g69
g50
NtRp2280
(dp2281
g53
(dp2282
sg62
g2267
sg55
(lp2283
g48
(g49
g50
NtRp2284
(dp2285
g53
(dp2286
g61
I3
ssg62
g2280
sg55
(lp2287
g1274
asbasbasbag48
(g64
g50
NtRp2288
(dp2289
g53
(dp2290
sg62
g2095
sg55
(lp2291
g48
(g69
g50
NtRp2292
(dp2293
g53
(dp2294
g73
g74
ssg62
g2288
sg55
(lp2295
S'PATH_INFO'
p2296
asbag48
(g69
g50
NtRp2297
(dp2298
g53
(dp2299
g80
g81
ssg62
g2288
sg55
(lp2300
S':'
asbag48
(g69
g50
NtRp2301
(dp2302
g53
(dp2303
sg62
g2288
sg55
(lp2304
g48
(g49
g50
NtRp2305
(dp2306
g53
(dp2307
g61
I3
ssg62
g2301
sg55
(lp2308
g1317
asbasbasbag48
(g64
g50
NtRp2309
(dp2310
g53
(dp2311
sg62
g2095
sg55
(lp2312
g48
(g69
g50
NtRp2313
(dp2314
g53
(dp2315
g73
g74
ssg62
g2309
sg55
(lp2316
S'QUERY_STRING'
p2317
asbag48
(g69
g50
NtRp2318
(dp2319
g53
(dp2320
g80
g81
ssg62
g2309
sg55
(lp2321
S':'
asbag48
(g69
g50
NtRp2322
(dp2323
g53
(dp2324
sg62
g2309
sg55
(lp2325
g48
(g49
g50
NtRp2326
(dp2327
g53
(dp2328
g61
I3
ssg62
g2322
sg55
(lp2329
S''
asbasbasbag48
(g64
g50
NtRp2330
(dp2331
g53
(dp2332
sg62
g2095
sg55
(lp2333
g48
(g69
g50
NtRp2334
(dp2335
g53
(dp2336
g73
g74
ssg62
g2330
sg55
(lp2337
S'REMOTE_ADDR'
p2338
asbag48
(g69
g50
NtRp2339
(dp2340
g53
(dp2341
g80
g81
ssg62
g2330
sg55
(lp2342
S':'
asbag48
(g69
g50
NtRp2343
(dp2344
g53
(dp2345
sg62
g2330
sg55
(lp2346
g48
(g49
g50
NtRp2347
(dp2348
g53
(dp2349
g61
I3
ssg62
g2343
sg55
(lp2350
g181
asbasbasbag48
(g64
g50
NtRp2351
(dp2352
g53
(dp2353
sg62
g2095
sg55
(lp2354
g48
(g69
g50
NtRp2355
(dp2356
g53
(dp2357
g73
g74
ssg62
g2351
sg55
(lp2358
S'REMOTE_PORT'
p2359
asbag48
(g69
g50
NtRp2360
(dp2361
g53
(dp2362
g80
g81
ssg62
g2351
sg55
(lp2363
S':'
asbag48
(g69
g50
NtRp2364
(dp2365
g53
(dp2366
sg62
g2351
sg55
(lp2367
g48
(g49
g50
NtRp2368
(dp2369
g53
(dp2370
g61
I3
ssg62
g2364
sg55
(lp2371
g1381
asbasbasbag48
(g64
g50
NtRp2372
(dp2373
g53
(dp2374
sg62
g2095
sg55
(lp2375
g48
(g69
g50
NtRp2376
(dp2377
g53
(dp2378
g73
g74
ssg62
g2372
sg55
(lp2379
S'REQUEST_METHOD'
p2380
asbag48
(g69
g50
NtRp2381
(dp2382
g53
(dp2383
g80
g81
ssg62
g2372
sg55
(lp2384
S':'
asbag48
(g69
g50
NtRp2385
(dp2386
g53
(dp2387
sg62
g2372
sg55
(lp2388
g48
(g49
g50
NtRp2389
(dp2390
g53
(dp2391
g61
I3
ssg62
g2385
sg55
(lp2392
g1403
asbasbasbag48
(g64
g50
NtRp2393
(dp2394
g53
(dp2395
sg62
g2095
sg55
(lp2396
g48
(g69
g50
NtRp2397
(dp2398
g53
(dp2399
g73
g74
ssg62
g2393
sg55
(lp2400
S'SCRIPT_NAME'
p2401
asbag48
(g69
g50
NtRp2402
(dp2403
g53
(dp2404
g80
g81
ssg62
g2393
sg55
(lp2405
S':'
asbag48
(g69
g50
NtRp2406
(dp2407
g53
(dp2408
sg62
g2393
sg55
(lp2409
g48
(g49
g50
NtRp2410
(dp2411
g53
(dp2412
g61
I3
ssg62
g2406
sg55
(lp2413
S''
asbasbasbag48
(g64
g50
NtRp2414
(dp2415
g53
(dp2416
sg62
g2095
sg55
(lp2417
g48
(g69
g50
NtRp2418
(dp2419
g53
(dp2420
g73
g74
ssg62
g2414
sg55
(lp2421
S'SERVER_NAME'
p2422
asbag48
(g69
g50
NtRp2423
(dp2424
g53
(dp2425
g80
g81
ssg62
g2414
sg55
(lp2426
S':'
asbag48
(g69
g50
NtRp2427
(dp2428
g53
(dp2429
sg62
g2414
sg55
(lp2430
g48
(g49
g50
NtRp2431
(dp2432
g53
(dp2433
g61
I3
ssg62
g2427
sg55
(lp2434
g1446
asbasbasbag48
(g64
g50
NtRp2435
(dp2436
g53
(dp2437
sg62
g2095
sg55
(lp2438
g48
(g69
g50
NtRp2439
(dp2440
g53
(dp2441
g73
g74
ssg62
g2435
sg55
(lp2442
S'SERVER_PORT'
p2443
asbag48
(g69
g50
NtRp2444
(dp2445
g53
(dp2446
g80
g81
ssg62
g2435
sg55
(lp2447
S':'
asbag48
(g69
g50
NtRp2448
(dp2449
g53
(dp2450
sg62
g2435
sg55
(lp2451
g48
(g49
g50
NtRp2452
(dp2453
g53
(dp2454
g61
I3
ssg62
g2448
sg55
(lp2455
g1468
asbasbasbag48
(g64
g50
NtRp2456
(dp2457
g53
(dp2458
sg62
g2095
sg55
(lp2459
g48
(g69
g50
NtRp2460
(dp2461
g53
(dp2462
g73
g74
ssg62
g2456
sg55
(lp2463
S'SERVER_PROTOCOL'
p2464
asbag48
(g69
g50
NtRp2465
(dp2466
g53
(dp2467
g80
g81
ssg62
g2456
sg55
(lp2468
S':'
asbag48
(g69
g50
NtRp2469
(dp2470
g53
(dp2471
sg62
g2456
sg55
(lp2472
g48
(g49
g50
NtRp2473
(dp2474
g53
(dp2475
g61
I3
ssg62
g2469
sg55
(lp2476
g1490
asbasbasbag48
(g64
g50
NtRp2477
(dp2478
g53
(dp2479
sg62
g2095
sg55
(lp2480
g48
(g69
g50
NtRp2481
(dp2482
g53
(dp2483
g73
g74
ssg62
g2477
sg55
(lp2484
S'SERVER_SOFTWARE'
p2485
asbag48
(g69
g50
NtRp2486
(dp2487
g53
(dp2488
g80
g81
ssg62
g2477
sg55
(lp2489
S':'
asbag48
(g69
g50
NtRp2490
(dp2491
g53
(dp2492
sg62
g2477
sg55
(lp2493
g48
(g49
g50
NtRp2494
(dp2495
g53
(dp2496
g61
I3
ssg62
g2490
sg55
(lp2497
g1512
asbasbasbag48
(g64
g50
NtRp2498
(dp2499
g53
(dp2500
sg62
g2095
sg55
(lp2501
g48
(g69
g50
NtRp2502
(dp2503
g53
(dp2504
g73
g74
ssg62
g2498
sg55
(lp2505
S'wsgi.errors'
p2506
asbag48
(g69
g50
NtRp2507
(dp2508
g53
(dp2509
g80
g81
ssg62
g2498
sg55
(lp2510
S':'
asbag48
(g69
g50
NtRp2511
(dp2512
g53
(dp2513
sg62
g2498
sg55
(lp2514
g48
(g49
g50
NtRp2515
(dp2516
g53
(dp2517
g61
I3
ssg62
g2511
sg55
(lp2518
S"<open file '<stderr>', mode 'w' at 0x01EF00B0>"
p2519
asbasbasbag48
(g64
g50
NtRp2520
(dp2521
g53
(dp2522
sg62
g2095
sg55
(lp2523
g48
(g69
g50
NtRp2524
(dp2525
g53
(dp2526
g73
g74
ssg62
g2520
sg55
(lp2527
S'wsgi.file_wrapper'
p2528
asbag48
(g69
g50
NtRp2529
(dp2530
g53
(dp2531
g80
g81
ssg62
g2520
sg55
(lp2532
S':'
asbag48
(g69
g50
NtRp2533
(dp2534
g53
(dp2535
sg62
g2520
sg55
(lp2536
g48
(g49
g50
NtRp2537
(dp2538
g53
(dp2539
g61
I3
ssg62
g2533
sg55
(lp2540
S'<class gluon.rocket.FileWrapper at 0x0308C1B0>'
p2541
asbasbasbag48
(g64
g50
NtRp2542
(dp2543
g53
(dp2544
sg62
g2095
sg55
(lp2545
g48
(g69
g50
NtRp2546
(dp2547
g53
(dp2548
g73
g74
ssg62
g2542
sg55
(lp2549
S'wsgi.input'
p2550
asbag48
(g69
g50
NtRp2551
(dp2552
g53
(dp2553
g80
g81
ssg62
g2542
sg55
(lp2554
S':'
asbag48
(g69
g50
NtRp2555
(dp2556
g53
(dp2557
sg62
g2542
sg55
(lp2558
g48
(g49
g50
NtRp2559
(dp2560
g53
(dp2561
g61
I3
ssg62
g2555
sg55
(lp2562
S'<cStringIO.StringO object at 0x07F0D280>'
p2563
asbasbasbag48
(g64
g50
NtRp2564
(dp2565
g53
(dp2566
sg62
g2095
sg55
(lp2567
g48
(g69
g50
NtRp2568
(dp2569
g53
(dp2570
g73
g74
ssg62
g2564
sg55
(lp2571
S'wsgi.multiprocess'
p2572
asbag48
(g69
g50
NtRp2573
(dp2574
g53
(dp2575
g80
g81
ssg62
g2564
sg55
(lp2576
S':'
asbag48
(g69
g50
NtRp2577
(dp2578
g53
(dp2579
sg62
g2564
sg55
(lp2580
g48
(g49
g50
NtRp2581
(dp2582
g53
(dp2583
g61
I3
ssg62
g2577
sg55
(lp2584
g91
asbasbasbag48
(g64
g50
NtRp2585
(dp2586
g53
(dp2587
sg62
g2095
sg55
(lp2588
g48
(g69
g50
NtRp2589
(dp2590
g53
(dp2591
g73
g74
ssg62
g2585
sg55
(lp2592
S'wsgi.multithread'
p2593
asbag48
(g69
g50
NtRp2594
(dp2595
g53
(dp2596
g80
g81
ssg62
g2585
sg55
(lp2597
S':'
asbag48
(g69
g50
NtRp2598
(dp2599
g53
(dp2600
sg62
g2585
sg55
(lp2601
g48
(g49
g50
NtRp2602
(dp2603
g53
(dp2604
g61
I3
ssg62
g2598
sg55
(lp2605
g1686
asbasbasbag48
(g64
g50
NtRp2606
(dp2607
g53
(dp2608
sg62
g2095
sg55
(lp2609
g48
(g69
g50
NtRp2610
(dp2611
g53
(dp2612
g73
g74
ssg62
g2606
sg55
(lp2613
S'wsgi.run_once'
p2614
asbag48
(g69
g50
NtRp2615
(dp2616
g53
(dp2617
g80
g81
ssg62
g2606
sg55
(lp2618
S':'
asbag48
(g69
g50
NtRp2619
(dp2620
g53
(dp2621
sg62
g2606
sg55
(lp2622
g48
(g49
g50
NtRp2623
(dp2624
g53
(dp2625
g61
I3
ssg62
g2619
sg55
(lp2626
g91
asbasbasbag48
(g64
g50
NtRp2627
(dp2628
g53
(dp2629
sg62
g2095
sg55
(lp2630
g48
(g69
g50
NtRp2631
(dp2632
g53
(dp2633
g73
g74
ssg62
g2627
sg55
(lp2634
S'wsgi.url_scheme'
p2635
asbag48
(g69
g50
NtRp2636
(dp2637
g53
(dp2638
g80
g81
ssg62
g2627
sg55
(lp2639
S':'
asbag48
(g69
g50
NtRp2640
(dp2641
g53
(dp2642
sg62
g2627
sg55
(lp2643
g48
(g49
g50
NtRp2644
(dp2645
g53
(dp2646
g61
I3
ssg62
g2640
sg55
(lp2647
g1729
asbasbasbag48
(g64
g50
NtRp2648
(dp2649
g53
(dp2650
sg62
g2095
sg55
(lp2651
g48
(g69
g50
NtRp2652
(dp2653
g53
(dp2654
g73
g74
ssg62
g2648
sg55
(lp2655
S'wsgi.version'
p2656
asbag48
(g69
g50
NtRp2657
(dp2658
g53
(dp2659
g80
g81
ssg62
g2648
sg55
(lp2660
S':'
asbag48
(g69
g50
NtRp2661
(dp2662
g53
(dp2663
sg62
g2648
sg55
(lp2664
g48
(g49
g50
NtRp2665
(dp2666
g53
(dp2667
g61
I3
ssg62
g2661
sg55
(lp2668
S'1'
asbasbasbasbasbasbasbasbasbasbasbasbasbsS'frames'
p2669
(lp2670
(dp2671
S'file'
p2672
S'C:\\Users\\Atomico\\web2py\\gluon\\restricted.py'
p2673
sS'dump'
p2674
(dp2675
sS'lnum'
p2676
I192
sS'lines'
p2677
(dp2678
sS'call'
p2679
S"(code='def entrada():\\n    form=SQLFORM(db.info)\\n    if ...m\\n\\nresponse._vars=response._caller(entrada_mod1)\\n', environment={'A': <class 'gluon.html.A'>, 'B': <class 'gluon.html.B'>, 'BEAUTIFY': <class 'gluon.html.BEAUTIFY'>, 'BODY': <class 'gluon.html.BODY'>, 'BR': <class 'gluon.html.BR'>, 'BUTTON': <class 'gluon.html.BUTTON'>, 'CAT': <class 'gluon.html.CAT'>, 'CENTER': <class 'gluon.html.CENTER'>, 'CLEANUP': <class 'gluon.validators.CLEANUP'>, 'CODE': <class 'gluon.html.CODE'>, ...}, layer=r'C:\\Users\\Atomico\\web2py\\applications\\Desglosar_Emails\\controllers/default.py')"
p2680
sS'func'
p2681
S'restricted'
p2682
sa(dp2683
g2672
S'C:\\Users\\Atomico\\web2py\\applications\\Desglosar_Emails\\controllers\\default.py'
p2684
sg2674
(dp2685
sg2676
I42
sg2677
(dp2686
I32
S"    response.write('. La len(txt) es de '+str(len(txt))+' y la i se ha quedado en '+str(i))"
p2687
sI33
S''
sI34
S'    return dict(form=form)'
p2688
sI35
S''
sI36
S'def entrada_mod1():'
p2689
sI37
S'    form=SQLFORM(db.info2)'
p2690
sI38
S'    if form.accepts(request.vars,session): pass'
p2691
sI39
S'    db.info2.long=len(db.info2.texto)'
p2692
sI40
S'    return form'
p2693
sI31
S'        i=i+1'
p2694
ssg2679
S'()'
p2695
sg2681
S'<module>'
p2696
sa(dp2697
g2672
S'C:\\Users\\Atomico\\web2py\\gluon\\globals.py'
p2698
sg2674
(dp2699
sg2676
I145
sg2677
(dp2700
sg2679
S'(f=<function entrada_mod1 at 0x07FC7EB0>)'
p2701
sg2681
S'<lambda>'
p2702
sa(dp2703
g2672
S'C:\\Users\\Atomico\\web2py\\applications\\Desglosar_Emails\\controllers\\default.py'
p2704
sg2674
(dp2705
sg2676
I39
sg2677
(dp2706
I32
S"    response.write('. La len(txt) es de '+str(len(txt))+' y la i se ha quedado en '+str(i))"
p2707
sI33
S''
sI34
S'    return dict(form=form)'
p2708
sI35
S''
sI36
S'def entrada_mod1():'
p2709
sI37
S'    form=SQLFORM(db.info2)'
p2710
sI38
S'    if form.accepts(request.vars,session): pass'
p2711
sI39
S'    db.info2.long=len(db.info2.texto)'
p2712
sI40
S'    return form'
p2713
sI31
S'        i=i+1'
p2714
ssg2679
S'()'
p2715
sg2681
S'entrada_mod1'
p2716
sasS'pyver'
p2717
S'Python 2.5.4: C:\\Users\\Atomico\\web2py\\web2py.exe'
p2718
sS'session'
p2719
g48
(g49
g50
NtRp2720
(dp2721
g53
(dp2722
sg55
(lp2723
g48
(g57
g50
NtRp2724
(dp2725
g53
(dp2726
g61
I5
ssg62
Nsg55
(lp2727
g48
(g64
g50
NtRp2728
(dp2729
g53
(dp2730
sg62
g2724
sg55
(lp2731
g48
(g69
g50
NtRp2732
(dp2733
g53
(dp2734
g73
g74
ssg62
g2728
sg55
(lp2735
S'last_query'
p2736
asbag48
(g69
g50
NtRp2737
(dp2738
g53
(dp2739
g80
g81
ssg62
g2728
sg55
(lp2740
S':'
asbag48
(g69
g50
NtRp2741
(dp2742
g53
(dp2743
sg62
g2728
sg55
(lp2744
g48
(g49
g50
NtRp2745
(dp2746
g53
(dp2747
g61
I5
ssg62
g2741
sg55
(lp2748
S'db.info2.id>0'
p2749
asbasbasbasbasbsS'etype'
p2750
S"<type 'exceptions.TypeError'>"
p2751
sS'date'
p2752
S'Sun Sep 18 21:14:45 2011'
p2753
sS'response'
p2754
g48
(g49
g50
NtRp2755
(dp2756
g53
(dp2757
sg55
(lp2758
g48
(g57
g50
NtRp2759
(dp2760
g53
(dp2761
g61
I5
ssg62
Nsg55
(lp2762
g48
(g64
g50
NtRp2763
(dp2764
g53
(dp2765
sg62
g2759
sg55
(lp2766
g48
(g69
g50
NtRp2767
(dp2768
g53
(dp2769
g73
g74
ssg62
g2763
sg55
(lp2770
g146
asbag48
(g69
g50
NtRp2771
(dp2772
g53
(dp2773
g80
g81
ssg62
g2763
sg55
(lp2774
S':'
asbag48
(g69
g50
NtRp2775
(dp2776
g53
(dp2777
sg62
g2763
sg55
(lp2778
g48
(g49
g50
NtRp2779
(dp2780
g53
(dp2781
g61
I5
ssg62
g2775
sg55
(lp2782
S'<cStringIO.StringO object at 0x07B61F60>'
p2783
asbasbasbag48
(g64
g50
NtRp2784
(dp2785
g53
(dp2786
sg62
g2759
sg55
(lp2787
g48
(g69
g50
NtRp2788
(dp2789
g53
(dp2790
g73
g74
ssg62
g2784
sg55
(lp2791
g212
asbag48
(g69
g50
NtRp2792
(dp2793
g53
(dp2794
g80
g81
ssg62
g2784
sg55
(lp2795
S':'
asbag48
(g69
g50
NtRp2796
(dp2797
g53
(dp2798
sg62
g2784
sg55
(lp2799
g48
(g49
g50
NtRp2800
(dp2801
g53
(dp2802
g61
I5
ssg62
g2796
sg55
(lp2803
g48
(g57
g50
NtRp2804
(dp2805
g53
(dp2806
g61
I4
ssg62
Nsg55
(lp2807
g48
(g64
g50
NtRp2808
(dp2809
g53
(dp2810
sg62
g2804
sg55
(lp2811
g48
(g69
g50
NtRp2812
(dp2813
g53
(dp2814
g73
g74
ssg62
g2808
sg55
(lp2815
S'session_id_desglosar_emails'
p2816
asbag48
(g69
g50
NtRp2817
(dp2818
g53
(dp2819
g80
g81
ssg62
g2808
sg55
(lp2820
S':'
asbag48
(g69
g50
NtRp2821
(dp2822
g53
(dp2823
sg62
g2808
sg55
(lp2824
g48
(g49
g50
NtRp2825
(dp2826
g53
(dp2827
g61
I4
ssg62
g2821
sg55
(lp2828
g48
(g57
g50
NtRp2829
(dp2830
g53
(dp2831
g61
I3
ssg62
Nsg55
(lp2832
g48
(g64
g50
NtRp2833
(dp2834
g53
(dp2835
sg62
g2829
sg55
(lp2836
g48
(g69
g50
NtRp2837
(dp2838
g53
(dp2839
g73
g74
ssg62
g2833
sg55
(lp2840
g262
asbag48
(g69
g50
NtRp2841
(dp2842
g53
(dp2843
g80
g81
ssg62
g2833
sg55
(lp2844
S':'
asbag48
(g69
g50
NtRp2845
(dp2846
g53
(dp2847
sg62
g2833
sg55
(lp2848
g48
(g49
g50
NtRp2849
(dp2850
g53
(dp2851
g61
I3
ssg62
g2845
sg55
(lp2852
S''
asbasbasbag48
(g64
g50
NtRp2853
(dp2854
g53
(dp2855
sg62
g2829
sg55
(lp2856
g48
(g69
g50
NtRp2857
(dp2858
g53
(dp2859
g73
g74
ssg62
g2853
sg55
(lp2860
g283
asbag48
(g69
g50
NtRp2861
(dp2862
g53
(dp2863
g80
g81
ssg62
g2853
sg55
(lp2864
S':'
asbag48
(g69
g50
NtRp2865
(dp2866
g53
(dp2867
sg62
g2853
sg55
(lp2868
g48
(g49
g50
NtRp2869
(dp2870
g53
(dp2871
g61
I3
ssg62
g2865
sg55
(lp2872
S''
asbasbasbag48
(g64
g50
NtRp2873
(dp2874
g53
(dp2875
sg62
g2829
sg55
(lp2876
g48
(g69
g50
NtRp2877
(dp2878
g53
(dp2879
g73
g74
ssg62
g2873
sg55
(lp2880
g304
asbag48
(g69
g50
NtRp2881
(dp2882
g53
(dp2883
g80
g81
ssg62
g2873
sg55
(lp2884
S':'
asbag48
(g69
g50
NtRp2885
(dp2886
g53
(dp2887
sg62
g2873
sg55
(lp2888
g48
(g49
g50
NtRp2889
(dp2890
g53
(dp2891
g61
I3
ssg62
g2885
sg55
(lp2892
S''
asbasbasbag48
(g64
g50
NtRp2893
(dp2894
g53
(dp2895
sg62
g2829
sg55
(lp2896
g48
(g69
g50
NtRp2897
(dp2898
g53
(dp2899
g73
g74
ssg62
g2893
sg55
(lp2900
g325
asbag48
(g69
g50
NtRp2901
(dp2902
g53
(dp2903
g80
g81
ssg62
g2893
sg55
(lp2904
S':'
asbag48
(g69
g50
NtRp2905
(dp2906
g53
(dp2907
sg62
g2893
sg55
(lp2908
g48
(g49
g50
NtRp2909
(dp2910
g53
(dp2911
g61
I3
ssg62
g2905
sg55
(lp2912
S''
asbasbasbag48
(g64
g50
NtRp2913
(dp2914
g53
(dp2915
sg62
g2829
sg55
(lp2916
g48
(g69
g50
NtRp2917
(dp2918
g53
(dp2919
g73
g74
ssg62
g2913
sg55
(lp2920
g346
asbag48
(g69
g50
NtRp2921
(dp2922
g53
(dp2923
g80
g81
ssg62
g2913
sg55
(lp2924
S':'
asbag48
(g69
g50
NtRp2925
(dp2926
g53
(dp2927
sg62
g2913
sg55
(lp2928
g48
(g49
g50
NtRp2929
(dp2930
g53
(dp2931
g61
I3
ssg62
g2925
sg55
(lp2932
S'/'
asbasbasbag48
(g64
g50
NtRp2933
(dp2934
g53
(dp2935
sg62
g2829
sg55
(lp2936
g48
(g69
g50
NtRp2937
(dp2938
g53
(dp2939
g73
g74
ssg62
g2933
sg55
(lp2940
g367
asbag48
(g69
g50
NtRp2941
(dp2942
g53
(dp2943
g80
g81
ssg62
g2933
sg55
(lp2944
S':'
asbag48
(g69
g50
NtRp2945
(dp2946
g53
(dp2947
sg62
g2933
sg55
(lp2948
g48
(g49
g50
NtRp2949
(dp2950
g53
(dp2951
g61
I3
ssg62
g2945
sg55
(lp2952
S''
asbasbasbag48
(g64
g50
NtRp2953
(dp2954
g53
(dp2955
sg62
g2829
sg55
(lp2956
g48
(g69
g50
NtRp2957
(dp2958
g53
(dp2959
g73
g74
ssg62
g2953
sg55
(lp2960
g388
asbag48
(g69
g50
NtRp2961
(dp2962
g53
(dp2963
g80
g81
ssg62
g2953
sg55
(lp2964
S':'
asbag48
(g69
g50
NtRp2965
(dp2966
g53
(dp2967
sg62
g2953
sg55
(lp2968
g48
(g49
g50
NtRp2969
(dp2970
g53
(dp2971
g61
I3
ssg62
g2965
sg55
(lp2972
S''
asbasbasbasbasbasbasbasbasbasbasbag48
(g64
g50
NtRp2973
(dp2974
g53
(dp2975
sg62
g2759
sg55
(lp2976
g48
(g69
g50
NtRp2977
(dp2978
g53
(dp2979
g73
g74
ssg62
g2973
sg55
(lp2980
S'files'
p2981
asbag48
(g69
g50
NtRp2982
(dp2983
g53
(dp2984
g80
g81
ssg62
g2973
sg55
(lp2985
S':'
asbag48
(g69
g50
NtRp2986
(dp2987
g53
(dp2988
sg62
g2973
sg55
(lp2989
g48
(g49
g50
NtRp2990
(dp2991
g53
(dp2992
g61
I5
ssg62
g2986
sg55
(lp2993
g48
(g57
g50
NtRp2994
(dp2995
g53
(dp2996
g61
I4
ssg62
Nsg55
(lp2997
sbasbasbasbag48
(g64
g50
NtRp2998
(dp2999
g53
(dp3000
sg62
g2759
sg55
(lp3001
g48
(g69
g50
NtRp3002
(dp3003
g53
(dp3004
g73
g74
ssg62
g2998
sg55
(lp3005
S'flash'
p3006
asbag48
(g69
g50
NtRp3007
(dp3008
g53
(dp3009
g80
g81
ssg62
g2998
sg55
(lp3010
S':'
asbag48
(g69
g50
NtRp3011
(dp3012
g53
(dp3013
sg62
g2998
sg55
(lp3014
g48
(g49
g50
NtRp3015
(dp3016
g53
(dp3017
g61
I5
ssg62
g3011
sg55
(lp3018
S''
asbasbasbag48
(g64
g50
NtRp3019
(dp3020
g53
(dp3021
sg62
g2759
sg55
(lp3022
g48
(g69
g50
NtRp3023
(dp3024
g53
(dp3025
g73
g74
ssg62
g3019
sg55
(lp3026
S'generic_patterns'
p3027
asbag48
(g69
g50
NtRp3028
(dp3029
g53
(dp3030
g80
g81
ssg62
g3019
sg55
(lp3031
S':'
asbag48
(g69
g50
NtRp3032
(dp3033
g53
(dp3034
sg62
g3019
sg55
(lp3035
g48
(g49
g50
NtRp3036
(dp3037
g53
(dp3038
g61
I5
ssg62
g3032
sg55
(lp3039
g48
(g57
g50
NtRp3040
(dp3041
g53
(dp3042
g61
I4
ssg62
Nsg55
(lp3043
sbasbasbasbag48
(g64
g50
NtRp3044
(dp3045
g53
(dp3046
sg62
g2759
sg55
(lp3047
g48
(g69
g50
NtRp3048
(dp3049
g53
(dp3050
g73
g74
ssg62
g3044
sg55
(lp3051
S'headers'
p3052
asbag48
(g69
g50
NtRp3053
(dp3054
g53
(dp3055
g80
g81
ssg62
g3044
sg55
(lp3056
S':'
asbag48
(g69
g50
NtRp3057
(dp3058
g53
(dp3059
sg62
g3044
sg55
(lp3060
g48
(g49
g50
NtRp3061
(dp3062
g53
(dp3063
g61
I5
ssg62
g3057
sg55
(lp3064
g48
(g57
g50
NtRp3065
(dp3066
g53
(dp3067
g61
I4
ssg62
Nsg55
(lp3068
g48
(g64
g50
NtRp3069
(dp3070
g53
(dp3071
sg62
g3065
sg55
(lp3072
g48
(g69
g50
NtRp3073
(dp3074
g53
(dp3075
g73
g74
ssg62
g3069
sg55
(lp3076
S'Cache-Control'
p3077
asbag48
(g69
g50
NtRp3078
(dp3079
g53
(dp3080
g80
g81
ssg62
g3069
sg55
(lp3081
S':'
asbag48
(g69
g50
NtRp3082
(dp3083
g53
(dp3084
sg62
g3069
sg55
(lp3085
g48
(g49
g50
NtRp3086
(dp3087
g53
(dp3088
g61
I4
ssg62
g3082
sg55
(lp3089
S'no-store, no-cache, must-revalidate, post-check=0, pre-check=0'
p3090
asbasbasbag48
(g64
g50
NtRp3091
(dp3092
g53
(dp3093
sg62
g3065
sg55
(lp3094
g48
(g69
g50
NtRp3095
(dp3096
g53
(dp3097
g73
g74
ssg62
g3091
sg55
(lp3098
S'Content-Type'
p3099
asbag48
(g69
g50
NtRp3100
(dp3101
g53
(dp3102
g80
g81
ssg62
g3091
sg55
(lp3103
S':'
asbag48
(g69
g50
NtRp3104
(dp3105
g53
(dp3106
sg62
g3091
sg55
(lp3107
g48
(g49
g50
NtRp3108
(dp3109
g53
(dp3110
g61
I4
ssg62
g3104
sg55
(lp3111
S'text/html; charset=utf-8'
p3112
asbasbasbag48
(g64
g50
NtRp3113
(dp3114
g53
(dp3115
sg62
g3065
sg55
(lp3116
g48
(g69
g50
NtRp3117
(dp3118
g53
(dp3119
g73
g74
ssg62
g3113
sg55
(lp3120
S'Expires'
p3121
asbag48
(g69
g50
NtRp3122
(dp3123
g53
(dp3124
g80
g81
ssg62
g3113
sg55
(lp3125
S':'
asbag48
(g69
g50
NtRp3126
(dp3127
g53
(dp3128
sg62
g3113
sg55
(lp3129
g48
(g49
g50
NtRp3130
(dp3131
g53
(dp3132
g61
I4
ssg62
g3126
sg55
(lp3133
S'Sun, 18 Sep 2011 19:14:45 GMT'
p3134
asbasbasbag48
(g64
g50
NtRp3135
(dp3136
g53
(dp3137
sg62
g3065
sg55
(lp3138
g48
(g69
g50
NtRp3139
(dp3140
g53
(dp3141
g73
g74
ssg62
g3135
sg55
(lp3142
S'Pragma'
p3143
asbag48
(g69
g50
NtRp3144
(dp3145
g53
(dp3146
g80
g81
ssg62
g3135
sg55
(lp3147
S':'
asbag48
(g69
g50
NtRp3148
(dp3149
g53
(dp3150
sg62
g3135
sg55
(lp3151
g48
(g49
g50
NtRp3152
(dp3153
g53
(dp3154
g61
I4
ssg62
g3148
sg55
(lp3155
S'no-cache'
p3156
asbasbasbag48
(g64
g50
NtRp3157
(dp3158
g53
(dp3159
sg62
g3065
sg55
(lp3160
g48
(g69
g50
NtRp3161
(dp3162
g53
(dp3163
g73
g74
ssg62
g3157
sg55
(lp3164
S'X-Powered-By'
p3165
asbag48
(g69
g50
NtRp3166
(dp3167
g53
(dp3168
g80
g81
ssg62
g3157
sg55
(lp3169
S':'
asbag48
(g69
g50
NtRp3170
(dp3171
g53
(dp3172
sg62
g3157
sg55
(lp3173
g48
(g49
g50
NtRp3174
(dp3175
g53
(dp3176
g61
I4
ssg62
g3170
sg55
(lp3177
S'web2py'
p3178
asbasbasbasbasbasbasbag48
(g64
g50
NtRp3179
(dp3180
g53
(dp3181
sg62
g2759
sg55
(lp3182
g48
(g69
g50
NtRp3183
(dp3184
g53
(dp3185
g73
g74
ssg62
g3179
sg55
(lp3186
S'menu'
p3187
asbag48
(g69
g50
NtRp3188
(dp3189
g53
(dp3190
g80
g81
ssg62
g3179
sg55
(lp3191
S':'
asbag48
(g69
g50
NtRp3192
(dp3193
g53
(dp3194
sg62
g3179
sg55
(lp3195
g48
(g49
g50
NtRp3196
(dp3197
g53
(dp3198
g61
I5
ssg62
g3192
sg55
(lp3199
g48
(g57
g50
NtRp3200
(dp3201
g53
(dp3202
g61
I4
ssg62
Nsg55
(lp3203
g48
(g64
g50
NtRp3204
(dp3205
g53
(dp3206
sg62
g3200
sg55
(lp3207
g48
(g69
g50
NtRp3208
(dp3209
g53
(dp3210
sg62
g3204
sg55
(lp3211
g48
(g49
g50
NtRp3212
(dp3213
g53
(dp3214
g61
I4
ssg62
g3208
sg55
(lp3215
g48
(g57
g50
NtRp3216
(dp3217
g53
(dp3218
g61
I3
ssg62
Nsg55
(lp3219
g48
(g64
g50
NtRp3220
(dp3221
g53
(dp3222
sg62
g3216
sg55
(lp3223
g48
(g69
g50
NtRp3224
(dp3225
g53
(dp3226
sg62
g3220
sg55
(lp3227
g48
(g49
g50
NtRp3228
(dp3229
g53
(dp3230
g61
I3
ssg62
g3224
sg55
(lp3231
cgluon.languages
lazyT_unpickle
p3232
(S't\x04\x00\x00\x00Home'
tRp3233
asbasbasbag48
(g64
g50
NtRp3234
(dp3235
g53
(dp3236
sg62
g3216
sg55
(lp3237
g48
(g69
g50
NtRp3238
(dp3239
g53
(dp3240
sg62
g3234
sg55
(lp3241
g48
(g49
g50
NtRp3242
(dp3243
g53
(dp3244
g61
I3
ssg62
g3238
sg55
(lp3245
g91
asbasbasbag48
(g64
g50
NtRp3246
(dp3247
g53
(dp3248
sg62
g3216
sg55
(lp3249
g48
(g69
g50
NtRp3250
(dp3251
g53
(dp3252
sg62
g3246
sg55
(lp3253
g48
(g49
g50
NtRp3254
(dp3255
g53
(dp3256
g61
I3
ssg62
g3250
sg55
(lp3257
S'/Desglosar_Emails/default/index'
p3258
asbasbasbag48
(g64
g50
NtRp3259
(dp3260
g53
(dp3261
sg62
g3216
sg55
(lp3262
g48
(g69
g50
NtRp3263
(dp3264
g53
(dp3265
sg62
g3259
sg55
(lp3266
g48
(g49
g50
NtRp3267
(dp3268
g53
(dp3269
g61
I3
ssg62
g3263
sg55
(lp3270
g48
(g57
g50
NtRp3271
(dp3272
g53
(dp3273
g61
I2
ssg62
Nsg55
(lp3274
sbasbasbasbasbasbasbasbag48
(g64
g50
NtRp3275
(dp3276
g53
(dp3277
sg62
g3200
sg55
(lp3278
g48
(g69
g50
NtRp3279
(dp3280
g53
(dp3281
sg62
g3275
sg55
(lp3282
g48
(g49
g50
NtRp3283
(dp3284
g53
(dp3285
g61
I4
ssg62
g3279
sg55
(lp3286
g48
(g57
g50
NtRp3287
(dp3288
g53
(dp3289
g61
I3
ssg62
Nsg55
(lp3290
g48
(g64
g50
NtRp3291
(dp3292
g53
(dp3293
sg62
g3287
sg55
(lp3294
g48
(g69
g50
NtRp3295
(dp3296
g53
(dp3297
sg62
g3291
sg55
(lp3298
g48
(g49
g50
NtRp3299
(dp3300
g53
(dp3301
g61
I3
ssg62
g3295
sg55
(lp3302
g3232
(S's\x08\x00\x00\x00This App'
tRp3303
asbasbasbag48
(g64
g50
NtRp3304
(dp3305
g53
(dp3306
sg62
g3287
sg55
(lp3307
g48
(g69
g50
NtRp3308
(dp3309
g53
(dp3310
sg62
g3304
sg55
(lp3311
g48
(g49
g50
NtRp3312
(dp3313
g53
(dp3314
g61
I3
ssg62
g3308
sg55
(lp3315
g91
asbasbasbag48
(g64
g50
NtRp3316
(dp3317
g53
(dp3318
sg62
g3287
sg55
(lp3319
g48
(g69
g50
NtRp3320
(dp3321
g53
(dp3322
sg62
g3316
sg55
(lp3323
g48
(g49
g50
NtRp3324
(dp3325
g53
(dp3326
g61
I3
ssg62
g3320
sg55
(lp3327
S'/admin/default/design/Desglosar_Emails'
p3328
asbasbasbag48
(g64
g50
NtRp3329
(dp3330
g53
(dp3331
sg62
g3287
sg55
(lp3332
g48
(g69
g50
NtRp3333
(dp3334
g53
(dp3335
sg62
g3329
sg55
(lp3336
g48
(g49
g50
NtRp3337
(dp3338
g53
(dp3339
g61
I3
ssg62
g3333
sg55
(lp3340
g48
(g57
g50
NtRp3341
(dp3342
g53
(dp3343
g61
I2
ssg62
Nsg55
(lp3344
g48
(g64
g50
NtRp3345
(dp3346
g53
(dp3347
sg62
g3341
sg55
(lp3348
g48
(g69
g50
NtRp3349
(dp3350
g53
(dp3351
sg62
g3345
sg55
(lp3352
g48
(g49
g50
NtRp3353
(dp3354
g53
(dp3355
g61
I2
ssg62
g3349
sg55
(lp3356
g48
(g57
g50
NtRp3357
(dp3358
g53
(dp3359
g61
I1
ssg62
Nsg55
(lp3360
g48
(g64
g50
NtRp3361
(dp3362
g53
(dp3363
sg62
g3357
sg55
(lp3364
g48
(g69
g50
NtRp3365
(dp3366
g53
(dp3367
sg62
g3361
sg55
(lp3368
g48
(g49
g50
NtRp3369
(dp3370
g53
(dp3371
g61
I1
ssg62
g3365
sg55
(lp3372
g3232
(S't\x0b\x00\x00\x00Controlador'
tRp3373
asbasbasbag48
(g64
g50
NtRp3374
(dp3375
g53
(dp3376
sg62
g3357
sg55
(lp3377
g48
(g69
g50
NtRp3378
(dp3379
g53
(dp3380
sg62
g3374
sg55
(lp3381
g48
(g49
g50
NtRp3382
(dp3383
g53
(dp3384
g61
I1
ssg62
g3378
sg55
(lp3385
I00
asbasbasbag48
(g64
g50
NtRp3386
(dp3387
g53
(dp3388
sg62
g3357
sg55
(lp3389
g48
(g69
g50
NtRp3390
(dp3391
g53
(dp3392
sg62
g3386
sg55
(lp3393
g48
(g49
g50
NtRp3394
(dp3395
g53
(dp3396
g61
I1
ssg62
g3390
sg55
(lp3397
S'/admin/default/edit/Desglosar_Emails/controllers/default.py'
p3398
asbasbasbasbasbasbasbag48
(g64
g50
NtRp3399
(dp3400
g53
(dp3401
sg62
g3341
sg55
(lp3402
g48
(g69
g50
NtRp3403
(dp3404
g53
(dp3405
sg62
g3399
sg55
(lp3406
g48
(g49
g50
NtRp3407
(dp3408
g53
(dp3409
g61
I2
ssg62
g3403
sg55
(lp3410
g48
(g57
g50
NtRp3411
(dp3412
g53
(dp3413
g61
I1
ssg62
Nsg55
(lp3414
g48
(g64
g50
NtRp3415
(dp3416
g53
(dp3417
sg62
g3411
sg55
(lp3418
g48
(g69
g50
NtRp3419
(dp3420
g53
(dp3421
sg62
g3415
sg55
(lp3422
g48
(g49
g50
NtRp3423
(dp3424
g53
(dp3425
g61
I1
ssg62
g3419
sg55
(lp3426
g3232
(S't\x05\x00\x00\x00Vista'
tRp3427
asbasbasbag48
(g64
g50
NtRp3428
(dp3429
g53
(dp3430
sg62
g3411
sg55
(lp3431
g48
(g69
g50
NtRp3432
(dp3433
g53
(dp3434
sg62
g3428
sg55
(lp3435
g48
(g49
g50
NtRp3436
(dp3437
g53
(dp3438
g61
I1
ssg62
g3432
sg55
(lp3439
I00
asbasbasbag48
(g64
g50
NtRp3440
(dp3441
g53
(dp3442
sg62
g3411
sg55
(lp3443
g48
(g69
g50
NtRp3444
(dp3445
g53
(dp3446
sg62
g3440
sg55
(lp3447
g48
(g49
g50
NtRp3448
(dp3449
g53
(dp3450
g61
I1
ssg62
g3444
sg55
(lp3451
S'/admin/default/edit/Desglosar_Emails/views/default/entrada_mod1.html'
p3452
asbasbasbasbasbasbasbag48
(g64
g50
NtRp3453
(dp3454
g53
(dp3455
sg62
g3341
sg55
(lp3456
g48
(g69
g50
NtRp3457
(dp3458
g53
(dp3459
sg62
g3453
sg55
(lp3460
g48
(g49
g50
NtRp3461
(dp3462
g53
(dp3463
g61
I2
ssg62
g3457
sg55
(lp3464
g48
(g57
g50
NtRp3465
(dp3466
g53
(dp3467
g61
I1
ssg62
Nsg55
(lp3468
g48
(g64
g50
NtRp3469
(dp3470
g53
(dp3471
sg62
g3465
sg55
(lp3472
g48
(g69
g50
NtRp3473
(dp3474
g53
(dp3475
sg62
g3469
sg55
(lp3476
g48
(g49
g50
NtRp3477
(dp3478
g53
(dp3479
g61
I1
ssg62
g3473
sg55
(lp3480
g3232
(S's\x12\x00\x00\x00Dise\xc3\xb1o de p\xc3\xa1gina'
tRp3481
asbasbasbag48
(g64
g50
NtRp3482
(dp3483
g53
(dp3484
sg62
g3465
sg55
(lp3485
g48
(g69
g50
NtRp3486
(dp3487
g53
(dp3488
sg62
g3482
sg55
(lp3489
g48
(g49
g50
NtRp3490
(dp3491
g53
(dp3492
g61
I1
ssg62
g3486
sg55
(lp3493
I00
asbasbasbag48
(g64
g50
NtRp3494
(dp3495
g53
(dp3496
sg62
g3465
sg55
(lp3497
g48
(g69
g50
NtRp3498
(dp3499
g53
(dp3500
sg62
g3494
sg55
(lp3501
g48
(g49
g50
NtRp3502
(dp3503
g53
(dp3504
g61
I1
ssg62
g3498
sg55
(lp3505
S'/admin/default/edit/Desglosar_Emails/views/layout.html'
p3506
asbasbasbasbasbasbasbag48
(g64
g50
NtRp3507
(dp3508
g53
(dp3509
sg62
g3341
sg55
(lp3510
g48
(g69
g50
NtRp3511
(dp3512
g53
(dp3513
sg62
g3507
sg55
(lp3514
g48
(g49
g50
NtRp3515
(dp3516
g53
(dp3517
g61
I2
ssg62
g3511
sg55
(lp3518
g48
(g57
g50
NtRp3519
(dp3520
g53
(dp3521
g61
I1
ssg62
Nsg55
(lp3522
g48
(g64
g50
NtRp3523
(dp3524
g53
(dp3525
sg62
g3519
sg55
(lp3526
g48
(g69
g50
NtRp3527
(dp3528
g53
(dp3529
sg62
g3523
sg55
(lp3530
g48
(g49
g50
NtRp3531
(dp3532
g53
(dp3533
g61
I1
ssg62
g3527
sg55
(lp3534
g3232
(S's\x0e\x00\x00\x00Hoja de estilo'
tRp3535
asbasbasbag48
(g64
g50
NtRp3536
(dp3537
g53
(dp3538
sg62
g3519
sg55
(lp3539
g48
(g69
g50
NtRp3540
(dp3541
g53
(dp3542
sg62
g3536
sg55
(lp3543
g48
(g49
g50
NtRp3544
(dp3545
g53
(dp3546
g61
I1
ssg62
g3540
sg55
(lp3547
I00
asbasbasbag48
(g64
g50
NtRp3548
(dp3549
g53
(dp3550
sg62
g3519
sg55
(lp3551
g48
(g69
g50
NtRp3552
(dp3553
g53
(dp3554
sg62
g3548
sg55
(lp3555
g48
(g49
g50
NtRp3556
(dp3557
g53
(dp3558
g61
I1
ssg62
g3552
sg55
(lp3559
S'/admin/default/edit/Desglosar_Emails/static/base.css'
p3560
asbasbasbasbasbasbasbag48
(g64
g50
NtRp3561
(dp3562
g53
(dp3563
sg62
g3341
sg55
(lp3564
g48
(g69
g50
NtRp3565
(dp3566
g53
(dp3567
sg62
g3561
sg55
(lp3568
g48
(g49
g50
NtRp3569
(dp3570
g53
(dp3571
g61
I2
ssg62
g3565
sg55
(lp3572
g48
(g57
g50
NtRp3573
(dp3574
g53
(dp3575
g61
I1
ssg62
Nsg55
(lp3576
g48
(g64
g50
NtRp3577
(dp3578
g53
(dp3579
sg62
g3573
sg55
(lp3580
g48
(g69
g50
NtRp3581
(dp3582
g53
(dp3583
sg62
g3577
sg55
(lp3584
g48
(g49
g50
NtRp3585
(dp3586
g53
(dp3587
g61
I1
ssg62
g3581
sg55
(lp3588
g3232
(S's\x0b\x00\x00\x00Modelo "db"'
tRp3589
asbasbasbag48
(g64
g50
NtRp3590
(dp3591
g53
(dp3592
sg62
g3573
sg55
(lp3593
g48
(g69
g50
NtRp3594
(dp3595
g53
(dp3596
sg62
g3590
sg55
(lp3597
g48
(g49
g50
NtRp3598
(dp3599
g53
(dp3600
g61
I1
ssg62
g3594
sg55
(lp3601
I00
asbasbasbag48
(g64
g50
NtRp3602
(dp3603
g53
(dp3604
sg62
g3573
sg55
(lp3605
g48
(g69
g50
NtRp3606
(dp3607
g53
(dp3608
sg62
g3602
sg55
(lp3609
g48
(g49
g50
NtRp3610
(dp3611
g53
(dp3612
g61
I1
ssg62
g3606
sg55
(lp3613
S'/admin/default/edit/Desglosar_Emails/models/db.py'
p3614
asbasbasbasbasbasbasbag48
(g64
g50
NtRp3615
(dp3616
g53
(dp3617
sg62
g3341
sg55
(lp3618
g48
(g69
g50
NtRp3619
(dp3620
g53
(dp3621
sg62
g3615
sg55
(lp3622
g48
(g49
g50
NtRp3623
(dp3624
g53
(dp3625
g61
I2
ssg62
g3619
sg55
(lp3626
g48
(g57
g50
NtRp3627
(dp3628
g53
(dp3629
g61
I1
ssg62
Nsg55
(lp3630
g48
(g64
g50
NtRp3631
(dp3632
g53
(dp3633
sg62
g3627
sg55
(lp3634
g48
(g69
g50
NtRp3635
(dp3636
g53
(dp3637
sg62
g3631
sg55
(lp3638
g48
(g49
g50
NtRp3639
(dp3640
g53
(dp3641
g61
I1
ssg62
g3635
sg55
(lp3642
g3232
(S's\r\x00\x00\x00Modelo "menu"'
tRp3643
asbasbasbag48
(g64
g50
NtRp3644
(dp3645
g53
(dp3646
sg62
g3627
sg55
(lp3647
g48
(g69
g50
NtRp3648
(dp3649
g53
(dp3650
sg62
g3644
sg55
(lp3651
g48
(g49
g50
NtRp3652
(dp3653
g53
(dp3654
g61
I1
ssg62
g3648
sg55
(lp3655
I00
asbasbasbag48
(g64
g50
NtRp3656
(dp3657
g53
(dp3658
sg62
g3627
sg55
(lp3659
g48
(g69
g50
NtRp3660
(dp3661
g53
(dp3662
sg62
g3656
sg55
(lp3663
g48
(g49
g50
NtRp3664
(dp3665
g53
(dp3666
g61
I1
ssg62
g3660
sg55
(lp3667
S'/admin/default/edit/Desglosar_Emails/models/menu.py'
p3668
asbasbasbasbasbasbasbag48
(g64
g50
NtRp3669
(dp3670
g53
(dp3671
sg62
g3341
sg55
(lp3672
g48
(g69
g50
NtRp3673
(dp3674
g53
(dp3675
sg62
g3669
sg55
(lp3676
g48
(g49
g50
NtRp3677
(dp3678
g53
(dp3679
g61
I2
ssg62
g3673
sg55
(lp3680
g48
(g57
g50
NtRp3681
(dp3682
g53
(dp3683
g61
I1
ssg62
Nsg55
(lp3684
g48
(g64
g50
NtRp3685
(dp3686
g53
(dp3687
sg62
g3681
sg55
(lp3688
g48
(g69
g50
NtRp3689
(dp3690
g53
(dp3691
sg62
g3685
sg55
(lp3692
g48
(g49
g50
NtRp3693
(dp3694
g53
(dp3695
g61
I1
ssg62
g3689
sg55
(lp3696
g3232
(S's\r\x00\x00\x00Base de datos'
tRp3697
asbasbasbag48
(g64
g50
NtRp3698
(dp3699
g53
(dp3700
sg62
g3681
sg55
(lp3701
g48
(g69
g50
NtRp3702
(dp3703
g53
(dp3704
sg62
g3698
sg55
(lp3705
g48
(g49
g50
NtRp3706
(dp3707
g53
(dp3708
g61
I1
ssg62
g3702
sg55
(lp3709
I00
asbasbasbag48
(g64
g50
NtRp3710
(dp3711
g53
(dp3712
sg62
g3681
sg55
(lp3713
g48
(g69
g50
NtRp3714
(dp3715
g53
(dp3716
sg62
g3710
sg55
(lp3717
g48
(g49
g50
NtRp3718
(dp3719
g53
(dp3720
g61
I1
ssg62
g3714
sg55
(lp3721
S'/Desglosar_Emails/appadmin/index'
p3722
asbasbasbasbasbasbasbag48
(g64
g50
NtRp3723
(dp3724
g53
(dp3725
sg62
g3341
sg55
(lp3726
g48
(g69
g50
NtRp3727
(dp3728
g53
(dp3729
sg62
g3723
sg55
(lp3730
g48
(g49
g50
NtRp3731
(dp3732
g53
(dp3733
g61
I2
ssg62
g3727
sg55
(lp3734
g48
(g57
g50
NtRp3735
(dp3736
g53
(dp3737
g61
I1
ssg62
Nsg55
(lp3738
g48
(g64
g50
NtRp3739
(dp3740
g53
(dp3741
sg62
g3735
sg55
(lp3742
g48
(g69
g50
NtRp3743
(dp3744
g53
(dp3745
sg62
g3739
sg55
(lp3746
g48
(g49
g50
NtRp3747
(dp3748
g53
(dp3749
g61
I1
ssg62
g3743
sg55
(lp3750
g3232
(S't\x06\x00\x00\x00Errors'
tRp3751
asbasbasbag48
(g64
g50
NtRp3752
(dp3753
g53
(dp3754
sg62
g3735
sg55
(lp3755
g48
(g69
g50
NtRp3756
(dp3757
g53
(dp3758
sg62
g3752
sg55
(lp3759
g48
(g49
g50
NtRp3760
(dp3761
g53
(dp3762
g61
I1
ssg62
g3756
sg55
(lp3763
I00
asbasbasbag48
(g64
g50
NtRp3764
(dp3765
g53
(dp3766
sg62
g3735
sg55
(lp3767
g48
(g69
g50
NtRp3768
(dp3769
g53
(dp3770
sg62
g3764
sg55
(lp3771
g48
(g49
g50
NtRp3772
(dp3773
g53
(dp3774
g61
I1
ssg62
g3768
sg55
(lp3775
S'/admin/default/errors/Desglosar_Emails'
p3776
asbasbasbasbasbasbasbag48
(g64
g50
NtRp3777
(dp3778
g53
(dp3779
sg62
g3341
sg55
(lp3780
g48
(g69
g50
NtRp3781
(dp3782
g53
(dp3783
sg62
g3777
sg55
(lp3784
g48
(g49
g50
NtRp3785
(dp3786
g53
(dp3787
g61
I2
ssg62
g3781
sg55
(lp3788
g48
(g57
g50
NtRp3789
(dp3790
g53
(dp3791
g61
I1
ssg62
Nsg55
(lp3792
g48
(g64
g50
NtRp3793
(dp3794
g53
(dp3795
sg62
g3789
sg55
(lp3796
g48
(g69
g50
NtRp3797
(dp3798
g53
(dp3799
sg62
g3793
sg55
(lp3800
g48
(g49
g50
NtRp3801
(dp3802
g53
(dp3803
g61
I1
ssg62
g3797
sg55
(lp3804
g3232
(S's\t\x00\x00\x00Acerca de'
tRp3805
asbasbasbag48
(g64
g50
NtRp3806
(dp3807
g53
(dp3808
sg62
g3789
sg55
(lp3809
g48
(g69
g50
NtRp3810
(dp3811
g53
(dp3812
sg62
g3806
sg55
(lp3813
g48
(g49
g50
NtRp3814
(dp3815
g53
(dp3816
g61
I1
ssg62
g3810
sg55
(lp3817
I00
asbasbasbag48
(g64
g50
NtRp3818
(dp3819
g53
(dp3820
sg62
g3789
sg55
(lp3821
g48
(g69
g50
NtRp3822
(dp3823
g53
(dp3824
sg62
g3818
sg55
(lp3825
g48
(g49
g50
NtRp3826
(dp3827
g53
(dp3828
g61
I1
ssg62
g3822
sg55
(lp3829
S'/admin/default/about/Desglosar_Emails'
p3830
asbasbasbasbasbasbasbasbasbasbasbasbasbasbasbag48
(g64
g50
NtRp3831
(dp3832
g53
(dp3833
sg62
g3200
sg55
(lp3834
g48
(g69
g50
NtRp3835
(dp3836
g53
(dp3837
sg62
g3831
sg55
(lp3838
g48
(g49
g50
NtRp3839
(dp3840
g53
(dp3841
g61
I4
ssg62
g3835
sg55
(lp3842
g48
(g57
g50
NtRp3843
(dp3844
g53
(dp3845
g61
I3
ssg62
Nsg55
(lp3846
g48
(g64
g50
NtRp3847
(dp3848
g53
(dp3849
sg62
g3843
sg55
(lp3850
g48
(g69
g50
NtRp3851
(dp3852
g53
(dp3853
sg62
g3847
sg55
(lp3854
g48
(g49
g50
NtRp3855
(dp3856
g53
(dp3857
g61
I3
ssg62
g3851
sg55
(lp3858
g3232
(S't\t\x00\x00\x00Resources'
tRp3859
asbasbasbag48
(g64
g50
NtRp3860
(dp3861
g53
(dp3862
sg62
g3843
sg55
(lp3863
g48
(g69
g50
NtRp3864
(dp3865
g53
(dp3866
sg62
g3860
sg55
(lp3867
g48
(g49
g50
NtRp3868
(dp3869
g53
(dp3870
g61
I3
ssg62
g3864
sg55
(lp3871
g91
asbasbasbag48
(g64
g50
NtRp3872
(dp3873
g53
(dp3874
sg62
g3843
sg55
(lp3875
g48
(g69
g50
NtRp3876
(dp3877
g53
(dp3878
sg62
g3872
sg55
(lp3879
g48
(g49
g50
NtRp3880
(dp3881
g53
(dp3882
g61
I3
ssg62
g3876
sg55
(lp3883
S'None'
p3884
asbasbasbag48
(g64
g50
NtRp3885
(dp3886
g53
(dp3887
sg62
g3843
sg55
(lp3888
g48
(g69
g50
NtRp3889
(dp3890
g53
(dp3891
sg62
g3885
sg55
(lp3892
g48
(g49
g50
NtRp3893
(dp3894
g53
(dp3895
g61
I3
ssg62
g3889
sg55
(lp3896
g48
(g57
g50
NtRp3897
(dp3898
g53
(dp3899
g61
I2
ssg62
Nsg55
(lp3900
g48
(g64
g50
NtRp3901
(dp3902
g53
(dp3903
sg62
g3897
sg55
(lp3904
g48
(g69
g50
NtRp3905
(dp3906
g53
(dp3907
sg62
g3901
sg55
(lp3908
g48
(g49
g50
NtRp3909
(dp3910
g53
(dp3911
g61
I2
ssg62
g3905
sg55
(lp3912
g48
(g57
g50
NtRp3913
(dp3914
g53
(dp3915
g61
I1
ssg62
Nsg55
(lp3916
g48
(g64
g50
NtRp3917
(dp3918
g53
(dp3919
sg62
g3913
sg55
(lp3920
g48
(g69
g50
NtRp3921
(dp3922
g53
(dp3923
sg62
g3917
sg55
(lp3924
g48
(g49
g50
NtRp3925
(dp3926
g53
(dp3927
g61
I1
ssg62
g3921
sg55
(lp3928
g3232
(S's\x0e\x00\x00\x00Documentaci\xc3\xb3n'
tRp3929
asbasbasbag48
(g64
g50
NtRp3930
(dp3931
g53
(dp3932
sg62
g3913
sg55
(lp3933
g48
(g69
g50
NtRp3934
(dp3935
g53
(dp3936
sg62
g3930
sg55
(lp3937
g48
(g49
g50
NtRp3938
(dp3939
g53
(dp3940
g61
I1
ssg62
g3934
sg55
(lp3941
I00
asbasbasbag48
(g64
g50
NtRp3942
(dp3943
g53
(dp3944
sg62
g3913
sg55
(lp3945
g48
(g69
g50
NtRp3946
(dp3947
g53
(dp3948
sg62
g3942
sg55
(lp3949
g48
(g49
g50
NtRp3950
(dp3951
g53
(dp3952
g61
I1
ssg62
g3946
sg55
(lp3953
S'http://www.web2py.com/book'
p3954
asbasbasbag48
(g64
g50
NtRp3955
(dp3956
g53
(dp3957
sg62
g3913
sg55
(lp3958
g48
(g69
g50
NtRp3959
(dp3960
g53
(dp3961
sg62
g3955
sg55
(lp3962
g48
(g49
g50
NtRp3963
(dp3964
g53
(dp3965
g61
I1
ssg62
g3959
sg55
(lp3966
(lp3967
(g3232
(S't\x07\x00\x00\x00Preface'
tRp3968
I00
S'http://www.web2py.com/book/default/chapter/00'
tp3969
a(g3232
(S't\x0c\x00\x00\x00Introduction'
tRp3970
I00
S'http://www.web2py.com/book/default/chapter/01'
tp3971
a(g3232
(S't\x06\x00\x00\x00Python'
tRp3972
I00
S'http://www.web2py.com/book/default/chapter/02'
tp3973
a(g3232
(S't\x08\x00\x00\x00Overview'
tRp3974
I00
S'http://www.web2py.com/book/default/chapter/03'
tp3975
a(g3232
(S's\x08\x00\x00\x00The Core'
tRp3976
I00
S'http://www.web2py.com/book/default/chapter/04'
tp3977
a(g3232
(S's\t\x00\x00\x00The Views'
tRp3978
I00
S'http://www.web2py.com/book/default/chapter/05'
tp3979
a(g3232
(S's\r\x00\x00\x00Base de datos'
tRp3980
I00
S'http://www.web2py.com/book/default/chapter/06'
tp3981
a(g3232
(S's\x14\x00\x00\x00Forms and Validators'
tRp3982
I00
S'http://www.web2py.com/book/default/chapter/07'
tp3983
a(g3232
(S's\x0e\x00\x00\x00Access Control'
tRp3984
I00
S'http://www.web2py.com/book/default/chapter/08'
tp3985
a(g3232
(S't\x08\x00\x00\x00Services'
tRp3986
I00
S'http://www.web2py.com/book/default/chapter/09'
tp3987
a(g3232
(S's\x0c\x00\x00\x00Ajax Recipes'
tRp3988
I00
S'http://www.web2py.com/book/default/chapter/10'
tp3989
a(g3232
(S's\x12\x00\x00\x00Deployment Recipes'
tRp3990
I00
S'http://www.web2py.com/book/default/chapter/11'
tp3991
a(g3232
(S's\r\x00\x00\x00Other Recipes'
tRp3992
I00
S'http://www.web2py.com/book/default/chapter/12'
tp3993
a(g3232
(S's\r\x00\x00\x00Buy this book'
tRp3994
I00
S'http://stores.lulu.com/web2py'
tp3995
aasbasbasbasbasbasbasbag48
(g64
g50
NtRp3996
(dp3997
g53
(dp3998
sg62
g3897
sg55
(lp3999
g48
(g69
g50
NtRp4000
(dp4001
g53
(dp4002
sg62
g3996
sg55
(lp4003
g48
(g49
g50
NtRp4004
(dp4005
g53
(dp4006
g61
I2
ssg62
g4000
sg55
(lp4007
g48
(g57
g50
NtRp4008
(dp4009
g53
(dp4010
g61
I1
ssg62
Nsg55
(lp4011
g48
(g64
g50
NtRp4012
(dp4013
g53
(dp4014
sg62
g4008
sg55
(lp4015
g48
(g69
g50
NtRp4016
(dp4017
g53
(dp4018
sg62
g4012
sg55
(lp4019
g48
(g49
g50
NtRp4020
(dp4021
g53
(dp4022
g61
I1
ssg62
g4016
sg55
(lp4023
g3232
(S't\t\x00\x00\x00Community'
tRp4024
asbasbasbag48
(g64
g50
NtRp4025
(dp4026
g53
(dp4027
sg62
g4008
sg55
(lp4028
g48
(g69
g50
NtRp4029
(dp4030
g53
(dp4031
sg62
g4025
sg55
(lp4032
g48
(g49
g50
NtRp4033
(dp4034
g53
(dp4035
g61
I1
ssg62
g4029
sg55
(lp4036
I00
asbasbasbag48
(g64
g50
NtRp4037
(dp4038
g53
(dp4039
sg62
g4008
sg55
(lp4040
g48
(g69
g50
NtRp4041
(dp4042
g53
(dp4043
sg62
g4037
sg55
(lp4044
g48
(g49
g50
NtRp4045
(dp4046
g53
(dp4047
g61
I1
ssg62
g4041
sg55
(lp4048
Nasbasbasbag48
(g64
g50
NtRp4049
(dp4050
g53
(dp4051
sg62
g4008
sg55
(lp4052
g48
(g69
g50
NtRp4053
(dp4054
g53
(dp4055
sg62
g4049
sg55
(lp4056
g48
(g49
g50
NtRp4057
(dp4058
g53
(dp4059
g61
I1
ssg62
g4053
sg55
(lp4060
(lp4061
(g3232
(S't\x06\x00\x00\x00Groups'
tRp4062
I00
S'http://www.web2py.com/examples/default/usergroups'
tp4063
a(g3232
(S't\x07\x00\x00\x00Twitter'
tRp4064
I00
S'http://twitter.com/web2py'
tp4065
a(g3232
(S's\t\x00\x00\x00Live chat'
tRp4066
I00
S'http://mibbit.com/?channel=%23web2py&server=irc.mibbit.net'
tp4067
a(g3232
(S's\n\x00\x00\x00User Voice'
tRp4068
I00
S'http://web2py.uservoice.com/'
tp4069
aasbasbasbasbasbasbasbag48
(g64
g50
NtRp4070
(dp4071
g53
(dp4072
sg62
g3897
sg55
(lp4073
g48
(g69
g50
NtRp4074
(dp4075
g53
(dp4076
sg62
g4070
sg55
(lp4077
g48
(g49
g50
NtRp4078
(dp4079
g53
(dp4080
g61
I2
ssg62
g4074
sg55
(lp4081
g48
(g57
g50
NtRp4082
(dp4083
g53
(dp4084
g61
I1
ssg62
Nsg55
(lp4085
g48
(g64
g50
NtRp4086
(dp4087
g53
(dp4088
sg62
g4082
sg55
(lp4089
g48
(g69
g50
NtRp4090
(dp4091
g53
(dp4092
sg62
g4086
sg55
(lp4093
g48
(g49
g50
NtRp4094
(dp4095
g53
(dp4096
g61
I1
ssg62
g4090
sg55
(lp4097
g3232
(S't\x06\x00\x00\x00Web2py'
tRp4098
asbasbasbag48
(g64
g50
NtRp4099
(dp4100
g53
(dp4101
sg62
g4082
sg55
(lp4102
g48
(g69
g50
NtRp4103
(dp4104
g53
(dp4105
sg62
g4099
sg55
(lp4106
g48
(g49
g50
NtRp4107
(dp4108
g53
(dp4109
g61
I1
ssg62
g4103
sg55
(lp4110
I00
asbasbasbag48
(g64
g50
NtRp4111
(dp4112
g53
(dp4113
sg62
g4082
sg55
(lp4114
g48
(g69
g50
NtRp4115
(dp4116
g53
(dp4117
sg62
g4111
sg55
(lp4118
g48
(g49
g50
NtRp4119
(dp4120
g53
(dp4121
g61
I1
ssg62
g4115
sg55
(lp4122
S'http://www.web2py.com'
p4123
asbasbasbag48
(g64
g50
NtRp4124
(dp4125
g53
(dp4126
sg62
g4082
sg55
(lp4127
g48
(g69
g50
NtRp4128
(dp4129
g53
(dp4130
sg62
g4124
sg55
(lp4131
g48
(g49
g50
NtRp4132
(dp4133
g53
(dp4134
g61
I1
ssg62
g4128
sg55
(lp4135
(lp4136
(g3232
(S't\x08\x00\x00\x00Download'
tRp4137
I00
S'http://www.web2py.com/examples/default/download'
tp4138
a(g3232
(S't\x07\x00\x00\x00Support'
tRp4139
I00
S'http://www.web2py.com/examples/default/support'
tp4140
a(g3232
(S's\x0e\x00\x00\x00Quick Examples'
tRp4141
I00
S'http://web2py.com/examples/default/examples'
tp4142
a(g3232
(S't\x03\x00\x00\x00FAQ'
tRp4143
I00
S'http://web2py.com/AlterEgo'
tp4144
a(g3232
(S's\x11\x00\x00\x00Free Applications'
tRp4145
I00
S'http://web2py.com/appliances'
tp4146
a(g3232
(S't\x07\x00\x00\x00Plugins'
tRp4147
I00
S'http://web2py.com/plugins'
tp4148
a(g3232
(S't\x07\x00\x00\x00Recipes'
tRp4149
I00
S'http://web2pyslices.com/'
tp4150
a(g3232
(S't\x04\x00\x00\x00Demo'
tRp4151
I00
S'http://web2py.com/demo_admin'
tp4152
a(g3232
(S't\x08\x00\x00\x00Semantic'
tRp4153
I00
S'http://web2py.com/semantic'
tp4154
a(g3232
(S't\x07\x00\x00\x00Layouts'
tRp4155
I00
S'http://web2py.com/layouts'
tp4156
a(g3232
(S't\x06\x00\x00\x00Videos'
tRp4157
I00
S'http://www.web2py.com/examples/default/videos/'
tp4158
aasbasbasbasbasbasbasbasbasbasbasbasbasbasbasbasbasbasbasbag48
(g64
g50
NtRp4159
(dp4160
g53
(dp4161
sg62
g2759
sg55
(lp4162
g48
(g69
g50
NtRp4163
(dp4164
g53
(dp4165
g73
g74
ssg62
g4159
sg55
(lp4166
S'meta'
p4167
asbag48
(g69
g50
NtRp4168
(dp4169
g53
(dp4170
g80
g81
ssg62
g4159
sg55
(lp4171
S':'
asbag48
(g69
g50
NtRp4172
(dp4173
g53
(dp4174
sg62
g4159
sg55
(lp4175
g48
(g49
g50
NtRp4176
(dp4177
g53
(dp4178
g61
I5
ssg62
g4172
sg55
(lp4179
g48
(g57
g50
NtRp4180
(dp4181
g53
(dp4182
g61
I4
ssg62
Nsg55
(lp4183
g48
(g64
g50
NtRp4184
(dp4185
g53
(dp4186
sg62
g4180
sg55
(lp4187
g48
(g69
g50
NtRp4188
(dp4189
g53
(dp4190
g73
g74
ssg62
g4184
sg55
(lp4191
S'author'
p4192
asbag48
(g69
g50
NtRp4193
(dp4194
g53
(dp4195
g80
g81
ssg62
g4184
sg55
(lp4196
S':'
asbag48
(g69
g50
NtRp4197
(dp4198
g53
(dp4199
sg62
g4184
sg55
(lp4200
g48
(g49
g50
NtRp4201
(dp4202
g53
(dp4203
g61
I4
ssg62
g4197
sg55
(lp4204
S'you'
p4205
asbasbasbag48
(g64
g50
NtRp4206
(dp4207
g53
(dp4208
sg62
g4180
sg55
(lp4209
g48
(g69
g50
NtRp4210
(dp4211
g53
(dp4212
g73
g74
ssg62
g4206
sg55
(lp4213
S'copyright'
p4214
asbag48
(g69
g50
NtRp4215
(dp4216
g53
(dp4217
g80
g81
ssg62
g4206
sg55
(lp4218
S':'
asbag48
(g69
g50
NtRp4219
(dp4220
g53
(dp4221
sg62
g4206
sg55
(lp4222
g48
(g49
g50
NtRp4223
(dp4224
g53
(dp4225
g61
I4
ssg62
g4219
sg55
(lp4226
S'Copyright 2007-2010'
p4227
asbasbasbag48
(g64
g50
NtRp4228
(dp4229
g53
(dp4230
sg62
g4180
sg55
(lp4231
g48
(g69
g50
NtRp4232
(dp4233
g53
(dp4234
g73
g74
ssg62
g4228
sg55
(lp4235
S'description'
p4236
asbag48
(g69
g50
NtRp4237
(dp4238
g53
(dp4239
g80
g81
ssg62
g4228
sg55
(lp4240
S':'
asbag48
(g69
g50
NtRp4241
(dp4242
g53
(dp4243
sg62
g4228
sg55
(lp4244
g48
(g49
g50
NtRp4245
(dp4246
g53
(dp4247
g61
I4
ssg62
g4241
sg55
(lp4248
S'Free and open source full-stack enterprise framework for agile development of fast, scalable, secure and portable database-driven web-based applications. Written and programmable in Python'
p4249
asbasbasbag48
(g64
g50
NtRp4250
(dp4251
g53
(dp4252
sg62
g4180
sg55
(lp4253
g48
(g69
g50
NtRp4254
(dp4255
g53
(dp4256
g73
g74
ssg62
g4250
sg55
(lp4257
S'generator'
p4258
asbag48
(g69
g50
NtRp4259
(dp4260
g53
(dp4261
g80
g81
ssg62
g4250
sg55
(lp4262
S':'
asbag48
(g69
g50
NtRp4263
(dp4264
g53
(dp4265
sg62
g4250
sg55
(lp4266
g48
(g49
g50
NtRp4267
(dp4268
g53
(dp4269
g61
I4
ssg62
g4263
sg55
(lp4270
S'Web2py Enterprise Framework'
p4271
asbasbasbag48
(g64
g50
NtRp4272
(dp4273
g53
(dp4274
sg62
g4180
sg55
(lp4275
g48
(g69
g50
NtRp4276
(dp4277
g53
(dp4278
g73
g74
ssg62
g4272
sg55
(lp4279
S'keywords'
p4280
asbag48
(g69
g50
NtRp4281
(dp4282
g53
(dp4283
g80
g81
ssg62
g4272
sg55
(lp4284
S':'
asbag48
(g69
g50
NtRp4285
(dp4286
g53
(dp4287
sg62
g4272
sg55
(lp4288
g48
(g49
g50
NtRp4289
(dp4290
g53
(dp4291
g61
I4
ssg62
g4285
sg55
(lp4292
S'web2py, python, framework'
p4293
asbasbasbasbasbasbasbag48
(g64
g50
NtRp4294
(dp4295
g53
(dp4296
sg62
g2759
sg55
(lp4297
g48
(g69
g50
NtRp4298
(dp4299
g53
(dp4300
g73
g74
ssg62
g4294
sg55
(lp4301
S'postprocessing'
p4302
asbag48
(g69
g50
NtRp4303
(dp4304
g53
(dp4305
g80
g81
ssg62
g4294
sg55
(lp4306
S':'
asbag48
(g69
g50
NtRp4307
(dp4308
g53
(dp4309
sg62
g4294
sg55
(lp4310
g48
(g49
g50
NtRp4311
(dp4312
g53
(dp4313
g61
I5
ssg62
g4307
sg55
(lp4314
g48
(g57
g50
NtRp4315
(dp4316
g53
(dp4317
g61
I4
ssg62
Nsg55
(lp4318
sbasbasbasbag48
(g64
g50
NtRp4319
(dp4320
g53
(dp4321
sg62
g2759
sg55
(lp4322
g48
(g69
g50
NtRp4323
(dp4324
g53
(dp4325
g73
g74
ssg62
g4319
sg55
(lp4326
S'session_file'
p4327
asbag48
(g69
g50
NtRp4328
(dp4329
g53
(dp4330
g80
g81
ssg62
g4319
sg55
(lp4331
S':'
asbag48
(g69
g50
NtRp4332
(dp4333
g53
(dp4334
sg62
g4319
sg55
(lp4335
g48
(g49
g50
NtRp4336
(dp4337
g53
(dp4338
g61
I5
ssg62
g4332
sg55
(lp4339
S"<open file 'C:\\Users\\Atomico\\web2py\\applications\\Desglosar_Emails\\sessions\\127.0.0.1-0a11b3b2-660c-433c-b71f-fc129286f26c', mode 'rb+' at 0x07F05380>"
p4340
asbasbasbag48
(g64
g50
NtRp4341
(dp4342
g53
(dp4343
sg62
g2759
sg55
(lp4344
g48
(g69
g50
NtRp4345
(dp4346
g53
(dp4347
g73
g74
ssg62
g4341
sg55
(lp4348
S'session_filename'
p4349
asbag48
(g69
g50
NtRp4350
(dp4351
g53
(dp4352
g80
g81
ssg62
g4341
sg55
(lp4353
S':'
asbag48
(g69
g50
NtRp4354
(dp4355
g53
(dp4356
sg62
g4341
sg55
(lp4357
g48
(g49
g50
NtRp4358
(dp4359
g53
(dp4360
g61
I5
ssg62
g4354
sg55
(lp4361
S'C:\\Users\\Atomico\\web2py\\applications\\Desglosar_Emails\\sessions\\127.0.0.1-0a11b3b2-660c-433c-b71f-fc129286f26c'
p4362
asbasbasbag48
(g64
g50
NtRp4363
(dp4364
g53
(dp4365
sg62
g2759
sg55
(lp4366
g48
(g69
g50
NtRp4367
(dp4368
g53
(dp4369
g73
g74
ssg62
g4363
sg55
(lp4370
S'session_id'
p4371
asbag48
(g69
g50
NtRp4372
(dp4373
g53
(dp4374
g80
g81
ssg62
g4363
sg55
(lp4375
S':'
asbag48
(g69
g50
NtRp4376
(dp4377
g53
(dp4378
sg62
g4363
sg55
(lp4379
g48
(g49
g50
NtRp4380
(dp4381
g53
(dp4382
g61
I5
ssg62
g4376
sg55
(lp4383
S'127.0.0.1-0a11b3b2-660c-433c-b71f-fc129286f26c'
p4384
asbasbasbag48
(g64
g50
NtRp4385
(dp4386
g53
(dp4387
sg62
g2759
sg55
(lp4388
g48
(g69
g50
NtRp4389
(dp4390
g53
(dp4391
g73
g74
ssg62
g4385
sg55
(lp4392
S'session_id_name'
p4393
asbag48
(g69
g50
NtRp4394
(dp4395
g53
(dp4396
g80
g81
ssg62
g4385
sg55
(lp4397
S':'
asbag48
(g69
g50
NtRp4398
(dp4399
g53
(dp4400
sg62
g4385
sg55
(lp4401
g48
(g49
g50
NtRp4402
(dp4403
g53
(dp4404
g61
I5
ssg62
g4398
sg55
(lp4405
g2816
asbasbasbag48
(g64
g50
NtRp4406
(dp4407
g53
(dp4408
sg62
g2759
sg55
(lp4409
g48
(g69
g50
NtRp4410
(dp4411
g53
(dp4412
g73
g74
ssg62
g4406
sg55
(lp4413
S'session_locked'
p4414
asbag48
(g69
g50
NtRp4415
(dp4416
g53
(dp4417
g80
g81
ssg62
g4406
sg55
(lp4418
S':'
asbag48
(g69
g50
NtRp4419
(dp4420
g53
(dp4421
sg62
g4406
sg55
(lp4422
g48
(g49
g50
NtRp4423
(dp4424
g53
(dp4425
g61
I5
ssg62
g4419
sg55
(lp4426
g1686
asbasbasbag48
(g64
g50
NtRp4427
(dp4428
g53
(dp4429
sg62
g2759
sg55
(lp4430
g48
(g69
g50
NtRp4431
(dp4432
g53
(dp4433
g73
g74
ssg62
g4427
sg55
(lp4434
S'session_new'
p4435
asbag48
(g69
g50
NtRp4436
(dp4437
g53
(dp4438
g80
g81
ssg62
g4427
sg55
(lp4439
S':'
asbag48
(g69
g50
NtRp4440
(dp4441
g53
(dp4442
sg62
g4427
sg55
(lp4443
g48
(g49
g50
NtRp4444
(dp4445
g53
(dp4446
g61
I5
ssg62
g4440
sg55
(lp4447
g91
asbasbasbag48
(g64
g50
NtRp4448
(dp4449
g53
(dp4450
sg62
g2759
sg55
(lp4451
g48
(g69
g50
NtRp4452
(dp4453
g53
(dp4454
g73
g74
ssg62
g4448
sg55
(lp4455
S'status'
p4456
asbag48
(g69
g50
NtRp4457
(dp4458
g53
(dp4459
g80
g81
ssg62
g4448
sg55
(lp4460
S':'
asbag48
(g69
g50
NtRp4461
(dp4462
g53
(dp4463
sg62
g4448
sg55
(lp4464
g48
(g49
g50
NtRp4465
(dp4466
g53
(dp4467
g61
I5
ssg62
g4461
sg55
(lp4468
S'200'
p4469
asbasbasbag48
(g64
g50
NtRp4470
(dp4471
g53
(dp4472
sg62
g2759
sg55
(lp4473
g48
(g69
g50
NtRp4474
(dp4475
g53
(dp4476
g73
g74
ssg62
g4470
sg55
(lp4477
S'subtitle'
p4478
asbag48
(g69
g50
NtRp4479
(dp4480
g53
(dp4481
g80
g81
ssg62
g4470
sg55
(lp4482
S':'
asbag48
(g69
g50
NtRp4483
(dp4484
g53
(dp4485
sg62
g4470
sg55
(lp4486
g48
(g49
g50
NtRp4487
(dp4488
g53
(dp4489
g61
I5
ssg62
g4483
sg55
(lp4490
g3232
(S's\t\x00\x00\x00Adaptame!'
tRp4491
asbasbasbag48
(g64
g50
NtRp4492
(dp4493
g53
(dp4494
sg62
g2759
sg55
(lp4495
g48
(g69
g50
NtRp4496
(dp4497
g53
(dp4498
g73
g74
ssg62
g4492
sg55
(lp4499
S'title'
p4500
asbag48
(g69
g50
NtRp4501
(dp4502
g53
(dp4503
g80
g81
ssg62
g4492
sg55
(lp4504
S':'
asbag48
(g69
g50
NtRp4505
(dp4506
g53
(dp4507
sg62
g4492
sg55
(lp4508
g48
(g49
g50
NtRp4509
(dp4510
g53
(dp4511
g61
I5
ssg62
g4505
sg55
(lp4512
g113
asbasbasbag48
(g64
g50
NtRp4513
(dp4514
g53
(dp4515
sg62
g2759
sg55
(lp4516
g48
(g69
g50
NtRp4517
(dp4518
g53
(dp4519
g73
g74
ssg62
g4513
sg55
(lp4520
g2010
asbag48
(g69
g50
NtRp4521
(dp4522
g53
(dp4523
g80
g81
ssg62
g4513
sg55
(lp4524
S':'
asbag48
(g69
g50
NtRp4525
(dp4526
g53
(dp4527
sg62
g4513
sg55
(lp4528
g48
(g49
g50
NtRp4529
(dp4530
g53
(dp4531
g61
I5
ssg62
g4525
sg55
(lp4532
g2023
asbasbasbag48
(g64
g50
NtRp4533
(dp4534
g53
(dp4535
sg62
g2759
sg55
(lp4536
g48
(g69
g50
NtRp4537
(dp4538
g53
(dp4539
g73
g74
ssg62
g4533
sg55
(lp4540
S'view'
p4541
asbag48
(g69
g50
NtRp4542
(dp4543
g53
(dp4544
g80
g81
ssg62
g4533
sg55
(lp4545
S':'
asbag48
(g69
g50
NtRp4546
(dp4547
g53
(dp4548
sg62
g4533
sg55
(lp4549
g48
(g49
g50
NtRp4550
(dp4551
g53
(dp4552
g61
I5
ssg62
g4546
sg55
(lp4553
S'default/entrada_mod1.html'
p4554
asbasbasbasbasbsS'locals'
p4555
(dp4556
S'form'
p4557
S'<gluon.sqlhtml.SQLFORM object at 0x07EDB490>'
p4558
sssS'traceback'
p4559
S'Traceback (most recent call last):\n  File "gluon/restricted.py", line 192, in restricted\n  File "C:\\Users\\Atomico\\web2py\\applications\\Desglosar_Emails\\controllers/default.py", line 42, in <module>\n  File "gluon/globals.py", line 145, in <lambda>\n  File "C:\\Users\\Atomico\\web2py\\applications\\Desglosar_Emails\\controllers/default.py", line 39, in entrada_mod1\nTypeError: object of type \'Field\' has no len()\n'
p4560
s.