(dp1
S'output'
p2
S''
sS'layer'
p3
S'C:\\Users\\Atomico\\web2py\\applications\\Desglosar_Emails\\views\\default/entrada_mod3.html'
p4
sS'code'
p5
S'response.write(\'<!DOCTYPE html>\\n<html lang="\', escape=False)\nresponse.write(T.accepted_language or \'en\')\nresponse.write(\'" class="no-js"><!-- no-js need it for modernzr -->\\n  <head>\\n    \\n    <meta charset="utf-8" />\\t  \\t\\n    <!-- www.phpied.com/conditional-comments-block-downloads/ -->\\n    <!--[if IE]><![endif]-->    \\n    <!-- Always force latest IE rendering engine \\n\\t (even in intranet) & Chrome Frame \\n\\t Remove this if you use the .htaccess -->\\n    <meta http-equiv="X-UA-Compatible" content="IE=edge,chrome=1">\\n    \\n    <title>\', escape=False)\nresponse.write(response.title or request.application)\nresponse.write(\'</title>\\n    \\n    <!-- http://dev.w3.org/html5/markup/meta.name.html -->\\n    <meta name="application-name" content="\', escape=False)\nresponse.write(request.application)\nresponse.write(\'" />\\t\\n    \\n    <!-- Speaking of Google, don\\\'t forget to set your site up: \\n\\t http://google.com/webmasters -->\\n    <meta name="google-site-verification" content="" />\\n    \\n    <!--  Mobile Viewport Fix\\n\\t  j.mp/mobileviewport & davidbcalhoun.com/2010/viewport-metatag \\n\\t  device-width: Occupy full width of the screen in its current orientation\\n\\t  initial-scale = 1.0 retains dimensions instead of zooming out if page height > device height\\n\\t  maximum-scale = 1.0 retains dimensions instead of zooming in if page width < device width\\n      -->\\n    <meta name="viewport" content="width=device-width, initial-scale=1.0, maximum-scale=1.0">\\n    \\n    <!-- Place favicon.ico and apple-touch-icon.png in the root of your domain and delete these references -->\\n    <link rel="shortcut icon" href="\', escape=False)\nresponse.write(URL(\'static\',\'favicon.ico\'))\nresponse.write(\'" type="image/x-icon">\\n    <link rel="apple-touch-icon" href="\', escape=False)\nresponse.write(URL(\'static\',\'favicon.png\'))\nresponse.write(\'">\\n\\n    <!-- For the less-enabled mobile browsers like Opera Mini -->\\n    <link rel="stylesheet" media="handheld" href="\', escape=False)\nresponse.write(URL(\'static\',\'css/handheld.css\'))\nresponse.write(\'">\\n    \\n    <!-- All JavaScript at the bottom, except for Modernizr which enables HTML5 elements & feature detects -->\\n    <script src="\', escape=False)\nresponse.write(URL(\'static\',\'js/modernizr-1.7.min.js\'))\nresponse.write(\'"></script>\\n    \\n    \', escape=False)\n#------  require CSS and JS files for this page (read info in base.css) ------\nresponse.write(\'\\n    \', escape=False)\nresponse.files.append(URL(\'static\',\'css/base.css\'))\nresponse.write(\'\\n    \', escape=False)\nresponse.files.append(URL(\'static\',\'css/superfish.css\'))\nresponse.write(\'\\n    \', escape=False)\nresponse.files.append(URL(\'static\',\'js/superfish.js\'))\nresponse.write(\'\\n    \', escape=False)\n#------ include web2py specific js code (jquery, calendar, form stuff) ------\nresponse.write(\'\\n    \', escape=False)\nresponse.files.insert(0,URL(\'static\',\'js/jquery.js\'))\nresponse.files.insert(1,URL(\'static\',\'css/calendar.css\'))\nresponse.files.insert(2,URL(\'static\',\'js/calendar.js\'))\nfor _item in response.meta or []:\n    response.write(\'\\n     <meta name="\', escape=False)\n    response.write(_item)\n    response.write(\'" content="\', escape=False)\n    response.write(response.meta[_item])\n    response.write(\'" />\', escape=False)\n    pass\nfor _k,_file in enumerate(response.files or []):\n    if _file in response.files[:_k]:\n        continue\n    _file0=_file.lower().split(\'?\')[0]\n    if _file0.endswith(\'.css\'):\n        response.write(\'\\n     <link href="\', escape=False)\n        response.write(_file)\n        response.write(\'" rel="stylesheet" type="text/css" />\', escape=False)\n    elif _file0.endswith(\'.js\'):\n        response.write(\'\\n     <script src="\', escape=False)\n        response.write(_file)\n        response.write(\'" type="text/javascript"></script>\', escape=False)\n        pass\n    pass\nresponse.write(\'\\n    <script type="text/javascript"><!--\\n    // These variables are used by the web2py_ajax_init function in web2py_ajax.js (which is loaded below).\\n    var w2p_ajax_confirm_message = "\', escape=False)\nresponse.write(T(\'Are you sure you want to delete this object?\'))\nresponse.write(\'";\\n    var w2p_ajax_date_format = "\', escape=False)\nresponse.write(T(\'%Y-%m-%d\'))\nresponse.write(\'";\\n    var w2p_ajax_datetime_format = "\', escape=False)\nresponse.write(T(\'%Y-%m-%d %H:%M:%S\'))\nresponse.write(\'";\\n    //--></script>\\n    <script src="\', escape=False)\nresponse.write(URL(\'static\',\'js/web2py_ajax.js\'))\nresponse.write(\'" type="text/javascript"></script>\\n\', escape=False)\nresponse.write(\'\\n\\n    \', escape=False)\n#using sidebars need to know what sidebar you want to use\n#prior of using it, because of static width size of content, you can use\n#left_sidebar, right_sidebar, both or none (False left and right)\nleft_sidebar_enabled = globals().get(\'left_sidebar_enabled\',False)\nright_sidebar_enabled = globals().get(\'right_sidebar_enabled\',False)\nif left_sidebar_enabled and right_sidebar_enabled: width_content=\'63%\'\nelif left_sidebar_enabled != right_sidebar_enabled: width_content=\'740px\'\nelse: width_content=\'100%\'\nif left_sidebar_enabled: left_sidebar_style = \'style="display: block;"\'\nelse: left_sidebar_style = \'style="display: none;"\'\nif right_sidebar_enabled: right_sidebar_style = \'style="display: block;"\'\nelse: right_sidebar_style = \'style="display: none;"\'\nstyle_content = \'style="width: %s"\' % width_content\nresponse.write(\'\\n  </head>\\n  \\n  <!-- paulirish.com/2008/conditional-stylesheets-vs-css-hacks-answer-neither/ -->\\t\\n  <!--[if lt IE 7 ]> <body class="ie6"> <![endif]-->\\n  <!--[if IE 7 ]>    <body class="ie7"> <![endif]-->\\n  <!--[if IE 8 ]>    <body class="ie8"> <![endif]-->\\n  <!--[if IE 9 ]>    <body class="ie9"> <![endif]-->\\n  <!--[if (gt IE 9)|!(IE)]><!--> <body> <!--<![endif]-->\\n    \\n    <div class="flash">\', escape=False)\nresponse.write(response.flash or \'\')\nresponse.write(\'</div> <!-- notification div -->\\n    \\n    <div id="container">\\t      \\t\\t      \\t\\n      \\n      <div id="wrapper">\\t\\t\\n\\t\\n\\t<div id="header"> <!-- header and login nav -->\\n\\t  \', escape=False)\nresponse.write(\' <!-- this is default header -->\\n\\t  \', escape=False)\ntry:\n    response.write(auth.navbar(action=URL(\'default\',\'user\')))\nexcept:pass\nresponse.write(\'\\t\\t          \\n\\t  <h1><span id="appname">\', escape=False)\nresponse.write(request.application.capitalize())\nresponse.write(\'</span>App</h1>\\n\\t  <div style="clear: both;"></div><!-- Clear the divs -->\\n\\t  \', escape=False)\nresponse.write(\'\\t\\t\\t\\t  \\t\\t\\t\\t\\t  \\n\\t</div><!-- header  -->\\n\\t\\n\\t<div id="statusbar"><!-- statusbar is menu zone -->\\n\\t  \', escape=False)\nresponse.write(\' <!-- this is default statusbar -->\\n\\t  \', escape=False)\n#------ superfish menu ------\nresponse.write(\'\\n\\t  \', escape=False)\nresponse.write(MENU(response.menu,_class=\'sf-menu\'))\nresponse.write(\'\\n\\t  <script type="text/javascript">\\n\\t    jQuery(document).ready(function(){\\n\\t    jQuery(\\\'ul.sf-menu\\\').superfish();});\\n\\t  </script>\\n\\t  <div style="clear: both;"></div><!-- Clear the divs -->\\t\\n\\t  \', escape=False)\nresponse.write(\'\\t\\t\\t\\t\\n\\t</div><!-- statusbar -->\\n\\t\\n\\t<div id="page"> <!-- Here my central body -->\\t  \\n\\n\\t  \', escape=False)\nif left_sidebar_enabled:\n    response.write(\'\\n          <div id="left_sidebar" \', escape=False)\n    response.write(XML(left_sidebar_style))\n    response.write(\' >\\n            <div style="padding: 4px;">\\n\\t      \', escape=False)\n    response.write(\'Content Left Sidebar\', escape=False)\n    response.write(\'\\t\\t  \\n            </div>\\n          </div><!-- left_sidebar -->\\n\\t  \', escape=False)\n    pass\nresponse.write(\'\\n\\n\\t  <!-- content -->\\n\\t  <div id="content" \', escape=False)\nresponse.write(XML(style_content))\nresponse.write(\' >\\n\\t    \', escape=False)\nresponse.write(\'\\r\\n<h1>Esta es la plantilla default/entrada_mod3.html</h1>\\r\\n<h2>Formulario</h2>\\r\\n\', escape=False)\nresponse.write(form)\nresponse.write(\'\\r\\n<br/>\\r\\n<h3>Tratamientos</h3>\\r\\n\', escape=False)\ntextual=db(db.info4.id==1).select()[0]\ntxt=textual.texto\nresponse.write(len(txt))\nresponse.write(\'\\r\\n es la longitud del texto.\\r\\n<br/> Claro: \\r\\n\\r\\n\', escape=False)\nimport re\npattern=re.compile("[\\w|\xc3\xb1|\xc3\x91]+.\\w+.\\w+")\npatternemail=re.compile("@\\w+[.]\\w+")\nclavos=[\'(\',\')\',\',\',\';\',\' \']\nres=pattern.findall(txt)\nresponse.write(len(res))\nfor i in res: response.write(i+\'<br>\',escape=False)\nres2=patternemail.findall(txt)\nresponse.write(len(res2))\nfor i in res2: response.write(i)\ni=0\ncon=1\nresponse.write(\'\\r\\n<br/>\\r\\n\', escape=False)\nresponse.write(type(res[2]))\nresponse.write(\' \', escape=False)\nes la posf\nresponse.write(\'\\t\\n\\t  </div>\\n\\t  <!-- content -->\\n\\n\\t  \', escape=False)\nif right_sidebar_enabled:\n    response.write(\'\\n          <div id="right_sidebar" \', escape=False)\n    response.write(XML(right_sidebar_style))\n    response.write(\' >\\n            <div style="padding: 4px;">\\n              \', escape=False)\n    response.write(\'Content Right Sidebar\', escape=False)\n    response.write(\'\\n            </div>\\n\\t  </div><!-- right_sidebar -->\\n          \', escape=False)\n    pass\nresponse.write(\'\\n\\n\\n\\t  <div style="clear: both;"></div><!-- Clear the divs -->\\n\\t  \\n\\t</div><!-- page -->\\t\\t\\t\\t\\t\\t\\t\\n\\t\\n\\t<div id="footer">\\n\\t  \', escape=False)\nresponse.write(\' <!-- this is default footer -->\\n\\t  <a href="http://www.web2py.com/" style="float: left; padding-right: 6px;">\\n\\t    <img src="\', escape=False)\nresponse.write(URL(\'static\',\'images/poweredby.png\'))\nresponse.write(\'"/>\\n\\t  </a>\\n\\t  \', escape=False)\nresponse.write(T(\'Copyright\'))\nresponse.write(\' &#169; 2010\\t\\t\\t\\t\\n\\t  <div style="clear: both;"></div><!-- Clear the divs -->\\n\\t  \', escape=False)\nresponse.write(\'\\n\\n\\t</div><!-- footer -->\\t\\t\\t\\n      </div><!-- wrapper -->\\n    </div><!-- container -->\\t\\t\\n    \\n    <!--[if lt IE 7 ]>\\n\\t<script src="\', escape=False)\nresponse.write(URL(\'static\',\'js/dd_belatedpng.js\'))\nresponse.write(\'"></script>\\n\\t<script> DD_belatedPNG.fix(\\\'img, .png_bg\\\'); //fix any <img> or .png_bg background-images </script>\\n\\t<![endif]-->\\n    \\n    <!-- asynchronous google analytics: mathiasbynens.be/notes/async-analytics-snippet \\n\\t change the UA-XXXXX-X to be your site\\\'s ID -->\\n    <!--   \\n\\t   <script>\\n\\t     var _gaq = [[\\\'_setAccount\\\', \\\'UA-XXXXX-X\\\'], [\\\'_trackPageview\\\']];\\n\\t     (function(d, t) {\\n\\t     var g = d.createElement(t),\\n\\t     s = d.getElementsByTagName(t)[0];\\n\\t     g.async = true;\\n\\t     g.src = \\\'//www.google-analytics.com/ga.js\\\';\\n\\t     s.parentNode.insertBefore(g, s);\\n\\t     })(document, \\\'script\\\');\\n\\t   </script>\\n\\t   -->    \\n  </body>\\n</html>\\n\', escape=False)'
p6
sS'snapshot'
p7
(dp8
S'exception'
p9
(dp10
S'__getslice__'
p11
S"<method-wrapper '__getslice__' of exceptions.SyntaxError object at 0x07626570>"
p12
sS'text'
p13
S"'es la posf\\n'"
p14
sS'__str__'
p15
S"<method-wrapper '__str__' of exceptions.SyntaxError object at 0x07626570>"
p16
sS'__reduce__'
p17
S'<built-in method __reduce__ of exceptions.SyntaxError object at 0x07626570>'
p18
sS'__dict__'
p19
S'{}'
p20
sS'__init__'
p21
S"<method-wrapper '__init__' of exceptions.SyntaxError object at 0x07626570>"
p22
sS'__setattr__'
p23
S"<method-wrapper '__setattr__' of exceptions.SyntaxError object at 0x07626570>"
p24
sS'__reduce_ex__'
p25
S'<built-in method __reduce_ex__ of exceptions.SyntaxError object at 0x07626570>'
p26
sS'__new__'
p27
S'<built-in method __new__ of type object at 0x1E1CDBD0>'
p28
sS'__class__'
p29
S"<type 'exceptions.SyntaxError'>"
p30
sS'filename'
p31
S"r'C:\\Users\\Atomico\\web2py\\applications\\Desglosar_Emails\\views\\default/entrada_mod3.html'"
p32
sS'lineno'
p33
S'122'
p34
sS'msg'
p35
S"'invalid syntax'"
p36
sS'__doc__'
p37
S"'Invalid syntax.'"
p38
sS'__getitem__'
p39
S"<method-wrapper '__getitem__' of exceptions.SyntaxError object at 0x07626570>"
p40
sS'__setstate__'
p41
S'<built-in method __setstate__ of exceptions.SyntaxError object at 0x07626570>'
p42
sS'__getattribute__'
p43
S"<method-wrapper '__getattribute__' of exceptions.SyntaxError object at 0x07626570>"
p44
sS'print_file_and_line'
p45
S'None'
p46
sS'args'
p47
S"('invalid syntax', (r'C:\\Users\\Atomico\\web2py\\applications\\Desglosar_Emails\\views\\default/entrada_mod3.html', 122, 5, 'es la posf\\n'))"
p48
sS'offset'
p49
S'5'
sS'__delattr__'
p50
S"<method-wrapper '__delattr__' of exceptions.SyntaxError object at 0x07626570>"
p51
sS'__repr__'
p52
S"<method-wrapper '__repr__' of exceptions.SyntaxError object at 0x07626570>"
p53
sS'__hash__'
p54
S"<method-wrapper '__hash__' of exceptions.SyntaxError object at 0x07626570>"
p55
ssS'evalue'
p56
S'invalid syntax (default/entrada_mod3.html, line 122)'
p57
sS'request'
p58
ccopy_reg
_reconstructor
p59
(cgluon.html
BEAUTIFY
p60
c__builtin__
object
p61
NtRp62
(dp63
S'attributes'
p64
(dp65
sS'components'
p66
(lp67
g59
(cgluon.html
TABLE
p68
g61
NtRp69
(dp70
g64
(dp71
S'level'
p72
I5
ssS'parent'
p73
Nsg66
(lp74
g59
(cgluon.html
TR
p75
g61
NtRp76
(dp77
g64
(dp78
sg73
g69
sg66
(lp79
g59
(cgluon.html
TD
p80
g61
NtRp81
(dp82
g64
(dp83
S'_style'
p84
S'font-weight:bold;'
p85
ssg73
g76
sg66
(lp86
S'ajax'
p87
asbag59
(g80
g61
NtRp88
(dp89
g64
(dp90
S'_valign'
p91
S'top'
p92
ssg73
g76
sg66
(lp93
S':'
asbag59
(g80
g61
NtRp94
(dp95
g64
(dp96
sg73
g76
sg66
(lp97
g59
(g60
g61
NtRp98
(dp99
g64
(dp100
g72
I5
ssg73
g94
sg66
(lp101
S'False'
p102
asbasbasbag59
(g75
g61
NtRp103
(dp104
g64
(dp105
sg73
g69
sg66
(lp106
g59
(g80
g61
NtRp107
(dp108
g64
(dp109
g84
g85
ssg73
g103
sg66
(lp110
S'application'
p111
asbag59
(g80
g61
NtRp112
(dp113
g64
(dp114
g91
g92
ssg73
g103
sg66
(lp115
S':'
asbag59
(g80
g61
NtRp116
(dp117
g64
(dp118
sg73
g103
sg66
(lp119
g59
(g60
g61
NtRp120
(dp121
g64
(dp122
g72
I5
ssg73
g116
sg66
(lp123
S'Desglosar_Emails'
p124
asbasbasbag59
(g75
g61
NtRp125
(dp126
g64
(dp127
sg73
g69
sg66
(lp128
g59
(g80
g61
NtRp129
(dp130
g64
(dp131
g84
g85
ssg73
g125
sg66
(lp132
g47
asbag59
(g80
g61
NtRp133
(dp134
g64
(dp135
g91
g92
ssg73
g125
sg66
(lp136
S':'
asbag59
(g80
g61
NtRp137
(dp138
g64
(dp139
sg73
g125
sg66
(lp140
g59
(g60
g61
NtRp141
(dp142
g64
(dp143
g72
I5
ssg73
g137
sg66
(lp144
g59
(g68
g61
NtRp145
(dp146
g64
(dp147
g72
I4
ssg73
Nsg66
(lp148
sbasbasbasbag59
(g75
g61
NtRp149
(dp150
g64
(dp151
sg73
g69
sg66
(lp152
g59
(g80
g61
NtRp153
(dp154
g64
(dp155
g84
g85
ssg73
g149
sg66
(lp156
S'body'
p157
asbag59
(g80
g61
NtRp158
(dp159
g64
(dp160
g91
g92
ssg73
g149
sg66
(lp161
S':'
asbag59
(g80
g61
NtRp162
(dp163
g64
(dp164
sg73
g149
sg66
(lp165
g59
(g60
g61
NtRp166
(dp167
g64
(dp168
g72
I5
ssg73
g162
sg66
(lp169
S'<cStringIO.StringO object at 0x0869A420>'
p170
asbasbasbag59
(g75
g61
NtRp171
(dp172
g64
(dp173
sg73
g69
sg66
(lp174
g59
(g80
g61
NtRp175
(dp176
g64
(dp177
g84
g85
ssg73
g171
sg66
(lp178
S'client'
p179
asbag59
(g80
g61
NtRp180
(dp181
g64
(dp182
g91
g92
ssg73
g171
sg66
(lp183
S':'
asbag59
(g80
g61
NtRp184
(dp185
g64
(dp186
sg73
g171
sg66
(lp187
g59
(g60
g61
NtRp188
(dp189
g64
(dp190
g72
I5
ssg73
g184
sg66
(lp191
S'127.0.0.1'
p192
asbasbasbag59
(g75
g61
NtRp193
(dp194
g64
(dp195
sg73
g69
sg66
(lp196
g59
(g80
g61
NtRp197
(dp198
g64
(dp199
g84
g85
ssg73
g193
sg66
(lp200
S'controller'
p201
asbag59
(g80
g61
NtRp202
(dp203
g64
(dp204
g91
g92
ssg73
g193
sg66
(lp205
S':'
asbag59
(g80
g61
NtRp206
(dp207
g64
(dp208
sg73
g193
sg66
(lp209
g59
(g60
g61
NtRp210
(dp211
g64
(dp212
g72
I5
ssg73
g206
sg66
(lp213
S'default'
p214
asbasbasbag59
(g75
g61
NtRp215
(dp216
g64
(dp217
sg73
g69
sg66
(lp218
g59
(g80
g61
NtRp219
(dp220
g64
(dp221
g84
g85
ssg73
g215
sg66
(lp222
S'cookies'
p223
asbag59
(g80
g61
NtRp224
(dp225
g64
(dp226
g91
g92
ssg73
g215
sg66
(lp227
S':'
asbag59
(g80
g61
NtRp228
(dp229
g64
(dp230
sg73
g215
sg66
(lp231
g59
(g60
g61
NtRp232
(dp233
g64
(dp234
g72
I5
ssg73
g228
sg66
(lp235
g59
(g68
g61
NtRp236
(dp237
g64
(dp238
g72
I4
ssg73
Nsg66
(lp239
g59
(g75
g61
NtRp240
(dp241
g64
(dp242
sg73
g236
sg66
(lp243
g59
(g80
g61
NtRp244
(dp245
g64
(dp246
g84
g85
ssg73
g240
sg66
(lp247
S'session_id_admin'
p248
asbag59
(g80
g61
NtRp249
(dp250
g64
(dp251
g91
g92
ssg73
g240
sg66
(lp252
S':'
asbag59
(g80
g61
NtRp253
(dp254
g64
(dp255
sg73
g240
sg66
(lp256
g59
(g60
g61
NtRp257
(dp258
g64
(dp259
g72
I4
ssg73
g253
sg66
(lp260
g59
(g68
g61
NtRp261
(dp262
g64
(dp263
g72
I3
ssg73
Nsg66
(lp264
g59
(g75
g61
NtRp265
(dp266
g64
(dp267
sg73
g261
sg66
(lp268
g59
(g80
g61
NtRp269
(dp270
g64
(dp271
g84
g85
ssg73
g265
sg66
(lp272
S'comment'
p273
asbag59
(g80
g61
NtRp274
(dp275
g64
(dp276
g91
g92
ssg73
g265
sg66
(lp277
S':'
asbag59
(g80
g61
NtRp278
(dp279
g64
(dp280
sg73
g265
sg66
(lp281
g59
(g60
g61
NtRp282
(dp283
g64
(dp284
g72
I3
ssg73
g278
sg66
(lp285
S''
asbasbasbag59
(g75
g61
NtRp286
(dp287
g64
(dp288
sg73
g261
sg66
(lp289
g59
(g80
g61
NtRp290
(dp291
g64
(dp292
g84
g85
ssg73
g286
sg66
(lp293
S'domain'
p294
asbag59
(g80
g61
NtRp295
(dp296
g64
(dp297
g91
g92
ssg73
g286
sg66
(lp298
S':'
asbag59
(g80
g61
NtRp299
(dp300
g64
(dp301
sg73
g286
sg66
(lp302
g59
(g60
g61
NtRp303
(dp304
g64
(dp305
g72
I3
ssg73
g299
sg66
(lp306
S''
asbasbasbag59
(g75
g61
NtRp307
(dp308
g64
(dp309
sg73
g261
sg66
(lp310
g59
(g80
g61
NtRp311
(dp312
g64
(dp313
g84
g85
ssg73
g307
sg66
(lp314
S'expires'
p315
asbag59
(g80
g61
NtRp316
(dp317
g64
(dp318
g91
g92
ssg73
g307
sg66
(lp319
S':'
asbag59
(g80
g61
NtRp320
(dp321
g64
(dp322
sg73
g307
sg66
(lp323
g59
(g60
g61
NtRp324
(dp325
g64
(dp326
g72
I3
ssg73
g320
sg66
(lp327
S''
asbasbasbag59
(g75
g61
NtRp328
(dp329
g64
(dp330
sg73
g261
sg66
(lp331
g59
(g80
g61
NtRp332
(dp333
g64
(dp334
g84
g85
ssg73
g328
sg66
(lp335
S'max-age'
p336
asbag59
(g80
g61
NtRp337
(dp338
g64
(dp339
g91
g92
ssg73
g328
sg66
(lp340
S':'
asbag59
(g80
g61
NtRp341
(dp342
g64
(dp343
sg73
g328
sg66
(lp344
g59
(g60
g61
NtRp345
(dp346
g64
(dp347
g72
I3
ssg73
g341
sg66
(lp348
S''
asbasbasbag59
(g75
g61
NtRp349
(dp350
g64
(dp351
sg73
g261
sg66
(lp352
g59
(g80
g61
NtRp353
(dp354
g64
(dp355
g84
g85
ssg73
g349
sg66
(lp356
S'path'
p357
asbag59
(g80
g61
NtRp358
(dp359
g64
(dp360
g91
g92
ssg73
g349
sg66
(lp361
S':'
asbag59
(g80
g61
NtRp362
(dp363
g64
(dp364
sg73
g349
sg66
(lp365
g59
(g60
g61
NtRp366
(dp367
g64
(dp368
g72
I3
ssg73
g362
sg66
(lp369
S''
asbasbasbag59
(g75
g61
NtRp370
(dp371
g64
(dp372
sg73
g261
sg66
(lp373
g59
(g80
g61
NtRp374
(dp375
g64
(dp376
g84
g85
ssg73
g370
sg66
(lp377
S'secure'
p378
asbag59
(g80
g61
NtRp379
(dp380
g64
(dp381
g91
g92
ssg73
g370
sg66
(lp382
S':'
asbag59
(g80
g61
NtRp383
(dp384
g64
(dp385
sg73
g370
sg66
(lp386
g59
(g60
g61
NtRp387
(dp388
g64
(dp389
g72
I3
ssg73
g383
sg66
(lp390
S''
asbasbasbag59
(g75
g61
NtRp391
(dp392
g64
(dp393
sg73
g261
sg66
(lp394
g59
(g80
g61
NtRp395
(dp396
g64
(dp397
g84
g85
ssg73
g391
sg66
(lp398
S'version'
p399
asbag59
(g80
g61
NtRp400
(dp401
g64
(dp402
g91
g92
ssg73
g391
sg66
(lp403
S':'
asbag59
(g80
g61
NtRp404
(dp405
g64
(dp406
sg73
g391
sg66
(lp407
g59
(g60
g61
NtRp408
(dp409
g64
(dp410
g72
I3
ssg73
g404
sg66
(lp411
S''
asbasbasbasbasbasbasbag59
(g75
g61
NtRp412
(dp413
g64
(dp414
sg73
g236
sg66
(lp415
g59
(g80
g61
NtRp416
(dp417
g64
(dp418
g84
g85
ssg73
g412
sg66
(lp419
S'session_id_borrar2'
p420
asbag59
(g80
g61
NtRp421
(dp422
g64
(dp423
g91
g92
ssg73
g412
sg66
(lp424
S':'
asbag59
(g80
g61
NtRp425
(dp426
g64
(dp427
sg73
g412
sg66
(lp428
g59
(g60
g61
NtRp429
(dp430
g64
(dp431
g72
I4
ssg73
g425
sg66
(lp432
g59
(g68
g61
NtRp433
(dp434
g64
(dp435
g72
I3
ssg73
Nsg66
(lp436
g59
(g75
g61
NtRp437
(dp438
g64
(dp439
sg73
g433
sg66
(lp440
g59
(g80
g61
NtRp441
(dp442
g64
(dp443
g84
g85
ssg73
g437
sg66
(lp444
g273
asbag59
(g80
g61
NtRp445
(dp446
g64
(dp447
g91
g92
ssg73
g437
sg66
(lp448
S':'
asbag59
(g80
g61
NtRp449
(dp450
g64
(dp451
sg73
g437
sg66
(lp452
g59
(g60
g61
NtRp453
(dp454
g64
(dp455
g72
I3
ssg73
g449
sg66
(lp456
S''
asbasbasbag59
(g75
g61
NtRp457
(dp458
g64
(dp459
sg73
g433
sg66
(lp460
g59
(g80
g61
NtRp461
(dp462
g64
(dp463
g84
g85
ssg73
g457
sg66
(lp464
g294
asbag59
(g80
g61
NtRp465
(dp466
g64
(dp467
g91
g92
ssg73
g457
sg66
(lp468
S':'
asbag59
(g80
g61
NtRp469
(dp470
g64
(dp471
sg73
g457
sg66
(lp472
g59
(g60
g61
NtRp473
(dp474
g64
(dp475
g72
I3
ssg73
g469
sg66
(lp476
S''
asbasbasbag59
(g75
g61
NtRp477
(dp478
g64
(dp479
sg73
g433
sg66
(lp480
g59
(g80
g61
NtRp481
(dp482
g64
(dp483
g84
g85
ssg73
g477
sg66
(lp484
g315
asbag59
(g80
g61
NtRp485
(dp486
g64
(dp487
g91
g92
ssg73
g477
sg66
(lp488
S':'
asbag59
(g80
g61
NtRp489
(dp490
g64
(dp491
sg73
g477
sg66
(lp492
g59
(g60
g61
NtRp493
(dp494
g64
(dp495
g72
I3
ssg73
g489
sg66
(lp496
S''
asbasbasbag59
(g75
g61
NtRp497
(dp498
g64
(dp499
sg73
g433
sg66
(lp500
g59
(g80
g61
NtRp501
(dp502
g64
(dp503
g84
g85
ssg73
g497
sg66
(lp504
g336
asbag59
(g80
g61
NtRp505
(dp506
g64
(dp507
g91
g92
ssg73
g497
sg66
(lp508
S':'
asbag59
(g80
g61
NtRp509
(dp510
g64
(dp511
sg73
g497
sg66
(lp512
g59
(g60
g61
NtRp513
(dp514
g64
(dp515
g72
I3
ssg73
g509
sg66
(lp516
S''
asbasbasbag59
(g75
g61
NtRp517
(dp518
g64
(dp519
sg73
g433
sg66
(lp520
g59
(g80
g61
NtRp521
(dp522
g64
(dp523
g84
g85
ssg73
g517
sg66
(lp524
g357
asbag59
(g80
g61
NtRp525
(dp526
g64
(dp527
g91
g92
ssg73
g517
sg66
(lp528
S':'
asbag59
(g80
g61
NtRp529
(dp530
g64
(dp531
sg73
g517
sg66
(lp532
g59
(g60
g61
NtRp533
(dp534
g64
(dp535
g72
I3
ssg73
g529
sg66
(lp536
S''
asbasbasbag59
(g75
g61
NtRp537
(dp538
g64
(dp539
sg73
g433
sg66
(lp540
g59
(g80
g61
NtRp541
(dp542
g64
(dp543
g84
g85
ssg73
g537
sg66
(lp544
g378
asbag59
(g80
g61
NtRp545
(dp546
g64
(dp547
g91
g92
ssg73
g537
sg66
(lp548
S':'
asbag59
(g80
g61
NtRp549
(dp550
g64
(dp551
sg73
g537
sg66
(lp552
g59
(g60
g61
NtRp553
(dp554
g64
(dp555
g72
I3
ssg73
g549
sg66
(lp556
S''
asbasbasbag59
(g75
g61
NtRp557
(dp558
g64
(dp559
sg73
g433
sg66
(lp560
g59
(g80
g61
NtRp561
(dp562
g64
(dp563
g84
g85
ssg73
g557
sg66
(lp564
g399
asbag59
(g80
g61
NtRp565
(dp566
g64
(dp567
g91
g92
ssg73
g557
sg66
(lp568
S':'
asbag59
(g80
g61
NtRp569
(dp570
g64
(dp571
sg73
g557
sg66
(lp572
g59
(g60
g61
NtRp573
(dp574
g64
(dp575
g72
I3
ssg73
g569
sg66
(lp576
S''
asbasbasbasbasbasbasbag59
(g75
g61
NtRp577
(dp578
g64
(dp579
sg73
g236
sg66
(lp580
g59
(g80
g61
NtRp581
(dp582
g64
(dp583
g84
g85
ssg73
g577
sg66
(lp584
S'session_id_cual_es_tu_nombre'
p585
asbag59
(g80
g61
NtRp586
(dp587
g64
(dp588
g91
g92
ssg73
g577
sg66
(lp589
S':'
asbag59
(g80
g61
NtRp590
(dp591
g64
(dp592
sg73
g577
sg66
(lp593
g59
(g60
g61
NtRp594
(dp595
g64
(dp596
g72
I4
ssg73
g590
sg66
(lp597
g59
(g68
g61
NtRp598
(dp599
g64
(dp600
g72
I3
ssg73
Nsg66
(lp601
g59
(g75
g61
NtRp602
(dp603
g64
(dp604
sg73
g598
sg66
(lp605
g59
(g80
g61
NtRp606
(dp607
g64
(dp608
g84
g85
ssg73
g602
sg66
(lp609
g273
asbag59
(g80
g61
NtRp610
(dp611
g64
(dp612
g91
g92
ssg73
g602
sg66
(lp613
S':'
asbag59
(g80
g61
NtRp614
(dp615
g64
(dp616
sg73
g602
sg66
(lp617
g59
(g60
g61
NtRp618
(dp619
g64
(dp620
g72
I3
ssg73
g614
sg66
(lp621
S''
asbasbasbag59
(g75
g61
NtRp622
(dp623
g64
(dp624
sg73
g598
sg66
(lp625
g59
(g80
g61
NtRp626
(dp627
g64
(dp628
g84
g85
ssg73
g622
sg66
(lp629
g294
asbag59
(g80
g61
NtRp630
(dp631
g64
(dp632
g91
g92
ssg73
g622
sg66
(lp633
S':'
asbag59
(g80
g61
NtRp634
(dp635
g64
(dp636
sg73
g622
sg66
(lp637
g59
(g60
g61
NtRp638
(dp639
g64
(dp640
g72
I3
ssg73
g634
sg66
(lp641
S''
asbasbasbag59
(g75
g61
NtRp642
(dp643
g64
(dp644
sg73
g598
sg66
(lp645
g59
(g80
g61
NtRp646
(dp647
g64
(dp648
g84
g85
ssg73
g642
sg66
(lp649
g315
asbag59
(g80
g61
NtRp650
(dp651
g64
(dp652
g91
g92
ssg73
g642
sg66
(lp653
S':'
asbag59
(g80
g61
NtRp654
(dp655
g64
(dp656
sg73
g642
sg66
(lp657
g59
(g60
g61
NtRp658
(dp659
g64
(dp660
g72
I3
ssg73
g654
sg66
(lp661
S''
asbasbasbag59
(g75
g61
NtRp662
(dp663
g64
(dp664
sg73
g598
sg66
(lp665
g59
(g80
g61
NtRp666
(dp667
g64
(dp668
g84
g85
ssg73
g662
sg66
(lp669
g336
asbag59
(g80
g61
NtRp670
(dp671
g64
(dp672
g91
g92
ssg73
g662
sg66
(lp673
S':'
asbag59
(g80
g61
NtRp674
(dp675
g64
(dp676
sg73
g662
sg66
(lp677
g59
(g60
g61
NtRp678
(dp679
g64
(dp680
g72
I3
ssg73
g674
sg66
(lp681
S''
asbasbasbag59
(g75
g61
NtRp682
(dp683
g64
(dp684
sg73
g598
sg66
(lp685
g59
(g80
g61
NtRp686
(dp687
g64
(dp688
g84
g85
ssg73
g682
sg66
(lp689
g357
asbag59
(g80
g61
NtRp690
(dp691
g64
(dp692
g91
g92
ssg73
g682
sg66
(lp693
S':'
asbag59
(g80
g61
NtRp694
(dp695
g64
(dp696
sg73
g682
sg66
(lp697
g59
(g60
g61
NtRp698
(dp699
g64
(dp700
g72
I3
ssg73
g694
sg66
(lp701
S''
asbasbasbag59
(g75
g61
NtRp702
(dp703
g64
(dp704
sg73
g598
sg66
(lp705
g59
(g80
g61
NtRp706
(dp707
g64
(dp708
g84
g85
ssg73
g702
sg66
(lp709
g378
asbag59
(g80
g61
NtRp710
(dp711
g64
(dp712
g91
g92
ssg73
g702
sg66
(lp713
S':'
asbag59
(g80
g61
NtRp714
(dp715
g64
(dp716
sg73
g702
sg66
(lp717
g59
(g60
g61
NtRp718
(dp719
g64
(dp720
g72
I3
ssg73
g714
sg66
(lp721
S''
asbasbasbag59
(g75
g61
NtRp722
(dp723
g64
(dp724
sg73
g598
sg66
(lp725
g59
(g80
g61
NtRp726
(dp727
g64
(dp728
g84
g85
ssg73
g722
sg66
(lp729
g399
asbag59
(g80
g61
NtRp730
(dp731
g64
(dp732
g91
g92
ssg73
g722
sg66
(lp733
S':'
asbag59
(g80
g61
NtRp734
(dp735
g64
(dp736
sg73
g722
sg66
(lp737
g59
(g60
g61
NtRp738
(dp739
g64
(dp740
g72
I3
ssg73
g734
sg66
(lp741
S''
asbasbasbasbasbasbasbag59
(g75
g61
NtRp742
(dp743
g64
(dp744
sg73
g236
sg66
(lp745
g59
(g80
g61
NtRp746
(dp747
g64
(dp748
g84
g85
ssg73
g742
sg66
(lp749
S'session_id_desglosar_emails'
p750
asbag59
(g80
g61
NtRp751
(dp752
g64
(dp753
g91
g92
ssg73
g742
sg66
(lp754
S':'
asbag59
(g80
g61
NtRp755
(dp756
g64
(dp757
sg73
g742
sg66
(lp758
g59
(g60
g61
NtRp759
(dp760
g64
(dp761
g72
I4
ssg73
g755
sg66
(lp762
g59
(g68
g61
NtRp763
(dp764
g64
(dp765
g72
I3
ssg73
Nsg66
(lp766
g59
(g75
g61
NtRp767
(dp768
g64
(dp769
sg73
g763
sg66
(lp770
g59
(g80
g61
NtRp771
(dp772
g64
(dp773
g84
g85
ssg73
g767
sg66
(lp774
g273
asbag59
(g80
g61
NtRp775
(dp776
g64
(dp777
g91
g92
ssg73
g767
sg66
(lp778
S':'
asbag59
(g80
g61
NtRp779
(dp780
g64
(dp781
sg73
g767
sg66
(lp782
g59
(g60
g61
NtRp783
(dp784
g64
(dp785
g72
I3
ssg73
g779
sg66
(lp786
S''
asbasbasbag59
(g75
g61
NtRp787
(dp788
g64
(dp789
sg73
g763
sg66
(lp790
g59
(g80
g61
NtRp791
(dp792
g64
(dp793
g84
g85
ssg73
g787
sg66
(lp794
g294
asbag59
(g80
g61
NtRp795
(dp796
g64
(dp797
g91
g92
ssg73
g787
sg66
(lp798
S':'
asbag59
(g80
g61
NtRp799
(dp800
g64
(dp801
sg73
g787
sg66
(lp802
g59
(g60
g61
NtRp803
(dp804
g64
(dp805
g72
I3
ssg73
g799
sg66
(lp806
S''
asbasbasbag59
(g75
g61
NtRp807
(dp808
g64
(dp809
sg73
g763
sg66
(lp810
g59
(g80
g61
NtRp811
(dp812
g64
(dp813
g84
g85
ssg73
g807
sg66
(lp814
g315
asbag59
(g80
g61
NtRp815
(dp816
g64
(dp817
g91
g92
ssg73
g807
sg66
(lp818
S':'
asbag59
(g80
g61
NtRp819
(dp820
g64
(dp821
sg73
g807
sg66
(lp822
g59
(g60
g61
NtRp823
(dp824
g64
(dp825
g72
I3
ssg73
g819
sg66
(lp826
S''
asbasbasbag59
(g75
g61
NtRp827
(dp828
g64
(dp829
sg73
g763
sg66
(lp830
g59
(g80
g61
NtRp831
(dp832
g64
(dp833
g84
g85
ssg73
g827
sg66
(lp834
g336
asbag59
(g80
g61
NtRp835
(dp836
g64
(dp837
g91
g92
ssg73
g827
sg66
(lp838
S':'
asbag59
(g80
g61
NtRp839
(dp840
g64
(dp841
sg73
g827
sg66
(lp842
g59
(g60
g61
NtRp843
(dp844
g64
(dp845
g72
I3
ssg73
g839
sg66
(lp846
S''
asbasbasbag59
(g75
g61
NtRp847
(dp848
g64
(dp849
sg73
g763
sg66
(lp850
g59
(g80
g61
NtRp851
(dp852
g64
(dp853
g84
g85
ssg73
g847
sg66
(lp854
g357
asbag59
(g80
g61
NtRp855
(dp856
g64
(dp857
g91
g92
ssg73
g847
sg66
(lp858
S':'
asbag59
(g80
g61
NtRp859
(dp860
g64
(dp861
sg73
g847
sg66
(lp862
g59
(g60
g61
NtRp863
(dp864
g64
(dp865
g72
I3
ssg73
g859
sg66
(lp866
S''
asbasbasbag59
(g75
g61
NtRp867
(dp868
g64
(dp869
sg73
g763
sg66
(lp870
g59
(g80
g61
NtRp871
(dp872
g64
(dp873
g84
g85
ssg73
g867
sg66
(lp874
g378
asbag59
(g80
g61
NtRp875
(dp876
g64
(dp877
g91
g92
ssg73
g867
sg66
(lp878
S':'
asbag59
(g80
g61
NtRp879
(dp880
g64
(dp881
sg73
g867
sg66
(lp882
g59
(g60
g61
NtRp883
(dp884
g64
(dp885
g72
I3
ssg73
g879
sg66
(lp886
S''
asbasbasbag59
(g75
g61
NtRp887
(dp888
g64
(dp889
sg73
g763
sg66
(lp890
g59
(g80
g61
NtRp891
(dp892
g64
(dp893
g84
g85
ssg73
g887
sg66
(lp894
g399
asbag59
(g80
g61
NtRp895
(dp896
g64
(dp897
g91
g92
ssg73
g887
sg66
(lp898
S':'
asbag59
(g80
g61
NtRp899
(dp900
g64
(dp901
sg73
g887
sg66
(lp902
g59
(g60
g61
NtRp903
(dp904
g64
(dp905
g72
I3
ssg73
g899
sg66
(lp906
S''
asbasbasbasbasbasbasbag59
(g75
g61
NtRp907
(dp908
g64
(dp909
sg73
g236
sg66
(lp910
g59
(g80
g61
NtRp911
(dp912
g64
(dp913
g84
g85
ssg73
g907
sg66
(lp914
S'session_id_hemoal'
p915
asbag59
(g80
g61
NtRp916
(dp917
g64
(dp918
g91
g92
ssg73
g907
sg66
(lp919
S':'
asbag59
(g80
g61
NtRp920
(dp921
g64
(dp922
sg73
g907
sg66
(lp923
g59
(g60
g61
NtRp924
(dp925
g64
(dp926
g72
I4
ssg73
g920
sg66
(lp927
g59
(g68
g61
NtRp928
(dp929
g64
(dp930
g72
I3
ssg73
Nsg66
(lp931
g59
(g75
g61
NtRp932
(dp933
g64
(dp934
sg73
g928
sg66
(lp935
g59
(g80
g61
NtRp936
(dp937
g64
(dp938
g84
g85
ssg73
g932
sg66
(lp939
g273
asbag59
(g80
g61
NtRp940
(dp941
g64
(dp942
g91
g92
ssg73
g932
sg66
(lp943
S':'
asbag59
(g80
g61
NtRp944
(dp945
g64
(dp946
sg73
g932
sg66
(lp947
g59
(g60
g61
NtRp948
(dp949
g64
(dp950
g72
I3
ssg73
g944
sg66
(lp951
S''
asbasbasbag59
(g75
g61
NtRp952
(dp953
g64
(dp954
sg73
g928
sg66
(lp955
g59
(g80
g61
NtRp956
(dp957
g64
(dp958
g84
g85
ssg73
g952
sg66
(lp959
g294
asbag59
(g80
g61
NtRp960
(dp961
g64
(dp962
g91
g92
ssg73
g952
sg66
(lp963
S':'
asbag59
(g80
g61
NtRp964
(dp965
g64
(dp966
sg73
g952
sg66
(lp967
g59
(g60
g61
NtRp968
(dp969
g64
(dp970
g72
I3
ssg73
g964
sg66
(lp971
S''
asbasbasbag59
(g75
g61
NtRp972
(dp973
g64
(dp974
sg73
g928
sg66
(lp975
g59
(g80
g61
NtRp976
(dp977
g64
(dp978
g84
g85
ssg73
g972
sg66
(lp979
g315
asbag59
(g80
g61
NtRp980
(dp981
g64
(dp982
g91
g92
ssg73
g972
sg66
(lp983
S':'
asbag59
(g80
g61
NtRp984
(dp985
g64
(dp986
sg73
g972
sg66
(lp987
g59
(g60
g61
NtRp988
(dp989
g64
(dp990
g72
I3
ssg73
g984
sg66
(lp991
S''
asbasbasbag59
(g75
g61
NtRp992
(dp993
g64
(dp994
sg73
g928
sg66
(lp995
g59
(g80
g61
NtRp996
(dp997
g64
(dp998
g84
g85
ssg73
g992
sg66
(lp999
g336
asbag59
(g80
g61
NtRp1000
(dp1001
g64
(dp1002
g91
g92
ssg73
g992
sg66
(lp1003
S':'
asbag59
(g80
g61
NtRp1004
(dp1005
g64
(dp1006
sg73
g992
sg66
(lp1007
g59
(g60
g61
NtRp1008
(dp1009
g64
(dp1010
g72
I3
ssg73
g1004
sg66
(lp1011
S''
asbasbasbag59
(g75
g61
NtRp1012
(dp1013
g64
(dp1014
sg73
g928
sg66
(lp1015
g59
(g80
g61
NtRp1016
(dp1017
g64
(dp1018
g84
g85
ssg73
g1012
sg66
(lp1019
g357
asbag59
(g80
g61
NtRp1020
(dp1021
g64
(dp1022
g91
g92
ssg73
g1012
sg66
(lp1023
S':'
asbag59
(g80
g61
NtRp1024
(dp1025
g64
(dp1026
sg73
g1012
sg66
(lp1027
g59
(g60
g61
NtRp1028
(dp1029
g64
(dp1030
g72
I3
ssg73
g1024
sg66
(lp1031
S''
asbasbasbag59
(g75
g61
NtRp1032
(dp1033
g64
(dp1034
sg73
g928
sg66
(lp1035
g59
(g80
g61
NtRp1036
(dp1037
g64
(dp1038
g84
g85
ssg73
g1032
sg66
(lp1039
g378
asbag59
(g80
g61
NtRp1040
(dp1041
g64
(dp1042
g91
g92
ssg73
g1032
sg66
(lp1043
S':'
asbag59
(g80
g61
NtRp1044
(dp1045
g64
(dp1046
sg73
g1032
sg66
(lp1047
g59
(g60
g61
NtRp1048
(dp1049
g64
(dp1050
g72
I3
ssg73
g1044
sg66
(lp1051
S''
asbasbasbag59
(g75
g61
NtRp1052
(dp1053
g64
(dp1054
sg73
g928
sg66
(lp1055
g59
(g80
g61
NtRp1056
(dp1057
g64
(dp1058
g84
g85
ssg73
g1052
sg66
(lp1059
g399
asbag59
(g80
g61
NtRp1060
(dp1061
g64
(dp1062
g91
g92
ssg73
g1052
sg66
(lp1063
S':'
asbag59
(g80
g61
NtRp1064
(dp1065
g64
(dp1066
sg73
g1052
sg66
(lp1067
g59
(g60
g61
NtRp1068
(dp1069
g64
(dp1070
g72
I3
ssg73
g1064
sg66
(lp1071
S''
asbasbasbasbasbasbasbag59
(g75
g61
NtRp1072
(dp1073
g64
(dp1074
sg73
g236
sg66
(lp1075
g59
(g80
g61
NtRp1076
(dp1077
g64
(dp1078
g84
g85
ssg73
g1072
sg66
(lp1079
S'session_id_listado_1'
p1080
asbag59
(g80
g61
NtRp1081
(dp1082
g64
(dp1083
g91
g92
ssg73
g1072
sg66
(lp1084
S':'
asbag59
(g80
g61
NtRp1085
(dp1086
g64
(dp1087
sg73
g1072
sg66
(lp1088
g59
(g60
g61
NtRp1089
(dp1090
g64
(dp1091
g72
I4
ssg73
g1085
sg66
(lp1092
g59
(g68
g61
NtRp1093
(dp1094
g64
(dp1095
g72
I3
ssg73
Nsg66
(lp1096
g59
(g75
g61
NtRp1097
(dp1098
g64
(dp1099
sg73
g1093
sg66
(lp1100
g59
(g80
g61
NtRp1101
(dp1102
g64
(dp1103
g84
g85
ssg73
g1097
sg66
(lp1104
g273
asbag59
(g80
g61
NtRp1105
(dp1106
g64
(dp1107
g91
g92
ssg73
g1097
sg66
(lp1108
S':'
asbag59
(g80
g61
NtRp1109
(dp1110
g64
(dp1111
sg73
g1097
sg66
(lp1112
g59
(g60
g61
NtRp1113
(dp1114
g64
(dp1115
g72
I3
ssg73
g1109
sg66
(lp1116
S''
asbasbasbag59
(g75
g61
NtRp1117
(dp1118
g64
(dp1119
sg73
g1093
sg66
(lp1120
g59
(g80
g61
NtRp1121
(dp1122
g64
(dp1123
g84
g85
ssg73
g1117
sg66
(lp1124
g294
asbag59
(g80
g61
NtRp1125
(dp1126
g64
(dp1127
g91
g92
ssg73
g1117
sg66
(lp1128
S':'
asbag59
(g80
g61
NtRp1129
(dp1130
g64
(dp1131
sg73
g1117
sg66
(lp1132
g59
(g60
g61
NtRp1133
(dp1134
g64
(dp1135
g72
I3
ssg73
g1129
sg66
(lp1136
S''
asbasbasbag59
(g75
g61
NtRp1137
(dp1138
g64
(dp1139
sg73
g1093
sg66
(lp1140
g59
(g80
g61
NtRp1141
(dp1142
g64
(dp1143
g84
g85
ssg73
g1137
sg66
(lp1144
g315
asbag59
(g80
g61
NtRp1145
(dp1146
g64
(dp1147
g91
g92
ssg73
g1137
sg66
(lp1148
S':'
asbag59
(g80
g61
NtRp1149
(dp1150
g64
(dp1151
sg73
g1137
sg66
(lp1152
g59
(g60
g61
NtRp1153
(dp1154
g64
(dp1155
g72
I3
ssg73
g1149
sg66
(lp1156
S''
asbasbasbag59
(g75
g61
NtRp1157
(dp1158
g64
(dp1159
sg73
g1093
sg66
(lp1160
g59
(g80
g61
NtRp1161
(dp1162
g64
(dp1163
g84
g85
ssg73
g1157
sg66
(lp1164
g336
asbag59
(g80
g61
NtRp1165
(dp1166
g64
(dp1167
g91
g92
ssg73
g1157
sg66
(lp1168
S':'
asbag59
(g80
g61
NtRp1169
(dp1170
g64
(dp1171
sg73
g1157
sg66
(lp1172
g59
(g60
g61
NtRp1173
(dp1174
g64
(dp1175
g72
I3
ssg73
g1169
sg66
(lp1176
S''
asbasbasbag59
(g75
g61
NtRp1177
(dp1178
g64
(dp1179
sg73
g1093
sg66
(lp1180
g59
(g80
g61
NtRp1181
(dp1182
g64
(dp1183
g84
g85
ssg73
g1177
sg66
(lp1184
g357
asbag59
(g80
g61
NtRp1185
(dp1186
g64
(dp1187
g91
g92
ssg73
g1177
sg66
(lp1188
S':'
asbag59
(g80
g61
NtRp1189
(dp1190
g64
(dp1191
sg73
g1177
sg66
(lp1192
g59
(g60
g61
NtRp1193
(dp1194
g64
(dp1195
g72
I3
ssg73
g1189
sg66
(lp1196
S''
asbasbasbag59
(g75
g61
NtRp1197
(dp1198
g64
(dp1199
sg73
g1093
sg66
(lp1200
g59
(g80
g61
NtRp1201
(dp1202
g64
(dp1203
g84
g85
ssg73
g1197
sg66
(lp1204
g378
asbag59
(g80
g61
NtRp1205
(dp1206
g64
(dp1207
g91
g92
ssg73
g1197
sg66
(lp1208
S':'
asbag59
(g80
g61
NtRp1209
(dp1210
g64
(dp1211
sg73
g1197
sg66
(lp1212
g59
(g60
g61
NtRp1213
(dp1214
g64
(dp1215
g72
I3
ssg73
g1209
sg66
(lp1216
S''
asbasbasbag59
(g75
g61
NtRp1217
(dp1218
g64
(dp1219
sg73
g1093
sg66
(lp1220
g59
(g80
g61
NtRp1221
(dp1222
g64
(dp1223
g84
g85
ssg73
g1217
sg66
(lp1224
g399
asbag59
(g80
g61
NtRp1225
(dp1226
g64
(dp1227
g91
g92
ssg73
g1217
sg66
(lp1228
S':'
asbag59
(g80
g61
NtRp1229
(dp1230
g64
(dp1231
sg73
g1217
sg66
(lp1232
g59
(g60
g61
NtRp1233
(dp1234
g64
(dp1235
g72
I3
ssg73
g1229
sg66
(lp1236
S''
asbasbasbasbasbasbasbag59
(g75
g61
NtRp1237
(dp1238
g64
(dp1239
sg73
g236
sg66
(lp1240
g59
(g80
g61
NtRp1241
(dp1242
g64
(dp1243
g84
g85
ssg73
g1237
sg66
(lp1244
S'session_id_myappjav'
p1245
asbag59
(g80
g61
NtRp1246
(dp1247
g64
(dp1248
g91
g92
ssg73
g1237
sg66
(lp1249
S':'
asbag59
(g80
g61
NtRp1250
(dp1251
g64
(dp1252
sg73
g1237
sg66
(lp1253
g59
(g60
g61
NtRp1254
(dp1255
g64
(dp1256
g72
I4
ssg73
g1250
sg66
(lp1257
g59
(g68
g61
NtRp1258
(dp1259
g64
(dp1260
g72
I3
ssg73
Nsg66
(lp1261
g59
(g75
g61
NtRp1262
(dp1263
g64
(dp1264
sg73
g1258
sg66
(lp1265
g59
(g80
g61
NtRp1266
(dp1267
g64
(dp1268
g84
g85
ssg73
g1262
sg66
(lp1269
g273
asbag59
(g80
g61
NtRp1270
(dp1271
g64
(dp1272
g91
g92
ssg73
g1262
sg66
(lp1273
S':'
asbag59
(g80
g61
NtRp1274
(dp1275
g64
(dp1276
sg73
g1262
sg66
(lp1277
g59
(g60
g61
NtRp1278
(dp1279
g64
(dp1280
g72
I3
ssg73
g1274
sg66
(lp1281
S''
asbasbasbag59
(g75
g61
NtRp1282
(dp1283
g64
(dp1284
sg73
g1258
sg66
(lp1285
g59
(g80
g61
NtRp1286
(dp1287
g64
(dp1288
g84
g85
ssg73
g1282
sg66
(lp1289
g294
asbag59
(g80
g61
NtRp1290
(dp1291
g64
(dp1292
g91
g92
ssg73
g1282
sg66
(lp1293
S':'
asbag59
(g80
g61
NtRp1294
(dp1295
g64
(dp1296
sg73
g1282
sg66
(lp1297
g59
(g60
g61
NtRp1298
(dp1299
g64
(dp1300
g72
I3
ssg73
g1294
sg66
(lp1301
S''
asbasbasbag59
(g75
g61
NtRp1302
(dp1303
g64
(dp1304
sg73
g1258
sg66
(lp1305
g59
(g80
g61
NtRp1306
(dp1307
g64
(dp1308
g84
g85
ssg73
g1302
sg66
(lp1309
g315
asbag59
(g80
g61
NtRp1310
(dp1311
g64
(dp1312
g91
g92
ssg73
g1302
sg66
(lp1313
S':'
asbag59
(g80
g61
NtRp1314
(dp1315
g64
(dp1316
sg73
g1302
sg66
(lp1317
g59
(g60
g61
NtRp1318
(dp1319
g64
(dp1320
g72
I3
ssg73
g1314
sg66
(lp1321
S''
asbasbasbag59
(g75
g61
NtRp1322
(dp1323
g64
(dp1324
sg73
g1258
sg66
(lp1325
g59
(g80
g61
NtRp1326
(dp1327
g64
(dp1328
g84
g85
ssg73
g1322
sg66
(lp1329
g336
asbag59
(g80
g61
NtRp1330
(dp1331
g64
(dp1332
g91
g92
ssg73
g1322
sg66
(lp1333
S':'
asbag59
(g80
g61
NtRp1334
(dp1335
g64
(dp1336
sg73
g1322
sg66
(lp1337
g59
(g60
g61
NtRp1338
(dp1339
g64
(dp1340
g72
I3
ssg73
g1334
sg66
(lp1341
S''
asbasbasbag59
(g75
g61
NtRp1342
(dp1343
g64
(dp1344
sg73
g1258
sg66
(lp1345
g59
(g80
g61
NtRp1346
(dp1347
g64
(dp1348
g84
g85
ssg73
g1342
sg66
(lp1349
g357
asbag59
(g80
g61
NtRp1350
(dp1351
g64
(dp1352
g91
g92
ssg73
g1342
sg66
(lp1353
S':'
asbag59
(g80
g61
NtRp1354
(dp1355
g64
(dp1356
sg73
g1342
sg66
(lp1357
g59
(g60
g61
NtRp1358
(dp1359
g64
(dp1360
g72
I3
ssg73
g1354
sg66
(lp1361
S''
asbasbasbag59
(g75
g61
NtRp1362
(dp1363
g64
(dp1364
sg73
g1258
sg66
(lp1365
g59
(g80
g61
NtRp1366
(dp1367
g64
(dp1368
g84
g85
ssg73
g1362
sg66
(lp1369
g378
asbag59
(g80
g61
NtRp1370
(dp1371
g64
(dp1372
g91
g92
ssg73
g1362
sg66
(lp1373
S':'
asbag59
(g80
g61
NtRp1374
(dp1375
g64
(dp1376
sg73
g1362
sg66
(lp1377
g59
(g60
g61
NtRp1378
(dp1379
g64
(dp1380
g72
I3
ssg73
g1374
sg66
(lp1381
S''
asbasbasbag59
(g75
g61
NtRp1382
(dp1383
g64
(dp1384
sg73
g1258
sg66
(lp1385
g59
(g80
g61
NtRp1386
(dp1387
g64
(dp1388
g84
g85
ssg73
g1382
sg66
(lp1389
g399
asbag59
(g80
g61
NtRp1390
(dp1391
g64
(dp1392
g91
g92
ssg73
g1382
sg66
(lp1393
S':'
asbag59
(g80
g61
NtRp1394
(dp1395
g64
(dp1396
sg73
g1382
sg66
(lp1397
g59
(g60
g61
NtRp1398
(dp1399
g64
(dp1400
g72
I3
ssg73
g1394
sg66
(lp1401
S''
asbasbasbasbasbasbasbag59
(g75
g61
NtRp1402
(dp1403
g64
(dp1404
sg73
g236
sg66
(lp1405
g59
(g80
g61
NtRp1406
(dp1407
g64
(dp1408
g84
g85
ssg73
g1402
sg66
(lp1409
S'session_id_welcome'
p1410
asbag59
(g80
g61
NtRp1411
(dp1412
g64
(dp1413
g91
g92
ssg73
g1402
sg66
(lp1414
S':'
asbag59
(g80
g61
NtRp1415
(dp1416
g64
(dp1417
sg73
g1402
sg66
(lp1418
g59
(g60
g61
NtRp1419
(dp1420
g64
(dp1421
g72
I4
ssg73
g1415
sg66
(lp1422
g59
(g68
g61
NtRp1423
(dp1424
g64
(dp1425
g72
I3
ssg73
Nsg66
(lp1426
g59
(g75
g61
NtRp1427
(dp1428
g64
(dp1429
sg73
g1423
sg66
(lp1430
g59
(g80
g61
NtRp1431
(dp1432
g64
(dp1433
g84
g85
ssg73
g1427
sg66
(lp1434
g273
asbag59
(g80
g61
NtRp1435
(dp1436
g64
(dp1437
g91
g92
ssg73
g1427
sg66
(lp1438
S':'
asbag59
(g80
g61
NtRp1439
(dp1440
g64
(dp1441
sg73
g1427
sg66
(lp1442
g59
(g60
g61
NtRp1443
(dp1444
g64
(dp1445
g72
I3
ssg73
g1439
sg66
(lp1446
S''
asbasbasbag59
(g75
g61
NtRp1447
(dp1448
g64
(dp1449
sg73
g1423
sg66
(lp1450
g59
(g80
g61
NtRp1451
(dp1452
g64
(dp1453
g84
g85
ssg73
g1447
sg66
(lp1454
g294
asbag59
(g80
g61
NtRp1455
(dp1456
g64
(dp1457
g91
g92
ssg73
g1447
sg66
(lp1458
S':'
asbag59
(g80
g61
NtRp1459
(dp1460
g64
(dp1461
sg73
g1447
sg66
(lp1462
g59
(g60
g61
NtRp1463
(dp1464
g64
(dp1465
g72
I3
ssg73
g1459
sg66
(lp1466
S''
asbasbasbag59
(g75
g61
NtRp1467
(dp1468
g64
(dp1469
sg73
g1423
sg66
(lp1470
g59
(g80
g61
NtRp1471
(dp1472
g64
(dp1473
g84
g85
ssg73
g1467
sg66
(lp1474
g315
asbag59
(g80
g61
NtRp1475
(dp1476
g64
(dp1477
g91
g92
ssg73
g1467
sg66
(lp1478
S':'
asbag59
(g80
g61
NtRp1479
(dp1480
g64
(dp1481
sg73
g1467
sg66
(lp1482
g59
(g60
g61
NtRp1483
(dp1484
g64
(dp1485
g72
I3
ssg73
g1479
sg66
(lp1486
S''
asbasbasbag59
(g75
g61
NtRp1487
(dp1488
g64
(dp1489
sg73
g1423
sg66
(lp1490
g59
(g80
g61
NtRp1491
(dp1492
g64
(dp1493
g84
g85
ssg73
g1487
sg66
(lp1494
g336
asbag59
(g80
g61
NtRp1495
(dp1496
g64
(dp1497
g91
g92
ssg73
g1487
sg66
(lp1498
S':'
asbag59
(g80
g61
NtRp1499
(dp1500
g64
(dp1501
sg73
g1487
sg66
(lp1502
g59
(g60
g61
NtRp1503
(dp1504
g64
(dp1505
g72
I3
ssg73
g1499
sg66
(lp1506
S''
asbasbasbag59
(g75
g61
NtRp1507
(dp1508
g64
(dp1509
sg73
g1423
sg66
(lp1510
g59
(g80
g61
NtRp1511
(dp1512
g64
(dp1513
g84
g85
ssg73
g1507
sg66
(lp1514
g357
asbag59
(g80
g61
NtRp1515
(dp1516
g64
(dp1517
g91
g92
ssg73
g1507
sg66
(lp1518
S':'
asbag59
(g80
g61
NtRp1519
(dp1520
g64
(dp1521
sg73
g1507
sg66
(lp1522
g59
(g60
g61
NtRp1523
(dp1524
g64
(dp1525
g72
I3
ssg73
g1519
sg66
(lp1526
S''
asbasbasbag59
(g75
g61
NtRp1527
(dp1528
g64
(dp1529
sg73
g1423
sg66
(lp1530
g59
(g80
g61
NtRp1531
(dp1532
g64
(dp1533
g84
g85
ssg73
g1527
sg66
(lp1534
g378
asbag59
(g80
g61
NtRp1535
(dp1536
g64
(dp1537
g91
g92
ssg73
g1527
sg66
(lp1538
S':'
asbag59
(g80
g61
NtRp1539
(dp1540
g64
(dp1541
sg73
g1527
sg66
(lp1542
g59
(g60
g61
NtRp1543
(dp1544
g64
(dp1545
g72
I3
ssg73
g1539
sg66
(lp1546
S''
asbasbasbag59
(g75
g61
NtRp1547
(dp1548
g64
(dp1549
sg73
g1423
sg66
(lp1550
g59
(g80
g61
NtRp1551
(dp1552
g64
(dp1553
g84
g85
ssg73
g1547
sg66
(lp1554
g399
asbag59
(g80
g61
NtRp1555
(dp1556
g64
(dp1557
g91
g92
ssg73
g1547
sg66
(lp1558
S':'
asbag59
(g80
g61
NtRp1559
(dp1560
g64
(dp1561
sg73
g1547
sg66
(lp1562
g59
(g60
g61
NtRp1563
(dp1564
g64
(dp1565
g72
I3
ssg73
g1559
sg66
(lp1566
S''
asbasbasbasbasbasbasbasbasbasbasbag59
(g75
g61
NtRp1567
(dp1568
g64
(dp1569
sg73
g69
sg66
(lp1570
g59
(g80
g61
NtRp1571
(dp1572
g64
(dp1573
g84
g85
ssg73
g1567
sg66
(lp1574
S'env'
p1575
asbag59
(g80
g61
NtRp1576
(dp1577
g64
(dp1578
g91
g92
ssg73
g1567
sg66
(lp1579
S':'
asbag59
(g80
g61
NtRp1580
(dp1581
g64
(dp1582
sg73
g1567
sg66
(lp1583
g59
(g60
g61
NtRp1584
(dp1585
g64
(dp1586
g72
I5
ssg73
g1580
sg66
(lp1587
g59
(g68
g61
NtRp1588
(dp1589
g64
(dp1590
g72
I4
ssg73
Nsg66
(lp1591
g59
(g75
g61
NtRp1592
(dp1593
g64
(dp1594
sg73
g1588
sg66
(lp1595
g59
(g80
g61
NtRp1596
(dp1597
g64
(dp1598
g84
g85
ssg73
g1592
sg66
(lp1599
S'app_folders'
p1600
asbag59
(g80
g61
NtRp1601
(dp1602
g64
(dp1603
g91
g92
ssg73
g1592
sg66
(lp1604
S':'
asbag59
(g80
g61
NtRp1605
(dp1606
g64
(dp1607
sg73
g1592
sg66
(lp1608
g59
(g60
g61
NtRp1609
(dp1610
g64
(dp1611
g72
I4
ssg73
g1605
sg66
(lp1612
S"set(['C:\\\\Users\\\\Atomico\\\\web2py\\\\applications\\\\Desglosar_Emails\\\\', 'C:\\\\Users\\\\Atomico\\\\web2py\\\\applications\\\\Cual_es_tu_nombre\\\\', 'C:\\\\Users\\\\Atomico\\\\web2py\\\\applications\\\\admin\\\\', 'C:\\\\Users\\\\Atomico\\\\web2py\\\\applications\\\\hemoal\\\\', 'C:\\\\Users\\\\Atomico\\\\web2py\\\\applications\\\\myAppJav\\\\', 'C:\\\\Users\\\\Atomico\\\\web2py\\\\applications\\\\welcome\\\\', 'C:\\\\Users\\\\Atomico\\\\web2py\\\\applications\\\\borrar2\\\\', 'C:\\\\Users\\\\Atomico\\\\web2py\\\\applications\\\\examples\\\\'])"
p1613
asbasbasbag59
(g75
g61
NtRp1614
(dp1615
g64
(dp1616
sg73
g1588
sg66
(lp1617
g59
(g80
g61
NtRp1618
(dp1619
g64
(dp1620
g84
g85
ssg73
g1614
sg66
(lp1621
S'applications_parent'
p1622
asbag59
(g80
g61
NtRp1623
(dp1624
g64
(dp1625
g91
g92
ssg73
g1614
sg66
(lp1626
S':'
asbag59
(g80
g61
NtRp1627
(dp1628
g64
(dp1629
sg73
g1614
sg66
(lp1630
g59
(g60
g61
NtRp1631
(dp1632
g64
(dp1633
g72
I4
ssg73
g1627
sg66
(lp1634
S'C:\\Users\\Atomico\\web2py'
p1635
asbasbasbag59
(g75
g61
NtRp1636
(dp1637
g64
(dp1638
sg73
g1588
sg66
(lp1639
g59
(g80
g61
NtRp1640
(dp1641
g64
(dp1642
g84
g85
ssg73
g1636
sg66
(lp1643
S'cmd_args'
p1644
asbag59
(g80
g61
NtRp1645
(dp1646
g64
(dp1647
g91
g92
ssg73
g1636
sg66
(lp1648
S':'
asbag59
(g80
g61
NtRp1649
(dp1650
g64
(dp1651
sg73
g1636
sg66
(lp1652
g59
(g60
g61
NtRp1653
(dp1654
g64
(dp1655
g72
I4
ssg73
g1649
sg66
(lp1656
g59
(g68
g61
NtRp1657
(dp1658
g64
(dp1659
g72
I3
ssg73
Nsg66
(lp1660
sbasbasbasbag59
(g75
g61
NtRp1661
(dp1662
g64
(dp1663
sg73
g1588
sg66
(lp1664
g59
(g80
g61
NtRp1665
(dp1666
g64
(dp1667
g84
g85
ssg73
g1661
sg66
(lp1668
S'cmd_options'
p1669
asbag59
(g80
g61
NtRp1670
(dp1671
g64
(dp1672
g91
g92
ssg73
g1661
sg66
(lp1673
S':'
asbag59
(g80
g61
NtRp1674
(dp1675
g64
(dp1676
sg73
g1661
sg66
(lp1677
g59
(g60
g61
NtRp1678
(dp1679
g64
(dp1680
g72
I4
ssg73
g1674
sg66
(lp1681
S"<Values at 0x306b620: {'verbose': False, 'ip': '127.0.0.1', 'shutdown_timeout': 5, 'taskbar': False, 'port': 8000, 'maxthreads': None, 'softcron': False, 'server_name': 'Swing', 'bpython': False, 'nogui': False, 'nocron': False, 'extcron': False, 'debuglevel': 30, 'test': None, 'folder': 'C:\\\\Users\\\\Atomico\\\\web2py', 'config': '', 'import_models': False, 'winservice': '', 'shell': None, 'run': '', 'log_filename': 'httpserver.log', 'args': [''], 'profiler_filename': None, 'ssl_private_key': '', 'password': '<ask>', 'request_queue_size': 5, 'ssl_certificate': '', 'cronjob': False, 'plain': False, 'quiet': False, 'interfaces': None, 'minthreads': None, 'timeout': 10, 'numthreads': None, 'nobanner': False, 'pid_filename': 'httpserver.pid'}>"
p1682
asbasbasbag59
(g75
g61
NtRp1683
(dp1684
g64
(dp1685
sg73
g1588
sg66
(lp1686
g59
(g80
g61
NtRp1687
(dp1688
g64
(dp1689
g84
g85
ssg73
g1683
sg66
(lp1690
S'db_sessions'
p1691
asbag59
(g80
g61
NtRp1692
(dp1693
g64
(dp1694
g91
g92
ssg73
g1683
sg66
(lp1695
S':'
asbag59
(g80
g61
NtRp1696
(dp1697
g64
(dp1698
sg73
g1683
sg66
(lp1699
g59
(g60
g61
NtRp1700
(dp1701
g64
(dp1702
g72
I4
ssg73
g1696
sg66
(lp1703
S'set([])'
p1704
asbasbasbag59
(g75
g61
NtRp1705
(dp1706
g64
(dp1707
sg73
g1588
sg66
(lp1708
g59
(g80
g61
NtRp1709
(dp1710
g64
(dp1711
g84
g85
ssg73
g1705
sg66
(lp1712
S'debugging'
p1713
asbag59
(g80
g61
NtRp1714
(dp1715
g64
(dp1716
g91
g92
ssg73
g1705
sg66
(lp1717
S':'
asbag59
(g80
g61
NtRp1718
(dp1719
g64
(dp1720
sg73
g1705
sg66
(lp1721
g59
(g60
g61
NtRp1722
(dp1723
g64
(dp1724
g72
I4
ssg73
g1718
sg66
(lp1725
g102
asbasbasbag59
(g75
g61
NtRp1726
(dp1727
g64
(dp1728
sg73
g1588
sg66
(lp1729
g59
(g80
g61
NtRp1730
(dp1731
g64
(dp1732
g84
g85
ssg73
g1726
sg66
(lp1733
S'gluon_parent'
p1734
asbag59
(g80
g61
NtRp1735
(dp1736
g64
(dp1737
g91
g92
ssg73
g1726
sg66
(lp1738
S':'
asbag59
(g80
g61
NtRp1739
(dp1740
g64
(dp1741
sg73
g1726
sg66
(lp1742
g59
(g60
g61
NtRp1743
(dp1744
g64
(dp1745
g72
I4
ssg73
g1739
sg66
(lp1746
S'C:\\Users\\Atomico\\web2py'
p1747
asbasbasbag59
(g75
g61
NtRp1748
(dp1749
g64
(dp1750
sg73
g1588
sg66
(lp1751
g59
(g80
g61
NtRp1752
(dp1753
g64
(dp1754
g84
g85
ssg73
g1748
sg66
(lp1755
S'http_accept'
p1756
asbag59
(g80
g61
NtRp1757
(dp1758
g64
(dp1759
g91
g92
ssg73
g1748
sg66
(lp1760
S':'
asbag59
(g80
g61
NtRp1761
(dp1762
g64
(dp1763
sg73
g1748
sg66
(lp1764
g59
(g60
g61
NtRp1765
(dp1766
g64
(dp1767
g72
I4
ssg73
g1761
sg66
(lp1768
S'text/html,application/xhtml+xml,application/xml;q=0.9,*/*;q=0.8'
p1769
asbasbasbag59
(g75
g61
NtRp1770
(dp1771
g64
(dp1772
sg73
g1588
sg66
(lp1773
g59
(g80
g61
NtRp1774
(dp1775
g64
(dp1776
g84
g85
ssg73
g1770
sg66
(lp1777
S'http_accept_charset'
p1778
asbag59
(g80
g61
NtRp1779
(dp1780
g64
(dp1781
g91
g92
ssg73
g1770
sg66
(lp1782
S':'
asbag59
(g80
g61
NtRp1783
(dp1784
g64
(dp1785
sg73
g1770
sg66
(lp1786
g59
(g60
g61
NtRp1787
(dp1788
g64
(dp1789
g72
I4
ssg73
g1783
sg66
(lp1790
S'ISO-8859-1,utf-8;q=0.7,*;q=0.7'
p1791
asbasbasbag59
(g75
g61
NtRp1792
(dp1793
g64
(dp1794
sg73
g1588
sg66
(lp1795
g59
(g80
g61
NtRp1796
(dp1797
g64
(dp1798
g84
g85
ssg73
g1792
sg66
(lp1799
S'http_accept_encoding'
p1800
asbag59
(g80
g61
NtRp1801
(dp1802
g64
(dp1803
g91
g92
ssg73
g1792
sg66
(lp1804
S':'
asbag59
(g80
g61
NtRp1805
(dp1806
g64
(dp1807
sg73
g1792
sg66
(lp1808
g59
(g60
g61
NtRp1809
(dp1810
g64
(dp1811
g72
I4
ssg73
g1805
sg66
(lp1812
S'gzip, deflate'
p1813
asbasbasbag59
(g75
g61
NtRp1814
(dp1815
g64
(dp1816
sg73
g1588
sg66
(lp1817
g59
(g80
g61
NtRp1818
(dp1819
g64
(dp1820
g84
g85
ssg73
g1814
sg66
(lp1821
S'http_accept_language'
p1822
asbag59
(g80
g61
NtRp1823
(dp1824
g64
(dp1825
g91
g92
ssg73
g1814
sg66
(lp1826
S':'
asbag59
(g80
g61
NtRp1827
(dp1828
g64
(dp1829
sg73
g1814
sg66
(lp1830
g59
(g60
g61
NtRp1831
(dp1832
g64
(dp1833
g72
I4
ssg73
g1827
sg66
(lp1834
S'es-es,es;q=0.8,en-us;q=0.5,en;q=0.3'
p1835
asbasbasbag59
(g75
g61
NtRp1836
(dp1837
g64
(dp1838
sg73
g1588
sg66
(lp1839
g59
(g80
g61
NtRp1840
(dp1841
g64
(dp1842
g84
g85
ssg73
g1836
sg66
(lp1843
S'http_cache_control'
p1844
asbag59
(g80
g61
NtRp1845
(dp1846
g64
(dp1847
g91
g92
ssg73
g1836
sg66
(lp1848
S':'
asbag59
(g80
g61
NtRp1849
(dp1850
g64
(dp1851
sg73
g1836
sg66
(lp1852
g59
(g60
g61
NtRp1853
(dp1854
g64
(dp1855
g72
I4
ssg73
g1849
sg66
(lp1856
S'max-age=0'
p1857
asbasbasbag59
(g75
g61
NtRp1858
(dp1859
g64
(dp1860
sg73
g1588
sg66
(lp1861
g59
(g80
g61
NtRp1862
(dp1863
g64
(dp1864
g84
g85
ssg73
g1858
sg66
(lp1865
S'http_connection'
p1866
asbag59
(g80
g61
NtRp1867
(dp1868
g64
(dp1869
g91
g92
ssg73
g1858
sg66
(lp1870
S':'
asbag59
(g80
g61
NtRp1871
(dp1872
g64
(dp1873
sg73
g1858
sg66
(lp1874
g59
(g60
g61
NtRp1875
(dp1876
g64
(dp1877
g72
I4
ssg73
g1871
sg66
(lp1878
S'keep-alive'
p1879
asbasbasbag59
(g75
g61
NtRp1880
(dp1881
g64
(dp1882
sg73
g1588
sg66
(lp1883
g59
(g80
g61
NtRp1884
(dp1885
g64
(dp1886
g84
g85
ssg73
g1880
sg66
(lp1887
S'http_cookie'
p1888
asbag59
(g80
g61
NtRp1889
(dp1890
g64
(dp1891
g91
g92
ssg73
g1880
sg66
(lp1892
S':'
asbag59
(g80
g61
NtRp1893
(dp1894
g64
(dp1895
sg73
g1880
sg66
(lp1896
g59
(g60
g61
NtRp1897
(dp1898
g64
(dp1899
g72
I4
ssg73
g1893
sg66
(lp1900
S'session_id_listado_1=127.0.0.1-477ec098-5436-4f6e-bfee-1a0bd88f6f9e; session_id_hemoal=127.0.0.1-442afb36-a73d-4692-979c-372017ada9e5; session_id_myappjav=127.0.0.1-b6da3776-a7b2-40a7-ab82-4eca2d3263a1; session_id_cual_es_tu_nombre=127.0.0.1-5e59e375-704d-4241-8b9c-5fd9f8c15773; session_id_welcome=127.0.0.1-082a2830-9bb6-4bfb-b2e2-4857b06c191e; session_id_borrar2=127.0.0.1-a9c92f68-d0b3-484c-889c-daaf25ccf891; session_id_admin=127.0.0.1-fa7dcb1d-044d-45ab-baf4-3f6c8db163e6; session_id_desglosar_emails=127.0.0.1-0a11b3b2-660c-433c-b71f-fc129286f26c'
p1901
asbasbasbag59
(g75
g61
NtRp1902
(dp1903
g64
(dp1904
sg73
g1588
sg66
(lp1905
g59
(g80
g61
NtRp1906
(dp1907
g64
(dp1908
g84
g85
ssg73
g1902
sg66
(lp1909
S'http_host'
p1910
asbag59
(g80
g61
NtRp1911
(dp1912
g64
(dp1913
g91
g92
ssg73
g1902
sg66
(lp1914
S':'
asbag59
(g80
g61
NtRp1915
(dp1916
g64
(dp1917
sg73
g1902
sg66
(lp1918
g59
(g60
g61
NtRp1919
(dp1920
g64
(dp1921
g72
I4
ssg73
g1915
sg66
(lp1922
S'127.0.0.1:8000'
p1923
asbasbasbag59
(g75
g61
NtRp1924
(dp1925
g64
(dp1926
sg73
g1588
sg66
(lp1927
g59
(g80
g61
NtRp1928
(dp1929
g64
(dp1930
g84
g85
ssg73
g1924
sg66
(lp1931
S'http_referer'
p1932
asbag59
(g80
g61
NtRp1933
(dp1934
g64
(dp1935
g91
g92
ssg73
g1924
sg66
(lp1936
S':'
asbag59
(g80
g61
NtRp1937
(dp1938
g64
(dp1939
sg73
g1924
sg66
(lp1940
g59
(g60
g61
NtRp1941
(dp1942
g64
(dp1943
g72
I4
ssg73
g1937
sg66
(lp1944
S'http://127.0.0.1:8000/admin/default/design/Desglosar_Emails'
p1945
asbasbasbag59
(g75
g61
NtRp1946
(dp1947
g64
(dp1948
sg73
g1588
sg66
(lp1949
g59
(g80
g61
NtRp1950
(dp1951
g64
(dp1952
g84
g85
ssg73
g1946
sg66
(lp1953
S'http_user_agent'
p1954
asbag59
(g80
g61
NtRp1955
(dp1956
g64
(dp1957
g91
g92
ssg73
g1946
sg66
(lp1958
S':'
asbag59
(g80
g61
NtRp1959
(dp1960
g64
(dp1961
sg73
g1946
sg66
(lp1962
g59
(g60
g61
NtRp1963
(dp1964
g64
(dp1965
g72
I4
ssg73
g1959
sg66
(lp1966
S'Mozilla/5.0 (Windows NT 6.1; WOW64; rv:6.0.2) Gecko/20100101 Firefox/6.0.2'
p1967
asbasbasbag59
(g75
g61
NtRp1968
(dp1969
g64
(dp1970
sg73
g1588
sg66
(lp1971
g59
(g80
g61
NtRp1972
(dp1973
g64
(dp1974
g84
g85
ssg73
g1968
sg66
(lp1975
S'is_jython'
p1976
asbag59
(g80
g61
NtRp1977
(dp1978
g64
(dp1979
g91
g92
ssg73
g1968
sg66
(lp1980
S':'
asbag59
(g80
g61
NtRp1981
(dp1982
g64
(dp1983
sg73
g1968
sg66
(lp1984
g59
(g60
g61
NtRp1985
(dp1986
g64
(dp1987
g72
I4
ssg73
g1981
sg66
(lp1988
g102
asbasbasbag59
(g75
g61
NtRp1989
(dp1990
g64
(dp1991
sg73
g1588
sg66
(lp1992
g59
(g80
g61
NtRp1993
(dp1994
g64
(dp1995
g84
g85
ssg73
g1989
sg66
(lp1996
S'path_info'
p1997
asbag59
(g80
g61
NtRp1998
(dp1999
g64
(dp2000
g91
g92
ssg73
g1989
sg66
(lp2001
S':'
asbag59
(g80
g61
NtRp2002
(dp2003
g64
(dp2004
sg73
g1989
sg66
(lp2005
g59
(g60
g61
NtRp2006
(dp2007
g64
(dp2008
g72
I4
ssg73
g2002
sg66
(lp2009
S'/Desglosar_Emails/default/entrada_mod3'
p2010
asbasbasbag59
(g75
g61
NtRp2011
(dp2012
g64
(dp2013
sg73
g1588
sg66
(lp2014
g59
(g80
g61
NtRp2015
(dp2016
g64
(dp2017
g84
g85
ssg73
g2011
sg66
(lp2018
S'query_string'
p2019
asbag59
(g80
g61
NtRp2020
(dp2021
g64
(dp2022
g91
g92
ssg73
g2011
sg66
(lp2023
S':'
asbag59
(g80
g61
NtRp2024
(dp2025
g64
(dp2026
sg73
g2011
sg66
(lp2027
g59
(g60
g61
NtRp2028
(dp2029
g64
(dp2030
g72
I4
ssg73
g2024
sg66
(lp2031
S''
asbasbasbag59
(g75
g61
NtRp2032
(dp2033
g64
(dp2034
sg73
g1588
sg66
(lp2035
g59
(g80
g61
NtRp2036
(dp2037
g64
(dp2038
g84
g85
ssg73
g2032
sg66
(lp2039
S'remote_addr'
p2040
asbag59
(g80
g61
NtRp2041
(dp2042
g64
(dp2043
g91
g92
ssg73
g2032
sg66
(lp2044
S':'
asbag59
(g80
g61
NtRp2045
(dp2046
g64
(dp2047
sg73
g2032
sg66
(lp2048
g59
(g60
g61
NtRp2049
(dp2050
g64
(dp2051
g72
I4
ssg73
g2045
sg66
(lp2052
g192
asbasbasbag59
(g75
g61
NtRp2053
(dp2054
g64
(dp2055
sg73
g1588
sg66
(lp2056
g59
(g80
g61
NtRp2057
(dp2058
g64
(dp2059
g84
g85
ssg73
g2053
sg66
(lp2060
S'remote_port'
p2061
asbag59
(g80
g61
NtRp2062
(dp2063
g64
(dp2064
g91
g92
ssg73
g2053
sg66
(lp2065
S':'
asbag59
(g80
g61
NtRp2066
(dp2067
g64
(dp2068
sg73
g2053
sg66
(lp2069
g59
(g60
g61
NtRp2070
(dp2071
g64
(dp2072
g72
I4
ssg73
g2066
sg66
(lp2073
S'59882'
p2074
asbasbasbag59
(g75
g61
NtRp2075
(dp2076
g64
(dp2077
sg73
g1588
sg66
(lp2078
g59
(g80
g61
NtRp2079
(dp2080
g64
(dp2081
g84
g85
ssg73
g2075
sg66
(lp2082
S'request_method'
p2083
asbag59
(g80
g61
NtRp2084
(dp2085
g64
(dp2086
g91
g92
ssg73
g2075
sg66
(lp2087
S':'
asbag59
(g80
g61
NtRp2088
(dp2089
g64
(dp2090
sg73
g2075
sg66
(lp2091
g59
(g60
g61
NtRp2092
(dp2093
g64
(dp2094
g72
I4
ssg73
g2088
sg66
(lp2095
S'GET'
p2096
asbasbasbag59
(g75
g61
NtRp2097
(dp2098
g64
(dp2099
sg73
g1588
sg66
(lp2100
g59
(g80
g61
NtRp2101
(dp2102
g64
(dp2103
g84
g85
ssg73
g2097
sg66
(lp2104
S'script_name'
p2105
asbag59
(g80
g61
NtRp2106
(dp2107
g64
(dp2108
g91
g92
ssg73
g2097
sg66
(lp2109
S':'
asbag59
(g80
g61
NtRp2110
(dp2111
g64
(dp2112
sg73
g2097
sg66
(lp2113
g59
(g60
g61
NtRp2114
(dp2115
g64
(dp2116
g72
I4
ssg73
g2110
sg66
(lp2117
S''
asbasbasbag59
(g75
g61
NtRp2118
(dp2119
g64
(dp2120
sg73
g1588
sg66
(lp2121
g59
(g80
g61
NtRp2122
(dp2123
g64
(dp2124
g84
g85
ssg73
g2118
sg66
(lp2125
S'server_name'
p2126
asbag59
(g80
g61
NtRp2127
(dp2128
g64
(dp2129
g91
g92
ssg73
g2118
sg66
(lp2130
S':'
asbag59
(g80
g61
NtRp2131
(dp2132
g64
(dp2133
sg73
g2118
sg66
(lp2134
g59
(g60
g61
NtRp2135
(dp2136
g64
(dp2137
g72
I4
ssg73
g2131
sg66
(lp2138
S'Swing'
p2139
asbasbasbag59
(g75
g61
NtRp2140
(dp2141
g64
(dp2142
sg73
g1588
sg66
(lp2143
g59
(g80
g61
NtRp2144
(dp2145
g64
(dp2146
g84
g85
ssg73
g2140
sg66
(lp2147
S'server_port'
p2148
asbag59
(g80
g61
NtRp2149
(dp2150
g64
(dp2151
g91
g92
ssg73
g2140
sg66
(lp2152
S':'
asbag59
(g80
g61
NtRp2153
(dp2154
g64
(dp2155
sg73
g2140
sg66
(lp2156
g59
(g60
g61
NtRp2157
(dp2158
g64
(dp2159
g72
I4
ssg73
g2153
sg66
(lp2160
S'8000'
p2161
asbasbasbag59
(g75
g61
NtRp2162
(dp2163
g64
(dp2164
sg73
g1588
sg66
(lp2165
g59
(g80
g61
NtRp2166
(dp2167
g64
(dp2168
g84
g85
ssg73
g2162
sg66
(lp2169
S'server_protocol'
p2170
asbag59
(g80
g61
NtRp2171
(dp2172
g64
(dp2173
g91
g92
ssg73
g2162
sg66
(lp2174
S':'
asbag59
(g80
g61
NtRp2175
(dp2176
g64
(dp2177
sg73
g2162
sg66
(lp2178
g59
(g60
g61
NtRp2179
(dp2180
g64
(dp2181
g72
I4
ssg73
g2175
sg66
(lp2182
S'HTTP/1.1'
p2183
asbasbasbag59
(g75
g61
NtRp2184
(dp2185
g64
(dp2186
sg73
g1588
sg66
(lp2187
g59
(g80
g61
NtRp2188
(dp2189
g64
(dp2190
g84
g85
ssg73
g2184
sg66
(lp2191
S'server_software'
p2192
asbag59
(g80
g61
NtRp2193
(dp2194
g64
(dp2195
g91
g92
ssg73
g2184
sg66
(lp2196
S':'
asbag59
(g80
g61
NtRp2197
(dp2198
g64
(dp2199
sg73
g2184
sg66
(lp2200
g59
(g60
g61
NtRp2201
(dp2202
g64
(dp2203
g72
I4
ssg73
g2197
sg66
(lp2204
S'Rocket 1.2.2'
p2205
asbasbasbag59
(g75
g61
NtRp2206
(dp2207
g64
(dp2208
sg73
g1588
sg66
(lp2209
g59
(g80
g61
NtRp2210
(dp2211
g64
(dp2212
g84
g85
ssg73
g2206
sg66
(lp2213
S'web2py_crontype'
p2214
asbag59
(g80
g61
NtRp2215
(dp2216
g64
(dp2217
g91
g92
ssg73
g2206
sg66
(lp2218
S':'
asbag59
(g80
g61
NtRp2219
(dp2220
g64
(dp2221
sg73
g2206
sg66
(lp2222
g59
(g60
g61
NtRp2223
(dp2224
g64
(dp2225
g72
I4
ssg73
g2219
sg66
(lp2226
S'hard'
p2227
asbasbasbag59
(g75
g61
NtRp2228
(dp2229
g64
(dp2230
sg73
g1588
sg66
(lp2231
g59
(g80
g61
NtRp2232
(dp2233
g64
(dp2234
g84
g85
ssg73
g2228
sg66
(lp2235
S'web2py_path'
p2236
asbag59
(g80
g61
NtRp2237
(dp2238
g64
(dp2239
g91
g92
ssg73
g2228
sg66
(lp2240
S':'
asbag59
(g80
g61
NtRp2241
(dp2242
g64
(dp2243
sg73
g2228
sg66
(lp2244
g59
(g60
g61
NtRp2245
(dp2246
g64
(dp2247
g72
I4
ssg73
g2241
sg66
(lp2248
g1635
asbasbasbag59
(g75
g61
NtRp2249
(dp2250
g64
(dp2251
sg73
g1588
sg66
(lp2252
g59
(g80
g61
NtRp2253
(dp2254
g64
(dp2255
g84
g85
ssg73
g2249
sg66
(lp2256
S'web2py_version'
p2257
asbag59
(g80
g61
NtRp2258
(dp2259
g64
(dp2260
g91
g92
ssg73
g2249
sg66
(lp2261
S':'
asbag59
(g80
g61
NtRp2262
(dp2263
g64
(dp2264
sg73
g2249
sg66
(lp2265
g59
(g60
g61
NtRp2266
(dp2267
g64
(dp2268
g72
I4
ssg73
g2262
sg66
(lp2269
S'Version 1.98.2 (2011-08-04 00:47:09)\n'
p2270
asbasbasbag59
(g75
g61
NtRp2271
(dp2272
g64
(dp2273
sg73
g1588
sg66
(lp2274
g59
(g80
g61
NtRp2275
(dp2276
g64
(dp2277
g84
g85
ssg73
g2271
sg66
(lp2278
S'wsgi_errors'
p2279
asbag59
(g80
g61
NtRp2280
(dp2281
g64
(dp2282
g91
g92
ssg73
g2271
sg66
(lp2283
S':'
asbag59
(g80
g61
NtRp2284
(dp2285
g64
(dp2286
sg73
g2271
sg66
(lp2287
g59
(g60
g61
NtRp2288
(dp2289
g64
(dp2290
g72
I4
ssg73
g2284
sg66
(lp2291
S"<open file '<stderr>', mode 'w' at 0x003100B0>"
p2292
asbasbasbag59
(g75
g61
NtRp2293
(dp2294
g64
(dp2295
sg73
g1588
sg66
(lp2296
g59
(g80
g61
NtRp2297
(dp2298
g64
(dp2299
g84
g85
ssg73
g2293
sg66
(lp2300
S'wsgi_file_wrapper'
p2301
asbag59
(g80
g61
NtRp2302
(dp2303
g64
(dp2304
g91
g92
ssg73
g2293
sg66
(lp2305
S':'
asbag59
(g80
g61
NtRp2306
(dp2307
g64
(dp2308
sg73
g2293
sg66
(lp2309
g59
(g60
g61
NtRp2310
(dp2311
g64
(dp2312
g72
I4
ssg73
g2306
sg66
(lp2313
S'<class gluon.rocket.FileWrapper at 0x02FFC1B0>'
p2314
asbasbasbag59
(g75
g61
NtRp2315
(dp2316
g64
(dp2317
sg73
g1588
sg66
(lp2318
g59
(g80
g61
NtRp2319
(dp2320
g64
(dp2321
g84
g85
ssg73
g2315
sg66
(lp2322
S'wsgi_input'
p2323
asbag59
(g80
g61
NtRp2324
(dp2325
g64
(dp2326
g91
g92
ssg73
g2315
sg66
(lp2327
S':'
asbag59
(g80
g61
NtRp2328
(dp2329
g64
(dp2330
sg73
g2315
sg66
(lp2331
g59
(g60
g61
NtRp2332
(dp2333
g64
(dp2334
g72
I4
ssg73
g2328
sg66
(lp2335
S'<socket._fileobject object at 0x089EF130>'
p2336
asbasbasbag59
(g75
g61
NtRp2337
(dp2338
g64
(dp2339
sg73
g1588
sg66
(lp2340
g59
(g80
g61
NtRp2341
(dp2342
g64
(dp2343
g84
g85
ssg73
g2337
sg66
(lp2344
S'wsgi_multiprocess'
p2345
asbag59
(g80
g61
NtRp2346
(dp2347
g64
(dp2348
g91
g92
ssg73
g2337
sg66
(lp2349
S':'
asbag59
(g80
g61
NtRp2350
(dp2351
g64
(dp2352
sg73
g2337
sg66
(lp2353
g59
(g60
g61
NtRp2354
(dp2355
g64
(dp2356
g72
I4
ssg73
g2350
sg66
(lp2357
g102
asbasbasbag59
(g75
g61
NtRp2358
(dp2359
g64
(dp2360
sg73
g1588
sg66
(lp2361
g59
(g80
g61
NtRp2362
(dp2363
g64
(dp2364
g84
g85
ssg73
g2358
sg66
(lp2365
S'wsgi_multithread'
p2366
asbag59
(g80
g61
NtRp2367
(dp2368
g64
(dp2369
g91
g92
ssg73
g2358
sg66
(lp2370
S':'
asbag59
(g80
g61
NtRp2371
(dp2372
g64
(dp2373
sg73
g2358
sg66
(lp2374
g59
(g60
g61
NtRp2375
(dp2376
g64
(dp2377
g72
I4
ssg73
g2371
sg66
(lp2378
S'True'
p2379
asbasbasbag59
(g75
g61
NtRp2380
(dp2381
g64
(dp2382
sg73
g1588
sg66
(lp2383
g59
(g80
g61
NtRp2384
(dp2385
g64
(dp2386
g84
g85
ssg73
g2380
sg66
(lp2387
S'wsgi_run_once'
p2388
asbag59
(g80
g61
NtRp2389
(dp2390
g64
(dp2391
g91
g92
ssg73
g2380
sg66
(lp2392
S':'
asbag59
(g80
g61
NtRp2393
(dp2394
g64
(dp2395
sg73
g2380
sg66
(lp2396
g59
(g60
g61
NtRp2397
(dp2398
g64
(dp2399
g72
I4
ssg73
g2393
sg66
(lp2400
g102
asbasbasbag59
(g75
g61
NtRp2401
(dp2402
g64
(dp2403
sg73
g1588
sg66
(lp2404
g59
(g80
g61
NtRp2405
(dp2406
g64
(dp2407
g84
g85
ssg73
g2401
sg66
(lp2408
S'wsgi_url_scheme'
p2409
asbag59
(g80
g61
NtRp2410
(dp2411
g64
(dp2412
g91
g92
ssg73
g2401
sg66
(lp2413
S':'
asbag59
(g80
g61
NtRp2414
(dp2415
g64
(dp2416
sg73
g2401
sg66
(lp2417
g59
(g60
g61
NtRp2418
(dp2419
g64
(dp2420
g72
I4
ssg73
g2414
sg66
(lp2421
S'http'
p2422
asbasbasbag59
(g75
g61
NtRp2423
(dp2424
g64
(dp2425
sg73
g1588
sg66
(lp2426
g59
(g80
g61
NtRp2427
(dp2428
g64
(dp2429
g84
g85
ssg73
g2423
sg66
(lp2430
S'wsgi_version'
p2431
asbag59
(g80
g61
NtRp2432
(dp2433
g64
(dp2434
g91
g92
ssg73
g2423
sg66
(lp2435
S':'
asbag59
(g80
g61
NtRp2436
(dp2437
g64
(dp2438
sg73
g2423
sg66
(lp2439
g59
(g60
g61
NtRp2440
(dp2441
g64
(dp2442
g72
I4
ssg73
g2436
sg66
(lp2443
g59
(g68
g61
NtRp2444
(dp2445
g64
(dp2446
g72
I3
ssg73
Nsg66
(lp2447
g59
(g75
g61
NtRp2448
(dp2449
g64
(dp2450
sg73
g2444
sg66
(lp2451
g59
(g80
g61
NtRp2452
(dp2453
g64
(dp2454
sg73
g2448
sg66
(lp2455
g59
(g60
g61
NtRp2456
(dp2457
g64
(dp2458
g72
I3
ssg73
g2452
sg66
(lp2459
S'1'
asbasbasbag59
(g75
g61
NtRp2460
(dp2461
g64
(dp2462
sg73
g2444
sg66
(lp2463
g59
(g80
g61
NtRp2464
(dp2465
g64
(dp2466
sg73
g2460
sg66
(lp2467
g59
(g60
g61
NtRp2468
(dp2469
g64
(dp2470
g72
I3
ssg73
g2464
sg66
(lp2471
S'0'
asbasbasbasbasbasbasbasbasbasbasbag59
(g75
g61
NtRp2472
(dp2473
g64
(dp2474
sg73
g69
sg66
(lp2475
g59
(g80
g61
NtRp2476
(dp2477
g64
(dp2478
g84
g85
ssg73
g2472
sg66
(lp2479
S'extension'
p2480
asbag59
(g80
g61
NtRp2481
(dp2482
g64
(dp2483
g91
g92
ssg73
g2472
sg66
(lp2484
S':'
asbag59
(g80
g61
NtRp2485
(dp2486
g64
(dp2487
sg73
g2472
sg66
(lp2488
g59
(g60
g61
NtRp2489
(dp2490
g64
(dp2491
g72
I5
ssg73
g2485
sg66
(lp2492
S'html'
p2493
asbasbasbag59
(g75
g61
NtRp2494
(dp2495
g64
(dp2496
sg73
g69
sg66
(lp2497
g59
(g80
g61
NtRp2498
(dp2499
g64
(dp2500
g84
g85
ssg73
g2494
sg66
(lp2501
S'folder'
p2502
asbag59
(g80
g61
NtRp2503
(dp2504
g64
(dp2505
g91
g92
ssg73
g2494
sg66
(lp2506
S':'
asbag59
(g80
g61
NtRp2507
(dp2508
g64
(dp2509
sg73
g2494
sg66
(lp2510
g59
(g60
g61
NtRp2511
(dp2512
g64
(dp2513
g72
I5
ssg73
g2507
sg66
(lp2514
S'C:\\Users\\Atomico\\web2py\\applications\\Desglosar_Emails\\'
p2515
asbasbasbag59
(g75
g61
NtRp2516
(dp2517
g64
(dp2518
sg73
g69
sg66
(lp2519
g59
(g80
g61
NtRp2520
(dp2521
g64
(dp2522
g84
g85
ssg73
g2516
sg66
(lp2523
S'function'
p2524
asbag59
(g80
g61
NtRp2525
(dp2526
g64
(dp2527
g91
g92
ssg73
g2516
sg66
(lp2528
S':'
asbag59
(g80
g61
NtRp2529
(dp2530
g64
(dp2531
sg73
g2516
sg66
(lp2532
g59
(g60
g61
NtRp2533
(dp2534
g64
(dp2535
g72
I5
ssg73
g2529
sg66
(lp2536
S'entrada_mod3'
p2537
asbasbasbag59
(g75
g61
NtRp2538
(dp2539
g64
(dp2540
sg73
g69
sg66
(lp2541
g59
(g80
g61
NtRp2542
(dp2543
g64
(dp2544
g84
g85
ssg73
g2538
sg66
(lp2545
S'get_vars'
p2546
asbag59
(g80
g61
NtRp2547
(dp2548
g64
(dp2549
g91
g92
ssg73
g2538
sg66
(lp2550
S':'
asbag59
(g80
g61
NtRp2551
(dp2552
g64
(dp2553
sg73
g2538
sg66
(lp2554
g59
(g60
g61
NtRp2555
(dp2556
g64
(dp2557
g72
I5
ssg73
g2551
sg66
(lp2558
g59
(g68
g61
NtRp2559
(dp2560
g64
(dp2561
g72
I4
ssg73
Nsg66
(lp2562
sbasbasbasbag59
(g75
g61
NtRp2563
(dp2564
g64
(dp2565
sg73
g69
sg66
(lp2566
g59
(g80
g61
NtRp2567
(dp2568
g64
(dp2569
g84
g85
ssg73
g2563
sg66
(lp2570
S'is_https'
p2571
asbag59
(g80
g61
NtRp2572
(dp2573
g64
(dp2574
g91
g92
ssg73
g2563
sg66
(lp2575
S':'
asbag59
(g80
g61
NtRp2576
(dp2577
g64
(dp2578
sg73
g2563
sg66
(lp2579
g59
(g60
g61
NtRp2580
(dp2581
g64
(dp2582
g72
I5
ssg73
g2576
sg66
(lp2583
g102
asbasbasbag59
(g75
g61
NtRp2584
(dp2585
g64
(dp2586
sg73
g69
sg66
(lp2587
g59
(g80
g61
NtRp2588
(dp2589
g64
(dp2590
g84
g85
ssg73
g2584
sg66
(lp2591
S'is_local'
p2592
asbag59
(g80
g61
NtRp2593
(dp2594
g64
(dp2595
g91
g92
ssg73
g2584
sg66
(lp2596
S':'
asbag59
(g80
g61
NtRp2597
(dp2598
g64
(dp2599
sg73
g2584
sg66
(lp2600
g59
(g60
g61
NtRp2601
(dp2602
g64
(dp2603
g72
I5
ssg73
g2597
sg66
(lp2604
g2379
asbasbasbag59
(g75
g61
NtRp2605
(dp2606
g64
(dp2607
sg73
g69
sg66
(lp2608
g59
(g80
g61
NtRp2609
(dp2610
g64
(dp2611
g84
g85
ssg73
g2605
sg66
(lp2612
S'is_restful'
p2613
asbag59
(g80
g61
NtRp2614
(dp2615
g64
(dp2616
g91
g92
ssg73
g2605
sg66
(lp2617
S':'
asbag59
(g80
g61
NtRp2618
(dp2619
g64
(dp2620
sg73
g2605
sg66
(lp2621
g59
(g60
g61
NtRp2622
(dp2623
g64
(dp2624
g72
I5
ssg73
g2618
sg66
(lp2625
g102
asbasbasbag59
(g75
g61
NtRp2626
(dp2627
g64
(dp2628
sg73
g69
sg66
(lp2629
g59
(g80
g61
NtRp2630
(dp2631
g64
(dp2632
g84
g85
ssg73
g2626
sg66
(lp2633
S'now'
p2634
asbag59
(g80
g61
NtRp2635
(dp2636
g64
(dp2637
g91
g92
ssg73
g2626
sg66
(lp2638
S':'
asbag59
(g80
g61
NtRp2639
(dp2640
g64
(dp2641
sg73
g2626
sg66
(lp2642
g59
(g60
g61
NtRp2643
(dp2644
g64
(dp2645
g72
I5
ssg73
g2639
sg66
(lp2646
S'datetime.datetime(2011, 9, 20, 7, 33, 58, 507000)'
p2647
asbasbasbag59
(g75
g61
NtRp2648
(dp2649
g64
(dp2650
sg73
g69
sg66
(lp2651
g59
(g80
g61
NtRp2652
(dp2653
g64
(dp2654
g84
g85
ssg73
g2648
sg66
(lp2655
S'post_vars'
p2656
asbag59
(g80
g61
NtRp2657
(dp2658
g64
(dp2659
g91
g92
ssg73
g2648
sg66
(lp2660
S':'
asbag59
(g80
g61
NtRp2661
(dp2662
g64
(dp2663
sg73
g2648
sg66
(lp2664
g59
(g60
g61
NtRp2665
(dp2666
g64
(dp2667
g72
I5
ssg73
g2661
sg66
(lp2668
g59
(g68
g61
NtRp2669
(dp2670
g64
(dp2671
g72
I4
ssg73
Nsg66
(lp2672
sbasbasbasbag59
(g75
g61
NtRp2673
(dp2674
g64
(dp2675
sg73
g69
sg66
(lp2676
g59
(g80
g61
NtRp2677
(dp2678
g64
(dp2679
g84
g85
ssg73
g2673
sg66
(lp2680
S'url'
p2681
asbag59
(g80
g61
NtRp2682
(dp2683
g64
(dp2684
g91
g92
ssg73
g2673
sg66
(lp2685
S':'
asbag59
(g80
g61
NtRp2686
(dp2687
g64
(dp2688
sg73
g2673
sg66
(lp2689
g59
(g60
g61
NtRp2690
(dp2691
g64
(dp2692
g72
I5
ssg73
g2686
sg66
(lp2693
S'/Desglosar_Emails/default/entrada_mod3'
p2694
asbasbasbag59
(g75
g61
NtRp2695
(dp2696
g64
(dp2697
sg73
g69
sg66
(lp2698
g59
(g80
g61
NtRp2699
(dp2700
g64
(dp2701
g84
g85
ssg73
g2695
sg66
(lp2702
S'uuid'
p2703
asbag59
(g80
g61
NtRp2704
(dp2705
g64
(dp2706
g91
g92
ssg73
g2695
sg66
(lp2707
S':'
asbag59
(g80
g61
NtRp2708
(dp2709
g64
(dp2710
sg73
g2695
sg66
(lp2711
g59
(g60
g61
NtRp2712
(dp2713
g64
(dp2714
g72
I5
ssg73
g2708
sg66
(lp2715
S'Desglosar_Emails/127.0.0.1.2011-09-20.07-33-58.33b0d5eb-f16b-47ba-9cd4-7c7c598384c3'
p2716
asbasbasbag59
(g75
g61
NtRp2717
(dp2718
g64
(dp2719
sg73
g69
sg66
(lp2720
g59
(g80
g61
NtRp2721
(dp2722
g64
(dp2723
g84
g85
ssg73
g2717
sg66
(lp2724
S'vars'
p2725
asbag59
(g80
g61
NtRp2726
(dp2727
g64
(dp2728
g91
g92
ssg73
g2717
sg66
(lp2729
S':'
asbag59
(g80
g61
NtRp2730
(dp2731
g64
(dp2732
sg73
g2717
sg66
(lp2733
g59
(g60
g61
NtRp2734
(dp2735
g64
(dp2736
g72
I5
ssg73
g2730
sg66
(lp2737
g59
(g68
g61
NtRp2738
(dp2739
g64
(dp2740
g72
I4
ssg73
Nsg66
(lp2741
sbasbasbasbag59
(g75
g61
NtRp2742
(dp2743
g64
(dp2744
sg73
g69
sg66
(lp2745
g59
(g80
g61
NtRp2746
(dp2747
g64
(dp2748
g84
g85
ssg73
g2742
sg66
(lp2749
S'wsgi'
p2750
asbag59
(g80
g61
NtRp2751
(dp2752
g64
(dp2753
g91
g92
ssg73
g2742
sg66
(lp2754
S':'
asbag59
(g80
g61
NtRp2755
(dp2756
g64
(dp2757
sg73
g2742
sg66
(lp2758
g59
(g60
g61
NtRp2759
(dp2760
g64
(dp2761
g72
I5
ssg73
g2755
sg66
(lp2762
g59
(g68
g61
NtRp2763
(dp2764
g64
(dp2765
g72
I4
ssg73
Nsg66
(lp2766
g59
(g75
g61
NtRp2767
(dp2768
g64
(dp2769
sg73
g2763
sg66
(lp2770
g59
(g80
g61
NtRp2771
(dp2772
g64
(dp2773
g84
g85
ssg73
g2767
sg66
(lp2774
S'environ'
p2775
asbag59
(g80
g61
NtRp2776
(dp2777
g64
(dp2778
g91
g92
ssg73
g2767
sg66
(lp2779
S':'
asbag59
(g80
g61
NtRp2780
(dp2781
g64
(dp2782
sg73
g2767
sg66
(lp2783
g59
(g60
g61
NtRp2784
(dp2785
g64
(dp2786
g72
I4
ssg73
g2780
sg66
(lp2787
g59
(g68
g61
NtRp2788
(dp2789
g64
(dp2790
g72
I3
ssg73
Nsg66
(lp2791
g59
(g75
g61
NtRp2792
(dp2793
g64
(dp2794
sg73
g2788
sg66
(lp2795
g59
(g80
g61
NtRp2796
(dp2797
g64
(dp2798
g84
g85
ssg73
g2792
sg66
(lp2799
S'HTTP_ACCEPT'
p2800
asbag59
(g80
g61
NtRp2801
(dp2802
g64
(dp2803
g91
g92
ssg73
g2792
sg66
(lp2804
S':'
asbag59
(g80
g61
NtRp2805
(dp2806
g64
(dp2807
sg73
g2792
sg66
(lp2808
g59
(g60
g61
NtRp2809
(dp2810
g64
(dp2811
g72
I3
ssg73
g2805
sg66
(lp2812
g1769
asbasbasbag59
(g75
g61
NtRp2813
(dp2814
g64
(dp2815
sg73
g2788
sg66
(lp2816
g59
(g80
g61
NtRp2817
(dp2818
g64
(dp2819
g84
g85
ssg73
g2813
sg66
(lp2820
S'HTTP_ACCEPT_CHARSET'
p2821
asbag59
(g80
g61
NtRp2822
(dp2823
g64
(dp2824
g91
g92
ssg73
g2813
sg66
(lp2825
S':'
asbag59
(g80
g61
NtRp2826
(dp2827
g64
(dp2828
sg73
g2813
sg66
(lp2829
g59
(g60
g61
NtRp2830
(dp2831
g64
(dp2832
g72
I3
ssg73
g2826
sg66
(lp2833
g1791
asbasbasbag59
(g75
g61
NtRp2834
(dp2835
g64
(dp2836
sg73
g2788
sg66
(lp2837
g59
(g80
g61
NtRp2838
(dp2839
g64
(dp2840
g84
g85
ssg73
g2834
sg66
(lp2841
S'HTTP_ACCEPT_ENCODING'
p2842
asbag59
(g80
g61
NtRp2843
(dp2844
g64
(dp2845
g91
g92
ssg73
g2834
sg66
(lp2846
S':'
asbag59
(g80
g61
NtRp2847
(dp2848
g64
(dp2849
sg73
g2834
sg66
(lp2850
g59
(g60
g61
NtRp2851
(dp2852
g64
(dp2853
g72
I3
ssg73
g2847
sg66
(lp2854
g1813
asbasbasbag59
(g75
g61
NtRp2855
(dp2856
g64
(dp2857
sg73
g2788
sg66
(lp2858
g59
(g80
g61
NtRp2859
(dp2860
g64
(dp2861
g84
g85
ssg73
g2855
sg66
(lp2862
S'HTTP_ACCEPT_LANGUAGE'
p2863
asbag59
(g80
g61
NtRp2864
(dp2865
g64
(dp2866
g91
g92
ssg73
g2855
sg66
(lp2867
S':'
asbag59
(g80
g61
NtRp2868
(dp2869
g64
(dp2870
sg73
g2855
sg66
(lp2871
g59
(g60
g61
NtRp2872
(dp2873
g64
(dp2874
g72
I3
ssg73
g2868
sg66
(lp2875
g1835
asbasbasbag59
(g75
g61
NtRp2876
(dp2877
g64
(dp2878
sg73
g2788
sg66
(lp2879
g59
(g80
g61
NtRp2880
(dp2881
g64
(dp2882
g84
g85
ssg73
g2876
sg66
(lp2883
S'HTTP_CACHE_CONTROL'
p2884
asbag59
(g80
g61
NtRp2885
(dp2886
g64
(dp2887
g91
g92
ssg73
g2876
sg66
(lp2888
S':'
asbag59
(g80
g61
NtRp2889
(dp2890
g64
(dp2891
sg73
g2876
sg66
(lp2892
g59
(g60
g61
NtRp2893
(dp2894
g64
(dp2895
g72
I3
ssg73
g2889
sg66
(lp2896
g1857
asbasbasbag59
(g75
g61
NtRp2897
(dp2898
g64
(dp2899
sg73
g2788
sg66
(lp2900
g59
(g80
g61
NtRp2901
(dp2902
g64
(dp2903
g84
g85
ssg73
g2897
sg66
(lp2904
S'HTTP_CONNECTION'
p2905
asbag59
(g80
g61
NtRp2906
(dp2907
g64
(dp2908
g91
g92
ssg73
g2897
sg66
(lp2909
S':'
asbag59
(g80
g61
NtRp2910
(dp2911
g64
(dp2912
sg73
g2897
sg66
(lp2913
g59
(g60
g61
NtRp2914
(dp2915
g64
(dp2916
g72
I3
ssg73
g2910
sg66
(lp2917
g1879
asbasbasbag59
(g75
g61
NtRp2918
(dp2919
g64
(dp2920
sg73
g2788
sg66
(lp2921
g59
(g80
g61
NtRp2922
(dp2923
g64
(dp2924
g84
g85
ssg73
g2918
sg66
(lp2925
S'HTTP_COOKIE'
p2926
asbag59
(g80
g61
NtRp2927
(dp2928
g64
(dp2929
g91
g92
ssg73
g2918
sg66
(lp2930
S':'
asbag59
(g80
g61
NtRp2931
(dp2932
g64
(dp2933
sg73
g2918
sg66
(lp2934
g59
(g60
g61
NtRp2935
(dp2936
g64
(dp2937
g72
I3
ssg73
g2931
sg66
(lp2938
g1901
asbasbasbag59
(g75
g61
NtRp2939
(dp2940
g64
(dp2941
sg73
g2788
sg66
(lp2942
g59
(g80
g61
NtRp2943
(dp2944
g64
(dp2945
g84
g85
ssg73
g2939
sg66
(lp2946
S'HTTP_HOST'
p2947
asbag59
(g80
g61
NtRp2948
(dp2949
g64
(dp2950
g91
g92
ssg73
g2939
sg66
(lp2951
S':'
asbag59
(g80
g61
NtRp2952
(dp2953
g64
(dp2954
sg73
g2939
sg66
(lp2955
g59
(g60
g61
NtRp2956
(dp2957
g64
(dp2958
g72
I3
ssg73
g2952
sg66
(lp2959
g1923
asbasbasbag59
(g75
g61
NtRp2960
(dp2961
g64
(dp2962
sg73
g2788
sg66
(lp2963
g59
(g80
g61
NtRp2964
(dp2965
g64
(dp2966
g84
g85
ssg73
g2960
sg66
(lp2967
S'HTTP_REFERER'
p2968
asbag59
(g80
g61
NtRp2969
(dp2970
g64
(dp2971
g91
g92
ssg73
g2960
sg66
(lp2972
S':'
asbag59
(g80
g61
NtRp2973
(dp2974
g64
(dp2975
sg73
g2960
sg66
(lp2976
g59
(g60
g61
NtRp2977
(dp2978
g64
(dp2979
g72
I3
ssg73
g2973
sg66
(lp2980
g1945
asbasbasbag59
(g75
g61
NtRp2981
(dp2982
g64
(dp2983
sg73
g2788
sg66
(lp2984
g59
(g80
g61
NtRp2985
(dp2986
g64
(dp2987
g84
g85
ssg73
g2981
sg66
(lp2988
S'HTTP_USER_AGENT'
p2989
asbag59
(g80
g61
NtRp2990
(dp2991
g64
(dp2992
g91
g92
ssg73
g2981
sg66
(lp2993
S':'
asbag59
(g80
g61
NtRp2994
(dp2995
g64
(dp2996
sg73
g2981
sg66
(lp2997
g59
(g60
g61
NtRp2998
(dp2999
g64
(dp3000
g72
I3
ssg73
g2994
sg66
(lp3001
g1967
asbasbasbag59
(g75
g61
NtRp3002
(dp3003
g64
(dp3004
sg73
g2788
sg66
(lp3005
g59
(g80
g61
NtRp3006
(dp3007
g64
(dp3008
g84
g85
ssg73
g3002
sg66
(lp3009
S'PATH_INFO'
p3010
asbag59
(g80
g61
NtRp3011
(dp3012
g64
(dp3013
g91
g92
ssg73
g3002
sg66
(lp3014
S':'
asbag59
(g80
g61
NtRp3015
(dp3016
g64
(dp3017
sg73
g3002
sg66
(lp3018
g59
(g60
g61
NtRp3019
(dp3020
g64
(dp3021
g72
I3
ssg73
g3015
sg66
(lp3022
g2010
asbasbasbag59
(g75
g61
NtRp3023
(dp3024
g64
(dp3025
sg73
g2788
sg66
(lp3026
g59
(g80
g61
NtRp3027
(dp3028
g64
(dp3029
g84
g85
ssg73
g3023
sg66
(lp3030
S'QUERY_STRING'
p3031
asbag59
(g80
g61
NtRp3032
(dp3033
g64
(dp3034
g91
g92
ssg73
g3023
sg66
(lp3035
S':'
asbag59
(g80
g61
NtRp3036
(dp3037
g64
(dp3038
sg73
g3023
sg66
(lp3039
g59
(g60
g61
NtRp3040
(dp3041
g64
(dp3042
g72
I3
ssg73
g3036
sg66
(lp3043
S''
asbasbasbag59
(g75
g61
NtRp3044
(dp3045
g64
(dp3046
sg73
g2788
sg66
(lp3047
g59
(g80
g61
NtRp3048
(dp3049
g64
(dp3050
g84
g85
ssg73
g3044
sg66
(lp3051
S'REMOTE_ADDR'
p3052
asbag59
(g80
g61
NtRp3053
(dp3054
g64
(dp3055
g91
g92
ssg73
g3044
sg66
(lp3056
S':'
asbag59
(g80
g61
NtRp3057
(dp3058
g64
(dp3059
sg73
g3044
sg66
(lp3060
g59
(g60
g61
NtRp3061
(dp3062
g64
(dp3063
g72
I3
ssg73
g3057
sg66
(lp3064
g192
asbasbasbag59
(g75
g61
NtRp3065
(dp3066
g64
(dp3067
sg73
g2788
sg66
(lp3068
g59
(g80
g61
NtRp3069
(dp3070
g64
(dp3071
g84
g85
ssg73
g3065
sg66
(lp3072
S'REMOTE_PORT'
p3073
asbag59
(g80
g61
NtRp3074
(dp3075
g64
(dp3076
g91
g92
ssg73
g3065
sg66
(lp3077
S':'
asbag59
(g80
g61
NtRp3078
(dp3079
g64
(dp3080
sg73
g3065
sg66
(lp3081
g59
(g60
g61
NtRp3082
(dp3083
g64
(dp3084
g72
I3
ssg73
g3078
sg66
(lp3085
g2074
asbasbasbag59
(g75
g61
NtRp3086
(dp3087
g64
(dp3088
sg73
g2788
sg66
(lp3089
g59
(g80
g61
NtRp3090
(dp3091
g64
(dp3092
g84
g85
ssg73
g3086
sg66
(lp3093
S'REQUEST_METHOD'
p3094
asbag59
(g80
g61
NtRp3095
(dp3096
g64
(dp3097
g91
g92
ssg73
g3086
sg66
(lp3098
S':'
asbag59
(g80
g61
NtRp3099
(dp3100
g64
(dp3101
sg73
g3086
sg66
(lp3102
g59
(g60
g61
NtRp3103
(dp3104
g64
(dp3105
g72
I3
ssg73
g3099
sg66
(lp3106
g2096
asbasbasbag59
(g75
g61
NtRp3107
(dp3108
g64
(dp3109
sg73
g2788
sg66
(lp3110
g59
(g80
g61
NtRp3111
(dp3112
g64
(dp3113
g84
g85
ssg73
g3107
sg66
(lp3114
S'SCRIPT_NAME'
p3115
asbag59
(g80
g61
NtRp3116
(dp3117
g64
(dp3118
g91
g92
ssg73
g3107
sg66
(lp3119
S':'
asbag59
(g80
g61
NtRp3120
(dp3121
g64
(dp3122
sg73
g3107
sg66
(lp3123
g59
(g60
g61
NtRp3124
(dp3125
g64
(dp3126
g72
I3
ssg73
g3120
sg66
(lp3127
S''
asbasbasbag59
(g75
g61
NtRp3128
(dp3129
g64
(dp3130
sg73
g2788
sg66
(lp3131
g59
(g80
g61
NtRp3132
(dp3133
g64
(dp3134
g84
g85
ssg73
g3128
sg66
(lp3135
S'SERVER_NAME'
p3136
asbag59
(g80
g61
NtRp3137
(dp3138
g64
(dp3139
g91
g92
ssg73
g3128
sg66
(lp3140
S':'
asbag59
(g80
g61
NtRp3141
(dp3142
g64
(dp3143
sg73
g3128
sg66
(lp3144
g59
(g60
g61
NtRp3145
(dp3146
g64
(dp3147
g72
I3
ssg73
g3141
sg66
(lp3148
g2139
asbasbasbag59
(g75
g61
NtRp3149
(dp3150
g64
(dp3151
sg73
g2788
sg66
(lp3152
g59
(g80
g61
NtRp3153
(dp3154
g64
(dp3155
g84
g85
ssg73
g3149
sg66
(lp3156
S'SERVER_PORT'
p3157
asbag59
(g80
g61
NtRp3158
(dp3159
g64
(dp3160
g91
g92
ssg73
g3149
sg66
(lp3161
S':'
asbag59
(g80
g61
NtRp3162
(dp3163
g64
(dp3164
sg73
g3149
sg66
(lp3165
g59
(g60
g61
NtRp3166
(dp3167
g64
(dp3168
g72
I3
ssg73
g3162
sg66
(lp3169
g2161
asbasbasbag59
(g75
g61
NtRp3170
(dp3171
g64
(dp3172
sg73
g2788
sg66
(lp3173
g59
(g80
g61
NtRp3174
(dp3175
g64
(dp3176
g84
g85
ssg73
g3170
sg66
(lp3177
S'SERVER_PROTOCOL'
p3178
asbag59
(g80
g61
NtRp3179
(dp3180
g64
(dp3181
g91
g92
ssg73
g3170
sg66
(lp3182
S':'
asbag59
(g80
g61
NtRp3183
(dp3184
g64
(dp3185
sg73
g3170
sg66
(lp3186
g59
(g60
g61
NtRp3187
(dp3188
g64
(dp3189
g72
I3
ssg73
g3183
sg66
(lp3190
g2183
asbasbasbag59
(g75
g61
NtRp3191
(dp3192
g64
(dp3193
sg73
g2788
sg66
(lp3194
g59
(g80
g61
NtRp3195
(dp3196
g64
(dp3197
g84
g85
ssg73
g3191
sg66
(lp3198
S'SERVER_SOFTWARE'
p3199
asbag59
(g80
g61
NtRp3200
(dp3201
g64
(dp3202
g91
g92
ssg73
g3191
sg66
(lp3203
S':'
asbag59
(g80
g61
NtRp3204
(dp3205
g64
(dp3206
sg73
g3191
sg66
(lp3207
g59
(g60
g61
NtRp3208
(dp3209
g64
(dp3210
g72
I3
ssg73
g3204
sg66
(lp3211
g2205
asbasbasbag59
(g75
g61
NtRp3212
(dp3213
g64
(dp3214
sg73
g2788
sg66
(lp3215
g59
(g80
g61
NtRp3216
(dp3217
g64
(dp3218
g84
g85
ssg73
g3212
sg66
(lp3219
S'wsgi.errors'
p3220
asbag59
(g80
g61
NtRp3221
(dp3222
g64
(dp3223
g91
g92
ssg73
g3212
sg66
(lp3224
S':'
asbag59
(g80
g61
NtRp3225
(dp3226
g64
(dp3227
sg73
g3212
sg66
(lp3228
g59
(g60
g61
NtRp3229
(dp3230
g64
(dp3231
g72
I3
ssg73
g3225
sg66
(lp3232
S"<open file '<stderr>', mode 'w' at 0x003100B0>"
p3233
asbasbasbag59
(g75
g61
NtRp3234
(dp3235
g64
(dp3236
sg73
g2788
sg66
(lp3237
g59
(g80
g61
NtRp3238
(dp3239
g64
(dp3240
g84
g85
ssg73
g3234
sg66
(lp3241
S'wsgi.file_wrapper'
p3242
asbag59
(g80
g61
NtRp3243
(dp3244
g64
(dp3245
g91
g92
ssg73
g3234
sg66
(lp3246
S':'
asbag59
(g80
g61
NtRp3247
(dp3248
g64
(dp3249
sg73
g3234
sg66
(lp3250
g59
(g60
g61
NtRp3251
(dp3252
g64
(dp3253
g72
I3
ssg73
g3247
sg66
(lp3254
S'<class gluon.rocket.FileWrapper at 0x02FFC1B0>'
p3255
asbasbasbag59
(g75
g61
NtRp3256
(dp3257
g64
(dp3258
sg73
g2788
sg66
(lp3259
g59
(g80
g61
NtRp3260
(dp3261
g64
(dp3262
g84
g85
ssg73
g3256
sg66
(lp3263
S'wsgi.input'
p3264
asbag59
(g80
g61
NtRp3265
(dp3266
g64
(dp3267
g91
g92
ssg73
g3256
sg66
(lp3268
S':'
asbag59
(g80
g61
NtRp3269
(dp3270
g64
(dp3271
sg73
g3256
sg66
(lp3272
g59
(g60
g61
NtRp3273
(dp3274
g64
(dp3275
g72
I3
ssg73
g3269
sg66
(lp3276
S'<cStringIO.StringO object at 0x0869A420>'
p3277
asbasbasbag59
(g75
g61
NtRp3278
(dp3279
g64
(dp3280
sg73
g2788
sg66
(lp3281
g59
(g80
g61
NtRp3282
(dp3283
g64
(dp3284
g84
g85
ssg73
g3278
sg66
(lp3285
S'wsgi.multiprocess'
p3286
asbag59
(g80
g61
NtRp3287
(dp3288
g64
(dp3289
g91
g92
ssg73
g3278
sg66
(lp3290
S':'
asbag59
(g80
g61
NtRp3291
(dp3292
g64
(dp3293
sg73
g3278
sg66
(lp3294
g59
(g60
g61
NtRp3295
(dp3296
g64
(dp3297
g72
I3
ssg73
g3291
sg66
(lp3298
g102
asbasbasbag59
(g75
g61
NtRp3299
(dp3300
g64
(dp3301
sg73
g2788
sg66
(lp3302
g59
(g80
g61
NtRp3303
(dp3304
g64
(dp3305
g84
g85
ssg73
g3299
sg66
(lp3306
S'wsgi.multithread'
p3307
asbag59
(g80
g61
NtRp3308
(dp3309
g64
(dp3310
g91
g92
ssg73
g3299
sg66
(lp3311
S':'
asbag59
(g80
g61
NtRp3312
(dp3313
g64
(dp3314
sg73
g3299
sg66
(lp3315
g59
(g60
g61
NtRp3316
(dp3317
g64
(dp3318
g72
I3
ssg73
g3312
sg66
(lp3319
g2379
asbasbasbag59
(g75
g61
NtRp3320
(dp3321
g64
(dp3322
sg73
g2788
sg66
(lp3323
g59
(g80
g61
NtRp3324
(dp3325
g64
(dp3326
g84
g85
ssg73
g3320
sg66
(lp3327
S'wsgi.run_once'
p3328
asbag59
(g80
g61
NtRp3329
(dp3330
g64
(dp3331
g91
g92
ssg73
g3320
sg66
(lp3332
S':'
asbag59
(g80
g61
NtRp3333
(dp3334
g64
(dp3335
sg73
g3320
sg66
(lp3336
g59
(g60
g61
NtRp3337
(dp3338
g64
(dp3339
g72
I3
ssg73
g3333
sg66
(lp3340
g102
asbasbasbag59
(g75
g61
NtRp3341
(dp3342
g64
(dp3343
sg73
g2788
sg66
(lp3344
g59
(g80
g61
NtRp3345
(dp3346
g64
(dp3347
g84
g85
ssg73
g3341
sg66
(lp3348
S'wsgi.url_scheme'
p3349
asbag59
(g80
g61
NtRp3350
(dp3351
g64
(dp3352
g91
g92
ssg73
g3341
sg66
(lp3353
S':'
asbag59
(g80
g61
NtRp3354
(dp3355
g64
(dp3356
sg73
g3341
sg66
(lp3357
g59
(g60
g61
NtRp3358
(dp3359
g64
(dp3360
g72
I3
ssg73
g3354
sg66
(lp3361
g2422
asbasbasbag59
(g75
g61
NtRp3362
(dp3363
g64
(dp3364
sg73
g2788
sg66
(lp3365
g59
(g80
g61
NtRp3366
(dp3367
g64
(dp3368
g84
g85
ssg73
g3362
sg66
(lp3369
S'wsgi.version'
p3370
asbag59
(g80
g61
NtRp3371
(dp3372
g64
(dp3373
g91
g92
ssg73
g3362
sg66
(lp3374
S':'
asbag59
(g80
g61
NtRp3375
(dp3376
g64
(dp3377
sg73
g3362
sg66
(lp3378
g59
(g60
g61
NtRp3379
(dp3380
g64
(dp3381
g72
I3
ssg73
g3375
sg66
(lp3382
S'1'
asbasbasbasbasbasbasbasbasbasbasbasbasbsS'frames'
p3383
(lp3384
(dp3385
S'file'
p3386
S'C:\\Users\\Atomico\\web2py\\gluon\\restricted.py'
p3387
sS'dump'
p3388
(dp3389
sS'lnum'
p3390
I191
sS'lines'
p3391
(dp3392
sS'call'
p3393
S'(code=\'response.write(\\\'<!DOCTYPE html>\\\\n<html lang="\\\', ...t   -->    \\\\n  </body>\\\\n</html>\\\\n\\\', escape=False)\', environment={\'A\': <class \'gluon.html.A\'>, \'B\': <class \'gluon.html.B\'>, \'BEAUTIFY\': <class \'gluon.html.BEAUTIFY\'>, \'BODY\': <class \'gluon.html.BODY\'>, \'BR\': <class \'gluon.html.BR\'>, \'BUTTON\': <class \'gluon.html.BUTTON\'>, \'CAT\': <class \'gluon.html.CAT\'>, \'CENTER\': <class \'gluon.html.CENTER\'>, \'CLEANUP\': <class \'gluon.validators.CLEANUP\'>, \'CODE\': <class \'gluon.html.CODE\'>, ...}, layer=r\'C:\\Users\\Atomico\\web2py\\applications\\Desglosar_Emails\\views\\default/entrada_mod3.html\')'
p3394
sS'func'
p3395
S'restricted'
p3396
sa(dp3397
g3386
S'C:\\Users\\Atomico\\web2py\\gluon\\restricted.py'
p3398
sg3388
(dp3399
sg3390
I178
sg3391
(dp3400
sg3393
S'(code=\'response.write(\\\'<!DOCTYPE html>\\\\n<html lang="\\\', ...t   -->    \\\\n  </body>\\\\n</html>\\\\n\\\', escape=False)\', layer=r\'C:\\Users\\Atomico\\web2py\\applications\\Desglosar_Emails\\views\\default/entrada_mod3.html\')'
p3401
sg3395
S'compile2'
p3402
sasS'pyver'
p3403
S'Python 2.5.4: C:\\Users\\Atomico\\web2py\\web2py.exe'
p3404
sS'session'
p3405
g59
(g60
g61
NtRp3406
(dp3407
g64
(dp3408
sg66
(lp3409
g59
(g68
g61
NtRp3410
(dp3411
g64
(dp3412
g72
I5
ssg73
Nsg66
(lp3413
g59
(g75
g61
NtRp3414
(dp3415
g64
(dp3416
sg73
g3410
sg66
(lp3417
g59
(g80
g61
NtRp3418
(dp3419
g64
(dp3420
g84
g85
ssg73
g3414
sg66
(lp3421
S'last_query'
p3422
asbag59
(g80
g61
NtRp3423
(dp3424
g64
(dp3425
g91
g92
ssg73
g3414
sg66
(lp3426
S':'
asbag59
(g80
g61
NtRp3427
(dp3428
g64
(dp3429
sg73
g3414
sg66
(lp3430
g59
(g60
g61
NtRp3431
(dp3432
g64
(dp3433
g72
I5
ssg73
g3427
sg66
(lp3434
S'db.info4.id>0'
p3435
asbasbasbasbasbsS'etype'
p3436
S"<type 'exceptions.SyntaxError'>"
p3437
sS'date'
p3438
S'Tue Sep 20 07:33:58 2011'
p3439
sS'response'
p3440
g59
(g60
g61
NtRp3441
(dp3442
g64
(dp3443
sg66
(lp3444
g59
(g68
g61
NtRp3445
(dp3446
g64
(dp3447
g72
I5
ssg73
Nsg66
(lp3448
g59
(g75
g61
NtRp3449
(dp3450
g64
(dp3451
sg73
g3445
sg66
(lp3452
g59
(g80
g61
NtRp3453
(dp3454
g64
(dp3455
g84
g85
ssg73
g3449
sg66
(lp3456
g157
asbag59
(g80
g61
NtRp3457
(dp3458
g64
(dp3459
g91
g92
ssg73
g3449
sg66
(lp3460
S':'
asbag59
(g80
g61
NtRp3461
(dp3462
g64
(dp3463
sg73
g3449
sg66
(lp3464
g59
(g60
g61
NtRp3465
(dp3466
g64
(dp3467
g72
I5
ssg73
g3461
sg66
(lp3468
S'<cStringIO.StringO object at 0x0869AAC0>'
p3469
asbasbasbag59
(g75
g61
NtRp3470
(dp3471
g64
(dp3472
sg73
g3445
sg66
(lp3473
g59
(g80
g61
NtRp3474
(dp3475
g64
(dp3476
g84
g85
ssg73
g3470
sg66
(lp3477
g223
asbag59
(g80
g61
NtRp3478
(dp3479
g64
(dp3480
g91
g92
ssg73
g3470
sg66
(lp3481
S':'
asbag59
(g80
g61
NtRp3482
(dp3483
g64
(dp3484
sg73
g3470
sg66
(lp3485
g59
(g60
g61
NtRp3486
(dp3487
g64
(dp3488
g72
I5
ssg73
g3482
sg66
(lp3489
g59
(g68
g61
NtRp3490
(dp3491
g64
(dp3492
g72
I4
ssg73
Nsg66
(lp3493
g59
(g75
g61
NtRp3494
(dp3495
g64
(dp3496
sg73
g3490
sg66
(lp3497
g59
(g80
g61
NtRp3498
(dp3499
g64
(dp3500
g84
g85
ssg73
g3494
sg66
(lp3501
S'session_id_desglosar_emails'
p3502
asbag59
(g80
g61
NtRp3503
(dp3504
g64
(dp3505
g91
g92
ssg73
g3494
sg66
(lp3506
S':'
asbag59
(g80
g61
NtRp3507
(dp3508
g64
(dp3509
sg73
g3494
sg66
(lp3510
g59
(g60
g61
NtRp3511
(dp3512
g64
(dp3513
g72
I4
ssg73
g3507
sg66
(lp3514
g59
(g68
g61
NtRp3515
(dp3516
g64
(dp3517
g72
I3
ssg73
Nsg66
(lp3518
g59
(g75
g61
NtRp3519
(dp3520
g64
(dp3521
sg73
g3515
sg66
(lp3522
g59
(g80
g61
NtRp3523
(dp3524
g64
(dp3525
g84
g85
ssg73
g3519
sg66
(lp3526
g273
asbag59
(g80
g61
NtRp3527
(dp3528
g64
(dp3529
g91
g92
ssg73
g3519
sg66
(lp3530
S':'
asbag59
(g80
g61
NtRp3531
(dp3532
g64
(dp3533
sg73
g3519
sg66
(lp3534
g59
(g60
g61
NtRp3535
(dp3536
g64
(dp3537
g72
I3
ssg73
g3531
sg66
(lp3538
S''
asbasbasbag59
(g75
g61
NtRp3539
(dp3540
g64
(dp3541
sg73
g3515
sg66
(lp3542
g59
(g80
g61
NtRp3543
(dp3544
g64
(dp3545
g84
g85
ssg73
g3539
sg66
(lp3546
g294
asbag59
(g80
g61
NtRp3547
(dp3548
g64
(dp3549
g91
g92
ssg73
g3539
sg66
(lp3550
S':'
asbag59
(g80
g61
NtRp3551
(dp3552
g64
(dp3553
sg73
g3539
sg66
(lp3554
g59
(g60
g61
NtRp3555
(dp3556
g64
(dp3557
g72
I3
ssg73
g3551
sg66
(lp3558
S''
asbasbasbag59
(g75
g61
NtRp3559
(dp3560
g64
(dp3561
sg73
g3515
sg66
(lp3562
g59
(g80
g61
NtRp3563
(dp3564
g64
(dp3565
g84
g85
ssg73
g3559
sg66
(lp3566
g315
asbag59
(g80
g61
NtRp3567
(dp3568
g64
(dp3569
g91
g92
ssg73
g3559
sg66
(lp3570
S':'
asbag59
(g80
g61
NtRp3571
(dp3572
g64
(dp3573
sg73
g3559
sg66
(lp3574
g59
(g60
g61
NtRp3575
(dp3576
g64
(dp3577
g72
I3
ssg73
g3571
sg66
(lp3578
S''
asbasbasbag59
(g75
g61
NtRp3579
(dp3580
g64
(dp3581
sg73
g3515
sg66
(lp3582
g59
(g80
g61
NtRp3583
(dp3584
g64
(dp3585
g84
g85
ssg73
g3579
sg66
(lp3586
g336
asbag59
(g80
g61
NtRp3587
(dp3588
g64
(dp3589
g91
g92
ssg73
g3579
sg66
(lp3590
S':'
asbag59
(g80
g61
NtRp3591
(dp3592
g64
(dp3593
sg73
g3579
sg66
(lp3594
g59
(g60
g61
NtRp3595
(dp3596
g64
(dp3597
g72
I3
ssg73
g3591
sg66
(lp3598
S''
asbasbasbag59
(g75
g61
NtRp3599
(dp3600
g64
(dp3601
sg73
g3515
sg66
(lp3602
g59
(g80
g61
NtRp3603
(dp3604
g64
(dp3605
g84
g85
ssg73
g3599
sg66
(lp3606
g357
asbag59
(g80
g61
NtRp3607
(dp3608
g64
(dp3609
g91
g92
ssg73
g3599
sg66
(lp3610
S':'
asbag59
(g80
g61
NtRp3611
(dp3612
g64
(dp3613
sg73
g3599
sg66
(lp3614
g59
(g60
g61
NtRp3615
(dp3616
g64
(dp3617
g72
I3
ssg73
g3611
sg66
(lp3618
S'/'
asbasbasbag59
(g75
g61
NtRp3619
(dp3620
g64
(dp3621
sg73
g3515
sg66
(lp3622
g59
(g80
g61
NtRp3623
(dp3624
g64
(dp3625
g84
g85
ssg73
g3619
sg66
(lp3626
g378
asbag59
(g80
g61
NtRp3627
(dp3628
g64
(dp3629
g91
g92
ssg73
g3619
sg66
(lp3630
S':'
asbag59
(g80
g61
NtRp3631
(dp3632
g64
(dp3633
sg73
g3619
sg66
(lp3634
g59
(g60
g61
NtRp3635
(dp3636
g64
(dp3637
g72
I3
ssg73
g3631
sg66
(lp3638
S''
asbasbasbag59
(g75
g61
NtRp3639
(dp3640
g64
(dp3641
sg73
g3515
sg66
(lp3642
g59
(g80
g61
NtRp3643
(dp3644
g64
(dp3645
g84
g85
ssg73
g3639
sg66
(lp3646
g399
asbag59
(g80
g61
NtRp3647
(dp3648
g64
(dp3649
g91
g92
ssg73
g3639
sg66
(lp3650
S':'
asbag59
(g80
g61
NtRp3651
(dp3652
g64
(dp3653
sg73
g3639
sg66
(lp3654
g59
(g60
g61
NtRp3655
(dp3656
g64
(dp3657
g72
I3
ssg73
g3651
sg66
(lp3658
S''
asbasbasbasbasbasbasbasbasbasbasbag59
(g75
g61
NtRp3659
(dp3660
g64
(dp3661
sg73
g3445
sg66
(lp3662
g59
(g80
g61
NtRp3663
(dp3664
g64
(dp3665
g84
g85
ssg73
g3659
sg66
(lp3666
S'files'
p3667
asbag59
(g80
g61
NtRp3668
(dp3669
g64
(dp3670
g91
g92
ssg73
g3659
sg66
(lp3671
S':'
asbag59
(g80
g61
NtRp3672
(dp3673
g64
(dp3674
sg73
g3659
sg66
(lp3675
g59
(g60
g61
NtRp3676
(dp3677
g64
(dp3678
g72
I5
ssg73
g3672
sg66
(lp3679
g59
(g68
g61
NtRp3680
(dp3681
g64
(dp3682
g72
I4
ssg73
Nsg66
(lp3683
sbasbasbasbag59
(g75
g61
NtRp3684
(dp3685
g64
(dp3686
sg73
g3445
sg66
(lp3687
g59
(g80
g61
NtRp3688
(dp3689
g64
(dp3690
g84
g85
ssg73
g3684
sg66
(lp3691
S'flash'
p3692
asbag59
(g80
g61
NtRp3693
(dp3694
g64
(dp3695
g91
g92
ssg73
g3684
sg66
(lp3696
S':'
asbag59
(g80
g61
NtRp3697
(dp3698
g64
(dp3699
sg73
g3684
sg66
(lp3700
g59
(g60
g61
NtRp3701
(dp3702
g64
(dp3703
g72
I5
ssg73
g3697
sg66
(lp3704
S''
asbasbasbag59
(g75
g61
NtRp3705
(dp3706
g64
(dp3707
sg73
g3445
sg66
(lp3708
g59
(g80
g61
NtRp3709
(dp3710
g64
(dp3711
g84
g85
ssg73
g3705
sg66
(lp3712
S'generic_patterns'
p3713
asbag59
(g80
g61
NtRp3714
(dp3715
g64
(dp3716
g91
g92
ssg73
g3705
sg66
(lp3717
S':'
asbag59
(g80
g61
NtRp3718
(dp3719
g64
(dp3720
sg73
g3705
sg66
(lp3721
g59
(g60
g61
NtRp3722
(dp3723
g64
(dp3724
g72
I5
ssg73
g3718
sg66
(lp3725
g59
(g68
g61
NtRp3726
(dp3727
g64
(dp3728
g72
I4
ssg73
Nsg66
(lp3729
sbasbasbasbag59
(g75
g61
NtRp3730
(dp3731
g64
(dp3732
sg73
g3445
sg66
(lp3733
g59
(g80
g61
NtRp3734
(dp3735
g64
(dp3736
g84
g85
ssg73
g3730
sg66
(lp3737
S'headers'
p3738
asbag59
(g80
g61
NtRp3739
(dp3740
g64
(dp3741
g91
g92
ssg73
g3730
sg66
(lp3742
S':'
asbag59
(g80
g61
NtRp3743
(dp3744
g64
(dp3745
sg73
g3730
sg66
(lp3746
g59
(g60
g61
NtRp3747
(dp3748
g64
(dp3749
g72
I5
ssg73
g3743
sg66
(lp3750
g59
(g68
g61
NtRp3751
(dp3752
g64
(dp3753
g72
I4
ssg73
Nsg66
(lp3754
g59
(g75
g61
NtRp3755
(dp3756
g64
(dp3757
sg73
g3751
sg66
(lp3758
g59
(g80
g61
NtRp3759
(dp3760
g64
(dp3761
g84
g85
ssg73
g3755
sg66
(lp3762
S'Cache-Control'
p3763
asbag59
(g80
g61
NtRp3764
(dp3765
g64
(dp3766
g91
g92
ssg73
g3755
sg66
(lp3767
S':'
asbag59
(g80
g61
NtRp3768
(dp3769
g64
(dp3770
sg73
g3755
sg66
(lp3771
g59
(g60
g61
NtRp3772
(dp3773
g64
(dp3774
g72
I4
ssg73
g3768
sg66
(lp3775
S'no-store, no-cache, must-revalidate, post-check=0, pre-check=0'
p3776
asbasbasbag59
(g75
g61
NtRp3777
(dp3778
g64
(dp3779
sg73
g3751
sg66
(lp3780
g59
(g80
g61
NtRp3781
(dp3782
g64
(dp3783
g84
g85
ssg73
g3777
sg66
(lp3784
S'Content-Type'
p3785
asbag59
(g80
g61
NtRp3786
(dp3787
g64
(dp3788
g91
g92
ssg73
g3777
sg66
(lp3789
S':'
asbag59
(g80
g61
NtRp3790
(dp3791
g64
(dp3792
sg73
g3777
sg66
(lp3793
g59
(g60
g61
NtRp3794
(dp3795
g64
(dp3796
g72
I4
ssg73
g3790
sg66
(lp3797
S'text/html; charset=utf-8'
p3798
asbasbasbag59
(g75
g61
NtRp3799
(dp3800
g64
(dp3801
sg73
g3751
sg66
(lp3802
g59
(g80
g61
NtRp3803
(dp3804
g64
(dp3805
g84
g85
ssg73
g3799
sg66
(lp3806
S'Expires'
p3807
asbag59
(g80
g61
NtRp3808
(dp3809
g64
(dp3810
g91
g92
ssg73
g3799
sg66
(lp3811
S':'
asbag59
(g80
g61
NtRp3812
(dp3813
g64
(dp3814
sg73
g3799
sg66
(lp3815
g59
(g60
g61
NtRp3816
(dp3817
g64
(dp3818
g72
I4
ssg73
g3812
sg66
(lp3819
S'Tue, 20 Sep 2011 05:33:58 GMT'
p3820
asbasbasbag59
(g75
g61
NtRp3821
(dp3822
g64
(dp3823
sg73
g3751
sg66
(lp3824
g59
(g80
g61
NtRp3825
(dp3826
g64
(dp3827
g84
g85
ssg73
g3821
sg66
(lp3828
S'Pragma'
p3829
asbag59
(g80
g61
NtRp3830
(dp3831
g64
(dp3832
g91
g92
ssg73
g3821
sg66
(lp3833
S':'
asbag59
(g80
g61
NtRp3834
(dp3835
g64
(dp3836
sg73
g3821
sg66
(lp3837
g59
(g60
g61
NtRp3838
(dp3839
g64
(dp3840
g72
I4
ssg73
g3834
sg66
(lp3841
S'no-cache'
p3842
asbasbasbag59
(g75
g61
NtRp3843
(dp3844
g64
(dp3845
sg73
g3751
sg66
(lp3846
g59
(g80
g61
NtRp3847
(dp3848
g64
(dp3849
g84
g85
ssg73
g3843
sg66
(lp3850
S'X-Powered-By'
p3851
asbag59
(g80
g61
NtRp3852
(dp3853
g64
(dp3854
g91
g92
ssg73
g3843
sg66
(lp3855
S':'
asbag59
(g80
g61
NtRp3856
(dp3857
g64
(dp3858
sg73
g3843
sg66
(lp3859
g59
(g60
g61
NtRp3860
(dp3861
g64
(dp3862
g72
I4
ssg73
g3856
sg66
(lp3863
S'web2py'
p3864
asbasbasbasbasbasbasbag59
(g75
g61
NtRp3865
(dp3866
g64
(dp3867
sg73
g3445
sg66
(lp3868
g59
(g80
g61
NtRp3869
(dp3870
g64
(dp3871
g84
g85
ssg73
g3865
sg66
(lp3872
S'menu'
p3873
asbag59
(g80
g61
NtRp3874
(dp3875
g64
(dp3876
g91
g92
ssg73
g3865
sg66
(lp3877
S':'
asbag59
(g80
g61
NtRp3878
(dp3879
g64
(dp3880
sg73
g3865
sg66
(lp3881
g59
(g60
g61
NtRp3882
(dp3883
g64
(dp3884
g72
I5
ssg73
g3878
sg66
(lp3885
g59
(g68
g61
NtRp3886
(dp3887
g64
(dp3888
g72
I4
ssg73
Nsg66
(lp3889
g59
(g75
g61
NtRp3890
(dp3891
g64
(dp3892
sg73
g3886
sg66
(lp3893
g59
(g80
g61
NtRp3894
(dp3895
g64
(dp3896
sg73
g3890
sg66
(lp3897
g59
(g60
g61
NtRp3898
(dp3899
g64
(dp3900
g72
I4
ssg73
g3894
sg66
(lp3901
g59
(g68
g61
NtRp3902
(dp3903
g64
(dp3904
g72
I3
ssg73
Nsg66
(lp3905
g59
(g75
g61
NtRp3906
(dp3907
g64
(dp3908
sg73
g3902
sg66
(lp3909
g59
(g80
g61
NtRp3910
(dp3911
g64
(dp3912
sg73
g3906
sg66
(lp3913
g59
(g60
g61
NtRp3914
(dp3915
g64
(dp3916
g72
I3
ssg73
g3910
sg66
(lp3917
cgluon.languages
lazyT_unpickle
p3918
(S't\x04\x00\x00\x00Home'
tRp3919
asbasbasbag59
(g75
g61
NtRp3920
(dp3921
g64
(dp3922
sg73
g3902
sg66
(lp3923
g59
(g80
g61
NtRp3924
(dp3925
g64
(dp3926
sg73
g3920
sg66
(lp3927
g59
(g60
g61
NtRp3928
(dp3929
g64
(dp3930
g72
I3
ssg73
g3924
sg66
(lp3931
g102
asbasbasbag59
(g75
g61
NtRp3932
(dp3933
g64
(dp3934
sg73
g3902
sg66
(lp3935
g59
(g80
g61
NtRp3936
(dp3937
g64
(dp3938
sg73
g3932
sg66
(lp3939
g59
(g60
g61
NtRp3940
(dp3941
g64
(dp3942
g72
I3
ssg73
g3936
sg66
(lp3943
S'/Desglosar_Emails/default/index'
p3944
asbasbasbag59
(g75
g61
NtRp3945
(dp3946
g64
(dp3947
sg73
g3902
sg66
(lp3948
g59
(g80
g61
NtRp3949
(dp3950
g64
(dp3951
sg73
g3945
sg66
(lp3952
g59
(g60
g61
NtRp3953
(dp3954
g64
(dp3955
g72
I3
ssg73
g3949
sg66
(lp3956
g59
(g68
g61
NtRp3957
(dp3958
g64
(dp3959
g72
I2
ssg73
Nsg66
(lp3960
sbasbasbasbasbasbasbasbag59
(g75
g61
NtRp3961
(dp3962
g64
(dp3963
sg73
g3886
sg66
(lp3964
g59
(g80
g61
NtRp3965
(dp3966
g64
(dp3967
sg73
g3961
sg66
(lp3968
g59
(g60
g61
NtRp3969
(dp3970
g64
(dp3971
g72
I4
ssg73
g3965
sg66
(lp3972
g59
(g68
g61
NtRp3973
(dp3974
g64
(dp3975
g72
I3
ssg73
Nsg66
(lp3976
g59
(g75
g61
NtRp3977
(dp3978
g64
(dp3979
sg73
g3973
sg66
(lp3980
g59
(g80
g61
NtRp3981
(dp3982
g64
(dp3983
sg73
g3977
sg66
(lp3984
g59
(g60
g61
NtRp3985
(dp3986
g64
(dp3987
g72
I3
ssg73
g3981
sg66
(lp3988
g3918
(S's\x08\x00\x00\x00This App'
tRp3989
asbasbasbag59
(g75
g61
NtRp3990
(dp3991
g64
(dp3992
sg73
g3973
sg66
(lp3993
g59
(g80
g61
NtRp3994
(dp3995
g64
(dp3996
sg73
g3990
sg66
(lp3997
g59
(g60
g61
NtRp3998
(dp3999
g64
(dp4000
g72
I3
ssg73
g3994
sg66
(lp4001
g102
asbasbasbag59
(g75
g61
NtRp4002
(dp4003
g64
(dp4004
sg73
g3973
sg66
(lp4005
g59
(g80
g61
NtRp4006
(dp4007
g64
(dp4008
sg73
g4002
sg66
(lp4009
g59
(g60
g61
NtRp4010
(dp4011
g64
(dp4012
g72
I3
ssg73
g4006
sg66
(lp4013
S'/admin/default/design/Desglosar_Emails'
p4014
asbasbasbag59
(g75
g61
NtRp4015
(dp4016
g64
(dp4017
sg73
g3973
sg66
(lp4018
g59
(g80
g61
NtRp4019
(dp4020
g64
(dp4021
sg73
g4015
sg66
(lp4022
g59
(g60
g61
NtRp4023
(dp4024
g64
(dp4025
g72
I3
ssg73
g4019
sg66
(lp4026
g59
(g68
g61
NtRp4027
(dp4028
g64
(dp4029
g72
I2
ssg73
Nsg66
(lp4030
g59
(g75
g61
NtRp4031
(dp4032
g64
(dp4033
sg73
g4027
sg66
(lp4034
g59
(g80
g61
NtRp4035
(dp4036
g64
(dp4037
sg73
g4031
sg66
(lp4038
g59
(g60
g61
NtRp4039
(dp4040
g64
(dp4041
g72
I2
ssg73
g4035
sg66
(lp4042
g59
(g68
g61
NtRp4043
(dp4044
g64
(dp4045
g72
I1
ssg73
Nsg66
(lp4046
g59
(g75
g61
NtRp4047
(dp4048
g64
(dp4049
sg73
g4043
sg66
(lp4050
g59
(g80
g61
NtRp4051
(dp4052
g64
(dp4053
sg73
g4047
sg66
(lp4054
g59
(g60
g61
NtRp4055
(dp4056
g64
(dp4057
g72
I1
ssg73
g4051
sg66
(lp4058
g3918
(S't\x0b\x00\x00\x00Controlador'
tRp4059
asbasbasbag59
(g75
g61
NtRp4060
(dp4061
g64
(dp4062
sg73
g4043
sg66
(lp4063
g59
(g80
g61
NtRp4064
(dp4065
g64
(dp4066
sg73
g4060
sg66
(lp4067
g59
(g60
g61
NtRp4068
(dp4069
g64
(dp4070
g72
I1
ssg73
g4064
sg66
(lp4071
I00
asbasbasbag59
(g75
g61
NtRp4072
(dp4073
g64
(dp4074
sg73
g4043
sg66
(lp4075
g59
(g80
g61
NtRp4076
(dp4077
g64
(dp4078
sg73
g4072
sg66
(lp4079
g59
(g60
g61
NtRp4080
(dp4081
g64
(dp4082
g72
I1
ssg73
g4076
sg66
(lp4083
S'/admin/default/edit/Desglosar_Emails/controllers/default.py'
p4084
asbasbasbasbasbasbasbag59
(g75
g61
NtRp4085
(dp4086
g64
(dp4087
sg73
g4027
sg66
(lp4088
g59
(g80
g61
NtRp4089
(dp4090
g64
(dp4091
sg73
g4085
sg66
(lp4092
g59
(g60
g61
NtRp4093
(dp4094
g64
(dp4095
g72
I2
ssg73
g4089
sg66
(lp4096
g59
(g68
g61
NtRp4097
(dp4098
g64
(dp4099
g72
I1
ssg73
Nsg66
(lp4100
g59
(g75
g61
NtRp4101
(dp4102
g64
(dp4103
sg73
g4097
sg66
(lp4104
g59
(g80
g61
NtRp4105
(dp4106
g64
(dp4107
sg73
g4101
sg66
(lp4108
g59
(g60
g61
NtRp4109
(dp4110
g64
(dp4111
g72
I1
ssg73
g4105
sg66
(lp4112
g3918
(S't\x05\x00\x00\x00Vista'
tRp4113
asbasbasbag59
(g75
g61
NtRp4114
(dp4115
g64
(dp4116
sg73
g4097
sg66
(lp4117
g59
(g80
g61
NtRp4118
(dp4119
g64
(dp4120
sg73
g4114
sg66
(lp4121
g59
(g60
g61
NtRp4122
(dp4123
g64
(dp4124
g72
I1
ssg73
g4118
sg66
(lp4125
I00
asbasbasbag59
(g75
g61
NtRp4126
(dp4127
g64
(dp4128
sg73
g4097
sg66
(lp4129
g59
(g80
g61
NtRp4130
(dp4131
g64
(dp4132
sg73
g4126
sg66
(lp4133
g59
(g60
g61
NtRp4134
(dp4135
g64
(dp4136
g72
I1
ssg73
g4130
sg66
(lp4137
S'/admin/default/edit/Desglosar_Emails/views/default/entrada_mod3.html'
p4138
asbasbasbasbasbasbasbag59
(g75
g61
NtRp4139
(dp4140
g64
(dp4141
sg73
g4027
sg66
(lp4142
g59
(g80
g61
NtRp4143
(dp4144
g64
(dp4145
sg73
g4139
sg66
(lp4146
g59
(g60
g61
NtRp4147
(dp4148
g64
(dp4149
g72
I2
ssg73
g4143
sg66
(lp4150
g59
(g68
g61
NtRp4151
(dp4152
g64
(dp4153
g72
I1
ssg73
Nsg66
(lp4154
g59
(g75
g61
NtRp4155
(dp4156
g64
(dp4157
sg73
g4151
sg66
(lp4158
g59
(g80
g61
NtRp4159
(dp4160
g64
(dp4161
sg73
g4155
sg66
(lp4162
g59
(g60
g61
NtRp4163
(dp4164
g64
(dp4165
g72
I1
ssg73
g4159
sg66
(lp4166
g3918
(S's\x12\x00\x00\x00Dise\xc3\xb1o de p\xc3\xa1gina'
tRp4167
asbasbasbag59
(g75
g61
NtRp4168
(dp4169
g64
(dp4170
sg73
g4151
sg66
(lp4171
g59
(g80
g61
NtRp4172
(dp4173
g64
(dp4174
sg73
g4168
sg66
(lp4175
g59
(g60
g61
NtRp4176
(dp4177
g64
(dp4178
g72
I1
ssg73
g4172
sg66
(lp4179
I00
asbasbasbag59
(g75
g61
NtRp4180
(dp4181
g64
(dp4182
sg73
g4151
sg66
(lp4183
g59
(g80
g61
NtRp4184
(dp4185
g64
(dp4186
sg73
g4180
sg66
(lp4187
g59
(g60
g61
NtRp4188
(dp4189
g64
(dp4190
g72
I1
ssg73
g4184
sg66
(lp4191
S'/admin/default/edit/Desglosar_Emails/views/layout.html'
p4192
asbasbasbasbasbasbasbag59
(g75
g61
NtRp4193
(dp4194
g64
(dp4195
sg73
g4027
sg66
(lp4196
g59
(g80
g61
NtRp4197
(dp4198
g64
(dp4199
sg73
g4193
sg66
(lp4200
g59
(g60
g61
NtRp4201
(dp4202
g64
(dp4203
g72
I2
ssg73
g4197
sg66
(lp4204
g59
(g68
g61
NtRp4205
(dp4206
g64
(dp4207
g72
I1
ssg73
Nsg66
(lp4208
g59
(g75
g61
NtRp4209
(dp4210
g64
(dp4211
sg73
g4205
sg66
(lp4212
g59
(g80
g61
NtRp4213
(dp4214
g64
(dp4215
sg73
g4209
sg66
(lp4216
g59
(g60
g61
NtRp4217
(dp4218
g64
(dp4219
g72
I1
ssg73
g4213
sg66
(lp4220
g3918
(S's\x0e\x00\x00\x00Hoja de estilo'
tRp4221
asbasbasbag59
(g75
g61
NtRp4222
(dp4223
g64
(dp4224
sg73
g4205
sg66
(lp4225
g59
(g80
g61
NtRp4226
(dp4227
g64
(dp4228
sg73
g4222
sg66
(lp4229
g59
(g60
g61
NtRp4230
(dp4231
g64
(dp4232
g72
I1
ssg73
g4226
sg66
(lp4233
I00
asbasbasbag59
(g75
g61
NtRp4234
(dp4235
g64
(dp4236
sg73
g4205
sg66
(lp4237
g59
(g80
g61
NtRp4238
(dp4239
g64
(dp4240
sg73
g4234
sg66
(lp4241
g59
(g60
g61
NtRp4242
(dp4243
g64
(dp4244
g72
I1
ssg73
g4238
sg66
(lp4245
S'/admin/default/edit/Desglosar_Emails/static/base.css'
p4246
asbasbasbasbasbasbasbag59
(g75
g61
NtRp4247
(dp4248
g64
(dp4249
sg73
g4027
sg66
(lp4250
g59
(g80
g61
NtRp4251
(dp4252
g64
(dp4253
sg73
g4247
sg66
(lp4254
g59
(g60
g61
NtRp4255
(dp4256
g64
(dp4257
g72
I2
ssg73
g4251
sg66
(lp4258
g59
(g68
g61
NtRp4259
(dp4260
g64
(dp4261
g72
I1
ssg73
Nsg66
(lp4262
g59
(g75
g61
NtRp4263
(dp4264
g64
(dp4265
sg73
g4259
sg66
(lp4266
g59
(g80
g61
NtRp4267
(dp4268
g64
(dp4269
sg73
g4263
sg66
(lp4270
g59
(g60
g61
NtRp4271
(dp4272
g64
(dp4273
g72
I1
ssg73
g4267
sg66
(lp4274
g3918
(S's\x0b\x00\x00\x00Modelo "db"'
tRp4275
asbasbasbag59
(g75
g61
NtRp4276
(dp4277
g64
(dp4278
sg73
g4259
sg66
(lp4279
g59
(g80
g61
NtRp4280
(dp4281
g64
(dp4282
sg73
g4276
sg66
(lp4283
g59
(g60
g61
NtRp4284
(dp4285
g64
(dp4286
g72
I1
ssg73
g4280
sg66
(lp4287
I00
asbasbasbag59
(g75
g61
NtRp4288
(dp4289
g64
(dp4290
sg73
g4259
sg66
(lp4291
g59
(g80
g61
NtRp4292
(dp4293
g64
(dp4294
sg73
g4288
sg66
(lp4295
g59
(g60
g61
NtRp4296
(dp4297
g64
(dp4298
g72
I1
ssg73
g4292
sg66
(lp4299
S'/admin/default/edit/Desglosar_Emails/models/db.py'
p4300
asbasbasbasbasbasbasbag59
(g75
g61
NtRp4301
(dp4302
g64
(dp4303
sg73
g4027
sg66
(lp4304
g59
(g80
g61
NtRp4305
(dp4306
g64
(dp4307
sg73
g4301
sg66
(lp4308
g59
(g60
g61
NtRp4309
(dp4310
g64
(dp4311
g72
I2
ssg73
g4305
sg66
(lp4312
g59
(g68
g61
NtRp4313
(dp4314
g64
(dp4315
g72
I1
ssg73
Nsg66
(lp4316
g59
(g75
g61
NtRp4317
(dp4318
g64
(dp4319
sg73
g4313
sg66
(lp4320
g59
(g80
g61
NtRp4321
(dp4322
g64
(dp4323
sg73
g4317
sg66
(lp4324
g59
(g60
g61
NtRp4325
(dp4326
g64
(dp4327
g72
I1
ssg73
g4321
sg66
(lp4328
g3918
(S's\r\x00\x00\x00Modelo "menu"'
tRp4329
asbasbasbag59
(g75
g61
NtRp4330
(dp4331
g64
(dp4332
sg73
g4313
sg66
(lp4333
g59
(g80
g61
NtRp4334
(dp4335
g64
(dp4336
sg73
g4330
sg66
(lp4337
g59
(g60
g61
NtRp4338
(dp4339
g64
(dp4340
g72
I1
ssg73
g4334
sg66
(lp4341
I00
asbasbasbag59
(g75
g61
NtRp4342
(dp4343
g64
(dp4344
sg73
g4313
sg66
(lp4345
g59
(g80
g61
NtRp4346
(dp4347
g64
(dp4348
sg73
g4342
sg66
(lp4349
g59
(g60
g61
NtRp4350
(dp4351
g64
(dp4352
g72
I1
ssg73
g4346
sg66
(lp4353
S'/admin/default/edit/Desglosar_Emails/models/menu.py'
p4354
asbasbasbasbasbasbasbag59
(g75
g61
NtRp4355
(dp4356
g64
(dp4357
sg73
g4027
sg66
(lp4358
g59
(g80
g61
NtRp4359
(dp4360
g64
(dp4361
sg73
g4355
sg66
(lp4362
g59
(g60
g61
NtRp4363
(dp4364
g64
(dp4365
g72
I2
ssg73
g4359
sg66
(lp4366
g59
(g68
g61
NtRp4367
(dp4368
g64
(dp4369
g72
I1
ssg73
Nsg66
(lp4370
g59
(g75
g61
NtRp4371
(dp4372
g64
(dp4373
sg73
g4367
sg66
(lp4374
g59
(g80
g61
NtRp4375
(dp4376
g64
(dp4377
sg73
g4371
sg66
(lp4378
g59
(g60
g61
NtRp4379
(dp4380
g64
(dp4381
g72
I1
ssg73
g4375
sg66
(lp4382
g3918
(S's\r\x00\x00\x00Base de datos'
tRp4383
asbasbasbag59
(g75
g61
NtRp4384
(dp4385
g64
(dp4386
sg73
g4367
sg66
(lp4387
g59
(g80
g61
NtRp4388
(dp4389
g64
(dp4390
sg73
g4384
sg66
(lp4391
g59
(g60
g61
NtRp4392
(dp4393
g64
(dp4394
g72
I1
ssg73
g4388
sg66
(lp4395
I00
asbasbasbag59
(g75
g61
NtRp4396
(dp4397
g64
(dp4398
sg73
g4367
sg66
(lp4399
g59
(g80
g61
NtRp4400
(dp4401
g64
(dp4402
sg73
g4396
sg66
(lp4403
g59
(g60
g61
NtRp4404
(dp4405
g64
(dp4406
g72
I1
ssg73
g4400
sg66
(lp4407
S'/Desglosar_Emails/appadmin/index'
p4408
asbasbasbasbasbasbasbag59
(g75
g61
NtRp4409
(dp4410
g64
(dp4411
sg73
g4027
sg66
(lp4412
g59
(g80
g61
NtRp4413
(dp4414
g64
(dp4415
sg73
g4409
sg66
(lp4416
g59
(g60
g61
NtRp4417
(dp4418
g64
(dp4419
g72
I2
ssg73
g4413
sg66
(lp4420
g59
(g68
g61
NtRp4421
(dp4422
g64
(dp4423
g72
I1
ssg73
Nsg66
(lp4424
g59
(g75
g61
NtRp4425
(dp4426
g64
(dp4427
sg73
g4421
sg66
(lp4428
g59
(g80
g61
NtRp4429
(dp4430
g64
(dp4431
sg73
g4425
sg66
(lp4432
g59
(g60
g61
NtRp4433
(dp4434
g64
(dp4435
g72
I1
ssg73
g4429
sg66
(lp4436
g3918
(S't\x06\x00\x00\x00Errors'
tRp4437
asbasbasbag59
(g75
g61
NtRp4438
(dp4439
g64
(dp4440
sg73
g4421
sg66
(lp4441
g59
(g80
g61
NtRp4442
(dp4443
g64
(dp4444
sg73
g4438
sg66
(lp4445
g59
(g60
g61
NtRp4446
(dp4447
g64
(dp4448
g72
I1
ssg73
g4442
sg66
(lp4449
I00
asbasbasbag59
(g75
g61
NtRp4450
(dp4451
g64
(dp4452
sg73
g4421
sg66
(lp4453
g59
(g80
g61
NtRp4454
(dp4455
g64
(dp4456
sg73
g4450
sg66
(lp4457
g59
(g60
g61
NtRp4458
(dp4459
g64
(dp4460
g72
I1
ssg73
g4454
sg66
(lp4461
S'/admin/default/errors/Desglosar_Emails'
p4462
asbasbasbasbasbasbasbag59
(g75
g61
NtRp4463
(dp4464
g64
(dp4465
sg73
g4027
sg66
(lp4466
g59
(g80
g61
NtRp4467
(dp4468
g64
(dp4469
sg73
g4463
sg66
(lp4470
g59
(g60
g61
NtRp4471
(dp4472
g64
(dp4473
g72
I2
ssg73
g4467
sg66
(lp4474
g59
(g68
g61
NtRp4475
(dp4476
g64
(dp4477
g72
I1
ssg73
Nsg66
(lp4478
g59
(g75
g61
NtRp4479
(dp4480
g64
(dp4481
sg73
g4475
sg66
(lp4482
g59
(g80
g61
NtRp4483
(dp4484
g64
(dp4485
sg73
g4479
sg66
(lp4486
g59
(g60
g61
NtRp4487
(dp4488
g64
(dp4489
g72
I1
ssg73
g4483
sg66
(lp4490
g3918
(S's\t\x00\x00\x00Acerca de'
tRp4491
asbasbasbag59
(g75
g61
NtRp4492
(dp4493
g64
(dp4494
sg73
g4475
sg66
(lp4495
g59
(g80
g61
NtRp4496
(dp4497
g64
(dp4498
sg73
g4492
sg66
(lp4499
g59
(g60
g61
NtRp4500
(dp4501
g64
(dp4502
g72
I1
ssg73
g4496
sg66
(lp4503
I00
asbasbasbag59
(g75
g61
NtRp4504
(dp4505
g64
(dp4506
sg73
g4475
sg66
(lp4507
g59
(g80
g61
NtRp4508
(dp4509
g64
(dp4510
sg73
g4504
sg66
(lp4511
g59
(g60
g61
NtRp4512
(dp4513
g64
(dp4514
g72
I1
ssg73
g4508
sg66
(lp4515
S'/admin/default/about/Desglosar_Emails'
p4516
asbasbasbasbasbasbasbasbasbasbasbasbasbasbasbag59
(g75
g61
NtRp4517
(dp4518
g64
(dp4519
sg73
g3886
sg66
(lp4520
g59
(g80
g61
NtRp4521
(dp4522
g64
(dp4523
sg73
g4517
sg66
(lp4524
g59
(g60
g61
NtRp4525
(dp4526
g64
(dp4527
g72
I4
ssg73
g4521
sg66
(lp4528
g59
(g68
g61
NtRp4529
(dp4530
g64
(dp4531
g72
I3
ssg73
Nsg66
(lp4532
g59
(g75
g61
NtRp4533
(dp4534
g64
(dp4535
sg73
g4529
sg66
(lp4536
g59
(g80
g61
NtRp4537
(dp4538
g64
(dp4539
sg73
g4533
sg66
(lp4540
g59
(g60
g61
NtRp4541
(dp4542
g64
(dp4543
g72
I3
ssg73
g4537
sg66
(lp4544
g3918
(S't\t\x00\x00\x00Resources'
tRp4545
asbasbasbag59
(g75
g61
NtRp4546
(dp4547
g64
(dp4548
sg73
g4529
sg66
(lp4549
g59
(g80
g61
NtRp4550
(dp4551
g64
(dp4552
sg73
g4546
sg66
(lp4553
g59
(g60
g61
NtRp4554
(dp4555
g64
(dp4556
g72
I3
ssg73
g4550
sg66
(lp4557
g102
asbasbasbag59
(g75
g61
NtRp4558
(dp4559
g64
(dp4560
sg73
g4529
sg66
(lp4561
g59
(g80
g61
NtRp4562
(dp4563
g64
(dp4564
sg73
g4558
sg66
(lp4565
g59
(g60
g61
NtRp4566
(dp4567
g64
(dp4568
g72
I3
ssg73
g4562
sg66
(lp4569
S'None'
p4570
asbasbasbag59
(g75
g61
NtRp4571
(dp4572
g64
(dp4573
sg73
g4529
sg66
(lp4574
g59
(g80
g61
NtRp4575
(dp4576
g64
(dp4577
sg73
g4571
sg66
(lp4578
g59
(g60
g61
NtRp4579
(dp4580
g64
(dp4581
g72
I3
ssg73
g4575
sg66
(lp4582
g59
(g68
g61
NtRp4583
(dp4584
g64
(dp4585
g72
I2
ssg73
Nsg66
(lp4586
g59
(g75
g61
NtRp4587
(dp4588
g64
(dp4589
sg73
g4583
sg66
(lp4590
g59
(g80
g61
NtRp4591
(dp4592
g64
(dp4593
sg73
g4587
sg66
(lp4594
g59
(g60
g61
NtRp4595
(dp4596
g64
(dp4597
g72
I2
ssg73
g4591
sg66
(lp4598
g59
(g68
g61
NtRp4599
(dp4600
g64
(dp4601
g72
I1
ssg73
Nsg66
(lp4602
g59
(g75
g61
NtRp4603
(dp4604
g64
(dp4605
sg73
g4599
sg66
(lp4606
g59
(g80
g61
NtRp4607
(dp4608
g64
(dp4609
sg73
g4603
sg66
(lp4610
g59
(g60
g61
NtRp4611
(dp4612
g64
(dp4613
g72
I1
ssg73
g4607
sg66
(lp4614
g3918
(S's\x0e\x00\x00\x00Documentaci\xc3\xb3n'
tRp4615
asbasbasbag59
(g75
g61
NtRp4616
(dp4617
g64
(dp4618
sg73
g4599
sg66
(lp4619
g59
(g80
g61
NtRp4620
(dp4621
g64
(dp4622
sg73
g4616
sg66
(lp4623
g59
(g60
g61
NtRp4624
(dp4625
g64
(dp4626
g72
I1
ssg73
g4620
sg66
(lp4627
I00
asbasbasbag59
(g75
g61
NtRp4628
(dp4629
g64
(dp4630
sg73
g4599
sg66
(lp4631
g59
(g80
g61
NtRp4632
(dp4633
g64
(dp4634
sg73
g4628
sg66
(lp4635
g59
(g60
g61
NtRp4636
(dp4637
g64
(dp4638
g72
I1
ssg73
g4632
sg66
(lp4639
S'http://www.web2py.com/book'
p4640
asbasbasbag59
(g75
g61
NtRp4641
(dp4642
g64
(dp4643
sg73
g4599
sg66
(lp4644
g59
(g80
g61
NtRp4645
(dp4646
g64
(dp4647
sg73
g4641
sg66
(lp4648
g59
(g60
g61
NtRp4649
(dp4650
g64
(dp4651
g72
I1
ssg73
g4645
sg66
(lp4652
(lp4653
(g3918
(S't\x07\x00\x00\x00Preface'
tRp4654
I00
S'http://www.web2py.com/book/default/chapter/00'
tp4655
a(g3918
(S't\x0c\x00\x00\x00Introduction'
tRp4656
I00
S'http://www.web2py.com/book/default/chapter/01'
tp4657
a(g3918
(S't\x06\x00\x00\x00Python'
tRp4658
I00
S'http://www.web2py.com/book/default/chapter/02'
tp4659
a(g3918
(S't\x08\x00\x00\x00Overview'
tRp4660
I00
S'http://www.web2py.com/book/default/chapter/03'
tp4661
a(g3918
(S's\x08\x00\x00\x00The Core'
tRp4662
I00
S'http://www.web2py.com/book/default/chapter/04'
tp4663
a(g3918
(S's\t\x00\x00\x00The Views'
tRp4664
I00
S'http://www.web2py.com/book/default/chapter/05'
tp4665
a(g3918
(S's\r\x00\x00\x00Base de datos'
tRp4666
I00
S'http://www.web2py.com/book/default/chapter/06'
tp4667
a(g3918
(S's\x14\x00\x00\x00Forms and Validators'
tRp4668
I00
S'http://www.web2py.com/book/default/chapter/07'
tp4669
a(g3918
(S's\x0e\x00\x00\x00Access Control'
tRp4670
I00
S'http://www.web2py.com/book/default/chapter/08'
tp4671
a(g3918
(S't\x08\x00\x00\x00Services'
tRp4672
I00
S'http://www.web2py.com/book/default/chapter/09'
tp4673
a(g3918
(S's\x0c\x00\x00\x00Ajax Recipes'
tRp4674
I00
S'http://www.web2py.com/book/default/chapter/10'
tp4675
a(g3918
(S's\x12\x00\x00\x00Deployment Recipes'
tRp4676
I00
S'http://www.web2py.com/book/default/chapter/11'
tp4677
a(g3918
(S's\r\x00\x00\x00Other Recipes'
tRp4678
I00
S'http://www.web2py.com/book/default/chapter/12'
tp4679
a(g3918
(S's\r\x00\x00\x00Buy this book'
tRp4680
I00
S'http://stores.lulu.com/web2py'
tp4681
aasbasbasbasbasbasbasbag59
(g75
g61
NtRp4682
(dp4683
g64
(dp4684
sg73
g4583
sg66
(lp4685
g59
(g80
g61
NtRp4686
(dp4687
g64
(dp4688
sg73
g4682
sg66
(lp4689
g59
(g60
g61
NtRp4690
(dp4691
g64
(dp4692
g72
I2
ssg73
g4686
sg66
(lp4693
g59
(g68
g61
NtRp4694
(dp4695
g64
(dp4696
g72
I1
ssg73
Nsg66
(lp4697
g59
(g75
g61
NtRp4698
(dp4699
g64
(dp4700
sg73
g4694
sg66
(lp4701
g59
(g80
g61
NtRp4702
(dp4703
g64
(dp4704
sg73
g4698
sg66
(lp4705
g59
(g60
g61
NtRp4706
(dp4707
g64
(dp4708
g72
I1
ssg73
g4702
sg66
(lp4709
g3918
(S't\t\x00\x00\x00Community'
tRp4710
asbasbasbag59
(g75
g61
NtRp4711
(dp4712
g64
(dp4713
sg73
g4694
sg66
(lp4714
g59
(g80
g61
NtRp4715
(dp4716
g64
(dp4717
sg73
g4711
sg66
(lp4718
g59
(g60
g61
NtRp4719
(dp4720
g64
(dp4721
g72
I1
ssg73
g4715
sg66
(lp4722
I00
asbasbasbag59
(g75
g61
NtRp4723
(dp4724
g64
(dp4725
sg73
g4694
sg66
(lp4726
g59
(g80
g61
NtRp4727
(dp4728
g64
(dp4729
sg73
g4723
sg66
(lp4730
g59
(g60
g61
NtRp4731
(dp4732
g64
(dp4733
g72
I1
ssg73
g4727
sg66
(lp4734
Nasbasbasbag59
(g75
g61
NtRp4735
(dp4736
g64
(dp4737
sg73
g4694
sg66
(lp4738
g59
(g80
g61
NtRp4739
(dp4740
g64
(dp4741
sg73
g4735
sg66
(lp4742
g59
(g60
g61
NtRp4743
(dp4744
g64
(dp4745
g72
I1
ssg73
g4739
sg66
(lp4746
(lp4747
(g3918
(S't\x06\x00\x00\x00Groups'
tRp4748
I00
S'http://www.web2py.com/examples/default/usergroups'
tp4749
a(g3918
(S't\x07\x00\x00\x00Twitter'
tRp4750
I00
S'http://twitter.com/web2py'
tp4751
a(g3918
(S's\t\x00\x00\x00Live chat'
tRp4752
I00
S'http://mibbit.com/?channel=%23web2py&server=irc.mibbit.net'
tp4753
a(g3918
(S's\n\x00\x00\x00User Voice'
tRp4754
I00
S'http://web2py.uservoice.com/'
tp4755
aasbasbasbasbasbasbasbag59
(g75
g61
NtRp4756
(dp4757
g64
(dp4758
sg73
g4583
sg66
(lp4759
g59
(g80
g61
NtRp4760
(dp4761
g64
(dp4762
sg73
g4756
sg66
(lp4763
g59
(g60
g61
NtRp4764
(dp4765
g64
(dp4766
g72
I2
ssg73
g4760
sg66
(lp4767
g59
(g68
g61
NtRp4768
(dp4769
g64
(dp4770
g72
I1
ssg73
Nsg66
(lp4771
g59
(g75
g61
NtRp4772
(dp4773
g64
(dp4774
sg73
g4768
sg66
(lp4775
g59
(g80
g61
NtRp4776
(dp4777
g64
(dp4778
sg73
g4772
sg66
(lp4779
g59
(g60
g61
NtRp4780
(dp4781
g64
(dp4782
g72
I1
ssg73
g4776
sg66
(lp4783
g3918
(S't\x06\x00\x00\x00Web2py'
tRp4784
asbasbasbag59
(g75
g61
NtRp4785
(dp4786
g64
(dp4787
sg73
g4768
sg66
(lp4788
g59
(g80
g61
NtRp4789
(dp4790
g64
(dp4791
sg73
g4785
sg66
(lp4792
g59
(g60
g61
NtRp4793
(dp4794
g64
(dp4795
g72
I1
ssg73
g4789
sg66
(lp4796
I00
asbasbasbag59
(g75
g61
NtRp4797
(dp4798
g64
(dp4799
sg73
g4768
sg66
(lp4800
g59
(g80
g61
NtRp4801
(dp4802
g64
(dp4803
sg73
g4797
sg66
(lp4804
g59
(g60
g61
NtRp4805
(dp4806
g64
(dp4807
g72
I1
ssg73
g4801
sg66
(lp4808
S'http://www.web2py.com'
p4809
asbasbasbag59
(g75
g61
NtRp4810
(dp4811
g64
(dp4812
sg73
g4768
sg66
(lp4813
g59
(g80
g61
NtRp4814
(dp4815
g64
(dp4816
sg73
g4810
sg66
(lp4817
g59
(g60
g61
NtRp4818
(dp4819
g64
(dp4820
g72
I1
ssg73
g4814
sg66
(lp4821
(lp4822
(g3918
(S't\x08\x00\x00\x00Download'
tRp4823
I00
S'http://www.web2py.com/examples/default/download'
tp4824
a(g3918
(S't\x07\x00\x00\x00Support'
tRp4825
I00
S'http://www.web2py.com/examples/default/support'
tp4826
a(g3918
(S's\x0e\x00\x00\x00Quick Examples'
tRp4827
I00
S'http://web2py.com/examples/default/examples'
tp4828
a(g3918
(S't\x03\x00\x00\x00FAQ'
tRp4829
I00
S'http://web2py.com/AlterEgo'
tp4830
a(g3918
(S's\x11\x00\x00\x00Free Applications'
tRp4831
I00
S'http://web2py.com/appliances'
tp4832
a(g3918
(S't\x07\x00\x00\x00Plugins'
tRp4833
I00
S'http://web2py.com/plugins'
tp4834
a(g3918
(S't\x07\x00\x00\x00Recipes'
tRp4835
I00
S'http://web2pyslices.com/'
tp4836
a(g3918
(S't\x04\x00\x00\x00Demo'
tRp4837
I00
S'http://web2py.com/demo_admin'
tp4838
a(g3918
(S't\x08\x00\x00\x00Semantic'
tRp4839
I00
S'http://web2py.com/semantic'
tp4840
a(g3918
(S't\x07\x00\x00\x00Layouts'
tRp4841
I00
S'http://web2py.com/layouts'
tp4842
a(g3918
(S't\x06\x00\x00\x00Videos'
tRp4843
I00
S'http://www.web2py.com/examples/default/videos/'
tp4844
aasbasbasbasbasbasbasbasbasbasbasbasbasbasbasbasbasbasbasbag59
(g75
g61
NtRp4845
(dp4846
g64
(dp4847
sg73
g3445
sg66
(lp4848
g59
(g80
g61
NtRp4849
(dp4850
g64
(dp4851
g84
g85
ssg73
g4845
sg66
(lp4852
S'meta'
p4853
asbag59
(g80
g61
NtRp4854
(dp4855
g64
(dp4856
g91
g92
ssg73
g4845
sg66
(lp4857
S':'
asbag59
(g80
g61
NtRp4858
(dp4859
g64
(dp4860
sg73
g4845
sg66
(lp4861
g59
(g60
g61
NtRp4862
(dp4863
g64
(dp4864
g72
I5
ssg73
g4858
sg66
(lp4865
g59
(g68
g61
NtRp4866
(dp4867
g64
(dp4868
g72
I4
ssg73
Nsg66
(lp4869
g59
(g75
g61
NtRp4870
(dp4871
g64
(dp4872
sg73
g4866
sg66
(lp4873
g59
(g80
g61
NtRp4874
(dp4875
g64
(dp4876
g84
g85
ssg73
g4870
sg66
(lp4877
S'author'
p4878
asbag59
(g80
g61
NtRp4879
(dp4880
g64
(dp4881
g91
g92
ssg73
g4870
sg66
(lp4882
S':'
asbag59
(g80
g61
NtRp4883
(dp4884
g64
(dp4885
sg73
g4870
sg66
(lp4886
g59
(g60
g61
NtRp4887
(dp4888
g64
(dp4889
g72
I4
ssg73
g4883
sg66
(lp4890
S'you'
p4891
asbasbasbag59
(g75
g61
NtRp4892
(dp4893
g64
(dp4894
sg73
g4866
sg66
(lp4895
g59
(g80
g61
NtRp4896
(dp4897
g64
(dp4898
g84
g85
ssg73
g4892
sg66
(lp4899
S'copyright'
p4900
asbag59
(g80
g61
NtRp4901
(dp4902
g64
(dp4903
g91
g92
ssg73
g4892
sg66
(lp4904
S':'
asbag59
(g80
g61
NtRp4905
(dp4906
g64
(dp4907
sg73
g4892
sg66
(lp4908
g59
(g60
g61
NtRp4909
(dp4910
g64
(dp4911
g72
I4
ssg73
g4905
sg66
(lp4912
S'Copyright 2007-2010'
p4913
asbasbasbag59
(g75
g61
NtRp4914
(dp4915
g64
(dp4916
sg73
g4866
sg66
(lp4917
g59
(g80
g61
NtRp4918
(dp4919
g64
(dp4920
g84
g85
ssg73
g4914
sg66
(lp4921
S'description'
p4922
asbag59
(g80
g61
NtRp4923
(dp4924
g64
(dp4925
g91
g92
ssg73
g4914
sg66
(lp4926
S':'
asbag59
(g80
g61
NtRp4927
(dp4928
g64
(dp4929
sg73
g4914
sg66
(lp4930
g59
(g60
g61
NtRp4931
(dp4932
g64
(dp4933
g72
I4
ssg73
g4927
sg66
(lp4934
S'Free and open source full-stack enterprise framework for agile development of fast, scalable, secure and portable database-driven web-based applications. Written and programmable in Python'
p4935
asbasbasbag59
(g75
g61
NtRp4936
(dp4937
g64
(dp4938
sg73
g4866
sg66
(lp4939
g59
(g80
g61
NtRp4940
(dp4941
g64
(dp4942
g84
g85
ssg73
g4936
sg66
(lp4943
S'generator'
p4944
asbag59
(g80
g61
NtRp4945
(dp4946
g64
(dp4947
g91
g92
ssg73
g4936
sg66
(lp4948
S':'
asbag59
(g80
g61
NtRp4949
(dp4950
g64
(dp4951
sg73
g4936
sg66
(lp4952
g59
(g60
g61
NtRp4953
(dp4954
g64
(dp4955
g72
I4
ssg73
g4949
sg66
(lp4956
S'Web2py Enterprise Framework'
p4957
asbasbasbag59
(g75
g61
NtRp4958
(dp4959
g64
(dp4960
sg73
g4866
sg66
(lp4961
g59
(g80
g61
NtRp4962
(dp4963
g64
(dp4964
g84
g85
ssg73
g4958
sg66
(lp4965
S'keywords'
p4966
asbag59
(g80
g61
NtRp4967
(dp4968
g64
(dp4969
g91
g92
ssg73
g4958
sg66
(lp4970
S':'
asbag59
(g80
g61
NtRp4971
(dp4972
g64
(dp4973
sg73
g4958
sg66
(lp4974
g59
(g60
g61
NtRp4975
(dp4976
g64
(dp4977
g72
I4
ssg73
g4971
sg66
(lp4978
S'web2py, python, framework'
p4979
asbasbasbasbasbasbasbag59
(g75
g61
NtRp4980
(dp4981
g64
(dp4982
sg73
g3445
sg66
(lp4983
g59
(g80
g61
NtRp4984
(dp4985
g64
(dp4986
g84
g85
ssg73
g4980
sg66
(lp4987
S'postprocessing'
p4988
asbag59
(g80
g61
NtRp4989
(dp4990
g64
(dp4991
g91
g92
ssg73
g4980
sg66
(lp4992
S':'
asbag59
(g80
g61
NtRp4993
(dp4994
g64
(dp4995
sg73
g4980
sg66
(lp4996
g59
(g60
g61
NtRp4997
(dp4998
g64
(dp4999
g72
I5
ssg73
g4993
sg66
(lp5000
g59
(g68
g61
NtRp5001
(dp5002
g64
(dp5003
g72
I4
ssg73
Nsg66
(lp5004
sbasbasbasbag59
(g75
g61
NtRp5005
(dp5006
g64
(dp5007
sg73
g3445
sg66
(lp5008
g59
(g80
g61
NtRp5009
(dp5010
g64
(dp5011
g84
g85
ssg73
g5005
sg66
(lp5012
S'session_file'
p5013
asbag59
(g80
g61
NtRp5014
(dp5015
g64
(dp5016
g91
g92
ssg73
g5005
sg66
(lp5017
S':'
asbag59
(g80
g61
NtRp5018
(dp5019
g64
(dp5020
sg73
g5005
sg66
(lp5021
g59
(g60
g61
NtRp5022
(dp5023
g64
(dp5024
g72
I5
ssg73
g5018
sg66
(lp5025
S"<open file 'C:\\Users\\Atomico\\web2py\\applications\\Desglosar_Emails\\sessions\\127.0.0.1-0a11b3b2-660c-433c-b71f-fc129286f26c', mode 'rb+' at 0x0878D4A0>"
p5026
asbasbasbag59
(g75
g61
NtRp5027
(dp5028
g64
(dp5029
sg73
g3445
sg66
(lp5030
g59
(g80
g61
NtRp5031
(dp5032
g64
(dp5033
g84
g85
ssg73
g5027
sg66
(lp5034
S'session_filename'
p5035
asbag59
(g80
g61
NtRp5036
(dp5037
g64
(dp5038
g91
g92
ssg73
g5027
sg66
(lp5039
S':'
asbag59
(g80
g61
NtRp5040
(dp5041
g64
(dp5042
sg73
g5027
sg66
(lp5043
g59
(g60
g61
NtRp5044
(dp5045
g64
(dp5046
g72
I5
ssg73
g5040
sg66
(lp5047
S'C:\\Users\\Atomico\\web2py\\applications\\Desglosar_Emails\\sessions\\127.0.0.1-0a11b3b2-660c-433c-b71f-fc129286f26c'
p5048
asbasbasbag59
(g75
g61
NtRp5049
(dp5050
g64
(dp5051
sg73
g3445
sg66
(lp5052
g59
(g80
g61
NtRp5053
(dp5054
g64
(dp5055
g84
g85
ssg73
g5049
sg66
(lp5056
S'session_id'
p5057
asbag59
(g80
g61
NtRp5058
(dp5059
g64
(dp5060
g91
g92
ssg73
g5049
sg66
(lp5061
S':'
asbag59
(g80
g61
NtRp5062
(dp5063
g64
(dp5064
sg73
g5049
sg66
(lp5065
g59
(g60
g61
NtRp5066
(dp5067
g64
(dp5068
g72
I5
ssg73
g5062
sg66
(lp5069
S'127.0.0.1-0a11b3b2-660c-433c-b71f-fc129286f26c'
p5070
asbasbasbag59
(g75
g61
NtRp5071
(dp5072
g64
(dp5073
sg73
g3445
sg66
(lp5074
g59
(g80
g61
NtRp5075
(dp5076
g64
(dp5077
g84
g85
ssg73
g5071
sg66
(lp5078
S'session_id_name'
p5079
asbag59
(g80
g61
NtRp5080
(dp5081
g64
(dp5082
g91
g92
ssg73
g5071
sg66
(lp5083
S':'
asbag59
(g80
g61
NtRp5084
(dp5085
g64
(dp5086
sg73
g5071
sg66
(lp5087
g59
(g60
g61
NtRp5088
(dp5089
g64
(dp5090
g72
I5
ssg73
g5084
sg66
(lp5091
g3502
asbasbasbag59
(g75
g61
NtRp5092
(dp5093
g64
(dp5094
sg73
g3445
sg66
(lp5095
g59
(g80
g61
NtRp5096
(dp5097
g64
(dp5098
g84
g85
ssg73
g5092
sg66
(lp5099
S'session_locked'
p5100
asbag59
(g80
g61
NtRp5101
(dp5102
g64
(dp5103
g91
g92
ssg73
g5092
sg66
(lp5104
S':'
asbag59
(g80
g61
NtRp5105
(dp5106
g64
(dp5107
sg73
g5092
sg66
(lp5108
g59
(g60
g61
NtRp5109
(dp5110
g64
(dp5111
g72
I5
ssg73
g5105
sg66
(lp5112
g2379
asbasbasbag59
(g75
g61
NtRp5113
(dp5114
g64
(dp5115
sg73
g3445
sg66
(lp5116
g59
(g80
g61
NtRp5117
(dp5118
g64
(dp5119
g84
g85
ssg73
g5113
sg66
(lp5120
S'session_new'
p5121
asbag59
(g80
g61
NtRp5122
(dp5123
g64
(dp5124
g91
g92
ssg73
g5113
sg66
(lp5125
S':'
asbag59
(g80
g61
NtRp5126
(dp5127
g64
(dp5128
sg73
g5113
sg66
(lp5129
g59
(g60
g61
NtRp5130
(dp5131
g64
(dp5132
g72
I5
ssg73
g5126
sg66
(lp5133
g102
asbasbasbag59
(g75
g61
NtRp5134
(dp5135
g64
(dp5136
sg73
g3445
sg66
(lp5137
g59
(g80
g61
NtRp5138
(dp5139
g64
(dp5140
g84
g85
ssg73
g5134
sg66
(lp5141
S'status'
p5142
asbag59
(g80
g61
NtRp5143
(dp5144
g64
(dp5145
g91
g92
ssg73
g5134
sg66
(lp5146
S':'
asbag59
(g80
g61
NtRp5147
(dp5148
g64
(dp5149
sg73
g5134
sg66
(lp5150
g59
(g60
g61
NtRp5151
(dp5152
g64
(dp5153
g72
I5
ssg73
g5147
sg66
(lp5154
S'200'
p5155
asbasbasbag59
(g75
g61
NtRp5156
(dp5157
g64
(dp5158
sg73
g3445
sg66
(lp5159
g59
(g80
g61
NtRp5160
(dp5161
g64
(dp5162
g84
g85
ssg73
g5156
sg66
(lp5163
S'subtitle'
p5164
asbag59
(g80
g61
NtRp5165
(dp5166
g64
(dp5167
g91
g92
ssg73
g5156
sg66
(lp5168
S':'
asbag59
(g80
g61
NtRp5169
(dp5170
g64
(dp5171
sg73
g5156
sg66
(lp5172
g59
(g60
g61
NtRp5173
(dp5174
g64
(dp5175
g72
I5
ssg73
g5169
sg66
(lp5176
g3918
(S's\t\x00\x00\x00Adaptame!'
tRp5177
asbasbasbag59
(g75
g61
NtRp5178
(dp5179
g64
(dp5180
sg73
g3445
sg66
(lp5181
g59
(g80
g61
NtRp5182
(dp5183
g64
(dp5184
g84
g85
ssg73
g5178
sg66
(lp5185
S'title'
p5186
asbag59
(g80
g61
NtRp5187
(dp5188
g64
(dp5189
g91
g92
ssg73
g5178
sg66
(lp5190
S':'
asbag59
(g80
g61
NtRp5191
(dp5192
g64
(dp5193
sg73
g5178
sg66
(lp5194
g59
(g60
g61
NtRp5195
(dp5196
g64
(dp5197
g72
I5
ssg73
g5191
sg66
(lp5198
g124
asbasbasbag59
(g75
g61
NtRp5199
(dp5200
g64
(dp5201
sg73
g3445
sg66
(lp5202
g59
(g80
g61
NtRp5203
(dp5204
g64
(dp5205
g84
g85
ssg73
g5199
sg66
(lp5206
g2703
asbag59
(g80
g61
NtRp5207
(dp5208
g64
(dp5209
g91
g92
ssg73
g5199
sg66
(lp5210
S':'
asbag59
(g80
g61
NtRp5211
(dp5212
g64
(dp5213
sg73
g5199
sg66
(lp5214
g59
(g60
g61
NtRp5215
(dp5216
g64
(dp5217
g72
I5
ssg73
g5211
sg66
(lp5218
g2716
asbasbasbag59
(g75
g61
NtRp5219
(dp5220
g64
(dp5221
sg73
g3445
sg66
(lp5222
g59
(g80
g61
NtRp5223
(dp5224
g64
(dp5225
g84
g85
ssg73
g5219
sg66
(lp5226
S'view'
p5227
asbag59
(g80
g61
NtRp5228
(dp5229
g64
(dp5230
g91
g92
ssg73
g5219
sg66
(lp5231
S':'
asbag59
(g80
g61
NtRp5232
(dp5233
g64
(dp5234
sg73
g5219
sg66
(lp5235
g59
(g60
g61
NtRp5236
(dp5237
g64
(dp5238
g72
I5
ssg73
g5232
sg66
(lp5239
S'default/entrada_mod3.html'
p5240
asbasbasbasbasbsS'locals'
p5241
(dp5242
g3
S"r'C:\\Users\\Atomico\\web2py\\applications\\Desglosar_Emails\\views\\default/entrada_mod3.html'"
p5243
sg5
S'\'response.write(\\\'<!DOCTYPE html>\\\\n<html lang="\\\', ...t   -->    \\\\n  </body>\\\\n</html>\\\\n\\\', escape=False)\''
p5244
sssS'traceback'
p5245
S'Traceback (most recent call last):\n  File "gluon/restricted.py", line 191, in restricted\n  File "gluon/restricted.py", line 178, in compile2\n  File "C:\\Users\\Atomico\\web2py\\applications\\Desglosar_Emails\\views\\default/entrada_mod3.html", line 122\n    es la posf\n        ^\nSyntaxError: invalid syntax\n'
p5246
s.