(dp1
S'output'
p2
S''
sS'layer'
p3
S'C:\\Users\\Atomico\\web2py\\applications\\Desglosar_Emails\\views\\default/entrada_mod3.html'
p4
sS'code'
p5
S'response.write(\'<!DOCTYPE html>\\n<html lang="\', escape=False)\nresponse.write(T.accepted_language or \'en\')\nresponse.write(\'" class="no-js"><!-- no-js need it for modernzr -->\\n  <head>\\n    \\n    <meta charset="utf-8" />\\t  \\t\\n    <!-- www.phpied.com/conditional-comments-block-downloads/ -->\\n    <!--[if IE]><![endif]-->    \\n    <!-- Always force latest IE rendering engine \\n\\t (even in intranet) & Chrome Frame \\n\\t Remove this if you use the .htaccess -->\\n    <meta http-equiv="X-UA-Compatible" content="IE=edge,chrome=1">\\n    \\n    <title>\', escape=False)\nresponse.write(response.title or request.application)\nresponse.write(\'</title>\\n    \\n    <!-- http://dev.w3.org/html5/markup/meta.name.html -->\\n    <meta name="application-name" content="\', escape=False)\nresponse.write(request.application)\nresponse.write(\'" />\\t\\n    \\n    <!-- Speaking of Google, don\\\'t forget to set your site up: \\n\\t http://google.com/webmasters -->\\n    <meta name="google-site-verification" content="" />\\n    \\n    <!--  Mobile Viewport Fix\\n\\t  j.mp/mobileviewport & davidbcalhoun.com/2010/viewport-metatag \\n\\t  device-width: Occupy full width of the screen in its current orientation\\n\\t  initial-scale = 1.0 retains dimensions instead of zooming out if page height > device height\\n\\t  maximum-scale = 1.0 retains dimensions instead of zooming in if page width < device width\\n      -->\\n    <meta name="viewport" content="width=device-width, initial-scale=1.0, maximum-scale=1.0">\\n    \\n    <!-- Place favicon.ico and apple-touch-icon.png in the root of your domain and delete these references -->\\n    <link rel="shortcut icon" href="\', escape=False)\nresponse.write(URL(\'static\',\'favicon.ico\'))\nresponse.write(\'" type="image/x-icon">\\n    <link rel="apple-touch-icon" href="\', escape=False)\nresponse.write(URL(\'static\',\'favicon.png\'))\nresponse.write(\'">\\n\\n    <!-- For the less-enabled mobile browsers like Opera Mini -->\\n    <link rel="stylesheet" media="handheld" href="\', escape=False)\nresponse.write(URL(\'static\',\'css/handheld.css\'))\nresponse.write(\'">\\n    \\n    <!-- All JavaScript at the bottom, except for Modernizr which enables HTML5 elements & feature detects -->\\n    <script src="\', escape=False)\nresponse.write(URL(\'static\',\'js/modernizr-1.7.min.js\'))\nresponse.write(\'"></script>\\n    \\n    \', escape=False)\n#------  require CSS and JS files for this page (read info in base.css) ------\nresponse.write(\'\\n    \', escape=False)\nresponse.files.append(URL(\'static\',\'css/base.css\'))\nresponse.write(\'\\n    \', escape=False)\nresponse.files.append(URL(\'static\',\'css/superfish.css\'))\nresponse.write(\'\\n    \', escape=False)\nresponse.files.append(URL(\'static\',\'js/superfish.js\'))\nresponse.write(\'\\n    \', escape=False)\n#------ include web2py specific js code (jquery, calendar, form stuff) ------\nresponse.write(\'\\n    \', escape=False)\nresponse.files.insert(0,URL(\'static\',\'js/jquery.js\'))\nresponse.files.insert(1,URL(\'static\',\'css/calendar.css\'))\nresponse.files.insert(2,URL(\'static\',\'js/calendar.js\'))\nfor _item in response.meta or []:\n    response.write(\'\\n     <meta name="\', escape=False)\n    response.write(_item)\n    response.write(\'" content="\', escape=False)\n    response.write(response.meta[_item])\n    response.write(\'" />\', escape=False)\n    pass\nfor _k,_file in enumerate(response.files or []):\n    if _file in response.files[:_k]:\n        continue\n    _file0=_file.lower().split(\'?\')[0]\n    if _file0.endswith(\'.css\'):\n        response.write(\'\\n     <link href="\', escape=False)\n        response.write(_file)\n        response.write(\'" rel="stylesheet" type="text/css" />\', escape=False)\n    elif _file0.endswith(\'.js\'):\n        response.write(\'\\n     <script src="\', escape=False)\n        response.write(_file)\n        response.write(\'" type="text/javascript"></script>\', escape=False)\n        pass\n    pass\nresponse.write(\'\\n    <script type="text/javascript"><!--\\n    // These variables are used by the web2py_ajax_init function in web2py_ajax.js (which is loaded below).\\n    var w2p_ajax_confirm_message = "\', escape=False)\nresponse.write(T(\'Are you sure you want to delete this object?\'))\nresponse.write(\'";\\n    var w2p_ajax_date_format = "\', escape=False)\nresponse.write(T(\'%Y-%m-%d\'))\nresponse.write(\'";\\n    var w2p_ajax_datetime_format = "\', escape=False)\nresponse.write(T(\'%Y-%m-%d %H:%M:%S\'))\nresponse.write(\'";\\n    //--></script>\\n    <script src="\', escape=False)\nresponse.write(URL(\'static\',\'js/web2py_ajax.js\'))\nresponse.write(\'" type="text/javascript"></script>\\n\', escape=False)\nresponse.write(\'\\n\\n    \', escape=False)\n#using sidebars need to know what sidebar you want to use\n#prior of using it, because of static width size of content, you can use\n#left_sidebar, right_sidebar, both or none (False left and right)\nleft_sidebar_enabled = globals().get(\'left_sidebar_enabled\',False)\nright_sidebar_enabled = globals().get(\'right_sidebar_enabled\',False)\nif left_sidebar_enabled and right_sidebar_enabled: width_content=\'63%\'\nelif left_sidebar_enabled != right_sidebar_enabled: width_content=\'740px\'\nelse: width_content=\'100%\'\nif left_sidebar_enabled: left_sidebar_style = \'style="display: block;"\'\nelse: left_sidebar_style = \'style="display: none;"\'\nif right_sidebar_enabled: right_sidebar_style = \'style="display: block;"\'\nelse: right_sidebar_style = \'style="display: none;"\'\nstyle_content = \'style="width: %s"\' % width_content\nresponse.write(\'\\n  </head>\\n  \\n  <!-- paulirish.com/2008/conditional-stylesheets-vs-css-hacks-answer-neither/ -->\\t\\n  <!--[if lt IE 7 ]> <body class="ie6"> <![endif]-->\\n  <!--[if IE 7 ]>    <body class="ie7"> <![endif]-->\\n  <!--[if IE 8 ]>    <body class="ie8"> <![endif]-->\\n  <!--[if IE 9 ]>    <body class="ie9"> <![endif]-->\\n  <!--[if (gt IE 9)|!(IE)]><!--> <body> <!--<![endif]-->\\n    \\n    <div class="flash">\', escape=False)\nresponse.write(response.flash or \'\')\nresponse.write(\'</div> <!-- notification div -->\\n    \\n    <div id="container">\\t      \\t\\t      \\t\\n      \\n      <div id="wrapper">\\t\\t\\n\\t\\n\\t<div id="header"> <!-- header and login nav -->\\n\\t  \', escape=False)\nresponse.write(\' <!-- this is default header -->\\n\\t  \', escape=False)\ntry:\n    response.write(auth.navbar(action=URL(\'default\',\'user\')))\nexcept:pass\nresponse.write(\'\\t\\t          \\n\\t  <h1><span id="appname">\', escape=False)\nresponse.write(request.application.capitalize())\nresponse.write(\'</span>App</h1>\\n\\t  <div style="clear: both;"></div><!-- Clear the divs -->\\n\\t  \', escape=False)\nresponse.write(\'\\t\\t\\t\\t  \\t\\t\\t\\t\\t  \\n\\t</div><!-- header  -->\\n\\t\\n\\t<div id="statusbar"><!-- statusbar is menu zone -->\\n\\t  \', escape=False)\nresponse.write(\' <!-- this is default statusbar -->\\n\\t  \', escape=False)\n#------ superfish menu ------\nresponse.write(\'\\n\\t  \', escape=False)\nresponse.write(MENU(response.menu,_class=\'sf-menu\'))\nresponse.write(\'\\n\\t  <script type="text/javascript">\\n\\t    jQuery(document).ready(function(){\\n\\t    jQuery(\\\'ul.sf-menu\\\').superfish();});\\n\\t  </script>\\n\\t  <div style="clear: both;"></div><!-- Clear the divs -->\\t\\n\\t  \', escape=False)\nresponse.write(\'\\t\\t\\t\\t\\n\\t</div><!-- statusbar -->\\n\\t\\n\\t<div id="page"> <!-- Here my central body -->\\t  \\n\\n\\t  \', escape=False)\nif left_sidebar_enabled:\n    response.write(\'\\n          <div id="left_sidebar" \', escape=False)\n    response.write(XML(left_sidebar_style))\n    response.write(\' >\\n            <div style="padding: 4px;">\\n\\t      \', escape=False)\n    response.write(\'Content Left Sidebar\', escape=False)\n    response.write(\'\\t\\t  \\n            </div>\\n          </div><!-- left_sidebar -->\\n\\t  \', escape=False)\n    pass\nresponse.write(\'\\n\\n\\t  <!-- content -->\\n\\t  <div id="content" \', escape=False)\nresponse.write(XML(style_content))\nresponse.write(\' >\\n\\t    \', escape=False)\nresponse.write(\'\\r\\n<h1>Esta es la plantilla default/entrada_mod3.html</h1>\\r\\n<h2>Formulario</h2>\\r\\n\', escape=False)\nresponse.write(form)\nresponse.write(\'\\r\\n<br/>\\r\\n<h3>Tratamientos</h3>\\r\\n\', escape=False)\ntextual=db(db.info4.id==1).select()[0]\ntxt=textual.texto\nresponse.write(len(txt))\nresponse.write(\'\\r\\n es la longitud del texto.\\r\\n<br/> Claro: \\r\\n\\r\\n\', escape=False)\nimport re\npattern=re.compile("[\\w|\xc3\xb1|\xc3\x91]+.\\w+.\\w+")\npatternemail=re.compile("@\\w+[.]\\w+")\nclavos=[\'(\',\')\',\',\',\';\',\' \']\nres=pattern.findall(txt)\nresponse.write(len(res))\nfor i in res: response.write(i+\'    \',escape=False)\nres2=patternemail.findall(txt)\nresponse.write(len(res2))\nfor i in res2: response.write(i)\nresponse.write(\'\\r\\n<br/>\\r\\n\', escape=False)\ni=0\nwhile i<len(res):\n    if patternemail.search(res[i])==False:\n        db.contactos.insert(nombre=res[i],email=res[i+1])\n        i=i+2\n    elif patternemail.search(res[i]):\n        db.contactos.insert(email=res[i])\n        i=i+1\n    else: response.write(\'Aqu\xc3\xad hay un problema\')\n    pass\nresponse.write(\'\\r\\n<br/> s\\xc3\\xb3c el peU.\\r\\n\', escape=False)\nresponse.write(\'\\t\\n\\t  </div>\\n\\t  <!-- content -->\\n\\n\\t  \', escape=False)\nif right_sidebar_enabled:\n    response.write(\'\\n          <div id="right_sidebar" \', escape=False)\n    response.write(XML(right_sidebar_style))\n    response.write(\' >\\n            <div style="padding: 4px;">\\n              \', escape=False)\n    response.write(\'Content Right Sidebar\', escape=False)\n    response.write(\'\\n            </div>\\n\\t  </div><!-- right_sidebar -->\\n          \', escape=False)\n    pass\nresponse.write(\'\\n\\n\\n\\t  <div style="clear: both;"></div><!-- Clear the divs -->\\n\\t  \\n\\t</div><!-- page -->\\t\\t\\t\\t\\t\\t\\t\\n\\t\\n\\t<div id="footer">\\n\\t  \', escape=False)\nresponse.write(\' <!-- this is default footer -->\\n\\t  <a href="http://www.web2py.com/" style="float: left; padding-right: 6px;">\\n\\t    <img src="\', escape=False)\nresponse.write(URL(\'static\',\'images/poweredby.png\'))\nresponse.write(\'"/>\\n\\t  </a>\\n\\t  \', escape=False)\nresponse.write(T(\'Copyright\'))\nresponse.write(\' &#169; 2010\\t\\t\\t\\t\\n\\t  <div style="clear: both;"></div><!-- Clear the divs -->\\n\\t  \', escape=False)\nresponse.write(\'\\n\\n\\t</div><!-- footer -->\\t\\t\\t\\n      </div><!-- wrapper -->\\n    </div><!-- container -->\\t\\t\\n    \\n    <!--[if lt IE 7 ]>\\n\\t<script src="\', escape=False)\nresponse.write(URL(\'static\',\'js/dd_belatedpng.js\'))\nresponse.write(\'"></script>\\n\\t<script> DD_belatedPNG.fix(\\\'img, .png_bg\\\'); //fix any <img> or .png_bg background-images </script>\\n\\t<![endif]-->\\n    \\n    <!-- asynchronous google analytics: mathiasbynens.be/notes/async-analytics-snippet \\n\\t change the UA-XXXXX-X to be your site\\\'s ID -->\\n    <!--   \\n\\t   <script>\\n\\t     var _gaq = [[\\\'_setAccount\\\', \\\'UA-XXXXX-X\\\'], [\\\'_trackPageview\\\']];\\n\\t     (function(d, t) {\\n\\t     var g = d.createElement(t),\\n\\t     s = d.getElementsByTagName(t)[0];\\n\\t     g.async = true;\\n\\t     g.src = \\\'//www.google-analytics.com/ga.js\\\';\\n\\t     s.parentNode.insertBefore(g, s);\\n\\t     })(document, \\\'script\\\');\\n\\t   </script>\\n\\t   -->    \\n  </body>\\n</html>\\n\', escape=False)'
p6
sS'snapshot'
p7
(dp8
S'exception'
p9
(dp10
S'__hash__'
p11
S"<method-wrapper '__hash__' of exceptions.MemoryError object at 0x07578D28>"
p12
sS'__setattr__'
p13
S"<method-wrapper '__setattr__' of exceptions.MemoryError object at 0x07578D28>"
p14
sS'__reduce_ex__'
p15
S'<built-in method __reduce_ex__ of exceptions.MemoryError object at 0x07578D28>'
p16
sS'__getslice__'
p17
S"<method-wrapper '__getslice__' of exceptions.MemoryError object at 0x07578D28>"
p18
sS'__getitem__'
p19
S"<method-wrapper '__getitem__' of exceptions.MemoryError object at 0x07578D28>"
p20
sS'__setstate__'
p21
S'<built-in method __setstate__ of exceptions.MemoryError object at 0x07578D28>'
p22
sS'__reduce__'
p23
S'<built-in method __reduce__ of exceptions.MemoryError object at 0x07578D28>'
p24
sS'__str__'
p25
S"<method-wrapper '__str__' of exceptions.MemoryError object at 0x07578D28>"
p26
sS'args'
p27
S"('out of memory',)"
p28
sS'__getattribute__'
p29
S"<method-wrapper '__getattribute__' of exceptions.MemoryError object at 0x07578D28>"
p30
sS'__class__'
p31
S"<type 'exceptions.MemoryError'>"
p32
sS'__delattr__'
p33
S"<method-wrapper '__delattr__' of exceptions.MemoryError object at 0x07578D28>"
p34
sS'__repr__'
p35
S"<method-wrapper '__repr__' of exceptions.MemoryError object at 0x07578D28>"
p36
sS'__dict__'
p37
S'{}'
p38
sS'__doc__'
p39
S"'Out of memory.'"
p40
sS'__init__'
p41
S"<method-wrapper '__init__' of exceptions.MemoryError object at 0x07578D28>"
p42
sS'__new__'
p43
S'<built-in method __new__ of type object at 0x1E1CEA70>'
p44
ssS'evalue'
p45
S'out of memory'
p46
sS'request'
p47
ccopy_reg
_reconstructor
p48
(cgluon.html
BEAUTIFY
p49
c__builtin__
object
p50
NtRp51
(dp52
S'attributes'
p53
(dp54
sS'components'
p55
(lp56
g48
(cgluon.html
TABLE
p57
g50
NtRp58
(dp59
g53
(dp60
S'level'
p61
I5
ssS'parent'
p62
Nsg55
(lp63
g48
(cgluon.html
TR
p64
g50
NtRp65
(dp66
g53
(dp67
sg62
g58
sg55
(lp68
g48
(cgluon.html
TD
p69
g50
NtRp70
(dp71
g53
(dp72
S'_style'
p73
S'font-weight:bold;'
p74
ssg62
g65
sg55
(lp75
S'ajax'
p76
asbag48
(g69
g50
NtRp77
(dp78
g53
(dp79
S'_valign'
p80
S'top'
p81
ssg62
g65
sg55
(lp82
S':'
asbag48
(g69
g50
NtRp83
(dp84
g53
(dp85
sg62
g65
sg55
(lp86
g48
(g49
g50
NtRp87
(dp88
g53
(dp89
g61
I5
ssg62
g83
sg55
(lp90
S'False'
p91
asbasbasbag48
(g64
g50
NtRp92
(dp93
g53
(dp94
sg62
g58
sg55
(lp95
g48
(g69
g50
NtRp96
(dp97
g53
(dp98
g73
g74
ssg62
g92
sg55
(lp99
S'application'
p100
asbag48
(g69
g50
NtRp101
(dp102
g53
(dp103
g80
g81
ssg62
g92
sg55
(lp104
S':'
asbag48
(g69
g50
NtRp105
(dp106
g53
(dp107
sg62
g92
sg55
(lp108
g48
(g49
g50
NtRp109
(dp110
g53
(dp111
g61
I5
ssg62
g105
sg55
(lp112
S'Desglosar_Emails'
p113
asbasbasbag48
(g64
g50
NtRp114
(dp115
g53
(dp116
sg62
g58
sg55
(lp117
g48
(g69
g50
NtRp118
(dp119
g53
(dp120
g73
g74
ssg62
g114
sg55
(lp121
g27
asbag48
(g69
g50
NtRp122
(dp123
g53
(dp124
g80
g81
ssg62
g114
sg55
(lp125
S':'
asbag48
(g69
g50
NtRp126
(dp127
g53
(dp128
sg62
g114
sg55
(lp129
g48
(g49
g50
NtRp130
(dp131
g53
(dp132
g61
I5
ssg62
g126
sg55
(lp133
g48
(g57
g50
NtRp134
(dp135
g53
(dp136
g61
I4
ssg62
Nsg55
(lp137
sbasbasbasbag48
(g64
g50
NtRp138
(dp139
g53
(dp140
sg62
g58
sg55
(lp141
g48
(g69
g50
NtRp142
(dp143
g53
(dp144
g73
g74
ssg62
g138
sg55
(lp145
S'body'
p146
asbag48
(g69
g50
NtRp147
(dp148
g53
(dp149
g80
g81
ssg62
g138
sg55
(lp150
S':'
asbag48
(g69
g50
NtRp151
(dp152
g53
(dp153
sg62
g138
sg55
(lp154
g48
(g49
g50
NtRp155
(dp156
g53
(dp157
g61
I5
ssg62
g151
sg55
(lp158
S'<cStringIO.StringO object at 0x08706F60>'
p159
asbasbasbag48
(g64
g50
NtRp160
(dp161
g53
(dp162
sg62
g58
sg55
(lp163
g48
(g69
g50
NtRp164
(dp165
g53
(dp166
g73
g74
ssg62
g160
sg55
(lp167
S'client'
p168
asbag48
(g69
g50
NtRp169
(dp170
g53
(dp171
g80
g81
ssg62
g160
sg55
(lp172
S':'
asbag48
(g69
g50
NtRp173
(dp174
g53
(dp175
sg62
g160
sg55
(lp176
g48
(g49
g50
NtRp177
(dp178
g53
(dp179
g61
I5
ssg62
g173
sg55
(lp180
S'127.0.0.1'
p181
asbasbasbag48
(g64
g50
NtRp182
(dp183
g53
(dp184
sg62
g58
sg55
(lp185
g48
(g69
g50
NtRp186
(dp187
g53
(dp188
g73
g74
ssg62
g182
sg55
(lp189
S'controller'
p190
asbag48
(g69
g50
NtRp191
(dp192
g53
(dp193
g80
g81
ssg62
g182
sg55
(lp194
S':'
asbag48
(g69
g50
NtRp195
(dp196
g53
(dp197
sg62
g182
sg55
(lp198
g48
(g49
g50
NtRp199
(dp200
g53
(dp201
g61
I5
ssg62
g195
sg55
(lp202
S'default'
p203
asbasbasbag48
(g64
g50
NtRp204
(dp205
g53
(dp206
sg62
g58
sg55
(lp207
g48
(g69
g50
NtRp208
(dp209
g53
(dp210
g73
g74
ssg62
g204
sg55
(lp211
S'cookies'
p212
asbag48
(g69
g50
NtRp213
(dp214
g53
(dp215
g80
g81
ssg62
g204
sg55
(lp216
S':'
asbag48
(g69
g50
NtRp217
(dp218
g53
(dp219
sg62
g204
sg55
(lp220
g48
(g49
g50
NtRp221
(dp222
g53
(dp223
g61
I5
ssg62
g217
sg55
(lp224
g48
(g57
g50
NtRp225
(dp226
g53
(dp227
g61
I4
ssg62
Nsg55
(lp228
g48
(g64
g50
NtRp229
(dp230
g53
(dp231
sg62
g225
sg55
(lp232
g48
(g69
g50
NtRp233
(dp234
g53
(dp235
g73
g74
ssg62
g229
sg55
(lp236
S'session_id_admin'
p237
asbag48
(g69
g50
NtRp238
(dp239
g53
(dp240
g80
g81
ssg62
g229
sg55
(lp241
S':'
asbag48
(g69
g50
NtRp242
(dp243
g53
(dp244
sg62
g229
sg55
(lp245
g48
(g49
g50
NtRp246
(dp247
g53
(dp248
g61
I4
ssg62
g242
sg55
(lp249
g48
(g57
g50
NtRp250
(dp251
g53
(dp252
g61
I3
ssg62
Nsg55
(lp253
g48
(g64
g50
NtRp254
(dp255
g53
(dp256
sg62
g250
sg55
(lp257
g48
(g69
g50
NtRp258
(dp259
g53
(dp260
g73
g74
ssg62
g254
sg55
(lp261
S'comment'
p262
asbag48
(g69
g50
NtRp263
(dp264
g53
(dp265
g80
g81
ssg62
g254
sg55
(lp266
S':'
asbag48
(g69
g50
NtRp267
(dp268
g53
(dp269
sg62
g254
sg55
(lp270
g48
(g49
g50
NtRp271
(dp272
g53
(dp273
g61
I3
ssg62
g267
sg55
(lp274
S''
asbasbasbag48
(g64
g50
NtRp275
(dp276
g53
(dp277
sg62
g250
sg55
(lp278
g48
(g69
g50
NtRp279
(dp280
g53
(dp281
g73
g74
ssg62
g275
sg55
(lp282
S'domain'
p283
asbag48
(g69
g50
NtRp284
(dp285
g53
(dp286
g80
g81
ssg62
g275
sg55
(lp287
S':'
asbag48
(g69
g50
NtRp288
(dp289
g53
(dp290
sg62
g275
sg55
(lp291
g48
(g49
g50
NtRp292
(dp293
g53
(dp294
g61
I3
ssg62
g288
sg55
(lp295
S''
asbasbasbag48
(g64
g50
NtRp296
(dp297
g53
(dp298
sg62
g250
sg55
(lp299
g48
(g69
g50
NtRp300
(dp301
g53
(dp302
g73
g74
ssg62
g296
sg55
(lp303
S'expires'
p304
asbag48
(g69
g50
NtRp305
(dp306
g53
(dp307
g80
g81
ssg62
g296
sg55
(lp308
S':'
asbag48
(g69
g50
NtRp309
(dp310
g53
(dp311
sg62
g296
sg55
(lp312
g48
(g49
g50
NtRp313
(dp314
g53
(dp315
g61
I3
ssg62
g309
sg55
(lp316
S''
asbasbasbag48
(g64
g50
NtRp317
(dp318
g53
(dp319
sg62
g250
sg55
(lp320
g48
(g69
g50
NtRp321
(dp322
g53
(dp323
g73
g74
ssg62
g317
sg55
(lp324
S'max-age'
p325
asbag48
(g69
g50
NtRp326
(dp327
g53
(dp328
g80
g81
ssg62
g317
sg55
(lp329
S':'
asbag48
(g69
g50
NtRp330
(dp331
g53
(dp332
sg62
g317
sg55
(lp333
g48
(g49
g50
NtRp334
(dp335
g53
(dp336
g61
I3
ssg62
g330
sg55
(lp337
S''
asbasbasbag48
(g64
g50
NtRp338
(dp339
g53
(dp340
sg62
g250
sg55
(lp341
g48
(g69
g50
NtRp342
(dp343
g53
(dp344
g73
g74
ssg62
g338
sg55
(lp345
S'path'
p346
asbag48
(g69
g50
NtRp347
(dp348
g53
(dp349
g80
g81
ssg62
g338
sg55
(lp350
S':'
asbag48
(g69
g50
NtRp351
(dp352
g53
(dp353
sg62
g338
sg55
(lp354
g48
(g49
g50
NtRp355
(dp356
g53
(dp357
g61
I3
ssg62
g351
sg55
(lp358
S''
asbasbasbag48
(g64
g50
NtRp359
(dp360
g53
(dp361
sg62
g250
sg55
(lp362
g48
(g69
g50
NtRp363
(dp364
g53
(dp365
g73
g74
ssg62
g359
sg55
(lp366
S'secure'
p367
asbag48
(g69
g50
NtRp368
(dp369
g53
(dp370
g80
g81
ssg62
g359
sg55
(lp371
S':'
asbag48
(g69
g50
NtRp372
(dp373
g53
(dp374
sg62
g359
sg55
(lp375
g48
(g49
g50
NtRp376
(dp377
g53
(dp378
g61
I3
ssg62
g372
sg55
(lp379
S''
asbasbasbag48
(g64
g50
NtRp380
(dp381
g53
(dp382
sg62
g250
sg55
(lp383
g48
(g69
g50
NtRp384
(dp385
g53
(dp386
g73
g74
ssg62
g380
sg55
(lp387
S'version'
p388
asbag48
(g69
g50
NtRp389
(dp390
g53
(dp391
g80
g81
ssg62
g380
sg55
(lp392
S':'
asbag48
(g69
g50
NtRp393
(dp394
g53
(dp395
sg62
g380
sg55
(lp396
g48
(g49
g50
NtRp397
(dp398
g53
(dp399
g61
I3
ssg62
g393
sg55
(lp400
S''
asbasbasbasbasbasbasbag48
(g64
g50
NtRp401
(dp402
g53
(dp403
sg62
g225
sg55
(lp404
g48
(g69
g50
NtRp405
(dp406
g53
(dp407
g73
g74
ssg62
g401
sg55
(lp408
S'session_id_borrar2'
p409
asbag48
(g69
g50
NtRp410
(dp411
g53
(dp412
g80
g81
ssg62
g401
sg55
(lp413
S':'
asbag48
(g69
g50
NtRp414
(dp415
g53
(dp416
sg62
g401
sg55
(lp417
g48
(g49
g50
NtRp418
(dp419
g53
(dp420
g61
I4
ssg62
g414
sg55
(lp421
g48
(g57
g50
NtRp422
(dp423
g53
(dp424
g61
I3
ssg62
Nsg55
(lp425
g48
(g64
g50
NtRp426
(dp427
g53
(dp428
sg62
g422
sg55
(lp429
g48
(g69
g50
NtRp430
(dp431
g53
(dp432
g73
g74
ssg62
g426
sg55
(lp433
g262
asbag48
(g69
g50
NtRp434
(dp435
g53
(dp436
g80
g81
ssg62
g426
sg55
(lp437
S':'
asbag48
(g69
g50
NtRp438
(dp439
g53
(dp440
sg62
g426
sg55
(lp441
g48
(g49
g50
NtRp442
(dp443
g53
(dp444
g61
I3
ssg62
g438
sg55
(lp445
S''
asbasbasbag48
(g64
g50
NtRp446
(dp447
g53
(dp448
sg62
g422
sg55
(lp449
g48
(g69
g50
NtRp450
(dp451
g53
(dp452
g73
g74
ssg62
g446
sg55
(lp453
g283
asbag48
(g69
g50
NtRp454
(dp455
g53
(dp456
g80
g81
ssg62
g446
sg55
(lp457
S':'
asbag48
(g69
g50
NtRp458
(dp459
g53
(dp460
sg62
g446
sg55
(lp461
g48
(g49
g50
NtRp462
(dp463
g53
(dp464
g61
I3
ssg62
g458
sg55
(lp465
S''
asbasbasbag48
(g64
g50
NtRp466
(dp467
g53
(dp468
sg62
g422
sg55
(lp469
g48
(g69
g50
NtRp470
(dp471
g53
(dp472
g73
g74
ssg62
g466
sg55
(lp473
g304
asbag48
(g69
g50
NtRp474
(dp475
g53
(dp476
g80
g81
ssg62
g466
sg55
(lp477
S':'
asbag48
(g69
g50
NtRp478
(dp479
g53
(dp480
sg62
g466
sg55
(lp481
g48
(g49
g50
NtRp482
(dp483
g53
(dp484
g61
I3
ssg62
g478
sg55
(lp485
S''
asbasbasbag48
(g64
g50
NtRp486
(dp487
g53
(dp488
sg62
g422
sg55
(lp489
g48
(g69
g50
NtRp490
(dp491
g53
(dp492
g73
g74
ssg62
g486
sg55
(lp493
g325
asbag48
(g69
g50
NtRp494
(dp495
g53
(dp496
g80
g81
ssg62
g486
sg55
(lp497
S':'
asbag48
(g69
g50
NtRp498
(dp499
g53
(dp500
sg62
g486
sg55
(lp501
g48
(g49
g50
NtRp502
(dp503
g53
(dp504
g61
I3
ssg62
g498
sg55
(lp505
S''
asbasbasbag48
(g64
g50
NtRp506
(dp507
g53
(dp508
sg62
g422
sg55
(lp509
g48
(g69
g50
NtRp510
(dp511
g53
(dp512
g73
g74
ssg62
g506
sg55
(lp513
g346
asbag48
(g69
g50
NtRp514
(dp515
g53
(dp516
g80
g81
ssg62
g506
sg55
(lp517
S':'
asbag48
(g69
g50
NtRp518
(dp519
g53
(dp520
sg62
g506
sg55
(lp521
g48
(g49
g50
NtRp522
(dp523
g53
(dp524
g61
I3
ssg62
g518
sg55
(lp525
S''
asbasbasbag48
(g64
g50
NtRp526
(dp527
g53
(dp528
sg62
g422
sg55
(lp529
g48
(g69
g50
NtRp530
(dp531
g53
(dp532
g73
g74
ssg62
g526
sg55
(lp533
g367
asbag48
(g69
g50
NtRp534
(dp535
g53
(dp536
g80
g81
ssg62
g526
sg55
(lp537
S':'
asbag48
(g69
g50
NtRp538
(dp539
g53
(dp540
sg62
g526
sg55
(lp541
g48
(g49
g50
NtRp542
(dp543
g53
(dp544
g61
I3
ssg62
g538
sg55
(lp545
S''
asbasbasbag48
(g64
g50
NtRp546
(dp547
g53
(dp548
sg62
g422
sg55
(lp549
g48
(g69
g50
NtRp550
(dp551
g53
(dp552
g73
g74
ssg62
g546
sg55
(lp553
g388
asbag48
(g69
g50
NtRp554
(dp555
g53
(dp556
g80
g81
ssg62
g546
sg55
(lp557
S':'
asbag48
(g69
g50
NtRp558
(dp559
g53
(dp560
sg62
g546
sg55
(lp561
g48
(g49
g50
NtRp562
(dp563
g53
(dp564
g61
I3
ssg62
g558
sg55
(lp565
S''
asbasbasbasbasbasbasbag48
(g64
g50
NtRp566
(dp567
g53
(dp568
sg62
g225
sg55
(lp569
g48
(g69
g50
NtRp570
(dp571
g53
(dp572
g73
g74
ssg62
g566
sg55
(lp573
S'session_id_cual_es_tu_nombre'
p574
asbag48
(g69
g50
NtRp575
(dp576
g53
(dp577
g80
g81
ssg62
g566
sg55
(lp578
S':'
asbag48
(g69
g50
NtRp579
(dp580
g53
(dp581
sg62
g566
sg55
(lp582
g48
(g49
g50
NtRp583
(dp584
g53
(dp585
g61
I4
ssg62
g579
sg55
(lp586
g48
(g57
g50
NtRp587
(dp588
g53
(dp589
g61
I3
ssg62
Nsg55
(lp590
g48
(g64
g50
NtRp591
(dp592
g53
(dp593
sg62
g587
sg55
(lp594
g48
(g69
g50
NtRp595
(dp596
g53
(dp597
g73
g74
ssg62
g591
sg55
(lp598
g262
asbag48
(g69
g50
NtRp599
(dp600
g53
(dp601
g80
g81
ssg62
g591
sg55
(lp602
S':'
asbag48
(g69
g50
NtRp603
(dp604
g53
(dp605
sg62
g591
sg55
(lp606
g48
(g49
g50
NtRp607
(dp608
g53
(dp609
g61
I3
ssg62
g603
sg55
(lp610
S''
asbasbasbag48
(g64
g50
NtRp611
(dp612
g53
(dp613
sg62
g587
sg55
(lp614
g48
(g69
g50
NtRp615
(dp616
g53
(dp617
g73
g74
ssg62
g611
sg55
(lp618
g283
asbag48
(g69
g50
NtRp619
(dp620
g53
(dp621
g80
g81
ssg62
g611
sg55
(lp622
S':'
asbag48
(g69
g50
NtRp623
(dp624
g53
(dp625
sg62
g611
sg55
(lp626
g48
(g49
g50
NtRp627
(dp628
g53
(dp629
g61
I3
ssg62
g623
sg55
(lp630
S''
asbasbasbag48
(g64
g50
NtRp631
(dp632
g53
(dp633
sg62
g587
sg55
(lp634
g48
(g69
g50
NtRp635
(dp636
g53
(dp637
g73
g74
ssg62
g631
sg55
(lp638
g304
asbag48
(g69
g50
NtRp639
(dp640
g53
(dp641
g80
g81
ssg62
g631
sg55
(lp642
S':'
asbag48
(g69
g50
NtRp643
(dp644
g53
(dp645
sg62
g631
sg55
(lp646
g48
(g49
g50
NtRp647
(dp648
g53
(dp649
g61
I3
ssg62
g643
sg55
(lp650
S''
asbasbasbag48
(g64
g50
NtRp651
(dp652
g53
(dp653
sg62
g587
sg55
(lp654
g48
(g69
g50
NtRp655
(dp656
g53
(dp657
g73
g74
ssg62
g651
sg55
(lp658
g325
asbag48
(g69
g50
NtRp659
(dp660
g53
(dp661
g80
g81
ssg62
g651
sg55
(lp662
S':'
asbag48
(g69
g50
NtRp663
(dp664
g53
(dp665
sg62
g651
sg55
(lp666
g48
(g49
g50
NtRp667
(dp668
g53
(dp669
g61
I3
ssg62
g663
sg55
(lp670
S''
asbasbasbag48
(g64
g50
NtRp671
(dp672
g53
(dp673
sg62
g587
sg55
(lp674
g48
(g69
g50
NtRp675
(dp676
g53
(dp677
g73
g74
ssg62
g671
sg55
(lp678
g346
asbag48
(g69
g50
NtRp679
(dp680
g53
(dp681
g80
g81
ssg62
g671
sg55
(lp682
S':'
asbag48
(g69
g50
NtRp683
(dp684
g53
(dp685
sg62
g671
sg55
(lp686
g48
(g49
g50
NtRp687
(dp688
g53
(dp689
g61
I3
ssg62
g683
sg55
(lp690
S''
asbasbasbag48
(g64
g50
NtRp691
(dp692
g53
(dp693
sg62
g587
sg55
(lp694
g48
(g69
g50
NtRp695
(dp696
g53
(dp697
g73
g74
ssg62
g691
sg55
(lp698
g367
asbag48
(g69
g50
NtRp699
(dp700
g53
(dp701
g80
g81
ssg62
g691
sg55
(lp702
S':'
asbag48
(g69
g50
NtRp703
(dp704
g53
(dp705
sg62
g691
sg55
(lp706
g48
(g49
g50
NtRp707
(dp708
g53
(dp709
g61
I3
ssg62
g703
sg55
(lp710
S''
asbasbasbag48
(g64
g50
NtRp711
(dp712
g53
(dp713
sg62
g587
sg55
(lp714
g48
(g69
g50
NtRp715
(dp716
g53
(dp717
g73
g74
ssg62
g711
sg55
(lp718
g388
asbag48
(g69
g50
NtRp719
(dp720
g53
(dp721
g80
g81
ssg62
g711
sg55
(lp722
S':'
asbag48
(g69
g50
NtRp723
(dp724
g53
(dp725
sg62
g711
sg55
(lp726
g48
(g49
g50
NtRp727
(dp728
g53
(dp729
g61
I3
ssg62
g723
sg55
(lp730
S''
asbasbasbasbasbasbasbag48
(g64
g50
NtRp731
(dp732
g53
(dp733
sg62
g225
sg55
(lp734
g48
(g69
g50
NtRp735
(dp736
g53
(dp737
g73
g74
ssg62
g731
sg55
(lp738
S'session_id_desglosar_emails'
p739
asbag48
(g69
g50
NtRp740
(dp741
g53
(dp742
g80
g81
ssg62
g731
sg55
(lp743
S':'
asbag48
(g69
g50
NtRp744
(dp745
g53
(dp746
sg62
g731
sg55
(lp747
g48
(g49
g50
NtRp748
(dp749
g53
(dp750
g61
I4
ssg62
g744
sg55
(lp751
g48
(g57
g50
NtRp752
(dp753
g53
(dp754
g61
I3
ssg62
Nsg55
(lp755
g48
(g64
g50
NtRp756
(dp757
g53
(dp758
sg62
g752
sg55
(lp759
g48
(g69
g50
NtRp760
(dp761
g53
(dp762
g73
g74
ssg62
g756
sg55
(lp763
g262
asbag48
(g69
g50
NtRp764
(dp765
g53
(dp766
g80
g81
ssg62
g756
sg55
(lp767
S':'
asbag48
(g69
g50
NtRp768
(dp769
g53
(dp770
sg62
g756
sg55
(lp771
g48
(g49
g50
NtRp772
(dp773
g53
(dp774
g61
I3
ssg62
g768
sg55
(lp775
S''
asbasbasbag48
(g64
g50
NtRp776
(dp777
g53
(dp778
sg62
g752
sg55
(lp779
g48
(g69
g50
NtRp780
(dp781
g53
(dp782
g73
g74
ssg62
g776
sg55
(lp783
g283
asbag48
(g69
g50
NtRp784
(dp785
g53
(dp786
g80
g81
ssg62
g776
sg55
(lp787
S':'
asbag48
(g69
g50
NtRp788
(dp789
g53
(dp790
sg62
g776
sg55
(lp791
g48
(g49
g50
NtRp792
(dp793
g53
(dp794
g61
I3
ssg62
g788
sg55
(lp795
S''
asbasbasbag48
(g64
g50
NtRp796
(dp797
g53
(dp798
sg62
g752
sg55
(lp799
g48
(g69
g50
NtRp800
(dp801
g53
(dp802
g73
g74
ssg62
g796
sg55
(lp803
g304
asbag48
(g69
g50
NtRp804
(dp805
g53
(dp806
g80
g81
ssg62
g796
sg55
(lp807
S':'
asbag48
(g69
g50
NtRp808
(dp809
g53
(dp810
sg62
g796
sg55
(lp811
g48
(g49
g50
NtRp812
(dp813
g53
(dp814
g61
I3
ssg62
g808
sg55
(lp815
S''
asbasbasbag48
(g64
g50
NtRp816
(dp817
g53
(dp818
sg62
g752
sg55
(lp819
g48
(g69
g50
NtRp820
(dp821
g53
(dp822
g73
g74
ssg62
g816
sg55
(lp823
g325
asbag48
(g69
g50
NtRp824
(dp825
g53
(dp826
g80
g81
ssg62
g816
sg55
(lp827
S':'
asbag48
(g69
g50
NtRp828
(dp829
g53
(dp830
sg62
g816
sg55
(lp831
g48
(g49
g50
NtRp832
(dp833
g53
(dp834
g61
I3
ssg62
g828
sg55
(lp835
S''
asbasbasbag48
(g64
g50
NtRp836
(dp837
g53
(dp838
sg62
g752
sg55
(lp839
g48
(g69
g50
NtRp840
(dp841
g53
(dp842
g73
g74
ssg62
g836
sg55
(lp843
g346
asbag48
(g69
g50
NtRp844
(dp845
g53
(dp846
g80
g81
ssg62
g836
sg55
(lp847
S':'
asbag48
(g69
g50
NtRp848
(dp849
g53
(dp850
sg62
g836
sg55
(lp851
g48
(g49
g50
NtRp852
(dp853
g53
(dp854
g61
I3
ssg62
g848
sg55
(lp855
S''
asbasbasbag48
(g64
g50
NtRp856
(dp857
g53
(dp858
sg62
g752
sg55
(lp859
g48
(g69
g50
NtRp860
(dp861
g53
(dp862
g73
g74
ssg62
g856
sg55
(lp863
g367
asbag48
(g69
g50
NtRp864
(dp865
g53
(dp866
g80
g81
ssg62
g856
sg55
(lp867
S':'
asbag48
(g69
g50
NtRp868
(dp869
g53
(dp870
sg62
g856
sg55
(lp871
g48
(g49
g50
NtRp872
(dp873
g53
(dp874
g61
I3
ssg62
g868
sg55
(lp875
S''
asbasbasbag48
(g64
g50
NtRp876
(dp877
g53
(dp878
sg62
g752
sg55
(lp879
g48
(g69
g50
NtRp880
(dp881
g53
(dp882
g73
g74
ssg62
g876
sg55
(lp883
g388
asbag48
(g69
g50
NtRp884
(dp885
g53
(dp886
g80
g81
ssg62
g876
sg55
(lp887
S':'
asbag48
(g69
g50
NtRp888
(dp889
g53
(dp890
sg62
g876
sg55
(lp891
g48
(g49
g50
NtRp892
(dp893
g53
(dp894
g61
I3
ssg62
g888
sg55
(lp895
S''
asbasbasbasbasbasbasbag48
(g64
g50
NtRp896
(dp897
g53
(dp898
sg62
g225
sg55
(lp899
g48
(g69
g50
NtRp900
(dp901
g53
(dp902
g73
g74
ssg62
g896
sg55
(lp903
S'session_id_hemoal'
p904
asbag48
(g69
g50
NtRp905
(dp906
g53
(dp907
g80
g81
ssg62
g896
sg55
(lp908
S':'
asbag48
(g69
g50
NtRp909
(dp910
g53
(dp911
sg62
g896
sg55
(lp912
g48
(g49
g50
NtRp913
(dp914
g53
(dp915
g61
I4
ssg62
g909
sg55
(lp916
g48
(g57
g50
NtRp917
(dp918
g53
(dp919
g61
I3
ssg62
Nsg55
(lp920
g48
(g64
g50
NtRp921
(dp922
g53
(dp923
sg62
g917
sg55
(lp924
g48
(g69
g50
NtRp925
(dp926
g53
(dp927
g73
g74
ssg62
g921
sg55
(lp928
g262
asbag48
(g69
g50
NtRp929
(dp930
g53
(dp931
g80
g81
ssg62
g921
sg55
(lp932
S':'
asbag48
(g69
g50
NtRp933
(dp934
g53
(dp935
sg62
g921
sg55
(lp936
g48
(g49
g50
NtRp937
(dp938
g53
(dp939
g61
I3
ssg62
g933
sg55
(lp940
S''
asbasbasbag48
(g64
g50
NtRp941
(dp942
g53
(dp943
sg62
g917
sg55
(lp944
g48
(g69
g50
NtRp945
(dp946
g53
(dp947
g73
g74
ssg62
g941
sg55
(lp948
g283
asbag48
(g69
g50
NtRp949
(dp950
g53
(dp951
g80
g81
ssg62
g941
sg55
(lp952
S':'
asbag48
(g69
g50
NtRp953
(dp954
g53
(dp955
sg62
g941
sg55
(lp956
g48
(g49
g50
NtRp957
(dp958
g53
(dp959
g61
I3
ssg62
g953
sg55
(lp960
S''
asbasbasbag48
(g64
g50
NtRp961
(dp962
g53
(dp963
sg62
g917
sg55
(lp964
g48
(g69
g50
NtRp965
(dp966
g53
(dp967
g73
g74
ssg62
g961
sg55
(lp968
g304
asbag48
(g69
g50
NtRp969
(dp970
g53
(dp971
g80
g81
ssg62
g961
sg55
(lp972
S':'
asbag48
(g69
g50
NtRp973
(dp974
g53
(dp975
sg62
g961
sg55
(lp976
g48
(g49
g50
NtRp977
(dp978
g53
(dp979
g61
I3
ssg62
g973
sg55
(lp980
S''
asbasbasbag48
(g64
g50
NtRp981
(dp982
g53
(dp983
sg62
g917
sg55
(lp984
g48
(g69
g50
NtRp985
(dp986
g53
(dp987
g73
g74
ssg62
g981
sg55
(lp988
g325
asbag48
(g69
g50
NtRp989
(dp990
g53
(dp991
g80
g81
ssg62
g981
sg55
(lp992
S':'
asbag48
(g69
g50
NtRp993
(dp994
g53
(dp995
sg62
g981
sg55
(lp996
g48
(g49
g50
NtRp997
(dp998
g53
(dp999
g61
I3
ssg62
g993
sg55
(lp1000
S''
asbasbasbag48
(g64
g50
NtRp1001
(dp1002
g53
(dp1003
sg62
g917
sg55
(lp1004
g48
(g69
g50
NtRp1005
(dp1006
g53
(dp1007
g73
g74
ssg62
g1001
sg55
(lp1008
g346
asbag48
(g69
g50
NtRp1009
(dp1010
g53
(dp1011
g80
g81
ssg62
g1001
sg55
(lp1012
S':'
asbag48
(g69
g50
NtRp1013
(dp1014
g53
(dp1015
sg62
g1001
sg55
(lp1016
g48
(g49
g50
NtRp1017
(dp1018
g53
(dp1019
g61
I3
ssg62
g1013
sg55
(lp1020
S''
asbasbasbag48
(g64
g50
NtRp1021
(dp1022
g53
(dp1023
sg62
g917
sg55
(lp1024
g48
(g69
g50
NtRp1025
(dp1026
g53
(dp1027
g73
g74
ssg62
g1021
sg55
(lp1028
g367
asbag48
(g69
g50
NtRp1029
(dp1030
g53
(dp1031
g80
g81
ssg62
g1021
sg55
(lp1032
S':'
asbag48
(g69
g50
NtRp1033
(dp1034
g53
(dp1035
sg62
g1021
sg55
(lp1036
g48
(g49
g50
NtRp1037
(dp1038
g53
(dp1039
g61
I3
ssg62
g1033
sg55
(lp1040
S''
asbasbasbag48
(g64
g50
NtRp1041
(dp1042
g53
(dp1043
sg62
g917
sg55
(lp1044
g48
(g69
g50
NtRp1045
(dp1046
g53
(dp1047
g73
g74
ssg62
g1041
sg55
(lp1048
g388
asbag48
(g69
g50
NtRp1049
(dp1050
g53
(dp1051
g80
g81
ssg62
g1041
sg55
(lp1052
S':'
asbag48
(g69
g50
NtRp1053
(dp1054
g53
(dp1055
sg62
g1041
sg55
(lp1056
g48
(g49
g50
NtRp1057
(dp1058
g53
(dp1059
g61
I3
ssg62
g1053
sg55
(lp1060
S''
asbasbasbasbasbasbasbag48
(g64
g50
NtRp1061
(dp1062
g53
(dp1063
sg62
g225
sg55
(lp1064
g48
(g69
g50
NtRp1065
(dp1066
g53
(dp1067
g73
g74
ssg62
g1061
sg55
(lp1068
S'session_id_listado_1'
p1069
asbag48
(g69
g50
NtRp1070
(dp1071
g53
(dp1072
g80
g81
ssg62
g1061
sg55
(lp1073
S':'
asbag48
(g69
g50
NtRp1074
(dp1075
g53
(dp1076
sg62
g1061
sg55
(lp1077
g48
(g49
g50
NtRp1078
(dp1079
g53
(dp1080
g61
I4
ssg62
g1074
sg55
(lp1081
g48
(g57
g50
NtRp1082
(dp1083
g53
(dp1084
g61
I3
ssg62
Nsg55
(lp1085
g48
(g64
g50
NtRp1086
(dp1087
g53
(dp1088
sg62
g1082
sg55
(lp1089
g48
(g69
g50
NtRp1090
(dp1091
g53
(dp1092
g73
g74
ssg62
g1086
sg55
(lp1093
g262
asbag48
(g69
g50
NtRp1094
(dp1095
g53
(dp1096
g80
g81
ssg62
g1086
sg55
(lp1097
S':'
asbag48
(g69
g50
NtRp1098
(dp1099
g53
(dp1100
sg62
g1086
sg55
(lp1101
g48
(g49
g50
NtRp1102
(dp1103
g53
(dp1104
g61
I3
ssg62
g1098
sg55
(lp1105
S''
asbasbasbag48
(g64
g50
NtRp1106
(dp1107
g53
(dp1108
sg62
g1082
sg55
(lp1109
g48
(g69
g50
NtRp1110
(dp1111
g53
(dp1112
g73
g74
ssg62
g1106
sg55
(lp1113
g283
asbag48
(g69
g50
NtRp1114
(dp1115
g53
(dp1116
g80
g81
ssg62
g1106
sg55
(lp1117
S':'
asbag48
(g69
g50
NtRp1118
(dp1119
g53
(dp1120
sg62
g1106
sg55
(lp1121
g48
(g49
g50
NtRp1122
(dp1123
g53
(dp1124
g61
I3
ssg62
g1118
sg55
(lp1125
S''
asbasbasbag48
(g64
g50
NtRp1126
(dp1127
g53
(dp1128
sg62
g1082
sg55
(lp1129
g48
(g69
g50
NtRp1130
(dp1131
g53
(dp1132
g73
g74
ssg62
g1126
sg55
(lp1133
g304
asbag48
(g69
g50
NtRp1134
(dp1135
g53
(dp1136
g80
g81
ssg62
g1126
sg55
(lp1137
S':'
asbag48
(g69
g50
NtRp1138
(dp1139
g53
(dp1140
sg62
g1126
sg55
(lp1141
g48
(g49
g50
NtRp1142
(dp1143
g53
(dp1144
g61
I3
ssg62
g1138
sg55
(lp1145
S''
asbasbasbag48
(g64
g50
NtRp1146
(dp1147
g53
(dp1148
sg62
g1082
sg55
(lp1149
g48
(g69
g50
NtRp1150
(dp1151
g53
(dp1152
g73
g74
ssg62
g1146
sg55
(lp1153
g325
asbag48
(g69
g50
NtRp1154
(dp1155
g53
(dp1156
g80
g81
ssg62
g1146
sg55
(lp1157
S':'
asbag48
(g69
g50
NtRp1158
(dp1159
g53
(dp1160
sg62
g1146
sg55
(lp1161
g48
(g49
g50
NtRp1162
(dp1163
g53
(dp1164
g61
I3
ssg62
g1158
sg55
(lp1165
S''
asbasbasbag48
(g64
g50
NtRp1166
(dp1167
g53
(dp1168
sg62
g1082
sg55
(lp1169
g48
(g69
g50
NtRp1170
(dp1171
g53
(dp1172
g73
g74
ssg62
g1166
sg55
(lp1173
g346
asbag48
(g69
g50
NtRp1174
(dp1175
g53
(dp1176
g80
g81
ssg62
g1166
sg55
(lp1177
S':'
asbag48
(g69
g50
NtRp1178
(dp1179
g53
(dp1180
sg62
g1166
sg55
(lp1181
g48
(g49
g50
NtRp1182
(dp1183
g53
(dp1184
g61
I3
ssg62
g1178
sg55
(lp1185
S''
asbasbasbag48
(g64
g50
NtRp1186
(dp1187
g53
(dp1188
sg62
g1082
sg55
(lp1189
g48
(g69
g50
NtRp1190
(dp1191
g53
(dp1192
g73
g74
ssg62
g1186
sg55
(lp1193
g367
asbag48
(g69
g50
NtRp1194
(dp1195
g53
(dp1196
g80
g81
ssg62
g1186
sg55
(lp1197
S':'
asbag48
(g69
g50
NtRp1198
(dp1199
g53
(dp1200
sg62
g1186
sg55
(lp1201
g48
(g49
g50
NtRp1202
(dp1203
g53
(dp1204
g61
I3
ssg62
g1198
sg55
(lp1205
S''
asbasbasbag48
(g64
g50
NtRp1206
(dp1207
g53
(dp1208
sg62
g1082
sg55
(lp1209
g48
(g69
g50
NtRp1210
(dp1211
g53
(dp1212
g73
g74
ssg62
g1206
sg55
(lp1213
g388
asbag48
(g69
g50
NtRp1214
(dp1215
g53
(dp1216
g80
g81
ssg62
g1206
sg55
(lp1217
S':'
asbag48
(g69
g50
NtRp1218
(dp1219
g53
(dp1220
sg62
g1206
sg55
(lp1221
g48
(g49
g50
NtRp1222
(dp1223
g53
(dp1224
g61
I3
ssg62
g1218
sg55
(lp1225
S''
asbasbasbasbasbasbasbag48
(g64
g50
NtRp1226
(dp1227
g53
(dp1228
sg62
g225
sg55
(lp1229
g48
(g69
g50
NtRp1230
(dp1231
g53
(dp1232
g73
g74
ssg62
g1226
sg55
(lp1233
S'session_id_myappjav'
p1234
asbag48
(g69
g50
NtRp1235
(dp1236
g53
(dp1237
g80
g81
ssg62
g1226
sg55
(lp1238
S':'
asbag48
(g69
g50
NtRp1239
(dp1240
g53
(dp1241
sg62
g1226
sg55
(lp1242
g48
(g49
g50
NtRp1243
(dp1244
g53
(dp1245
g61
I4
ssg62
g1239
sg55
(lp1246
g48
(g57
g50
NtRp1247
(dp1248
g53
(dp1249
g61
I3
ssg62
Nsg55
(lp1250
g48
(g64
g50
NtRp1251
(dp1252
g53
(dp1253
sg62
g1247
sg55
(lp1254
g48
(g69
g50
NtRp1255
(dp1256
g53
(dp1257
g73
g74
ssg62
g1251
sg55
(lp1258
g262
asbag48
(g69
g50
NtRp1259
(dp1260
g53
(dp1261
g80
g81
ssg62
g1251
sg55
(lp1262
S':'
asbag48
(g69
g50
NtRp1263
(dp1264
g53
(dp1265
sg62
g1251
sg55
(lp1266
g48
(g49
g50
NtRp1267
(dp1268
g53
(dp1269
g61
I3
ssg62
g1263
sg55
(lp1270
S''
asbasbasbag48
(g64
g50
NtRp1271
(dp1272
g53
(dp1273
sg62
g1247
sg55
(lp1274
g48
(g69
g50
NtRp1275
(dp1276
g53
(dp1277
g73
g74
ssg62
g1271
sg55
(lp1278
g283
asbag48
(g69
g50
NtRp1279
(dp1280
g53
(dp1281
g80
g81
ssg62
g1271
sg55
(lp1282
S':'
asbag48
(g69
g50
NtRp1283
(dp1284
g53
(dp1285
sg62
g1271
sg55
(lp1286
g48
(g49
g50
NtRp1287
(dp1288
g53
(dp1289
g61
I3
ssg62
g1283
sg55
(lp1290
S''
asbasbasbag48
(g64
g50
NtRp1291
(dp1292
g53
(dp1293
sg62
g1247
sg55
(lp1294
g48
(g69
g50
NtRp1295
(dp1296
g53
(dp1297
g73
g74
ssg62
g1291
sg55
(lp1298
g304
asbag48
(g69
g50
NtRp1299
(dp1300
g53
(dp1301
g80
g81
ssg62
g1291
sg55
(lp1302
S':'
asbag48
(g69
g50
NtRp1303
(dp1304
g53
(dp1305
sg62
g1291
sg55
(lp1306
g48
(g49
g50
NtRp1307
(dp1308
g53
(dp1309
g61
I3
ssg62
g1303
sg55
(lp1310
S''
asbasbasbag48
(g64
g50
NtRp1311
(dp1312
g53
(dp1313
sg62
g1247
sg55
(lp1314
g48
(g69
g50
NtRp1315
(dp1316
g53
(dp1317
g73
g74
ssg62
g1311
sg55
(lp1318
g325
asbag48
(g69
g50
NtRp1319
(dp1320
g53
(dp1321
g80
g81
ssg62
g1311
sg55
(lp1322
S':'
asbag48
(g69
g50
NtRp1323
(dp1324
g53
(dp1325
sg62
g1311
sg55
(lp1326
g48
(g49
g50
NtRp1327
(dp1328
g53
(dp1329
g61
I3
ssg62
g1323
sg55
(lp1330
S''
asbasbasbag48
(g64
g50
NtRp1331
(dp1332
g53
(dp1333
sg62
g1247
sg55
(lp1334
g48
(g69
g50
NtRp1335
(dp1336
g53
(dp1337
g73
g74
ssg62
g1331
sg55
(lp1338
g346
asbag48
(g69
g50
NtRp1339
(dp1340
g53
(dp1341
g80
g81
ssg62
g1331
sg55
(lp1342
S':'
asbag48
(g69
g50
NtRp1343
(dp1344
g53
(dp1345
sg62
g1331
sg55
(lp1346
g48
(g49
g50
NtRp1347
(dp1348
g53
(dp1349
g61
I3
ssg62
g1343
sg55
(lp1350
S''
asbasbasbag48
(g64
g50
NtRp1351
(dp1352
g53
(dp1353
sg62
g1247
sg55
(lp1354
g48
(g69
g50
NtRp1355
(dp1356
g53
(dp1357
g73
g74
ssg62
g1351
sg55
(lp1358
g367
asbag48
(g69
g50
NtRp1359
(dp1360
g53
(dp1361
g80
g81
ssg62
g1351
sg55
(lp1362
S':'
asbag48
(g69
g50
NtRp1363
(dp1364
g53
(dp1365
sg62
g1351
sg55
(lp1366
g48
(g49
g50
NtRp1367
(dp1368
g53
(dp1369
g61
I3
ssg62
g1363
sg55
(lp1370
S''
asbasbasbag48
(g64
g50
NtRp1371
(dp1372
g53
(dp1373
sg62
g1247
sg55
(lp1374
g48
(g69
g50
NtRp1375
(dp1376
g53
(dp1377
g73
g74
ssg62
g1371
sg55
(lp1378
g388
asbag48
(g69
g50
NtRp1379
(dp1380
g53
(dp1381
g80
g81
ssg62
g1371
sg55
(lp1382
S':'
asbag48
(g69
g50
NtRp1383
(dp1384
g53
(dp1385
sg62
g1371
sg55
(lp1386
g48
(g49
g50
NtRp1387
(dp1388
g53
(dp1389
g61
I3
ssg62
g1383
sg55
(lp1390
S''
asbasbasbasbasbasbasbag48
(g64
g50
NtRp1391
(dp1392
g53
(dp1393
sg62
g225
sg55
(lp1394
g48
(g69
g50
NtRp1395
(dp1396
g53
(dp1397
g73
g74
ssg62
g1391
sg55
(lp1398
S'session_id_welcome'
p1399
asbag48
(g69
g50
NtRp1400
(dp1401
g53
(dp1402
g80
g81
ssg62
g1391
sg55
(lp1403
S':'
asbag48
(g69
g50
NtRp1404
(dp1405
g53
(dp1406
sg62
g1391
sg55
(lp1407
g48
(g49
g50
NtRp1408
(dp1409
g53
(dp1410
g61
I4
ssg62
g1404
sg55
(lp1411
g48
(g57
g50
NtRp1412
(dp1413
g53
(dp1414
g61
I3
ssg62
Nsg55
(lp1415
g48
(g64
g50
NtRp1416
(dp1417
g53
(dp1418
sg62
g1412
sg55
(lp1419
g48
(g69
g50
NtRp1420
(dp1421
g53
(dp1422
g73
g74
ssg62
g1416
sg55
(lp1423
g262
asbag48
(g69
g50
NtRp1424
(dp1425
g53
(dp1426
g80
g81
ssg62
g1416
sg55
(lp1427
S':'
asbag48
(g69
g50
NtRp1428
(dp1429
g53
(dp1430
sg62
g1416
sg55
(lp1431
g48
(g49
g50
NtRp1432
(dp1433
g53
(dp1434
g61
I3
ssg62
g1428
sg55
(lp1435
S''
asbasbasbag48
(g64
g50
NtRp1436
(dp1437
g53
(dp1438
sg62
g1412
sg55
(lp1439
g48
(g69
g50
NtRp1440
(dp1441
g53
(dp1442
g73
g74
ssg62
g1436
sg55
(lp1443
g283
asbag48
(g69
g50
NtRp1444
(dp1445
g53
(dp1446
g80
g81
ssg62
g1436
sg55
(lp1447
S':'
asbag48
(g69
g50
NtRp1448
(dp1449
g53
(dp1450
sg62
g1436
sg55
(lp1451
g48
(g49
g50
NtRp1452
(dp1453
g53
(dp1454
g61
I3
ssg62
g1448
sg55
(lp1455
S''
asbasbasbag48
(g64
g50
NtRp1456
(dp1457
g53
(dp1458
sg62
g1412
sg55
(lp1459
g48
(g69
g50
NtRp1460
(dp1461
g53
(dp1462
g73
g74
ssg62
g1456
sg55
(lp1463
g304
asbag48
(g69
g50
NtRp1464
(dp1465
g53
(dp1466
g80
g81
ssg62
g1456
sg55
(lp1467
S':'
asbag48
(g69
g50
NtRp1468
(dp1469
g53
(dp1470
sg62
g1456
sg55
(lp1471
g48
(g49
g50
NtRp1472
(dp1473
g53
(dp1474
g61
I3
ssg62
g1468
sg55
(lp1475
S''
asbasbasbag48
(g64
g50
NtRp1476
(dp1477
g53
(dp1478
sg62
g1412
sg55
(lp1479
g48
(g69
g50
NtRp1480
(dp1481
g53
(dp1482
g73
g74
ssg62
g1476
sg55
(lp1483
g325
asbag48
(g69
g50
NtRp1484
(dp1485
g53
(dp1486
g80
g81
ssg62
g1476
sg55
(lp1487
S':'
asbag48
(g69
g50
NtRp1488
(dp1489
g53
(dp1490
sg62
g1476
sg55
(lp1491
g48
(g49
g50
NtRp1492
(dp1493
g53
(dp1494
g61
I3
ssg62
g1488
sg55
(lp1495
S''
asbasbasbag48
(g64
g50
NtRp1496
(dp1497
g53
(dp1498
sg62
g1412
sg55
(lp1499
g48
(g69
g50
NtRp1500
(dp1501
g53
(dp1502
g73
g74
ssg62
g1496
sg55
(lp1503
g346
asbag48
(g69
g50
NtRp1504
(dp1505
g53
(dp1506
g80
g81
ssg62
g1496
sg55
(lp1507
S':'
asbag48
(g69
g50
NtRp1508
(dp1509
g53
(dp1510
sg62
g1496
sg55
(lp1511
g48
(g49
g50
NtRp1512
(dp1513
g53
(dp1514
g61
I3
ssg62
g1508
sg55
(lp1515
S''
asbasbasbag48
(g64
g50
NtRp1516
(dp1517
g53
(dp1518
sg62
g1412
sg55
(lp1519
g48
(g69
g50
NtRp1520
(dp1521
g53
(dp1522
g73
g74
ssg62
g1516
sg55
(lp1523
g367
asbag48
(g69
g50
NtRp1524
(dp1525
g53
(dp1526
g80
g81
ssg62
g1516
sg55
(lp1527
S':'
asbag48
(g69
g50
NtRp1528
(dp1529
g53
(dp1530
sg62
g1516
sg55
(lp1531
g48
(g49
g50
NtRp1532
(dp1533
g53
(dp1534
g61
I3
ssg62
g1528
sg55
(lp1535
S''
asbasbasbag48
(g64
g50
NtRp1536
(dp1537
g53
(dp1538
sg62
g1412
sg55
(lp1539
g48
(g69
g50
NtRp1540
(dp1541
g53
(dp1542
g73
g74
ssg62
g1536
sg55
(lp1543
g388
asbag48
(g69
g50
NtRp1544
(dp1545
g53
(dp1546
g80
g81
ssg62
g1536
sg55
(lp1547
S':'
asbag48
(g69
g50
NtRp1548
(dp1549
g53
(dp1550
sg62
g1536
sg55
(lp1551
g48
(g49
g50
NtRp1552
(dp1553
g53
(dp1554
g61
I3
ssg62
g1548
sg55
(lp1555
S''
asbasbasbasbasbasbasbasbasbasbasbag48
(g64
g50
NtRp1556
(dp1557
g53
(dp1558
sg62
g58
sg55
(lp1559
g48
(g69
g50
NtRp1560
(dp1561
g53
(dp1562
g73
g74
ssg62
g1556
sg55
(lp1563
S'env'
p1564
asbag48
(g69
g50
NtRp1565
(dp1566
g53
(dp1567
g80
g81
ssg62
g1556
sg55
(lp1568
S':'
asbag48
(g69
g50
NtRp1569
(dp1570
g53
(dp1571
sg62
g1556
sg55
(lp1572
g48
(g49
g50
NtRp1573
(dp1574
g53
(dp1575
g61
I5
ssg62
g1569
sg55
(lp1576
g48
(g57
g50
NtRp1577
(dp1578
g53
(dp1579
g61
I4
ssg62
Nsg55
(lp1580
g48
(g64
g50
NtRp1581
(dp1582
g53
(dp1583
sg62
g1577
sg55
(lp1584
g48
(g69
g50
NtRp1585
(dp1586
g53
(dp1587
g73
g74
ssg62
g1581
sg55
(lp1588
S'app_folders'
p1589
asbag48
(g69
g50
NtRp1590
(dp1591
g53
(dp1592
g80
g81
ssg62
g1581
sg55
(lp1593
S':'
asbag48
(g69
g50
NtRp1594
(dp1595
g53
(dp1596
sg62
g1581
sg55
(lp1597
g48
(g49
g50
NtRp1598
(dp1599
g53
(dp1600
g61
I4
ssg62
g1594
sg55
(lp1601
S"set(['C:\\\\Users\\\\Atomico\\\\web2py\\\\applications\\\\Desglosar_Emails\\\\', 'C:\\\\Users\\\\Atomico\\\\web2py\\\\applications\\\\Cual_es_tu_nombre\\\\', 'C:\\\\Users\\\\Atomico\\\\web2py\\\\applications\\\\admin\\\\', 'C:\\\\Users\\\\Atomico\\\\web2py\\\\applications\\\\hemoal\\\\', 'C:\\\\Users\\\\Atomico\\\\web2py\\\\applications\\\\myAppJav\\\\', 'C:\\\\Users\\\\Atomico\\\\web2py\\\\applications\\\\welcome\\\\', 'C:\\\\Users\\\\Atomico\\\\web2py\\\\applications\\\\borrar2\\\\', 'C:\\\\Users\\\\Atomico\\\\web2py\\\\applications\\\\examples\\\\'])"
p1602
asbasbasbag48
(g64
g50
NtRp1603
(dp1604
g53
(dp1605
sg62
g1577
sg55
(lp1606
g48
(g69
g50
NtRp1607
(dp1608
g53
(dp1609
g73
g74
ssg62
g1603
sg55
(lp1610
S'applications_parent'
p1611
asbag48
(g69
g50
NtRp1612
(dp1613
g53
(dp1614
g80
g81
ssg62
g1603
sg55
(lp1615
S':'
asbag48
(g69
g50
NtRp1616
(dp1617
g53
(dp1618
sg62
g1603
sg55
(lp1619
g48
(g49
g50
NtRp1620
(dp1621
g53
(dp1622
g61
I4
ssg62
g1616
sg55
(lp1623
S'C:\\Users\\Atomico\\web2py'
p1624
asbasbasbag48
(g64
g50
NtRp1625
(dp1626
g53
(dp1627
sg62
g1577
sg55
(lp1628
g48
(g69
g50
NtRp1629
(dp1630
g53
(dp1631
g73
g74
ssg62
g1625
sg55
(lp1632
S'cmd_args'
p1633
asbag48
(g69
g50
NtRp1634
(dp1635
g53
(dp1636
g80
g81
ssg62
g1625
sg55
(lp1637
S':'
asbag48
(g69
g50
NtRp1638
(dp1639
g53
(dp1640
sg62
g1625
sg55
(lp1641
g48
(g49
g50
NtRp1642
(dp1643
g53
(dp1644
g61
I4
ssg62
g1638
sg55
(lp1645
g48
(g57
g50
NtRp1646
(dp1647
g53
(dp1648
g61
I3
ssg62
Nsg55
(lp1649
sbasbasbasbag48
(g64
g50
NtRp1650
(dp1651
g53
(dp1652
sg62
g1577
sg55
(lp1653
g48
(g69
g50
NtRp1654
(dp1655
g53
(dp1656
g73
g74
ssg62
g1650
sg55
(lp1657
S'cmd_options'
p1658
asbag48
(g69
g50
NtRp1659
(dp1660
g53
(dp1661
g80
g81
ssg62
g1650
sg55
(lp1662
S':'
asbag48
(g69
g50
NtRp1663
(dp1664
g53
(dp1665
sg62
g1650
sg55
(lp1666
g48
(g49
g50
NtRp1667
(dp1668
g53
(dp1669
g61
I4
ssg62
g1663
sg55
(lp1670
S"<Values at 0x306b620: {'verbose': False, 'ip': '127.0.0.1', 'shutdown_timeout': 5, 'taskbar': False, 'port': 8000, 'maxthreads': None, 'softcron': False, 'server_name': 'Swing', 'bpython': False, 'nogui': False, 'nocron': False, 'extcron': False, 'debuglevel': 30, 'test': None, 'folder': 'C:\\\\Users\\\\Atomico\\\\web2py', 'config': '', 'import_models': False, 'winservice': '', 'shell': None, 'run': '', 'log_filename': 'httpserver.log', 'args': [''], 'profiler_filename': None, 'ssl_private_key': '', 'password': '<ask>', 'request_queue_size': 5, 'ssl_certificate': '', 'cronjob': False, 'plain': False, 'quiet': False, 'interfaces': None, 'minthreads': None, 'timeout': 10, 'numthreads': None, 'nobanner': False, 'pid_filename': 'httpserver.pid'}>"
p1671
asbasbasbag48
(g64
g50
NtRp1672
(dp1673
g53
(dp1674
sg62
g1577
sg55
(lp1675
g48
(g69
g50
NtRp1676
(dp1677
g53
(dp1678
g73
g74
ssg62
g1672
sg55
(lp1679
S'db_sessions'
p1680
asbag48
(g69
g50
NtRp1681
(dp1682
g53
(dp1683
g80
g81
ssg62
g1672
sg55
(lp1684
S':'
asbag48
(g69
g50
NtRp1685
(dp1686
g53
(dp1687
sg62
g1672
sg55
(lp1688
g48
(g49
g50
NtRp1689
(dp1690
g53
(dp1691
g61
I4
ssg62
g1685
sg55
(lp1692
S'set([])'
p1693
asbasbasbag48
(g64
g50
NtRp1694
(dp1695
g53
(dp1696
sg62
g1577
sg55
(lp1697
g48
(g69
g50
NtRp1698
(dp1699
g53
(dp1700
g73
g74
ssg62
g1694
sg55
(lp1701
S'debugging'
p1702
asbag48
(g69
g50
NtRp1703
(dp1704
g53
(dp1705
g80
g81
ssg62
g1694
sg55
(lp1706
S':'
asbag48
(g69
g50
NtRp1707
(dp1708
g53
(dp1709
sg62
g1694
sg55
(lp1710
g48
(g49
g50
NtRp1711
(dp1712
g53
(dp1713
g61
I4
ssg62
g1707
sg55
(lp1714
g91
asbasbasbag48
(g64
g50
NtRp1715
(dp1716
g53
(dp1717
sg62
g1577
sg55
(lp1718
g48
(g69
g50
NtRp1719
(dp1720
g53
(dp1721
g73
g74
ssg62
g1715
sg55
(lp1722
S'gluon_parent'
p1723
asbag48
(g69
g50
NtRp1724
(dp1725
g53
(dp1726
g80
g81
ssg62
g1715
sg55
(lp1727
S':'
asbag48
(g69
g50
NtRp1728
(dp1729
g53
(dp1730
sg62
g1715
sg55
(lp1731
g48
(g49
g50
NtRp1732
(dp1733
g53
(dp1734
g61
I4
ssg62
g1728
sg55
(lp1735
S'C:\\Users\\Atomico\\web2py'
p1736
asbasbasbag48
(g64
g50
NtRp1737
(dp1738
g53
(dp1739
sg62
g1577
sg55
(lp1740
g48
(g69
g50
NtRp1741
(dp1742
g53
(dp1743
g73
g74
ssg62
g1737
sg55
(lp1744
S'http_accept'
p1745
asbag48
(g69
g50
NtRp1746
(dp1747
g53
(dp1748
g80
g81
ssg62
g1737
sg55
(lp1749
S':'
asbag48
(g69
g50
NtRp1750
(dp1751
g53
(dp1752
sg62
g1737
sg55
(lp1753
g48
(g49
g50
NtRp1754
(dp1755
g53
(dp1756
g61
I4
ssg62
g1750
sg55
(lp1757
S'text/html,application/xhtml+xml,application/xml;q=0.9,*/*;q=0.8'
p1758
asbasbasbag48
(g64
g50
NtRp1759
(dp1760
g53
(dp1761
sg62
g1577
sg55
(lp1762
g48
(g69
g50
NtRp1763
(dp1764
g53
(dp1765
g73
g74
ssg62
g1759
sg55
(lp1766
S'http_accept_charset'
p1767
asbag48
(g69
g50
NtRp1768
(dp1769
g53
(dp1770
g80
g81
ssg62
g1759
sg55
(lp1771
S':'
asbag48
(g69
g50
NtRp1772
(dp1773
g53
(dp1774
sg62
g1759
sg55
(lp1775
g48
(g49
g50
NtRp1776
(dp1777
g53
(dp1778
g61
I4
ssg62
g1772
sg55
(lp1779
S'ISO-8859-1,utf-8;q=0.7,*;q=0.7'
p1780
asbasbasbag48
(g64
g50
NtRp1781
(dp1782
g53
(dp1783
sg62
g1577
sg55
(lp1784
g48
(g69
g50
NtRp1785
(dp1786
g53
(dp1787
g73
g74
ssg62
g1781
sg55
(lp1788
S'http_accept_encoding'
p1789
asbag48
(g69
g50
NtRp1790
(dp1791
g53
(dp1792
g80
g81
ssg62
g1781
sg55
(lp1793
S':'
asbag48
(g69
g50
NtRp1794
(dp1795
g53
(dp1796
sg62
g1781
sg55
(lp1797
g48
(g49
g50
NtRp1798
(dp1799
g53
(dp1800
g61
I4
ssg62
g1794
sg55
(lp1801
S'gzip, deflate'
p1802
asbasbasbag48
(g64
g50
NtRp1803
(dp1804
g53
(dp1805
sg62
g1577
sg55
(lp1806
g48
(g69
g50
NtRp1807
(dp1808
g53
(dp1809
g73
g74
ssg62
g1803
sg55
(lp1810
S'http_accept_language'
p1811
asbag48
(g69
g50
NtRp1812
(dp1813
g53
(dp1814
g80
g81
ssg62
g1803
sg55
(lp1815
S':'
asbag48
(g69
g50
NtRp1816
(dp1817
g53
(dp1818
sg62
g1803
sg55
(lp1819
g48
(g49
g50
NtRp1820
(dp1821
g53
(dp1822
g61
I4
ssg62
g1816
sg55
(lp1823
S'es-es,es;q=0.8,en-us;q=0.5,en;q=0.3'
p1824
asbasbasbag48
(g64
g50
NtRp1825
(dp1826
g53
(dp1827
sg62
g1577
sg55
(lp1828
g48
(g69
g50
NtRp1829
(dp1830
g53
(dp1831
g73
g74
ssg62
g1825
sg55
(lp1832
S'http_connection'
p1833
asbag48
(g69
g50
NtRp1834
(dp1835
g53
(dp1836
g80
g81
ssg62
g1825
sg55
(lp1837
S':'
asbag48
(g69
g50
NtRp1838
(dp1839
g53
(dp1840
sg62
g1825
sg55
(lp1841
g48
(g49
g50
NtRp1842
(dp1843
g53
(dp1844
g61
I4
ssg62
g1838
sg55
(lp1845
S'keep-alive'
p1846
asbasbasbag48
(g64
g50
NtRp1847
(dp1848
g53
(dp1849
sg62
g1577
sg55
(lp1850
g48
(g69
g50
NtRp1851
(dp1852
g53
(dp1853
g73
g74
ssg62
g1847
sg55
(lp1854
S'http_cookie'
p1855
asbag48
(g69
g50
NtRp1856
(dp1857
g53
(dp1858
g80
g81
ssg62
g1847
sg55
(lp1859
S':'
asbag48
(g69
g50
NtRp1860
(dp1861
g53
(dp1862
sg62
g1847
sg55
(lp1863
g48
(g49
g50
NtRp1864
(dp1865
g53
(dp1866
g61
I4
ssg62
g1860
sg55
(lp1867
S'session_id_listado_1=127.0.0.1-477ec098-5436-4f6e-bfee-1a0bd88f6f9e; session_id_hemoal=127.0.0.1-442afb36-a73d-4692-979c-372017ada9e5; session_id_myappjav=127.0.0.1-b6da3776-a7b2-40a7-ab82-4eca2d3263a1; session_id_cual_es_tu_nombre=127.0.0.1-5e59e375-704d-4241-8b9c-5fd9f8c15773; session_id_welcome=127.0.0.1-082a2830-9bb6-4bfb-b2e2-4857b06c191e; session_id_borrar2=127.0.0.1-a9c92f68-d0b3-484c-889c-daaf25ccf891; session_id_admin=127.0.0.1-fa7dcb1d-044d-45ab-baf4-3f6c8db163e6; session_id_desglosar_emails=127.0.0.1-0a11b3b2-660c-433c-b71f-fc129286f26c'
p1868
asbasbasbag48
(g64
g50
NtRp1869
(dp1870
g53
(dp1871
sg62
g1577
sg55
(lp1872
g48
(g69
g50
NtRp1873
(dp1874
g53
(dp1875
g73
g74
ssg62
g1869
sg55
(lp1876
S'http_host'
p1877
asbag48
(g69
g50
NtRp1878
(dp1879
g53
(dp1880
g80
g81
ssg62
g1869
sg55
(lp1881
S':'
asbag48
(g69
g50
NtRp1882
(dp1883
g53
(dp1884
sg62
g1869
sg55
(lp1885
g48
(g49
g50
NtRp1886
(dp1887
g53
(dp1888
g61
I4
ssg62
g1882
sg55
(lp1889
S'127.0.0.1:8000'
p1890
asbasbasbag48
(g64
g50
NtRp1891
(dp1892
g53
(dp1893
sg62
g1577
sg55
(lp1894
g48
(g69
g50
NtRp1895
(dp1896
g53
(dp1897
g73
g74
ssg62
g1891
sg55
(lp1898
S'http_user_agent'
p1899
asbag48
(g69
g50
NtRp1900
(dp1901
g53
(dp1902
g80
g81
ssg62
g1891
sg55
(lp1903
S':'
asbag48
(g69
g50
NtRp1904
(dp1905
g53
(dp1906
sg62
g1891
sg55
(lp1907
g48
(g49
g50
NtRp1908
(dp1909
g53
(dp1910
g61
I4
ssg62
g1904
sg55
(lp1911
S'Mozilla/5.0 (Windows NT 6.1; WOW64; rv:6.0.2) Gecko/20100101 Firefox/6.0.2'
p1912
asbasbasbag48
(g64
g50
NtRp1913
(dp1914
g53
(dp1915
sg62
g1577
sg55
(lp1916
g48
(g69
g50
NtRp1917
(dp1918
g53
(dp1919
g73
g74
ssg62
g1913
sg55
(lp1920
S'is_jython'
p1921
asbag48
(g69
g50
NtRp1922
(dp1923
g53
(dp1924
g80
g81
ssg62
g1913
sg55
(lp1925
S':'
asbag48
(g69
g50
NtRp1926
(dp1927
g53
(dp1928
sg62
g1913
sg55
(lp1929
g48
(g49
g50
NtRp1930
(dp1931
g53
(dp1932
g61
I4
ssg62
g1926
sg55
(lp1933
g91
asbasbasbag48
(g64
g50
NtRp1934
(dp1935
g53
(dp1936
sg62
g1577
sg55
(lp1937
g48
(g69
g50
NtRp1938
(dp1939
g53
(dp1940
g73
g74
ssg62
g1934
sg55
(lp1941
S'path_info'
p1942
asbag48
(g69
g50
NtRp1943
(dp1944
g53
(dp1945
g80
g81
ssg62
g1934
sg55
(lp1946
S':'
asbag48
(g69
g50
NtRp1947
(dp1948
g53
(dp1949
sg62
g1934
sg55
(lp1950
g48
(g49
g50
NtRp1951
(dp1952
g53
(dp1953
g61
I4
ssg62
g1947
sg55
(lp1954
S'/Desglosar_Emails/default/entrada_mod3.html'
p1955
asbasbasbag48
(g64
g50
NtRp1956
(dp1957
g53
(dp1958
sg62
g1577
sg55
(lp1959
g48
(g69
g50
NtRp1960
(dp1961
g53
(dp1962
g73
g74
ssg62
g1956
sg55
(lp1963
S'query_string'
p1964
asbag48
(g69
g50
NtRp1965
(dp1966
g53
(dp1967
g80
g81
ssg62
g1956
sg55
(lp1968
S':'
asbag48
(g69
g50
NtRp1969
(dp1970
g53
(dp1971
sg62
g1956
sg55
(lp1972
g48
(g49
g50
NtRp1973
(dp1974
g53
(dp1975
g61
I4
ssg62
g1969
sg55
(lp1976
S''
asbasbasbag48
(g64
g50
NtRp1977
(dp1978
g53
(dp1979
sg62
g1577
sg55
(lp1980
g48
(g69
g50
NtRp1981
(dp1982
g53
(dp1983
g73
g74
ssg62
g1977
sg55
(lp1984
S'remote_addr'
p1985
asbag48
(g69
g50
NtRp1986
(dp1987
g53
(dp1988
g80
g81
ssg62
g1977
sg55
(lp1989
S':'
asbag48
(g69
g50
NtRp1990
(dp1991
g53
(dp1992
sg62
g1977
sg55
(lp1993
g48
(g49
g50
NtRp1994
(dp1995
g53
(dp1996
g61
I4
ssg62
g1990
sg55
(lp1997
g181
asbasbasbag48
(g64
g50
NtRp1998
(dp1999
g53
(dp2000
sg62
g1577
sg55
(lp2001
g48
(g69
g50
NtRp2002
(dp2003
g53
(dp2004
g73
g74
ssg62
g1998
sg55
(lp2005
S'remote_port'
p2006
asbag48
(g69
g50
NtRp2007
(dp2008
g53
(dp2009
g80
g81
ssg62
g1998
sg55
(lp2010
S':'
asbag48
(g69
g50
NtRp2011
(dp2012
g53
(dp2013
sg62
g1998
sg55
(lp2014
g48
(g49
g50
NtRp2015
(dp2016
g53
(dp2017
g61
I4
ssg62
g2011
sg55
(lp2018
S'62791'
p2019
asbasbasbag48
(g64
g50
NtRp2020
(dp2021
g53
(dp2022
sg62
g1577
sg55
(lp2023
g48
(g69
g50
NtRp2024
(dp2025
g53
(dp2026
g73
g74
ssg62
g2020
sg55
(lp2027
S'request_method'
p2028
asbag48
(g69
g50
NtRp2029
(dp2030
g53
(dp2031
g80
g81
ssg62
g2020
sg55
(lp2032
S':'
asbag48
(g69
g50
NtRp2033
(dp2034
g53
(dp2035
sg62
g2020
sg55
(lp2036
g48
(g49
g50
NtRp2037
(dp2038
g53
(dp2039
g61
I4
ssg62
g2033
sg55
(lp2040
S'GET'
p2041
asbasbasbag48
(g64
g50
NtRp2042
(dp2043
g53
(dp2044
sg62
g1577
sg55
(lp2045
g48
(g69
g50
NtRp2046
(dp2047
g53
(dp2048
g73
g74
ssg62
g2042
sg55
(lp2049
S'script_name'
p2050
asbag48
(g69
g50
NtRp2051
(dp2052
g53
(dp2053
g80
g81
ssg62
g2042
sg55
(lp2054
S':'
asbag48
(g69
g50
NtRp2055
(dp2056
g53
(dp2057
sg62
g2042
sg55
(lp2058
g48
(g49
g50
NtRp2059
(dp2060
g53
(dp2061
g61
I4
ssg62
g2055
sg55
(lp2062
S''
asbasbasbag48
(g64
g50
NtRp2063
(dp2064
g53
(dp2065
sg62
g1577
sg55
(lp2066
g48
(g69
g50
NtRp2067
(dp2068
g53
(dp2069
g73
g74
ssg62
g2063
sg55
(lp2070
S'server_name'
p2071
asbag48
(g69
g50
NtRp2072
(dp2073
g53
(dp2074
g80
g81
ssg62
g2063
sg55
(lp2075
S':'
asbag48
(g69
g50
NtRp2076
(dp2077
g53
(dp2078
sg62
g2063
sg55
(lp2079
g48
(g49
g50
NtRp2080
(dp2081
g53
(dp2082
g61
I4
ssg62
g2076
sg55
(lp2083
S'Swing'
p2084
asbasbasbag48
(g64
g50
NtRp2085
(dp2086
g53
(dp2087
sg62
g1577
sg55
(lp2088
g48
(g69
g50
NtRp2089
(dp2090
g53
(dp2091
g73
g74
ssg62
g2085
sg55
(lp2092
S'server_port'
p2093
asbag48
(g69
g50
NtRp2094
(dp2095
g53
(dp2096
g80
g81
ssg62
g2085
sg55
(lp2097
S':'
asbag48
(g69
g50
NtRp2098
(dp2099
g53
(dp2100
sg62
g2085
sg55
(lp2101
g48
(g49
g50
NtRp2102
(dp2103
g53
(dp2104
g61
I4
ssg62
g2098
sg55
(lp2105
S'8000'
p2106
asbasbasbag48
(g64
g50
NtRp2107
(dp2108
g53
(dp2109
sg62
g1577
sg55
(lp2110
g48
(g69
g50
NtRp2111
(dp2112
g53
(dp2113
g73
g74
ssg62
g2107
sg55
(lp2114
S'server_protocol'
p2115
asbag48
(g69
g50
NtRp2116
(dp2117
g53
(dp2118
g80
g81
ssg62
g2107
sg55
(lp2119
S':'
asbag48
(g69
g50
NtRp2120
(dp2121
g53
(dp2122
sg62
g2107
sg55
(lp2123
g48
(g49
g50
NtRp2124
(dp2125
g53
(dp2126
g61
I4
ssg62
g2120
sg55
(lp2127
S'HTTP/1.1'
p2128
asbasbasbag48
(g64
g50
NtRp2129
(dp2130
g53
(dp2131
sg62
g1577
sg55
(lp2132
g48
(g69
g50
NtRp2133
(dp2134
g53
(dp2135
g73
g74
ssg62
g2129
sg55
(lp2136
S'server_software'
p2137
asbag48
(g69
g50
NtRp2138
(dp2139
g53
(dp2140
g80
g81
ssg62
g2129
sg55
(lp2141
S':'
asbag48
(g69
g50
NtRp2142
(dp2143
g53
(dp2144
sg62
g2129
sg55
(lp2145
g48
(g49
g50
NtRp2146
(dp2147
g53
(dp2148
g61
I4
ssg62
g2142
sg55
(lp2149
S'Rocket 1.2.2'
p2150
asbasbasbag48
(g64
g50
NtRp2151
(dp2152
g53
(dp2153
sg62
g1577
sg55
(lp2154
g48
(g69
g50
NtRp2155
(dp2156
g53
(dp2157
g73
g74
ssg62
g2151
sg55
(lp2158
S'web2py_crontype'
p2159
asbag48
(g69
g50
NtRp2160
(dp2161
g53
(dp2162
g80
g81
ssg62
g2151
sg55
(lp2163
S':'
asbag48
(g69
g50
NtRp2164
(dp2165
g53
(dp2166
sg62
g2151
sg55
(lp2167
g48
(g49
g50
NtRp2168
(dp2169
g53
(dp2170
g61
I4
ssg62
g2164
sg55
(lp2171
S'hard'
p2172
asbasbasbag48
(g64
g50
NtRp2173
(dp2174
g53
(dp2175
sg62
g1577
sg55
(lp2176
g48
(g69
g50
NtRp2177
(dp2178
g53
(dp2179
g73
g74
ssg62
g2173
sg55
(lp2180
S'web2py_path'
p2181
asbag48
(g69
g50
NtRp2182
(dp2183
g53
(dp2184
g80
g81
ssg62
g2173
sg55
(lp2185
S':'
asbag48
(g69
g50
NtRp2186
(dp2187
g53
(dp2188
sg62
g2173
sg55
(lp2189
g48
(g49
g50
NtRp2190
(dp2191
g53
(dp2192
g61
I4
ssg62
g2186
sg55
(lp2193
g1624
asbasbasbag48
(g64
g50
NtRp2194
(dp2195
g53
(dp2196
sg62
g1577
sg55
(lp2197
g48
(g69
g50
NtRp2198
(dp2199
g53
(dp2200
g73
g74
ssg62
g2194
sg55
(lp2201
S'web2py_version'
p2202
asbag48
(g69
g50
NtRp2203
(dp2204
g53
(dp2205
g80
g81
ssg62
g2194
sg55
(lp2206
S':'
asbag48
(g69
g50
NtRp2207
(dp2208
g53
(dp2209
sg62
g2194
sg55
(lp2210
g48
(g49
g50
NtRp2211
(dp2212
g53
(dp2213
g61
I4
ssg62
g2207
sg55
(lp2214
S'Version 1.98.2 (2011-08-04 00:47:09)\n'
p2215
asbasbasbag48
(g64
g50
NtRp2216
(dp2217
g53
(dp2218
sg62
g1577
sg55
(lp2219
g48
(g69
g50
NtRp2220
(dp2221
g53
(dp2222
g73
g74
ssg62
g2216
sg55
(lp2223
S'wsgi_errors'
p2224
asbag48
(g69
g50
NtRp2225
(dp2226
g53
(dp2227
g80
g81
ssg62
g2216
sg55
(lp2228
S':'
asbag48
(g69
g50
NtRp2229
(dp2230
g53
(dp2231
sg62
g2216
sg55
(lp2232
g48
(g49
g50
NtRp2233
(dp2234
g53
(dp2235
g61
I4
ssg62
g2229
sg55
(lp2236
S"<open file '<stderr>', mode 'w' at 0x003100B0>"
p2237
asbasbasbag48
(g64
g50
NtRp2238
(dp2239
g53
(dp2240
sg62
g1577
sg55
(lp2241
g48
(g69
g50
NtRp2242
(dp2243
g53
(dp2244
g73
g74
ssg62
g2238
sg55
(lp2245
S'wsgi_file_wrapper'
p2246
asbag48
(g69
g50
NtRp2247
(dp2248
g53
(dp2249
g80
g81
ssg62
g2238
sg55
(lp2250
S':'
asbag48
(g69
g50
NtRp2251
(dp2252
g53
(dp2253
sg62
g2238
sg55
(lp2254
g48
(g49
g50
NtRp2255
(dp2256
g53
(dp2257
g61
I4
ssg62
g2251
sg55
(lp2258
S'<class gluon.rocket.FileWrapper at 0x02FFC1B0>'
p2259
asbasbasbag48
(g64
g50
NtRp2260
(dp2261
g53
(dp2262
sg62
g1577
sg55
(lp2263
g48
(g69
g50
NtRp2264
(dp2265
g53
(dp2266
g73
g74
ssg62
g2260
sg55
(lp2267
S'wsgi_input'
p2268
asbag48
(g69
g50
NtRp2269
(dp2270
g53
(dp2271
g80
g81
ssg62
g2260
sg55
(lp2272
S':'
asbag48
(g69
g50
NtRp2273
(dp2274
g53
(dp2275
sg62
g2260
sg55
(lp2276
g48
(g49
g50
NtRp2277
(dp2278
g53
(dp2279
g61
I4
ssg62
g2273
sg55
(lp2280
S'<socket._fileobject object at 0x08255D70>'
p2281
asbasbasbag48
(g64
g50
NtRp2282
(dp2283
g53
(dp2284
sg62
g1577
sg55
(lp2285
g48
(g69
g50
NtRp2286
(dp2287
g53
(dp2288
g73
g74
ssg62
g2282
sg55
(lp2289
S'wsgi_multiprocess'
p2290
asbag48
(g69
g50
NtRp2291
(dp2292
g53
(dp2293
g80
g81
ssg62
g2282
sg55
(lp2294
S':'
asbag48
(g69
g50
NtRp2295
(dp2296
g53
(dp2297
sg62
g2282
sg55
(lp2298
g48
(g49
g50
NtRp2299
(dp2300
g53
(dp2301
g61
I4
ssg62
g2295
sg55
(lp2302
g91
asbasbasbag48
(g64
g50
NtRp2303
(dp2304
g53
(dp2305
sg62
g1577
sg55
(lp2306
g48
(g69
g50
NtRp2307
(dp2308
g53
(dp2309
g73
g74
ssg62
g2303
sg55
(lp2310
S'wsgi_multithread'
p2311
asbag48
(g69
g50
NtRp2312
(dp2313
g53
(dp2314
g80
g81
ssg62
g2303
sg55
(lp2315
S':'
asbag48
(g69
g50
NtRp2316
(dp2317
g53
(dp2318
sg62
g2303
sg55
(lp2319
g48
(g49
g50
NtRp2320
(dp2321
g53
(dp2322
g61
I4
ssg62
g2316
sg55
(lp2323
S'True'
p2324
asbasbasbag48
(g64
g50
NtRp2325
(dp2326
g53
(dp2327
sg62
g1577
sg55
(lp2328
g48
(g69
g50
NtRp2329
(dp2330
g53
(dp2331
g73
g74
ssg62
g2325
sg55
(lp2332
S'wsgi_run_once'
p2333
asbag48
(g69
g50
NtRp2334
(dp2335
g53
(dp2336
g80
g81
ssg62
g2325
sg55
(lp2337
S':'
asbag48
(g69
g50
NtRp2338
(dp2339
g53
(dp2340
sg62
g2325
sg55
(lp2341
g48
(g49
g50
NtRp2342
(dp2343
g53
(dp2344
g61
I4
ssg62
g2338
sg55
(lp2345
g91
asbasbasbag48
(g64
g50
NtRp2346
(dp2347
g53
(dp2348
sg62
g1577
sg55
(lp2349
g48
(g69
g50
NtRp2350
(dp2351
g53
(dp2352
g73
g74
ssg62
g2346
sg55
(lp2353
S'wsgi_url_scheme'
p2354
asbag48
(g69
g50
NtRp2355
(dp2356
g53
(dp2357
g80
g81
ssg62
g2346
sg55
(lp2358
S':'
asbag48
(g69
g50
NtRp2359
(dp2360
g53
(dp2361
sg62
g2346
sg55
(lp2362
g48
(g49
g50
NtRp2363
(dp2364
g53
(dp2365
g61
I4
ssg62
g2359
sg55
(lp2366
S'http'
p2367
asbasbasbag48
(g64
g50
NtRp2368
(dp2369
g53
(dp2370
sg62
g1577
sg55
(lp2371
g48
(g69
g50
NtRp2372
(dp2373
g53
(dp2374
g73
g74
ssg62
g2368
sg55
(lp2375
S'wsgi_version'
p2376
asbag48
(g69
g50
NtRp2377
(dp2378
g53
(dp2379
g80
g81
ssg62
g2368
sg55
(lp2380
S':'
asbag48
(g69
g50
NtRp2381
(dp2382
g53
(dp2383
sg62
g2368
sg55
(lp2384
g48
(g49
g50
NtRp2385
(dp2386
g53
(dp2387
g61
I4
ssg62
g2381
sg55
(lp2388
g48
(g57
g50
NtRp2389
(dp2390
g53
(dp2391
g61
I3
ssg62
Nsg55
(lp2392
g48
(g64
g50
NtRp2393
(dp2394
g53
(dp2395
sg62
g2389
sg55
(lp2396
g48
(g69
g50
NtRp2397
(dp2398
g53
(dp2399
sg62
g2393
sg55
(lp2400
g48
(g49
g50
NtRp2401
(dp2402
g53
(dp2403
g61
I3
ssg62
g2397
sg55
(lp2404
S'1'
asbasbasbag48
(g64
g50
NtRp2405
(dp2406
g53
(dp2407
sg62
g2389
sg55
(lp2408
g48
(g69
g50
NtRp2409
(dp2410
g53
(dp2411
sg62
g2405
sg55
(lp2412
g48
(g49
g50
NtRp2413
(dp2414
g53
(dp2415
g61
I3
ssg62
g2409
sg55
(lp2416
S'0'
asbasbasbasbasbasbasbasbasbasbasbag48
(g64
g50
NtRp2417
(dp2418
g53
(dp2419
sg62
g58
sg55
(lp2420
g48
(g69
g50
NtRp2421
(dp2422
g53
(dp2423
g73
g74
ssg62
g2417
sg55
(lp2424
S'extension'
p2425
asbag48
(g69
g50
NtRp2426
(dp2427
g53
(dp2428
g80
g81
ssg62
g2417
sg55
(lp2429
S':'
asbag48
(g69
g50
NtRp2430
(dp2431
g53
(dp2432
sg62
g2417
sg55
(lp2433
g48
(g49
g50
NtRp2434
(dp2435
g53
(dp2436
g61
I5
ssg62
g2430
sg55
(lp2437
S'html'
p2438
asbasbasbag48
(g64
g50
NtRp2439
(dp2440
g53
(dp2441
sg62
g58
sg55
(lp2442
g48
(g69
g50
NtRp2443
(dp2444
g53
(dp2445
g73
g74
ssg62
g2439
sg55
(lp2446
S'folder'
p2447
asbag48
(g69
g50
NtRp2448
(dp2449
g53
(dp2450
g80
g81
ssg62
g2439
sg55
(lp2451
S':'
asbag48
(g69
g50
NtRp2452
(dp2453
g53
(dp2454
sg62
g2439
sg55
(lp2455
g48
(g49
g50
NtRp2456
(dp2457
g53
(dp2458
g61
I5
ssg62
g2452
sg55
(lp2459
S'C:\\Users\\Atomico\\web2py\\applications\\Desglosar_Emails\\'
p2460
asbasbasbag48
(g64
g50
NtRp2461
(dp2462
g53
(dp2463
sg62
g58
sg55
(lp2464
g48
(g69
g50
NtRp2465
(dp2466
g53
(dp2467
g73
g74
ssg62
g2461
sg55
(lp2468
S'function'
p2469
asbag48
(g69
g50
NtRp2470
(dp2471
g53
(dp2472
g80
g81
ssg62
g2461
sg55
(lp2473
S':'
asbag48
(g69
g50
NtRp2474
(dp2475
g53
(dp2476
sg62
g2461
sg55
(lp2477
g48
(g49
g50
NtRp2478
(dp2479
g53
(dp2480
g61
I5
ssg62
g2474
sg55
(lp2481
S'entrada_mod3'
p2482
asbasbasbag48
(g64
g50
NtRp2483
(dp2484
g53
(dp2485
sg62
g58
sg55
(lp2486
g48
(g69
g50
NtRp2487
(dp2488
g53
(dp2489
g73
g74
ssg62
g2483
sg55
(lp2490
S'get_vars'
p2491
asbag48
(g69
g50
NtRp2492
(dp2493
g53
(dp2494
g80
g81
ssg62
g2483
sg55
(lp2495
S':'
asbag48
(g69
g50
NtRp2496
(dp2497
g53
(dp2498
sg62
g2483
sg55
(lp2499
g48
(g49
g50
NtRp2500
(dp2501
g53
(dp2502
g61
I5
ssg62
g2496
sg55
(lp2503
g48
(g57
g50
NtRp2504
(dp2505
g53
(dp2506
g61
I4
ssg62
Nsg55
(lp2507
sbasbasbasbag48
(g64
g50
NtRp2508
(dp2509
g53
(dp2510
sg62
g58
sg55
(lp2511
g48
(g69
g50
NtRp2512
(dp2513
g53
(dp2514
g73
g74
ssg62
g2508
sg55
(lp2515
S'is_https'
p2516
asbag48
(g69
g50
NtRp2517
(dp2518
g53
(dp2519
g80
g81
ssg62
g2508
sg55
(lp2520
S':'
asbag48
(g69
g50
NtRp2521
(dp2522
g53
(dp2523
sg62
g2508
sg55
(lp2524
g48
(g49
g50
NtRp2525
(dp2526
g53
(dp2527
g61
I5
ssg62
g2521
sg55
(lp2528
g91
asbasbasbag48
(g64
g50
NtRp2529
(dp2530
g53
(dp2531
sg62
g58
sg55
(lp2532
g48
(g69
g50
NtRp2533
(dp2534
g53
(dp2535
g73
g74
ssg62
g2529
sg55
(lp2536
S'is_local'
p2537
asbag48
(g69
g50
NtRp2538
(dp2539
g53
(dp2540
g80
g81
ssg62
g2529
sg55
(lp2541
S':'
asbag48
(g69
g50
NtRp2542
(dp2543
g53
(dp2544
sg62
g2529
sg55
(lp2545
g48
(g49
g50
NtRp2546
(dp2547
g53
(dp2548
g61
I5
ssg62
g2542
sg55
(lp2549
g2324
asbasbasbag48
(g64
g50
NtRp2550
(dp2551
g53
(dp2552
sg62
g58
sg55
(lp2553
g48
(g69
g50
NtRp2554
(dp2555
g53
(dp2556
g73
g74
ssg62
g2550
sg55
(lp2557
S'is_restful'
p2558
asbag48
(g69
g50
NtRp2559
(dp2560
g53
(dp2561
g80
g81
ssg62
g2550
sg55
(lp2562
S':'
asbag48
(g69
g50
NtRp2563
(dp2564
g53
(dp2565
sg62
g2550
sg55
(lp2566
g48
(g49
g50
NtRp2567
(dp2568
g53
(dp2569
g61
I5
ssg62
g2563
sg55
(lp2570
g91
asbasbasbag48
(g64
g50
NtRp2571
(dp2572
g53
(dp2573
sg62
g58
sg55
(lp2574
g48
(g69
g50
NtRp2575
(dp2576
g53
(dp2577
g73
g74
ssg62
g2571
sg55
(lp2578
S'now'
p2579
asbag48
(g69
g50
NtRp2580
(dp2581
g53
(dp2582
g80
g81
ssg62
g2571
sg55
(lp2583
S':'
asbag48
(g69
g50
NtRp2584
(dp2585
g53
(dp2586
sg62
g2571
sg55
(lp2587
g48
(g49
g50
NtRp2588
(dp2589
g53
(dp2590
g61
I5
ssg62
g2584
sg55
(lp2591
S'datetime.datetime(2011, 9, 20, 8, 47, 0, 959000)'
p2592
asbasbasbag48
(g64
g50
NtRp2593
(dp2594
g53
(dp2595
sg62
g58
sg55
(lp2596
g48
(g69
g50
NtRp2597
(dp2598
g53
(dp2599
g73
g74
ssg62
g2593
sg55
(lp2600
S'post_vars'
p2601
asbag48
(g69
g50
NtRp2602
(dp2603
g53
(dp2604
g80
g81
ssg62
g2593
sg55
(lp2605
S':'
asbag48
(g69
g50
NtRp2606
(dp2607
g53
(dp2608
sg62
g2593
sg55
(lp2609
g48
(g49
g50
NtRp2610
(dp2611
g53
(dp2612
g61
I5
ssg62
g2606
sg55
(lp2613
g48
(g57
g50
NtRp2614
(dp2615
g53
(dp2616
g61
I4
ssg62
Nsg55
(lp2617
sbasbasbasbag48
(g64
g50
NtRp2618
(dp2619
g53
(dp2620
sg62
g58
sg55
(lp2621
g48
(g69
g50
NtRp2622
(dp2623
g53
(dp2624
g73
g74
ssg62
g2618
sg55
(lp2625
S'raw_extension'
p2626
asbag48
(g69
g50
NtRp2627
(dp2628
g53
(dp2629
g80
g81
ssg62
g2618
sg55
(lp2630
S':'
asbag48
(g69
g50
NtRp2631
(dp2632
g53
(dp2633
sg62
g2618
sg55
(lp2634
g48
(g49
g50
NtRp2635
(dp2636
g53
(dp2637
g61
I5
ssg62
g2631
sg55
(lp2638
g2438
asbasbasbag48
(g64
g50
NtRp2639
(dp2640
g53
(dp2641
sg62
g58
sg55
(lp2642
g48
(g69
g50
NtRp2643
(dp2644
g53
(dp2645
g73
g74
ssg62
g2639
sg55
(lp2646
S'url'
p2647
asbag48
(g69
g50
NtRp2648
(dp2649
g53
(dp2650
g80
g81
ssg62
g2639
sg55
(lp2651
S':'
asbag48
(g69
g50
NtRp2652
(dp2653
g53
(dp2654
sg62
g2639
sg55
(lp2655
g48
(g49
g50
NtRp2656
(dp2657
g53
(dp2658
g61
I5
ssg62
g2652
sg55
(lp2659
S'/Desglosar_Emails/default/entrada_mod3.html'
p2660
asbasbasbag48
(g64
g50
NtRp2661
(dp2662
g53
(dp2663
sg62
g58
sg55
(lp2664
g48
(g69
g50
NtRp2665
(dp2666
g53
(dp2667
g73
g74
ssg62
g2661
sg55
(lp2668
S'uuid'
p2669
asbag48
(g69
g50
NtRp2670
(dp2671
g53
(dp2672
g80
g81
ssg62
g2661
sg55
(lp2673
S':'
asbag48
(g69
g50
NtRp2674
(dp2675
g53
(dp2676
sg62
g2661
sg55
(lp2677
g48
(g49
g50
NtRp2678
(dp2679
g53
(dp2680
g61
I5
ssg62
g2674
sg55
(lp2681
S'Desglosar_Emails/127.0.0.1.2011-09-20.08-47-00.b158a999-21bc-4c9a-92fa-279e9efbca3e'
p2682
asbasbasbag48
(g64
g50
NtRp2683
(dp2684
g53
(dp2685
sg62
g58
sg55
(lp2686
g48
(g69
g50
NtRp2687
(dp2688
g53
(dp2689
g73
g74
ssg62
g2683
sg55
(lp2690
S'vars'
p2691
asbag48
(g69
g50
NtRp2692
(dp2693
g53
(dp2694
g80
g81
ssg62
g2683
sg55
(lp2695
S':'
asbag48
(g69
g50
NtRp2696
(dp2697
g53
(dp2698
sg62
g2683
sg55
(lp2699
g48
(g49
g50
NtRp2700
(dp2701
g53
(dp2702
g61
I5
ssg62
g2696
sg55
(lp2703
g48
(g57
g50
NtRp2704
(dp2705
g53
(dp2706
g61
I4
ssg62
Nsg55
(lp2707
sbasbasbasbag48
(g64
g50
NtRp2708
(dp2709
g53
(dp2710
sg62
g58
sg55
(lp2711
g48
(g69
g50
NtRp2712
(dp2713
g53
(dp2714
g73
g74
ssg62
g2708
sg55
(lp2715
S'wsgi'
p2716
asbag48
(g69
g50
NtRp2717
(dp2718
g53
(dp2719
g80
g81
ssg62
g2708
sg55
(lp2720
S':'
asbag48
(g69
g50
NtRp2721
(dp2722
g53
(dp2723
sg62
g2708
sg55
(lp2724
g48
(g49
g50
NtRp2725
(dp2726
g53
(dp2727
g61
I5
ssg62
g2721
sg55
(lp2728
g48
(g57
g50
NtRp2729
(dp2730
g53
(dp2731
g61
I4
ssg62
Nsg55
(lp2732
g48
(g64
g50
NtRp2733
(dp2734
g53
(dp2735
sg62
g2729
sg55
(lp2736
g48
(g69
g50
NtRp2737
(dp2738
g53
(dp2739
g73
g74
ssg62
g2733
sg55
(lp2740
S'environ'
p2741
asbag48
(g69
g50
NtRp2742
(dp2743
g53
(dp2744
g80
g81
ssg62
g2733
sg55
(lp2745
S':'
asbag48
(g69
g50
NtRp2746
(dp2747
g53
(dp2748
sg62
g2733
sg55
(lp2749
g48
(g49
g50
NtRp2750
(dp2751
g53
(dp2752
g61
I4
ssg62
g2746
sg55
(lp2753
g48
(g57
g50
NtRp2754
(dp2755
g53
(dp2756
g61
I3
ssg62
Nsg55
(lp2757
g48
(g64
g50
NtRp2758
(dp2759
g53
(dp2760
sg62
g2754
sg55
(lp2761
g48
(g69
g50
NtRp2762
(dp2763
g53
(dp2764
g73
g74
ssg62
g2758
sg55
(lp2765
S'HTTP_ACCEPT'
p2766
asbag48
(g69
g50
NtRp2767
(dp2768
g53
(dp2769
g80
g81
ssg62
g2758
sg55
(lp2770
S':'
asbag48
(g69
g50
NtRp2771
(dp2772
g53
(dp2773
sg62
g2758
sg55
(lp2774
g48
(g49
g50
NtRp2775
(dp2776
g53
(dp2777
g61
I3
ssg62
g2771
sg55
(lp2778
g1758
asbasbasbag48
(g64
g50
NtRp2779
(dp2780
g53
(dp2781
sg62
g2754
sg55
(lp2782
g48
(g69
g50
NtRp2783
(dp2784
g53
(dp2785
g73
g74
ssg62
g2779
sg55
(lp2786
S'HTTP_ACCEPT_CHARSET'
p2787
asbag48
(g69
g50
NtRp2788
(dp2789
g53
(dp2790
g80
g81
ssg62
g2779
sg55
(lp2791
S':'
asbag48
(g69
g50
NtRp2792
(dp2793
g53
(dp2794
sg62
g2779
sg55
(lp2795
g48
(g49
g50
NtRp2796
(dp2797
g53
(dp2798
g61
I3
ssg62
g2792
sg55
(lp2799
g1780
asbasbasbag48
(g64
g50
NtRp2800
(dp2801
g53
(dp2802
sg62
g2754
sg55
(lp2803
g48
(g69
g50
NtRp2804
(dp2805
g53
(dp2806
g73
g74
ssg62
g2800
sg55
(lp2807
S'HTTP_ACCEPT_ENCODING'
p2808
asbag48
(g69
g50
NtRp2809
(dp2810
g53
(dp2811
g80
g81
ssg62
g2800
sg55
(lp2812
S':'
asbag48
(g69
g50
NtRp2813
(dp2814
g53
(dp2815
sg62
g2800
sg55
(lp2816
g48
(g49
g50
NtRp2817
(dp2818
g53
(dp2819
g61
I3
ssg62
g2813
sg55
(lp2820
g1802
asbasbasbag48
(g64
g50
NtRp2821
(dp2822
g53
(dp2823
sg62
g2754
sg55
(lp2824
g48
(g69
g50
NtRp2825
(dp2826
g53
(dp2827
g73
g74
ssg62
g2821
sg55
(lp2828
S'HTTP_ACCEPT_LANGUAGE'
p2829
asbag48
(g69
g50
NtRp2830
(dp2831
g53
(dp2832
g80
g81
ssg62
g2821
sg55
(lp2833
S':'
asbag48
(g69
g50
NtRp2834
(dp2835
g53
(dp2836
sg62
g2821
sg55
(lp2837
g48
(g49
g50
NtRp2838
(dp2839
g53
(dp2840
g61
I3
ssg62
g2834
sg55
(lp2841
g1824
asbasbasbag48
(g64
g50
NtRp2842
(dp2843
g53
(dp2844
sg62
g2754
sg55
(lp2845
g48
(g69
g50
NtRp2846
(dp2847
g53
(dp2848
g73
g74
ssg62
g2842
sg55
(lp2849
S'HTTP_CONNECTION'
p2850
asbag48
(g69
g50
NtRp2851
(dp2852
g53
(dp2853
g80
g81
ssg62
g2842
sg55
(lp2854
S':'
asbag48
(g69
g50
NtRp2855
(dp2856
g53
(dp2857
sg62
g2842
sg55
(lp2858
g48
(g49
g50
NtRp2859
(dp2860
g53
(dp2861
g61
I3
ssg62
g2855
sg55
(lp2862
g1846
asbasbasbag48
(g64
g50
NtRp2863
(dp2864
g53
(dp2865
sg62
g2754
sg55
(lp2866
g48
(g69
g50
NtRp2867
(dp2868
g53
(dp2869
g73
g74
ssg62
g2863
sg55
(lp2870
S'HTTP_COOKIE'
p2871
asbag48
(g69
g50
NtRp2872
(dp2873
g53
(dp2874
g80
g81
ssg62
g2863
sg55
(lp2875
S':'
asbag48
(g69
g50
NtRp2876
(dp2877
g53
(dp2878
sg62
g2863
sg55
(lp2879
g48
(g49
g50
NtRp2880
(dp2881
g53
(dp2882
g61
I3
ssg62
g2876
sg55
(lp2883
g1868
asbasbasbag48
(g64
g50
NtRp2884
(dp2885
g53
(dp2886
sg62
g2754
sg55
(lp2887
g48
(g69
g50
NtRp2888
(dp2889
g53
(dp2890
g73
g74
ssg62
g2884
sg55
(lp2891
S'HTTP_HOST'
p2892
asbag48
(g69
g50
NtRp2893
(dp2894
g53
(dp2895
g80
g81
ssg62
g2884
sg55
(lp2896
S':'
asbag48
(g69
g50
NtRp2897
(dp2898
g53
(dp2899
sg62
g2884
sg55
(lp2900
g48
(g49
g50
NtRp2901
(dp2902
g53
(dp2903
g61
I3
ssg62
g2897
sg55
(lp2904
g1890
asbasbasbag48
(g64
g50
NtRp2905
(dp2906
g53
(dp2907
sg62
g2754
sg55
(lp2908
g48
(g69
g50
NtRp2909
(dp2910
g53
(dp2911
g73
g74
ssg62
g2905
sg55
(lp2912
S'HTTP_USER_AGENT'
p2913
asbag48
(g69
g50
NtRp2914
(dp2915
g53
(dp2916
g80
g81
ssg62
g2905
sg55
(lp2917
S':'
asbag48
(g69
g50
NtRp2918
(dp2919
g53
(dp2920
sg62
g2905
sg55
(lp2921
g48
(g49
g50
NtRp2922
(dp2923
g53
(dp2924
g61
I3
ssg62
g2918
sg55
(lp2925
g1912
asbasbasbag48
(g64
g50
NtRp2926
(dp2927
g53
(dp2928
sg62
g2754
sg55
(lp2929
g48
(g69
g50
NtRp2930
(dp2931
g53
(dp2932
g73
g74
ssg62
g2926
sg55
(lp2933
S'PATH_INFO'
p2934
asbag48
(g69
g50
NtRp2935
(dp2936
g53
(dp2937
g80
g81
ssg62
g2926
sg55
(lp2938
S':'
asbag48
(g69
g50
NtRp2939
(dp2940
g53
(dp2941
sg62
g2926
sg55
(lp2942
g48
(g49
g50
NtRp2943
(dp2944
g53
(dp2945
g61
I3
ssg62
g2939
sg55
(lp2946
g1955
asbasbasbag48
(g64
g50
NtRp2947
(dp2948
g53
(dp2949
sg62
g2754
sg55
(lp2950
g48
(g69
g50
NtRp2951
(dp2952
g53
(dp2953
g73
g74
ssg62
g2947
sg55
(lp2954
S'QUERY_STRING'
p2955
asbag48
(g69
g50
NtRp2956
(dp2957
g53
(dp2958
g80
g81
ssg62
g2947
sg55
(lp2959
S':'
asbag48
(g69
g50
NtRp2960
(dp2961
g53
(dp2962
sg62
g2947
sg55
(lp2963
g48
(g49
g50
NtRp2964
(dp2965
g53
(dp2966
g61
I3
ssg62
g2960
sg55
(lp2967
S''
asbasbasbag48
(g64
g50
NtRp2968
(dp2969
g53
(dp2970
sg62
g2754
sg55
(lp2971
g48
(g69
g50
NtRp2972
(dp2973
g53
(dp2974
g73
g74
ssg62
g2968
sg55
(lp2975
S'REMOTE_ADDR'
p2976
asbag48
(g69
g50
NtRp2977
(dp2978
g53
(dp2979
g80
g81
ssg62
g2968
sg55
(lp2980
S':'
asbag48
(g69
g50
NtRp2981
(dp2982
g53
(dp2983
sg62
g2968
sg55
(lp2984
g48
(g49
g50
NtRp2985
(dp2986
g53
(dp2987
g61
I3
ssg62
g2981
sg55
(lp2988
g181
asbasbasbag48
(g64
g50
NtRp2989
(dp2990
g53
(dp2991
sg62
g2754
sg55
(lp2992
g48
(g69
g50
NtRp2993
(dp2994
g53
(dp2995
g73
g74
ssg62
g2989
sg55
(lp2996
S'REMOTE_PORT'
p2997
asbag48
(g69
g50
NtRp2998
(dp2999
g53
(dp3000
g80
g81
ssg62
g2989
sg55
(lp3001
S':'
asbag48
(g69
g50
NtRp3002
(dp3003
g53
(dp3004
sg62
g2989
sg55
(lp3005
g48
(g49
g50
NtRp3006
(dp3007
g53
(dp3008
g61
I3
ssg62
g3002
sg55
(lp3009
g2019
asbasbasbag48
(g64
g50
NtRp3010
(dp3011
g53
(dp3012
sg62
g2754
sg55
(lp3013
g48
(g69
g50
NtRp3014
(dp3015
g53
(dp3016
g73
g74
ssg62
g3010
sg55
(lp3017
S'REQUEST_METHOD'
p3018
asbag48
(g69
g50
NtRp3019
(dp3020
g53
(dp3021
g80
g81
ssg62
g3010
sg55
(lp3022
S':'
asbag48
(g69
g50
NtRp3023
(dp3024
g53
(dp3025
sg62
g3010
sg55
(lp3026
g48
(g49
g50
NtRp3027
(dp3028
g53
(dp3029
g61
I3
ssg62
g3023
sg55
(lp3030
g2041
asbasbasbag48
(g64
g50
NtRp3031
(dp3032
g53
(dp3033
sg62
g2754
sg55
(lp3034
g48
(g69
g50
NtRp3035
(dp3036
g53
(dp3037
g73
g74
ssg62
g3031
sg55
(lp3038
S'SCRIPT_NAME'
p3039
asbag48
(g69
g50
NtRp3040
(dp3041
g53
(dp3042
g80
g81
ssg62
g3031
sg55
(lp3043
S':'
asbag48
(g69
g50
NtRp3044
(dp3045
g53
(dp3046
sg62
g3031
sg55
(lp3047
g48
(g49
g50
NtRp3048
(dp3049
g53
(dp3050
g61
I3
ssg62
g3044
sg55
(lp3051
S''
asbasbasbag48
(g64
g50
NtRp3052
(dp3053
g53
(dp3054
sg62
g2754
sg55
(lp3055
g48
(g69
g50
NtRp3056
(dp3057
g53
(dp3058
g73
g74
ssg62
g3052
sg55
(lp3059
S'SERVER_NAME'
p3060
asbag48
(g69
g50
NtRp3061
(dp3062
g53
(dp3063
g80
g81
ssg62
g3052
sg55
(lp3064
S':'
asbag48
(g69
g50
NtRp3065
(dp3066
g53
(dp3067
sg62
g3052
sg55
(lp3068
g48
(g49
g50
NtRp3069
(dp3070
g53
(dp3071
g61
I3
ssg62
g3065
sg55
(lp3072
g2084
asbasbasbag48
(g64
g50
NtRp3073
(dp3074
g53
(dp3075
sg62
g2754
sg55
(lp3076
g48
(g69
g50
NtRp3077
(dp3078
g53
(dp3079
g73
g74
ssg62
g3073
sg55
(lp3080
S'SERVER_PORT'
p3081
asbag48
(g69
g50
NtRp3082
(dp3083
g53
(dp3084
g80
g81
ssg62
g3073
sg55
(lp3085
S':'
asbag48
(g69
g50
NtRp3086
(dp3087
g53
(dp3088
sg62
g3073
sg55
(lp3089
g48
(g49
g50
NtRp3090
(dp3091
g53
(dp3092
g61
I3
ssg62
g3086
sg55
(lp3093
g2106
asbasbasbag48
(g64
g50
NtRp3094
(dp3095
g53
(dp3096
sg62
g2754
sg55
(lp3097
g48
(g69
g50
NtRp3098
(dp3099
g53
(dp3100
g73
g74
ssg62
g3094
sg55
(lp3101
S'SERVER_PROTOCOL'
p3102
asbag48
(g69
g50
NtRp3103
(dp3104
g53
(dp3105
g80
g81
ssg62
g3094
sg55
(lp3106
S':'
asbag48
(g69
g50
NtRp3107
(dp3108
g53
(dp3109
sg62
g3094
sg55
(lp3110
g48
(g49
g50
NtRp3111
(dp3112
g53
(dp3113
g61
I3
ssg62
g3107
sg55
(lp3114
g2128
asbasbasbag48
(g64
g50
NtRp3115
(dp3116
g53
(dp3117
sg62
g2754
sg55
(lp3118
g48
(g69
g50
NtRp3119
(dp3120
g53
(dp3121
g73
g74
ssg62
g3115
sg55
(lp3122
S'SERVER_SOFTWARE'
p3123
asbag48
(g69
g50
NtRp3124
(dp3125
g53
(dp3126
g80
g81
ssg62
g3115
sg55
(lp3127
S':'
asbag48
(g69
g50
NtRp3128
(dp3129
g53
(dp3130
sg62
g3115
sg55
(lp3131
g48
(g49
g50
NtRp3132
(dp3133
g53
(dp3134
g61
I3
ssg62
g3128
sg55
(lp3135
g2150
asbasbasbag48
(g64
g50
NtRp3136
(dp3137
g53
(dp3138
sg62
g2754
sg55
(lp3139
g48
(g69
g50
NtRp3140
(dp3141
g53
(dp3142
g73
g74
ssg62
g3136
sg55
(lp3143
S'wsgi.errors'
p3144
asbag48
(g69
g50
NtRp3145
(dp3146
g53
(dp3147
g80
g81
ssg62
g3136
sg55
(lp3148
S':'
asbag48
(g69
g50
NtRp3149
(dp3150
g53
(dp3151
sg62
g3136
sg55
(lp3152
g48
(g49
g50
NtRp3153
(dp3154
g53
(dp3155
g61
I3
ssg62
g3149
sg55
(lp3156
S"<open file '<stderr>', mode 'w' at 0x003100B0>"
p3157
asbasbasbag48
(g64
g50
NtRp3158
(dp3159
g53
(dp3160
sg62
g2754
sg55
(lp3161
g48
(g69
g50
NtRp3162
(dp3163
g53
(dp3164
g73
g74
ssg62
g3158
sg55
(lp3165
S'wsgi.file_wrapper'
p3166
asbag48
(g69
g50
NtRp3167
(dp3168
g53
(dp3169
g80
g81
ssg62
g3158
sg55
(lp3170
S':'
asbag48
(g69
g50
NtRp3171
(dp3172
g53
(dp3173
sg62
g3158
sg55
(lp3174
g48
(g49
g50
NtRp3175
(dp3176
g53
(dp3177
g61
I3
ssg62
g3171
sg55
(lp3178
S'<class gluon.rocket.FileWrapper at 0x02FFC1B0>'
p3179
asbasbasbag48
(g64
g50
NtRp3180
(dp3181
g53
(dp3182
sg62
g2754
sg55
(lp3183
g48
(g69
g50
NtRp3184
(dp3185
g53
(dp3186
g73
g74
ssg62
g3180
sg55
(lp3187
S'wsgi.input'
p3188
asbag48
(g69
g50
NtRp3189
(dp3190
g53
(dp3191
g80
g81
ssg62
g3180
sg55
(lp3192
S':'
asbag48
(g69
g50
NtRp3193
(dp3194
g53
(dp3195
sg62
g3180
sg55
(lp3196
g48
(g49
g50
NtRp3197
(dp3198
g53
(dp3199
g61
I3
ssg62
g3193
sg55
(lp3200
S'<cStringIO.StringO object at 0x08706F60>'
p3201
asbasbasbag48
(g64
g50
NtRp3202
(dp3203
g53
(dp3204
sg62
g2754
sg55
(lp3205
g48
(g69
g50
NtRp3206
(dp3207
g53
(dp3208
g73
g74
ssg62
g3202
sg55
(lp3209
S'wsgi.multiprocess'
p3210
asbag48
(g69
g50
NtRp3211
(dp3212
g53
(dp3213
g80
g81
ssg62
g3202
sg55
(lp3214
S':'
asbag48
(g69
g50
NtRp3215
(dp3216
g53
(dp3217
sg62
g3202
sg55
(lp3218
g48
(g49
g50
NtRp3219
(dp3220
g53
(dp3221
g61
I3
ssg62
g3215
sg55
(lp3222
g91
asbasbasbag48
(g64
g50
NtRp3223
(dp3224
g53
(dp3225
sg62
g2754
sg55
(lp3226
g48
(g69
g50
NtRp3227
(dp3228
g53
(dp3229
g73
g74
ssg62
g3223
sg55
(lp3230
S'wsgi.multithread'
p3231
asbag48
(g69
g50
NtRp3232
(dp3233
g53
(dp3234
g80
g81
ssg62
g3223
sg55
(lp3235
S':'
asbag48
(g69
g50
NtRp3236
(dp3237
g53
(dp3238
sg62
g3223
sg55
(lp3239
g48
(g49
g50
NtRp3240
(dp3241
g53
(dp3242
g61
I3
ssg62
g3236
sg55
(lp3243
g2324
asbasbasbag48
(g64
g50
NtRp3244
(dp3245
g53
(dp3246
sg62
g2754
sg55
(lp3247
g48
(g69
g50
NtRp3248
(dp3249
g53
(dp3250
g73
g74
ssg62
g3244
sg55
(lp3251
S'wsgi.run_once'
p3252
asbag48
(g69
g50
NtRp3253
(dp3254
g53
(dp3255
g80
g81
ssg62
g3244
sg55
(lp3256
S':'
asbag48
(g69
g50
NtRp3257
(dp3258
g53
(dp3259
sg62
g3244
sg55
(lp3260
g48
(g49
g50
NtRp3261
(dp3262
g53
(dp3263
g61
I3
ssg62
g3257
sg55
(lp3264
g91
asbasbasbag48
(g64
g50
NtRp3265
(dp3266
g53
(dp3267
sg62
g2754
sg55
(lp3268
g48
(g69
g50
NtRp3269
(dp3270
g53
(dp3271
g73
g74
ssg62
g3265
sg55
(lp3272
S'wsgi.url_scheme'
p3273
asbag48
(g69
g50
NtRp3274
(dp3275
g53
(dp3276
g80
g81
ssg62
g3265
sg55
(lp3277
S':'
asbag48
(g69
g50
NtRp3278
(dp3279
g53
(dp3280
sg62
g3265
sg55
(lp3281
g48
(g49
g50
NtRp3282
(dp3283
g53
(dp3284
g61
I3
ssg62
g3278
sg55
(lp3285
g2367
asbasbasbag48
(g64
g50
NtRp3286
(dp3287
g53
(dp3288
sg62
g2754
sg55
(lp3289
g48
(g69
g50
NtRp3290
(dp3291
g53
(dp3292
g73
g74
ssg62
g3286
sg55
(lp3293
S'wsgi.version'
p3294
asbag48
(g69
g50
NtRp3295
(dp3296
g53
(dp3297
g80
g81
ssg62
g3286
sg55
(lp3298
S':'
asbag48
(g69
g50
NtRp3299
(dp3300
g53
(dp3301
sg62
g3286
sg55
(lp3302
g48
(g49
g50
NtRp3303
(dp3304
g53
(dp3305
g61
I3
ssg62
g3299
sg55
(lp3306
S'1'
asbasbasbasbasbasbasbasbasbasbasbasbasbsS'frames'
p3307
(lp3308
(dp3309
S'file'
p3310
S'C:\\Users\\Atomico\\web2py\\gluon\\restricted.py'
p3311
sS'dump'
p3312
(dp3313
sS'lnum'
p3314
I192
sS'lines'
p3315
(dp3316
sS'call'
p3317
S'(code=\'response.write(\\\'<!DOCTYPE html>\\\\n<html lang="\\\', ...t   -->    \\\\n  </body>\\\\n</html>\\\\n\\\', escape=False)\', environment={\'A\': <class \'gluon.html.A\'>, \'B\': <class \'gluon.html.B\'>, \'BEAUTIFY\': <class \'gluon.html.BEAUTIFY\'>, \'BODY\': <class \'gluon.html.BODY\'>, \'BR\': <class \'gluon.html.BR\'>, \'BUTTON\': <class \'gluon.html.BUTTON\'>, \'CAT\': <class \'gluon.html.CAT\'>, \'CENTER\': <class \'gluon.html.CENTER\'>, \'CLEANUP\': <class \'gluon.validators.CLEANUP\'>, \'CODE\': <class \'gluon.html.CODE\'>, ...}, layer=r\'C:\\Users\\Atomico\\web2py\\applications\\Desglosar_Emails\\views\\default/entrada_mod3.html\')'
p3318
sS'func'
p3319
S'restricted'
p3320
sa(dp3321
g3310
S'C:\\Users\\Atomico\\web2py\\applications\\Desglosar_Emails\\views\\default\\entrada_mod3.html'
p3322
sg3312
(dp3323
sg3314
I126
sg3315
(dp3324
I128
S"response.write('\\r\\n<br/> s\\xc3\\xb3c el peU.\\r\\n', escape=False)"
p3325
sI129
S"response.write('\\t\\n\\t  </div>\\n\\t  <!-- content -->\\n\\n\\t  ', escape=False)"
p3326
sI130
S'if right_sidebar_enabled:'
p3327
sI131
S'    response.write(\'\\n          <div id="right_sidebar" \', escape=False)'
p3328
sI132
S'    response.write(XML(right_sidebar_style))'
p3329
sI133
S'    response.write(\' >\\n            <div style="padding: 4px;">\\n              \', escape=False)'
p3330
sI134
S"    response.write('Content Right Sidebar', escape=False)"
p3331
sI135
S"    response.write('\\n            </div>\\n\\t  </div><!-- right_sidebar -->\\n          ', escape=False)"
p3332
sI136
S'    pass'
p3333
sI117
S"response.write('\\r\\n<br/>\\r\\n', escape=False)"
p3334
sI118
S'i=0'
p3335
sI119
S'while i<len(res):'
p3336
sI120
S'    if patternemail.search(res[i])==False:'
p3337
sI121
S'        db.contactos.insert(nombre=res[i],email=res[i+1])'
p3338
sI122
S'        i=i+2'
p3339
sI123
S'    elif patternemail.search(res[i]):'
p3340
sI124
S'        db.contactos.insert(email=res[i])'
p3341
sI125
S'        i=i+1'
p3342
sI126
S"    else: response.write('Aqu\xc3\xad hay un problema')"
p3343
sI127
S'    pass'
p3344
ssg3317
S'()'
p3345
sg3319
S'<module>'
p3346
sa(dp3347
g3310
S'C:\\Users\\Atomico\\web2py\\gluon\\globals.py'
p3348
sg3312
(dp3349
sg3314
I154
sg3315
(dp3350
sg3317
S"(self=<Storage {'body': <cStringIO.StringO object at 0...x08799CF0>, 'view': 'default/entrada_mod3.html'}>, data='Aqu\\xc3\\xad hay un problema', escape=True)"
p3351
sg3319
S'write'
p3352
sasS'pyver'
p3353
S'Python 2.5.4: C:\\Users\\Atomico\\web2py\\web2py.exe'
p3354
sS'session'
p3355
g48
(g49
g50
NtRp3356
(dp3357
g53
(dp3358
sg55
(lp3359
g48
(g57
g50
NtRp3360
(dp3361
g53
(dp3362
g61
I5
ssg62
Nsg55
(lp3363
g48
(g64
g50
NtRp3364
(dp3365
g53
(dp3366
sg62
g3360
sg55
(lp3367
g48
(g69
g50
NtRp3368
(dp3369
g53
(dp3370
g73
g74
ssg62
g3364
sg55
(lp3371
S'last_query'
p3372
asbag48
(g69
g50
NtRp3373
(dp3374
g53
(dp3375
g80
g81
ssg62
g3364
sg55
(lp3376
S':'
asbag48
(g69
g50
NtRp3377
(dp3378
g53
(dp3379
sg62
g3364
sg55
(lp3380
g48
(g49
g50
NtRp3381
(dp3382
g53
(dp3383
g61
I5
ssg62
g3377
sg55
(lp3384
S'db.contactos.id>0'
p3385
asbasbasbasbasbsS'etype'
p3386
S"<type 'exceptions.MemoryError'>"
p3387
sS'date'
p3388
S'Tue Sep 20 08:57:59 2011'
p3389
sS'response'
p3390
g48
(g49
g50
NtRp3391
(dp3392
g53
(dp3393
sg55
(lp3394
g48
(g57
g50
NtRp3395
(dp3396
g53
(dp3397
g61
I5
ssg62
Nsg55
(lp3398
g48
(g64
g50
NtRp3399
(dp3400
g53
(dp3401
sg62
g3395
sg55
(lp3402
g48
(g69
g50
NtRp3403
(dp3404
g53
(dp3405
g73
g74
ssg62
g3399
sg55
(lp3406
g146
asbag48
(g69
g50
NtRp3407
(dp3408
g53
(dp3409
g80
g81
ssg62
g3399
sg55
(lp3410
S':'
asbag48
(g69
g50
NtRp3411
(dp3412
g53
(dp3413
sg62
g3399
sg55
(lp3414
g48
(g49
g50
NtRp3415
(dp3416
g53
(dp3417
g61
I5
ssg62
g3411
sg55
(lp3418
S'<cStringIO.StringO object at 0x091286C0>'
p3419
asbasbasbag48
(g64
g50
NtRp3420
(dp3421
g53
(dp3422
sg62
g3395
sg55
(lp3423
g48
(g69
g50
NtRp3424
(dp3425
g53
(dp3426
g73
g74
ssg62
g3420
sg55
(lp3427
g212
asbag48
(g69
g50
NtRp3428
(dp3429
g53
(dp3430
g80
g81
ssg62
g3420
sg55
(lp3431
S':'
asbag48
(g69
g50
NtRp3432
(dp3433
g53
(dp3434
sg62
g3420
sg55
(lp3435
g48
(g49
g50
NtRp3436
(dp3437
g53
(dp3438
g61
I5
ssg62
g3432
sg55
(lp3439
g48
(g57
g50
NtRp3440
(dp3441
g53
(dp3442
g61
I4
ssg62
Nsg55
(lp3443
g48
(g64
g50
NtRp3444
(dp3445
g53
(dp3446
sg62
g3440
sg55
(lp3447
g48
(g69
g50
NtRp3448
(dp3449
g53
(dp3450
g73
g74
ssg62
g3444
sg55
(lp3451
S'session_id_desglosar_emails'
p3452
asbag48
(g69
g50
NtRp3453
(dp3454
g53
(dp3455
g80
g81
ssg62
g3444
sg55
(lp3456
S':'
asbag48
(g69
g50
NtRp3457
(dp3458
g53
(dp3459
sg62
g3444
sg55
(lp3460
g48
(g49
g50
NtRp3461
(dp3462
g53
(dp3463
g61
I4
ssg62
g3457
sg55
(lp3464
g48
(g57
g50
NtRp3465
(dp3466
g53
(dp3467
g61
I3
ssg62
Nsg55
(lp3468
g48
(g64
g50
NtRp3469
(dp3470
g53
(dp3471
sg62
g3465
sg55
(lp3472
g48
(g69
g50
NtRp3473
(dp3474
g53
(dp3475
g73
g74
ssg62
g3469
sg55
(lp3476
g262
asbag48
(g69
g50
NtRp3477
(dp3478
g53
(dp3479
g80
g81
ssg62
g3469
sg55
(lp3480
S':'
asbag48
(g69
g50
NtRp3481
(dp3482
g53
(dp3483
sg62
g3469
sg55
(lp3484
g48
(g49
g50
NtRp3485
(dp3486
g53
(dp3487
g61
I3
ssg62
g3481
sg55
(lp3488
S''
asbasbasbag48
(g64
g50
NtRp3489
(dp3490
g53
(dp3491
sg62
g3465
sg55
(lp3492
g48
(g69
g50
NtRp3493
(dp3494
g53
(dp3495
g73
g74
ssg62
g3489
sg55
(lp3496
g283
asbag48
(g69
g50
NtRp3497
(dp3498
g53
(dp3499
g80
g81
ssg62
g3489
sg55
(lp3500
S':'
asbag48
(g69
g50
NtRp3501
(dp3502
g53
(dp3503
sg62
g3489
sg55
(lp3504
g48
(g49
g50
NtRp3505
(dp3506
g53
(dp3507
g61
I3
ssg62
g3501
sg55
(lp3508
S''
asbasbasbag48
(g64
g50
NtRp3509
(dp3510
g53
(dp3511
sg62
g3465
sg55
(lp3512
g48
(g69
g50
NtRp3513
(dp3514
g53
(dp3515
g73
g74
ssg62
g3509
sg55
(lp3516
g304
asbag48
(g69
g50
NtRp3517
(dp3518
g53
(dp3519
g80
g81
ssg62
g3509
sg55
(lp3520
S':'
asbag48
(g69
g50
NtRp3521
(dp3522
g53
(dp3523
sg62
g3509
sg55
(lp3524
g48
(g49
g50
NtRp3525
(dp3526
g53
(dp3527
g61
I3
ssg62
g3521
sg55
(lp3528
S''
asbasbasbag48
(g64
g50
NtRp3529
(dp3530
g53
(dp3531
sg62
g3465
sg55
(lp3532
g48
(g69
g50
NtRp3533
(dp3534
g53
(dp3535
g73
g74
ssg62
g3529
sg55
(lp3536
g325
asbag48
(g69
g50
NtRp3537
(dp3538
g53
(dp3539
g80
g81
ssg62
g3529
sg55
(lp3540
S':'
asbag48
(g69
g50
NtRp3541
(dp3542
g53
(dp3543
sg62
g3529
sg55
(lp3544
g48
(g49
g50
NtRp3545
(dp3546
g53
(dp3547
g61
I3
ssg62
g3541
sg55
(lp3548
S''
asbasbasbag48
(g64
g50
NtRp3549
(dp3550
g53
(dp3551
sg62
g3465
sg55
(lp3552
g48
(g69
g50
NtRp3553
(dp3554
g53
(dp3555
g73
g74
ssg62
g3549
sg55
(lp3556
g346
asbag48
(g69
g50
NtRp3557
(dp3558
g53
(dp3559
g80
g81
ssg62
g3549
sg55
(lp3560
S':'
asbag48
(g69
g50
NtRp3561
(dp3562
g53
(dp3563
sg62
g3549
sg55
(lp3564
g48
(g49
g50
NtRp3565
(dp3566
g53
(dp3567
g61
I3
ssg62
g3561
sg55
(lp3568
S'/'
asbasbasbag48
(g64
g50
NtRp3569
(dp3570
g53
(dp3571
sg62
g3465
sg55
(lp3572
g48
(g69
g50
NtRp3573
(dp3574
g53
(dp3575
g73
g74
ssg62
g3569
sg55
(lp3576
g367
asbag48
(g69
g50
NtRp3577
(dp3578
g53
(dp3579
g80
g81
ssg62
g3569
sg55
(lp3580
S':'
asbag48
(g69
g50
NtRp3581
(dp3582
g53
(dp3583
sg62
g3569
sg55
(lp3584
g48
(g49
g50
NtRp3585
(dp3586
g53
(dp3587
g61
I3
ssg62
g3581
sg55
(lp3588
S''
asbasbasbag48
(g64
g50
NtRp3589
(dp3590
g53
(dp3591
sg62
g3465
sg55
(lp3592
g48
(g69
g50
NtRp3593
(dp3594
g53
(dp3595
g73
g74
ssg62
g3589
sg55
(lp3596
g388
asbag48
(g69
g50
NtRp3597
(dp3598
g53
(dp3599
g80
g81
ssg62
g3589
sg55
(lp3600
S':'
asbag48
(g69
g50
NtRp3601
(dp3602
g53
(dp3603
sg62
g3589
sg55
(lp3604
g48
(g49
g50
NtRp3605
(dp3606
g53
(dp3607
g61
I3
ssg62
g3601
sg55
(lp3608
S''
asbasbasbasbasbasbasbasbasbasbasbag48
(g64
g50
NtRp3609
(dp3610
g53
(dp3611
sg62
g3395
sg55
(lp3612
g48
(g69
g50
NtRp3613
(dp3614
g53
(dp3615
g73
g74
ssg62
g3609
sg55
(lp3616
S'files'
p3617
asbag48
(g69
g50
NtRp3618
(dp3619
g53
(dp3620
g80
g81
ssg62
g3609
sg55
(lp3621
S':'
asbag48
(g69
g50
NtRp3622
(dp3623
g53
(dp3624
sg62
g3609
sg55
(lp3625
g48
(g49
g50
NtRp3626
(dp3627
g53
(dp3628
g61
I5
ssg62
g3622
sg55
(lp3629
g48
(g57
g50
NtRp3630
(dp3631
g53
(dp3632
g61
I4
ssg62
Nsg55
(lp3633
g48
(g64
g50
NtRp3634
(dp3635
g53
(dp3636
sg62
g3630
sg55
(lp3637
g48
(g69
g50
NtRp3638
(dp3639
g53
(dp3640
sg62
g3634
sg55
(lp3641
g48
(g49
g50
NtRp3642
(dp3643
g53
(dp3644
g61
I4
ssg62
g3638
sg55
(lp3645
S'/Desglosar_Emails/static/js/jquery.js'
p3646
asbasbasbag48
(g64
g50
NtRp3647
(dp3648
g53
(dp3649
sg62
g3630
sg55
(lp3650
g48
(g69
g50
NtRp3651
(dp3652
g53
(dp3653
sg62
g3647
sg55
(lp3654
g48
(g49
g50
NtRp3655
(dp3656
g53
(dp3657
g61
I4
ssg62
g3651
sg55
(lp3658
S'/Desglosar_Emails/static/css/calendar.css'
p3659
asbasbasbag48
(g64
g50
NtRp3660
(dp3661
g53
(dp3662
sg62
g3630
sg55
(lp3663
g48
(g69
g50
NtRp3664
(dp3665
g53
(dp3666
sg62
g3660
sg55
(lp3667
g48
(g49
g50
NtRp3668
(dp3669
g53
(dp3670
g61
I4
ssg62
g3664
sg55
(lp3671
S'/Desglosar_Emails/static/js/calendar.js'
p3672
asbasbasbag48
(g64
g50
NtRp3673
(dp3674
g53
(dp3675
sg62
g3630
sg55
(lp3676
g48
(g69
g50
NtRp3677
(dp3678
g53
(dp3679
sg62
g3673
sg55
(lp3680
g48
(g49
g50
NtRp3681
(dp3682
g53
(dp3683
g61
I4
ssg62
g3677
sg55
(lp3684
S'/Desglosar_Emails/static/css/base.css'
p3685
asbasbasbag48
(g64
g50
NtRp3686
(dp3687
g53
(dp3688
sg62
g3630
sg55
(lp3689
g48
(g69
g50
NtRp3690
(dp3691
g53
(dp3692
sg62
g3686
sg55
(lp3693
g48
(g49
g50
NtRp3694
(dp3695
g53
(dp3696
g61
I4
ssg62
g3690
sg55
(lp3697
S'/Desglosar_Emails/static/css/superfish.css'
p3698
asbasbasbag48
(g64
g50
NtRp3699
(dp3700
g53
(dp3701
sg62
g3630
sg55
(lp3702
g48
(g69
g50
NtRp3703
(dp3704
g53
(dp3705
sg62
g3699
sg55
(lp3706
g48
(g49
g50
NtRp3707
(dp3708
g53
(dp3709
g61
I4
ssg62
g3703
sg55
(lp3710
S'/Desglosar_Emails/static/js/superfish.js'
p3711
asbasbasbasbasbasbasbag48
(g64
g50
NtRp3712
(dp3713
g53
(dp3714
sg62
g3395
sg55
(lp3715
g48
(g69
g50
NtRp3716
(dp3717
g53
(dp3718
g73
g74
ssg62
g3712
sg55
(lp3719
S'flash'
p3720
asbag48
(g69
g50
NtRp3721
(dp3722
g53
(dp3723
g80
g81
ssg62
g3712
sg55
(lp3724
S':'
asbag48
(g69
g50
NtRp3725
(dp3726
g53
(dp3727
sg62
g3712
sg55
(lp3728
g48
(g49
g50
NtRp3729
(dp3730
g53
(dp3731
g61
I5
ssg62
g3725
sg55
(lp3732
S''
asbasbasbag48
(g64
g50
NtRp3733
(dp3734
g53
(dp3735
sg62
g3395
sg55
(lp3736
g48
(g69
g50
NtRp3737
(dp3738
g53
(dp3739
g73
g74
ssg62
g3733
sg55
(lp3740
S'generic_patterns'
p3741
asbag48
(g69
g50
NtRp3742
(dp3743
g53
(dp3744
g80
g81
ssg62
g3733
sg55
(lp3745
S':'
asbag48
(g69
g50
NtRp3746
(dp3747
g53
(dp3748
sg62
g3733
sg55
(lp3749
g48
(g49
g50
NtRp3750
(dp3751
g53
(dp3752
g61
I5
ssg62
g3746
sg55
(lp3753
g48
(g57
g50
NtRp3754
(dp3755
g53
(dp3756
g61
I4
ssg62
Nsg55
(lp3757
sbasbasbasbag48
(g64
g50
NtRp3758
(dp3759
g53
(dp3760
sg62
g3395
sg55
(lp3761
g48
(g69
g50
NtRp3762
(dp3763
g53
(dp3764
g73
g74
ssg62
g3758
sg55
(lp3765
S'headers'
p3766
asbag48
(g69
g50
NtRp3767
(dp3768
g53
(dp3769
g80
g81
ssg62
g3758
sg55
(lp3770
S':'
asbag48
(g69
g50
NtRp3771
(dp3772
g53
(dp3773
sg62
g3758
sg55
(lp3774
g48
(g49
g50
NtRp3775
(dp3776
g53
(dp3777
g61
I5
ssg62
g3771
sg55
(lp3778
g48
(g57
g50
NtRp3779
(dp3780
g53
(dp3781
g61
I4
ssg62
Nsg55
(lp3782
g48
(g64
g50
NtRp3783
(dp3784
g53
(dp3785
sg62
g3779
sg55
(lp3786
g48
(g69
g50
NtRp3787
(dp3788
g53
(dp3789
g73
g74
ssg62
g3783
sg55
(lp3790
S'Cache-Control'
p3791
asbag48
(g69
g50
NtRp3792
(dp3793
g53
(dp3794
g80
g81
ssg62
g3783
sg55
(lp3795
S':'
asbag48
(g69
g50
NtRp3796
(dp3797
g53
(dp3798
sg62
g3783
sg55
(lp3799
g48
(g49
g50
NtRp3800
(dp3801
g53
(dp3802
g61
I4
ssg62
g3796
sg55
(lp3803
S'no-store, no-cache, must-revalidate, post-check=0, pre-check=0'
p3804
asbasbasbag48
(g64
g50
NtRp3805
(dp3806
g53
(dp3807
sg62
g3779
sg55
(lp3808
g48
(g69
g50
NtRp3809
(dp3810
g53
(dp3811
g73
g74
ssg62
g3805
sg55
(lp3812
S'Content-Type'
p3813
asbag48
(g69
g50
NtRp3814
(dp3815
g53
(dp3816
g80
g81
ssg62
g3805
sg55
(lp3817
S':'
asbag48
(g69
g50
NtRp3818
(dp3819
g53
(dp3820
sg62
g3805
sg55
(lp3821
g48
(g49
g50
NtRp3822
(dp3823
g53
(dp3824
g61
I4
ssg62
g3818
sg55
(lp3825
S'text/html; charset=utf-8'
p3826
asbasbasbag48
(g64
g50
NtRp3827
(dp3828
g53
(dp3829
sg62
g3779
sg55
(lp3830
g48
(g69
g50
NtRp3831
(dp3832
g53
(dp3833
g73
g74
ssg62
g3827
sg55
(lp3834
S'Expires'
p3835
asbag48
(g69
g50
NtRp3836
(dp3837
g53
(dp3838
g80
g81
ssg62
g3827
sg55
(lp3839
S':'
asbag48
(g69
g50
NtRp3840
(dp3841
g53
(dp3842
sg62
g3827
sg55
(lp3843
g48
(g49
g50
NtRp3844
(dp3845
g53
(dp3846
g61
I4
ssg62
g3840
sg55
(lp3847
S'Tue, 20 Sep 2011 06:52:43 GMT'
p3848
asbasbasbag48
(g64
g50
NtRp3849
(dp3850
g53
(dp3851
sg62
g3779
sg55
(lp3852
g48
(g69
g50
NtRp3853
(dp3854
g53
(dp3855
g73
g74
ssg62
g3849
sg55
(lp3856
S'Pragma'
p3857
asbag48
(g69
g50
NtRp3858
(dp3859
g53
(dp3860
g80
g81
ssg62
g3849
sg55
(lp3861
S':'
asbag48
(g69
g50
NtRp3862
(dp3863
g53
(dp3864
sg62
g3849
sg55
(lp3865
g48
(g49
g50
NtRp3866
(dp3867
g53
(dp3868
g61
I4
ssg62
g3862
sg55
(lp3869
S'no-cache'
p3870
asbasbasbag48
(g64
g50
NtRp3871
(dp3872
g53
(dp3873
sg62
g3779
sg55
(lp3874
g48
(g69
g50
NtRp3875
(dp3876
g53
(dp3877
g73
g74
ssg62
g3871
sg55
(lp3878
S'X-Powered-By'
p3879
asbag48
(g69
g50
NtRp3880
(dp3881
g53
(dp3882
g80
g81
ssg62
g3871
sg55
(lp3883
S':'
asbag48
(g69
g50
NtRp3884
(dp3885
g53
(dp3886
sg62
g3871
sg55
(lp3887
g48
(g49
g50
NtRp3888
(dp3889
g53
(dp3890
g61
I4
ssg62
g3884
sg55
(lp3891
S'web2py'
p3892
asbasbasbasbasbasbasbag48
(g64
g50
NtRp3893
(dp3894
g53
(dp3895
sg62
g3395
sg55
(lp3896
g48
(g69
g50
NtRp3897
(dp3898
g53
(dp3899
g73
g74
ssg62
g3893
sg55
(lp3900
S'menu'
p3901
asbag48
(g69
g50
NtRp3902
(dp3903
g53
(dp3904
g80
g81
ssg62
g3893
sg55
(lp3905
S':'
asbag48
(g69
g50
NtRp3906
(dp3907
g53
(dp3908
sg62
g3893
sg55
(lp3909
g48
(g49
g50
NtRp3910
(dp3911
g53
(dp3912
g61
I5
ssg62
g3906
sg55
(lp3913
g48
(g57
g50
NtRp3914
(dp3915
g53
(dp3916
g61
I4
ssg62
Nsg55
(lp3917
g48
(g64
g50
NtRp3918
(dp3919
g53
(dp3920
sg62
g3914
sg55
(lp3921
g48
(g69
g50
NtRp3922
(dp3923
g53
(dp3924
sg62
g3918
sg55
(lp3925
g48
(g49
g50
NtRp3926
(dp3927
g53
(dp3928
g61
I4
ssg62
g3922
sg55
(lp3929
g48
(g57
g50
NtRp3930
(dp3931
g53
(dp3932
g61
I3
ssg62
Nsg55
(lp3933
g48
(g64
g50
NtRp3934
(dp3935
g53
(dp3936
sg62
g3930
sg55
(lp3937
g48
(g69
g50
NtRp3938
(dp3939
g53
(dp3940
sg62
g3934
sg55
(lp3941
g48
(g49
g50
NtRp3942
(dp3943
g53
(dp3944
g61
I3
ssg62
g3938
sg55
(lp3945
cgluon.languages
lazyT_unpickle
p3946
(S't\x04\x00\x00\x00Home'
tRp3947
asbasbasbag48
(g64
g50
NtRp3948
(dp3949
g53
(dp3950
sg62
g3930
sg55
(lp3951
g48
(g69
g50
NtRp3952
(dp3953
g53
(dp3954
sg62
g3948
sg55
(lp3955
g48
(g49
g50
NtRp3956
(dp3957
g53
(dp3958
g61
I3
ssg62
g3952
sg55
(lp3959
g91
asbasbasbag48
(g64
g50
NtRp3960
(dp3961
g53
(dp3962
sg62
g3930
sg55
(lp3963
g48
(g69
g50
NtRp3964
(dp3965
g53
(dp3966
sg62
g3960
sg55
(lp3967
g48
(g49
g50
NtRp3968
(dp3969
g53
(dp3970
g61
I3
ssg62
g3964
sg55
(lp3971
S'/Desglosar_Emails/default/index'
p3972
asbasbasbag48
(g64
g50
NtRp3973
(dp3974
g53
(dp3975
sg62
g3930
sg55
(lp3976
g48
(g69
g50
NtRp3977
(dp3978
g53
(dp3979
sg62
g3973
sg55
(lp3980
g48
(g49
g50
NtRp3981
(dp3982
g53
(dp3983
g61
I3
ssg62
g3977
sg55
(lp3984
g48
(g57
g50
NtRp3985
(dp3986
g53
(dp3987
g61
I2
ssg62
Nsg55
(lp3988
sbasbasbasbasbasbasbasbag48
(g64
g50
NtRp3989
(dp3990
g53
(dp3991
sg62
g3914
sg55
(lp3992
g48
(g69
g50
NtRp3993
(dp3994
g53
(dp3995
sg62
g3989
sg55
(lp3996
g48
(g49
g50
NtRp3997
(dp3998
g53
(dp3999
g61
I4
ssg62
g3993
sg55
(lp4000
g48
(g57
g50
NtRp4001
(dp4002
g53
(dp4003
g61
I3
ssg62
Nsg55
(lp4004
g48
(g64
g50
NtRp4005
(dp4006
g53
(dp4007
sg62
g4001
sg55
(lp4008
g48
(g69
g50
NtRp4009
(dp4010
g53
(dp4011
sg62
g4005
sg55
(lp4012
g48
(g49
g50
NtRp4013
(dp4014
g53
(dp4015
g61
I3
ssg62
g4009
sg55
(lp4016
g3946
(S's\x08\x00\x00\x00This App'
tRp4017
asbasbasbag48
(g64
g50
NtRp4018
(dp4019
g53
(dp4020
sg62
g4001
sg55
(lp4021
g48
(g69
g50
NtRp4022
(dp4023
g53
(dp4024
sg62
g4018
sg55
(lp4025
g48
(g49
g50
NtRp4026
(dp4027
g53
(dp4028
g61
I3
ssg62
g4022
sg55
(lp4029
g91
asbasbasbag48
(g64
g50
NtRp4030
(dp4031
g53
(dp4032
sg62
g4001
sg55
(lp4033
g48
(g69
g50
NtRp4034
(dp4035
g53
(dp4036
sg62
g4030
sg55
(lp4037
g48
(g49
g50
NtRp4038
(dp4039
g53
(dp4040
g61
I3
ssg62
g4034
sg55
(lp4041
S'/admin/default/design/Desglosar_Emails'
p4042
asbasbasbag48
(g64
g50
NtRp4043
(dp4044
g53
(dp4045
sg62
g4001
sg55
(lp4046
g48
(g69
g50
NtRp4047
(dp4048
g53
(dp4049
sg62
g4043
sg55
(lp4050
g48
(g49
g50
NtRp4051
(dp4052
g53
(dp4053
g61
I3
ssg62
g4047
sg55
(lp4054
g48
(g57
g50
NtRp4055
(dp4056
g53
(dp4057
g61
I2
ssg62
Nsg55
(lp4058
g48
(g64
g50
NtRp4059
(dp4060
g53
(dp4061
sg62
g4055
sg55
(lp4062
g48
(g69
g50
NtRp4063
(dp4064
g53
(dp4065
sg62
g4059
sg55
(lp4066
g48
(g49
g50
NtRp4067
(dp4068
g53
(dp4069
g61
I2
ssg62
g4063
sg55
(lp4070
g48
(g57
g50
NtRp4071
(dp4072
g53
(dp4073
g61
I1
ssg62
Nsg55
(lp4074
g48
(g64
g50
NtRp4075
(dp4076
g53
(dp4077
sg62
g4071
sg55
(lp4078
g48
(g69
g50
NtRp4079
(dp4080
g53
(dp4081
sg62
g4075
sg55
(lp4082
g48
(g49
g50
NtRp4083
(dp4084
g53
(dp4085
g61
I1
ssg62
g4079
sg55
(lp4086
g3946
(S't\x0b\x00\x00\x00Controlador'
tRp4087
asbasbasbag48
(g64
g50
NtRp4088
(dp4089
g53
(dp4090
sg62
g4071
sg55
(lp4091
g48
(g69
g50
NtRp4092
(dp4093
g53
(dp4094
sg62
g4088
sg55
(lp4095
g48
(g49
g50
NtRp4096
(dp4097
g53
(dp4098
g61
I1
ssg62
g4092
sg55
(lp4099
I00
asbasbasbag48
(g64
g50
NtRp4100
(dp4101
g53
(dp4102
sg62
g4071
sg55
(lp4103
g48
(g69
g50
NtRp4104
(dp4105
g53
(dp4106
sg62
g4100
sg55
(lp4107
g48
(g49
g50
NtRp4108
(dp4109
g53
(dp4110
g61
I1
ssg62
g4104
sg55
(lp4111
S'/admin/default/edit/Desglosar_Emails/controllers/default.py'
p4112
asbasbasbasbasbasbasbag48
(g64
g50
NtRp4113
(dp4114
g53
(dp4115
sg62
g4055
sg55
(lp4116
g48
(g69
g50
NtRp4117
(dp4118
g53
(dp4119
sg62
g4113
sg55
(lp4120
g48
(g49
g50
NtRp4121
(dp4122
g53
(dp4123
g61
I2
ssg62
g4117
sg55
(lp4124
g48
(g57
g50
NtRp4125
(dp4126
g53
(dp4127
g61
I1
ssg62
Nsg55
(lp4128
g48
(g64
g50
NtRp4129
(dp4130
g53
(dp4131
sg62
g4125
sg55
(lp4132
g48
(g69
g50
NtRp4133
(dp4134
g53
(dp4135
sg62
g4129
sg55
(lp4136
g48
(g49
g50
NtRp4137
(dp4138
g53
(dp4139
g61
I1
ssg62
g4133
sg55
(lp4140
g3946
(S't\x05\x00\x00\x00Vista'
tRp4141
asbasbasbag48
(g64
g50
NtRp4142
(dp4143
g53
(dp4144
sg62
g4125
sg55
(lp4145
g48
(g69
g50
NtRp4146
(dp4147
g53
(dp4148
sg62
g4142
sg55
(lp4149
g48
(g49
g50
NtRp4150
(dp4151
g53
(dp4152
g61
I1
ssg62
g4146
sg55
(lp4153
I00
asbasbasbag48
(g64
g50
NtRp4154
(dp4155
g53
(dp4156
sg62
g4125
sg55
(lp4157
g48
(g69
g50
NtRp4158
(dp4159
g53
(dp4160
sg62
g4154
sg55
(lp4161
g48
(g49
g50
NtRp4162
(dp4163
g53
(dp4164
g61
I1
ssg62
g4158
sg55
(lp4165
S'/admin/default/edit/Desglosar_Emails/views/default/entrada_mod3.html'
p4166
asbasbasbasbasbasbasbag48
(g64
g50
NtRp4167
(dp4168
g53
(dp4169
sg62
g4055
sg55
(lp4170
g48
(g69
g50
NtRp4171
(dp4172
g53
(dp4173
sg62
g4167
sg55
(lp4174
g48
(g49
g50
NtRp4175
(dp4176
g53
(dp4177
g61
I2
ssg62
g4171
sg55
(lp4178
g48
(g57
g50
NtRp4179
(dp4180
g53
(dp4181
g61
I1
ssg62
Nsg55
(lp4182
g48
(g64
g50
NtRp4183
(dp4184
g53
(dp4185
sg62
g4179
sg55
(lp4186
g48
(g69
g50
NtRp4187
(dp4188
g53
(dp4189
sg62
g4183
sg55
(lp4190
g48
(g49
g50
NtRp4191
(dp4192
g53
(dp4193
g61
I1
ssg62
g4187
sg55
(lp4194
g3946
(S's\x12\x00\x00\x00Dise\xc3\xb1o de p\xc3\xa1gina'
tRp4195
asbasbasbag48
(g64
g50
NtRp4196
(dp4197
g53
(dp4198
sg62
g4179
sg55
(lp4199
g48
(g69
g50
NtRp4200
(dp4201
g53
(dp4202
sg62
g4196
sg55
(lp4203
g48
(g49
g50
NtRp4204
(dp4205
g53
(dp4206
g61
I1
ssg62
g4200
sg55
(lp4207
I00
asbasbasbag48
(g64
g50
NtRp4208
(dp4209
g53
(dp4210
sg62
g4179
sg55
(lp4211
g48
(g69
g50
NtRp4212
(dp4213
g53
(dp4214
sg62
g4208
sg55
(lp4215
g48
(g49
g50
NtRp4216
(dp4217
g53
(dp4218
g61
I1
ssg62
g4212
sg55
(lp4219
S'/admin/default/edit/Desglosar_Emails/views/layout.html'
p4220
asbasbasbasbasbasbasbag48
(g64
g50
NtRp4221
(dp4222
g53
(dp4223
sg62
g4055
sg55
(lp4224
g48
(g69
g50
NtRp4225
(dp4226
g53
(dp4227
sg62
g4221
sg55
(lp4228
g48
(g49
g50
NtRp4229
(dp4230
g53
(dp4231
g61
I2
ssg62
g4225
sg55
(lp4232
g48
(g57
g50
NtRp4233
(dp4234
g53
(dp4235
g61
I1
ssg62
Nsg55
(lp4236
g48
(g64
g50
NtRp4237
(dp4238
g53
(dp4239
sg62
g4233
sg55
(lp4240
g48
(g69
g50
NtRp4241
(dp4242
g53
(dp4243
sg62
g4237
sg55
(lp4244
g48
(g49
g50
NtRp4245
(dp4246
g53
(dp4247
g61
I1
ssg62
g4241
sg55
(lp4248
g3946
(S's\x0e\x00\x00\x00Hoja de estilo'
tRp4249
asbasbasbag48
(g64
g50
NtRp4250
(dp4251
g53
(dp4252
sg62
g4233
sg55
(lp4253
g48
(g69
g50
NtRp4254
(dp4255
g53
(dp4256
sg62
g4250
sg55
(lp4257
g48
(g49
g50
NtRp4258
(dp4259
g53
(dp4260
g61
I1
ssg62
g4254
sg55
(lp4261
I00
asbasbasbag48
(g64
g50
NtRp4262
(dp4263
g53
(dp4264
sg62
g4233
sg55
(lp4265
g48
(g69
g50
NtRp4266
(dp4267
g53
(dp4268
sg62
g4262
sg55
(lp4269
g48
(g49
g50
NtRp4270
(dp4271
g53
(dp4272
g61
I1
ssg62
g4266
sg55
(lp4273
S'/admin/default/edit/Desglosar_Emails/static/base.css'
p4274
asbasbasbasbasbasbasbag48
(g64
g50
NtRp4275
(dp4276
g53
(dp4277
sg62
g4055
sg55
(lp4278
g48
(g69
g50
NtRp4279
(dp4280
g53
(dp4281
sg62
g4275
sg55
(lp4282
g48
(g49
g50
NtRp4283
(dp4284
g53
(dp4285
g61
I2
ssg62
g4279
sg55
(lp4286
g48
(g57
g50
NtRp4287
(dp4288
g53
(dp4289
g61
I1
ssg62
Nsg55
(lp4290
g48
(g64
g50
NtRp4291
(dp4292
g53
(dp4293
sg62
g4287
sg55
(lp4294
g48
(g69
g50
NtRp4295
(dp4296
g53
(dp4297
sg62
g4291
sg55
(lp4298
g48
(g49
g50
NtRp4299
(dp4300
g53
(dp4301
g61
I1
ssg62
g4295
sg55
(lp4302
g3946
(S's\x0b\x00\x00\x00Modelo "db"'
tRp4303
asbasbasbag48
(g64
g50
NtRp4304
(dp4305
g53
(dp4306
sg62
g4287
sg55
(lp4307
g48
(g69
g50
NtRp4308
(dp4309
g53
(dp4310
sg62
g4304
sg55
(lp4311
g48
(g49
g50
NtRp4312
(dp4313
g53
(dp4314
g61
I1
ssg62
g4308
sg55
(lp4315
I00
asbasbasbag48
(g64
g50
NtRp4316
(dp4317
g53
(dp4318
sg62
g4287
sg55
(lp4319
g48
(g69
g50
NtRp4320
(dp4321
g53
(dp4322
sg62
g4316
sg55
(lp4323
g48
(g49
g50
NtRp4324
(dp4325
g53
(dp4326
g61
I1
ssg62
g4320
sg55
(lp4327
S'/admin/default/edit/Desglosar_Emails/models/db.py'
p4328
asbasbasbasbasbasbasbag48
(g64
g50
NtRp4329
(dp4330
g53
(dp4331
sg62
g4055
sg55
(lp4332
g48
(g69
g50
NtRp4333
(dp4334
g53
(dp4335
sg62
g4329
sg55
(lp4336
g48
(g49
g50
NtRp4337
(dp4338
g53
(dp4339
g61
I2
ssg62
g4333
sg55
(lp4340
g48
(g57
g50
NtRp4341
(dp4342
g53
(dp4343
g61
I1
ssg62
Nsg55
(lp4344
g48
(g64
g50
NtRp4345
(dp4346
g53
(dp4347
sg62
g4341
sg55
(lp4348
g48
(g69
g50
NtRp4349
(dp4350
g53
(dp4351
sg62
g4345
sg55
(lp4352
g48
(g49
g50
NtRp4353
(dp4354
g53
(dp4355
g61
I1
ssg62
g4349
sg55
(lp4356
g3946
(S's\r\x00\x00\x00Modelo "menu"'
tRp4357
asbasbasbag48
(g64
g50
NtRp4358
(dp4359
g53
(dp4360
sg62
g4341
sg55
(lp4361
g48
(g69
g50
NtRp4362
(dp4363
g53
(dp4364
sg62
g4358
sg55
(lp4365
g48
(g49
g50
NtRp4366
(dp4367
g53
(dp4368
g61
I1
ssg62
g4362
sg55
(lp4369
I00
asbasbasbag48
(g64
g50
NtRp4370
(dp4371
g53
(dp4372
sg62
g4341
sg55
(lp4373
g48
(g69
g50
NtRp4374
(dp4375
g53
(dp4376
sg62
g4370
sg55
(lp4377
g48
(g49
g50
NtRp4378
(dp4379
g53
(dp4380
g61
I1
ssg62
g4374
sg55
(lp4381
S'/admin/default/edit/Desglosar_Emails/models/menu.py'
p4382
asbasbasbasbasbasbasbag48
(g64
g50
NtRp4383
(dp4384
g53
(dp4385
sg62
g4055
sg55
(lp4386
g48
(g69
g50
NtRp4387
(dp4388
g53
(dp4389
sg62
g4383
sg55
(lp4390
g48
(g49
g50
NtRp4391
(dp4392
g53
(dp4393
g61
I2
ssg62
g4387
sg55
(lp4394
g48
(g57
g50
NtRp4395
(dp4396
g53
(dp4397
g61
I1
ssg62
Nsg55
(lp4398
g48
(g64
g50
NtRp4399
(dp4400
g53
(dp4401
sg62
g4395
sg55
(lp4402
g48
(g69
g50
NtRp4403
(dp4404
g53
(dp4405
sg62
g4399
sg55
(lp4406
g48
(g49
g50
NtRp4407
(dp4408
g53
(dp4409
g61
I1
ssg62
g4403
sg55
(lp4410
g3946
(S's\r\x00\x00\x00Base de datos'
tRp4411
asbasbasbag48
(g64
g50
NtRp4412
(dp4413
g53
(dp4414
sg62
g4395
sg55
(lp4415
g48
(g69
g50
NtRp4416
(dp4417
g53
(dp4418
sg62
g4412
sg55
(lp4419
g48
(g49
g50
NtRp4420
(dp4421
g53
(dp4422
g61
I1
ssg62
g4416
sg55
(lp4423
I00
asbasbasbag48
(g64
g50
NtRp4424
(dp4425
g53
(dp4426
sg62
g4395
sg55
(lp4427
g48
(g69
g50
NtRp4428
(dp4429
g53
(dp4430
sg62
g4424
sg55
(lp4431
g48
(g49
g50
NtRp4432
(dp4433
g53
(dp4434
g61
I1
ssg62
g4428
sg55
(lp4435
S'/Desglosar_Emails/appadmin/index'
p4436
asbasbasbasbasbasbasbag48
(g64
g50
NtRp4437
(dp4438
g53
(dp4439
sg62
g4055
sg55
(lp4440
g48
(g69
g50
NtRp4441
(dp4442
g53
(dp4443
sg62
g4437
sg55
(lp4444
g48
(g49
g50
NtRp4445
(dp4446
g53
(dp4447
g61
I2
ssg62
g4441
sg55
(lp4448
g48
(g57
g50
NtRp4449
(dp4450
g53
(dp4451
g61
I1
ssg62
Nsg55
(lp4452
g48
(g64
g50
NtRp4453
(dp4454
g53
(dp4455
sg62
g4449
sg55
(lp4456
g48
(g69
g50
NtRp4457
(dp4458
g53
(dp4459
sg62
g4453
sg55
(lp4460
g48
(g49
g50
NtRp4461
(dp4462
g53
(dp4463
g61
I1
ssg62
g4457
sg55
(lp4464
g3946
(S't\x06\x00\x00\x00Errors'
tRp4465
asbasbasbag48
(g64
g50
NtRp4466
(dp4467
g53
(dp4468
sg62
g4449
sg55
(lp4469
g48
(g69
g50
NtRp4470
(dp4471
g53
(dp4472
sg62
g4466
sg55
(lp4473
g48
(g49
g50
NtRp4474
(dp4475
g53
(dp4476
g61
I1
ssg62
g4470
sg55
(lp4477
I00
asbasbasbag48
(g64
g50
NtRp4478
(dp4479
g53
(dp4480
sg62
g4449
sg55
(lp4481
g48
(g69
g50
NtRp4482
(dp4483
g53
(dp4484
sg62
g4478
sg55
(lp4485
g48
(g49
g50
NtRp4486
(dp4487
g53
(dp4488
g61
I1
ssg62
g4482
sg55
(lp4489
S'/admin/default/errors/Desglosar_Emails'
p4490
asbasbasbasbasbasbasbag48
(g64
g50
NtRp4491
(dp4492
g53
(dp4493
sg62
g4055
sg55
(lp4494
g48
(g69
g50
NtRp4495
(dp4496
g53
(dp4497
sg62
g4491
sg55
(lp4498
g48
(g49
g50
NtRp4499
(dp4500
g53
(dp4501
g61
I2
ssg62
g4495
sg55
(lp4502
g48
(g57
g50
NtRp4503
(dp4504
g53
(dp4505
g61
I1
ssg62
Nsg55
(lp4506
g48
(g64
g50
NtRp4507
(dp4508
g53
(dp4509
sg62
g4503
sg55
(lp4510
g48
(g69
g50
NtRp4511
(dp4512
g53
(dp4513
sg62
g4507
sg55
(lp4514
g48
(g49
g50
NtRp4515
(dp4516
g53
(dp4517
g61
I1
ssg62
g4511
sg55
(lp4518
g3946
(S's\t\x00\x00\x00Acerca de'
tRp4519
asbasbasbag48
(g64
g50
NtRp4520
(dp4521
g53
(dp4522
sg62
g4503
sg55
(lp4523
g48
(g69
g50
NtRp4524
(dp4525
g53
(dp4526
sg62
g4520
sg55
(lp4527
g48
(g49
g50
NtRp4528
(dp4529
g53
(dp4530
g61
I1
ssg62
g4524
sg55
(lp4531
I00
asbasbasbag48
(g64
g50
NtRp4532
(dp4533
g53
(dp4534
sg62
g4503
sg55
(lp4535
g48
(g69
g50
NtRp4536
(dp4537
g53
(dp4538
sg62
g4532
sg55
(lp4539
g48
(g49
g50
NtRp4540
(dp4541
g53
(dp4542
g61
I1
ssg62
g4536
sg55
(lp4543
S'/admin/default/about/Desglosar_Emails'
p4544
asbasbasbasbasbasbasbasbasbasbasbasbasbasbasbag48
(g64
g50
NtRp4545
(dp4546
g53
(dp4547
sg62
g3914
sg55
(lp4548
g48
(g69
g50
NtRp4549
(dp4550
g53
(dp4551
sg62
g4545
sg55
(lp4552
g48
(g49
g50
NtRp4553
(dp4554
g53
(dp4555
g61
I4
ssg62
g4549
sg55
(lp4556
g48
(g57
g50
NtRp4557
(dp4558
g53
(dp4559
g61
I3
ssg62
Nsg55
(lp4560
g48
(g64
g50
NtRp4561
(dp4562
g53
(dp4563
sg62
g4557
sg55
(lp4564
g48
(g69
g50
NtRp4565
(dp4566
g53
(dp4567
sg62
g4561
sg55
(lp4568
g48
(g49
g50
NtRp4569
(dp4570
g53
(dp4571
g61
I3
ssg62
g4565
sg55
(lp4572
g3946
(S't\t\x00\x00\x00Resources'
tRp4573
asbasbasbag48
(g64
g50
NtRp4574
(dp4575
g53
(dp4576
sg62
g4557
sg55
(lp4577
g48
(g69
g50
NtRp4578
(dp4579
g53
(dp4580
sg62
g4574
sg55
(lp4581
g48
(g49
g50
NtRp4582
(dp4583
g53
(dp4584
g61
I3
ssg62
g4578
sg55
(lp4585
g91
asbasbasbag48
(g64
g50
NtRp4586
(dp4587
g53
(dp4588
sg62
g4557
sg55
(lp4589
g48
(g69
g50
NtRp4590
(dp4591
g53
(dp4592
sg62
g4586
sg55
(lp4593
g48
(g49
g50
NtRp4594
(dp4595
g53
(dp4596
g61
I3
ssg62
g4590
sg55
(lp4597
S'None'
p4598
asbasbasbag48
(g64
g50
NtRp4599
(dp4600
g53
(dp4601
sg62
g4557
sg55
(lp4602
g48
(g69
g50
NtRp4603
(dp4604
g53
(dp4605
sg62
g4599
sg55
(lp4606
g48
(g49
g50
NtRp4607
(dp4608
g53
(dp4609
g61
I3
ssg62
g4603
sg55
(lp4610
g48
(g57
g50
NtRp4611
(dp4612
g53
(dp4613
g61
I2
ssg62
Nsg55
(lp4614
g48
(g64
g50
NtRp4615
(dp4616
g53
(dp4617
sg62
g4611
sg55
(lp4618
g48
(g69
g50
NtRp4619
(dp4620
g53
(dp4621
sg62
g4615
sg55
(lp4622
g48
(g49
g50
NtRp4623
(dp4624
g53
(dp4625
g61
I2
ssg62
g4619
sg55
(lp4626
g48
(g57
g50
NtRp4627
(dp4628
g53
(dp4629
g61
I1
ssg62
Nsg55
(lp4630
g48
(g64
g50
NtRp4631
(dp4632
g53
(dp4633
sg62
g4627
sg55
(lp4634
g48
(g69
g50
NtRp4635
(dp4636
g53
(dp4637
sg62
g4631
sg55
(lp4638
g48
(g49
g50
NtRp4639
(dp4640
g53
(dp4641
g61
I1
ssg62
g4635
sg55
(lp4642
g3946
(S's\x0e\x00\x00\x00Documentaci\xc3\xb3n'
tRp4643
asbasbasbag48
(g64
g50
NtRp4644
(dp4645
g53
(dp4646
sg62
g4627
sg55
(lp4647
g48
(g69
g50
NtRp4648
(dp4649
g53
(dp4650
sg62
g4644
sg55
(lp4651
g48
(g49
g50
NtRp4652
(dp4653
g53
(dp4654
g61
I1
ssg62
g4648
sg55
(lp4655
I00
asbasbasbag48
(g64
g50
NtRp4656
(dp4657
g53
(dp4658
sg62
g4627
sg55
(lp4659
g48
(g69
g50
NtRp4660
(dp4661
g53
(dp4662
sg62
g4656
sg55
(lp4663
g48
(g49
g50
NtRp4664
(dp4665
g53
(dp4666
g61
I1
ssg62
g4660
sg55
(lp4667
S'http://www.web2py.com/book'
p4668
asbasbasbag48
(g64
g50
NtRp4669
(dp4670
g53
(dp4671
sg62
g4627
sg55
(lp4672
g48
(g69
g50
NtRp4673
(dp4674
g53
(dp4675
sg62
g4669
sg55
(lp4676
g48
(g49
g50
NtRp4677
(dp4678
g53
(dp4679
g61
I1
ssg62
g4673
sg55
(lp4680
(lp4681
(g3946
(S't\x07\x00\x00\x00Preface'
tRp4682
I00
S'http://www.web2py.com/book/default/chapter/00'
p4683
tp4684
a(g3946
(S't\x0c\x00\x00\x00Introduction'
tRp4685
I00
S'http://www.web2py.com/book/default/chapter/01'
p4686
tp4687
a(g3946
(S't\x06\x00\x00\x00Python'
tRp4688
I00
S'http://www.web2py.com/book/default/chapter/02'
p4689
tp4690
a(g3946
(S't\x08\x00\x00\x00Overview'
tRp4691
I00
S'http://www.web2py.com/book/default/chapter/03'
p4692
tp4693
a(g3946
(S's\x08\x00\x00\x00The Core'
tRp4694
I00
S'http://www.web2py.com/book/default/chapter/04'
p4695
tp4696
a(g3946
(S's\t\x00\x00\x00The Views'
tRp4697
I00
S'http://www.web2py.com/book/default/chapter/05'
p4698
tp4699
a(g3946
(S's\r\x00\x00\x00Base de datos'
tRp4700
I00
S'http://www.web2py.com/book/default/chapter/06'
p4701
tp4702
a(g3946
(S's\x14\x00\x00\x00Forms and Validators'
tRp4703
I00
S'http://www.web2py.com/book/default/chapter/07'
p4704
tp4705
a(g3946
(S's\x0e\x00\x00\x00Access Control'
tRp4706
I00
S'http://www.web2py.com/book/default/chapter/08'
p4707
tp4708
a(g3946
(S't\x08\x00\x00\x00Services'
tRp4709
I00
S'http://www.web2py.com/book/default/chapter/09'
p4710
tp4711
a(g3946
(S's\x0c\x00\x00\x00Ajax Recipes'
tRp4712
I00
S'http://www.web2py.com/book/default/chapter/10'
p4713
tp4714
a(g3946
(S's\x12\x00\x00\x00Deployment Recipes'
tRp4715
I00
S'http://www.web2py.com/book/default/chapter/11'
p4716
tp4717
a(g3946
(S's\r\x00\x00\x00Other Recipes'
tRp4718
I00
S'http://www.web2py.com/book/default/chapter/12'
p4719
tp4720
a(g3946
(S's\r\x00\x00\x00Buy this book'
tRp4721
I00
S'http://stores.lulu.com/web2py'
p4722
tp4723
aasbasbasbasbasbasbasbag48
(g64
g50
NtRp4724
(dp4725
g53
(dp4726
sg62
g4611
sg55
(lp4727
g48
(g69
g50
NtRp4728
(dp4729
g53
(dp4730
sg62
g4724
sg55
(lp4731
g48
(g49
g50
NtRp4732
(dp4733
g53
(dp4734
g61
I2
ssg62
g4728
sg55
(lp4735
g48
(g57
g50
NtRp4736
(dp4737
g53
(dp4738
g61
I1
ssg62
Nsg55
(lp4739
g48
(g64
g50
NtRp4740
(dp4741
g53
(dp4742
sg62
g4736
sg55
(lp4743
g48
(g69
g50
NtRp4744
(dp4745
g53
(dp4746
sg62
g4740
sg55
(lp4747
g48
(g49
g50
NtRp4748
(dp4749
g53
(dp4750
g61
I1
ssg62
g4744
sg55
(lp4751
g3946
(S't\t\x00\x00\x00Community'
tRp4752
asbasbasbag48
(g64
g50
NtRp4753
(dp4754
g53
(dp4755
sg62
g4736
sg55
(lp4756
g48
(g69
g50
NtRp4757
(dp4758
g53
(dp4759
sg62
g4753
sg55
(lp4760
g48
(g49
g50
NtRp4761
(dp4762
g53
(dp4763
g61
I1
ssg62
g4757
sg55
(lp4764
I00
asbasbasbag48
(g64
g50
NtRp4765
(dp4766
g53
(dp4767
sg62
g4736
sg55
(lp4768
g48
(g69
g50
NtRp4769
(dp4770
g53
(dp4771
sg62
g4765
sg55
(lp4772
g48
(g49
g50
NtRp4773
(dp4774
g53
(dp4775
g61
I1
ssg62
g4769
sg55
(lp4776
Nasbasbasbag48
(g64
g50
NtRp4777
(dp4778
g53
(dp4779
sg62
g4736
sg55
(lp4780
g48
(g69
g50
NtRp4781
(dp4782
g53
(dp4783
sg62
g4777
sg55
(lp4784
g48
(g49
g50
NtRp4785
(dp4786
g53
(dp4787
g61
I1
ssg62
g4781
sg55
(lp4788
(lp4789
(g3946
(S't\x06\x00\x00\x00Groups'
tRp4790
I00
S'http://www.web2py.com/examples/default/usergroups'
p4791
tp4792
a(g3946
(S't\x07\x00\x00\x00Twitter'
tRp4793
I00
S'http://twitter.com/web2py'
p4794
tp4795
a(g3946
(S's\t\x00\x00\x00Live chat'
tRp4796
I00
S'http://mibbit.com/?channel=%23web2py&server=irc.mibbit.net'
p4797
tp4798
a(g3946
(S's\n\x00\x00\x00User Voice'
tRp4799
I00
S'http://web2py.uservoice.com/'
p4800
tp4801
aasbasbasbasbasbasbasbag48
(g64
g50
NtRp4802
(dp4803
g53
(dp4804
sg62
g4611
sg55
(lp4805
g48
(g69
g50
NtRp4806
(dp4807
g53
(dp4808
sg62
g4802
sg55
(lp4809
g48
(g49
g50
NtRp4810
(dp4811
g53
(dp4812
g61
I2
ssg62
g4806
sg55
(lp4813
g48
(g57
g50
NtRp4814
(dp4815
g53
(dp4816
g61
I1
ssg62
Nsg55
(lp4817
g48
(g64
g50
NtRp4818
(dp4819
g53
(dp4820
sg62
g4814
sg55
(lp4821
g48
(g69
g50
NtRp4822
(dp4823
g53
(dp4824
sg62
g4818
sg55
(lp4825
g48
(g49
g50
NtRp4826
(dp4827
g53
(dp4828
g61
I1
ssg62
g4822
sg55
(lp4829
g3946
(S't\x06\x00\x00\x00Web2py'
tRp4830
asbasbasbag48
(g64
g50
NtRp4831
(dp4832
g53
(dp4833
sg62
g4814
sg55
(lp4834
g48
(g69
g50
NtRp4835
(dp4836
g53
(dp4837
sg62
g4831
sg55
(lp4838
g48
(g49
g50
NtRp4839
(dp4840
g53
(dp4841
g61
I1
ssg62
g4835
sg55
(lp4842
I00
asbasbasbag48
(g64
g50
NtRp4843
(dp4844
g53
(dp4845
sg62
g4814
sg55
(lp4846
g48
(g69
g50
NtRp4847
(dp4848
g53
(dp4849
sg62
g4843
sg55
(lp4850
g48
(g49
g50
NtRp4851
(dp4852
g53
(dp4853
g61
I1
ssg62
g4847
sg55
(lp4854
S'http://www.web2py.com'
p4855
asbasbasbag48
(g64
g50
NtRp4856
(dp4857
g53
(dp4858
sg62
g4814
sg55
(lp4859
g48
(g69
g50
NtRp4860
(dp4861
g53
(dp4862
sg62
g4856
sg55
(lp4863
g48
(g49
g50
NtRp4864
(dp4865
g53
(dp4866
g61
I1
ssg62
g4860
sg55
(lp4867
(lp4868
(g3946
(S't\x08\x00\x00\x00Download'
tRp4869
I00
S'http://www.web2py.com/examples/default/download'
p4870
tp4871
a(g3946
(S't\x07\x00\x00\x00Support'
tRp4872
I00
S'http://www.web2py.com/examples/default/support'
p4873
tp4874
a(g3946
(S's\x0e\x00\x00\x00Quick Examples'
tRp4875
I00
S'http://web2py.com/examples/default/examples'
p4876
tp4877
a(g3946
(S't\x03\x00\x00\x00FAQ'
tRp4878
I00
S'http://web2py.com/AlterEgo'
p4879
tp4880
a(g3946
(S's\x11\x00\x00\x00Free Applications'
tRp4881
I00
S'http://web2py.com/appliances'
p4882
tp4883
a(g3946
(S't\x07\x00\x00\x00Plugins'
tRp4884
I00
S'http://web2py.com/plugins'
p4885
tp4886
a(g3946
(S't\x07\x00\x00\x00Recipes'
tRp4887
I00
S'http://web2pyslices.com/'
p4888
tp4889
a(g3946
(S't\x04\x00\x00\x00Demo'
tRp4890
I00
S'http://web2py.com/demo_admin'
p4891
tp4892
a(g3946
(S't\x08\x00\x00\x00Semantic'
tRp4893
I00
S'http://web2py.com/semantic'
p4894
tp4895
a(g3946
(S't\x07\x00\x00\x00Layouts'
tRp4896
I00
S'http://web2py.com/layouts'
p4897
tp4898
a(g3946
(S't\x06\x00\x00\x00Videos'
tRp4899
I00
S'http://www.web2py.com/examples/default/videos/'
p4900
tp4901
aasbasbasbasbasbasbasbasbasbasbasbasbasbasbasbasbasbasbasbag48
(g64
g50
NtRp4902
(dp4903
g53
(dp4904
sg62
g3395
sg55
(lp4905
g48
(g69
g50
NtRp4906
(dp4907
g53
(dp4908
g73
g74
ssg62
g4902
sg55
(lp4909
S'meta'
p4910
asbag48
(g69
g50
NtRp4911
(dp4912
g53
(dp4913
g80
g81
ssg62
g4902
sg55
(lp4914
S':'
asbag48
(g69
g50
NtRp4915
(dp4916
g53
(dp4917
sg62
g4902
sg55
(lp4918
g48
(g49
g50
NtRp4919
(dp4920
g53
(dp4921
g61
I5
ssg62
g4915
sg55
(lp4922
g48
(g57
g50
NtRp4923
(dp4924
g53
(dp4925
g61
I4
ssg62
Nsg55
(lp4926
g48
(g64
g50
NtRp4927
(dp4928
g53
(dp4929
sg62
g4923
sg55
(lp4930
g48
(g69
g50
NtRp4931
(dp4932
g53
(dp4933
g73
g74
ssg62
g4927
sg55
(lp4934
S'author'
p4935
asbag48
(g69
g50
NtRp4936
(dp4937
g53
(dp4938
g80
g81
ssg62
g4927
sg55
(lp4939
S':'
asbag48
(g69
g50
NtRp4940
(dp4941
g53
(dp4942
sg62
g4927
sg55
(lp4943
g48
(g49
g50
NtRp4944
(dp4945
g53
(dp4946
g61
I4
ssg62
g4940
sg55
(lp4947
S'you'
p4948
asbasbasbag48
(g64
g50
NtRp4949
(dp4950
g53
(dp4951
sg62
g4923
sg55
(lp4952
g48
(g69
g50
NtRp4953
(dp4954
g53
(dp4955
g73
g74
ssg62
g4949
sg55
(lp4956
S'copyright'
p4957
asbag48
(g69
g50
NtRp4958
(dp4959
g53
(dp4960
g80
g81
ssg62
g4949
sg55
(lp4961
S':'
asbag48
(g69
g50
NtRp4962
(dp4963
g53
(dp4964
sg62
g4949
sg55
(lp4965
g48
(g49
g50
NtRp4966
(dp4967
g53
(dp4968
g61
I4
ssg62
g4962
sg55
(lp4969
S'Copyright 2007-2010'
p4970
asbasbasbag48
(g64
g50
NtRp4971
(dp4972
g53
(dp4973
sg62
g4923
sg55
(lp4974
g48
(g69
g50
NtRp4975
(dp4976
g53
(dp4977
g73
g74
ssg62
g4971
sg55
(lp4978
S'description'
p4979
asbag48
(g69
g50
NtRp4980
(dp4981
g53
(dp4982
g80
g81
ssg62
g4971
sg55
(lp4983
S':'
asbag48
(g69
g50
NtRp4984
(dp4985
g53
(dp4986
sg62
g4971
sg55
(lp4987
g48
(g49
g50
NtRp4988
(dp4989
g53
(dp4990
g61
I4
ssg62
g4984
sg55
(lp4991
S'Free and open source full-stack enterprise framework for agile development of fast, scalable, secure and portable database-driven web-based applications. Written and programmable in Python'
p4992
asbasbasbag48
(g64
g50
NtRp4993
(dp4994
g53
(dp4995
sg62
g4923
sg55
(lp4996
g48
(g69
g50
NtRp4997
(dp4998
g53
(dp4999
g73
g74
ssg62
g4993
sg55
(lp5000
S'generator'
p5001
asbag48
(g69
g50
NtRp5002
(dp5003
g53
(dp5004
g80
g81
ssg62
g4993
sg55
(lp5005
S':'
asbag48
(g69
g50
NtRp5006
(dp5007
g53
(dp5008
sg62
g4993
sg55
(lp5009
g48
(g49
g50
NtRp5010
(dp5011
g53
(dp5012
g61
I4
ssg62
g5006
sg55
(lp5013
S'Web2py Enterprise Framework'
p5014
asbasbasbag48
(g64
g50
NtRp5015
(dp5016
g53
(dp5017
sg62
g4923
sg55
(lp5018
g48
(g69
g50
NtRp5019
(dp5020
g53
(dp5021
g73
g74
ssg62
g5015
sg55
(lp5022
S'keywords'
p5023
asbag48
(g69
g50
NtRp5024
(dp5025
g53
(dp5026
g80
g81
ssg62
g5015
sg55
(lp5027
S':'
asbag48
(g69
g50
NtRp5028
(dp5029
g53
(dp5030
sg62
g5015
sg55
(lp5031
g48
(g49
g50
NtRp5032
(dp5033
g53
(dp5034
g61
I4
ssg62
g5028
sg55
(lp5035
S'web2py, python, framework'
p5036
asbasbasbasbasbasbasbag48
(g64
g50
NtRp5037
(dp5038
g53
(dp5039
sg62
g3395
sg55
(lp5040
g48
(g69
g50
NtRp5041
(dp5042
g53
(dp5043
g73
g74
ssg62
g5037
sg55
(lp5044
S'postprocessing'
p5045
asbag48
(g69
g50
NtRp5046
(dp5047
g53
(dp5048
g80
g81
ssg62
g5037
sg55
(lp5049
S':'
asbag48
(g69
g50
NtRp5050
(dp5051
g53
(dp5052
sg62
g5037
sg55
(lp5053
g48
(g49
g50
NtRp5054
(dp5055
g53
(dp5056
g61
I5
ssg62
g5050
sg55
(lp5057
g48
(g57
g50
NtRp5058
(dp5059
g53
(dp5060
g61
I4
ssg62
Nsg55
(lp5061
sbasbasbasbag48
(g64
g50
NtRp5062
(dp5063
g53
(dp5064
sg62
g3395
sg55
(lp5065
g48
(g69
g50
NtRp5066
(dp5067
g53
(dp5068
g73
g74
ssg62
g5062
sg55
(lp5069
S'session_file'
p5070
asbag48
(g69
g50
NtRp5071
(dp5072
g53
(dp5073
g80
g81
ssg62
g5062
sg55
(lp5074
S':'
asbag48
(g69
g50
NtRp5075
(dp5076
g53
(dp5077
sg62
g5062
sg55
(lp5078
g48
(g49
g50
NtRp5079
(dp5080
g53
(dp5081
g61
I5
ssg62
g5075
sg55
(lp5082
S"<open file 'C:\\Users\\Atomico\\web2py\\applications\\Desglosar_Emails\\sessions\\127.0.0.1-0a11b3b2-660c-433c-b71f-fc129286f26c', mode 'rb+' at 0x087FC5C0>"
p5083
asbasbasbag48
(g64
g50
NtRp5084
(dp5085
g53
(dp5086
sg62
g3395
sg55
(lp5087
g48
(g69
g50
NtRp5088
(dp5089
g53
(dp5090
g73
g74
ssg62
g5084
sg55
(lp5091
S'session_filename'
p5092
asbag48
(g69
g50
NtRp5093
(dp5094
g53
(dp5095
g80
g81
ssg62
g5084
sg55
(lp5096
S':'
asbag48
(g69
g50
NtRp5097
(dp5098
g53
(dp5099
sg62
g5084
sg55
(lp5100
g48
(g49
g50
NtRp5101
(dp5102
g53
(dp5103
g61
I5
ssg62
g5097
sg55
(lp5104
S'C:\\Users\\Atomico\\web2py\\applications\\Desglosar_Emails\\sessions\\127.0.0.1-0a11b3b2-660c-433c-b71f-fc129286f26c'
p5105
asbasbasbag48
(g64
g50
NtRp5106
(dp5107
g53
(dp5108
sg62
g3395
sg55
(lp5109
g48
(g69
g50
NtRp5110
(dp5111
g53
(dp5112
g73
g74
ssg62
g5106
sg55
(lp5113
S'session_id'
p5114
asbag48
(g69
g50
NtRp5115
(dp5116
g53
(dp5117
g80
g81
ssg62
g5106
sg55
(lp5118
S':'
asbag48
(g69
g50
NtRp5119
(dp5120
g53
(dp5121
sg62
g5106
sg55
(lp5122
g48
(g49
g50
NtRp5123
(dp5124
g53
(dp5125
g61
I5
ssg62
g5119
sg55
(lp5126
S'127.0.0.1-0a11b3b2-660c-433c-b71f-fc129286f26c'
p5127
asbasbasbag48
(g64
g50
NtRp5128
(dp5129
g53
(dp5130
sg62
g3395
sg55
(lp5131
g48
(g69
g50
NtRp5132
(dp5133
g53
(dp5134
g73
g74
ssg62
g5128
sg55
(lp5135
S'session_id_name'
p5136
asbag48
(g69
g50
NtRp5137
(dp5138
g53
(dp5139
g80
g81
ssg62
g5128
sg55
(lp5140
S':'
asbag48
(g69
g50
NtRp5141
(dp5142
g53
(dp5143
sg62
g5128
sg55
(lp5144
g48
(g49
g50
NtRp5145
(dp5146
g53
(dp5147
g61
I5
ssg62
g5141
sg55
(lp5148
g3452
asbasbasbag48
(g64
g50
NtRp5149
(dp5150
g53
(dp5151
sg62
g3395
sg55
(lp5152
g48
(g69
g50
NtRp5153
(dp5154
g53
(dp5155
g73
g74
ssg62
g5149
sg55
(lp5156
S'session_locked'
p5157
asbag48
(g69
g50
NtRp5158
(dp5159
g53
(dp5160
g80
g81
ssg62
g5149
sg55
(lp5161
S':'
asbag48
(g69
g50
NtRp5162
(dp5163
g53
(dp5164
sg62
g5149
sg55
(lp5165
g48
(g49
g50
NtRp5166
(dp5167
g53
(dp5168
g61
I5
ssg62
g5162
sg55
(lp5169
g2324
asbasbasbag48
(g64
g50
NtRp5170
(dp5171
g53
(dp5172
sg62
g3395
sg55
(lp5173
g48
(g69
g50
NtRp5174
(dp5175
g53
(dp5176
g73
g74
ssg62
g5170
sg55
(lp5177
S'session_new'
p5178
asbag48
(g69
g50
NtRp5179
(dp5180
g53
(dp5181
g80
g81
ssg62
g5170
sg55
(lp5182
S':'
asbag48
(g69
g50
NtRp5183
(dp5184
g53
(dp5185
sg62
g5170
sg55
(lp5186
g48
(g49
g50
NtRp5187
(dp5188
g53
(dp5189
g61
I5
ssg62
g5183
sg55
(lp5190
g91
asbasbasbag48
(g64
g50
NtRp5191
(dp5192
g53
(dp5193
sg62
g3395
sg55
(lp5194
g48
(g69
g50
NtRp5195
(dp5196
g53
(dp5197
g73
g74
ssg62
g5191
sg55
(lp5198
S'status'
p5199
asbag48
(g69
g50
NtRp5200
(dp5201
g53
(dp5202
g80
g81
ssg62
g5191
sg55
(lp5203
S':'
asbag48
(g69
g50
NtRp5204
(dp5205
g53
(dp5206
sg62
g5191
sg55
(lp5207
g48
(g49
g50
NtRp5208
(dp5209
g53
(dp5210
g61
I5
ssg62
g5204
sg55
(lp5211
S'200'
p5212
asbasbasbag48
(g64
g50
NtRp5213
(dp5214
g53
(dp5215
sg62
g3395
sg55
(lp5216
g48
(g69
g50
NtRp5217
(dp5218
g53
(dp5219
g73
g74
ssg62
g5213
sg55
(lp5220
S'subtitle'
p5221
asbag48
(g69
g50
NtRp5222
(dp5223
g53
(dp5224
g80
g81
ssg62
g5213
sg55
(lp5225
S':'
asbag48
(g69
g50
NtRp5226
(dp5227
g53
(dp5228
sg62
g5213
sg55
(lp5229
g48
(g49
g50
NtRp5230
(dp5231
g53
(dp5232
g61
I5
ssg62
g5226
sg55
(lp5233
g3946
(S's\t\x00\x00\x00Adaptame!'
tRp5234
asbasbasbag48
(g64
g50
NtRp5235
(dp5236
g53
(dp5237
sg62
g3395
sg55
(lp5238
g48
(g69
g50
NtRp5239
(dp5240
g53
(dp5241
g73
g74
ssg62
g5235
sg55
(lp5242
S'title'
p5243
asbag48
(g69
g50
NtRp5244
(dp5245
g53
(dp5246
g80
g81
ssg62
g5235
sg55
(lp5247
S':'
asbag48
(g69
g50
NtRp5248
(dp5249
g53
(dp5250
sg62
g5235
sg55
(lp5251
g48
(g49
g50
NtRp5252
(dp5253
g53
(dp5254
g61
I5
ssg62
g5248
sg55
(lp5255
g113
asbasbasbag48
(g64
g50
NtRp5256
(dp5257
g53
(dp5258
sg62
g3395
sg55
(lp5259
g48
(g69
g50
NtRp5260
(dp5261
g53
(dp5262
g73
g74
ssg62
g5256
sg55
(lp5263
g2669
asbag48
(g69
g50
NtRp5264
(dp5265
g53
(dp5266
g80
g81
ssg62
g5256
sg55
(lp5267
S':'
asbag48
(g69
g50
NtRp5268
(dp5269
g53
(dp5270
sg62
g5256
sg55
(lp5271
g48
(g49
g50
NtRp5272
(dp5273
g53
(dp5274
g61
I5
ssg62
g5268
sg55
(lp5275
g2682
asbasbasbag48
(g64
g50
NtRp5276
(dp5277
g53
(dp5278
sg62
g3395
sg55
(lp5279
g48
(g69
g50
NtRp5280
(dp5281
g53
(dp5282
g73
g74
ssg62
g5276
sg55
(lp5283
S'view'
p5284
asbag48
(g69
g50
NtRp5285
(dp5286
g53
(dp5287
g80
g81
ssg62
g5276
sg55
(lp5288
S':'
asbag48
(g69
g50
NtRp5289
(dp5290
g53
(dp5291
sg62
g5276
sg55
(lp5292
g48
(g49
g50
NtRp5293
(dp5294
g53
(dp5295
g61
I5
ssg62
g5289
sg55
(lp5296
S'default/entrada_mod3.html'
p5297
asbasbasbasbasbsS'locals'
p5298
(dp5299
S'self'
p5300
S"<Storage {'body': <cStringIO.StringO object at 0...x08799CF0>, 'view': 'default/entrada_mod3.html'}>"
p5301
sS'data'
p5302
S"'Aqu\\xc3\\xad hay un problema'"
p5303
sS'escape'
p5304
g2324
sssS'traceback'
p5305
S'Traceback (most recent call last):\n  File "gluon/restricted.py", line 192, in restricted\n  File "C:\\Users\\Atomico\\web2py\\applications\\Desglosar_Emails\\views\\default/entrada_mod3.html", line 126, in <module>\n  File "gluon/globals.py", line 154, in write\nMemoryError: out of memory\n'
p5306
s.