(dp1
S'output'
p2
S''
sS'layer'
p3
S'C:\\Users\\Atomico\\web2py\\applications\\Desglosar_Emails\\views\\default/entrada_mod3.html'
p4
sS'code'
p5
S'response.write(\'<!DOCTYPE html>\\n<html lang="\', escape=False)\nresponse.write(T.accepted_language or \'en\')\nresponse.write(\'" class="no-js"><!-- no-js need it for modernzr -->\\n  <head>\\n    \\n    <meta charset="utf-8" />\\t  \\t\\n    <!-- www.phpied.com/conditional-comments-block-downloads/ -->\\n    <!--[if IE]><![endif]-->    \\n    <!-- Always force latest IE rendering engine \\n\\t (even in intranet) & Chrome Frame \\n\\t Remove this if you use the .htaccess -->\\n    <meta http-equiv="X-UA-Compatible" content="IE=edge,chrome=1">\\n    \\n    <title>\', escape=False)\nresponse.write(response.title or request.application)\nresponse.write(\'</title>\\n    \\n    <!-- http://dev.w3.org/html5/markup/meta.name.html -->\\n    <meta name="application-name" content="\', escape=False)\nresponse.write(request.application)\nresponse.write(\'" />\\t\\n    \\n    <!-- Speaking of Google, don\\\'t forget to set your site up: \\n\\t http://google.com/webmasters -->\\n    <meta name="google-site-verification" content="" />\\n    \\n    <!--  Mobile Viewport Fix\\n\\t  j.mp/mobileviewport & davidbcalhoun.com/2010/viewport-metatag \\n\\t  device-width: Occupy full width of the screen in its current orientation\\n\\t  initial-scale = 1.0 retains dimensions instead of zooming out if page height > device height\\n\\t  maximum-scale = 1.0 retains dimensions instead of zooming in if page width < device width\\n      -->\\n    <meta name="viewport" content="width=device-width, initial-scale=1.0, maximum-scale=1.0">\\n    \\n    <!-- Place favicon.ico and apple-touch-icon.png in the root of your domain and delete these references -->\\n    <link rel="shortcut icon" href="\', escape=False)\nresponse.write(URL(\'static\',\'favicon.ico\'))\nresponse.write(\'" type="image/x-icon">\\n    <link rel="apple-touch-icon" href="\', escape=False)\nresponse.write(URL(\'static\',\'favicon.png\'))\nresponse.write(\'">\\n\\n    <!-- For the less-enabled mobile browsers like Opera Mini -->\\n    <link rel="stylesheet" media="handheld" href="\', escape=False)\nresponse.write(URL(\'static\',\'css/handheld.css\'))\nresponse.write(\'">\\n    \\n    <!-- All JavaScript at the bottom, except for Modernizr which enables HTML5 elements & feature detects -->\\n    <script src="\', escape=False)\nresponse.write(URL(\'static\',\'js/modernizr-1.7.min.js\'))\nresponse.write(\'"></script>\\n    \\n    \', escape=False)\n#------  require CSS and JS files for this page (read info in base.css) ------\nresponse.write(\'\\n    \', escape=False)\nresponse.files.append(URL(\'static\',\'css/base.css\'))\nresponse.write(\'\\n    \', escape=False)\nresponse.files.append(URL(\'static\',\'css/superfish.css\'))\nresponse.write(\'\\n    \', escape=False)\nresponse.files.append(URL(\'static\',\'js/superfish.js\'))\nresponse.write(\'\\n    \', escape=False)\n#------ include web2py specific js code (jquery, calendar, form stuff) ------\nresponse.write(\'\\n    \', escape=False)\nresponse.files.insert(0,URL(\'static\',\'js/jquery.js\'))\nresponse.files.insert(1,URL(\'static\',\'css/calendar.css\'))\nresponse.files.insert(2,URL(\'static\',\'js/calendar.js\'))\nfor _item in response.meta or []:\n    response.write(\'\\n     <meta name="\', escape=False)\n    response.write(_item)\n    response.write(\'" content="\', escape=False)\n    response.write(response.meta[_item])\n    response.write(\'" />\', escape=False)\n    pass\nfor _k,_file in enumerate(response.files or []):\n    if _file in response.files[:_k]:\n        continue\n    _file0=_file.lower().split(\'?\')[0]\n    if _file0.endswith(\'.css\'):\n        response.write(\'\\n     <link href="\', escape=False)\n        response.write(_file)\n        response.write(\'" rel="stylesheet" type="text/css" />\', escape=False)\n    elif _file0.endswith(\'.js\'):\n        response.write(\'\\n     <script src="\', escape=False)\n        response.write(_file)\n        response.write(\'" type="text/javascript"></script>\', escape=False)\n        pass\n    pass\nresponse.write(\'\\n    <script type="text/javascript"><!--\\n    // These variables are used by the web2py_ajax_init function in web2py_ajax.js (which is loaded below).\\n    var w2p_ajax_confirm_message = "\', escape=False)\nresponse.write(T(\'Are you sure you want to delete this object?\'))\nresponse.write(\'";\\n    var w2p_ajax_date_format = "\', escape=False)\nresponse.write(T(\'%Y-%m-%d\'))\nresponse.write(\'";\\n    var w2p_ajax_datetime_format = "\', escape=False)\nresponse.write(T(\'%Y-%m-%d %H:%M:%S\'))\nresponse.write(\'";\\n    //--></script>\\n    <script src="\', escape=False)\nresponse.write(URL(\'static\',\'js/web2py_ajax.js\'))\nresponse.write(\'" type="text/javascript"></script>\\n\', escape=False)\nresponse.write(\'\\n\\n    \', escape=False)\n#using sidebars need to know what sidebar you want to use\n#prior of using it, because of static width size of content, you can use\n#left_sidebar, right_sidebar, both or none (False left and right)\nleft_sidebar_enabled = globals().get(\'left_sidebar_enabled\',False)\nright_sidebar_enabled = globals().get(\'right_sidebar_enabled\',False)\nif left_sidebar_enabled and right_sidebar_enabled: width_content=\'63%\'\nelif left_sidebar_enabled != right_sidebar_enabled: width_content=\'740px\'\nelse: width_content=\'100%\'\nif left_sidebar_enabled: left_sidebar_style = \'style="display: block;"\'\nelse: left_sidebar_style = \'style="display: none;"\'\nif right_sidebar_enabled: right_sidebar_style = \'style="display: block;"\'\nelse: right_sidebar_style = \'style="display: none;"\'\nstyle_content = \'style="width: %s"\' % width_content\nresponse.write(\'\\n  </head>\\n  \\n  <!-- paulirish.com/2008/conditional-stylesheets-vs-css-hacks-answer-neither/ -->\\t\\n  <!--[if lt IE 7 ]> <body class="ie6"> <![endif]-->\\n  <!--[if IE 7 ]>    <body class="ie7"> <![endif]-->\\n  <!--[if IE 8 ]>    <body class="ie8"> <![endif]-->\\n  <!--[if IE 9 ]>    <body class="ie9"> <![endif]-->\\n  <!--[if (gt IE 9)|!(IE)]><!--> <body> <!--<![endif]-->\\n    \\n    <div class="flash">\', escape=False)\nresponse.write(response.flash or \'\')\nresponse.write(\'</div> <!-- notification div -->\\n    \\n    <div id="container">\\t      \\t\\t      \\t\\n      \\n      <div id="wrapper">\\t\\t\\n\\t\\n\\t<div id="header"> <!-- header and login nav -->\\n\\t  \', escape=False)\nresponse.write(\' <!-- this is default header -->\\n\\t  \', escape=False)\ntry:\n    response.write(auth.navbar(action=URL(\'default\',\'user\')))\nexcept:pass\nresponse.write(\'\\t\\t          \\n\\t  <h1><span id="appname">\', escape=False)\nresponse.write(request.application.capitalize())\nresponse.write(\'</span>App</h1>\\n\\t  <div style="clear: both;"></div><!-- Clear the divs -->\\n\\t  \', escape=False)\nresponse.write(\'\\t\\t\\t\\t  \\t\\t\\t\\t\\t  \\n\\t</div><!-- header  -->\\n\\t\\n\\t<div id="statusbar"><!-- statusbar is menu zone -->\\n\\t  \', escape=False)\nresponse.write(\' <!-- this is default statusbar -->\\n\\t  \', escape=False)\n#------ superfish menu ------\nresponse.write(\'\\n\\t  \', escape=False)\nresponse.write(MENU(response.menu,_class=\'sf-menu\'))\nresponse.write(\'\\n\\t  <script type="text/javascript">\\n\\t    jQuery(document).ready(function(){\\n\\t    jQuery(\\\'ul.sf-menu\\\').superfish();});\\n\\t  </script>\\n\\t  <div style="clear: both;"></div><!-- Clear the divs -->\\t\\n\\t  \', escape=False)\nresponse.write(\'\\t\\t\\t\\t\\n\\t</div><!-- statusbar -->\\n\\t\\n\\t<div id="page"> <!-- Here my central body -->\\t  \\n\\n\\t  \', escape=False)\nif left_sidebar_enabled:\n    response.write(\'\\n          <div id="left_sidebar" \', escape=False)\n    response.write(XML(left_sidebar_style))\n    response.write(\' >\\n            <div style="padding: 4px;">\\n\\t      \', escape=False)\n    response.write(\'Content Left Sidebar\', escape=False)\n    response.write(\'\\t\\t  \\n            </div>\\n          </div><!-- left_sidebar -->\\n\\t  \', escape=False)\n    pass\nresponse.write(\'\\n\\n\\t  <!-- content -->\\n\\t  <div id="content" \', escape=False)\nresponse.write(XML(style_content))\nresponse.write(\' >\\n\\t    \', escape=False)\nresponse.write(\'\\r\\n<h1>Esta es la plantilla default/entrada_mod3.html</h1>\\r\\n<h2>Formulario</h2>\\r\\n\', escape=False)\nresponse.write(form)\nresponse.write(\'\\r\\n<br/>\\r\\n<h3>Tratamientos</h3>\\r\\n\', escape=False)\ntextual=db(db.info4.id==1).select()[0]\ntxt=textual.texto\nresponse.write(len(txt))\nresponse.write(\'\\r\\n es la longitud del texto.\\r\\n<br/> Claro: \\r\\n\\r\\n\', escape=False)\nimport re\npattern=re.compile("[\\w|\xc3\xb1|\xc3\x91]+.\\w+.\\w+")\npatternemail=re.compile("@\\w+[.]\\w+")\nclavos=[\'(\',\')\',\',\',\';\',\' \']\nres=pattern.findall(txt)\nresponse.write(len(res))\nfor i in res: response.write(i+\'<br>\',escape=False)\nres2=patternemail.findall(txt)\nresponse.write(len(res2))\nfor i in res2: response.write(i)\ni=0\ncon=1    {{# porque la id empieza por 1#\nresponse.write("\\r\\nwhile i<len(res):\\r\\n    if patternemail.search(res[i])!=False:\\r\\n        db(db.contactos.id==con).insert(nombre=res[i],email=res[i+1])\\r\\n        i=i+2\\r\\n    elif patternemail.search(res[i]):\\r\\n        db(db.contactos.id==con).insert(email=res[i])\\r\\n        db.contactos[con].email=res[i]\\r\\n        i=i+1\\r\\n    else: response.write(\'Aqu\\xc3\\xad hay un problema\')\\r\\n    pass\\r\\n    con=con+1\\r\\npass\\r\\n        \\r\\n\\r\\n\\r\\n\\r\\n\\r\\n\\r\\n}} \\r\\n es la posf\\r\\n", escape=False)\nresponse.write(\'\\t\\n\\t  </div>\\n\\t  <!-- content -->\\n\\n\\t  \', escape=False)\nif right_sidebar_enabled:\n    response.write(\'\\n          <div id="right_sidebar" \', escape=False)\n    response.write(XML(right_sidebar_style))\n    response.write(\' >\\n            <div style="padding: 4px;">\\n              \', escape=False)\n    response.write(\'Content Right Sidebar\', escape=False)\n    response.write(\'\\n            </div>\\n\\t  </div><!-- right_sidebar -->\\n          \', escape=False)\n    pass\nresponse.write(\'\\n\\n\\n\\t  <div style="clear: both;"></div><!-- Clear the divs -->\\n\\t  \\n\\t</div><!-- page -->\\t\\t\\t\\t\\t\\t\\t\\n\\t\\n\\t<div id="footer">\\n\\t  \', escape=False)\nresponse.write(\' <!-- this is default footer -->\\n\\t  <a href="http://www.web2py.com/" style="float: left; padding-right: 6px;">\\n\\t    <img src="\', escape=False)\nresponse.write(URL(\'static\',\'images/poweredby.png\'))\nresponse.write(\'"/>\\n\\t  </a>\\n\\t  \', escape=False)\nresponse.write(T(\'Copyright\'))\nresponse.write(\' &#169; 2010\\t\\t\\t\\t\\n\\t  <div style="clear: both;"></div><!-- Clear the divs -->\\n\\t  \', escape=False)\nresponse.write(\'\\n\\n\\t</div><!-- footer -->\\t\\t\\t\\n      </div><!-- wrapper -->\\n    </div><!-- container -->\\t\\t\\n    \\n    <!--[if lt IE 7 ]>\\n\\t<script src="\', escape=False)\nresponse.write(URL(\'static\',\'js/dd_belatedpng.js\'))\nresponse.write(\'"></script>\\n\\t<script> DD_belatedPNG.fix(\\\'img, .png_bg\\\'); //fix any <img> or .png_bg background-images </script>\\n\\t<![endif]-->\\n    \\n    <!-- asynchronous google analytics: mathiasbynens.be/notes/async-analytics-snippet \\n\\t change the UA-XXXXX-X to be your site\\\'s ID -->\\n    <!--   \\n\\t   <script>\\n\\t     var _gaq = [[\\\'_setAccount\\\', \\\'UA-XXXXX-X\\\'], [\\\'_trackPageview\\\']];\\n\\t     (function(d, t) {\\n\\t     var g = d.createElement(t),\\n\\t     s = d.getElementsByTagName(t)[0];\\n\\t     g.async = true;\\n\\t     g.src = \\\'//www.google-analytics.com/ga.js\\\';\\n\\t     s.parentNode.insertBefore(g, s);\\n\\t     })(document, \\\'script\\\');\\n\\t   </script>\\n\\t   -->    \\n  </body>\\n</html>\\n\', escape=False)'
p6
sS'snapshot'
p7
(dp8
S'exception'
p9
(dp10
S'__getslice__'
p11
S"<method-wrapper '__getslice__' of exceptions.SyntaxError object at 0x07B10C70>"
p12
sS'text'
p13
S"'con=1    {{# porque la id empieza por 1#\\n'"
p14
sS'__str__'
p15
S"<method-wrapper '__str__' of exceptions.SyntaxError object at 0x07B10C70>"
p16
sS'__reduce__'
p17
S'<built-in method __reduce__ of exceptions.SyntaxError object at 0x07B10C70>'
p18
sS'__dict__'
p19
S'{}'
p20
sS'__init__'
p21
S"<method-wrapper '__init__' of exceptions.SyntaxError object at 0x07B10C70>"
p22
sS'__setattr__'
p23
S"<method-wrapper '__setattr__' of exceptions.SyntaxError object at 0x07B10C70>"
p24
sS'__reduce_ex__'
p25
S'<built-in method __reduce_ex__ of exceptions.SyntaxError object at 0x07B10C70>'
p26
sS'__new__'
p27
S'<built-in method __new__ of type object at 0x1E1CDBD0>'
p28
sS'__class__'
p29
S"<type 'exceptions.SyntaxError'>"
p30
sS'filename'
p31
S"r'C:\\Users\\Atomico\\web2py\\applications\\Desglosar_Emails\\views\\default/entrada_mod3.html'"
p32
sS'lineno'
p33
S'118'
p34
sS'msg'
p35
S"'invalid syntax'"
p36
sS'__doc__'
p37
S"'Invalid syntax.'"
p38
sS'__getitem__'
p39
S"<method-wrapper '__getitem__' of exceptions.SyntaxError object at 0x07B10C70>"
p40
sS'__setstate__'
p41
S'<built-in method __setstate__ of exceptions.SyntaxError object at 0x07B10C70>'
p42
sS'__getattribute__'
p43
S"<method-wrapper '__getattribute__' of exceptions.SyntaxError object at 0x07B10C70>"
p44
sS'print_file_and_line'
p45
S'None'
p46
sS'args'
p47
S"('invalid syntax', (r'C:\\Users\\Atomico\\web2py\\applications\\Desglosar_Emails\\views\\default/entrada_mod3.html', 118, 10, 'con=1    {{# porque la id empieza por 1#\\n'))"
p48
sS'offset'
p49
S'10'
p50
sS'__delattr__'
p51
S"<method-wrapper '__delattr__' of exceptions.SyntaxError object at 0x07B10C70>"
p52
sS'__repr__'
p53
S"<method-wrapper '__repr__' of exceptions.SyntaxError object at 0x07B10C70>"
p54
sS'__hash__'
p55
S"<method-wrapper '__hash__' of exceptions.SyntaxError object at 0x07B10C70>"
p56
ssS'evalue'
p57
S'invalid syntax (default/entrada_mod3.html, line 118)'
p58
sS'request'
p59
ccopy_reg
_reconstructor
p60
(cgluon.html
BEAUTIFY
p61
c__builtin__
object
p62
NtRp63
(dp64
S'attributes'
p65
(dp66
sS'components'
p67
(lp68
g60
(cgluon.html
TABLE
p69
g62
NtRp70
(dp71
g65
(dp72
S'level'
p73
I5
ssS'parent'
p74
Nsg67
(lp75
g60
(cgluon.html
TR
p76
g62
NtRp77
(dp78
g65
(dp79
sg74
g70
sg67
(lp80
g60
(cgluon.html
TD
p81
g62
NtRp82
(dp83
g65
(dp84
S'_style'
p85
S'font-weight:bold;'
p86
ssg74
g77
sg67
(lp87
S'ajax'
p88
asbag60
(g81
g62
NtRp89
(dp90
g65
(dp91
S'_valign'
p92
S'top'
p93
ssg74
g77
sg67
(lp94
S':'
asbag60
(g81
g62
NtRp95
(dp96
g65
(dp97
sg74
g77
sg67
(lp98
g60
(g61
g62
NtRp99
(dp100
g65
(dp101
g73
I5
ssg74
g95
sg67
(lp102
S'False'
p103
asbasbasbag60
(g76
g62
NtRp104
(dp105
g65
(dp106
sg74
g70
sg67
(lp107
g60
(g81
g62
NtRp108
(dp109
g65
(dp110
g85
g86
ssg74
g104
sg67
(lp111
S'application'
p112
asbag60
(g81
g62
NtRp113
(dp114
g65
(dp115
g92
g93
ssg74
g104
sg67
(lp116
S':'
asbag60
(g81
g62
NtRp117
(dp118
g65
(dp119
sg74
g104
sg67
(lp120
g60
(g61
g62
NtRp121
(dp122
g65
(dp123
g73
I5
ssg74
g117
sg67
(lp124
S'Desglosar_Emails'
p125
asbasbasbag60
(g76
g62
NtRp126
(dp127
g65
(dp128
sg74
g70
sg67
(lp129
g60
(g81
g62
NtRp130
(dp131
g65
(dp132
g85
g86
ssg74
g126
sg67
(lp133
g47
asbag60
(g81
g62
NtRp134
(dp135
g65
(dp136
g92
g93
ssg74
g126
sg67
(lp137
S':'
asbag60
(g81
g62
NtRp138
(dp139
g65
(dp140
sg74
g126
sg67
(lp141
g60
(g61
g62
NtRp142
(dp143
g65
(dp144
g73
I5
ssg74
g138
sg67
(lp145
g60
(g69
g62
NtRp146
(dp147
g65
(dp148
g73
I4
ssg74
Nsg67
(lp149
sbasbasbasbag60
(g76
g62
NtRp150
(dp151
g65
(dp152
sg74
g70
sg67
(lp153
g60
(g81
g62
NtRp154
(dp155
g65
(dp156
g85
g86
ssg74
g150
sg67
(lp157
S'body'
p158
asbag60
(g81
g62
NtRp159
(dp160
g65
(dp161
g92
g93
ssg74
g150
sg67
(lp162
S':'
asbag60
(g81
g62
NtRp163
(dp164
g65
(dp165
sg74
g150
sg67
(lp166
g60
(g61
g62
NtRp167
(dp168
g65
(dp169
g73
I5
ssg74
g163
sg67
(lp170
S'<cStringIO.StringO object at 0x0808C5A0>'
p171
asbasbasbag60
(g76
g62
NtRp172
(dp173
g65
(dp174
sg74
g70
sg67
(lp175
g60
(g81
g62
NtRp176
(dp177
g65
(dp178
g85
g86
ssg74
g172
sg67
(lp179
S'client'
p180
asbag60
(g81
g62
NtRp181
(dp182
g65
(dp183
g92
g93
ssg74
g172
sg67
(lp184
S':'
asbag60
(g81
g62
NtRp185
(dp186
g65
(dp187
sg74
g172
sg67
(lp188
g60
(g61
g62
NtRp189
(dp190
g65
(dp191
g73
I5
ssg74
g185
sg67
(lp192
S'127.0.0.1'
p193
asbasbasbag60
(g76
g62
NtRp194
(dp195
g65
(dp196
sg74
g70
sg67
(lp197
g60
(g81
g62
NtRp198
(dp199
g65
(dp200
g85
g86
ssg74
g194
sg67
(lp201
S'controller'
p202
asbag60
(g81
g62
NtRp203
(dp204
g65
(dp205
g92
g93
ssg74
g194
sg67
(lp206
S':'
asbag60
(g81
g62
NtRp207
(dp208
g65
(dp209
sg74
g194
sg67
(lp210
g60
(g61
g62
NtRp211
(dp212
g65
(dp213
g73
I5
ssg74
g207
sg67
(lp214
S'default'
p215
asbasbasbag60
(g76
g62
NtRp216
(dp217
g65
(dp218
sg74
g70
sg67
(lp219
g60
(g81
g62
NtRp220
(dp221
g65
(dp222
g85
g86
ssg74
g216
sg67
(lp223
S'cookies'
p224
asbag60
(g81
g62
NtRp225
(dp226
g65
(dp227
g92
g93
ssg74
g216
sg67
(lp228
S':'
asbag60
(g81
g62
NtRp229
(dp230
g65
(dp231
sg74
g216
sg67
(lp232
g60
(g61
g62
NtRp233
(dp234
g65
(dp235
g73
I5
ssg74
g229
sg67
(lp236
g60
(g69
g62
NtRp237
(dp238
g65
(dp239
g73
I4
ssg74
Nsg67
(lp240
g60
(g76
g62
NtRp241
(dp242
g65
(dp243
sg74
g237
sg67
(lp244
g60
(g81
g62
NtRp245
(dp246
g65
(dp247
g85
g86
ssg74
g241
sg67
(lp248
S'session_id_admin'
p249
asbag60
(g81
g62
NtRp250
(dp251
g65
(dp252
g92
g93
ssg74
g241
sg67
(lp253
S':'
asbag60
(g81
g62
NtRp254
(dp255
g65
(dp256
sg74
g241
sg67
(lp257
g60
(g61
g62
NtRp258
(dp259
g65
(dp260
g73
I4
ssg74
g254
sg67
(lp261
g60
(g69
g62
NtRp262
(dp263
g65
(dp264
g73
I3
ssg74
Nsg67
(lp265
g60
(g76
g62
NtRp266
(dp267
g65
(dp268
sg74
g262
sg67
(lp269
g60
(g81
g62
NtRp270
(dp271
g65
(dp272
g85
g86
ssg74
g266
sg67
(lp273
S'comment'
p274
asbag60
(g81
g62
NtRp275
(dp276
g65
(dp277
g92
g93
ssg74
g266
sg67
(lp278
S':'
asbag60
(g81
g62
NtRp279
(dp280
g65
(dp281
sg74
g266
sg67
(lp282
g60
(g61
g62
NtRp283
(dp284
g65
(dp285
g73
I3
ssg74
g279
sg67
(lp286
S''
asbasbasbag60
(g76
g62
NtRp287
(dp288
g65
(dp289
sg74
g262
sg67
(lp290
g60
(g81
g62
NtRp291
(dp292
g65
(dp293
g85
g86
ssg74
g287
sg67
(lp294
S'domain'
p295
asbag60
(g81
g62
NtRp296
(dp297
g65
(dp298
g92
g93
ssg74
g287
sg67
(lp299
S':'
asbag60
(g81
g62
NtRp300
(dp301
g65
(dp302
sg74
g287
sg67
(lp303
g60
(g61
g62
NtRp304
(dp305
g65
(dp306
g73
I3
ssg74
g300
sg67
(lp307
S''
asbasbasbag60
(g76
g62
NtRp308
(dp309
g65
(dp310
sg74
g262
sg67
(lp311
g60
(g81
g62
NtRp312
(dp313
g65
(dp314
g85
g86
ssg74
g308
sg67
(lp315
S'expires'
p316
asbag60
(g81
g62
NtRp317
(dp318
g65
(dp319
g92
g93
ssg74
g308
sg67
(lp320
S':'
asbag60
(g81
g62
NtRp321
(dp322
g65
(dp323
sg74
g308
sg67
(lp324
g60
(g61
g62
NtRp325
(dp326
g65
(dp327
g73
I3
ssg74
g321
sg67
(lp328
S''
asbasbasbag60
(g76
g62
NtRp329
(dp330
g65
(dp331
sg74
g262
sg67
(lp332
g60
(g81
g62
NtRp333
(dp334
g65
(dp335
g85
g86
ssg74
g329
sg67
(lp336
S'max-age'
p337
asbag60
(g81
g62
NtRp338
(dp339
g65
(dp340
g92
g93
ssg74
g329
sg67
(lp341
S':'
asbag60
(g81
g62
NtRp342
(dp343
g65
(dp344
sg74
g329
sg67
(lp345
g60
(g61
g62
NtRp346
(dp347
g65
(dp348
g73
I3
ssg74
g342
sg67
(lp349
S''
asbasbasbag60
(g76
g62
NtRp350
(dp351
g65
(dp352
sg74
g262
sg67
(lp353
g60
(g81
g62
NtRp354
(dp355
g65
(dp356
g85
g86
ssg74
g350
sg67
(lp357
S'path'
p358
asbag60
(g81
g62
NtRp359
(dp360
g65
(dp361
g92
g93
ssg74
g350
sg67
(lp362
S':'
asbag60
(g81
g62
NtRp363
(dp364
g65
(dp365
sg74
g350
sg67
(lp366
g60
(g61
g62
NtRp367
(dp368
g65
(dp369
g73
I3
ssg74
g363
sg67
(lp370
S''
asbasbasbag60
(g76
g62
NtRp371
(dp372
g65
(dp373
sg74
g262
sg67
(lp374
g60
(g81
g62
NtRp375
(dp376
g65
(dp377
g85
g86
ssg74
g371
sg67
(lp378
S'secure'
p379
asbag60
(g81
g62
NtRp380
(dp381
g65
(dp382
g92
g93
ssg74
g371
sg67
(lp383
S':'
asbag60
(g81
g62
NtRp384
(dp385
g65
(dp386
sg74
g371
sg67
(lp387
g60
(g61
g62
NtRp388
(dp389
g65
(dp390
g73
I3
ssg74
g384
sg67
(lp391
S''
asbasbasbag60
(g76
g62
NtRp392
(dp393
g65
(dp394
sg74
g262
sg67
(lp395
g60
(g81
g62
NtRp396
(dp397
g65
(dp398
g85
g86
ssg74
g392
sg67
(lp399
S'version'
p400
asbag60
(g81
g62
NtRp401
(dp402
g65
(dp403
g92
g93
ssg74
g392
sg67
(lp404
S':'
asbag60
(g81
g62
NtRp405
(dp406
g65
(dp407
sg74
g392
sg67
(lp408
g60
(g61
g62
NtRp409
(dp410
g65
(dp411
g73
I3
ssg74
g405
sg67
(lp412
S''
asbasbasbasbasbasbasbag60
(g76
g62
NtRp413
(dp414
g65
(dp415
sg74
g237
sg67
(lp416
g60
(g81
g62
NtRp417
(dp418
g65
(dp419
g85
g86
ssg74
g413
sg67
(lp420
S'session_id_borrar2'
p421
asbag60
(g81
g62
NtRp422
(dp423
g65
(dp424
g92
g93
ssg74
g413
sg67
(lp425
S':'
asbag60
(g81
g62
NtRp426
(dp427
g65
(dp428
sg74
g413
sg67
(lp429
g60
(g61
g62
NtRp430
(dp431
g65
(dp432
g73
I4
ssg74
g426
sg67
(lp433
g60
(g69
g62
NtRp434
(dp435
g65
(dp436
g73
I3
ssg74
Nsg67
(lp437
g60
(g76
g62
NtRp438
(dp439
g65
(dp440
sg74
g434
sg67
(lp441
g60
(g81
g62
NtRp442
(dp443
g65
(dp444
g85
g86
ssg74
g438
sg67
(lp445
g274
asbag60
(g81
g62
NtRp446
(dp447
g65
(dp448
g92
g93
ssg74
g438
sg67
(lp449
S':'
asbag60
(g81
g62
NtRp450
(dp451
g65
(dp452
sg74
g438
sg67
(lp453
g60
(g61
g62
NtRp454
(dp455
g65
(dp456
g73
I3
ssg74
g450
sg67
(lp457
S''
asbasbasbag60
(g76
g62
NtRp458
(dp459
g65
(dp460
sg74
g434
sg67
(lp461
g60
(g81
g62
NtRp462
(dp463
g65
(dp464
g85
g86
ssg74
g458
sg67
(lp465
g295
asbag60
(g81
g62
NtRp466
(dp467
g65
(dp468
g92
g93
ssg74
g458
sg67
(lp469
S':'
asbag60
(g81
g62
NtRp470
(dp471
g65
(dp472
sg74
g458
sg67
(lp473
g60
(g61
g62
NtRp474
(dp475
g65
(dp476
g73
I3
ssg74
g470
sg67
(lp477
S''
asbasbasbag60
(g76
g62
NtRp478
(dp479
g65
(dp480
sg74
g434
sg67
(lp481
g60
(g81
g62
NtRp482
(dp483
g65
(dp484
g85
g86
ssg74
g478
sg67
(lp485
g316
asbag60
(g81
g62
NtRp486
(dp487
g65
(dp488
g92
g93
ssg74
g478
sg67
(lp489
S':'
asbag60
(g81
g62
NtRp490
(dp491
g65
(dp492
sg74
g478
sg67
(lp493
g60
(g61
g62
NtRp494
(dp495
g65
(dp496
g73
I3
ssg74
g490
sg67
(lp497
S''
asbasbasbag60
(g76
g62
NtRp498
(dp499
g65
(dp500
sg74
g434
sg67
(lp501
g60
(g81
g62
NtRp502
(dp503
g65
(dp504
g85
g86
ssg74
g498
sg67
(lp505
g337
asbag60
(g81
g62
NtRp506
(dp507
g65
(dp508
g92
g93
ssg74
g498
sg67
(lp509
S':'
asbag60
(g81
g62
NtRp510
(dp511
g65
(dp512
sg74
g498
sg67
(lp513
g60
(g61
g62
NtRp514
(dp515
g65
(dp516
g73
I3
ssg74
g510
sg67
(lp517
S''
asbasbasbag60
(g76
g62
NtRp518
(dp519
g65
(dp520
sg74
g434
sg67
(lp521
g60
(g81
g62
NtRp522
(dp523
g65
(dp524
g85
g86
ssg74
g518
sg67
(lp525
g358
asbag60
(g81
g62
NtRp526
(dp527
g65
(dp528
g92
g93
ssg74
g518
sg67
(lp529
S':'
asbag60
(g81
g62
NtRp530
(dp531
g65
(dp532
sg74
g518
sg67
(lp533
g60
(g61
g62
NtRp534
(dp535
g65
(dp536
g73
I3
ssg74
g530
sg67
(lp537
S''
asbasbasbag60
(g76
g62
NtRp538
(dp539
g65
(dp540
sg74
g434
sg67
(lp541
g60
(g81
g62
NtRp542
(dp543
g65
(dp544
g85
g86
ssg74
g538
sg67
(lp545
g379
asbag60
(g81
g62
NtRp546
(dp547
g65
(dp548
g92
g93
ssg74
g538
sg67
(lp549
S':'
asbag60
(g81
g62
NtRp550
(dp551
g65
(dp552
sg74
g538
sg67
(lp553
g60
(g61
g62
NtRp554
(dp555
g65
(dp556
g73
I3
ssg74
g550
sg67
(lp557
S''
asbasbasbag60
(g76
g62
NtRp558
(dp559
g65
(dp560
sg74
g434
sg67
(lp561
g60
(g81
g62
NtRp562
(dp563
g65
(dp564
g85
g86
ssg74
g558
sg67
(lp565
g400
asbag60
(g81
g62
NtRp566
(dp567
g65
(dp568
g92
g93
ssg74
g558
sg67
(lp569
S':'
asbag60
(g81
g62
NtRp570
(dp571
g65
(dp572
sg74
g558
sg67
(lp573
g60
(g61
g62
NtRp574
(dp575
g65
(dp576
g73
I3
ssg74
g570
sg67
(lp577
S''
asbasbasbasbasbasbasbag60
(g76
g62
NtRp578
(dp579
g65
(dp580
sg74
g237
sg67
(lp581
g60
(g81
g62
NtRp582
(dp583
g65
(dp584
g85
g86
ssg74
g578
sg67
(lp585
S'session_id_cual_es_tu_nombre'
p586
asbag60
(g81
g62
NtRp587
(dp588
g65
(dp589
g92
g93
ssg74
g578
sg67
(lp590
S':'
asbag60
(g81
g62
NtRp591
(dp592
g65
(dp593
sg74
g578
sg67
(lp594
g60
(g61
g62
NtRp595
(dp596
g65
(dp597
g73
I4
ssg74
g591
sg67
(lp598
g60
(g69
g62
NtRp599
(dp600
g65
(dp601
g73
I3
ssg74
Nsg67
(lp602
g60
(g76
g62
NtRp603
(dp604
g65
(dp605
sg74
g599
sg67
(lp606
g60
(g81
g62
NtRp607
(dp608
g65
(dp609
g85
g86
ssg74
g603
sg67
(lp610
g274
asbag60
(g81
g62
NtRp611
(dp612
g65
(dp613
g92
g93
ssg74
g603
sg67
(lp614
S':'
asbag60
(g81
g62
NtRp615
(dp616
g65
(dp617
sg74
g603
sg67
(lp618
g60
(g61
g62
NtRp619
(dp620
g65
(dp621
g73
I3
ssg74
g615
sg67
(lp622
S''
asbasbasbag60
(g76
g62
NtRp623
(dp624
g65
(dp625
sg74
g599
sg67
(lp626
g60
(g81
g62
NtRp627
(dp628
g65
(dp629
g85
g86
ssg74
g623
sg67
(lp630
g295
asbag60
(g81
g62
NtRp631
(dp632
g65
(dp633
g92
g93
ssg74
g623
sg67
(lp634
S':'
asbag60
(g81
g62
NtRp635
(dp636
g65
(dp637
sg74
g623
sg67
(lp638
g60
(g61
g62
NtRp639
(dp640
g65
(dp641
g73
I3
ssg74
g635
sg67
(lp642
S''
asbasbasbag60
(g76
g62
NtRp643
(dp644
g65
(dp645
sg74
g599
sg67
(lp646
g60
(g81
g62
NtRp647
(dp648
g65
(dp649
g85
g86
ssg74
g643
sg67
(lp650
g316
asbag60
(g81
g62
NtRp651
(dp652
g65
(dp653
g92
g93
ssg74
g643
sg67
(lp654
S':'
asbag60
(g81
g62
NtRp655
(dp656
g65
(dp657
sg74
g643
sg67
(lp658
g60
(g61
g62
NtRp659
(dp660
g65
(dp661
g73
I3
ssg74
g655
sg67
(lp662
S''
asbasbasbag60
(g76
g62
NtRp663
(dp664
g65
(dp665
sg74
g599
sg67
(lp666
g60
(g81
g62
NtRp667
(dp668
g65
(dp669
g85
g86
ssg74
g663
sg67
(lp670
g337
asbag60
(g81
g62
NtRp671
(dp672
g65
(dp673
g92
g93
ssg74
g663
sg67
(lp674
S':'
asbag60
(g81
g62
NtRp675
(dp676
g65
(dp677
sg74
g663
sg67
(lp678
g60
(g61
g62
NtRp679
(dp680
g65
(dp681
g73
I3
ssg74
g675
sg67
(lp682
S''
asbasbasbag60
(g76
g62
NtRp683
(dp684
g65
(dp685
sg74
g599
sg67
(lp686
g60
(g81
g62
NtRp687
(dp688
g65
(dp689
g85
g86
ssg74
g683
sg67
(lp690
g358
asbag60
(g81
g62
NtRp691
(dp692
g65
(dp693
g92
g93
ssg74
g683
sg67
(lp694
S':'
asbag60
(g81
g62
NtRp695
(dp696
g65
(dp697
sg74
g683
sg67
(lp698
g60
(g61
g62
NtRp699
(dp700
g65
(dp701
g73
I3
ssg74
g695
sg67
(lp702
S''
asbasbasbag60
(g76
g62
NtRp703
(dp704
g65
(dp705
sg74
g599
sg67
(lp706
g60
(g81
g62
NtRp707
(dp708
g65
(dp709
g85
g86
ssg74
g703
sg67
(lp710
g379
asbag60
(g81
g62
NtRp711
(dp712
g65
(dp713
g92
g93
ssg74
g703
sg67
(lp714
S':'
asbag60
(g81
g62
NtRp715
(dp716
g65
(dp717
sg74
g703
sg67
(lp718
g60
(g61
g62
NtRp719
(dp720
g65
(dp721
g73
I3
ssg74
g715
sg67
(lp722
S''
asbasbasbag60
(g76
g62
NtRp723
(dp724
g65
(dp725
sg74
g599
sg67
(lp726
g60
(g81
g62
NtRp727
(dp728
g65
(dp729
g85
g86
ssg74
g723
sg67
(lp730
g400
asbag60
(g81
g62
NtRp731
(dp732
g65
(dp733
g92
g93
ssg74
g723
sg67
(lp734
S':'
asbag60
(g81
g62
NtRp735
(dp736
g65
(dp737
sg74
g723
sg67
(lp738
g60
(g61
g62
NtRp739
(dp740
g65
(dp741
g73
I3
ssg74
g735
sg67
(lp742
S''
asbasbasbasbasbasbasbag60
(g76
g62
NtRp743
(dp744
g65
(dp745
sg74
g237
sg67
(lp746
g60
(g81
g62
NtRp747
(dp748
g65
(dp749
g85
g86
ssg74
g743
sg67
(lp750
S'session_id_desglosar_emails'
p751
asbag60
(g81
g62
NtRp752
(dp753
g65
(dp754
g92
g93
ssg74
g743
sg67
(lp755
S':'
asbag60
(g81
g62
NtRp756
(dp757
g65
(dp758
sg74
g743
sg67
(lp759
g60
(g61
g62
NtRp760
(dp761
g65
(dp762
g73
I4
ssg74
g756
sg67
(lp763
g60
(g69
g62
NtRp764
(dp765
g65
(dp766
g73
I3
ssg74
Nsg67
(lp767
g60
(g76
g62
NtRp768
(dp769
g65
(dp770
sg74
g764
sg67
(lp771
g60
(g81
g62
NtRp772
(dp773
g65
(dp774
g85
g86
ssg74
g768
sg67
(lp775
g274
asbag60
(g81
g62
NtRp776
(dp777
g65
(dp778
g92
g93
ssg74
g768
sg67
(lp779
S':'
asbag60
(g81
g62
NtRp780
(dp781
g65
(dp782
sg74
g768
sg67
(lp783
g60
(g61
g62
NtRp784
(dp785
g65
(dp786
g73
I3
ssg74
g780
sg67
(lp787
S''
asbasbasbag60
(g76
g62
NtRp788
(dp789
g65
(dp790
sg74
g764
sg67
(lp791
g60
(g81
g62
NtRp792
(dp793
g65
(dp794
g85
g86
ssg74
g788
sg67
(lp795
g295
asbag60
(g81
g62
NtRp796
(dp797
g65
(dp798
g92
g93
ssg74
g788
sg67
(lp799
S':'
asbag60
(g81
g62
NtRp800
(dp801
g65
(dp802
sg74
g788
sg67
(lp803
g60
(g61
g62
NtRp804
(dp805
g65
(dp806
g73
I3
ssg74
g800
sg67
(lp807
S''
asbasbasbag60
(g76
g62
NtRp808
(dp809
g65
(dp810
sg74
g764
sg67
(lp811
g60
(g81
g62
NtRp812
(dp813
g65
(dp814
g85
g86
ssg74
g808
sg67
(lp815
g316
asbag60
(g81
g62
NtRp816
(dp817
g65
(dp818
g92
g93
ssg74
g808
sg67
(lp819
S':'
asbag60
(g81
g62
NtRp820
(dp821
g65
(dp822
sg74
g808
sg67
(lp823
g60
(g61
g62
NtRp824
(dp825
g65
(dp826
g73
I3
ssg74
g820
sg67
(lp827
S''
asbasbasbag60
(g76
g62
NtRp828
(dp829
g65
(dp830
sg74
g764
sg67
(lp831
g60
(g81
g62
NtRp832
(dp833
g65
(dp834
g85
g86
ssg74
g828
sg67
(lp835
g337
asbag60
(g81
g62
NtRp836
(dp837
g65
(dp838
g92
g93
ssg74
g828
sg67
(lp839
S':'
asbag60
(g81
g62
NtRp840
(dp841
g65
(dp842
sg74
g828
sg67
(lp843
g60
(g61
g62
NtRp844
(dp845
g65
(dp846
g73
I3
ssg74
g840
sg67
(lp847
S''
asbasbasbag60
(g76
g62
NtRp848
(dp849
g65
(dp850
sg74
g764
sg67
(lp851
g60
(g81
g62
NtRp852
(dp853
g65
(dp854
g85
g86
ssg74
g848
sg67
(lp855
g358
asbag60
(g81
g62
NtRp856
(dp857
g65
(dp858
g92
g93
ssg74
g848
sg67
(lp859
S':'
asbag60
(g81
g62
NtRp860
(dp861
g65
(dp862
sg74
g848
sg67
(lp863
g60
(g61
g62
NtRp864
(dp865
g65
(dp866
g73
I3
ssg74
g860
sg67
(lp867
S''
asbasbasbag60
(g76
g62
NtRp868
(dp869
g65
(dp870
sg74
g764
sg67
(lp871
g60
(g81
g62
NtRp872
(dp873
g65
(dp874
g85
g86
ssg74
g868
sg67
(lp875
g379
asbag60
(g81
g62
NtRp876
(dp877
g65
(dp878
g92
g93
ssg74
g868
sg67
(lp879
S':'
asbag60
(g81
g62
NtRp880
(dp881
g65
(dp882
sg74
g868
sg67
(lp883
g60
(g61
g62
NtRp884
(dp885
g65
(dp886
g73
I3
ssg74
g880
sg67
(lp887
S''
asbasbasbag60
(g76
g62
NtRp888
(dp889
g65
(dp890
sg74
g764
sg67
(lp891
g60
(g81
g62
NtRp892
(dp893
g65
(dp894
g85
g86
ssg74
g888
sg67
(lp895
g400
asbag60
(g81
g62
NtRp896
(dp897
g65
(dp898
g92
g93
ssg74
g888
sg67
(lp899
S':'
asbag60
(g81
g62
NtRp900
(dp901
g65
(dp902
sg74
g888
sg67
(lp903
g60
(g61
g62
NtRp904
(dp905
g65
(dp906
g73
I3
ssg74
g900
sg67
(lp907
S''
asbasbasbasbasbasbasbag60
(g76
g62
NtRp908
(dp909
g65
(dp910
sg74
g237
sg67
(lp911
g60
(g81
g62
NtRp912
(dp913
g65
(dp914
g85
g86
ssg74
g908
sg67
(lp915
S'session_id_hemoal'
p916
asbag60
(g81
g62
NtRp917
(dp918
g65
(dp919
g92
g93
ssg74
g908
sg67
(lp920
S':'
asbag60
(g81
g62
NtRp921
(dp922
g65
(dp923
sg74
g908
sg67
(lp924
g60
(g61
g62
NtRp925
(dp926
g65
(dp927
g73
I4
ssg74
g921
sg67
(lp928
g60
(g69
g62
NtRp929
(dp930
g65
(dp931
g73
I3
ssg74
Nsg67
(lp932
g60
(g76
g62
NtRp933
(dp934
g65
(dp935
sg74
g929
sg67
(lp936
g60
(g81
g62
NtRp937
(dp938
g65
(dp939
g85
g86
ssg74
g933
sg67
(lp940
g274
asbag60
(g81
g62
NtRp941
(dp942
g65
(dp943
g92
g93
ssg74
g933
sg67
(lp944
S':'
asbag60
(g81
g62
NtRp945
(dp946
g65
(dp947
sg74
g933
sg67
(lp948
g60
(g61
g62
NtRp949
(dp950
g65
(dp951
g73
I3
ssg74
g945
sg67
(lp952
S''
asbasbasbag60
(g76
g62
NtRp953
(dp954
g65
(dp955
sg74
g929
sg67
(lp956
g60
(g81
g62
NtRp957
(dp958
g65
(dp959
g85
g86
ssg74
g953
sg67
(lp960
g295
asbag60
(g81
g62
NtRp961
(dp962
g65
(dp963
g92
g93
ssg74
g953
sg67
(lp964
S':'
asbag60
(g81
g62
NtRp965
(dp966
g65
(dp967
sg74
g953
sg67
(lp968
g60
(g61
g62
NtRp969
(dp970
g65
(dp971
g73
I3
ssg74
g965
sg67
(lp972
S''
asbasbasbag60
(g76
g62
NtRp973
(dp974
g65
(dp975
sg74
g929
sg67
(lp976
g60
(g81
g62
NtRp977
(dp978
g65
(dp979
g85
g86
ssg74
g973
sg67
(lp980
g316
asbag60
(g81
g62
NtRp981
(dp982
g65
(dp983
g92
g93
ssg74
g973
sg67
(lp984
S':'
asbag60
(g81
g62
NtRp985
(dp986
g65
(dp987
sg74
g973
sg67
(lp988
g60
(g61
g62
NtRp989
(dp990
g65
(dp991
g73
I3
ssg74
g985
sg67
(lp992
S''
asbasbasbag60
(g76
g62
NtRp993
(dp994
g65
(dp995
sg74
g929
sg67
(lp996
g60
(g81
g62
NtRp997
(dp998
g65
(dp999
g85
g86
ssg74
g993
sg67
(lp1000
g337
asbag60
(g81
g62
NtRp1001
(dp1002
g65
(dp1003
g92
g93
ssg74
g993
sg67
(lp1004
S':'
asbag60
(g81
g62
NtRp1005
(dp1006
g65
(dp1007
sg74
g993
sg67
(lp1008
g60
(g61
g62
NtRp1009
(dp1010
g65
(dp1011
g73
I3
ssg74
g1005
sg67
(lp1012
S''
asbasbasbag60
(g76
g62
NtRp1013
(dp1014
g65
(dp1015
sg74
g929
sg67
(lp1016
g60
(g81
g62
NtRp1017
(dp1018
g65
(dp1019
g85
g86
ssg74
g1013
sg67
(lp1020
g358
asbag60
(g81
g62
NtRp1021
(dp1022
g65
(dp1023
g92
g93
ssg74
g1013
sg67
(lp1024
S':'
asbag60
(g81
g62
NtRp1025
(dp1026
g65
(dp1027
sg74
g1013
sg67
(lp1028
g60
(g61
g62
NtRp1029
(dp1030
g65
(dp1031
g73
I3
ssg74
g1025
sg67
(lp1032
S''
asbasbasbag60
(g76
g62
NtRp1033
(dp1034
g65
(dp1035
sg74
g929
sg67
(lp1036
g60
(g81
g62
NtRp1037
(dp1038
g65
(dp1039
g85
g86
ssg74
g1033
sg67
(lp1040
g379
asbag60
(g81
g62
NtRp1041
(dp1042
g65
(dp1043
g92
g93
ssg74
g1033
sg67
(lp1044
S':'
asbag60
(g81
g62
NtRp1045
(dp1046
g65
(dp1047
sg74
g1033
sg67
(lp1048
g60
(g61
g62
NtRp1049
(dp1050
g65
(dp1051
g73
I3
ssg74
g1045
sg67
(lp1052
S''
asbasbasbag60
(g76
g62
NtRp1053
(dp1054
g65
(dp1055
sg74
g929
sg67
(lp1056
g60
(g81
g62
NtRp1057
(dp1058
g65
(dp1059
g85
g86
ssg74
g1053
sg67
(lp1060
g400
asbag60
(g81
g62
NtRp1061
(dp1062
g65
(dp1063
g92
g93
ssg74
g1053
sg67
(lp1064
S':'
asbag60
(g81
g62
NtRp1065
(dp1066
g65
(dp1067
sg74
g1053
sg67
(lp1068
g60
(g61
g62
NtRp1069
(dp1070
g65
(dp1071
g73
I3
ssg74
g1065
sg67
(lp1072
S''
asbasbasbasbasbasbasbag60
(g76
g62
NtRp1073
(dp1074
g65
(dp1075
sg74
g237
sg67
(lp1076
g60
(g81
g62
NtRp1077
(dp1078
g65
(dp1079
g85
g86
ssg74
g1073
sg67
(lp1080
S'session_id_listado_1'
p1081
asbag60
(g81
g62
NtRp1082
(dp1083
g65
(dp1084
g92
g93
ssg74
g1073
sg67
(lp1085
S':'
asbag60
(g81
g62
NtRp1086
(dp1087
g65
(dp1088
sg74
g1073
sg67
(lp1089
g60
(g61
g62
NtRp1090
(dp1091
g65
(dp1092
g73
I4
ssg74
g1086
sg67
(lp1093
g60
(g69
g62
NtRp1094
(dp1095
g65
(dp1096
g73
I3
ssg74
Nsg67
(lp1097
g60
(g76
g62
NtRp1098
(dp1099
g65
(dp1100
sg74
g1094
sg67
(lp1101
g60
(g81
g62
NtRp1102
(dp1103
g65
(dp1104
g85
g86
ssg74
g1098
sg67
(lp1105
g274
asbag60
(g81
g62
NtRp1106
(dp1107
g65
(dp1108
g92
g93
ssg74
g1098
sg67
(lp1109
S':'
asbag60
(g81
g62
NtRp1110
(dp1111
g65
(dp1112
sg74
g1098
sg67
(lp1113
g60
(g61
g62
NtRp1114
(dp1115
g65
(dp1116
g73
I3
ssg74
g1110
sg67
(lp1117
S''
asbasbasbag60
(g76
g62
NtRp1118
(dp1119
g65
(dp1120
sg74
g1094
sg67
(lp1121
g60
(g81
g62
NtRp1122
(dp1123
g65
(dp1124
g85
g86
ssg74
g1118
sg67
(lp1125
g295
asbag60
(g81
g62
NtRp1126
(dp1127
g65
(dp1128
g92
g93
ssg74
g1118
sg67
(lp1129
S':'
asbag60
(g81
g62
NtRp1130
(dp1131
g65
(dp1132
sg74
g1118
sg67
(lp1133
g60
(g61
g62
NtRp1134
(dp1135
g65
(dp1136
g73
I3
ssg74
g1130
sg67
(lp1137
S''
asbasbasbag60
(g76
g62
NtRp1138
(dp1139
g65
(dp1140
sg74
g1094
sg67
(lp1141
g60
(g81
g62
NtRp1142
(dp1143
g65
(dp1144
g85
g86
ssg74
g1138
sg67
(lp1145
g316
asbag60
(g81
g62
NtRp1146
(dp1147
g65
(dp1148
g92
g93
ssg74
g1138
sg67
(lp1149
S':'
asbag60
(g81
g62
NtRp1150
(dp1151
g65
(dp1152
sg74
g1138
sg67
(lp1153
g60
(g61
g62
NtRp1154
(dp1155
g65
(dp1156
g73
I3
ssg74
g1150
sg67
(lp1157
S''
asbasbasbag60
(g76
g62
NtRp1158
(dp1159
g65
(dp1160
sg74
g1094
sg67
(lp1161
g60
(g81
g62
NtRp1162
(dp1163
g65
(dp1164
g85
g86
ssg74
g1158
sg67
(lp1165
g337
asbag60
(g81
g62
NtRp1166
(dp1167
g65
(dp1168
g92
g93
ssg74
g1158
sg67
(lp1169
S':'
asbag60
(g81
g62
NtRp1170
(dp1171
g65
(dp1172
sg74
g1158
sg67
(lp1173
g60
(g61
g62
NtRp1174
(dp1175
g65
(dp1176
g73
I3
ssg74
g1170
sg67
(lp1177
S''
asbasbasbag60
(g76
g62
NtRp1178
(dp1179
g65
(dp1180
sg74
g1094
sg67
(lp1181
g60
(g81
g62
NtRp1182
(dp1183
g65
(dp1184
g85
g86
ssg74
g1178
sg67
(lp1185
g358
asbag60
(g81
g62
NtRp1186
(dp1187
g65
(dp1188
g92
g93
ssg74
g1178
sg67
(lp1189
S':'
asbag60
(g81
g62
NtRp1190
(dp1191
g65
(dp1192
sg74
g1178
sg67
(lp1193
g60
(g61
g62
NtRp1194
(dp1195
g65
(dp1196
g73
I3
ssg74
g1190
sg67
(lp1197
S''
asbasbasbag60
(g76
g62
NtRp1198
(dp1199
g65
(dp1200
sg74
g1094
sg67
(lp1201
g60
(g81
g62
NtRp1202
(dp1203
g65
(dp1204
g85
g86
ssg74
g1198
sg67
(lp1205
g379
asbag60
(g81
g62
NtRp1206
(dp1207
g65
(dp1208
g92
g93
ssg74
g1198
sg67
(lp1209
S':'
asbag60
(g81
g62
NtRp1210
(dp1211
g65
(dp1212
sg74
g1198
sg67
(lp1213
g60
(g61
g62
NtRp1214
(dp1215
g65
(dp1216
g73
I3
ssg74
g1210
sg67
(lp1217
S''
asbasbasbag60
(g76
g62
NtRp1218
(dp1219
g65
(dp1220
sg74
g1094
sg67
(lp1221
g60
(g81
g62
NtRp1222
(dp1223
g65
(dp1224
g85
g86
ssg74
g1218
sg67
(lp1225
g400
asbag60
(g81
g62
NtRp1226
(dp1227
g65
(dp1228
g92
g93
ssg74
g1218
sg67
(lp1229
S':'
asbag60
(g81
g62
NtRp1230
(dp1231
g65
(dp1232
sg74
g1218
sg67
(lp1233
g60
(g61
g62
NtRp1234
(dp1235
g65
(dp1236
g73
I3
ssg74
g1230
sg67
(lp1237
S''
asbasbasbasbasbasbasbag60
(g76
g62
NtRp1238
(dp1239
g65
(dp1240
sg74
g237
sg67
(lp1241
g60
(g81
g62
NtRp1242
(dp1243
g65
(dp1244
g85
g86
ssg74
g1238
sg67
(lp1245
S'session_id_myappjav'
p1246
asbag60
(g81
g62
NtRp1247
(dp1248
g65
(dp1249
g92
g93
ssg74
g1238
sg67
(lp1250
S':'
asbag60
(g81
g62
NtRp1251
(dp1252
g65
(dp1253
sg74
g1238
sg67
(lp1254
g60
(g61
g62
NtRp1255
(dp1256
g65
(dp1257
g73
I4
ssg74
g1251
sg67
(lp1258
g60
(g69
g62
NtRp1259
(dp1260
g65
(dp1261
g73
I3
ssg74
Nsg67
(lp1262
g60
(g76
g62
NtRp1263
(dp1264
g65
(dp1265
sg74
g1259
sg67
(lp1266
g60
(g81
g62
NtRp1267
(dp1268
g65
(dp1269
g85
g86
ssg74
g1263
sg67
(lp1270
g274
asbag60
(g81
g62
NtRp1271
(dp1272
g65
(dp1273
g92
g93
ssg74
g1263
sg67
(lp1274
S':'
asbag60
(g81
g62
NtRp1275
(dp1276
g65
(dp1277
sg74
g1263
sg67
(lp1278
g60
(g61
g62
NtRp1279
(dp1280
g65
(dp1281
g73
I3
ssg74
g1275
sg67
(lp1282
S''
asbasbasbag60
(g76
g62
NtRp1283
(dp1284
g65
(dp1285
sg74
g1259
sg67
(lp1286
g60
(g81
g62
NtRp1287
(dp1288
g65
(dp1289
g85
g86
ssg74
g1283
sg67
(lp1290
g295
asbag60
(g81
g62
NtRp1291
(dp1292
g65
(dp1293
g92
g93
ssg74
g1283
sg67
(lp1294
S':'
asbag60
(g81
g62
NtRp1295
(dp1296
g65
(dp1297
sg74
g1283
sg67
(lp1298
g60
(g61
g62
NtRp1299
(dp1300
g65
(dp1301
g73
I3
ssg74
g1295
sg67
(lp1302
S''
asbasbasbag60
(g76
g62
NtRp1303
(dp1304
g65
(dp1305
sg74
g1259
sg67
(lp1306
g60
(g81
g62
NtRp1307
(dp1308
g65
(dp1309
g85
g86
ssg74
g1303
sg67
(lp1310
g316
asbag60
(g81
g62
NtRp1311
(dp1312
g65
(dp1313
g92
g93
ssg74
g1303
sg67
(lp1314
S':'
asbag60
(g81
g62
NtRp1315
(dp1316
g65
(dp1317
sg74
g1303
sg67
(lp1318
g60
(g61
g62
NtRp1319
(dp1320
g65
(dp1321
g73
I3
ssg74
g1315
sg67
(lp1322
S''
asbasbasbag60
(g76
g62
NtRp1323
(dp1324
g65
(dp1325
sg74
g1259
sg67
(lp1326
g60
(g81
g62
NtRp1327
(dp1328
g65
(dp1329
g85
g86
ssg74
g1323
sg67
(lp1330
g337
asbag60
(g81
g62
NtRp1331
(dp1332
g65
(dp1333
g92
g93
ssg74
g1323
sg67
(lp1334
S':'
asbag60
(g81
g62
NtRp1335
(dp1336
g65
(dp1337
sg74
g1323
sg67
(lp1338
g60
(g61
g62
NtRp1339
(dp1340
g65
(dp1341
g73
I3
ssg74
g1335
sg67
(lp1342
S''
asbasbasbag60
(g76
g62
NtRp1343
(dp1344
g65
(dp1345
sg74
g1259
sg67
(lp1346
g60
(g81
g62
NtRp1347
(dp1348
g65
(dp1349
g85
g86
ssg74
g1343
sg67
(lp1350
g358
asbag60
(g81
g62
NtRp1351
(dp1352
g65
(dp1353
g92
g93
ssg74
g1343
sg67
(lp1354
S':'
asbag60
(g81
g62
NtRp1355
(dp1356
g65
(dp1357
sg74
g1343
sg67
(lp1358
g60
(g61
g62
NtRp1359
(dp1360
g65
(dp1361
g73
I3
ssg74
g1355
sg67
(lp1362
S''
asbasbasbag60
(g76
g62
NtRp1363
(dp1364
g65
(dp1365
sg74
g1259
sg67
(lp1366
g60
(g81
g62
NtRp1367
(dp1368
g65
(dp1369
g85
g86
ssg74
g1363
sg67
(lp1370
g379
asbag60
(g81
g62
NtRp1371
(dp1372
g65
(dp1373
g92
g93
ssg74
g1363
sg67
(lp1374
S':'
asbag60
(g81
g62
NtRp1375
(dp1376
g65
(dp1377
sg74
g1363
sg67
(lp1378
g60
(g61
g62
NtRp1379
(dp1380
g65
(dp1381
g73
I3
ssg74
g1375
sg67
(lp1382
S''
asbasbasbag60
(g76
g62
NtRp1383
(dp1384
g65
(dp1385
sg74
g1259
sg67
(lp1386
g60
(g81
g62
NtRp1387
(dp1388
g65
(dp1389
g85
g86
ssg74
g1383
sg67
(lp1390
g400
asbag60
(g81
g62
NtRp1391
(dp1392
g65
(dp1393
g92
g93
ssg74
g1383
sg67
(lp1394
S':'
asbag60
(g81
g62
NtRp1395
(dp1396
g65
(dp1397
sg74
g1383
sg67
(lp1398
g60
(g61
g62
NtRp1399
(dp1400
g65
(dp1401
g73
I3
ssg74
g1395
sg67
(lp1402
S''
asbasbasbasbasbasbasbag60
(g76
g62
NtRp1403
(dp1404
g65
(dp1405
sg74
g237
sg67
(lp1406
g60
(g81
g62
NtRp1407
(dp1408
g65
(dp1409
g85
g86
ssg74
g1403
sg67
(lp1410
S'session_id_welcome'
p1411
asbag60
(g81
g62
NtRp1412
(dp1413
g65
(dp1414
g92
g93
ssg74
g1403
sg67
(lp1415
S':'
asbag60
(g81
g62
NtRp1416
(dp1417
g65
(dp1418
sg74
g1403
sg67
(lp1419
g60
(g61
g62
NtRp1420
(dp1421
g65
(dp1422
g73
I4
ssg74
g1416
sg67
(lp1423
g60
(g69
g62
NtRp1424
(dp1425
g65
(dp1426
g73
I3
ssg74
Nsg67
(lp1427
g60
(g76
g62
NtRp1428
(dp1429
g65
(dp1430
sg74
g1424
sg67
(lp1431
g60
(g81
g62
NtRp1432
(dp1433
g65
(dp1434
g85
g86
ssg74
g1428
sg67
(lp1435
g274
asbag60
(g81
g62
NtRp1436
(dp1437
g65
(dp1438
g92
g93
ssg74
g1428
sg67
(lp1439
S':'
asbag60
(g81
g62
NtRp1440
(dp1441
g65
(dp1442
sg74
g1428
sg67
(lp1443
g60
(g61
g62
NtRp1444
(dp1445
g65
(dp1446
g73
I3
ssg74
g1440
sg67
(lp1447
S''
asbasbasbag60
(g76
g62
NtRp1448
(dp1449
g65
(dp1450
sg74
g1424
sg67
(lp1451
g60
(g81
g62
NtRp1452
(dp1453
g65
(dp1454
g85
g86
ssg74
g1448
sg67
(lp1455
g295
asbag60
(g81
g62
NtRp1456
(dp1457
g65
(dp1458
g92
g93
ssg74
g1448
sg67
(lp1459
S':'
asbag60
(g81
g62
NtRp1460
(dp1461
g65
(dp1462
sg74
g1448
sg67
(lp1463
g60
(g61
g62
NtRp1464
(dp1465
g65
(dp1466
g73
I3
ssg74
g1460
sg67
(lp1467
S''
asbasbasbag60
(g76
g62
NtRp1468
(dp1469
g65
(dp1470
sg74
g1424
sg67
(lp1471
g60
(g81
g62
NtRp1472
(dp1473
g65
(dp1474
g85
g86
ssg74
g1468
sg67
(lp1475
g316
asbag60
(g81
g62
NtRp1476
(dp1477
g65
(dp1478
g92
g93
ssg74
g1468
sg67
(lp1479
S':'
asbag60
(g81
g62
NtRp1480
(dp1481
g65
(dp1482
sg74
g1468
sg67
(lp1483
g60
(g61
g62
NtRp1484
(dp1485
g65
(dp1486
g73
I3
ssg74
g1480
sg67
(lp1487
S''
asbasbasbag60
(g76
g62
NtRp1488
(dp1489
g65
(dp1490
sg74
g1424
sg67
(lp1491
g60
(g81
g62
NtRp1492
(dp1493
g65
(dp1494
g85
g86
ssg74
g1488
sg67
(lp1495
g337
asbag60
(g81
g62
NtRp1496
(dp1497
g65
(dp1498
g92
g93
ssg74
g1488
sg67
(lp1499
S':'
asbag60
(g81
g62
NtRp1500
(dp1501
g65
(dp1502
sg74
g1488
sg67
(lp1503
g60
(g61
g62
NtRp1504
(dp1505
g65
(dp1506
g73
I3
ssg74
g1500
sg67
(lp1507
S''
asbasbasbag60
(g76
g62
NtRp1508
(dp1509
g65
(dp1510
sg74
g1424
sg67
(lp1511
g60
(g81
g62
NtRp1512
(dp1513
g65
(dp1514
g85
g86
ssg74
g1508
sg67
(lp1515
g358
asbag60
(g81
g62
NtRp1516
(dp1517
g65
(dp1518
g92
g93
ssg74
g1508
sg67
(lp1519
S':'
asbag60
(g81
g62
NtRp1520
(dp1521
g65
(dp1522
sg74
g1508
sg67
(lp1523
g60
(g61
g62
NtRp1524
(dp1525
g65
(dp1526
g73
I3
ssg74
g1520
sg67
(lp1527
S''
asbasbasbag60
(g76
g62
NtRp1528
(dp1529
g65
(dp1530
sg74
g1424
sg67
(lp1531
g60
(g81
g62
NtRp1532
(dp1533
g65
(dp1534
g85
g86
ssg74
g1528
sg67
(lp1535
g379
asbag60
(g81
g62
NtRp1536
(dp1537
g65
(dp1538
g92
g93
ssg74
g1528
sg67
(lp1539
S':'
asbag60
(g81
g62
NtRp1540
(dp1541
g65
(dp1542
sg74
g1528
sg67
(lp1543
g60
(g61
g62
NtRp1544
(dp1545
g65
(dp1546
g73
I3
ssg74
g1540
sg67
(lp1547
S''
asbasbasbag60
(g76
g62
NtRp1548
(dp1549
g65
(dp1550
sg74
g1424
sg67
(lp1551
g60
(g81
g62
NtRp1552
(dp1553
g65
(dp1554
g85
g86
ssg74
g1548
sg67
(lp1555
g400
asbag60
(g81
g62
NtRp1556
(dp1557
g65
(dp1558
g92
g93
ssg74
g1548
sg67
(lp1559
S':'
asbag60
(g81
g62
NtRp1560
(dp1561
g65
(dp1562
sg74
g1548
sg67
(lp1563
g60
(g61
g62
NtRp1564
(dp1565
g65
(dp1566
g73
I3
ssg74
g1560
sg67
(lp1567
S''
asbasbasbasbasbasbasbasbasbasbasbag60
(g76
g62
NtRp1568
(dp1569
g65
(dp1570
sg74
g70
sg67
(lp1571
g60
(g81
g62
NtRp1572
(dp1573
g65
(dp1574
g85
g86
ssg74
g1568
sg67
(lp1575
S'env'
p1576
asbag60
(g81
g62
NtRp1577
(dp1578
g65
(dp1579
g92
g93
ssg74
g1568
sg67
(lp1580
S':'
asbag60
(g81
g62
NtRp1581
(dp1582
g65
(dp1583
sg74
g1568
sg67
(lp1584
g60
(g61
g62
NtRp1585
(dp1586
g65
(dp1587
g73
I5
ssg74
g1581
sg67
(lp1588
g60
(g69
g62
NtRp1589
(dp1590
g65
(dp1591
g73
I4
ssg74
Nsg67
(lp1592
g60
(g76
g62
NtRp1593
(dp1594
g65
(dp1595
sg74
g1589
sg67
(lp1596
g60
(g81
g62
NtRp1597
(dp1598
g65
(dp1599
g85
g86
ssg74
g1593
sg67
(lp1600
S'app_folders'
p1601
asbag60
(g81
g62
NtRp1602
(dp1603
g65
(dp1604
g92
g93
ssg74
g1593
sg67
(lp1605
S':'
asbag60
(g81
g62
NtRp1606
(dp1607
g65
(dp1608
sg74
g1593
sg67
(lp1609
g60
(g61
g62
NtRp1610
(dp1611
g65
(dp1612
g73
I4
ssg74
g1606
sg67
(lp1613
S"set(['C:\\\\Users\\\\Atomico\\\\web2py\\\\applications\\\\Desglosar_Emails\\\\', 'C:\\\\Users\\\\Atomico\\\\web2py\\\\applications\\\\Cual_es_tu_nombre\\\\', 'C:\\\\Users\\\\Atomico\\\\web2py\\\\applications\\\\admin\\\\', 'C:\\\\Users\\\\Atomico\\\\web2py\\\\applications\\\\hemoal\\\\', 'C:\\\\Users\\\\Atomico\\\\web2py\\\\applications\\\\myAppJav\\\\', 'C:\\\\Users\\\\Atomico\\\\web2py\\\\applications\\\\welcome\\\\', 'C:\\\\Users\\\\Atomico\\\\web2py\\\\applications\\\\borrar2\\\\', 'C:\\\\Users\\\\Atomico\\\\web2py\\\\applications\\\\examples\\\\'])"
p1614
asbasbasbag60
(g76
g62
NtRp1615
(dp1616
g65
(dp1617
sg74
g1589
sg67
(lp1618
g60
(g81
g62
NtRp1619
(dp1620
g65
(dp1621
g85
g86
ssg74
g1615
sg67
(lp1622
S'applications_parent'
p1623
asbag60
(g81
g62
NtRp1624
(dp1625
g65
(dp1626
g92
g93
ssg74
g1615
sg67
(lp1627
S':'
asbag60
(g81
g62
NtRp1628
(dp1629
g65
(dp1630
sg74
g1615
sg67
(lp1631
g60
(g61
g62
NtRp1632
(dp1633
g65
(dp1634
g73
I4
ssg74
g1628
sg67
(lp1635
S'C:\\Users\\Atomico\\web2py'
p1636
asbasbasbag60
(g76
g62
NtRp1637
(dp1638
g65
(dp1639
sg74
g1589
sg67
(lp1640
g60
(g81
g62
NtRp1641
(dp1642
g65
(dp1643
g85
g86
ssg74
g1637
sg67
(lp1644
S'cmd_args'
p1645
asbag60
(g81
g62
NtRp1646
(dp1647
g65
(dp1648
g92
g93
ssg74
g1637
sg67
(lp1649
S':'
asbag60
(g81
g62
NtRp1650
(dp1651
g65
(dp1652
sg74
g1637
sg67
(lp1653
g60
(g61
g62
NtRp1654
(dp1655
g65
(dp1656
g73
I4
ssg74
g1650
sg67
(lp1657
g60
(g69
g62
NtRp1658
(dp1659
g65
(dp1660
g73
I3
ssg74
Nsg67
(lp1661
sbasbasbasbag60
(g76
g62
NtRp1662
(dp1663
g65
(dp1664
sg74
g1589
sg67
(lp1665
g60
(g81
g62
NtRp1666
(dp1667
g65
(dp1668
g85
g86
ssg74
g1662
sg67
(lp1669
S'cmd_options'
p1670
asbag60
(g81
g62
NtRp1671
(dp1672
g65
(dp1673
g92
g93
ssg74
g1662
sg67
(lp1674
S':'
asbag60
(g81
g62
NtRp1675
(dp1676
g65
(dp1677
sg74
g1662
sg67
(lp1678
g60
(g61
g62
NtRp1679
(dp1680
g65
(dp1681
g73
I4
ssg74
g1675
sg67
(lp1682
S"<Values at 0x306b620: {'verbose': False, 'ip': '127.0.0.1', 'shutdown_timeout': 5, 'taskbar': False, 'port': 8000, 'maxthreads': None, 'softcron': False, 'server_name': 'Swing', 'bpython': False, 'nogui': False, 'nocron': False, 'extcron': False, 'debuglevel': 30, 'test': None, 'folder': 'C:\\\\Users\\\\Atomico\\\\web2py', 'config': '', 'import_models': False, 'winservice': '', 'shell': None, 'run': '', 'log_filename': 'httpserver.log', 'args': [''], 'profiler_filename': None, 'ssl_private_key': '', 'password': '<ask>', 'request_queue_size': 5, 'ssl_certificate': '', 'cronjob': False, 'plain': False, 'quiet': False, 'interfaces': None, 'minthreads': None, 'timeout': 10, 'numthreads': None, 'nobanner': False, 'pid_filename': 'httpserver.pid'}>"
p1683
asbasbasbag60
(g76
g62
NtRp1684
(dp1685
g65
(dp1686
sg74
g1589
sg67
(lp1687
g60
(g81
g62
NtRp1688
(dp1689
g65
(dp1690
g85
g86
ssg74
g1684
sg67
(lp1691
S'db_sessions'
p1692
asbag60
(g81
g62
NtRp1693
(dp1694
g65
(dp1695
g92
g93
ssg74
g1684
sg67
(lp1696
S':'
asbag60
(g81
g62
NtRp1697
(dp1698
g65
(dp1699
sg74
g1684
sg67
(lp1700
g60
(g61
g62
NtRp1701
(dp1702
g65
(dp1703
g73
I4
ssg74
g1697
sg67
(lp1704
S'set([])'
p1705
asbasbasbag60
(g76
g62
NtRp1706
(dp1707
g65
(dp1708
sg74
g1589
sg67
(lp1709
g60
(g81
g62
NtRp1710
(dp1711
g65
(dp1712
g85
g86
ssg74
g1706
sg67
(lp1713
S'debugging'
p1714
asbag60
(g81
g62
NtRp1715
(dp1716
g65
(dp1717
g92
g93
ssg74
g1706
sg67
(lp1718
S':'
asbag60
(g81
g62
NtRp1719
(dp1720
g65
(dp1721
sg74
g1706
sg67
(lp1722
g60
(g61
g62
NtRp1723
(dp1724
g65
(dp1725
g73
I4
ssg74
g1719
sg67
(lp1726
g103
asbasbasbag60
(g76
g62
NtRp1727
(dp1728
g65
(dp1729
sg74
g1589
sg67
(lp1730
g60
(g81
g62
NtRp1731
(dp1732
g65
(dp1733
g85
g86
ssg74
g1727
sg67
(lp1734
S'gluon_parent'
p1735
asbag60
(g81
g62
NtRp1736
(dp1737
g65
(dp1738
g92
g93
ssg74
g1727
sg67
(lp1739
S':'
asbag60
(g81
g62
NtRp1740
(dp1741
g65
(dp1742
sg74
g1727
sg67
(lp1743
g60
(g61
g62
NtRp1744
(dp1745
g65
(dp1746
g73
I4
ssg74
g1740
sg67
(lp1747
S'C:\\Users\\Atomico\\web2py'
p1748
asbasbasbag60
(g76
g62
NtRp1749
(dp1750
g65
(dp1751
sg74
g1589
sg67
(lp1752
g60
(g81
g62
NtRp1753
(dp1754
g65
(dp1755
g85
g86
ssg74
g1749
sg67
(lp1756
S'http_accept'
p1757
asbag60
(g81
g62
NtRp1758
(dp1759
g65
(dp1760
g92
g93
ssg74
g1749
sg67
(lp1761
S':'
asbag60
(g81
g62
NtRp1762
(dp1763
g65
(dp1764
sg74
g1749
sg67
(lp1765
g60
(g61
g62
NtRp1766
(dp1767
g65
(dp1768
g73
I4
ssg74
g1762
sg67
(lp1769
S'text/html,application/xhtml+xml,application/xml;q=0.9,*/*;q=0.8'
p1770
asbasbasbag60
(g76
g62
NtRp1771
(dp1772
g65
(dp1773
sg74
g1589
sg67
(lp1774
g60
(g81
g62
NtRp1775
(dp1776
g65
(dp1777
g85
g86
ssg74
g1771
sg67
(lp1778
S'http_accept_charset'
p1779
asbag60
(g81
g62
NtRp1780
(dp1781
g65
(dp1782
g92
g93
ssg74
g1771
sg67
(lp1783
S':'
asbag60
(g81
g62
NtRp1784
(dp1785
g65
(dp1786
sg74
g1771
sg67
(lp1787
g60
(g61
g62
NtRp1788
(dp1789
g65
(dp1790
g73
I4
ssg74
g1784
sg67
(lp1791
S'ISO-8859-1,utf-8;q=0.7,*;q=0.7'
p1792
asbasbasbag60
(g76
g62
NtRp1793
(dp1794
g65
(dp1795
sg74
g1589
sg67
(lp1796
g60
(g81
g62
NtRp1797
(dp1798
g65
(dp1799
g85
g86
ssg74
g1793
sg67
(lp1800
S'http_accept_encoding'
p1801
asbag60
(g81
g62
NtRp1802
(dp1803
g65
(dp1804
g92
g93
ssg74
g1793
sg67
(lp1805
S':'
asbag60
(g81
g62
NtRp1806
(dp1807
g65
(dp1808
sg74
g1793
sg67
(lp1809
g60
(g61
g62
NtRp1810
(dp1811
g65
(dp1812
g73
I4
ssg74
g1806
sg67
(lp1813
S'gzip, deflate'
p1814
asbasbasbag60
(g76
g62
NtRp1815
(dp1816
g65
(dp1817
sg74
g1589
sg67
(lp1818
g60
(g81
g62
NtRp1819
(dp1820
g65
(dp1821
g85
g86
ssg74
g1815
sg67
(lp1822
S'http_accept_language'
p1823
asbag60
(g81
g62
NtRp1824
(dp1825
g65
(dp1826
g92
g93
ssg74
g1815
sg67
(lp1827
S':'
asbag60
(g81
g62
NtRp1828
(dp1829
g65
(dp1830
sg74
g1815
sg67
(lp1831
g60
(g61
g62
NtRp1832
(dp1833
g65
(dp1834
g73
I4
ssg74
g1828
sg67
(lp1835
S'es-es,es;q=0.8,en-us;q=0.5,en;q=0.3'
p1836
asbasbasbag60
(g76
g62
NtRp1837
(dp1838
g65
(dp1839
sg74
g1589
sg67
(lp1840
g60
(g81
g62
NtRp1841
(dp1842
g65
(dp1843
g85
g86
ssg74
g1837
sg67
(lp1844
S'http_cache_control'
p1845
asbag60
(g81
g62
NtRp1846
(dp1847
g65
(dp1848
g92
g93
ssg74
g1837
sg67
(lp1849
S':'
asbag60
(g81
g62
NtRp1850
(dp1851
g65
(dp1852
sg74
g1837
sg67
(lp1853
g60
(g61
g62
NtRp1854
(dp1855
g65
(dp1856
g73
I4
ssg74
g1850
sg67
(lp1857
S'max-age=0'
p1858
asbasbasbag60
(g76
g62
NtRp1859
(dp1860
g65
(dp1861
sg74
g1589
sg67
(lp1862
g60
(g81
g62
NtRp1863
(dp1864
g65
(dp1865
g85
g86
ssg74
g1859
sg67
(lp1866
S'http_connection'
p1867
asbag60
(g81
g62
NtRp1868
(dp1869
g65
(dp1870
g92
g93
ssg74
g1859
sg67
(lp1871
S':'
asbag60
(g81
g62
NtRp1872
(dp1873
g65
(dp1874
sg74
g1859
sg67
(lp1875
g60
(g61
g62
NtRp1876
(dp1877
g65
(dp1878
g73
I4
ssg74
g1872
sg67
(lp1879
S'keep-alive'
p1880
asbasbasbag60
(g76
g62
NtRp1881
(dp1882
g65
(dp1883
sg74
g1589
sg67
(lp1884
g60
(g81
g62
NtRp1885
(dp1886
g65
(dp1887
g85
g86
ssg74
g1881
sg67
(lp1888
S'http_cookie'
p1889
asbag60
(g81
g62
NtRp1890
(dp1891
g65
(dp1892
g92
g93
ssg74
g1881
sg67
(lp1893
S':'
asbag60
(g81
g62
NtRp1894
(dp1895
g65
(dp1896
sg74
g1881
sg67
(lp1897
g60
(g61
g62
NtRp1898
(dp1899
g65
(dp1900
g73
I4
ssg74
g1894
sg67
(lp1901
S'session_id_listado_1=127.0.0.1-477ec098-5436-4f6e-bfee-1a0bd88f6f9e; session_id_hemoal=127.0.0.1-442afb36-a73d-4692-979c-372017ada9e5; session_id_myappjav=127.0.0.1-b6da3776-a7b2-40a7-ab82-4eca2d3263a1; session_id_cual_es_tu_nombre=127.0.0.1-5e59e375-704d-4241-8b9c-5fd9f8c15773; session_id_welcome=127.0.0.1-082a2830-9bb6-4bfb-b2e2-4857b06c191e; session_id_borrar2=127.0.0.1-a9c92f68-d0b3-484c-889c-daaf25ccf891; session_id_admin=127.0.0.1-fa7dcb1d-044d-45ab-baf4-3f6c8db163e6; session_id_desglosar_emails=127.0.0.1-0a11b3b2-660c-433c-b71f-fc129286f26c'
p1902
asbasbasbag60
(g76
g62
NtRp1903
(dp1904
g65
(dp1905
sg74
g1589
sg67
(lp1906
g60
(g81
g62
NtRp1907
(dp1908
g65
(dp1909
g85
g86
ssg74
g1903
sg67
(lp1910
S'http_host'
p1911
asbag60
(g81
g62
NtRp1912
(dp1913
g65
(dp1914
g92
g93
ssg74
g1903
sg67
(lp1915
S':'
asbag60
(g81
g62
NtRp1916
(dp1917
g65
(dp1918
sg74
g1903
sg67
(lp1919
g60
(g61
g62
NtRp1920
(dp1921
g65
(dp1922
g73
I4
ssg74
g1916
sg67
(lp1923
S'127.0.0.1:8000'
p1924
asbasbasbag60
(g76
g62
NtRp1925
(dp1926
g65
(dp1927
sg74
g1589
sg67
(lp1928
g60
(g81
g62
NtRp1929
(dp1930
g65
(dp1931
g85
g86
ssg74
g1925
sg67
(lp1932
S'http_referer'
p1933
asbag60
(g81
g62
NtRp1934
(dp1935
g65
(dp1936
g92
g93
ssg74
g1925
sg67
(lp1937
S':'
asbag60
(g81
g62
NtRp1938
(dp1939
g65
(dp1940
sg74
g1925
sg67
(lp1941
g60
(g61
g62
NtRp1942
(dp1943
g65
(dp1944
g73
I4
ssg74
g1938
sg67
(lp1945
S'http://127.0.0.1:8000/admin/default/design/Desglosar_Emails'
p1946
asbasbasbag60
(g76
g62
NtRp1947
(dp1948
g65
(dp1949
sg74
g1589
sg67
(lp1950
g60
(g81
g62
NtRp1951
(dp1952
g65
(dp1953
g85
g86
ssg74
g1947
sg67
(lp1954
S'http_user_agent'
p1955
asbag60
(g81
g62
NtRp1956
(dp1957
g65
(dp1958
g92
g93
ssg74
g1947
sg67
(lp1959
S':'
asbag60
(g81
g62
NtRp1960
(dp1961
g65
(dp1962
sg74
g1947
sg67
(lp1963
g60
(g61
g62
NtRp1964
(dp1965
g65
(dp1966
g73
I4
ssg74
g1960
sg67
(lp1967
S'Mozilla/5.0 (Windows NT 6.1; WOW64; rv:6.0.2) Gecko/20100101 Firefox/6.0.2'
p1968
asbasbasbag60
(g76
g62
NtRp1969
(dp1970
g65
(dp1971
sg74
g1589
sg67
(lp1972
g60
(g81
g62
NtRp1973
(dp1974
g65
(dp1975
g85
g86
ssg74
g1969
sg67
(lp1976
S'is_jython'
p1977
asbag60
(g81
g62
NtRp1978
(dp1979
g65
(dp1980
g92
g93
ssg74
g1969
sg67
(lp1981
S':'
asbag60
(g81
g62
NtRp1982
(dp1983
g65
(dp1984
sg74
g1969
sg67
(lp1985
g60
(g61
g62
NtRp1986
(dp1987
g65
(dp1988
g73
I4
ssg74
g1982
sg67
(lp1989
g103
asbasbasbag60
(g76
g62
NtRp1990
(dp1991
g65
(dp1992
sg74
g1589
sg67
(lp1993
g60
(g81
g62
NtRp1994
(dp1995
g65
(dp1996
g85
g86
ssg74
g1990
sg67
(lp1997
S'path_info'
p1998
asbag60
(g81
g62
NtRp1999
(dp2000
g65
(dp2001
g92
g93
ssg74
g1990
sg67
(lp2002
S':'
asbag60
(g81
g62
NtRp2003
(dp2004
g65
(dp2005
sg74
g1990
sg67
(lp2006
g60
(g61
g62
NtRp2007
(dp2008
g65
(dp2009
g73
I4
ssg74
g2003
sg67
(lp2010
S'/Desglosar_Emails/default/entrada_mod3'
p2011
asbasbasbag60
(g76
g62
NtRp2012
(dp2013
g65
(dp2014
sg74
g1589
sg67
(lp2015
g60
(g81
g62
NtRp2016
(dp2017
g65
(dp2018
g85
g86
ssg74
g2012
sg67
(lp2019
S'query_string'
p2020
asbag60
(g81
g62
NtRp2021
(dp2022
g65
(dp2023
g92
g93
ssg74
g2012
sg67
(lp2024
S':'
asbag60
(g81
g62
NtRp2025
(dp2026
g65
(dp2027
sg74
g2012
sg67
(lp2028
g60
(g61
g62
NtRp2029
(dp2030
g65
(dp2031
g73
I4
ssg74
g2025
sg67
(lp2032
S''
asbasbasbag60
(g76
g62
NtRp2033
(dp2034
g65
(dp2035
sg74
g1589
sg67
(lp2036
g60
(g81
g62
NtRp2037
(dp2038
g65
(dp2039
g85
g86
ssg74
g2033
sg67
(lp2040
S'remote_addr'
p2041
asbag60
(g81
g62
NtRp2042
(dp2043
g65
(dp2044
g92
g93
ssg74
g2033
sg67
(lp2045
S':'
asbag60
(g81
g62
NtRp2046
(dp2047
g65
(dp2048
sg74
g2033
sg67
(lp2049
g60
(g61
g62
NtRp2050
(dp2051
g65
(dp2052
g73
I4
ssg74
g2046
sg67
(lp2053
g193
asbasbasbag60
(g76
g62
NtRp2054
(dp2055
g65
(dp2056
sg74
g1589
sg67
(lp2057
g60
(g81
g62
NtRp2058
(dp2059
g65
(dp2060
g85
g86
ssg74
g2054
sg67
(lp2061
S'remote_port'
p2062
asbag60
(g81
g62
NtRp2063
(dp2064
g65
(dp2065
g92
g93
ssg74
g2054
sg67
(lp2066
S':'
asbag60
(g81
g62
NtRp2067
(dp2068
g65
(dp2069
sg74
g2054
sg67
(lp2070
g60
(g61
g62
NtRp2071
(dp2072
g65
(dp2073
g73
I4
ssg74
g2067
sg67
(lp2074
S'59776'
p2075
asbasbasbag60
(g76
g62
NtRp2076
(dp2077
g65
(dp2078
sg74
g1589
sg67
(lp2079
g60
(g81
g62
NtRp2080
(dp2081
g65
(dp2082
g85
g86
ssg74
g2076
sg67
(lp2083
S'request_method'
p2084
asbag60
(g81
g62
NtRp2085
(dp2086
g65
(dp2087
g92
g93
ssg74
g2076
sg67
(lp2088
S':'
asbag60
(g81
g62
NtRp2089
(dp2090
g65
(dp2091
sg74
g2076
sg67
(lp2092
g60
(g61
g62
NtRp2093
(dp2094
g65
(dp2095
g73
I4
ssg74
g2089
sg67
(lp2096
S'GET'
p2097
asbasbasbag60
(g76
g62
NtRp2098
(dp2099
g65
(dp2100
sg74
g1589
sg67
(lp2101
g60
(g81
g62
NtRp2102
(dp2103
g65
(dp2104
g85
g86
ssg74
g2098
sg67
(lp2105
S'script_name'
p2106
asbag60
(g81
g62
NtRp2107
(dp2108
g65
(dp2109
g92
g93
ssg74
g2098
sg67
(lp2110
S':'
asbag60
(g81
g62
NtRp2111
(dp2112
g65
(dp2113
sg74
g2098
sg67
(lp2114
g60
(g61
g62
NtRp2115
(dp2116
g65
(dp2117
g73
I4
ssg74
g2111
sg67
(lp2118
S''
asbasbasbag60
(g76
g62
NtRp2119
(dp2120
g65
(dp2121
sg74
g1589
sg67
(lp2122
g60
(g81
g62
NtRp2123
(dp2124
g65
(dp2125
g85
g86
ssg74
g2119
sg67
(lp2126
S'server_name'
p2127
asbag60
(g81
g62
NtRp2128
(dp2129
g65
(dp2130
g92
g93
ssg74
g2119
sg67
(lp2131
S':'
asbag60
(g81
g62
NtRp2132
(dp2133
g65
(dp2134
sg74
g2119
sg67
(lp2135
g60
(g61
g62
NtRp2136
(dp2137
g65
(dp2138
g73
I4
ssg74
g2132
sg67
(lp2139
S'Swing'
p2140
asbasbasbag60
(g76
g62
NtRp2141
(dp2142
g65
(dp2143
sg74
g1589
sg67
(lp2144
g60
(g81
g62
NtRp2145
(dp2146
g65
(dp2147
g85
g86
ssg74
g2141
sg67
(lp2148
S'server_port'
p2149
asbag60
(g81
g62
NtRp2150
(dp2151
g65
(dp2152
g92
g93
ssg74
g2141
sg67
(lp2153
S':'
asbag60
(g81
g62
NtRp2154
(dp2155
g65
(dp2156
sg74
g2141
sg67
(lp2157
g60
(g61
g62
NtRp2158
(dp2159
g65
(dp2160
g73
I4
ssg74
g2154
sg67
(lp2161
S'8000'
p2162
asbasbasbag60
(g76
g62
NtRp2163
(dp2164
g65
(dp2165
sg74
g1589
sg67
(lp2166
g60
(g81
g62
NtRp2167
(dp2168
g65
(dp2169
g85
g86
ssg74
g2163
sg67
(lp2170
S'server_protocol'
p2171
asbag60
(g81
g62
NtRp2172
(dp2173
g65
(dp2174
g92
g93
ssg74
g2163
sg67
(lp2175
S':'
asbag60
(g81
g62
NtRp2176
(dp2177
g65
(dp2178
sg74
g2163
sg67
(lp2179
g60
(g61
g62
NtRp2180
(dp2181
g65
(dp2182
g73
I4
ssg74
g2176
sg67
(lp2183
S'HTTP/1.1'
p2184
asbasbasbag60
(g76
g62
NtRp2185
(dp2186
g65
(dp2187
sg74
g1589
sg67
(lp2188
g60
(g81
g62
NtRp2189
(dp2190
g65
(dp2191
g85
g86
ssg74
g2185
sg67
(lp2192
S'server_software'
p2193
asbag60
(g81
g62
NtRp2194
(dp2195
g65
(dp2196
g92
g93
ssg74
g2185
sg67
(lp2197
S':'
asbag60
(g81
g62
NtRp2198
(dp2199
g65
(dp2200
sg74
g2185
sg67
(lp2201
g60
(g61
g62
NtRp2202
(dp2203
g65
(dp2204
g73
I4
ssg74
g2198
sg67
(lp2205
S'Rocket 1.2.2'
p2206
asbasbasbag60
(g76
g62
NtRp2207
(dp2208
g65
(dp2209
sg74
g1589
sg67
(lp2210
g60
(g81
g62
NtRp2211
(dp2212
g65
(dp2213
g85
g86
ssg74
g2207
sg67
(lp2214
S'web2py_crontype'
p2215
asbag60
(g81
g62
NtRp2216
(dp2217
g65
(dp2218
g92
g93
ssg74
g2207
sg67
(lp2219
S':'
asbag60
(g81
g62
NtRp2220
(dp2221
g65
(dp2222
sg74
g2207
sg67
(lp2223
g60
(g61
g62
NtRp2224
(dp2225
g65
(dp2226
g73
I4
ssg74
g2220
sg67
(lp2227
S'hard'
p2228
asbasbasbag60
(g76
g62
NtRp2229
(dp2230
g65
(dp2231
sg74
g1589
sg67
(lp2232
g60
(g81
g62
NtRp2233
(dp2234
g65
(dp2235
g85
g86
ssg74
g2229
sg67
(lp2236
S'web2py_path'
p2237
asbag60
(g81
g62
NtRp2238
(dp2239
g65
(dp2240
g92
g93
ssg74
g2229
sg67
(lp2241
S':'
asbag60
(g81
g62
NtRp2242
(dp2243
g65
(dp2244
sg74
g2229
sg67
(lp2245
g60
(g61
g62
NtRp2246
(dp2247
g65
(dp2248
g73
I4
ssg74
g2242
sg67
(lp2249
g1636
asbasbasbag60
(g76
g62
NtRp2250
(dp2251
g65
(dp2252
sg74
g1589
sg67
(lp2253
g60
(g81
g62
NtRp2254
(dp2255
g65
(dp2256
g85
g86
ssg74
g2250
sg67
(lp2257
S'web2py_version'
p2258
asbag60
(g81
g62
NtRp2259
(dp2260
g65
(dp2261
g92
g93
ssg74
g2250
sg67
(lp2262
S':'
asbag60
(g81
g62
NtRp2263
(dp2264
g65
(dp2265
sg74
g2250
sg67
(lp2266
g60
(g61
g62
NtRp2267
(dp2268
g65
(dp2269
g73
I4
ssg74
g2263
sg67
(lp2270
S'Version 1.98.2 (2011-08-04 00:47:09)\n'
p2271
asbasbasbag60
(g76
g62
NtRp2272
(dp2273
g65
(dp2274
sg74
g1589
sg67
(lp2275
g60
(g81
g62
NtRp2276
(dp2277
g65
(dp2278
g85
g86
ssg74
g2272
sg67
(lp2279
S'wsgi_errors'
p2280
asbag60
(g81
g62
NtRp2281
(dp2282
g65
(dp2283
g92
g93
ssg74
g2272
sg67
(lp2284
S':'
asbag60
(g81
g62
NtRp2285
(dp2286
g65
(dp2287
sg74
g2272
sg67
(lp2288
g60
(g61
g62
NtRp2289
(dp2290
g65
(dp2291
g73
I4
ssg74
g2285
sg67
(lp2292
S"<open file '<stderr>', mode 'w' at 0x003100B0>"
p2293
asbasbasbag60
(g76
g62
NtRp2294
(dp2295
g65
(dp2296
sg74
g1589
sg67
(lp2297
g60
(g81
g62
NtRp2298
(dp2299
g65
(dp2300
g85
g86
ssg74
g2294
sg67
(lp2301
S'wsgi_file_wrapper'
p2302
asbag60
(g81
g62
NtRp2303
(dp2304
g65
(dp2305
g92
g93
ssg74
g2294
sg67
(lp2306
S':'
asbag60
(g81
g62
NtRp2307
(dp2308
g65
(dp2309
sg74
g2294
sg67
(lp2310
g60
(g61
g62
NtRp2311
(dp2312
g65
(dp2313
g73
I4
ssg74
g2307
sg67
(lp2314
S'<class gluon.rocket.FileWrapper at 0x02FFC1B0>'
p2315
asbasbasbag60
(g76
g62
NtRp2316
(dp2317
g65
(dp2318
sg74
g1589
sg67
(lp2319
g60
(g81
g62
NtRp2320
(dp2321
g65
(dp2322
g85
g86
ssg74
g2316
sg67
(lp2323
S'wsgi_input'
p2324
asbag60
(g81
g62
NtRp2325
(dp2326
g65
(dp2327
g92
g93
ssg74
g2316
sg67
(lp2328
S':'
asbag60
(g81
g62
NtRp2329
(dp2330
g65
(dp2331
sg74
g2316
sg67
(lp2332
g60
(g61
g62
NtRp2333
(dp2334
g65
(dp2335
g73
I4
ssg74
g2329
sg67
(lp2336
S'<socket._fileobject object at 0x0769A730>'
p2337
asbasbasbag60
(g76
g62
NtRp2338
(dp2339
g65
(dp2340
sg74
g1589
sg67
(lp2341
g60
(g81
g62
NtRp2342
(dp2343
g65
(dp2344
g85
g86
ssg74
g2338
sg67
(lp2345
S'wsgi_multiprocess'
p2346
asbag60
(g81
g62
NtRp2347
(dp2348
g65
(dp2349
g92
g93
ssg74
g2338
sg67
(lp2350
S':'
asbag60
(g81
g62
NtRp2351
(dp2352
g65
(dp2353
sg74
g2338
sg67
(lp2354
g60
(g61
g62
NtRp2355
(dp2356
g65
(dp2357
g73
I4
ssg74
g2351
sg67
(lp2358
g103
asbasbasbag60
(g76
g62
NtRp2359
(dp2360
g65
(dp2361
sg74
g1589
sg67
(lp2362
g60
(g81
g62
NtRp2363
(dp2364
g65
(dp2365
g85
g86
ssg74
g2359
sg67
(lp2366
S'wsgi_multithread'
p2367
asbag60
(g81
g62
NtRp2368
(dp2369
g65
(dp2370
g92
g93
ssg74
g2359
sg67
(lp2371
S':'
asbag60
(g81
g62
NtRp2372
(dp2373
g65
(dp2374
sg74
g2359
sg67
(lp2375
g60
(g61
g62
NtRp2376
(dp2377
g65
(dp2378
g73
I4
ssg74
g2372
sg67
(lp2379
S'True'
p2380
asbasbasbag60
(g76
g62
NtRp2381
(dp2382
g65
(dp2383
sg74
g1589
sg67
(lp2384
g60
(g81
g62
NtRp2385
(dp2386
g65
(dp2387
g85
g86
ssg74
g2381
sg67
(lp2388
S'wsgi_run_once'
p2389
asbag60
(g81
g62
NtRp2390
(dp2391
g65
(dp2392
g92
g93
ssg74
g2381
sg67
(lp2393
S':'
asbag60
(g81
g62
NtRp2394
(dp2395
g65
(dp2396
sg74
g2381
sg67
(lp2397
g60
(g61
g62
NtRp2398
(dp2399
g65
(dp2400
g73
I4
ssg74
g2394
sg67
(lp2401
g103
asbasbasbag60
(g76
g62
NtRp2402
(dp2403
g65
(dp2404
sg74
g1589
sg67
(lp2405
g60
(g81
g62
NtRp2406
(dp2407
g65
(dp2408
g85
g86
ssg74
g2402
sg67
(lp2409
S'wsgi_url_scheme'
p2410
asbag60
(g81
g62
NtRp2411
(dp2412
g65
(dp2413
g92
g93
ssg74
g2402
sg67
(lp2414
S':'
asbag60
(g81
g62
NtRp2415
(dp2416
g65
(dp2417
sg74
g2402
sg67
(lp2418
g60
(g61
g62
NtRp2419
(dp2420
g65
(dp2421
g73
I4
ssg74
g2415
sg67
(lp2422
S'http'
p2423
asbasbasbag60
(g76
g62
NtRp2424
(dp2425
g65
(dp2426
sg74
g1589
sg67
(lp2427
g60
(g81
g62
NtRp2428
(dp2429
g65
(dp2430
g85
g86
ssg74
g2424
sg67
(lp2431
S'wsgi_version'
p2432
asbag60
(g81
g62
NtRp2433
(dp2434
g65
(dp2435
g92
g93
ssg74
g2424
sg67
(lp2436
S':'
asbag60
(g81
g62
NtRp2437
(dp2438
g65
(dp2439
sg74
g2424
sg67
(lp2440
g60
(g61
g62
NtRp2441
(dp2442
g65
(dp2443
g73
I4
ssg74
g2437
sg67
(lp2444
g60
(g69
g62
NtRp2445
(dp2446
g65
(dp2447
g73
I3
ssg74
Nsg67
(lp2448
g60
(g76
g62
NtRp2449
(dp2450
g65
(dp2451
sg74
g2445
sg67
(lp2452
g60
(g81
g62
NtRp2453
(dp2454
g65
(dp2455
sg74
g2449
sg67
(lp2456
g60
(g61
g62
NtRp2457
(dp2458
g65
(dp2459
g73
I3
ssg74
g2453
sg67
(lp2460
S'1'
asbasbasbag60
(g76
g62
NtRp2461
(dp2462
g65
(dp2463
sg74
g2445
sg67
(lp2464
g60
(g81
g62
NtRp2465
(dp2466
g65
(dp2467
sg74
g2461
sg67
(lp2468
g60
(g61
g62
NtRp2469
(dp2470
g65
(dp2471
g73
I3
ssg74
g2465
sg67
(lp2472
S'0'
asbasbasbasbasbasbasbasbasbasbasbag60
(g76
g62
NtRp2473
(dp2474
g65
(dp2475
sg74
g70
sg67
(lp2476
g60
(g81
g62
NtRp2477
(dp2478
g65
(dp2479
g85
g86
ssg74
g2473
sg67
(lp2480
S'extension'
p2481
asbag60
(g81
g62
NtRp2482
(dp2483
g65
(dp2484
g92
g93
ssg74
g2473
sg67
(lp2485
S':'
asbag60
(g81
g62
NtRp2486
(dp2487
g65
(dp2488
sg74
g2473
sg67
(lp2489
g60
(g61
g62
NtRp2490
(dp2491
g65
(dp2492
g73
I5
ssg74
g2486
sg67
(lp2493
S'html'
p2494
asbasbasbag60
(g76
g62
NtRp2495
(dp2496
g65
(dp2497
sg74
g70
sg67
(lp2498
g60
(g81
g62
NtRp2499
(dp2500
g65
(dp2501
g85
g86
ssg74
g2495
sg67
(lp2502
S'folder'
p2503
asbag60
(g81
g62
NtRp2504
(dp2505
g65
(dp2506
g92
g93
ssg74
g2495
sg67
(lp2507
S':'
asbag60
(g81
g62
NtRp2508
(dp2509
g65
(dp2510
sg74
g2495
sg67
(lp2511
g60
(g61
g62
NtRp2512
(dp2513
g65
(dp2514
g73
I5
ssg74
g2508
sg67
(lp2515
S'C:\\Users\\Atomico\\web2py\\applications\\Desglosar_Emails\\'
p2516
asbasbasbag60
(g76
g62
NtRp2517
(dp2518
g65
(dp2519
sg74
g70
sg67
(lp2520
g60
(g81
g62
NtRp2521
(dp2522
g65
(dp2523
g85
g86
ssg74
g2517
sg67
(lp2524
S'function'
p2525
asbag60
(g81
g62
NtRp2526
(dp2527
g65
(dp2528
g92
g93
ssg74
g2517
sg67
(lp2529
S':'
asbag60
(g81
g62
NtRp2530
(dp2531
g65
(dp2532
sg74
g2517
sg67
(lp2533
g60
(g61
g62
NtRp2534
(dp2535
g65
(dp2536
g73
I5
ssg74
g2530
sg67
(lp2537
S'entrada_mod3'
p2538
asbasbasbag60
(g76
g62
NtRp2539
(dp2540
g65
(dp2541
sg74
g70
sg67
(lp2542
g60
(g81
g62
NtRp2543
(dp2544
g65
(dp2545
g85
g86
ssg74
g2539
sg67
(lp2546
S'get_vars'
p2547
asbag60
(g81
g62
NtRp2548
(dp2549
g65
(dp2550
g92
g93
ssg74
g2539
sg67
(lp2551
S':'
asbag60
(g81
g62
NtRp2552
(dp2553
g65
(dp2554
sg74
g2539
sg67
(lp2555
g60
(g61
g62
NtRp2556
(dp2557
g65
(dp2558
g73
I5
ssg74
g2552
sg67
(lp2559
g60
(g69
g62
NtRp2560
(dp2561
g65
(dp2562
g73
I4
ssg74
Nsg67
(lp2563
sbasbasbasbag60
(g76
g62
NtRp2564
(dp2565
g65
(dp2566
sg74
g70
sg67
(lp2567
g60
(g81
g62
NtRp2568
(dp2569
g65
(dp2570
g85
g86
ssg74
g2564
sg67
(lp2571
S'is_https'
p2572
asbag60
(g81
g62
NtRp2573
(dp2574
g65
(dp2575
g92
g93
ssg74
g2564
sg67
(lp2576
S':'
asbag60
(g81
g62
NtRp2577
(dp2578
g65
(dp2579
sg74
g2564
sg67
(lp2580
g60
(g61
g62
NtRp2581
(dp2582
g65
(dp2583
g73
I5
ssg74
g2577
sg67
(lp2584
g103
asbasbasbag60
(g76
g62
NtRp2585
(dp2586
g65
(dp2587
sg74
g70
sg67
(lp2588
g60
(g81
g62
NtRp2589
(dp2590
g65
(dp2591
g85
g86
ssg74
g2585
sg67
(lp2592
S'is_local'
p2593
asbag60
(g81
g62
NtRp2594
(dp2595
g65
(dp2596
g92
g93
ssg74
g2585
sg67
(lp2597
S':'
asbag60
(g81
g62
NtRp2598
(dp2599
g65
(dp2600
sg74
g2585
sg67
(lp2601
g60
(g61
g62
NtRp2602
(dp2603
g65
(dp2604
g73
I5
ssg74
g2598
sg67
(lp2605
g2380
asbasbasbag60
(g76
g62
NtRp2606
(dp2607
g65
(dp2608
sg74
g70
sg67
(lp2609
g60
(g81
g62
NtRp2610
(dp2611
g65
(dp2612
g85
g86
ssg74
g2606
sg67
(lp2613
S'is_restful'
p2614
asbag60
(g81
g62
NtRp2615
(dp2616
g65
(dp2617
g92
g93
ssg74
g2606
sg67
(lp2618
S':'
asbag60
(g81
g62
NtRp2619
(dp2620
g65
(dp2621
sg74
g2606
sg67
(lp2622
g60
(g61
g62
NtRp2623
(dp2624
g65
(dp2625
g73
I5
ssg74
g2619
sg67
(lp2626
g103
asbasbasbag60
(g76
g62
NtRp2627
(dp2628
g65
(dp2629
sg74
g70
sg67
(lp2630
g60
(g81
g62
NtRp2631
(dp2632
g65
(dp2633
g85
g86
ssg74
g2627
sg67
(lp2634
S'now'
p2635
asbag60
(g81
g62
NtRp2636
(dp2637
g65
(dp2638
g92
g93
ssg74
g2627
sg67
(lp2639
S':'
asbag60
(g81
g62
NtRp2640
(dp2641
g65
(dp2642
sg74
g2627
sg67
(lp2643
g60
(g61
g62
NtRp2644
(dp2645
g65
(dp2646
g73
I5
ssg74
g2640
sg67
(lp2647
S'datetime.datetime(2011, 9, 20, 7, 31, 7, 115000)'
p2648
asbasbasbag60
(g76
g62
NtRp2649
(dp2650
g65
(dp2651
sg74
g70
sg67
(lp2652
g60
(g81
g62
NtRp2653
(dp2654
g65
(dp2655
g85
g86
ssg74
g2649
sg67
(lp2656
S'post_vars'
p2657
asbag60
(g81
g62
NtRp2658
(dp2659
g65
(dp2660
g92
g93
ssg74
g2649
sg67
(lp2661
S':'
asbag60
(g81
g62
NtRp2662
(dp2663
g65
(dp2664
sg74
g2649
sg67
(lp2665
g60
(g61
g62
NtRp2666
(dp2667
g65
(dp2668
g73
I5
ssg74
g2662
sg67
(lp2669
g60
(g69
g62
NtRp2670
(dp2671
g65
(dp2672
g73
I4
ssg74
Nsg67
(lp2673
sbasbasbasbag60
(g76
g62
NtRp2674
(dp2675
g65
(dp2676
sg74
g70
sg67
(lp2677
g60
(g81
g62
NtRp2678
(dp2679
g65
(dp2680
g85
g86
ssg74
g2674
sg67
(lp2681
S'url'
p2682
asbag60
(g81
g62
NtRp2683
(dp2684
g65
(dp2685
g92
g93
ssg74
g2674
sg67
(lp2686
S':'
asbag60
(g81
g62
NtRp2687
(dp2688
g65
(dp2689
sg74
g2674
sg67
(lp2690
g60
(g61
g62
NtRp2691
(dp2692
g65
(dp2693
g73
I5
ssg74
g2687
sg67
(lp2694
S'/Desglosar_Emails/default/entrada_mod3'
p2695
asbasbasbag60
(g76
g62
NtRp2696
(dp2697
g65
(dp2698
sg74
g70
sg67
(lp2699
g60
(g81
g62
NtRp2700
(dp2701
g65
(dp2702
g85
g86
ssg74
g2696
sg67
(lp2703
S'uuid'
p2704
asbag60
(g81
g62
NtRp2705
(dp2706
g65
(dp2707
g92
g93
ssg74
g2696
sg67
(lp2708
S':'
asbag60
(g81
g62
NtRp2709
(dp2710
g65
(dp2711
sg74
g2696
sg67
(lp2712
g60
(g61
g62
NtRp2713
(dp2714
g65
(dp2715
g73
I5
ssg74
g2709
sg67
(lp2716
S'Desglosar_Emails/127.0.0.1.2011-09-20.07-31-07.42f6c609-ae71-453c-8b04-511b48c348de'
p2717
asbasbasbag60
(g76
g62
NtRp2718
(dp2719
g65
(dp2720
sg74
g70
sg67
(lp2721
g60
(g81
g62
NtRp2722
(dp2723
g65
(dp2724
g85
g86
ssg74
g2718
sg67
(lp2725
S'vars'
p2726
asbag60
(g81
g62
NtRp2727
(dp2728
g65
(dp2729
g92
g93
ssg74
g2718
sg67
(lp2730
S':'
asbag60
(g81
g62
NtRp2731
(dp2732
g65
(dp2733
sg74
g2718
sg67
(lp2734
g60
(g61
g62
NtRp2735
(dp2736
g65
(dp2737
g73
I5
ssg74
g2731
sg67
(lp2738
g60
(g69
g62
NtRp2739
(dp2740
g65
(dp2741
g73
I4
ssg74
Nsg67
(lp2742
sbasbasbasbag60
(g76
g62
NtRp2743
(dp2744
g65
(dp2745
sg74
g70
sg67
(lp2746
g60
(g81
g62
NtRp2747
(dp2748
g65
(dp2749
g85
g86
ssg74
g2743
sg67
(lp2750
S'wsgi'
p2751
asbag60
(g81
g62
NtRp2752
(dp2753
g65
(dp2754
g92
g93
ssg74
g2743
sg67
(lp2755
S':'
asbag60
(g81
g62
NtRp2756
(dp2757
g65
(dp2758
sg74
g2743
sg67
(lp2759
g60
(g61
g62
NtRp2760
(dp2761
g65
(dp2762
g73
I5
ssg74
g2756
sg67
(lp2763
g60
(g69
g62
NtRp2764
(dp2765
g65
(dp2766
g73
I4
ssg74
Nsg67
(lp2767
g60
(g76
g62
NtRp2768
(dp2769
g65
(dp2770
sg74
g2764
sg67
(lp2771
g60
(g81
g62
NtRp2772
(dp2773
g65
(dp2774
g85
g86
ssg74
g2768
sg67
(lp2775
S'environ'
p2776
asbag60
(g81
g62
NtRp2777
(dp2778
g65
(dp2779
g92
g93
ssg74
g2768
sg67
(lp2780
S':'
asbag60
(g81
g62
NtRp2781
(dp2782
g65
(dp2783
sg74
g2768
sg67
(lp2784
g60
(g61
g62
NtRp2785
(dp2786
g65
(dp2787
g73
I4
ssg74
g2781
sg67
(lp2788
g60
(g69
g62
NtRp2789
(dp2790
g65
(dp2791
g73
I3
ssg74
Nsg67
(lp2792
g60
(g76
g62
NtRp2793
(dp2794
g65
(dp2795
sg74
g2789
sg67
(lp2796
g60
(g81
g62
NtRp2797
(dp2798
g65
(dp2799
g85
g86
ssg74
g2793
sg67
(lp2800
S'HTTP_ACCEPT'
p2801
asbag60
(g81
g62
NtRp2802
(dp2803
g65
(dp2804
g92
g93
ssg74
g2793
sg67
(lp2805
S':'
asbag60
(g81
g62
NtRp2806
(dp2807
g65
(dp2808
sg74
g2793
sg67
(lp2809
g60
(g61
g62
NtRp2810
(dp2811
g65
(dp2812
g73
I3
ssg74
g2806
sg67
(lp2813
g1770
asbasbasbag60
(g76
g62
NtRp2814
(dp2815
g65
(dp2816
sg74
g2789
sg67
(lp2817
g60
(g81
g62
NtRp2818
(dp2819
g65
(dp2820
g85
g86
ssg74
g2814
sg67
(lp2821
S'HTTP_ACCEPT_CHARSET'
p2822
asbag60
(g81
g62
NtRp2823
(dp2824
g65
(dp2825
g92
g93
ssg74
g2814
sg67
(lp2826
S':'
asbag60
(g81
g62
NtRp2827
(dp2828
g65
(dp2829
sg74
g2814
sg67
(lp2830
g60
(g61
g62
NtRp2831
(dp2832
g65
(dp2833
g73
I3
ssg74
g2827
sg67
(lp2834
g1792
asbasbasbag60
(g76
g62
NtRp2835
(dp2836
g65
(dp2837
sg74
g2789
sg67
(lp2838
g60
(g81
g62
NtRp2839
(dp2840
g65
(dp2841
g85
g86
ssg74
g2835
sg67
(lp2842
S'HTTP_ACCEPT_ENCODING'
p2843
asbag60
(g81
g62
NtRp2844
(dp2845
g65
(dp2846
g92
g93
ssg74
g2835
sg67
(lp2847
S':'
asbag60
(g81
g62
NtRp2848
(dp2849
g65
(dp2850
sg74
g2835
sg67
(lp2851
g60
(g61
g62
NtRp2852
(dp2853
g65
(dp2854
g73
I3
ssg74
g2848
sg67
(lp2855
g1814
asbasbasbag60
(g76
g62
NtRp2856
(dp2857
g65
(dp2858
sg74
g2789
sg67
(lp2859
g60
(g81
g62
NtRp2860
(dp2861
g65
(dp2862
g85
g86
ssg74
g2856
sg67
(lp2863
S'HTTP_ACCEPT_LANGUAGE'
p2864
asbag60
(g81
g62
NtRp2865
(dp2866
g65
(dp2867
g92
g93
ssg74
g2856
sg67
(lp2868
S':'
asbag60
(g81
g62
NtRp2869
(dp2870
g65
(dp2871
sg74
g2856
sg67
(lp2872
g60
(g61
g62
NtRp2873
(dp2874
g65
(dp2875
g73
I3
ssg74
g2869
sg67
(lp2876
g1836
asbasbasbag60
(g76
g62
NtRp2877
(dp2878
g65
(dp2879
sg74
g2789
sg67
(lp2880
g60
(g81
g62
NtRp2881
(dp2882
g65
(dp2883
g85
g86
ssg74
g2877
sg67
(lp2884
S'HTTP_CACHE_CONTROL'
p2885
asbag60
(g81
g62
NtRp2886
(dp2887
g65
(dp2888
g92
g93
ssg74
g2877
sg67
(lp2889
S':'
asbag60
(g81
g62
NtRp2890
(dp2891
g65
(dp2892
sg74
g2877
sg67
(lp2893
g60
(g61
g62
NtRp2894
(dp2895
g65
(dp2896
g73
I3
ssg74
g2890
sg67
(lp2897
g1858
asbasbasbag60
(g76
g62
NtRp2898
(dp2899
g65
(dp2900
sg74
g2789
sg67
(lp2901
g60
(g81
g62
NtRp2902
(dp2903
g65
(dp2904
g85
g86
ssg74
g2898
sg67
(lp2905
S'HTTP_CONNECTION'
p2906
asbag60
(g81
g62
NtRp2907
(dp2908
g65
(dp2909
g92
g93
ssg74
g2898
sg67
(lp2910
S':'
asbag60
(g81
g62
NtRp2911
(dp2912
g65
(dp2913
sg74
g2898
sg67
(lp2914
g60
(g61
g62
NtRp2915
(dp2916
g65
(dp2917
g73
I3
ssg74
g2911
sg67
(lp2918
g1880
asbasbasbag60
(g76
g62
NtRp2919
(dp2920
g65
(dp2921
sg74
g2789
sg67
(lp2922
g60
(g81
g62
NtRp2923
(dp2924
g65
(dp2925
g85
g86
ssg74
g2919
sg67
(lp2926
S'HTTP_COOKIE'
p2927
asbag60
(g81
g62
NtRp2928
(dp2929
g65
(dp2930
g92
g93
ssg74
g2919
sg67
(lp2931
S':'
asbag60
(g81
g62
NtRp2932
(dp2933
g65
(dp2934
sg74
g2919
sg67
(lp2935
g60
(g61
g62
NtRp2936
(dp2937
g65
(dp2938
g73
I3
ssg74
g2932
sg67
(lp2939
g1902
asbasbasbag60
(g76
g62
NtRp2940
(dp2941
g65
(dp2942
sg74
g2789
sg67
(lp2943
g60
(g81
g62
NtRp2944
(dp2945
g65
(dp2946
g85
g86
ssg74
g2940
sg67
(lp2947
S'HTTP_HOST'
p2948
asbag60
(g81
g62
NtRp2949
(dp2950
g65
(dp2951
g92
g93
ssg74
g2940
sg67
(lp2952
S':'
asbag60
(g81
g62
NtRp2953
(dp2954
g65
(dp2955
sg74
g2940
sg67
(lp2956
g60
(g61
g62
NtRp2957
(dp2958
g65
(dp2959
g73
I3
ssg74
g2953
sg67
(lp2960
g1924
asbasbasbag60
(g76
g62
NtRp2961
(dp2962
g65
(dp2963
sg74
g2789
sg67
(lp2964
g60
(g81
g62
NtRp2965
(dp2966
g65
(dp2967
g85
g86
ssg74
g2961
sg67
(lp2968
S'HTTP_REFERER'
p2969
asbag60
(g81
g62
NtRp2970
(dp2971
g65
(dp2972
g92
g93
ssg74
g2961
sg67
(lp2973
S':'
asbag60
(g81
g62
NtRp2974
(dp2975
g65
(dp2976
sg74
g2961
sg67
(lp2977
g60
(g61
g62
NtRp2978
(dp2979
g65
(dp2980
g73
I3
ssg74
g2974
sg67
(lp2981
g1946
asbasbasbag60
(g76
g62
NtRp2982
(dp2983
g65
(dp2984
sg74
g2789
sg67
(lp2985
g60
(g81
g62
NtRp2986
(dp2987
g65
(dp2988
g85
g86
ssg74
g2982
sg67
(lp2989
S'HTTP_USER_AGENT'
p2990
asbag60
(g81
g62
NtRp2991
(dp2992
g65
(dp2993
g92
g93
ssg74
g2982
sg67
(lp2994
S':'
asbag60
(g81
g62
NtRp2995
(dp2996
g65
(dp2997
sg74
g2982
sg67
(lp2998
g60
(g61
g62
NtRp2999
(dp3000
g65
(dp3001
g73
I3
ssg74
g2995
sg67
(lp3002
g1968
asbasbasbag60
(g76
g62
NtRp3003
(dp3004
g65
(dp3005
sg74
g2789
sg67
(lp3006
g60
(g81
g62
NtRp3007
(dp3008
g65
(dp3009
g85
g86
ssg74
g3003
sg67
(lp3010
S'PATH_INFO'
p3011
asbag60
(g81
g62
NtRp3012
(dp3013
g65
(dp3014
g92
g93
ssg74
g3003
sg67
(lp3015
S':'
asbag60
(g81
g62
NtRp3016
(dp3017
g65
(dp3018
sg74
g3003
sg67
(lp3019
g60
(g61
g62
NtRp3020
(dp3021
g65
(dp3022
g73
I3
ssg74
g3016
sg67
(lp3023
g2011
asbasbasbag60
(g76
g62
NtRp3024
(dp3025
g65
(dp3026
sg74
g2789
sg67
(lp3027
g60
(g81
g62
NtRp3028
(dp3029
g65
(dp3030
g85
g86
ssg74
g3024
sg67
(lp3031
S'QUERY_STRING'
p3032
asbag60
(g81
g62
NtRp3033
(dp3034
g65
(dp3035
g92
g93
ssg74
g3024
sg67
(lp3036
S':'
asbag60
(g81
g62
NtRp3037
(dp3038
g65
(dp3039
sg74
g3024
sg67
(lp3040
g60
(g61
g62
NtRp3041
(dp3042
g65
(dp3043
g73
I3
ssg74
g3037
sg67
(lp3044
S''
asbasbasbag60
(g76
g62
NtRp3045
(dp3046
g65
(dp3047
sg74
g2789
sg67
(lp3048
g60
(g81
g62
NtRp3049
(dp3050
g65
(dp3051
g85
g86
ssg74
g3045
sg67
(lp3052
S'REMOTE_ADDR'
p3053
asbag60
(g81
g62
NtRp3054
(dp3055
g65
(dp3056
g92
g93
ssg74
g3045
sg67
(lp3057
S':'
asbag60
(g81
g62
NtRp3058
(dp3059
g65
(dp3060
sg74
g3045
sg67
(lp3061
g60
(g61
g62
NtRp3062
(dp3063
g65
(dp3064
g73
I3
ssg74
g3058
sg67
(lp3065
g193
asbasbasbag60
(g76
g62
NtRp3066
(dp3067
g65
(dp3068
sg74
g2789
sg67
(lp3069
g60
(g81
g62
NtRp3070
(dp3071
g65
(dp3072
g85
g86
ssg74
g3066
sg67
(lp3073
S'REMOTE_PORT'
p3074
asbag60
(g81
g62
NtRp3075
(dp3076
g65
(dp3077
g92
g93
ssg74
g3066
sg67
(lp3078
S':'
asbag60
(g81
g62
NtRp3079
(dp3080
g65
(dp3081
sg74
g3066
sg67
(lp3082
g60
(g61
g62
NtRp3083
(dp3084
g65
(dp3085
g73
I3
ssg74
g3079
sg67
(lp3086
g2075
asbasbasbag60
(g76
g62
NtRp3087
(dp3088
g65
(dp3089
sg74
g2789
sg67
(lp3090
g60
(g81
g62
NtRp3091
(dp3092
g65
(dp3093
g85
g86
ssg74
g3087
sg67
(lp3094
S'REQUEST_METHOD'
p3095
asbag60
(g81
g62
NtRp3096
(dp3097
g65
(dp3098
g92
g93
ssg74
g3087
sg67
(lp3099
S':'
asbag60
(g81
g62
NtRp3100
(dp3101
g65
(dp3102
sg74
g3087
sg67
(lp3103
g60
(g61
g62
NtRp3104
(dp3105
g65
(dp3106
g73
I3
ssg74
g3100
sg67
(lp3107
g2097
asbasbasbag60
(g76
g62
NtRp3108
(dp3109
g65
(dp3110
sg74
g2789
sg67
(lp3111
g60
(g81
g62
NtRp3112
(dp3113
g65
(dp3114
g85
g86
ssg74
g3108
sg67
(lp3115
S'SCRIPT_NAME'
p3116
asbag60
(g81
g62
NtRp3117
(dp3118
g65
(dp3119
g92
g93
ssg74
g3108
sg67
(lp3120
S':'
asbag60
(g81
g62
NtRp3121
(dp3122
g65
(dp3123
sg74
g3108
sg67
(lp3124
g60
(g61
g62
NtRp3125
(dp3126
g65
(dp3127
g73
I3
ssg74
g3121
sg67
(lp3128
S''
asbasbasbag60
(g76
g62
NtRp3129
(dp3130
g65
(dp3131
sg74
g2789
sg67
(lp3132
g60
(g81
g62
NtRp3133
(dp3134
g65
(dp3135
g85
g86
ssg74
g3129
sg67
(lp3136
S'SERVER_NAME'
p3137
asbag60
(g81
g62
NtRp3138
(dp3139
g65
(dp3140
g92
g93
ssg74
g3129
sg67
(lp3141
S':'
asbag60
(g81
g62
NtRp3142
(dp3143
g65
(dp3144
sg74
g3129
sg67
(lp3145
g60
(g61
g62
NtRp3146
(dp3147
g65
(dp3148
g73
I3
ssg74
g3142
sg67
(lp3149
g2140
asbasbasbag60
(g76
g62
NtRp3150
(dp3151
g65
(dp3152
sg74
g2789
sg67
(lp3153
g60
(g81
g62
NtRp3154
(dp3155
g65
(dp3156
g85
g86
ssg74
g3150
sg67
(lp3157
S'SERVER_PORT'
p3158
asbag60
(g81
g62
NtRp3159
(dp3160
g65
(dp3161
g92
g93
ssg74
g3150
sg67
(lp3162
S':'
asbag60
(g81
g62
NtRp3163
(dp3164
g65
(dp3165
sg74
g3150
sg67
(lp3166
g60
(g61
g62
NtRp3167
(dp3168
g65
(dp3169
g73
I3
ssg74
g3163
sg67
(lp3170
g2162
asbasbasbag60
(g76
g62
NtRp3171
(dp3172
g65
(dp3173
sg74
g2789
sg67
(lp3174
g60
(g81
g62
NtRp3175
(dp3176
g65
(dp3177
g85
g86
ssg74
g3171
sg67
(lp3178
S'SERVER_PROTOCOL'
p3179
asbag60
(g81
g62
NtRp3180
(dp3181
g65
(dp3182
g92
g93
ssg74
g3171
sg67
(lp3183
S':'
asbag60
(g81
g62
NtRp3184
(dp3185
g65
(dp3186
sg74
g3171
sg67
(lp3187
g60
(g61
g62
NtRp3188
(dp3189
g65
(dp3190
g73
I3
ssg74
g3184
sg67
(lp3191
g2184
asbasbasbag60
(g76
g62
NtRp3192
(dp3193
g65
(dp3194
sg74
g2789
sg67
(lp3195
g60
(g81
g62
NtRp3196
(dp3197
g65
(dp3198
g85
g86
ssg74
g3192
sg67
(lp3199
S'SERVER_SOFTWARE'
p3200
asbag60
(g81
g62
NtRp3201
(dp3202
g65
(dp3203
g92
g93
ssg74
g3192
sg67
(lp3204
S':'
asbag60
(g81
g62
NtRp3205
(dp3206
g65
(dp3207
sg74
g3192
sg67
(lp3208
g60
(g61
g62
NtRp3209
(dp3210
g65
(dp3211
g73
I3
ssg74
g3205
sg67
(lp3212
g2206
asbasbasbag60
(g76
g62
NtRp3213
(dp3214
g65
(dp3215
sg74
g2789
sg67
(lp3216
g60
(g81
g62
NtRp3217
(dp3218
g65
(dp3219
g85
g86
ssg74
g3213
sg67
(lp3220
S'wsgi.errors'
p3221
asbag60
(g81
g62
NtRp3222
(dp3223
g65
(dp3224
g92
g93
ssg74
g3213
sg67
(lp3225
S':'
asbag60
(g81
g62
NtRp3226
(dp3227
g65
(dp3228
sg74
g3213
sg67
(lp3229
g60
(g61
g62
NtRp3230
(dp3231
g65
(dp3232
g73
I3
ssg74
g3226
sg67
(lp3233
S"<open file '<stderr>', mode 'w' at 0x003100B0>"
p3234
asbasbasbag60
(g76
g62
NtRp3235
(dp3236
g65
(dp3237
sg74
g2789
sg67
(lp3238
g60
(g81
g62
NtRp3239
(dp3240
g65
(dp3241
g85
g86
ssg74
g3235
sg67
(lp3242
S'wsgi.file_wrapper'
p3243
asbag60
(g81
g62
NtRp3244
(dp3245
g65
(dp3246
g92
g93
ssg74
g3235
sg67
(lp3247
S':'
asbag60
(g81
g62
NtRp3248
(dp3249
g65
(dp3250
sg74
g3235
sg67
(lp3251
g60
(g61
g62
NtRp3252
(dp3253
g65
(dp3254
g73
I3
ssg74
g3248
sg67
(lp3255
S'<class gluon.rocket.FileWrapper at 0x02FFC1B0>'
p3256
asbasbasbag60
(g76
g62
NtRp3257
(dp3258
g65
(dp3259
sg74
g2789
sg67
(lp3260
g60
(g81
g62
NtRp3261
(dp3262
g65
(dp3263
g85
g86
ssg74
g3257
sg67
(lp3264
S'wsgi.input'
p3265
asbag60
(g81
g62
NtRp3266
(dp3267
g65
(dp3268
g92
g93
ssg74
g3257
sg67
(lp3269
S':'
asbag60
(g81
g62
NtRp3270
(dp3271
g65
(dp3272
sg74
g3257
sg67
(lp3273
g60
(g61
g62
NtRp3274
(dp3275
g65
(dp3276
g73
I3
ssg74
g3270
sg67
(lp3277
S'<cStringIO.StringO object at 0x0808C5A0>'
p3278
asbasbasbag60
(g76
g62
NtRp3279
(dp3280
g65
(dp3281
sg74
g2789
sg67
(lp3282
g60
(g81
g62
NtRp3283
(dp3284
g65
(dp3285
g85
g86
ssg74
g3279
sg67
(lp3286
S'wsgi.multiprocess'
p3287
asbag60
(g81
g62
NtRp3288
(dp3289
g65
(dp3290
g92
g93
ssg74
g3279
sg67
(lp3291
S':'
asbag60
(g81
g62
NtRp3292
(dp3293
g65
(dp3294
sg74
g3279
sg67
(lp3295
g60
(g61
g62
NtRp3296
(dp3297
g65
(dp3298
g73
I3
ssg74
g3292
sg67
(lp3299
g103
asbasbasbag60
(g76
g62
NtRp3300
(dp3301
g65
(dp3302
sg74
g2789
sg67
(lp3303
g60
(g81
g62
NtRp3304
(dp3305
g65
(dp3306
g85
g86
ssg74
g3300
sg67
(lp3307
S'wsgi.multithread'
p3308
asbag60
(g81
g62
NtRp3309
(dp3310
g65
(dp3311
g92
g93
ssg74
g3300
sg67
(lp3312
S':'
asbag60
(g81
g62
NtRp3313
(dp3314
g65
(dp3315
sg74
g3300
sg67
(lp3316
g60
(g61
g62
NtRp3317
(dp3318
g65
(dp3319
g73
I3
ssg74
g3313
sg67
(lp3320
g2380
asbasbasbag60
(g76
g62
NtRp3321
(dp3322
g65
(dp3323
sg74
g2789
sg67
(lp3324
g60
(g81
g62
NtRp3325
(dp3326
g65
(dp3327
g85
g86
ssg74
g3321
sg67
(lp3328
S'wsgi.run_once'
p3329
asbag60
(g81
g62
NtRp3330
(dp3331
g65
(dp3332
g92
g93
ssg74
g3321
sg67
(lp3333
S':'
asbag60
(g81
g62
NtRp3334
(dp3335
g65
(dp3336
sg74
g3321
sg67
(lp3337
g60
(g61
g62
NtRp3338
(dp3339
g65
(dp3340
g73
I3
ssg74
g3334
sg67
(lp3341
g103
asbasbasbag60
(g76
g62
NtRp3342
(dp3343
g65
(dp3344
sg74
g2789
sg67
(lp3345
g60
(g81
g62
NtRp3346
(dp3347
g65
(dp3348
g85
g86
ssg74
g3342
sg67
(lp3349
S'wsgi.url_scheme'
p3350
asbag60
(g81
g62
NtRp3351
(dp3352
g65
(dp3353
g92
g93
ssg74
g3342
sg67
(lp3354
S':'
asbag60
(g81
g62
NtRp3355
(dp3356
g65
(dp3357
sg74
g3342
sg67
(lp3358
g60
(g61
g62
NtRp3359
(dp3360
g65
(dp3361
g73
I3
ssg74
g3355
sg67
(lp3362
g2423
asbasbasbag60
(g76
g62
NtRp3363
(dp3364
g65
(dp3365
sg74
g2789
sg67
(lp3366
g60
(g81
g62
NtRp3367
(dp3368
g65
(dp3369
g85
g86
ssg74
g3363
sg67
(lp3370
S'wsgi.version'
p3371
asbag60
(g81
g62
NtRp3372
(dp3373
g65
(dp3374
g92
g93
ssg74
g3363
sg67
(lp3375
S':'
asbag60
(g81
g62
NtRp3376
(dp3377
g65
(dp3378
sg74
g3363
sg67
(lp3379
g60
(g61
g62
NtRp3380
(dp3381
g65
(dp3382
g73
I3
ssg74
g3376
sg67
(lp3383
S'1'
asbasbasbasbasbasbasbasbasbasbasbasbasbsS'frames'
p3384
(lp3385
(dp3386
S'file'
p3387
S'C:\\Users\\Atomico\\web2py\\gluon\\restricted.py'
p3388
sS'dump'
p3389
(dp3390
sS'lnum'
p3391
I191
sS'lines'
p3392
(dp3393
sS'call'
p3394
S'(code=\'response.write(\\\'<!DOCTYPE html>\\\\n<html lang="\\\', ...t   -->    \\\\n  </body>\\\\n</html>\\\\n\\\', escape=False)\', environment={\'A\': <class \'gluon.html.A\'>, \'B\': <class \'gluon.html.B\'>, \'BEAUTIFY\': <class \'gluon.html.BEAUTIFY\'>, \'BODY\': <class \'gluon.html.BODY\'>, \'BR\': <class \'gluon.html.BR\'>, \'BUTTON\': <class \'gluon.html.BUTTON\'>, \'CAT\': <class \'gluon.html.CAT\'>, \'CENTER\': <class \'gluon.html.CENTER\'>, \'CLEANUP\': <class \'gluon.validators.CLEANUP\'>, \'CODE\': <class \'gluon.html.CODE\'>, ...}, layer=r\'C:\\Users\\Atomico\\web2py\\applications\\Desglosar_Emails\\views\\default/entrada_mod3.html\')'
p3395
sS'func'
p3396
S'restricted'
p3397
sa(dp3398
g3387
S'C:\\Users\\Atomico\\web2py\\gluon\\restricted.py'
p3399
sg3389
(dp3400
sg3391
I178
sg3392
(dp3401
sg3394
S'(code=\'response.write(\\\'<!DOCTYPE html>\\\\n<html lang="\\\', ...t   -->    \\\\n  </body>\\\\n</html>\\\\n\\\', escape=False)\', layer=r\'C:\\Users\\Atomico\\web2py\\applications\\Desglosar_Emails\\views\\default/entrada_mod3.html\')'
p3402
sg3396
S'compile2'
p3403
sasS'pyver'
p3404
S'Python 2.5.4: C:\\Users\\Atomico\\web2py\\web2py.exe'
p3405
sS'session'
p3406
g60
(g61
g62
NtRp3407
(dp3408
g65
(dp3409
sg67
(lp3410
g60
(g69
g62
NtRp3411
(dp3412
g65
(dp3413
g73
I5
ssg74
Nsg67
(lp3414
g60
(g76
g62
NtRp3415
(dp3416
g65
(dp3417
sg74
g3411
sg67
(lp3418
g60
(g81
g62
NtRp3419
(dp3420
g65
(dp3421
g85
g86
ssg74
g3415
sg67
(lp3422
S'last_query'
p3423
asbag60
(g81
g62
NtRp3424
(dp3425
g65
(dp3426
g92
g93
ssg74
g3415
sg67
(lp3427
S':'
asbag60
(g81
g62
NtRp3428
(dp3429
g65
(dp3430
sg74
g3415
sg67
(lp3431
g60
(g61
g62
NtRp3432
(dp3433
g65
(dp3434
g73
I5
ssg74
g3428
sg67
(lp3435
S'db.info4.id>0'
p3436
asbasbasbasbasbsS'etype'
p3437
S"<type 'exceptions.SyntaxError'>"
p3438
sS'date'
p3439
S'Tue Sep 20 07:31:07 2011'
p3440
sS'response'
p3441
g60
(g61
g62
NtRp3442
(dp3443
g65
(dp3444
sg67
(lp3445
g60
(g69
g62
NtRp3446
(dp3447
g65
(dp3448
g73
I5
ssg74
Nsg67
(lp3449
g60
(g76
g62
NtRp3450
(dp3451
g65
(dp3452
sg74
g3446
sg67
(lp3453
g60
(g81
g62
NtRp3454
(dp3455
g65
(dp3456
g85
g86
ssg74
g3450
sg67
(lp3457
g158
asbag60
(g81
g62
NtRp3458
(dp3459
g65
(dp3460
g92
g93
ssg74
g3450
sg67
(lp3461
S':'
asbag60
(g81
g62
NtRp3462
(dp3463
g65
(dp3464
sg74
g3450
sg67
(lp3465
g60
(g61
g62
NtRp3466
(dp3467
g65
(dp3468
g73
I5
ssg74
g3462
sg67
(lp3469
S'<cStringIO.StringO object at 0x0808CAC0>'
p3470
asbasbasbag60
(g76
g62
NtRp3471
(dp3472
g65
(dp3473
sg74
g3446
sg67
(lp3474
g60
(g81
g62
NtRp3475
(dp3476
g65
(dp3477
g85
g86
ssg74
g3471
sg67
(lp3478
g224
asbag60
(g81
g62
NtRp3479
(dp3480
g65
(dp3481
g92
g93
ssg74
g3471
sg67
(lp3482
S':'
asbag60
(g81
g62
NtRp3483
(dp3484
g65
(dp3485
sg74
g3471
sg67
(lp3486
g60
(g61
g62
NtRp3487
(dp3488
g65
(dp3489
g73
I5
ssg74
g3483
sg67
(lp3490
g60
(g69
g62
NtRp3491
(dp3492
g65
(dp3493
g73
I4
ssg74
Nsg67
(lp3494
g60
(g76
g62
NtRp3495
(dp3496
g65
(dp3497
sg74
g3491
sg67
(lp3498
g60
(g81
g62
NtRp3499
(dp3500
g65
(dp3501
g85
g86
ssg74
g3495
sg67
(lp3502
S'session_id_desglosar_emails'
p3503
asbag60
(g81
g62
NtRp3504
(dp3505
g65
(dp3506
g92
g93
ssg74
g3495
sg67
(lp3507
S':'
asbag60
(g81
g62
NtRp3508
(dp3509
g65
(dp3510
sg74
g3495
sg67
(lp3511
g60
(g61
g62
NtRp3512
(dp3513
g65
(dp3514
g73
I4
ssg74
g3508
sg67
(lp3515
g60
(g69
g62
NtRp3516
(dp3517
g65
(dp3518
g73
I3
ssg74
Nsg67
(lp3519
g60
(g76
g62
NtRp3520
(dp3521
g65
(dp3522
sg74
g3516
sg67
(lp3523
g60
(g81
g62
NtRp3524
(dp3525
g65
(dp3526
g85
g86
ssg74
g3520
sg67
(lp3527
g274
asbag60
(g81
g62
NtRp3528
(dp3529
g65
(dp3530
g92
g93
ssg74
g3520
sg67
(lp3531
S':'
asbag60
(g81
g62
NtRp3532
(dp3533
g65
(dp3534
sg74
g3520
sg67
(lp3535
g60
(g61
g62
NtRp3536
(dp3537
g65
(dp3538
g73
I3
ssg74
g3532
sg67
(lp3539
S''
asbasbasbag60
(g76
g62
NtRp3540
(dp3541
g65
(dp3542
sg74
g3516
sg67
(lp3543
g60
(g81
g62
NtRp3544
(dp3545
g65
(dp3546
g85
g86
ssg74
g3540
sg67
(lp3547
g295
asbag60
(g81
g62
NtRp3548
(dp3549
g65
(dp3550
g92
g93
ssg74
g3540
sg67
(lp3551
S':'
asbag60
(g81
g62
NtRp3552
(dp3553
g65
(dp3554
sg74
g3540
sg67
(lp3555
g60
(g61
g62
NtRp3556
(dp3557
g65
(dp3558
g73
I3
ssg74
g3552
sg67
(lp3559
S''
asbasbasbag60
(g76
g62
NtRp3560
(dp3561
g65
(dp3562
sg74
g3516
sg67
(lp3563
g60
(g81
g62
NtRp3564
(dp3565
g65
(dp3566
g85
g86
ssg74
g3560
sg67
(lp3567
g316
asbag60
(g81
g62
NtRp3568
(dp3569
g65
(dp3570
g92
g93
ssg74
g3560
sg67
(lp3571
S':'
asbag60
(g81
g62
NtRp3572
(dp3573
g65
(dp3574
sg74
g3560
sg67
(lp3575
g60
(g61
g62
NtRp3576
(dp3577
g65
(dp3578
g73
I3
ssg74
g3572
sg67
(lp3579
S''
asbasbasbag60
(g76
g62
NtRp3580
(dp3581
g65
(dp3582
sg74
g3516
sg67
(lp3583
g60
(g81
g62
NtRp3584
(dp3585
g65
(dp3586
g85
g86
ssg74
g3580
sg67
(lp3587
g337
asbag60
(g81
g62
NtRp3588
(dp3589
g65
(dp3590
g92
g93
ssg74
g3580
sg67
(lp3591
S':'
asbag60
(g81
g62
NtRp3592
(dp3593
g65
(dp3594
sg74
g3580
sg67
(lp3595
g60
(g61
g62
NtRp3596
(dp3597
g65
(dp3598
g73
I3
ssg74
g3592
sg67
(lp3599
S''
asbasbasbag60
(g76
g62
NtRp3600
(dp3601
g65
(dp3602
sg74
g3516
sg67
(lp3603
g60
(g81
g62
NtRp3604
(dp3605
g65
(dp3606
g85
g86
ssg74
g3600
sg67
(lp3607
g358
asbag60
(g81
g62
NtRp3608
(dp3609
g65
(dp3610
g92
g93
ssg74
g3600
sg67
(lp3611
S':'
asbag60
(g81
g62
NtRp3612
(dp3613
g65
(dp3614
sg74
g3600
sg67
(lp3615
g60
(g61
g62
NtRp3616
(dp3617
g65
(dp3618
g73
I3
ssg74
g3612
sg67
(lp3619
S'/'
asbasbasbag60
(g76
g62
NtRp3620
(dp3621
g65
(dp3622
sg74
g3516
sg67
(lp3623
g60
(g81
g62
NtRp3624
(dp3625
g65
(dp3626
g85
g86
ssg74
g3620
sg67
(lp3627
g379
asbag60
(g81
g62
NtRp3628
(dp3629
g65
(dp3630
g92
g93
ssg74
g3620
sg67
(lp3631
S':'
asbag60
(g81
g62
NtRp3632
(dp3633
g65
(dp3634
sg74
g3620
sg67
(lp3635
g60
(g61
g62
NtRp3636
(dp3637
g65
(dp3638
g73
I3
ssg74
g3632
sg67
(lp3639
S''
asbasbasbag60
(g76
g62
NtRp3640
(dp3641
g65
(dp3642
sg74
g3516
sg67
(lp3643
g60
(g81
g62
NtRp3644
(dp3645
g65
(dp3646
g85
g86
ssg74
g3640
sg67
(lp3647
g400
asbag60
(g81
g62
NtRp3648
(dp3649
g65
(dp3650
g92
g93
ssg74
g3640
sg67
(lp3651
S':'
asbag60
(g81
g62
NtRp3652
(dp3653
g65
(dp3654
sg74
g3640
sg67
(lp3655
g60
(g61
g62
NtRp3656
(dp3657
g65
(dp3658
g73
I3
ssg74
g3652
sg67
(lp3659
S''
asbasbasbasbasbasbasbasbasbasbasbag60
(g76
g62
NtRp3660
(dp3661
g65
(dp3662
sg74
g3446
sg67
(lp3663
g60
(g81
g62
NtRp3664
(dp3665
g65
(dp3666
g85
g86
ssg74
g3660
sg67
(lp3667
S'files'
p3668
asbag60
(g81
g62
NtRp3669
(dp3670
g65
(dp3671
g92
g93
ssg74
g3660
sg67
(lp3672
S':'
asbag60
(g81
g62
NtRp3673
(dp3674
g65
(dp3675
sg74
g3660
sg67
(lp3676
g60
(g61
g62
NtRp3677
(dp3678
g65
(dp3679
g73
I5
ssg74
g3673
sg67
(lp3680
g60
(g69
g62
NtRp3681
(dp3682
g65
(dp3683
g73
I4
ssg74
Nsg67
(lp3684
sbasbasbasbag60
(g76
g62
NtRp3685
(dp3686
g65
(dp3687
sg74
g3446
sg67
(lp3688
g60
(g81
g62
NtRp3689
(dp3690
g65
(dp3691
g85
g86
ssg74
g3685
sg67
(lp3692
S'flash'
p3693
asbag60
(g81
g62
NtRp3694
(dp3695
g65
(dp3696
g92
g93
ssg74
g3685
sg67
(lp3697
S':'
asbag60
(g81
g62
NtRp3698
(dp3699
g65
(dp3700
sg74
g3685
sg67
(lp3701
g60
(g61
g62
NtRp3702
(dp3703
g65
(dp3704
g73
I5
ssg74
g3698
sg67
(lp3705
S''
asbasbasbag60
(g76
g62
NtRp3706
(dp3707
g65
(dp3708
sg74
g3446
sg67
(lp3709
g60
(g81
g62
NtRp3710
(dp3711
g65
(dp3712
g85
g86
ssg74
g3706
sg67
(lp3713
S'generic_patterns'
p3714
asbag60
(g81
g62
NtRp3715
(dp3716
g65
(dp3717
g92
g93
ssg74
g3706
sg67
(lp3718
S':'
asbag60
(g81
g62
NtRp3719
(dp3720
g65
(dp3721
sg74
g3706
sg67
(lp3722
g60
(g61
g62
NtRp3723
(dp3724
g65
(dp3725
g73
I5
ssg74
g3719
sg67
(lp3726
g60
(g69
g62
NtRp3727
(dp3728
g65
(dp3729
g73
I4
ssg74
Nsg67
(lp3730
sbasbasbasbag60
(g76
g62
NtRp3731
(dp3732
g65
(dp3733
sg74
g3446
sg67
(lp3734
g60
(g81
g62
NtRp3735
(dp3736
g65
(dp3737
g85
g86
ssg74
g3731
sg67
(lp3738
S'headers'
p3739
asbag60
(g81
g62
NtRp3740
(dp3741
g65
(dp3742
g92
g93
ssg74
g3731
sg67
(lp3743
S':'
asbag60
(g81
g62
NtRp3744
(dp3745
g65
(dp3746
sg74
g3731
sg67
(lp3747
g60
(g61
g62
NtRp3748
(dp3749
g65
(dp3750
g73
I5
ssg74
g3744
sg67
(lp3751
g60
(g69
g62
NtRp3752
(dp3753
g65
(dp3754
g73
I4
ssg74
Nsg67
(lp3755
g60
(g76
g62
NtRp3756
(dp3757
g65
(dp3758
sg74
g3752
sg67
(lp3759
g60
(g81
g62
NtRp3760
(dp3761
g65
(dp3762
g85
g86
ssg74
g3756
sg67
(lp3763
S'Cache-Control'
p3764
asbag60
(g81
g62
NtRp3765
(dp3766
g65
(dp3767
g92
g93
ssg74
g3756
sg67
(lp3768
S':'
asbag60
(g81
g62
NtRp3769
(dp3770
g65
(dp3771
sg74
g3756
sg67
(lp3772
g60
(g61
g62
NtRp3773
(dp3774
g65
(dp3775
g73
I4
ssg74
g3769
sg67
(lp3776
S'no-store, no-cache, must-revalidate, post-check=0, pre-check=0'
p3777
asbasbasbag60
(g76
g62
NtRp3778
(dp3779
g65
(dp3780
sg74
g3752
sg67
(lp3781
g60
(g81
g62
NtRp3782
(dp3783
g65
(dp3784
g85
g86
ssg74
g3778
sg67
(lp3785
S'Content-Type'
p3786
asbag60
(g81
g62
NtRp3787
(dp3788
g65
(dp3789
g92
g93
ssg74
g3778
sg67
(lp3790
S':'
asbag60
(g81
g62
NtRp3791
(dp3792
g65
(dp3793
sg74
g3778
sg67
(lp3794
g60
(g61
g62
NtRp3795
(dp3796
g65
(dp3797
g73
I4
ssg74
g3791
sg67
(lp3798
S'text/html; charset=utf-8'
p3799
asbasbasbag60
(g76
g62
NtRp3800
(dp3801
g65
(dp3802
sg74
g3752
sg67
(lp3803
g60
(g81
g62
NtRp3804
(dp3805
g65
(dp3806
g85
g86
ssg74
g3800
sg67
(lp3807
S'Expires'
p3808
asbag60
(g81
g62
NtRp3809
(dp3810
g65
(dp3811
g92
g93
ssg74
g3800
sg67
(lp3812
S':'
asbag60
(g81
g62
NtRp3813
(dp3814
g65
(dp3815
sg74
g3800
sg67
(lp3816
g60
(g61
g62
NtRp3817
(dp3818
g65
(dp3819
g73
I4
ssg74
g3813
sg67
(lp3820
S'Tue, 20 Sep 2011 05:31:07 GMT'
p3821
asbasbasbag60
(g76
g62
NtRp3822
(dp3823
g65
(dp3824
sg74
g3752
sg67
(lp3825
g60
(g81
g62
NtRp3826
(dp3827
g65
(dp3828
g85
g86
ssg74
g3822
sg67
(lp3829
S'Pragma'
p3830
asbag60
(g81
g62
NtRp3831
(dp3832
g65
(dp3833
g92
g93
ssg74
g3822
sg67
(lp3834
S':'
asbag60
(g81
g62
NtRp3835
(dp3836
g65
(dp3837
sg74
g3822
sg67
(lp3838
g60
(g61
g62
NtRp3839
(dp3840
g65
(dp3841
g73
I4
ssg74
g3835
sg67
(lp3842
S'no-cache'
p3843
asbasbasbag60
(g76
g62
NtRp3844
(dp3845
g65
(dp3846
sg74
g3752
sg67
(lp3847
g60
(g81
g62
NtRp3848
(dp3849
g65
(dp3850
g85
g86
ssg74
g3844
sg67
(lp3851
S'X-Powered-By'
p3852
asbag60
(g81
g62
NtRp3853
(dp3854
g65
(dp3855
g92
g93
ssg74
g3844
sg67
(lp3856
S':'
asbag60
(g81
g62
NtRp3857
(dp3858
g65
(dp3859
sg74
g3844
sg67
(lp3860
g60
(g61
g62
NtRp3861
(dp3862
g65
(dp3863
g73
I4
ssg74
g3857
sg67
(lp3864
S'web2py'
p3865
asbasbasbasbasbasbasbag60
(g76
g62
NtRp3866
(dp3867
g65
(dp3868
sg74
g3446
sg67
(lp3869
g60
(g81
g62
NtRp3870
(dp3871
g65
(dp3872
g85
g86
ssg74
g3866
sg67
(lp3873
S'menu'
p3874
asbag60
(g81
g62
NtRp3875
(dp3876
g65
(dp3877
g92
g93
ssg74
g3866
sg67
(lp3878
S':'
asbag60
(g81
g62
NtRp3879
(dp3880
g65
(dp3881
sg74
g3866
sg67
(lp3882
g60
(g61
g62
NtRp3883
(dp3884
g65
(dp3885
g73
I5
ssg74
g3879
sg67
(lp3886
g60
(g69
g62
NtRp3887
(dp3888
g65
(dp3889
g73
I4
ssg74
Nsg67
(lp3890
g60
(g76
g62
NtRp3891
(dp3892
g65
(dp3893
sg74
g3887
sg67
(lp3894
g60
(g81
g62
NtRp3895
(dp3896
g65
(dp3897
sg74
g3891
sg67
(lp3898
g60
(g61
g62
NtRp3899
(dp3900
g65
(dp3901
g73
I4
ssg74
g3895
sg67
(lp3902
g60
(g69
g62
NtRp3903
(dp3904
g65
(dp3905
g73
I3
ssg74
Nsg67
(lp3906
g60
(g76
g62
NtRp3907
(dp3908
g65
(dp3909
sg74
g3903
sg67
(lp3910
g60
(g81
g62
NtRp3911
(dp3912
g65
(dp3913
sg74
g3907
sg67
(lp3914
g60
(g61
g62
NtRp3915
(dp3916
g65
(dp3917
g73
I3
ssg74
g3911
sg67
(lp3918
cgluon.languages
lazyT_unpickle
p3919
(S't\x04\x00\x00\x00Home'
tRp3920
asbasbasbag60
(g76
g62
NtRp3921
(dp3922
g65
(dp3923
sg74
g3903
sg67
(lp3924
g60
(g81
g62
NtRp3925
(dp3926
g65
(dp3927
sg74
g3921
sg67
(lp3928
g60
(g61
g62
NtRp3929
(dp3930
g65
(dp3931
g73
I3
ssg74
g3925
sg67
(lp3932
g103
asbasbasbag60
(g76
g62
NtRp3933
(dp3934
g65
(dp3935
sg74
g3903
sg67
(lp3936
g60
(g81
g62
NtRp3937
(dp3938
g65
(dp3939
sg74
g3933
sg67
(lp3940
g60
(g61
g62
NtRp3941
(dp3942
g65
(dp3943
g73
I3
ssg74
g3937
sg67
(lp3944
S'/Desglosar_Emails/default/index'
p3945
asbasbasbag60
(g76
g62
NtRp3946
(dp3947
g65
(dp3948
sg74
g3903
sg67
(lp3949
g60
(g81
g62
NtRp3950
(dp3951
g65
(dp3952
sg74
g3946
sg67
(lp3953
g60
(g61
g62
NtRp3954
(dp3955
g65
(dp3956
g73
I3
ssg74
g3950
sg67
(lp3957
g60
(g69
g62
NtRp3958
(dp3959
g65
(dp3960
g73
I2
ssg74
Nsg67
(lp3961
sbasbasbasbasbasbasbasbag60
(g76
g62
NtRp3962
(dp3963
g65
(dp3964
sg74
g3887
sg67
(lp3965
g60
(g81
g62
NtRp3966
(dp3967
g65
(dp3968
sg74
g3962
sg67
(lp3969
g60
(g61
g62
NtRp3970
(dp3971
g65
(dp3972
g73
I4
ssg74
g3966
sg67
(lp3973
g60
(g69
g62
NtRp3974
(dp3975
g65
(dp3976
g73
I3
ssg74
Nsg67
(lp3977
g60
(g76
g62
NtRp3978
(dp3979
g65
(dp3980
sg74
g3974
sg67
(lp3981
g60
(g81
g62
NtRp3982
(dp3983
g65
(dp3984
sg74
g3978
sg67
(lp3985
g60
(g61
g62
NtRp3986
(dp3987
g65
(dp3988
g73
I3
ssg74
g3982
sg67
(lp3989
g3919
(S's\x08\x00\x00\x00This App'
tRp3990
asbasbasbag60
(g76
g62
NtRp3991
(dp3992
g65
(dp3993
sg74
g3974
sg67
(lp3994
g60
(g81
g62
NtRp3995
(dp3996
g65
(dp3997
sg74
g3991
sg67
(lp3998
g60
(g61
g62
NtRp3999
(dp4000
g65
(dp4001
g73
I3
ssg74
g3995
sg67
(lp4002
g103
asbasbasbag60
(g76
g62
NtRp4003
(dp4004
g65
(dp4005
sg74
g3974
sg67
(lp4006
g60
(g81
g62
NtRp4007
(dp4008
g65
(dp4009
sg74
g4003
sg67
(lp4010
g60
(g61
g62
NtRp4011
(dp4012
g65
(dp4013
g73
I3
ssg74
g4007
sg67
(lp4014
S'/admin/default/design/Desglosar_Emails'
p4015
asbasbasbag60
(g76
g62
NtRp4016
(dp4017
g65
(dp4018
sg74
g3974
sg67
(lp4019
g60
(g81
g62
NtRp4020
(dp4021
g65
(dp4022
sg74
g4016
sg67
(lp4023
g60
(g61
g62
NtRp4024
(dp4025
g65
(dp4026
g73
I3
ssg74
g4020
sg67
(lp4027
g60
(g69
g62
NtRp4028
(dp4029
g65
(dp4030
g73
I2
ssg74
Nsg67
(lp4031
g60
(g76
g62
NtRp4032
(dp4033
g65
(dp4034
sg74
g4028
sg67
(lp4035
g60
(g81
g62
NtRp4036
(dp4037
g65
(dp4038
sg74
g4032
sg67
(lp4039
g60
(g61
g62
NtRp4040
(dp4041
g65
(dp4042
g73
I2
ssg74
g4036
sg67
(lp4043
g60
(g69
g62
NtRp4044
(dp4045
g65
(dp4046
g73
I1
ssg74
Nsg67
(lp4047
g60
(g76
g62
NtRp4048
(dp4049
g65
(dp4050
sg74
g4044
sg67
(lp4051
g60
(g81
g62
NtRp4052
(dp4053
g65
(dp4054
sg74
g4048
sg67
(lp4055
g60
(g61
g62
NtRp4056
(dp4057
g65
(dp4058
g73
I1
ssg74
g4052
sg67
(lp4059
g3919
(S't\x0b\x00\x00\x00Controlador'
tRp4060
asbasbasbag60
(g76
g62
NtRp4061
(dp4062
g65
(dp4063
sg74
g4044
sg67
(lp4064
g60
(g81
g62
NtRp4065
(dp4066
g65
(dp4067
sg74
g4061
sg67
(lp4068
g60
(g61
g62
NtRp4069
(dp4070
g65
(dp4071
g73
I1
ssg74
g4065
sg67
(lp4072
I00
asbasbasbag60
(g76
g62
NtRp4073
(dp4074
g65
(dp4075
sg74
g4044
sg67
(lp4076
g60
(g81
g62
NtRp4077
(dp4078
g65
(dp4079
sg74
g4073
sg67
(lp4080
g60
(g61
g62
NtRp4081
(dp4082
g65
(dp4083
g73
I1
ssg74
g4077
sg67
(lp4084
S'/admin/default/edit/Desglosar_Emails/controllers/default.py'
p4085
asbasbasbasbasbasbasbag60
(g76
g62
NtRp4086
(dp4087
g65
(dp4088
sg74
g4028
sg67
(lp4089
g60
(g81
g62
NtRp4090
(dp4091
g65
(dp4092
sg74
g4086
sg67
(lp4093
g60
(g61
g62
NtRp4094
(dp4095
g65
(dp4096
g73
I2
ssg74
g4090
sg67
(lp4097
g60
(g69
g62
NtRp4098
(dp4099
g65
(dp4100
g73
I1
ssg74
Nsg67
(lp4101
g60
(g76
g62
NtRp4102
(dp4103
g65
(dp4104
sg74
g4098
sg67
(lp4105
g60
(g81
g62
NtRp4106
(dp4107
g65
(dp4108
sg74
g4102
sg67
(lp4109
g60
(g61
g62
NtRp4110
(dp4111
g65
(dp4112
g73
I1
ssg74
g4106
sg67
(lp4113
g3919
(S't\x05\x00\x00\x00Vista'
tRp4114
asbasbasbag60
(g76
g62
NtRp4115
(dp4116
g65
(dp4117
sg74
g4098
sg67
(lp4118
g60
(g81
g62
NtRp4119
(dp4120
g65
(dp4121
sg74
g4115
sg67
(lp4122
g60
(g61
g62
NtRp4123
(dp4124
g65
(dp4125
g73
I1
ssg74
g4119
sg67
(lp4126
I00
asbasbasbag60
(g76
g62
NtRp4127
(dp4128
g65
(dp4129
sg74
g4098
sg67
(lp4130
g60
(g81
g62
NtRp4131
(dp4132
g65
(dp4133
sg74
g4127
sg67
(lp4134
g60
(g61
g62
NtRp4135
(dp4136
g65
(dp4137
g73
I1
ssg74
g4131
sg67
(lp4138
S'/admin/default/edit/Desglosar_Emails/views/default/entrada_mod3.html'
p4139
asbasbasbasbasbasbasbag60
(g76
g62
NtRp4140
(dp4141
g65
(dp4142
sg74
g4028
sg67
(lp4143
g60
(g81
g62
NtRp4144
(dp4145
g65
(dp4146
sg74
g4140
sg67
(lp4147
g60
(g61
g62
NtRp4148
(dp4149
g65
(dp4150
g73
I2
ssg74
g4144
sg67
(lp4151
g60
(g69
g62
NtRp4152
(dp4153
g65
(dp4154
g73
I1
ssg74
Nsg67
(lp4155
g60
(g76
g62
NtRp4156
(dp4157
g65
(dp4158
sg74
g4152
sg67
(lp4159
g60
(g81
g62
NtRp4160
(dp4161
g65
(dp4162
sg74
g4156
sg67
(lp4163
g60
(g61
g62
NtRp4164
(dp4165
g65
(dp4166
g73
I1
ssg74
g4160
sg67
(lp4167
g3919
(S's\x12\x00\x00\x00Dise\xc3\xb1o de p\xc3\xa1gina'
tRp4168
asbasbasbag60
(g76
g62
NtRp4169
(dp4170
g65
(dp4171
sg74
g4152
sg67
(lp4172
g60
(g81
g62
NtRp4173
(dp4174
g65
(dp4175
sg74
g4169
sg67
(lp4176
g60
(g61
g62
NtRp4177
(dp4178
g65
(dp4179
g73
I1
ssg74
g4173
sg67
(lp4180
I00
asbasbasbag60
(g76
g62
NtRp4181
(dp4182
g65
(dp4183
sg74
g4152
sg67
(lp4184
g60
(g81
g62
NtRp4185
(dp4186
g65
(dp4187
sg74
g4181
sg67
(lp4188
g60
(g61
g62
NtRp4189
(dp4190
g65
(dp4191
g73
I1
ssg74
g4185
sg67
(lp4192
S'/admin/default/edit/Desglosar_Emails/views/layout.html'
p4193
asbasbasbasbasbasbasbag60
(g76
g62
NtRp4194
(dp4195
g65
(dp4196
sg74
g4028
sg67
(lp4197
g60
(g81
g62
NtRp4198
(dp4199
g65
(dp4200
sg74
g4194
sg67
(lp4201
g60
(g61
g62
NtRp4202
(dp4203
g65
(dp4204
g73
I2
ssg74
g4198
sg67
(lp4205
g60
(g69
g62
NtRp4206
(dp4207
g65
(dp4208
g73
I1
ssg74
Nsg67
(lp4209
g60
(g76
g62
NtRp4210
(dp4211
g65
(dp4212
sg74
g4206
sg67
(lp4213
g60
(g81
g62
NtRp4214
(dp4215
g65
(dp4216
sg74
g4210
sg67
(lp4217
g60
(g61
g62
NtRp4218
(dp4219
g65
(dp4220
g73
I1
ssg74
g4214
sg67
(lp4221
g3919
(S's\x0e\x00\x00\x00Hoja de estilo'
tRp4222
asbasbasbag60
(g76
g62
NtRp4223
(dp4224
g65
(dp4225
sg74
g4206
sg67
(lp4226
g60
(g81
g62
NtRp4227
(dp4228
g65
(dp4229
sg74
g4223
sg67
(lp4230
g60
(g61
g62
NtRp4231
(dp4232
g65
(dp4233
g73
I1
ssg74
g4227
sg67
(lp4234
I00
asbasbasbag60
(g76
g62
NtRp4235
(dp4236
g65
(dp4237
sg74
g4206
sg67
(lp4238
g60
(g81
g62
NtRp4239
(dp4240
g65
(dp4241
sg74
g4235
sg67
(lp4242
g60
(g61
g62
NtRp4243
(dp4244
g65
(dp4245
g73
I1
ssg74
g4239
sg67
(lp4246
S'/admin/default/edit/Desglosar_Emails/static/base.css'
p4247
asbasbasbasbasbasbasbag60
(g76
g62
NtRp4248
(dp4249
g65
(dp4250
sg74
g4028
sg67
(lp4251
g60
(g81
g62
NtRp4252
(dp4253
g65
(dp4254
sg74
g4248
sg67
(lp4255
g60
(g61
g62
NtRp4256
(dp4257
g65
(dp4258
g73
I2
ssg74
g4252
sg67
(lp4259
g60
(g69
g62
NtRp4260
(dp4261
g65
(dp4262
g73
I1
ssg74
Nsg67
(lp4263
g60
(g76
g62
NtRp4264
(dp4265
g65
(dp4266
sg74
g4260
sg67
(lp4267
g60
(g81
g62
NtRp4268
(dp4269
g65
(dp4270
sg74
g4264
sg67
(lp4271
g60
(g61
g62
NtRp4272
(dp4273
g65
(dp4274
g73
I1
ssg74
g4268
sg67
(lp4275
g3919
(S's\x0b\x00\x00\x00Modelo "db"'
tRp4276
asbasbasbag60
(g76
g62
NtRp4277
(dp4278
g65
(dp4279
sg74
g4260
sg67
(lp4280
g60
(g81
g62
NtRp4281
(dp4282
g65
(dp4283
sg74
g4277
sg67
(lp4284
g60
(g61
g62
NtRp4285
(dp4286
g65
(dp4287
g73
I1
ssg74
g4281
sg67
(lp4288
I00
asbasbasbag60
(g76
g62
NtRp4289
(dp4290
g65
(dp4291
sg74
g4260
sg67
(lp4292
g60
(g81
g62
NtRp4293
(dp4294
g65
(dp4295
sg74
g4289
sg67
(lp4296
g60
(g61
g62
NtRp4297
(dp4298
g65
(dp4299
g73
I1
ssg74
g4293
sg67
(lp4300
S'/admin/default/edit/Desglosar_Emails/models/db.py'
p4301
asbasbasbasbasbasbasbag60
(g76
g62
NtRp4302
(dp4303
g65
(dp4304
sg74
g4028
sg67
(lp4305
g60
(g81
g62
NtRp4306
(dp4307
g65
(dp4308
sg74
g4302
sg67
(lp4309
g60
(g61
g62
NtRp4310
(dp4311
g65
(dp4312
g73
I2
ssg74
g4306
sg67
(lp4313
g60
(g69
g62
NtRp4314
(dp4315
g65
(dp4316
g73
I1
ssg74
Nsg67
(lp4317
g60
(g76
g62
NtRp4318
(dp4319
g65
(dp4320
sg74
g4314
sg67
(lp4321
g60
(g81
g62
NtRp4322
(dp4323
g65
(dp4324
sg74
g4318
sg67
(lp4325
g60
(g61
g62
NtRp4326
(dp4327
g65
(dp4328
g73
I1
ssg74
g4322
sg67
(lp4329
g3919
(S's\r\x00\x00\x00Modelo "menu"'
tRp4330
asbasbasbag60
(g76
g62
NtRp4331
(dp4332
g65
(dp4333
sg74
g4314
sg67
(lp4334
g60
(g81
g62
NtRp4335
(dp4336
g65
(dp4337
sg74
g4331
sg67
(lp4338
g60
(g61
g62
NtRp4339
(dp4340
g65
(dp4341
g73
I1
ssg74
g4335
sg67
(lp4342
I00
asbasbasbag60
(g76
g62
NtRp4343
(dp4344
g65
(dp4345
sg74
g4314
sg67
(lp4346
g60
(g81
g62
NtRp4347
(dp4348
g65
(dp4349
sg74
g4343
sg67
(lp4350
g60
(g61
g62
NtRp4351
(dp4352
g65
(dp4353
g73
I1
ssg74
g4347
sg67
(lp4354
S'/admin/default/edit/Desglosar_Emails/models/menu.py'
p4355
asbasbasbasbasbasbasbag60
(g76
g62
NtRp4356
(dp4357
g65
(dp4358
sg74
g4028
sg67
(lp4359
g60
(g81
g62
NtRp4360
(dp4361
g65
(dp4362
sg74
g4356
sg67
(lp4363
g60
(g61
g62
NtRp4364
(dp4365
g65
(dp4366
g73
I2
ssg74
g4360
sg67
(lp4367
g60
(g69
g62
NtRp4368
(dp4369
g65
(dp4370
g73
I1
ssg74
Nsg67
(lp4371
g60
(g76
g62
NtRp4372
(dp4373
g65
(dp4374
sg74
g4368
sg67
(lp4375
g60
(g81
g62
NtRp4376
(dp4377
g65
(dp4378
sg74
g4372
sg67
(lp4379
g60
(g61
g62
NtRp4380
(dp4381
g65
(dp4382
g73
I1
ssg74
g4376
sg67
(lp4383
g3919
(S's\r\x00\x00\x00Base de datos'
tRp4384
asbasbasbag60
(g76
g62
NtRp4385
(dp4386
g65
(dp4387
sg74
g4368
sg67
(lp4388
g60
(g81
g62
NtRp4389
(dp4390
g65
(dp4391
sg74
g4385
sg67
(lp4392
g60
(g61
g62
NtRp4393
(dp4394
g65
(dp4395
g73
I1
ssg74
g4389
sg67
(lp4396
I00
asbasbasbag60
(g76
g62
NtRp4397
(dp4398
g65
(dp4399
sg74
g4368
sg67
(lp4400
g60
(g81
g62
NtRp4401
(dp4402
g65
(dp4403
sg74
g4397
sg67
(lp4404
g60
(g61
g62
NtRp4405
(dp4406
g65
(dp4407
g73
I1
ssg74
g4401
sg67
(lp4408
S'/Desglosar_Emails/appadmin/index'
p4409
asbasbasbasbasbasbasbag60
(g76
g62
NtRp4410
(dp4411
g65
(dp4412
sg74
g4028
sg67
(lp4413
g60
(g81
g62
NtRp4414
(dp4415
g65
(dp4416
sg74
g4410
sg67
(lp4417
g60
(g61
g62
NtRp4418
(dp4419
g65
(dp4420
g73
I2
ssg74
g4414
sg67
(lp4421
g60
(g69
g62
NtRp4422
(dp4423
g65
(dp4424
g73
I1
ssg74
Nsg67
(lp4425
g60
(g76
g62
NtRp4426
(dp4427
g65
(dp4428
sg74
g4422
sg67
(lp4429
g60
(g81
g62
NtRp4430
(dp4431
g65
(dp4432
sg74
g4426
sg67
(lp4433
g60
(g61
g62
NtRp4434
(dp4435
g65
(dp4436
g73
I1
ssg74
g4430
sg67
(lp4437
g3919
(S't\x06\x00\x00\x00Errors'
tRp4438
asbasbasbag60
(g76
g62
NtRp4439
(dp4440
g65
(dp4441
sg74
g4422
sg67
(lp4442
g60
(g81
g62
NtRp4443
(dp4444
g65
(dp4445
sg74
g4439
sg67
(lp4446
g60
(g61
g62
NtRp4447
(dp4448
g65
(dp4449
g73
I1
ssg74
g4443
sg67
(lp4450
I00
asbasbasbag60
(g76
g62
NtRp4451
(dp4452
g65
(dp4453
sg74
g4422
sg67
(lp4454
g60
(g81
g62
NtRp4455
(dp4456
g65
(dp4457
sg74
g4451
sg67
(lp4458
g60
(g61
g62
NtRp4459
(dp4460
g65
(dp4461
g73
I1
ssg74
g4455
sg67
(lp4462
S'/admin/default/errors/Desglosar_Emails'
p4463
asbasbasbasbasbasbasbag60
(g76
g62
NtRp4464
(dp4465
g65
(dp4466
sg74
g4028
sg67
(lp4467
g60
(g81
g62
NtRp4468
(dp4469
g65
(dp4470
sg74
g4464
sg67
(lp4471
g60
(g61
g62
NtRp4472
(dp4473
g65
(dp4474
g73
I2
ssg74
g4468
sg67
(lp4475
g60
(g69
g62
NtRp4476
(dp4477
g65
(dp4478
g73
I1
ssg74
Nsg67
(lp4479
g60
(g76
g62
NtRp4480
(dp4481
g65
(dp4482
sg74
g4476
sg67
(lp4483
g60
(g81
g62
NtRp4484
(dp4485
g65
(dp4486
sg74
g4480
sg67
(lp4487
g60
(g61
g62
NtRp4488
(dp4489
g65
(dp4490
g73
I1
ssg74
g4484
sg67
(lp4491
g3919
(S's\t\x00\x00\x00Acerca de'
tRp4492
asbasbasbag60
(g76
g62
NtRp4493
(dp4494
g65
(dp4495
sg74
g4476
sg67
(lp4496
g60
(g81
g62
NtRp4497
(dp4498
g65
(dp4499
sg74
g4493
sg67
(lp4500
g60
(g61
g62
NtRp4501
(dp4502
g65
(dp4503
g73
I1
ssg74
g4497
sg67
(lp4504
I00
asbasbasbag60
(g76
g62
NtRp4505
(dp4506
g65
(dp4507
sg74
g4476
sg67
(lp4508
g60
(g81
g62
NtRp4509
(dp4510
g65
(dp4511
sg74
g4505
sg67
(lp4512
g60
(g61
g62
NtRp4513
(dp4514
g65
(dp4515
g73
I1
ssg74
g4509
sg67
(lp4516
S'/admin/default/about/Desglosar_Emails'
p4517
asbasbasbasbasbasbasbasbasbasbasbasbasbasbasbag60
(g76
g62
NtRp4518
(dp4519
g65
(dp4520
sg74
g3887
sg67
(lp4521
g60
(g81
g62
NtRp4522
(dp4523
g65
(dp4524
sg74
g4518
sg67
(lp4525
g60
(g61
g62
NtRp4526
(dp4527
g65
(dp4528
g73
I4
ssg74
g4522
sg67
(lp4529
g60
(g69
g62
NtRp4530
(dp4531
g65
(dp4532
g73
I3
ssg74
Nsg67
(lp4533
g60
(g76
g62
NtRp4534
(dp4535
g65
(dp4536
sg74
g4530
sg67
(lp4537
g60
(g81
g62
NtRp4538
(dp4539
g65
(dp4540
sg74
g4534
sg67
(lp4541
g60
(g61
g62
NtRp4542
(dp4543
g65
(dp4544
g73
I3
ssg74
g4538
sg67
(lp4545
g3919
(S't\t\x00\x00\x00Resources'
tRp4546
asbasbasbag60
(g76
g62
NtRp4547
(dp4548
g65
(dp4549
sg74
g4530
sg67
(lp4550
g60
(g81
g62
NtRp4551
(dp4552
g65
(dp4553
sg74
g4547
sg67
(lp4554
g60
(g61
g62
NtRp4555
(dp4556
g65
(dp4557
g73
I3
ssg74
g4551
sg67
(lp4558
g103
asbasbasbag60
(g76
g62
NtRp4559
(dp4560
g65
(dp4561
sg74
g4530
sg67
(lp4562
g60
(g81
g62
NtRp4563
(dp4564
g65
(dp4565
sg74
g4559
sg67
(lp4566
g60
(g61
g62
NtRp4567
(dp4568
g65
(dp4569
g73
I3
ssg74
g4563
sg67
(lp4570
S'None'
p4571
asbasbasbag60
(g76
g62
NtRp4572
(dp4573
g65
(dp4574
sg74
g4530
sg67
(lp4575
g60
(g81
g62
NtRp4576
(dp4577
g65
(dp4578
sg74
g4572
sg67
(lp4579
g60
(g61
g62
NtRp4580
(dp4581
g65
(dp4582
g73
I3
ssg74
g4576
sg67
(lp4583
g60
(g69
g62
NtRp4584
(dp4585
g65
(dp4586
g73
I2
ssg74
Nsg67
(lp4587
g60
(g76
g62
NtRp4588
(dp4589
g65
(dp4590
sg74
g4584
sg67
(lp4591
g60
(g81
g62
NtRp4592
(dp4593
g65
(dp4594
sg74
g4588
sg67
(lp4595
g60
(g61
g62
NtRp4596
(dp4597
g65
(dp4598
g73
I2
ssg74
g4592
sg67
(lp4599
g60
(g69
g62
NtRp4600
(dp4601
g65
(dp4602
g73
I1
ssg74
Nsg67
(lp4603
g60
(g76
g62
NtRp4604
(dp4605
g65
(dp4606
sg74
g4600
sg67
(lp4607
g60
(g81
g62
NtRp4608
(dp4609
g65
(dp4610
sg74
g4604
sg67
(lp4611
g60
(g61
g62
NtRp4612
(dp4613
g65
(dp4614
g73
I1
ssg74
g4608
sg67
(lp4615
g3919
(S's\x0e\x00\x00\x00Documentaci\xc3\xb3n'
tRp4616
asbasbasbag60
(g76
g62
NtRp4617
(dp4618
g65
(dp4619
sg74
g4600
sg67
(lp4620
g60
(g81
g62
NtRp4621
(dp4622
g65
(dp4623
sg74
g4617
sg67
(lp4624
g60
(g61
g62
NtRp4625
(dp4626
g65
(dp4627
g73
I1
ssg74
g4621
sg67
(lp4628
I00
asbasbasbag60
(g76
g62
NtRp4629
(dp4630
g65
(dp4631
sg74
g4600
sg67
(lp4632
g60
(g81
g62
NtRp4633
(dp4634
g65
(dp4635
sg74
g4629
sg67
(lp4636
g60
(g61
g62
NtRp4637
(dp4638
g65
(dp4639
g73
I1
ssg74
g4633
sg67
(lp4640
S'http://www.web2py.com/book'
p4641
asbasbasbag60
(g76
g62
NtRp4642
(dp4643
g65
(dp4644
sg74
g4600
sg67
(lp4645
g60
(g81
g62
NtRp4646
(dp4647
g65
(dp4648
sg74
g4642
sg67
(lp4649
g60
(g61
g62
NtRp4650
(dp4651
g65
(dp4652
g73
I1
ssg74
g4646
sg67
(lp4653
(lp4654
(g3919
(S't\x07\x00\x00\x00Preface'
tRp4655
I00
S'http://www.web2py.com/book/default/chapter/00'
tp4656
a(g3919
(S't\x0c\x00\x00\x00Introduction'
tRp4657
I00
S'http://www.web2py.com/book/default/chapter/01'
tp4658
a(g3919
(S't\x06\x00\x00\x00Python'
tRp4659
I00
S'http://www.web2py.com/book/default/chapter/02'
tp4660
a(g3919
(S't\x08\x00\x00\x00Overview'
tRp4661
I00
S'http://www.web2py.com/book/default/chapter/03'
tp4662
a(g3919
(S's\x08\x00\x00\x00The Core'
tRp4663
I00
S'http://www.web2py.com/book/default/chapter/04'
tp4664
a(g3919
(S's\t\x00\x00\x00The Views'
tRp4665
I00
S'http://www.web2py.com/book/default/chapter/05'
tp4666
a(g3919
(S's\r\x00\x00\x00Base de datos'
tRp4667
I00
S'http://www.web2py.com/book/default/chapter/06'
tp4668
a(g3919
(S's\x14\x00\x00\x00Forms and Validators'
tRp4669
I00
S'http://www.web2py.com/book/default/chapter/07'
tp4670
a(g3919
(S's\x0e\x00\x00\x00Access Control'
tRp4671
I00
S'http://www.web2py.com/book/default/chapter/08'
tp4672
a(g3919
(S't\x08\x00\x00\x00Services'
tRp4673
I00
S'http://www.web2py.com/book/default/chapter/09'
tp4674
a(g3919
(S's\x0c\x00\x00\x00Ajax Recipes'
tRp4675
I00
S'http://www.web2py.com/book/default/chapter/10'
tp4676
a(g3919
(S's\x12\x00\x00\x00Deployment Recipes'
tRp4677
I00
S'http://www.web2py.com/book/default/chapter/11'
tp4678
a(g3919
(S's\r\x00\x00\x00Other Recipes'
tRp4679
I00
S'http://www.web2py.com/book/default/chapter/12'
tp4680
a(g3919
(S's\r\x00\x00\x00Buy this book'
tRp4681
I00
S'http://stores.lulu.com/web2py'
tp4682
aasbasbasbasbasbasbasbag60
(g76
g62
NtRp4683
(dp4684
g65
(dp4685
sg74
g4584
sg67
(lp4686
g60
(g81
g62
NtRp4687
(dp4688
g65
(dp4689
sg74
g4683
sg67
(lp4690
g60
(g61
g62
NtRp4691
(dp4692
g65
(dp4693
g73
I2
ssg74
g4687
sg67
(lp4694
g60
(g69
g62
NtRp4695
(dp4696
g65
(dp4697
g73
I1
ssg74
Nsg67
(lp4698
g60
(g76
g62
NtRp4699
(dp4700
g65
(dp4701
sg74
g4695
sg67
(lp4702
g60
(g81
g62
NtRp4703
(dp4704
g65
(dp4705
sg74
g4699
sg67
(lp4706
g60
(g61
g62
NtRp4707
(dp4708
g65
(dp4709
g73
I1
ssg74
g4703
sg67
(lp4710
g3919
(S't\t\x00\x00\x00Community'
tRp4711
asbasbasbag60
(g76
g62
NtRp4712
(dp4713
g65
(dp4714
sg74
g4695
sg67
(lp4715
g60
(g81
g62
NtRp4716
(dp4717
g65
(dp4718
sg74
g4712
sg67
(lp4719
g60
(g61
g62
NtRp4720
(dp4721
g65
(dp4722
g73
I1
ssg74
g4716
sg67
(lp4723
I00
asbasbasbag60
(g76
g62
NtRp4724
(dp4725
g65
(dp4726
sg74
g4695
sg67
(lp4727
g60
(g81
g62
NtRp4728
(dp4729
g65
(dp4730
sg74
g4724
sg67
(lp4731
g60
(g61
g62
NtRp4732
(dp4733
g65
(dp4734
g73
I1
ssg74
g4728
sg67
(lp4735
Nasbasbasbag60
(g76
g62
NtRp4736
(dp4737
g65
(dp4738
sg74
g4695
sg67
(lp4739
g60
(g81
g62
NtRp4740
(dp4741
g65
(dp4742
sg74
g4736
sg67
(lp4743
g60
(g61
g62
NtRp4744
(dp4745
g65
(dp4746
g73
I1
ssg74
g4740
sg67
(lp4747
(lp4748
(g3919
(S't\x06\x00\x00\x00Groups'
tRp4749
I00
S'http://www.web2py.com/examples/default/usergroups'
tp4750
a(g3919
(S't\x07\x00\x00\x00Twitter'
tRp4751
I00
S'http://twitter.com/web2py'
tp4752
a(g3919
(S's\t\x00\x00\x00Live chat'
tRp4753
I00
S'http://mibbit.com/?channel=%23web2py&server=irc.mibbit.net'
tp4754
a(g3919
(S's\n\x00\x00\x00User Voice'
tRp4755
I00
S'http://web2py.uservoice.com/'
tp4756
aasbasbasbasbasbasbasbag60
(g76
g62
NtRp4757
(dp4758
g65
(dp4759
sg74
g4584
sg67
(lp4760
g60
(g81
g62
NtRp4761
(dp4762
g65
(dp4763
sg74
g4757
sg67
(lp4764
g60
(g61
g62
NtRp4765
(dp4766
g65
(dp4767
g73
I2
ssg74
g4761
sg67
(lp4768
g60
(g69
g62
NtRp4769
(dp4770
g65
(dp4771
g73
I1
ssg74
Nsg67
(lp4772
g60
(g76
g62
NtRp4773
(dp4774
g65
(dp4775
sg74
g4769
sg67
(lp4776
g60
(g81
g62
NtRp4777
(dp4778
g65
(dp4779
sg74
g4773
sg67
(lp4780
g60
(g61
g62
NtRp4781
(dp4782
g65
(dp4783
g73
I1
ssg74
g4777
sg67
(lp4784
g3919
(S't\x06\x00\x00\x00Web2py'
tRp4785
asbasbasbag60
(g76
g62
NtRp4786
(dp4787
g65
(dp4788
sg74
g4769
sg67
(lp4789
g60
(g81
g62
NtRp4790
(dp4791
g65
(dp4792
sg74
g4786
sg67
(lp4793
g60
(g61
g62
NtRp4794
(dp4795
g65
(dp4796
g73
I1
ssg74
g4790
sg67
(lp4797
I00
asbasbasbag60
(g76
g62
NtRp4798
(dp4799
g65
(dp4800
sg74
g4769
sg67
(lp4801
g60
(g81
g62
NtRp4802
(dp4803
g65
(dp4804
sg74
g4798
sg67
(lp4805
g60
(g61
g62
NtRp4806
(dp4807
g65
(dp4808
g73
I1
ssg74
g4802
sg67
(lp4809
S'http://www.web2py.com'
p4810
asbasbasbag60
(g76
g62
NtRp4811
(dp4812
g65
(dp4813
sg74
g4769
sg67
(lp4814
g60
(g81
g62
NtRp4815
(dp4816
g65
(dp4817
sg74
g4811
sg67
(lp4818
g60
(g61
g62
NtRp4819
(dp4820
g65
(dp4821
g73
I1
ssg74
g4815
sg67
(lp4822
(lp4823
(g3919
(S't\x08\x00\x00\x00Download'
tRp4824
I00
S'http://www.web2py.com/examples/default/download'
tp4825
a(g3919
(S't\x07\x00\x00\x00Support'
tRp4826
I00
S'http://www.web2py.com/examples/default/support'
tp4827
a(g3919
(S's\x0e\x00\x00\x00Quick Examples'
tRp4828
I00
S'http://web2py.com/examples/default/examples'
tp4829
a(g3919
(S't\x03\x00\x00\x00FAQ'
tRp4830
I00
S'http://web2py.com/AlterEgo'
tp4831
a(g3919
(S's\x11\x00\x00\x00Free Applications'
tRp4832
I00
S'http://web2py.com/appliances'
tp4833
a(g3919
(S't\x07\x00\x00\x00Plugins'
tRp4834
I00
S'http://web2py.com/plugins'
tp4835
a(g3919
(S't\x07\x00\x00\x00Recipes'
tRp4836
I00
S'http://web2pyslices.com/'
tp4837
a(g3919
(S't\x04\x00\x00\x00Demo'
tRp4838
I00
S'http://web2py.com/demo_admin'
tp4839
a(g3919
(S't\x08\x00\x00\x00Semantic'
tRp4840
I00
S'http://web2py.com/semantic'
tp4841
a(g3919
(S't\x07\x00\x00\x00Layouts'
tRp4842
I00
S'http://web2py.com/layouts'
tp4843
a(g3919
(S't\x06\x00\x00\x00Videos'
tRp4844
I00
S'http://www.web2py.com/examples/default/videos/'
tp4845
aasbasbasbasbasbasbasbasbasbasbasbasbasbasbasbasbasbasbasbag60
(g76
g62
NtRp4846
(dp4847
g65
(dp4848
sg74
g3446
sg67
(lp4849
g60
(g81
g62
NtRp4850
(dp4851
g65
(dp4852
g85
g86
ssg74
g4846
sg67
(lp4853
S'meta'
p4854
asbag60
(g81
g62
NtRp4855
(dp4856
g65
(dp4857
g92
g93
ssg74
g4846
sg67
(lp4858
S':'
asbag60
(g81
g62
NtRp4859
(dp4860
g65
(dp4861
sg74
g4846
sg67
(lp4862
g60
(g61
g62
NtRp4863
(dp4864
g65
(dp4865
g73
I5
ssg74
g4859
sg67
(lp4866
g60
(g69
g62
NtRp4867
(dp4868
g65
(dp4869
g73
I4
ssg74
Nsg67
(lp4870
g60
(g76
g62
NtRp4871
(dp4872
g65
(dp4873
sg74
g4867
sg67
(lp4874
g60
(g81
g62
NtRp4875
(dp4876
g65
(dp4877
g85
g86
ssg74
g4871
sg67
(lp4878
S'author'
p4879
asbag60
(g81
g62
NtRp4880
(dp4881
g65
(dp4882
g92
g93
ssg74
g4871
sg67
(lp4883
S':'
asbag60
(g81
g62
NtRp4884
(dp4885
g65
(dp4886
sg74
g4871
sg67
(lp4887
g60
(g61
g62
NtRp4888
(dp4889
g65
(dp4890
g73
I4
ssg74
g4884
sg67
(lp4891
S'you'
p4892
asbasbasbag60
(g76
g62
NtRp4893
(dp4894
g65
(dp4895
sg74
g4867
sg67
(lp4896
g60
(g81
g62
NtRp4897
(dp4898
g65
(dp4899
g85
g86
ssg74
g4893
sg67
(lp4900
S'copyright'
p4901
asbag60
(g81
g62
NtRp4902
(dp4903
g65
(dp4904
g92
g93
ssg74
g4893
sg67
(lp4905
S':'
asbag60
(g81
g62
NtRp4906
(dp4907
g65
(dp4908
sg74
g4893
sg67
(lp4909
g60
(g61
g62
NtRp4910
(dp4911
g65
(dp4912
g73
I4
ssg74
g4906
sg67
(lp4913
S'Copyright 2007-2010'
p4914
asbasbasbag60
(g76
g62
NtRp4915
(dp4916
g65
(dp4917
sg74
g4867
sg67
(lp4918
g60
(g81
g62
NtRp4919
(dp4920
g65
(dp4921
g85
g86
ssg74
g4915
sg67
(lp4922
S'description'
p4923
asbag60
(g81
g62
NtRp4924
(dp4925
g65
(dp4926
g92
g93
ssg74
g4915
sg67
(lp4927
S':'
asbag60
(g81
g62
NtRp4928
(dp4929
g65
(dp4930
sg74
g4915
sg67
(lp4931
g60
(g61
g62
NtRp4932
(dp4933
g65
(dp4934
g73
I4
ssg74
g4928
sg67
(lp4935
S'Free and open source full-stack enterprise framework for agile development of fast, scalable, secure and portable database-driven web-based applications. Written and programmable in Python'
p4936
asbasbasbag60
(g76
g62
NtRp4937
(dp4938
g65
(dp4939
sg74
g4867
sg67
(lp4940
g60
(g81
g62
NtRp4941
(dp4942
g65
(dp4943
g85
g86
ssg74
g4937
sg67
(lp4944
S'generator'
p4945
asbag60
(g81
g62
NtRp4946
(dp4947
g65
(dp4948
g92
g93
ssg74
g4937
sg67
(lp4949
S':'
asbag60
(g81
g62
NtRp4950
(dp4951
g65
(dp4952
sg74
g4937
sg67
(lp4953
g60
(g61
g62
NtRp4954
(dp4955
g65
(dp4956
g73
I4
ssg74
g4950
sg67
(lp4957
S'Web2py Enterprise Framework'
p4958
asbasbasbag60
(g76
g62
NtRp4959
(dp4960
g65
(dp4961
sg74
g4867
sg67
(lp4962
g60
(g81
g62
NtRp4963
(dp4964
g65
(dp4965
g85
g86
ssg74
g4959
sg67
(lp4966
S'keywords'
p4967
asbag60
(g81
g62
NtRp4968
(dp4969
g65
(dp4970
g92
g93
ssg74
g4959
sg67
(lp4971
S':'
asbag60
(g81
g62
NtRp4972
(dp4973
g65
(dp4974
sg74
g4959
sg67
(lp4975
g60
(g61
g62
NtRp4976
(dp4977
g65
(dp4978
g73
I4
ssg74
g4972
sg67
(lp4979
S'web2py, python, framework'
p4980
asbasbasbasbasbasbasbag60
(g76
g62
NtRp4981
(dp4982
g65
(dp4983
sg74
g3446
sg67
(lp4984
g60
(g81
g62
NtRp4985
(dp4986
g65
(dp4987
g85
g86
ssg74
g4981
sg67
(lp4988
S'postprocessing'
p4989
asbag60
(g81
g62
NtRp4990
(dp4991
g65
(dp4992
g92
g93
ssg74
g4981
sg67
(lp4993
S':'
asbag60
(g81
g62
NtRp4994
(dp4995
g65
(dp4996
sg74
g4981
sg67
(lp4997
g60
(g61
g62
NtRp4998
(dp4999
g65
(dp5000
g73
I5
ssg74
g4994
sg67
(lp5001
g60
(g69
g62
NtRp5002
(dp5003
g65
(dp5004
g73
I4
ssg74
Nsg67
(lp5005
sbasbasbasbag60
(g76
g62
NtRp5006
(dp5007
g65
(dp5008
sg74
g3446
sg67
(lp5009
g60
(g81
g62
NtRp5010
(dp5011
g65
(dp5012
g85
g86
ssg74
g5006
sg67
(lp5013
S'session_file'
p5014
asbag60
(g81
g62
NtRp5015
(dp5016
g65
(dp5017
g92
g93
ssg74
g5006
sg67
(lp5018
S':'
asbag60
(g81
g62
NtRp5019
(dp5020
g65
(dp5021
sg74
g5006
sg67
(lp5022
g60
(g61
g62
NtRp5023
(dp5024
g65
(dp5025
g73
I5
ssg74
g5019
sg67
(lp5026
S"<open file 'C:\\Users\\Atomico\\web2py\\applications\\Desglosar_Emails\\sessions\\127.0.0.1-0a11b3b2-660c-433c-b71f-fc129286f26c', mode 'rb+' at 0x07FE6578>"
p5027
asbasbasbag60
(g76
g62
NtRp5028
(dp5029
g65
(dp5030
sg74
g3446
sg67
(lp5031
g60
(g81
g62
NtRp5032
(dp5033
g65
(dp5034
g85
g86
ssg74
g5028
sg67
(lp5035
S'session_filename'
p5036
asbag60
(g81
g62
NtRp5037
(dp5038
g65
(dp5039
g92
g93
ssg74
g5028
sg67
(lp5040
S':'
asbag60
(g81
g62
NtRp5041
(dp5042
g65
(dp5043
sg74
g5028
sg67
(lp5044
g60
(g61
g62
NtRp5045
(dp5046
g65
(dp5047
g73
I5
ssg74
g5041
sg67
(lp5048
S'C:\\Users\\Atomico\\web2py\\applications\\Desglosar_Emails\\sessions\\127.0.0.1-0a11b3b2-660c-433c-b71f-fc129286f26c'
p5049
asbasbasbag60
(g76
g62
NtRp5050
(dp5051
g65
(dp5052
sg74
g3446
sg67
(lp5053
g60
(g81
g62
NtRp5054
(dp5055
g65
(dp5056
g85
g86
ssg74
g5050
sg67
(lp5057
S'session_id'
p5058
asbag60
(g81
g62
NtRp5059
(dp5060
g65
(dp5061
g92
g93
ssg74
g5050
sg67
(lp5062
S':'
asbag60
(g81
g62
NtRp5063
(dp5064
g65
(dp5065
sg74
g5050
sg67
(lp5066
g60
(g61
g62
NtRp5067
(dp5068
g65
(dp5069
g73
I5
ssg74
g5063
sg67
(lp5070
S'127.0.0.1-0a11b3b2-660c-433c-b71f-fc129286f26c'
p5071
asbasbasbag60
(g76
g62
NtRp5072
(dp5073
g65
(dp5074
sg74
g3446
sg67
(lp5075
g60
(g81
g62
NtRp5076
(dp5077
g65
(dp5078
g85
g86
ssg74
g5072
sg67
(lp5079
S'session_id_name'
p5080
asbag60
(g81
g62
NtRp5081
(dp5082
g65
(dp5083
g92
g93
ssg74
g5072
sg67
(lp5084
S':'
asbag60
(g81
g62
NtRp5085
(dp5086
g65
(dp5087
sg74
g5072
sg67
(lp5088
g60
(g61
g62
NtRp5089
(dp5090
g65
(dp5091
g73
I5
ssg74
g5085
sg67
(lp5092
g3503
asbasbasbag60
(g76
g62
NtRp5093
(dp5094
g65
(dp5095
sg74
g3446
sg67
(lp5096
g60
(g81
g62
NtRp5097
(dp5098
g65
(dp5099
g85
g86
ssg74
g5093
sg67
(lp5100
S'session_locked'
p5101
asbag60
(g81
g62
NtRp5102
(dp5103
g65
(dp5104
g92
g93
ssg74
g5093
sg67
(lp5105
S':'
asbag60
(g81
g62
NtRp5106
(dp5107
g65
(dp5108
sg74
g5093
sg67
(lp5109
g60
(g61
g62
NtRp5110
(dp5111
g65
(dp5112
g73
I5
ssg74
g5106
sg67
(lp5113
g2380
asbasbasbag60
(g76
g62
NtRp5114
(dp5115
g65
(dp5116
sg74
g3446
sg67
(lp5117
g60
(g81
g62
NtRp5118
(dp5119
g65
(dp5120
g85
g86
ssg74
g5114
sg67
(lp5121
S'session_new'
p5122
asbag60
(g81
g62
NtRp5123
(dp5124
g65
(dp5125
g92
g93
ssg74
g5114
sg67
(lp5126
S':'
asbag60
(g81
g62
NtRp5127
(dp5128
g65
(dp5129
sg74
g5114
sg67
(lp5130
g60
(g61
g62
NtRp5131
(dp5132
g65
(dp5133
g73
I5
ssg74
g5127
sg67
(lp5134
g103
asbasbasbag60
(g76
g62
NtRp5135
(dp5136
g65
(dp5137
sg74
g3446
sg67
(lp5138
g60
(g81
g62
NtRp5139
(dp5140
g65
(dp5141
g85
g86
ssg74
g5135
sg67
(lp5142
S'status'
p5143
asbag60
(g81
g62
NtRp5144
(dp5145
g65
(dp5146
g92
g93
ssg74
g5135
sg67
(lp5147
S':'
asbag60
(g81
g62
NtRp5148
(dp5149
g65
(dp5150
sg74
g5135
sg67
(lp5151
g60
(g61
g62
NtRp5152
(dp5153
g65
(dp5154
g73
I5
ssg74
g5148
sg67
(lp5155
S'200'
p5156
asbasbasbag60
(g76
g62
NtRp5157
(dp5158
g65
(dp5159
sg74
g3446
sg67
(lp5160
g60
(g81
g62
NtRp5161
(dp5162
g65
(dp5163
g85
g86
ssg74
g5157
sg67
(lp5164
S'subtitle'
p5165
asbag60
(g81
g62
NtRp5166
(dp5167
g65
(dp5168
g92
g93
ssg74
g5157
sg67
(lp5169
S':'
asbag60
(g81
g62
NtRp5170
(dp5171
g65
(dp5172
sg74
g5157
sg67
(lp5173
g60
(g61
g62
NtRp5174
(dp5175
g65
(dp5176
g73
I5
ssg74
g5170
sg67
(lp5177
g3919
(S's\t\x00\x00\x00Adaptame!'
tRp5178
asbasbasbag60
(g76
g62
NtRp5179
(dp5180
g65
(dp5181
sg74
g3446
sg67
(lp5182
g60
(g81
g62
NtRp5183
(dp5184
g65
(dp5185
g85
g86
ssg74
g5179
sg67
(lp5186
S'title'
p5187
asbag60
(g81
g62
NtRp5188
(dp5189
g65
(dp5190
g92
g93
ssg74
g5179
sg67
(lp5191
S':'
asbag60
(g81
g62
NtRp5192
(dp5193
g65
(dp5194
sg74
g5179
sg67
(lp5195
g60
(g61
g62
NtRp5196
(dp5197
g65
(dp5198
g73
I5
ssg74
g5192
sg67
(lp5199
g125
asbasbasbag60
(g76
g62
NtRp5200
(dp5201
g65
(dp5202
sg74
g3446
sg67
(lp5203
g60
(g81
g62
NtRp5204
(dp5205
g65
(dp5206
g85
g86
ssg74
g5200
sg67
(lp5207
g2704
asbag60
(g81
g62
NtRp5208
(dp5209
g65
(dp5210
g92
g93
ssg74
g5200
sg67
(lp5211
S':'
asbag60
(g81
g62
NtRp5212
(dp5213
g65
(dp5214
sg74
g5200
sg67
(lp5215
g60
(g61
g62
NtRp5216
(dp5217
g65
(dp5218
g73
I5
ssg74
g5212
sg67
(lp5219
g2717
asbasbasbag60
(g76
g62
NtRp5220
(dp5221
g65
(dp5222
sg74
g3446
sg67
(lp5223
g60
(g81
g62
NtRp5224
(dp5225
g65
(dp5226
g85
g86
ssg74
g5220
sg67
(lp5227
S'view'
p5228
asbag60
(g81
g62
NtRp5229
(dp5230
g65
(dp5231
g92
g93
ssg74
g5220
sg67
(lp5232
S':'
asbag60
(g81
g62
NtRp5233
(dp5234
g65
(dp5235
sg74
g5220
sg67
(lp5236
g60
(g61
g62
NtRp5237
(dp5238
g65
(dp5239
g73
I5
ssg74
g5233
sg67
(lp5240
S'default/entrada_mod3.html'
p5241
asbasbasbasbasbsS'locals'
p5242
(dp5243
g3
S"r'C:\\Users\\Atomico\\web2py\\applications\\Desglosar_Emails\\views\\default/entrada_mod3.html'"
p5244
sg5
S'\'response.write(\\\'<!DOCTYPE html>\\\\n<html lang="\\\', ...t   -->    \\\\n  </body>\\\\n</html>\\\\n\\\', escape=False)\''
p5245
sssS'traceback'
p5246
S'Traceback (most recent call last):\n  File "gluon/restricted.py", line 191, in restricted\n  File "gluon/restricted.py", line 178, in compile2\n  File "C:\\Users\\Atomico\\web2py\\applications\\Desglosar_Emails\\views\\default/entrada_mod3.html", line 118\n    con=1    {{# porque la id empieza por 1#\n             ^\nSyntaxError: invalid syntax\n'
p5247
s.