(dp1
S'output'
p2
S''
sS'layer'
p3
S'C:\\Users\\Atomico\\web2py\\applications\\Desglosar_Emails\\views\\default/entrada_bien.html'
p4
sS'code'
p5
S'response.write(\'<!DOCTYPE html>\\n<html lang="\', escape=False)\nresponse.write(T.accepted_language or \'en\')\nresponse.write(\'" class="no-js"><!-- no-js need it for modernzr -->\\n  <head>\\n    \\n    <meta charset="utf-8" />\\t  \\t\\n    <!-- www.phpied.com/conditional-comments-block-downloads/ -->\\n    <!--[if IE]><![endif]-->    \\n    <!-- Always force latest IE rendering engine \\n\\t (even in intranet) & Chrome Frame \\n\\t Remove this if you use the .htaccess -->\\n    <meta http-equiv="X-UA-Compatible" content="IE=edge,chrome=1">\\n    \\n    <title>\', escape=False)\nresponse.write(response.title or request.application)\nresponse.write(\'</title>\\n    \\n    <!-- http://dev.w3.org/html5/markup/meta.name.html -->\\n    <meta name="application-name" content="\', escape=False)\nresponse.write(request.application)\nresponse.write(\'" />\\t\\n    \\n    <!-- Speaking of Google, don\\\'t forget to set your site up: \\n\\t http://google.com/webmasters -->\\n    <meta name="google-site-verification" content="" />\\n    \\n    <!--  Mobile Viewport Fix\\n\\t  j.mp/mobileviewport & davidbcalhoun.com/2010/viewport-metatag \\n\\t  device-width: Occupy full width of the screen in its current orientation\\n\\t  initial-scale = 1.0 retains dimensions instead of zooming out if page height > device height\\n\\t  maximum-scale = 1.0 retains dimensions instead of zooming in if page width < device width\\n      -->\\n    <meta name="viewport" content="width=device-width, initial-scale=1.0, maximum-scale=1.0">\\n    \\n    <!-- Place favicon.ico and apple-touch-icon.png in the root of your domain and delete these references -->\\n    <link rel="shortcut icon" href="\', escape=False)\nresponse.write(URL(\'static\',\'favicon.ico\'))\nresponse.write(\'" type="image/x-icon">\\n    <link rel="apple-touch-icon" href="\', escape=False)\nresponse.write(URL(\'static\',\'favicon.png\'))\nresponse.write(\'">\\n\\n    <!-- For the less-enabled mobile browsers like Opera Mini -->\\n    <link rel="stylesheet" media="handheld" href="\', escape=False)\nresponse.write(URL(\'static\',\'css/handheld.css\'))\nresponse.write(\'">\\n    \\n    <!-- All JavaScript at the bottom, except for Modernizr which enables HTML5 elements & feature detects -->\\n    <script src="\', escape=False)\nresponse.write(URL(\'static\',\'js/modernizr-1.7.min.js\'))\nresponse.write(\'"></script>\\n    \\n    \', escape=False)\n#------  require CSS and JS files for this page (read info in base.css) ------\nresponse.write(\'\\n    \', escape=False)\nresponse.files.append(URL(\'static\',\'css/base.css\'))\nresponse.write(\'\\n    \', escape=False)\nresponse.files.append(URL(\'static\',\'css/superfish.css\'))\nresponse.write(\'\\n    \', escape=False)\nresponse.files.append(URL(\'static\',\'js/superfish.js\'))\nresponse.write(\'\\n    \', escape=False)\n#------ include web2py specific js code (jquery, calendar, form stuff) ------\nresponse.write(\'\\n    \', escape=False)\nresponse.files.insert(0,URL(\'static\',\'js/jquery.js\'))\nresponse.files.insert(1,URL(\'static\',\'css/calendar.css\'))\nresponse.files.insert(2,URL(\'static\',\'js/calendar.js\'))\nfor _item in response.meta or []:\n    response.write(\'\\n     <meta name="\', escape=False)\n    response.write(_item)\n    response.write(\'" content="\', escape=False)\n    response.write(response.meta[_item])\n    response.write(\'" />\', escape=False)\n    pass\nfor _k,_file in enumerate(response.files or []):\n    if _file in response.files[:_k]:\n        continue\n    _file0=_file.lower().split(\'?\')[0]\n    if _file0.endswith(\'.css\'):\n        response.write(\'\\n     <link href="\', escape=False)\n        response.write(_file)\n        response.write(\'" rel="stylesheet" type="text/css" />\', escape=False)\n    elif _file0.endswith(\'.js\'):\n        response.write(\'\\n     <script src="\', escape=False)\n        response.write(_file)\n        response.write(\'" type="text/javascript"></script>\', escape=False)\n        pass\n    pass\nresponse.write(\'\\n    <script type="text/javascript"><!--\\n    // These variables are used by the web2py_ajax_init function in web2py_ajax.js (which is loaded below).\\n    var w2p_ajax_confirm_message = "\', escape=False)\nresponse.write(T(\'Are you sure you want to delete this object?\'))\nresponse.write(\'";\\n    var w2p_ajax_date_format = "\', escape=False)\nresponse.write(T(\'%Y-%m-%d\'))\nresponse.write(\'";\\n    var w2p_ajax_datetime_format = "\', escape=False)\nresponse.write(T(\'%Y-%m-%d %H:%M:%S\'))\nresponse.write(\'";\\n    //--></script>\\n    <script src="\', escape=False)\nresponse.write(URL(\'static\',\'js/web2py_ajax.js\'))\nresponse.write(\'" type="text/javascript"></script>\\n\', escape=False)\nresponse.write(\'\\n\\n    \', escape=False)\n#using sidebars need to know what sidebar you want to use\n#prior of using it, because of static width size of content, you can use\n#left_sidebar, right_sidebar, both or none (False left and right)\nleft_sidebar_enabled = globals().get(\'left_sidebar_enabled\',False)\nright_sidebar_enabled = globals().get(\'right_sidebar_enabled\',False)\nif left_sidebar_enabled and right_sidebar_enabled: width_content=\'63%\'\nelif left_sidebar_enabled != right_sidebar_enabled: width_content=\'740px\'\nelse: width_content=\'100%\'\nif left_sidebar_enabled: left_sidebar_style = \'style="display: block;"\'\nelse: left_sidebar_style = \'style="display: none;"\'\nif right_sidebar_enabled: right_sidebar_style = \'style="display: block;"\'\nelse: right_sidebar_style = \'style="display: none;"\'\nstyle_content = \'style="width: %s"\' % width_content\nresponse.write(\'\\n  </head>\\n  \\n  <!-- paulirish.com/2008/conditional-stylesheets-vs-css-hacks-answer-neither/ -->\\t\\n  <!--[if lt IE 7 ]> <body class="ie6"> <![endif]-->\\n  <!--[if IE 7 ]>    <body class="ie7"> <![endif]-->\\n  <!--[if IE 8 ]>    <body class="ie8"> <![endif]-->\\n  <!--[if IE 9 ]>    <body class="ie9"> <![endif]-->\\n  <!--[if (gt IE 9)|!(IE)]><!--> <body> <!--<![endif]-->\\n    \\n    <div class="flash">\', escape=False)\nresponse.write(response.flash or \'\')\nresponse.write(\'</div> <!-- notification div -->\\n    \\n    <div id="container">\\t      \\t\\t      \\t\\n      \\n      <div id="wrapper">\\t\\t\\n\\t\\n\\t<div id="header"> <!-- header and login nav -->\\n\\t  \', escape=False)\nresponse.write(\' <!-- this is default header -->\\n\\t  \', escape=False)\ntry:\n    response.write(auth.navbar(action=URL(\'default\',\'user\')))\nexcept:pass\nresponse.write(\'\\t\\t          \\n\\t  <h1><span id="appname">\', escape=False)\nresponse.write(request.application.capitalize())\nresponse.write(\'</span>App</h1>\\n\\t  <div style="clear: both;"></div><!-- Clear the divs -->\\n\\t  \', escape=False)\nresponse.write(\'\\t\\t\\t\\t  \\t\\t\\t\\t\\t  \\n\\t</div><!-- header  -->\\n\\t\\n\\t<div id="statusbar"><!-- statusbar is menu zone -->\\n\\t  \', escape=False)\nresponse.write(\' <!-- this is default statusbar -->\\n\\t  \', escape=False)\n#------ superfish menu ------\nresponse.write(\'\\n\\t  \', escape=False)\nresponse.write(MENU(response.menu,_class=\'sf-menu\'))\nresponse.write(\'\\n\\t  <script type="text/javascript">\\n\\t    jQuery(document).ready(function(){\\n\\t    jQuery(\\\'ul.sf-menu\\\').superfish();});\\n\\t  </script>\\n\\t  <div style="clear: both;"></div><!-- Clear the divs -->\\t\\n\\t  \', escape=False)\nresponse.write(\'\\t\\t\\t\\t\\n\\t</div><!-- statusbar -->\\n\\t\\n\\t<div id="page"> <!-- Here my central body -->\\t  \\n\\n\\t  \', escape=False)\nif left_sidebar_enabled:\n    response.write(\'\\n          <div id="left_sidebar" \', escape=False)\n    response.write(XML(left_sidebar_style))\n    response.write(\' >\\n            <div style="padding: 4px;">\\n\\t      \', escape=False)\n    response.write(\'Content Left Sidebar\', escape=False)\n    response.write(\'\\t\\t  \\n            </div>\\n          </div><!-- left_sidebar -->\\n\\t  \', escape=False)\n    pass\nresponse.write(\'\\n\\n\\t  <!-- content -->\\n\\t  <div id="content" \', escape=False)\nresponse.write(XML(style_content))\nresponse.write(\' >\\n\\t    \', escape=False)\nresponse.write(\'\\r\\n<h1>Esta es la plantilla default/entrada_mod3.html</h1>\\r\\n<h2>Formulario</h2>\\r\\n\', escape=False)\nresponse.write(form)\nresponse.write(\'\\r\\n<br/>\\r\\n<h3>Tratamientos</h3>\\r\\n\', escape=False)\ntextual=db(db.info4.id==1).select()[0]\ntxt=textual.texto\nimport re\npattern=re.compile("\\w+[.@&\\w\xc3\x91\xc3\xb1]*")\npatternemail=re.compile("@\\w+\\.[.\\w]+")\ndb(db.info4.id==1).update(longitud=len(txt))\nres=pattern.findall(txt)\nres2=patternemail.findall(txt)\nfor i in res: response.write (i+\'    \')\nresponse.write(\'En total son \', escape=False)\nresponse.write(len(res))\nresponse.write(\' nombres sueltos <br/> \', escape=False)\nfor i in res2: response.write(i+\'    \')\nresponse.write(\'En total son \', escape=False)\nresponse.write(len(res2))\nresponse.write(\' conf de emails sueltos <br/> \', escape=False)\ni=0\nwhile i<len(res):\n    if patternemail.search(res[i]):\n        bol=\'True\'\n    else:\n        bol=\'False\'\n        pass\n    response.write(\'<br> i es: \'+str(i)+\' y patternemail para la palabra \'+res[i]+\' es \'+bol ,escape=False)\n    if not patternemail.search(res[i]):\n        cadena=\'\'\n        while not patternemail.search(res[i]):\n            cadena=cadena+\' \'+res[i]\n            i=i+1\n            pass\n        db.contactos.insert(nombre=cadena,email=res[i])\n        i=i+1\n    else:\n        db.contactos.insert(email=res[i])\n        i=i+1\n        pass\n    pass\nresponse.write(\'\\r\\n\', escape=False)\nlista=db().select(db.contactos.ALL)\nresponse.write(lista)\nresponse.write(\'\\r\\n\', escape=False)\nresponse.write(\'\\t\\n\\t  </div>\\n\\t  <!-- content -->\\n\\n\\t  \', escape=False)\nif right_sidebar_enabled:\n    response.write(\'\\n          <div id="right_sidebar" \', escape=False)\n    response.write(XML(right_sidebar_style))\n    response.write(\' >\\n            <div style="padding: 4px;">\\n              \', escape=False)\n    response.write(\'Content Right Sidebar\', escape=False)\n    response.write(\'\\n            </div>\\n\\t  </div><!-- right_sidebar -->\\n          \', escape=False)\n    pass\nresponse.write(\'\\n\\n\\n\\t  <div style="clear: both;"></div><!-- Clear the divs -->\\n\\t  \\n\\t</div><!-- page -->\\t\\t\\t\\t\\t\\t\\t\\n\\t\\n\\t<div id="footer">\\n\\t  \', escape=False)\nresponse.write(\' <!-- this is default footer -->\\n\\t  <a href="http://www.web2py.com/" style="float: left; padding-right: 6px;">\\n\\t    <img src="\', escape=False)\nresponse.write(URL(\'static\',\'images/poweredby.png\'))\nresponse.write(\'"/>\\n\\t  </a>\\n\\t  \', escape=False)\nresponse.write(T(\'Copyright\'))\nresponse.write(\' &#169; 2010\\t\\t\\t\\t\\n\\t  <div style="clear: both;"></div><!-- Clear the divs -->\\n\\t  \', escape=False)\nresponse.write(\'\\n\\n\\t</div><!-- footer -->\\t\\t\\t\\n      </div><!-- wrapper -->\\n    </div><!-- container -->\\t\\t\\n    \\n    <!--[if lt IE 7 ]>\\n\\t<script src="\', escape=False)\nresponse.write(URL(\'static\',\'js/dd_belatedpng.js\'))\nresponse.write(\'"></script>\\n\\t<script> DD_belatedPNG.fix(\\\'img, .png_bg\\\'); //fix any <img> or .png_bg background-images </script>\\n\\t<![endif]-->\\n    \\n    <!-- asynchronous google analytics: mathiasbynens.be/notes/async-analytics-snippet \\n\\t change the UA-XXXXX-X to be your site\\\'s ID -->\\n    <!--   \\n\\t   <script>\\n\\t     var _gaq = [[\\\'_setAccount\\\', \\\'UA-XXXXX-X\\\'], [\\\'_trackPageview\\\']];\\n\\t     (function(d, t) {\\n\\t     var g = d.createElement(t),\\n\\t     s = d.getElementsByTagName(t)[0];\\n\\t     g.async = true;\\n\\t     g.src = \\\'//www.google-analytics.com/ga.js\\\';\\n\\t     s.parentNode.insertBefore(g, s);\\n\\t     })(document, \\\'script\\\');\\n\\t   </script>\\n\\t   -->    \\n  </body>\\n</html>\\n\', escape=False)'
p6
sS'snapshot'
p7
(dp8
S'exception'
p9
(dp10
S'__hash__'
p11
S"<method-wrapper '__hash__' of exceptions.IndexError object at 0x06B1B6C0>"
p12
sS'__setattr__'
p13
S"<method-wrapper '__setattr__' of exceptions.IndexError object at 0x06B1B6C0>"
p14
sS'__reduce_ex__'
p15
S'<built-in method __reduce_ex__ of exceptions.IndexError object at 0x06B1B6C0>'
p16
sS'__getslice__'
p17
S"<method-wrapper '__getslice__' of exceptions.IndexError object at 0x06B1B6C0>"
p18
sS'__getitem__'
p19
S"<method-wrapper '__getitem__' of exceptions.IndexError object at 0x06B1B6C0>"
p20
sS'__setstate__'
p21
S'<built-in method __setstate__ of exceptions.IndexError object at 0x06B1B6C0>'
p22
sS'__reduce__'
p23
S'<built-in method __reduce__ of exceptions.IndexError object at 0x06B1B6C0>'
p24
sS'__str__'
p25
S"<method-wrapper '__str__' of exceptions.IndexError object at 0x06B1B6C0>"
p26
sS'args'
p27
S"('list index out of range',)"
p28
sS'__getattribute__'
p29
S"<method-wrapper '__getattribute__' of exceptions.IndexError object at 0x06B1B6C0>"
p30
sS'__class__'
p31
S"<type 'exceptions.IndexError'>"
p32
sS'__delattr__'
p33
S"<method-wrapper '__delattr__' of exceptions.IndexError object at 0x06B1B6C0>"
p34
sS'__repr__'
p35
S"<method-wrapper '__repr__' of exceptions.IndexError object at 0x06B1B6C0>"
p36
sS'__dict__'
p37
S'{}'
p38
sS'__doc__'
p39
S"'Sequence index out of range.'"
p40
sS'__init__'
p41
S"<method-wrapper '__init__' of exceptions.IndexError object at 0x06B1B6C0>"
p42
sS'__new__'
p43
S'<built-in method __new__ of type object at 0x1E1CDEF0>'
p44
ssS'evalue'
p45
S'list index out of range'
p46
sS'request'
p47
ccopy_reg
_reconstructor
p48
(cgluon.html
BEAUTIFY
p49
c__builtin__
object
p50
NtRp51
(dp52
S'attributes'
p53
(dp54
sS'components'
p55
(lp56
g48
(cgluon.html
TABLE
p57
g50
NtRp58
(dp59
g53
(dp60
S'level'
p61
I5
ssS'parent'
p62
Nsg55
(lp63
g48
(cgluon.html
TR
p64
g50
NtRp65
(dp66
g53
(dp67
sg62
g58
sg55
(lp68
g48
(cgluon.html
TD
p69
g50
NtRp70
(dp71
g53
(dp72
S'_style'
p73
S'font-weight:bold;'
p74
ssg62
g65
sg55
(lp75
S'ajax'
p76
asbag48
(g69
g50
NtRp77
(dp78
g53
(dp79
S'_valign'
p80
S'top'
p81
ssg62
g65
sg55
(lp82
S':'
asbag48
(g69
g50
NtRp83
(dp84
g53
(dp85
sg62
g65
sg55
(lp86
g48
(g49
g50
NtRp87
(dp88
g53
(dp89
g61
I5
ssg62
g83
sg55
(lp90
S'False'
p91
asbasbasbag48
(g64
g50
NtRp92
(dp93
g53
(dp94
sg62
g58
sg55
(lp95
g48
(g69
g50
NtRp96
(dp97
g53
(dp98
g73
g74
ssg62
g92
sg55
(lp99
S'application'
p100
asbag48
(g69
g50
NtRp101
(dp102
g53
(dp103
g80
g81
ssg62
g92
sg55
(lp104
S':'
asbag48
(g69
g50
NtRp105
(dp106
g53
(dp107
sg62
g92
sg55
(lp108
g48
(g49
g50
NtRp109
(dp110
g53
(dp111
g61
I5
ssg62
g105
sg55
(lp112
S'Desglosar_Emails'
p113
asbasbasbag48
(g64
g50
NtRp114
(dp115
g53
(dp116
sg62
g58
sg55
(lp117
g48
(g69
g50
NtRp118
(dp119
g53
(dp120
g73
g74
ssg62
g114
sg55
(lp121
g27
asbag48
(g69
g50
NtRp122
(dp123
g53
(dp124
g80
g81
ssg62
g114
sg55
(lp125
S':'
asbag48
(g69
g50
NtRp126
(dp127
g53
(dp128
sg62
g114
sg55
(lp129
g48
(g49
g50
NtRp130
(dp131
g53
(dp132
g61
I5
ssg62
g126
sg55
(lp133
g48
(g57
g50
NtRp134
(dp135
g53
(dp136
g61
I4
ssg62
Nsg55
(lp137
sbasbasbasbag48
(g64
g50
NtRp138
(dp139
g53
(dp140
sg62
g58
sg55
(lp141
g48
(g69
g50
NtRp142
(dp143
g53
(dp144
g73
g74
ssg62
g138
sg55
(lp145
S'body'
p146
asbag48
(g69
g50
NtRp147
(dp148
g53
(dp149
g80
g81
ssg62
g138
sg55
(lp150
S':'
asbag48
(g69
g50
NtRp151
(dp152
g53
(dp153
sg62
g138
sg55
(lp154
g48
(g49
g50
NtRp155
(dp156
g53
(dp157
g61
I5
ssg62
g151
sg55
(lp158
S"<open file '<fdopen>', mode 'w+b' at 0x0716AB18>"
p159
asbasbasbag48
(g64
g50
NtRp160
(dp161
g53
(dp162
sg62
g58
sg55
(lp163
g48
(g69
g50
NtRp164
(dp165
g53
(dp166
g73
g74
ssg62
g160
sg55
(lp167
S'client'
p168
asbag48
(g69
g50
NtRp169
(dp170
g53
(dp171
g80
g81
ssg62
g160
sg55
(lp172
S':'
asbag48
(g69
g50
NtRp173
(dp174
g53
(dp175
sg62
g160
sg55
(lp176
g48
(g49
g50
NtRp177
(dp178
g53
(dp179
g61
I5
ssg62
g173
sg55
(lp180
S'127.0.0.1'
p181
asbasbasbag48
(g64
g50
NtRp182
(dp183
g53
(dp184
sg62
g58
sg55
(lp185
g48
(g69
g50
NtRp186
(dp187
g53
(dp188
g73
g74
ssg62
g182
sg55
(lp189
S'controller'
p190
asbag48
(g69
g50
NtRp191
(dp192
g53
(dp193
g80
g81
ssg62
g182
sg55
(lp194
S':'
asbag48
(g69
g50
NtRp195
(dp196
g53
(dp197
sg62
g182
sg55
(lp198
g48
(g49
g50
NtRp199
(dp200
g53
(dp201
g61
I5
ssg62
g195
sg55
(lp202
S'default'
p203
asbasbasbag48
(g64
g50
NtRp204
(dp205
g53
(dp206
sg62
g58
sg55
(lp207
g48
(g69
g50
NtRp208
(dp209
g53
(dp210
g73
g74
ssg62
g204
sg55
(lp211
S'cookies'
p212
asbag48
(g69
g50
NtRp213
(dp214
g53
(dp215
g80
g81
ssg62
g204
sg55
(lp216
S':'
asbag48
(g69
g50
NtRp217
(dp218
g53
(dp219
sg62
g204
sg55
(lp220
g48
(g49
g50
NtRp221
(dp222
g53
(dp223
g61
I5
ssg62
g217
sg55
(lp224
g48
(g57
g50
NtRp225
(dp226
g53
(dp227
g61
I4
ssg62
Nsg55
(lp228
g48
(g64
g50
NtRp229
(dp230
g53
(dp231
sg62
g225
sg55
(lp232
g48
(g69
g50
NtRp233
(dp234
g53
(dp235
g73
g74
ssg62
g229
sg55
(lp236
S'session_id_admin'
p237
asbag48
(g69
g50
NtRp238
(dp239
g53
(dp240
g80
g81
ssg62
g229
sg55
(lp241
S':'
asbag48
(g69
g50
NtRp242
(dp243
g53
(dp244
sg62
g229
sg55
(lp245
g48
(g49
g50
NtRp246
(dp247
g53
(dp248
g61
I4
ssg62
g242
sg55
(lp249
g48
(g57
g50
NtRp250
(dp251
g53
(dp252
g61
I3
ssg62
Nsg55
(lp253
g48
(g64
g50
NtRp254
(dp255
g53
(dp256
sg62
g250
sg55
(lp257
g48
(g69
g50
NtRp258
(dp259
g53
(dp260
g73
g74
ssg62
g254
sg55
(lp261
S'comment'
p262
asbag48
(g69
g50
NtRp263
(dp264
g53
(dp265
g80
g81
ssg62
g254
sg55
(lp266
S':'
asbag48
(g69
g50
NtRp267
(dp268
g53
(dp269
sg62
g254
sg55
(lp270
g48
(g49
g50
NtRp271
(dp272
g53
(dp273
g61
I3
ssg62
g267
sg55
(lp274
S''
asbasbasbag48
(g64
g50
NtRp275
(dp276
g53
(dp277
sg62
g250
sg55
(lp278
g48
(g69
g50
NtRp279
(dp280
g53
(dp281
g73
g74
ssg62
g275
sg55
(lp282
S'domain'
p283
asbag48
(g69
g50
NtRp284
(dp285
g53
(dp286
g80
g81
ssg62
g275
sg55
(lp287
S':'
asbag48
(g69
g50
NtRp288
(dp289
g53
(dp290
sg62
g275
sg55
(lp291
g48
(g49
g50
NtRp292
(dp293
g53
(dp294
g61
I3
ssg62
g288
sg55
(lp295
S''
asbasbasbag48
(g64
g50
NtRp296
(dp297
g53
(dp298
sg62
g250
sg55
(lp299
g48
(g69
g50
NtRp300
(dp301
g53
(dp302
g73
g74
ssg62
g296
sg55
(lp303
S'expires'
p304
asbag48
(g69
g50
NtRp305
(dp306
g53
(dp307
g80
g81
ssg62
g296
sg55
(lp308
S':'
asbag48
(g69
g50
NtRp309
(dp310
g53
(dp311
sg62
g296
sg55
(lp312
g48
(g49
g50
NtRp313
(dp314
g53
(dp315
g61
I3
ssg62
g309
sg55
(lp316
S''
asbasbasbag48
(g64
g50
NtRp317
(dp318
g53
(dp319
sg62
g250
sg55
(lp320
g48
(g69
g50
NtRp321
(dp322
g53
(dp323
g73
g74
ssg62
g317
sg55
(lp324
S'max-age'
p325
asbag48
(g69
g50
NtRp326
(dp327
g53
(dp328
g80
g81
ssg62
g317
sg55
(lp329
S':'
asbag48
(g69
g50
NtRp330
(dp331
g53
(dp332
sg62
g317
sg55
(lp333
g48
(g49
g50
NtRp334
(dp335
g53
(dp336
g61
I3
ssg62
g330
sg55
(lp337
S''
asbasbasbag48
(g64
g50
NtRp338
(dp339
g53
(dp340
sg62
g250
sg55
(lp341
g48
(g69
g50
NtRp342
(dp343
g53
(dp344
g73
g74
ssg62
g338
sg55
(lp345
S'path'
p346
asbag48
(g69
g50
NtRp347
(dp348
g53
(dp349
g80
g81
ssg62
g338
sg55
(lp350
S':'
asbag48
(g69
g50
NtRp351
(dp352
g53
(dp353
sg62
g338
sg55
(lp354
g48
(g49
g50
NtRp355
(dp356
g53
(dp357
g61
I3
ssg62
g351
sg55
(lp358
S''
asbasbasbag48
(g64
g50
NtRp359
(dp360
g53
(dp361
sg62
g250
sg55
(lp362
g48
(g69
g50
NtRp363
(dp364
g53
(dp365
g73
g74
ssg62
g359
sg55
(lp366
S'secure'
p367
asbag48
(g69
g50
NtRp368
(dp369
g53
(dp370
g80
g81
ssg62
g359
sg55
(lp371
S':'
asbag48
(g69
g50
NtRp372
(dp373
g53
(dp374
sg62
g359
sg55
(lp375
g48
(g49
g50
NtRp376
(dp377
g53
(dp378
g61
I3
ssg62
g372
sg55
(lp379
S''
asbasbasbag48
(g64
g50
NtRp380
(dp381
g53
(dp382
sg62
g250
sg55
(lp383
g48
(g69
g50
NtRp384
(dp385
g53
(dp386
g73
g74
ssg62
g380
sg55
(lp387
S'version'
p388
asbag48
(g69
g50
NtRp389
(dp390
g53
(dp391
g80
g81
ssg62
g380
sg55
(lp392
S':'
asbag48
(g69
g50
NtRp393
(dp394
g53
(dp395
sg62
g380
sg55
(lp396
g48
(g49
g50
NtRp397
(dp398
g53
(dp399
g61
I3
ssg62
g393
sg55
(lp400
S''
asbasbasbasbasbasbasbag48
(g64
g50
NtRp401
(dp402
g53
(dp403
sg62
g225
sg55
(lp404
g48
(g69
g50
NtRp405
(dp406
g53
(dp407
g73
g74
ssg62
g401
sg55
(lp408
S'session_id_desglosar_emails'
p409
asbag48
(g69
g50
NtRp410
(dp411
g53
(dp412
g80
g81
ssg62
g401
sg55
(lp413
S':'
asbag48
(g69
g50
NtRp414
(dp415
g53
(dp416
sg62
g401
sg55
(lp417
g48
(g49
g50
NtRp418
(dp419
g53
(dp420
g61
I4
ssg62
g414
sg55
(lp421
g48
(g57
g50
NtRp422
(dp423
g53
(dp424
g61
I3
ssg62
Nsg55
(lp425
g48
(g64
g50
NtRp426
(dp427
g53
(dp428
sg62
g422
sg55
(lp429
g48
(g69
g50
NtRp430
(dp431
g53
(dp432
g73
g74
ssg62
g426
sg55
(lp433
g262
asbag48
(g69
g50
NtRp434
(dp435
g53
(dp436
g80
g81
ssg62
g426
sg55
(lp437
S':'
asbag48
(g69
g50
NtRp438
(dp439
g53
(dp440
sg62
g426
sg55
(lp441
g48
(g49
g50
NtRp442
(dp443
g53
(dp444
g61
I3
ssg62
g438
sg55
(lp445
S''
asbasbasbag48
(g64
g50
NtRp446
(dp447
g53
(dp448
sg62
g422
sg55
(lp449
g48
(g69
g50
NtRp450
(dp451
g53
(dp452
g73
g74
ssg62
g446
sg55
(lp453
g283
asbag48
(g69
g50
NtRp454
(dp455
g53
(dp456
g80
g81
ssg62
g446
sg55
(lp457
S':'
asbag48
(g69
g50
NtRp458
(dp459
g53
(dp460
sg62
g446
sg55
(lp461
g48
(g49
g50
NtRp462
(dp463
g53
(dp464
g61
I3
ssg62
g458
sg55
(lp465
S''
asbasbasbag48
(g64
g50
NtRp466
(dp467
g53
(dp468
sg62
g422
sg55
(lp469
g48
(g69
g50
NtRp470
(dp471
g53
(dp472
g73
g74
ssg62
g466
sg55
(lp473
g304
asbag48
(g69
g50
NtRp474
(dp475
g53
(dp476
g80
g81
ssg62
g466
sg55
(lp477
S':'
asbag48
(g69
g50
NtRp478
(dp479
g53
(dp480
sg62
g466
sg55
(lp481
g48
(g49
g50
NtRp482
(dp483
g53
(dp484
g61
I3
ssg62
g478
sg55
(lp485
S''
asbasbasbag48
(g64
g50
NtRp486
(dp487
g53
(dp488
sg62
g422
sg55
(lp489
g48
(g69
g50
NtRp490
(dp491
g53
(dp492
g73
g74
ssg62
g486
sg55
(lp493
g325
asbag48
(g69
g50
NtRp494
(dp495
g53
(dp496
g80
g81
ssg62
g486
sg55
(lp497
S':'
asbag48
(g69
g50
NtRp498
(dp499
g53
(dp500
sg62
g486
sg55
(lp501
g48
(g49
g50
NtRp502
(dp503
g53
(dp504
g61
I3
ssg62
g498
sg55
(lp505
S''
asbasbasbag48
(g64
g50
NtRp506
(dp507
g53
(dp508
sg62
g422
sg55
(lp509
g48
(g69
g50
NtRp510
(dp511
g53
(dp512
g73
g74
ssg62
g506
sg55
(lp513
g346
asbag48
(g69
g50
NtRp514
(dp515
g53
(dp516
g80
g81
ssg62
g506
sg55
(lp517
S':'
asbag48
(g69
g50
NtRp518
(dp519
g53
(dp520
sg62
g506
sg55
(lp521
g48
(g49
g50
NtRp522
(dp523
g53
(dp524
g61
I3
ssg62
g518
sg55
(lp525
S''
asbasbasbag48
(g64
g50
NtRp526
(dp527
g53
(dp528
sg62
g422
sg55
(lp529
g48
(g69
g50
NtRp530
(dp531
g53
(dp532
g73
g74
ssg62
g526
sg55
(lp533
g367
asbag48
(g69
g50
NtRp534
(dp535
g53
(dp536
g80
g81
ssg62
g526
sg55
(lp537
S':'
asbag48
(g69
g50
NtRp538
(dp539
g53
(dp540
sg62
g526
sg55
(lp541
g48
(g49
g50
NtRp542
(dp543
g53
(dp544
g61
I3
ssg62
g538
sg55
(lp545
S''
asbasbasbag48
(g64
g50
NtRp546
(dp547
g53
(dp548
sg62
g422
sg55
(lp549
g48
(g69
g50
NtRp550
(dp551
g53
(dp552
g73
g74
ssg62
g546
sg55
(lp553
g388
asbag48
(g69
g50
NtRp554
(dp555
g53
(dp556
g80
g81
ssg62
g546
sg55
(lp557
S':'
asbag48
(g69
g50
NtRp558
(dp559
g53
(dp560
sg62
g546
sg55
(lp561
g48
(g49
g50
NtRp562
(dp563
g53
(dp564
g61
I3
ssg62
g558
sg55
(lp565
S''
asbasbasbasbasbasbasbag48
(g64
g50
NtRp566
(dp567
g53
(dp568
sg62
g225
sg55
(lp569
g48
(g69
g50
NtRp570
(dp571
g53
(dp572
g73
g74
ssg62
g566
sg55
(lp573
S'session_id_welcome'
p574
asbag48
(g69
g50
NtRp575
(dp576
g53
(dp577
g80
g81
ssg62
g566
sg55
(lp578
S':'
asbag48
(g69
g50
NtRp579
(dp580
g53
(dp581
sg62
g566
sg55
(lp582
g48
(g49
g50
NtRp583
(dp584
g53
(dp585
g61
I4
ssg62
g579
sg55
(lp586
g48
(g57
g50
NtRp587
(dp588
g53
(dp589
g61
I3
ssg62
Nsg55
(lp590
g48
(g64
g50
NtRp591
(dp592
g53
(dp593
sg62
g587
sg55
(lp594
g48
(g69
g50
NtRp595
(dp596
g53
(dp597
g73
g74
ssg62
g591
sg55
(lp598
g262
asbag48
(g69
g50
NtRp599
(dp600
g53
(dp601
g80
g81
ssg62
g591
sg55
(lp602
S':'
asbag48
(g69
g50
NtRp603
(dp604
g53
(dp605
sg62
g591
sg55
(lp606
g48
(g49
g50
NtRp607
(dp608
g53
(dp609
g61
I3
ssg62
g603
sg55
(lp610
S''
asbasbasbag48
(g64
g50
NtRp611
(dp612
g53
(dp613
sg62
g587
sg55
(lp614
g48
(g69
g50
NtRp615
(dp616
g53
(dp617
g73
g74
ssg62
g611
sg55
(lp618
g283
asbag48
(g69
g50
NtRp619
(dp620
g53
(dp621
g80
g81
ssg62
g611
sg55
(lp622
S':'
asbag48
(g69
g50
NtRp623
(dp624
g53
(dp625
sg62
g611
sg55
(lp626
g48
(g49
g50
NtRp627
(dp628
g53
(dp629
g61
I3
ssg62
g623
sg55
(lp630
S''
asbasbasbag48
(g64
g50
NtRp631
(dp632
g53
(dp633
sg62
g587
sg55
(lp634
g48
(g69
g50
NtRp635
(dp636
g53
(dp637
g73
g74
ssg62
g631
sg55
(lp638
g304
asbag48
(g69
g50
NtRp639
(dp640
g53
(dp641
g80
g81
ssg62
g631
sg55
(lp642
S':'
asbag48
(g69
g50
NtRp643
(dp644
g53
(dp645
sg62
g631
sg55
(lp646
g48
(g49
g50
NtRp647
(dp648
g53
(dp649
g61
I3
ssg62
g643
sg55
(lp650
S''
asbasbasbag48
(g64
g50
NtRp651
(dp652
g53
(dp653
sg62
g587
sg55
(lp654
g48
(g69
g50
NtRp655
(dp656
g53
(dp657
g73
g74
ssg62
g651
sg55
(lp658
g325
asbag48
(g69
g50
NtRp659
(dp660
g53
(dp661
g80
g81
ssg62
g651
sg55
(lp662
S':'
asbag48
(g69
g50
NtRp663
(dp664
g53
(dp665
sg62
g651
sg55
(lp666
g48
(g49
g50
NtRp667
(dp668
g53
(dp669
g61
I3
ssg62
g663
sg55
(lp670
S''
asbasbasbag48
(g64
g50
NtRp671
(dp672
g53
(dp673
sg62
g587
sg55
(lp674
g48
(g69
g50
NtRp675
(dp676
g53
(dp677
g73
g74
ssg62
g671
sg55
(lp678
g346
asbag48
(g69
g50
NtRp679
(dp680
g53
(dp681
g80
g81
ssg62
g671
sg55
(lp682
S':'
asbag48
(g69
g50
NtRp683
(dp684
g53
(dp685
sg62
g671
sg55
(lp686
g48
(g49
g50
NtRp687
(dp688
g53
(dp689
g61
I3
ssg62
g683
sg55
(lp690
S''
asbasbasbag48
(g64
g50
NtRp691
(dp692
g53
(dp693
sg62
g587
sg55
(lp694
g48
(g69
g50
NtRp695
(dp696
g53
(dp697
g73
g74
ssg62
g691
sg55
(lp698
g367
asbag48
(g69
g50
NtRp699
(dp700
g53
(dp701
g80
g81
ssg62
g691
sg55
(lp702
S':'
asbag48
(g69
g50
NtRp703
(dp704
g53
(dp705
sg62
g691
sg55
(lp706
g48
(g49
g50
NtRp707
(dp708
g53
(dp709
g61
I3
ssg62
g703
sg55
(lp710
S''
asbasbasbag48
(g64
g50
NtRp711
(dp712
g53
(dp713
sg62
g587
sg55
(lp714
g48
(g69
g50
NtRp715
(dp716
g53
(dp717
g73
g74
ssg62
g711
sg55
(lp718
g388
asbag48
(g69
g50
NtRp719
(dp720
g53
(dp721
g80
g81
ssg62
g711
sg55
(lp722
S':'
asbag48
(g69
g50
NtRp723
(dp724
g53
(dp725
sg62
g711
sg55
(lp726
g48
(g49
g50
NtRp727
(dp728
g53
(dp729
g61
I3
ssg62
g723
sg55
(lp730
S''
asbasbasbasbasbasbasbasbasbasbasbag48
(g64
g50
NtRp731
(dp732
g53
(dp733
sg62
g58
sg55
(lp734
g48
(g69
g50
NtRp735
(dp736
g53
(dp737
g73
g74
ssg62
g731
sg55
(lp738
S'env'
p739
asbag48
(g69
g50
NtRp740
(dp741
g53
(dp742
g80
g81
ssg62
g731
sg55
(lp743
S':'
asbag48
(g69
g50
NtRp744
(dp745
g53
(dp746
sg62
g731
sg55
(lp747
g48
(g49
g50
NtRp748
(dp749
g53
(dp750
g61
I5
ssg62
g744
sg55
(lp751
g48
(g57
g50
NtRp752
(dp753
g53
(dp754
g61
I4
ssg62
Nsg55
(lp755
g48
(g64
g50
NtRp756
(dp757
g53
(dp758
sg62
g752
sg55
(lp759
g48
(g69
g50
NtRp760
(dp761
g53
(dp762
g73
g74
ssg62
g756
sg55
(lp763
S'app_folders'
p764
asbag48
(g69
g50
NtRp765
(dp766
g53
(dp767
g80
g81
ssg62
g756
sg55
(lp768
S':'
asbag48
(g69
g50
NtRp769
(dp770
g53
(dp771
sg62
g756
sg55
(lp772
g48
(g49
g50
NtRp773
(dp774
g53
(dp775
g61
I4
ssg62
g769
sg55
(lp776
S"set(['C:\\\\Users\\\\Atomico\\\\web2py\\\\applications\\\\welcome\\\\', 'C:\\\\Users\\\\Atomico\\\\web2py\\\\applications\\\\Desglosar_Emails\\\\', 'C:\\\\Users\\\\Atomico\\\\web2py\\\\applications\\\\admin\\\\'])"
p777
asbasbasbag48
(g64
g50
NtRp778
(dp779
g53
(dp780
sg62
g752
sg55
(lp781
g48
(g69
g50
NtRp782
(dp783
g53
(dp784
g73
g74
ssg62
g778
sg55
(lp785
S'applications_parent'
p786
asbag48
(g69
g50
NtRp787
(dp788
g53
(dp789
g80
g81
ssg62
g778
sg55
(lp790
S':'
asbag48
(g69
g50
NtRp791
(dp792
g53
(dp793
sg62
g778
sg55
(lp794
g48
(g49
g50
NtRp795
(dp796
g53
(dp797
g61
I4
ssg62
g791
sg55
(lp798
S'C:\\Users\\Atomico\\web2py'
p799
asbasbasbag48
(g64
g50
NtRp800
(dp801
g53
(dp802
sg62
g752
sg55
(lp803
g48
(g69
g50
NtRp804
(dp805
g53
(dp806
g73
g74
ssg62
g800
sg55
(lp807
S'cmd_args'
p808
asbag48
(g69
g50
NtRp809
(dp810
g53
(dp811
g80
g81
ssg62
g800
sg55
(lp812
S':'
asbag48
(g69
g50
NtRp813
(dp814
g53
(dp815
sg62
g800
sg55
(lp816
g48
(g49
g50
NtRp817
(dp818
g53
(dp819
g61
I4
ssg62
g813
sg55
(lp820
g48
(g57
g50
NtRp821
(dp822
g53
(dp823
g61
I3
ssg62
Nsg55
(lp824
sbasbasbasbag48
(g64
g50
NtRp825
(dp826
g53
(dp827
sg62
g752
sg55
(lp828
g48
(g69
g50
NtRp829
(dp830
g53
(dp831
g73
g74
ssg62
g825
sg55
(lp832
S'cmd_options'
p833
asbag48
(g69
g50
NtRp834
(dp835
g53
(dp836
g80
g81
ssg62
g825
sg55
(lp837
S':'
asbag48
(g69
g50
NtRp838
(dp839
g53
(dp840
sg62
g825
sg55
(lp841
g48
(g49
g50
NtRp842
(dp843
g53
(dp844
g61
I4
ssg62
g838
sg55
(lp845
S"<Values at 0x320d670: {'verbose': False, 'ip': '127.0.0.1', 'shutdown_timeout': 5, 'taskbar': False, 'port': 8000, 'maxthreads': None, 'softcron': False, 'server_name': 'Swing', 'bpython': False, 'nogui': False, 'nocron': False, 'extcron': False, 'debuglevel': 30, 'test': None, 'folder': 'C:\\\\Users\\\\Atomico\\\\web2py', 'config': '', 'import_models': False, 'winservice': '', 'shell': None, 'run': '', 'log_filename': 'httpserver.log', 'args': [''], 'profiler_filename': None, 'ssl_private_key': '', 'password': '<ask>', 'request_queue_size': 5, 'ssl_certificate': '', 'cronjob': False, 'plain': False, 'quiet': False, 'interfaces': None, 'minthreads': None, 'timeout': 10, 'numthreads': None, 'nobanner': False, 'pid_filename': 'httpserver.pid'}>"
p846
asbasbasbag48
(g64
g50
NtRp847
(dp848
g53
(dp849
sg62
g752
sg55
(lp850
g48
(g69
g50
NtRp851
(dp852
g53
(dp853
g73
g74
ssg62
g847
sg55
(lp854
S'content_length'
p855
asbag48
(g69
g50
NtRp856
(dp857
g53
(dp858
g80
g81
ssg62
g847
sg55
(lp859
S':'
asbag48
(g69
g50
NtRp860
(dp861
g53
(dp862
sg62
g847
sg55
(lp863
g48
(g49
g50
NtRp864
(dp865
g53
(dp866
g61
I4
ssg62
g860
sg55
(lp867
S'1667'
p868
asbasbasbag48
(g64
g50
NtRp869
(dp870
g53
(dp871
sg62
g752
sg55
(lp872
g48
(g69
g50
NtRp873
(dp874
g53
(dp875
g73
g74
ssg62
g869
sg55
(lp876
S'content_type'
p877
asbag48
(g69
g50
NtRp878
(dp879
g53
(dp880
g80
g81
ssg62
g869
sg55
(lp881
S':'
asbag48
(g69
g50
NtRp882
(dp883
g53
(dp884
sg62
g869
sg55
(lp885
g48
(g49
g50
NtRp886
(dp887
g53
(dp888
g61
I4
ssg62
g882
sg55
(lp889
S'multipart/form-data; boundary=---------------------------2702870720502'
p890
asbasbasbag48
(g64
g50
NtRp891
(dp892
g53
(dp893
sg62
g752
sg55
(lp894
g48
(g69
g50
NtRp895
(dp896
g53
(dp897
g73
g74
ssg62
g891
sg55
(lp898
S'db_sessions'
p899
asbag48
(g69
g50
NtRp900
(dp901
g53
(dp902
g80
g81
ssg62
g891
sg55
(lp903
S':'
asbag48
(g69
g50
NtRp904
(dp905
g53
(dp906
sg62
g891
sg55
(lp907
g48
(g49
g50
NtRp908
(dp909
g53
(dp910
g61
I4
ssg62
g904
sg55
(lp911
S'set([])'
p912
asbasbasbag48
(g64
g50
NtRp913
(dp914
g53
(dp915
sg62
g752
sg55
(lp916
g48
(g69
g50
NtRp917
(dp918
g53
(dp919
g73
g74
ssg62
g913
sg55
(lp920
S'debugging'
p921
asbag48
(g69
g50
NtRp922
(dp923
g53
(dp924
g80
g81
ssg62
g913
sg55
(lp925
S':'
asbag48
(g69
g50
NtRp926
(dp927
g53
(dp928
sg62
g913
sg55
(lp929
g48
(g49
g50
NtRp930
(dp931
g53
(dp932
g61
I4
ssg62
g926
sg55
(lp933
g91
asbasbasbag48
(g64
g50
NtRp934
(dp935
g53
(dp936
sg62
g752
sg55
(lp937
g48
(g69
g50
NtRp938
(dp939
g53
(dp940
g73
g74
ssg62
g934
sg55
(lp941
S'gluon_parent'
p942
asbag48
(g69
g50
NtRp943
(dp944
g53
(dp945
g80
g81
ssg62
g934
sg55
(lp946
S':'
asbag48
(g69
g50
NtRp947
(dp948
g53
(dp949
sg62
g934
sg55
(lp950
g48
(g49
g50
NtRp951
(dp952
g53
(dp953
g61
I4
ssg62
g947
sg55
(lp954
S'C:\\Users\\Atomico\\web2py'
p955
asbasbasbag48
(g64
g50
NtRp956
(dp957
g53
(dp958
sg62
g752
sg55
(lp959
g48
(g69
g50
NtRp960
(dp961
g53
(dp962
g73
g74
ssg62
g956
sg55
(lp963
S'http_accept'
p964
asbag48
(g69
g50
NtRp965
(dp966
g53
(dp967
g80
g81
ssg62
g956
sg55
(lp968
S':'
asbag48
(g69
g50
NtRp969
(dp970
g53
(dp971
sg62
g956
sg55
(lp972
g48
(g49
g50
NtRp973
(dp974
g53
(dp975
g61
I4
ssg62
g969
sg55
(lp976
S'text/html,application/xhtml+xml,application/xml;q=0.9,*/*;q=0.8'
p977
asbasbasbag48
(g64
g50
NtRp978
(dp979
g53
(dp980
sg62
g752
sg55
(lp981
g48
(g69
g50
NtRp982
(dp983
g53
(dp984
g73
g74
ssg62
g978
sg55
(lp985
S'http_accept_charset'
p986
asbag48
(g69
g50
NtRp987
(dp988
g53
(dp989
g80
g81
ssg62
g978
sg55
(lp990
S':'
asbag48
(g69
g50
NtRp991
(dp992
g53
(dp993
sg62
g978
sg55
(lp994
g48
(g49
g50
NtRp995
(dp996
g53
(dp997
g61
I4
ssg62
g991
sg55
(lp998
S'ISO-8859-1,utf-8;q=0.7,*;q=0.7'
p999
asbasbasbag48
(g64
g50
NtRp1000
(dp1001
g53
(dp1002
sg62
g752
sg55
(lp1003
g48
(g69
g50
NtRp1004
(dp1005
g53
(dp1006
g73
g74
ssg62
g1000
sg55
(lp1007
S'http_accept_encoding'
p1008
asbag48
(g69
g50
NtRp1009
(dp1010
g53
(dp1011
g80
g81
ssg62
g1000
sg55
(lp1012
S':'
asbag48
(g69
g50
NtRp1013
(dp1014
g53
(dp1015
sg62
g1000
sg55
(lp1016
g48
(g49
g50
NtRp1017
(dp1018
g53
(dp1019
g61
I4
ssg62
g1013
sg55
(lp1020
S'gzip, deflate'
p1021
asbasbasbag48
(g64
g50
NtRp1022
(dp1023
g53
(dp1024
sg62
g752
sg55
(lp1025
g48
(g69
g50
NtRp1026
(dp1027
g53
(dp1028
g73
g74
ssg62
g1022
sg55
(lp1029
S'http_accept_language'
p1030
asbag48
(g69
g50
NtRp1031
(dp1032
g53
(dp1033
g80
g81
ssg62
g1022
sg55
(lp1034
S':'
asbag48
(g69
g50
NtRp1035
(dp1036
g53
(dp1037
sg62
g1022
sg55
(lp1038
g48
(g49
g50
NtRp1039
(dp1040
g53
(dp1041
g61
I4
ssg62
g1035
sg55
(lp1042
S'es-es,es;q=0.8,en-us;q=0.5,en;q=0.3'
p1043
asbasbasbag48
(g64
g50
NtRp1044
(dp1045
g53
(dp1046
sg62
g752
sg55
(lp1047
g48
(g69
g50
NtRp1048
(dp1049
g53
(dp1050
g73
g74
ssg62
g1044
sg55
(lp1051
S'http_cache_control'
p1052
asbag48
(g69
g50
NtRp1053
(dp1054
g53
(dp1055
g80
g81
ssg62
g1044
sg55
(lp1056
S':'
asbag48
(g69
g50
NtRp1057
(dp1058
g53
(dp1059
sg62
g1044
sg55
(lp1060
g48
(g49
g50
NtRp1061
(dp1062
g53
(dp1063
g61
I4
ssg62
g1057
sg55
(lp1064
S'max-age=0'
p1065
asbasbasbag48
(g64
g50
NtRp1066
(dp1067
g53
(dp1068
sg62
g752
sg55
(lp1069
g48
(g69
g50
NtRp1070
(dp1071
g53
(dp1072
g73
g74
ssg62
g1066
sg55
(lp1073
S'http_connection'
p1074
asbag48
(g69
g50
NtRp1075
(dp1076
g53
(dp1077
g80
g81
ssg62
g1066
sg55
(lp1078
S':'
asbag48
(g69
g50
NtRp1079
(dp1080
g53
(dp1081
sg62
g1066
sg55
(lp1082
g48
(g49
g50
NtRp1083
(dp1084
g53
(dp1085
g61
I4
ssg62
g1079
sg55
(lp1086
S'keep-alive'
p1087
asbasbasbag48
(g64
g50
NtRp1088
(dp1089
g53
(dp1090
sg62
g752
sg55
(lp1091
g48
(g69
g50
NtRp1092
(dp1093
g53
(dp1094
g73
g74
ssg62
g1088
sg55
(lp1095
S'http_content_length'
p1096
asbag48
(g69
g50
NtRp1097
(dp1098
g53
(dp1099
g80
g81
ssg62
g1088
sg55
(lp1100
S':'
asbag48
(g69
g50
NtRp1101
(dp1102
g53
(dp1103
sg62
g1088
sg55
(lp1104
g48
(g49
g50
NtRp1105
(dp1106
g53
(dp1107
g61
I4
ssg62
g1101
sg55
(lp1108
g868
asbasbasbag48
(g64
g50
NtRp1109
(dp1110
g53
(dp1111
sg62
g752
sg55
(lp1112
g48
(g69
g50
NtRp1113
(dp1114
g53
(dp1115
g73
g74
ssg62
g1109
sg55
(lp1116
S'http_content_type'
p1117
asbag48
(g69
g50
NtRp1118
(dp1119
g53
(dp1120
g80
g81
ssg62
g1109
sg55
(lp1121
S':'
asbag48
(g69
g50
NtRp1122
(dp1123
g53
(dp1124
sg62
g1109
sg55
(lp1125
g48
(g49
g50
NtRp1126
(dp1127
g53
(dp1128
g61
I4
ssg62
g1122
sg55
(lp1129
g890
asbasbasbag48
(g64
g50
NtRp1130
(dp1131
g53
(dp1132
sg62
g752
sg55
(lp1133
g48
(g69
g50
NtRp1134
(dp1135
g53
(dp1136
g73
g74
ssg62
g1130
sg55
(lp1137
S'http_cookie'
p1138
asbag48
(g69
g50
NtRp1139
(dp1140
g53
(dp1141
g80
g81
ssg62
g1130
sg55
(lp1142
S':'
asbag48
(g69
g50
NtRp1143
(dp1144
g53
(dp1145
sg62
g1130
sg55
(lp1146
g48
(g49
g50
NtRp1147
(dp1148
g53
(dp1149
g61
I4
ssg62
g1143
sg55
(lp1150
S'session_id_welcome=127.0.0.1-8ed6c32d-8fd0-4b1c-90b9-5ca338694721; session_id_admin=127.0.0.1-6a6b387e-6197-4823-811c-8b755eaf84a2; session_id_desglosar_emails=127.0.0.1-c2891e73-e00c-4371-88c4-c01d892c385e'
p1151
asbasbasbag48
(g64
g50
NtRp1152
(dp1153
g53
(dp1154
sg62
g752
sg55
(lp1155
g48
(g69
g50
NtRp1156
(dp1157
g53
(dp1158
g73
g74
ssg62
g1152
sg55
(lp1159
S'http_host'
p1160
asbag48
(g69
g50
NtRp1161
(dp1162
g53
(dp1163
g80
g81
ssg62
g1152
sg55
(lp1164
S':'
asbag48
(g69
g50
NtRp1165
(dp1166
g53
(dp1167
sg62
g1152
sg55
(lp1168
g48
(g49
g50
NtRp1169
(dp1170
g53
(dp1171
g61
I4
ssg62
g1165
sg55
(lp1172
S'127.0.0.1:8000'
p1173
asbasbasbag48
(g64
g50
NtRp1174
(dp1175
g53
(dp1176
sg62
g752
sg55
(lp1177
g48
(g69
g50
NtRp1178
(dp1179
g53
(dp1180
g73
g74
ssg62
g1174
sg55
(lp1181
S'http_referer'
p1182
asbag48
(g69
g50
NtRp1183
(dp1184
g53
(dp1185
g80
g81
ssg62
g1174
sg55
(lp1186
S':'
asbag48
(g69
g50
NtRp1187
(dp1188
g53
(dp1189
sg62
g1174
sg55
(lp1190
g48
(g49
g50
NtRp1191
(dp1192
g53
(dp1193
g61
I4
ssg62
g1187
sg55
(lp1194
S'http://127.0.0.1:8000/Desglosar_Emails/default/entrada_bien'
p1195
asbasbasbag48
(g64
g50
NtRp1196
(dp1197
g53
(dp1198
sg62
g752
sg55
(lp1199
g48
(g69
g50
NtRp1200
(dp1201
g53
(dp1202
g73
g74
ssg62
g1196
sg55
(lp1203
S'http_user_agent'
p1204
asbag48
(g69
g50
NtRp1205
(dp1206
g53
(dp1207
g80
g81
ssg62
g1196
sg55
(lp1208
S':'
asbag48
(g69
g50
NtRp1209
(dp1210
g53
(dp1211
sg62
g1196
sg55
(lp1212
g48
(g49
g50
NtRp1213
(dp1214
g53
(dp1215
g61
I4
ssg62
g1209
sg55
(lp1216
S'Mozilla/5.0 (Windows NT 6.1; WOW64; rv:6.0.2) Gecko/20100101 Firefox/6.0.2'
p1217
asbasbasbag48
(g64
g50
NtRp1218
(dp1219
g53
(dp1220
sg62
g752
sg55
(lp1221
g48
(g69
g50
NtRp1222
(dp1223
g53
(dp1224
g73
g74
ssg62
g1218
sg55
(lp1225
S'is_jython'
p1226
asbag48
(g69
g50
NtRp1227
(dp1228
g53
(dp1229
g80
g81
ssg62
g1218
sg55
(lp1230
S':'
asbag48
(g69
g50
NtRp1231
(dp1232
g53
(dp1233
sg62
g1218
sg55
(lp1234
g48
(g49
g50
NtRp1235
(dp1236
g53
(dp1237
g61
I4
ssg62
g1231
sg55
(lp1238
g91
asbasbasbag48
(g64
g50
NtRp1239
(dp1240
g53
(dp1241
sg62
g752
sg55
(lp1242
g48
(g69
g50
NtRp1243
(dp1244
g53
(dp1245
g73
g74
ssg62
g1239
sg55
(lp1246
S'path_info'
p1247
asbag48
(g69
g50
NtRp1248
(dp1249
g53
(dp1250
g80
g81
ssg62
g1239
sg55
(lp1251
S':'
asbag48
(g69
g50
NtRp1252
(dp1253
g53
(dp1254
sg62
g1239
sg55
(lp1255
g48
(g49
g50
NtRp1256
(dp1257
g53
(dp1258
g61
I4
ssg62
g1252
sg55
(lp1259
S'/Desglosar_Emails/default/entrada_bien'
p1260
asbasbasbag48
(g64
g50
NtRp1261
(dp1262
g53
(dp1263
sg62
g752
sg55
(lp1264
g48
(g69
g50
NtRp1265
(dp1266
g53
(dp1267
g73
g74
ssg62
g1261
sg55
(lp1268
S'query_string'
p1269
asbag48
(g69
g50
NtRp1270
(dp1271
g53
(dp1272
g80
g81
ssg62
g1261
sg55
(lp1273
S':'
asbag48
(g69
g50
NtRp1274
(dp1275
g53
(dp1276
sg62
g1261
sg55
(lp1277
g48
(g49
g50
NtRp1278
(dp1279
g53
(dp1280
g61
I4
ssg62
g1274
sg55
(lp1281
S''
asbasbasbag48
(g64
g50
NtRp1282
(dp1283
g53
(dp1284
sg62
g752
sg55
(lp1285
g48
(g69
g50
NtRp1286
(dp1287
g53
(dp1288
g73
g74
ssg62
g1282
sg55
(lp1289
S'remote_addr'
p1290
asbag48
(g69
g50
NtRp1291
(dp1292
g53
(dp1293
g80
g81
ssg62
g1282
sg55
(lp1294
S':'
asbag48
(g69
g50
NtRp1295
(dp1296
g53
(dp1297
sg62
g1282
sg55
(lp1298
g48
(g49
g50
NtRp1299
(dp1300
g53
(dp1301
g61
I4
ssg62
g1295
sg55
(lp1302
g181
asbasbasbag48
(g64
g50
NtRp1303
(dp1304
g53
(dp1305
sg62
g752
sg55
(lp1306
g48
(g69
g50
NtRp1307
(dp1308
g53
(dp1309
g73
g74
ssg62
g1303
sg55
(lp1310
S'remote_port'
p1311
asbag48
(g69
g50
NtRp1312
(dp1313
g53
(dp1314
g80
g81
ssg62
g1303
sg55
(lp1315
S':'
asbag48
(g69
g50
NtRp1316
(dp1317
g53
(dp1318
sg62
g1303
sg55
(lp1319
g48
(g49
g50
NtRp1320
(dp1321
g53
(dp1322
g61
I4
ssg62
g1316
sg55
(lp1323
S'58309'
p1324
asbasbasbag48
(g64
g50
NtRp1325
(dp1326
g53
(dp1327
sg62
g752
sg55
(lp1328
g48
(g69
g50
NtRp1329
(dp1330
g53
(dp1331
g73
g74
ssg62
g1325
sg55
(lp1332
S'request_method'
p1333
asbag48
(g69
g50
NtRp1334
(dp1335
g53
(dp1336
g80
g81
ssg62
g1325
sg55
(lp1337
S':'
asbag48
(g69
g50
NtRp1338
(dp1339
g53
(dp1340
sg62
g1325
sg55
(lp1341
g48
(g49
g50
NtRp1342
(dp1343
g53
(dp1344
g61
I4
ssg62
g1338
sg55
(lp1345
S'POST'
p1346
asbasbasbag48
(g64
g50
NtRp1347
(dp1348
g53
(dp1349
sg62
g752
sg55
(lp1350
g48
(g69
g50
NtRp1351
(dp1352
g53
(dp1353
g73
g74
ssg62
g1347
sg55
(lp1354
S'script_name'
p1355
asbag48
(g69
g50
NtRp1356
(dp1357
g53
(dp1358
g80
g81
ssg62
g1347
sg55
(lp1359
S':'
asbag48
(g69
g50
NtRp1360
(dp1361
g53
(dp1362
sg62
g1347
sg55
(lp1363
g48
(g49
g50
NtRp1364
(dp1365
g53
(dp1366
g61
I4
ssg62
g1360
sg55
(lp1367
S''
asbasbasbag48
(g64
g50
NtRp1368
(dp1369
g53
(dp1370
sg62
g752
sg55
(lp1371
g48
(g69
g50
NtRp1372
(dp1373
g53
(dp1374
g73
g74
ssg62
g1368
sg55
(lp1375
S'server_name'
p1376
asbag48
(g69
g50
NtRp1377
(dp1378
g53
(dp1379
g80
g81
ssg62
g1368
sg55
(lp1380
S':'
asbag48
(g69
g50
NtRp1381
(dp1382
g53
(dp1383
sg62
g1368
sg55
(lp1384
g48
(g49
g50
NtRp1385
(dp1386
g53
(dp1387
g61
I4
ssg62
g1381
sg55
(lp1388
S'Swing'
p1389
asbasbasbag48
(g64
g50
NtRp1390
(dp1391
g53
(dp1392
sg62
g752
sg55
(lp1393
g48
(g69
g50
NtRp1394
(dp1395
g53
(dp1396
g73
g74
ssg62
g1390
sg55
(lp1397
S'server_port'
p1398
asbag48
(g69
g50
NtRp1399
(dp1400
g53
(dp1401
g80
g81
ssg62
g1390
sg55
(lp1402
S':'
asbag48
(g69
g50
NtRp1403
(dp1404
g53
(dp1405
sg62
g1390
sg55
(lp1406
g48
(g49
g50
NtRp1407
(dp1408
g53
(dp1409
g61
I4
ssg62
g1403
sg55
(lp1410
S'8000'
p1411
asbasbasbag48
(g64
g50
NtRp1412
(dp1413
g53
(dp1414
sg62
g752
sg55
(lp1415
g48
(g69
g50
NtRp1416
(dp1417
g53
(dp1418
g73
g74
ssg62
g1412
sg55
(lp1419
S'server_protocol'
p1420
asbag48
(g69
g50
NtRp1421
(dp1422
g53
(dp1423
g80
g81
ssg62
g1412
sg55
(lp1424
S':'
asbag48
(g69
g50
NtRp1425
(dp1426
g53
(dp1427
sg62
g1412
sg55
(lp1428
g48
(g49
g50
NtRp1429
(dp1430
g53
(dp1431
g61
I4
ssg62
g1425
sg55
(lp1432
S'HTTP/1.1'
p1433
asbasbasbag48
(g64
g50
NtRp1434
(dp1435
g53
(dp1436
sg62
g752
sg55
(lp1437
g48
(g69
g50
NtRp1438
(dp1439
g53
(dp1440
g73
g74
ssg62
g1434
sg55
(lp1441
S'server_software'
p1442
asbag48
(g69
g50
NtRp1443
(dp1444
g53
(dp1445
g80
g81
ssg62
g1434
sg55
(lp1446
S':'
asbag48
(g69
g50
NtRp1447
(dp1448
g53
(dp1449
sg62
g1434
sg55
(lp1450
g48
(g49
g50
NtRp1451
(dp1452
g53
(dp1453
g61
I4
ssg62
g1447
sg55
(lp1454
S'Rocket 1.2.2'
p1455
asbasbasbag48
(g64
g50
NtRp1456
(dp1457
g53
(dp1458
sg62
g752
sg55
(lp1459
g48
(g69
g50
NtRp1460
(dp1461
g53
(dp1462
g73
g74
ssg62
g1456
sg55
(lp1463
S'web2py_crontype'
p1464
asbag48
(g69
g50
NtRp1465
(dp1466
g53
(dp1467
g80
g81
ssg62
g1456
sg55
(lp1468
S':'
asbag48
(g69
g50
NtRp1469
(dp1470
g53
(dp1471
sg62
g1456
sg55
(lp1472
g48
(g49
g50
NtRp1473
(dp1474
g53
(dp1475
g61
I4
ssg62
g1469
sg55
(lp1476
S'hard'
p1477
asbasbasbag48
(g64
g50
NtRp1478
(dp1479
g53
(dp1480
sg62
g752
sg55
(lp1481
g48
(g69
g50
NtRp1482
(dp1483
g53
(dp1484
g73
g74
ssg62
g1478
sg55
(lp1485
S'web2py_path'
p1486
asbag48
(g69
g50
NtRp1487
(dp1488
g53
(dp1489
g80
g81
ssg62
g1478
sg55
(lp1490
S':'
asbag48
(g69
g50
NtRp1491
(dp1492
g53
(dp1493
sg62
g1478
sg55
(lp1494
g48
(g49
g50
NtRp1495
(dp1496
g53
(dp1497
g61
I4
ssg62
g1491
sg55
(lp1498
g799
asbasbasbag48
(g64
g50
NtRp1499
(dp1500
g53
(dp1501
sg62
g752
sg55
(lp1502
g48
(g69
g50
NtRp1503
(dp1504
g53
(dp1505
g73
g74
ssg62
g1499
sg55
(lp1506
S'web2py_version'
p1507
asbag48
(g69
g50
NtRp1508
(dp1509
g53
(dp1510
g80
g81
ssg62
g1499
sg55
(lp1511
S':'
asbag48
(g69
g50
NtRp1512
(dp1513
g53
(dp1514
sg62
g1499
sg55
(lp1515
g48
(g49
g50
NtRp1516
(dp1517
g53
(dp1518
g61
I4
ssg62
g1512
sg55
(lp1519
S'Version 1.98.2 (2011-08-04 00:47:09)\n'
p1520
asbasbasbag48
(g64
g50
NtRp1521
(dp1522
g53
(dp1523
sg62
g752
sg55
(lp1524
g48
(g69
g50
NtRp1525
(dp1526
g53
(dp1527
g73
g74
ssg62
g1521
sg55
(lp1528
S'wsgi_errors'
p1529
asbag48
(g69
g50
NtRp1530
(dp1531
g53
(dp1532
g80
g81
ssg62
g1521
sg55
(lp1533
S':'
asbag48
(g69
g50
NtRp1534
(dp1535
g53
(dp1536
sg62
g1521
sg55
(lp1537
g48
(g49
g50
NtRp1538
(dp1539
g53
(dp1540
g61
I4
ssg62
g1534
sg55
(lp1541
S"<open file '<stderr>', mode 'w' at 0x020500B0>"
p1542
asbasbasbag48
(g64
g50
NtRp1543
(dp1544
g53
(dp1545
sg62
g752
sg55
(lp1546
g48
(g69
g50
NtRp1547
(dp1548
g53
(dp1549
g73
g74
ssg62
g1543
sg55
(lp1550
S'wsgi_file_wrapper'
p1551
asbag48
(g69
g50
NtRp1552
(dp1553
g53
(dp1554
g80
g81
ssg62
g1543
sg55
(lp1555
S':'
asbag48
(g69
g50
NtRp1556
(dp1557
g53
(dp1558
sg62
g1543
sg55
(lp1559
g48
(g49
g50
NtRp1560
(dp1561
g53
(dp1562
g61
I4
ssg62
g1556
sg55
(lp1563
S'<class gluon.rocket.FileWrapper at 0x031931B0>'
p1564
asbasbasbag48
(g64
g50
NtRp1565
(dp1566
g53
(dp1567
sg62
g752
sg55
(lp1568
g48
(g69
g50
NtRp1569
(dp1570
g53
(dp1571
g73
g74
ssg62
g1565
sg55
(lp1572
S'wsgi_input'
p1573
asbag48
(g69
g50
NtRp1574
(dp1575
g53
(dp1576
g80
g81
ssg62
g1565
sg55
(lp1577
S':'
asbag48
(g69
g50
NtRp1578
(dp1579
g53
(dp1580
sg62
g1565
sg55
(lp1581
g48
(g49
g50
NtRp1582
(dp1583
g53
(dp1584
g61
I4
ssg62
g1578
sg55
(lp1585
S'<socket._fileobject object at 0x075B1730>'
p1586
asbasbasbag48
(g64
g50
NtRp1587
(dp1588
g53
(dp1589
sg62
g752
sg55
(lp1590
g48
(g69
g50
NtRp1591
(dp1592
g53
(dp1593
g73
g74
ssg62
g1587
sg55
(lp1594
S'wsgi_multiprocess'
p1595
asbag48
(g69
g50
NtRp1596
(dp1597
g53
(dp1598
g80
g81
ssg62
g1587
sg55
(lp1599
S':'
asbag48
(g69
g50
NtRp1600
(dp1601
g53
(dp1602
sg62
g1587
sg55
(lp1603
g48
(g49
g50
NtRp1604
(dp1605
g53
(dp1606
g61
I4
ssg62
g1600
sg55
(lp1607
g91
asbasbasbag48
(g64
g50
NtRp1608
(dp1609
g53
(dp1610
sg62
g752
sg55
(lp1611
g48
(g69
g50
NtRp1612
(dp1613
g53
(dp1614
g73
g74
ssg62
g1608
sg55
(lp1615
S'wsgi_multithread'
p1616
asbag48
(g69
g50
NtRp1617
(dp1618
g53
(dp1619
g80
g81
ssg62
g1608
sg55
(lp1620
S':'
asbag48
(g69
g50
NtRp1621
(dp1622
g53
(dp1623
sg62
g1608
sg55
(lp1624
g48
(g49
g50
NtRp1625
(dp1626
g53
(dp1627
g61
I4
ssg62
g1621
sg55
(lp1628
S'True'
p1629
asbasbasbag48
(g64
g50
NtRp1630
(dp1631
g53
(dp1632
sg62
g752
sg55
(lp1633
g48
(g69
g50
NtRp1634
(dp1635
g53
(dp1636
g73
g74
ssg62
g1630
sg55
(lp1637
S'wsgi_run_once'
p1638
asbag48
(g69
g50
NtRp1639
(dp1640
g53
(dp1641
g80
g81
ssg62
g1630
sg55
(lp1642
S':'
asbag48
(g69
g50
NtRp1643
(dp1644
g53
(dp1645
sg62
g1630
sg55
(lp1646
g48
(g49
g50
NtRp1647
(dp1648
g53
(dp1649
g61
I4
ssg62
g1643
sg55
(lp1650
g91
asbasbasbag48
(g64
g50
NtRp1651
(dp1652
g53
(dp1653
sg62
g752
sg55
(lp1654
g48
(g69
g50
NtRp1655
(dp1656
g53
(dp1657
g73
g74
ssg62
g1651
sg55
(lp1658
S'wsgi_url_scheme'
p1659
asbag48
(g69
g50
NtRp1660
(dp1661
g53
(dp1662
g80
g81
ssg62
g1651
sg55
(lp1663
S':'
asbag48
(g69
g50
NtRp1664
(dp1665
g53
(dp1666
sg62
g1651
sg55
(lp1667
g48
(g49
g50
NtRp1668
(dp1669
g53
(dp1670
g61
I4
ssg62
g1664
sg55
(lp1671
S'http'
p1672
asbasbasbag48
(g64
g50
NtRp1673
(dp1674
g53
(dp1675
sg62
g752
sg55
(lp1676
g48
(g69
g50
NtRp1677
(dp1678
g53
(dp1679
g73
g74
ssg62
g1673
sg55
(lp1680
S'wsgi_version'
p1681
asbag48
(g69
g50
NtRp1682
(dp1683
g53
(dp1684
g80
g81
ssg62
g1673
sg55
(lp1685
S':'
asbag48
(g69
g50
NtRp1686
(dp1687
g53
(dp1688
sg62
g1673
sg55
(lp1689
g48
(g49
g50
NtRp1690
(dp1691
g53
(dp1692
g61
I4
ssg62
g1686
sg55
(lp1693
g48
(g57
g50
NtRp1694
(dp1695
g53
(dp1696
g61
I3
ssg62
Nsg55
(lp1697
g48
(g64
g50
NtRp1698
(dp1699
g53
(dp1700
sg62
g1694
sg55
(lp1701
g48
(g69
g50
NtRp1702
(dp1703
g53
(dp1704
sg62
g1698
sg55
(lp1705
g48
(g49
g50
NtRp1706
(dp1707
g53
(dp1708
g61
I3
ssg62
g1702
sg55
(lp1709
S'1'
asbasbasbag48
(g64
g50
NtRp1710
(dp1711
g53
(dp1712
sg62
g1694
sg55
(lp1713
g48
(g69
g50
NtRp1714
(dp1715
g53
(dp1716
sg62
g1710
sg55
(lp1717
g48
(g49
g50
NtRp1718
(dp1719
g53
(dp1720
g61
I3
ssg62
g1714
sg55
(lp1721
S'0'
asbasbasbasbasbasbasbasbasbasbasbag48
(g64
g50
NtRp1722
(dp1723
g53
(dp1724
sg62
g58
sg55
(lp1725
g48
(g69
g50
NtRp1726
(dp1727
g53
(dp1728
g73
g74
ssg62
g1722
sg55
(lp1729
S'extension'
p1730
asbag48
(g69
g50
NtRp1731
(dp1732
g53
(dp1733
g80
g81
ssg62
g1722
sg55
(lp1734
S':'
asbag48
(g69
g50
NtRp1735
(dp1736
g53
(dp1737
sg62
g1722
sg55
(lp1738
g48
(g49
g50
NtRp1739
(dp1740
g53
(dp1741
g61
I5
ssg62
g1735
sg55
(lp1742
S'html'
p1743
asbasbasbag48
(g64
g50
NtRp1744
(dp1745
g53
(dp1746
sg62
g58
sg55
(lp1747
g48
(g69
g50
NtRp1748
(dp1749
g53
(dp1750
g73
g74
ssg62
g1744
sg55
(lp1751
S'folder'
p1752
asbag48
(g69
g50
NtRp1753
(dp1754
g53
(dp1755
g80
g81
ssg62
g1744
sg55
(lp1756
S':'
asbag48
(g69
g50
NtRp1757
(dp1758
g53
(dp1759
sg62
g1744
sg55
(lp1760
g48
(g49
g50
NtRp1761
(dp1762
g53
(dp1763
g61
I5
ssg62
g1757
sg55
(lp1764
S'C:\\Users\\Atomico\\web2py\\applications\\Desglosar_Emails\\'
p1765
asbasbasbag48
(g64
g50
NtRp1766
(dp1767
g53
(dp1768
sg62
g58
sg55
(lp1769
g48
(g69
g50
NtRp1770
(dp1771
g53
(dp1772
g73
g74
ssg62
g1766
sg55
(lp1773
S'function'
p1774
asbag48
(g69
g50
NtRp1775
(dp1776
g53
(dp1777
g80
g81
ssg62
g1766
sg55
(lp1778
S':'
asbag48
(g69
g50
NtRp1779
(dp1780
g53
(dp1781
sg62
g1766
sg55
(lp1782
g48
(g49
g50
NtRp1783
(dp1784
g53
(dp1785
g61
I5
ssg62
g1779
sg55
(lp1786
S'entrada_bien'
p1787
asbasbasbag48
(g64
g50
NtRp1788
(dp1789
g53
(dp1790
sg62
g58
sg55
(lp1791
g48
(g69
g50
NtRp1792
(dp1793
g53
(dp1794
g73
g74
ssg62
g1788
sg55
(lp1795
S'get_vars'
p1796
asbag48
(g69
g50
NtRp1797
(dp1798
g53
(dp1799
g80
g81
ssg62
g1788
sg55
(lp1800
S':'
asbag48
(g69
g50
NtRp1801
(dp1802
g53
(dp1803
sg62
g1788
sg55
(lp1804
g48
(g49
g50
NtRp1805
(dp1806
g53
(dp1807
g61
I5
ssg62
g1801
sg55
(lp1808
g48
(g57
g50
NtRp1809
(dp1810
g53
(dp1811
g61
I4
ssg62
Nsg55
(lp1812
sbasbasbasbag48
(g64
g50
NtRp1813
(dp1814
g53
(dp1815
sg62
g58
sg55
(lp1816
g48
(g69
g50
NtRp1817
(dp1818
g53
(dp1819
g73
g74
ssg62
g1813
sg55
(lp1820
S'is_https'
p1821
asbag48
(g69
g50
NtRp1822
(dp1823
g53
(dp1824
g80
g81
ssg62
g1813
sg55
(lp1825
S':'
asbag48
(g69
g50
NtRp1826
(dp1827
g53
(dp1828
sg62
g1813
sg55
(lp1829
g48
(g49
g50
NtRp1830
(dp1831
g53
(dp1832
g61
I5
ssg62
g1826
sg55
(lp1833
g91
asbasbasbag48
(g64
g50
NtRp1834
(dp1835
g53
(dp1836
sg62
g58
sg55
(lp1837
g48
(g69
g50
NtRp1838
(dp1839
g53
(dp1840
g73
g74
ssg62
g1834
sg55
(lp1841
S'is_local'
p1842
asbag48
(g69
g50
NtRp1843
(dp1844
g53
(dp1845
g80
g81
ssg62
g1834
sg55
(lp1846
S':'
asbag48
(g69
g50
NtRp1847
(dp1848
g53
(dp1849
sg62
g1834
sg55
(lp1850
g48
(g49
g50
NtRp1851
(dp1852
g53
(dp1853
g61
I5
ssg62
g1847
sg55
(lp1854
g1629
asbasbasbag48
(g64
g50
NtRp1855
(dp1856
g53
(dp1857
sg62
g58
sg55
(lp1858
g48
(g69
g50
NtRp1859
(dp1860
g53
(dp1861
g73
g74
ssg62
g1855
sg55
(lp1862
S'is_restful'
p1863
asbag48
(g69
g50
NtRp1864
(dp1865
g53
(dp1866
g80
g81
ssg62
g1855
sg55
(lp1867
S':'
asbag48
(g69
g50
NtRp1868
(dp1869
g53
(dp1870
sg62
g1855
sg55
(lp1871
g48
(g49
g50
NtRp1872
(dp1873
g53
(dp1874
g61
I5
ssg62
g1868
sg55
(lp1875
g91
asbasbasbag48
(g64
g50
NtRp1876
(dp1877
g53
(dp1878
sg62
g58
sg55
(lp1879
g48
(g69
g50
NtRp1880
(dp1881
g53
(dp1882
g73
g74
ssg62
g1876
sg55
(lp1883
S'now'
p1884
asbag48
(g69
g50
NtRp1885
(dp1886
g53
(dp1887
g80
g81
ssg62
g1876
sg55
(lp1888
S':'
asbag48
(g69
g50
NtRp1889
(dp1890
g53
(dp1891
sg62
g1876
sg55
(lp1892
g48
(g49
g50
NtRp1893
(dp1894
g53
(dp1895
g61
I5
ssg62
g1889
sg55
(lp1896
S'datetime.datetime(2011, 9, 21, 14, 11, 33, 306000)'
p1897
asbasbasbag48
(g64
g50
NtRp1898
(dp1899
g53
(dp1900
sg62
g58
sg55
(lp1901
g48
(g69
g50
NtRp1902
(dp1903
g53
(dp1904
g73
g74
ssg62
g1898
sg55
(lp1905
S'post_vars'
p1906
asbag48
(g69
g50
NtRp1907
(dp1908
g53
(dp1909
g80
g81
ssg62
g1898
sg55
(lp1910
S':'
asbag48
(g69
g50
NtRp1911
(dp1912
g53
(dp1913
sg62
g1898
sg55
(lp1914
g48
(g49
g50
NtRp1915
(dp1916
g53
(dp1917
g61
I5
ssg62
g1911
sg55
(lp1918
g48
(g57
g50
NtRp1919
(dp1920
g53
(dp1921
g61
I4
ssg62
Nsg55
(lp1922
g48
(g64
g50
NtRp1923
(dp1924
g53
(dp1925
sg62
g1919
sg55
(lp1926
g48
(g69
g50
NtRp1927
(dp1928
g53
(dp1929
g73
g74
ssg62
g1923
sg55
(lp1930
S'longitud'
p1931
asbag48
(g69
g50
NtRp1932
(dp1933
g53
(dp1934
g80
g81
ssg62
g1923
sg55
(lp1935
S':'
asbag48
(g69
g50
NtRp1936
(dp1937
g53
(dp1938
sg62
g1923
sg55
(lp1939
g48
(g49
g50
NtRp1940
(dp1941
g53
(dp1942
g61
I4
ssg62
g1936
sg55
(lp1943
S''
asbasbasbag48
(g64
g50
NtRp1944
(dp1945
g53
(dp1946
sg62
g1919
sg55
(lp1947
g48
(g69
g50
NtRp1948
(dp1949
g53
(dp1950
g73
g74
ssg62
g1944
sg55
(lp1951
S'texto'
p1952
asbag48
(g69
g50
NtRp1953
(dp1954
g53
(dp1955
g80
g81
ssg62
g1944
sg55
(lp1956
S':'
asbag48
(g69
g50
NtRp1957
(dp1958
g53
(dp1959
sg62
g1944
sg55
(lp1960
g48
(g49
g50
NtRp1961
(dp1962
g53
(dp1963
g61
I4
ssg62
g1957
sg55
(lp1964
S'{{extend \'layout.html\'}} <h1>Esta es la plantilla default/entrada_mod3.html</h1> <h2>Formulario</h2> {{=form}} <br/> <h3>Tratamientos</h3> {{ textual=db(db.info4.id==1).select()[0] txt=textual.texto import re pattern=re.compile("\\w+[.@&\\w\xc3\x91\xc3\xb1]*") patternemail=re.compile("@\\w+\\.[.\\w]+") db(db.info4.id==1).update(longitud=len(txt)) res=pattern.findall(txt) res2=patternemail.findall(txt)  for i in res: response.write (i+\'    \') }}En total son {{=len(res)}} nombres sueltos <br/> {{ for i in res2: response.write(i+\'    \') }}En total son {{=len(res2)}} conf de emails sueltos <br/> {{ i=0 while i<len(res):          if patternemail.search(res[i]):         bol=\'True\'     else:         bol=\'False\'     pass     response.write(\'<br> i es: \'+str(i)+\' y patternemail para la palabra \'+res[i]+\' es \'+bol ,escape=False)     if not patternemail.search(res[i]):         cadena=\'\'         while not patternemail.search(res[i]):             cadena=cadena+\' \'+res[i]             i=i+1         pass         db.contactos.insert(nombre=cadena,email=res[i])         i=i+1    else:        db.contactos.insert(email=res[i])        i=i+1    pass pass }} {{ lista=db().select(db.contactos.ALL) }}{{=lista}}'
p1965
asbasbasbasbasbasbasbag48
(g64
g50
NtRp1966
(dp1967
g53
(dp1968
sg62
g58
sg55
(lp1969
g48
(g69
g50
NtRp1970
(dp1971
g53
(dp1972
g73
g74
ssg62
g1966
sg55
(lp1973
S'url'
p1974
asbag48
(g69
g50
NtRp1975
(dp1976
g53
(dp1977
g80
g81
ssg62
g1966
sg55
(lp1978
S':'
asbag48
(g69
g50
NtRp1979
(dp1980
g53
(dp1981
sg62
g1966
sg55
(lp1982
g48
(g49
g50
NtRp1983
(dp1984
g53
(dp1985
g61
I5
ssg62
g1979
sg55
(lp1986
S'/Desglosar_Emails/default/entrada_bien'
p1987
asbasbasbag48
(g64
g50
NtRp1988
(dp1989
g53
(dp1990
sg62
g58
sg55
(lp1991
g48
(g69
g50
NtRp1992
(dp1993
g53
(dp1994
g73
g74
ssg62
g1988
sg55
(lp1995
S'uuid'
p1996
asbag48
(g69
g50
NtRp1997
(dp1998
g53
(dp1999
g80
g81
ssg62
g1988
sg55
(lp2000
S':'
asbag48
(g69
g50
NtRp2001
(dp2002
g53
(dp2003
sg62
g1988
sg55
(lp2004
g48
(g49
g50
NtRp2005
(dp2006
g53
(dp2007
g61
I5
ssg62
g2001
sg55
(lp2008
S'Desglosar_Emails/127.0.0.1.2011-09-21.14-11-33.299bbb57-acd5-44bd-8e78-4a53be7d7820'
p2009
asbasbasbag48
(g64
g50
NtRp2010
(dp2011
g53
(dp2012
sg62
g58
sg55
(lp2013
g48
(g69
g50
NtRp2014
(dp2015
g53
(dp2016
g73
g74
ssg62
g2010
sg55
(lp2017
S'vars'
p2018
asbag48
(g69
g50
NtRp2019
(dp2020
g53
(dp2021
g80
g81
ssg62
g2010
sg55
(lp2022
S':'
asbag48
(g69
g50
NtRp2023
(dp2024
g53
(dp2025
sg62
g2010
sg55
(lp2026
g48
(g49
g50
NtRp2027
(dp2028
g53
(dp2029
g61
I5
ssg62
g2023
sg55
(lp2030
g48
(g57
g50
NtRp2031
(dp2032
g53
(dp2033
g61
I4
ssg62
Nsg55
(lp2034
g48
(g64
g50
NtRp2035
(dp2036
g53
(dp2037
sg62
g2031
sg55
(lp2038
g48
(g69
g50
NtRp2039
(dp2040
g53
(dp2041
g73
g74
ssg62
g2035
sg55
(lp2042
g1931
asbag48
(g69
g50
NtRp2043
(dp2044
g53
(dp2045
g80
g81
ssg62
g2035
sg55
(lp2046
S':'
asbag48
(g69
g50
NtRp2047
(dp2048
g53
(dp2049
sg62
g2035
sg55
(lp2050
g48
(g49
g50
NtRp2051
(dp2052
g53
(dp2053
g61
I4
ssg62
g2047
sg55
(lp2054
S''
asbasbasbag48
(g64
g50
NtRp2055
(dp2056
g53
(dp2057
sg62
g2031
sg55
(lp2058
g48
(g69
g50
NtRp2059
(dp2060
g53
(dp2061
g73
g74
ssg62
g2055
sg55
(lp2062
g1952
asbag48
(g69
g50
NtRp2063
(dp2064
g53
(dp2065
g80
g81
ssg62
g2055
sg55
(lp2066
S':'
asbag48
(g69
g50
NtRp2067
(dp2068
g53
(dp2069
sg62
g2055
sg55
(lp2070
g48
(g49
g50
NtRp2071
(dp2072
g53
(dp2073
g61
I4
ssg62
g2067
sg55
(lp2074
g1965
asbasbasbasbasbasbasbag48
(g64
g50
NtRp2075
(dp2076
g53
(dp2077
sg62
g58
sg55
(lp2078
g48
(g69
g50
NtRp2079
(dp2080
g53
(dp2081
g73
g74
ssg62
g2075
sg55
(lp2082
S'wsgi'
p2083
asbag48
(g69
g50
NtRp2084
(dp2085
g53
(dp2086
g80
g81
ssg62
g2075
sg55
(lp2087
S':'
asbag48
(g69
g50
NtRp2088
(dp2089
g53
(dp2090
sg62
g2075
sg55
(lp2091
g48
(g49
g50
NtRp2092
(dp2093
g53
(dp2094
g61
I5
ssg62
g2088
sg55
(lp2095
g48
(g57
g50
NtRp2096
(dp2097
g53
(dp2098
g61
I4
ssg62
Nsg55
(lp2099
g48
(g64
g50
NtRp2100
(dp2101
g53
(dp2102
sg62
g2096
sg55
(lp2103
g48
(g69
g50
NtRp2104
(dp2105
g53
(dp2106
g73
g74
ssg62
g2100
sg55
(lp2107
S'environ'
p2108
asbag48
(g69
g50
NtRp2109
(dp2110
g53
(dp2111
g80
g81
ssg62
g2100
sg55
(lp2112
S':'
asbag48
(g69
g50
NtRp2113
(dp2114
g53
(dp2115
sg62
g2100
sg55
(lp2116
g48
(g49
g50
NtRp2117
(dp2118
g53
(dp2119
g61
I4
ssg62
g2113
sg55
(lp2120
g48
(g57
g50
NtRp2121
(dp2122
g53
(dp2123
g61
I3
ssg62
Nsg55
(lp2124
g48
(g64
g50
NtRp2125
(dp2126
g53
(dp2127
sg62
g2121
sg55
(lp2128
g48
(g69
g50
NtRp2129
(dp2130
g53
(dp2131
g73
g74
ssg62
g2125
sg55
(lp2132
S'CONTENT_LENGTH'
p2133
asbag48
(g69
g50
NtRp2134
(dp2135
g53
(dp2136
g80
g81
ssg62
g2125
sg55
(lp2137
S':'
asbag48
(g69
g50
NtRp2138
(dp2139
g53
(dp2140
sg62
g2125
sg55
(lp2141
g48
(g49
g50
NtRp2142
(dp2143
g53
(dp2144
g61
I3
ssg62
g2138
sg55
(lp2145
g868
asbasbasbag48
(g64
g50
NtRp2146
(dp2147
g53
(dp2148
sg62
g2121
sg55
(lp2149
g48
(g69
g50
NtRp2150
(dp2151
g53
(dp2152
g73
g74
ssg62
g2146
sg55
(lp2153
S'CONTENT_TYPE'
p2154
asbag48
(g69
g50
NtRp2155
(dp2156
g53
(dp2157
g80
g81
ssg62
g2146
sg55
(lp2158
S':'
asbag48
(g69
g50
NtRp2159
(dp2160
g53
(dp2161
sg62
g2146
sg55
(lp2162
g48
(g49
g50
NtRp2163
(dp2164
g53
(dp2165
g61
I3
ssg62
g2159
sg55
(lp2166
g890
asbasbasbag48
(g64
g50
NtRp2167
(dp2168
g53
(dp2169
sg62
g2121
sg55
(lp2170
g48
(g69
g50
NtRp2171
(dp2172
g53
(dp2173
g73
g74
ssg62
g2167
sg55
(lp2174
S'HTTP_ACCEPT'
p2175
asbag48
(g69
g50
NtRp2176
(dp2177
g53
(dp2178
g80
g81
ssg62
g2167
sg55
(lp2179
S':'
asbag48
(g69
g50
NtRp2180
(dp2181
g53
(dp2182
sg62
g2167
sg55
(lp2183
g48
(g49
g50
NtRp2184
(dp2185
g53
(dp2186
g61
I3
ssg62
g2180
sg55
(lp2187
g977
asbasbasbag48
(g64
g50
NtRp2188
(dp2189
g53
(dp2190
sg62
g2121
sg55
(lp2191
g48
(g69
g50
NtRp2192
(dp2193
g53
(dp2194
g73
g74
ssg62
g2188
sg55
(lp2195
S'HTTP_ACCEPT_CHARSET'
p2196
asbag48
(g69
g50
NtRp2197
(dp2198
g53
(dp2199
g80
g81
ssg62
g2188
sg55
(lp2200
S':'
asbag48
(g69
g50
NtRp2201
(dp2202
g53
(dp2203
sg62
g2188
sg55
(lp2204
g48
(g49
g50
NtRp2205
(dp2206
g53
(dp2207
g61
I3
ssg62
g2201
sg55
(lp2208
g999
asbasbasbag48
(g64
g50
NtRp2209
(dp2210
g53
(dp2211
sg62
g2121
sg55
(lp2212
g48
(g69
g50
NtRp2213
(dp2214
g53
(dp2215
g73
g74
ssg62
g2209
sg55
(lp2216
S'HTTP_ACCEPT_ENCODING'
p2217
asbag48
(g69
g50
NtRp2218
(dp2219
g53
(dp2220
g80
g81
ssg62
g2209
sg55
(lp2221
S':'
asbag48
(g69
g50
NtRp2222
(dp2223
g53
(dp2224
sg62
g2209
sg55
(lp2225
g48
(g49
g50
NtRp2226
(dp2227
g53
(dp2228
g61
I3
ssg62
g2222
sg55
(lp2229
g1021
asbasbasbag48
(g64
g50
NtRp2230
(dp2231
g53
(dp2232
sg62
g2121
sg55
(lp2233
g48
(g69
g50
NtRp2234
(dp2235
g53
(dp2236
g73
g74
ssg62
g2230
sg55
(lp2237
S'HTTP_ACCEPT_LANGUAGE'
p2238
asbag48
(g69
g50
NtRp2239
(dp2240
g53
(dp2241
g80
g81
ssg62
g2230
sg55
(lp2242
S':'
asbag48
(g69
g50
NtRp2243
(dp2244
g53
(dp2245
sg62
g2230
sg55
(lp2246
g48
(g49
g50
NtRp2247
(dp2248
g53
(dp2249
g61
I3
ssg62
g2243
sg55
(lp2250
g1043
asbasbasbag48
(g64
g50
NtRp2251
(dp2252
g53
(dp2253
sg62
g2121
sg55
(lp2254
g48
(g69
g50
NtRp2255
(dp2256
g53
(dp2257
g73
g74
ssg62
g2251
sg55
(lp2258
S'HTTP_CACHE_CONTROL'
p2259
asbag48
(g69
g50
NtRp2260
(dp2261
g53
(dp2262
g80
g81
ssg62
g2251
sg55
(lp2263
S':'
asbag48
(g69
g50
NtRp2264
(dp2265
g53
(dp2266
sg62
g2251
sg55
(lp2267
g48
(g49
g50
NtRp2268
(dp2269
g53
(dp2270
g61
I3
ssg62
g2264
sg55
(lp2271
g1065
asbasbasbag48
(g64
g50
NtRp2272
(dp2273
g53
(dp2274
sg62
g2121
sg55
(lp2275
g48
(g69
g50
NtRp2276
(dp2277
g53
(dp2278
g73
g74
ssg62
g2272
sg55
(lp2279
S'HTTP_CONNECTION'
p2280
asbag48
(g69
g50
NtRp2281
(dp2282
g53
(dp2283
g80
g81
ssg62
g2272
sg55
(lp2284
S':'
asbag48
(g69
g50
NtRp2285
(dp2286
g53
(dp2287
sg62
g2272
sg55
(lp2288
g48
(g49
g50
NtRp2289
(dp2290
g53
(dp2291
g61
I3
ssg62
g2285
sg55
(lp2292
g1087
asbasbasbag48
(g64
g50
NtRp2293
(dp2294
g53
(dp2295
sg62
g2121
sg55
(lp2296
g48
(g69
g50
NtRp2297
(dp2298
g53
(dp2299
g73
g74
ssg62
g2293
sg55
(lp2300
S'HTTP_CONTENT_LENGTH'
p2301
asbag48
(g69
g50
NtRp2302
(dp2303
g53
(dp2304
g80
g81
ssg62
g2293
sg55
(lp2305
S':'
asbag48
(g69
g50
NtRp2306
(dp2307
g53
(dp2308
sg62
g2293
sg55
(lp2309
g48
(g49
g50
NtRp2310
(dp2311
g53
(dp2312
g61
I3
ssg62
g2306
sg55
(lp2313
g868
asbasbasbag48
(g64
g50
NtRp2314
(dp2315
g53
(dp2316
sg62
g2121
sg55
(lp2317
g48
(g69
g50
NtRp2318
(dp2319
g53
(dp2320
g73
g74
ssg62
g2314
sg55
(lp2321
S'HTTP_CONTENT_TYPE'
p2322
asbag48
(g69
g50
NtRp2323
(dp2324
g53
(dp2325
g80
g81
ssg62
g2314
sg55
(lp2326
S':'
asbag48
(g69
g50
NtRp2327
(dp2328
g53
(dp2329
sg62
g2314
sg55
(lp2330
g48
(g49
g50
NtRp2331
(dp2332
g53
(dp2333
g61
I3
ssg62
g2327
sg55
(lp2334
g890
asbasbasbag48
(g64
g50
NtRp2335
(dp2336
g53
(dp2337
sg62
g2121
sg55
(lp2338
g48
(g69
g50
NtRp2339
(dp2340
g53
(dp2341
g73
g74
ssg62
g2335
sg55
(lp2342
S'HTTP_COOKIE'
p2343
asbag48
(g69
g50
NtRp2344
(dp2345
g53
(dp2346
g80
g81
ssg62
g2335
sg55
(lp2347
S':'
asbag48
(g69
g50
NtRp2348
(dp2349
g53
(dp2350
sg62
g2335
sg55
(lp2351
g48
(g49
g50
NtRp2352
(dp2353
g53
(dp2354
g61
I3
ssg62
g2348
sg55
(lp2355
g1151
asbasbasbag48
(g64
g50
NtRp2356
(dp2357
g53
(dp2358
sg62
g2121
sg55
(lp2359
g48
(g69
g50
NtRp2360
(dp2361
g53
(dp2362
g73
g74
ssg62
g2356
sg55
(lp2363
S'HTTP_HOST'
p2364
asbag48
(g69
g50
NtRp2365
(dp2366
g53
(dp2367
g80
g81
ssg62
g2356
sg55
(lp2368
S':'
asbag48
(g69
g50
NtRp2369
(dp2370
g53
(dp2371
sg62
g2356
sg55
(lp2372
g48
(g49
g50
NtRp2373
(dp2374
g53
(dp2375
g61
I3
ssg62
g2369
sg55
(lp2376
g1173
asbasbasbag48
(g64
g50
NtRp2377
(dp2378
g53
(dp2379
sg62
g2121
sg55
(lp2380
g48
(g69
g50
NtRp2381
(dp2382
g53
(dp2383
g73
g74
ssg62
g2377
sg55
(lp2384
S'HTTP_REFERER'
p2385
asbag48
(g69
g50
NtRp2386
(dp2387
g53
(dp2388
g80
g81
ssg62
g2377
sg55
(lp2389
S':'
asbag48
(g69
g50
NtRp2390
(dp2391
g53
(dp2392
sg62
g2377
sg55
(lp2393
g48
(g49
g50
NtRp2394
(dp2395
g53
(dp2396
g61
I3
ssg62
g2390
sg55
(lp2397
g1195
asbasbasbag48
(g64
g50
NtRp2398
(dp2399
g53
(dp2400
sg62
g2121
sg55
(lp2401
g48
(g69
g50
NtRp2402
(dp2403
g53
(dp2404
g73
g74
ssg62
g2398
sg55
(lp2405
S'HTTP_USER_AGENT'
p2406
asbag48
(g69
g50
NtRp2407
(dp2408
g53
(dp2409
g80
g81
ssg62
g2398
sg55
(lp2410
S':'
asbag48
(g69
g50
NtRp2411
(dp2412
g53
(dp2413
sg62
g2398
sg55
(lp2414
g48
(g49
g50
NtRp2415
(dp2416
g53
(dp2417
g61
I3
ssg62
g2411
sg55
(lp2418
g1217
asbasbasbag48
(g64
g50
NtRp2419
(dp2420
g53
(dp2421
sg62
g2121
sg55
(lp2422
g48
(g69
g50
NtRp2423
(dp2424
g53
(dp2425
g73
g74
ssg62
g2419
sg55
(lp2426
S'PATH_INFO'
p2427
asbag48
(g69
g50
NtRp2428
(dp2429
g53
(dp2430
g80
g81
ssg62
g2419
sg55
(lp2431
S':'
asbag48
(g69
g50
NtRp2432
(dp2433
g53
(dp2434
sg62
g2419
sg55
(lp2435
g48
(g49
g50
NtRp2436
(dp2437
g53
(dp2438
g61
I3
ssg62
g2432
sg55
(lp2439
g1260
asbasbasbag48
(g64
g50
NtRp2440
(dp2441
g53
(dp2442
sg62
g2121
sg55
(lp2443
g48
(g69
g50
NtRp2444
(dp2445
g53
(dp2446
g73
g74
ssg62
g2440
sg55
(lp2447
S'QUERY_STRING'
p2448
asbag48
(g69
g50
NtRp2449
(dp2450
g53
(dp2451
g80
g81
ssg62
g2440
sg55
(lp2452
S':'
asbag48
(g69
g50
NtRp2453
(dp2454
g53
(dp2455
sg62
g2440
sg55
(lp2456
g48
(g49
g50
NtRp2457
(dp2458
g53
(dp2459
g61
I3
ssg62
g2453
sg55
(lp2460
S''
asbasbasbag48
(g64
g50
NtRp2461
(dp2462
g53
(dp2463
sg62
g2121
sg55
(lp2464
g48
(g69
g50
NtRp2465
(dp2466
g53
(dp2467
g73
g74
ssg62
g2461
sg55
(lp2468
S'REMOTE_ADDR'
p2469
asbag48
(g69
g50
NtRp2470
(dp2471
g53
(dp2472
g80
g81
ssg62
g2461
sg55
(lp2473
S':'
asbag48
(g69
g50
NtRp2474
(dp2475
g53
(dp2476
sg62
g2461
sg55
(lp2477
g48
(g49
g50
NtRp2478
(dp2479
g53
(dp2480
g61
I3
ssg62
g2474
sg55
(lp2481
g181
asbasbasbag48
(g64
g50
NtRp2482
(dp2483
g53
(dp2484
sg62
g2121
sg55
(lp2485
g48
(g69
g50
NtRp2486
(dp2487
g53
(dp2488
g73
g74
ssg62
g2482
sg55
(lp2489
S'REMOTE_PORT'
p2490
asbag48
(g69
g50
NtRp2491
(dp2492
g53
(dp2493
g80
g81
ssg62
g2482
sg55
(lp2494
S':'
asbag48
(g69
g50
NtRp2495
(dp2496
g53
(dp2497
sg62
g2482
sg55
(lp2498
g48
(g49
g50
NtRp2499
(dp2500
g53
(dp2501
g61
I3
ssg62
g2495
sg55
(lp2502
g1324
asbasbasbag48
(g64
g50
NtRp2503
(dp2504
g53
(dp2505
sg62
g2121
sg55
(lp2506
g48
(g69
g50
NtRp2507
(dp2508
g53
(dp2509
g73
g74
ssg62
g2503
sg55
(lp2510
S'REQUEST_METHOD'
p2511
asbag48
(g69
g50
NtRp2512
(dp2513
g53
(dp2514
g80
g81
ssg62
g2503
sg55
(lp2515
S':'
asbag48
(g69
g50
NtRp2516
(dp2517
g53
(dp2518
sg62
g2503
sg55
(lp2519
g48
(g49
g50
NtRp2520
(dp2521
g53
(dp2522
g61
I3
ssg62
g2516
sg55
(lp2523
g1346
asbasbasbag48
(g64
g50
NtRp2524
(dp2525
g53
(dp2526
sg62
g2121
sg55
(lp2527
g48
(g69
g50
NtRp2528
(dp2529
g53
(dp2530
g73
g74
ssg62
g2524
sg55
(lp2531
S'SCRIPT_NAME'
p2532
asbag48
(g69
g50
NtRp2533
(dp2534
g53
(dp2535
g80
g81
ssg62
g2524
sg55
(lp2536
S':'
asbag48
(g69
g50
NtRp2537
(dp2538
g53
(dp2539
sg62
g2524
sg55
(lp2540
g48
(g49
g50
NtRp2541
(dp2542
g53
(dp2543
g61
I3
ssg62
g2537
sg55
(lp2544
S''
asbasbasbag48
(g64
g50
NtRp2545
(dp2546
g53
(dp2547
sg62
g2121
sg55
(lp2548
g48
(g69
g50
NtRp2549
(dp2550
g53
(dp2551
g73
g74
ssg62
g2545
sg55
(lp2552
S'SERVER_NAME'
p2553
asbag48
(g69
g50
NtRp2554
(dp2555
g53
(dp2556
g80
g81
ssg62
g2545
sg55
(lp2557
S':'
asbag48
(g69
g50
NtRp2558
(dp2559
g53
(dp2560
sg62
g2545
sg55
(lp2561
g48
(g49
g50
NtRp2562
(dp2563
g53
(dp2564
g61
I3
ssg62
g2558
sg55
(lp2565
g1389
asbasbasbag48
(g64
g50
NtRp2566
(dp2567
g53
(dp2568
sg62
g2121
sg55
(lp2569
g48
(g69
g50
NtRp2570
(dp2571
g53
(dp2572
g73
g74
ssg62
g2566
sg55
(lp2573
S'SERVER_PORT'
p2574
asbag48
(g69
g50
NtRp2575
(dp2576
g53
(dp2577
g80
g81
ssg62
g2566
sg55
(lp2578
S':'
asbag48
(g69
g50
NtRp2579
(dp2580
g53
(dp2581
sg62
g2566
sg55
(lp2582
g48
(g49
g50
NtRp2583
(dp2584
g53
(dp2585
g61
I3
ssg62
g2579
sg55
(lp2586
g1411
asbasbasbag48
(g64
g50
NtRp2587
(dp2588
g53
(dp2589
sg62
g2121
sg55
(lp2590
g48
(g69
g50
NtRp2591
(dp2592
g53
(dp2593
g73
g74
ssg62
g2587
sg55
(lp2594
S'SERVER_PROTOCOL'
p2595
asbag48
(g69
g50
NtRp2596
(dp2597
g53
(dp2598
g80
g81
ssg62
g2587
sg55
(lp2599
S':'
asbag48
(g69
g50
NtRp2600
(dp2601
g53
(dp2602
sg62
g2587
sg55
(lp2603
g48
(g49
g50
NtRp2604
(dp2605
g53
(dp2606
g61
I3
ssg62
g2600
sg55
(lp2607
g1433
asbasbasbag48
(g64
g50
NtRp2608
(dp2609
g53
(dp2610
sg62
g2121
sg55
(lp2611
g48
(g69
g50
NtRp2612
(dp2613
g53
(dp2614
g73
g74
ssg62
g2608
sg55
(lp2615
S'SERVER_SOFTWARE'
p2616
asbag48
(g69
g50
NtRp2617
(dp2618
g53
(dp2619
g80
g81
ssg62
g2608
sg55
(lp2620
S':'
asbag48
(g69
g50
NtRp2621
(dp2622
g53
(dp2623
sg62
g2608
sg55
(lp2624
g48
(g49
g50
NtRp2625
(dp2626
g53
(dp2627
g61
I3
ssg62
g2621
sg55
(lp2628
g1455
asbasbasbag48
(g64
g50
NtRp2629
(dp2630
g53
(dp2631
sg62
g2121
sg55
(lp2632
g48
(g69
g50
NtRp2633
(dp2634
g53
(dp2635
g73
g74
ssg62
g2629
sg55
(lp2636
S'wsgi.errors'
p2637
asbag48
(g69
g50
NtRp2638
(dp2639
g53
(dp2640
g80
g81
ssg62
g2629
sg55
(lp2641
S':'
asbag48
(g69
g50
NtRp2642
(dp2643
g53
(dp2644
sg62
g2629
sg55
(lp2645
g48
(g49
g50
NtRp2646
(dp2647
g53
(dp2648
g61
I3
ssg62
g2642
sg55
(lp2649
S"<open file '<stderr>', mode 'w' at 0x020500B0>"
p2650
asbasbasbag48
(g64
g50
NtRp2651
(dp2652
g53
(dp2653
sg62
g2121
sg55
(lp2654
g48
(g69
g50
NtRp2655
(dp2656
g53
(dp2657
g73
g74
ssg62
g2651
sg55
(lp2658
S'wsgi.file_wrapper'
p2659
asbag48
(g69
g50
NtRp2660
(dp2661
g53
(dp2662
g80
g81
ssg62
g2651
sg55
(lp2663
S':'
asbag48
(g69
g50
NtRp2664
(dp2665
g53
(dp2666
sg62
g2651
sg55
(lp2667
g48
(g49
g50
NtRp2668
(dp2669
g53
(dp2670
g61
I3
ssg62
g2664
sg55
(lp2671
S'<class gluon.rocket.FileWrapper at 0x031931B0>'
p2672
asbasbasbag48
(g64
g50
NtRp2673
(dp2674
g53
(dp2675
sg62
g2121
sg55
(lp2676
g48
(g69
g50
NtRp2677
(dp2678
g53
(dp2679
g73
g74
ssg62
g2673
sg55
(lp2680
S'wsgi.input'
p2681
asbag48
(g69
g50
NtRp2682
(dp2683
g53
(dp2684
g80
g81
ssg62
g2673
sg55
(lp2685
S':'
asbag48
(g69
g50
NtRp2686
(dp2687
g53
(dp2688
sg62
g2673
sg55
(lp2689
g48
(g49
g50
NtRp2690
(dp2691
g53
(dp2692
g61
I3
ssg62
g2686
sg55
(lp2693
S"<open file '<fdopen>', mode 'w+b' at 0x0716AB18>"
p2694
asbasbasbag48
(g64
g50
NtRp2695
(dp2696
g53
(dp2697
sg62
g2121
sg55
(lp2698
g48
(g69
g50
NtRp2699
(dp2700
g53
(dp2701
g73
g74
ssg62
g2695
sg55
(lp2702
S'wsgi.multiprocess'
p2703
asbag48
(g69
g50
NtRp2704
(dp2705
g53
(dp2706
g80
g81
ssg62
g2695
sg55
(lp2707
S':'
asbag48
(g69
g50
NtRp2708
(dp2709
g53
(dp2710
sg62
g2695
sg55
(lp2711
g48
(g49
g50
NtRp2712
(dp2713
g53
(dp2714
g61
I3
ssg62
g2708
sg55
(lp2715
g91
asbasbasbag48
(g64
g50
NtRp2716
(dp2717
g53
(dp2718
sg62
g2121
sg55
(lp2719
g48
(g69
g50
NtRp2720
(dp2721
g53
(dp2722
g73
g74
ssg62
g2716
sg55
(lp2723
S'wsgi.multithread'
p2724
asbag48
(g69
g50
NtRp2725
(dp2726
g53
(dp2727
g80
g81
ssg62
g2716
sg55
(lp2728
S':'
asbag48
(g69
g50
NtRp2729
(dp2730
g53
(dp2731
sg62
g2716
sg55
(lp2732
g48
(g49
g50
NtRp2733
(dp2734
g53
(dp2735
g61
I3
ssg62
g2729
sg55
(lp2736
g1629
asbasbasbag48
(g64
g50
NtRp2737
(dp2738
g53
(dp2739
sg62
g2121
sg55
(lp2740
g48
(g69
g50
NtRp2741
(dp2742
g53
(dp2743
g73
g74
ssg62
g2737
sg55
(lp2744
S'wsgi.run_once'
p2745
asbag48
(g69
g50
NtRp2746
(dp2747
g53
(dp2748
g80
g81
ssg62
g2737
sg55
(lp2749
S':'
asbag48
(g69
g50
NtRp2750
(dp2751
g53
(dp2752
sg62
g2737
sg55
(lp2753
g48
(g49
g50
NtRp2754
(dp2755
g53
(dp2756
g61
I3
ssg62
g2750
sg55
(lp2757
g91
asbasbasbag48
(g64
g50
NtRp2758
(dp2759
g53
(dp2760
sg62
g2121
sg55
(lp2761
g48
(g69
g50
NtRp2762
(dp2763
g53
(dp2764
g73
g74
ssg62
g2758
sg55
(lp2765
S'wsgi.url_scheme'
p2766
asbag48
(g69
g50
NtRp2767
(dp2768
g53
(dp2769
g80
g81
ssg62
g2758
sg55
(lp2770
S':'
asbag48
(g69
g50
NtRp2771
(dp2772
g53
(dp2773
sg62
g2758
sg55
(lp2774
g48
(g49
g50
NtRp2775
(dp2776
g53
(dp2777
g61
I3
ssg62
g2771
sg55
(lp2778
g1672
asbasbasbag48
(g64
g50
NtRp2779
(dp2780
g53
(dp2781
sg62
g2121
sg55
(lp2782
g48
(g69
g50
NtRp2783
(dp2784
g53
(dp2785
g73
g74
ssg62
g2779
sg55
(lp2786
S'wsgi.version'
p2787
asbag48
(g69
g50
NtRp2788
(dp2789
g53
(dp2790
g80
g81
ssg62
g2779
sg55
(lp2791
S':'
asbag48
(g69
g50
NtRp2792
(dp2793
g53
(dp2794
sg62
g2779
sg55
(lp2795
g48
(g49
g50
NtRp2796
(dp2797
g53
(dp2798
g61
I3
ssg62
g2792
sg55
(lp2799
S'1'
asbasbasbasbasbasbasbasbasbasbasbasbasbsS'frames'
p2800
(lp2801
(dp2802
S'file'
p2803
S'C:\\Users\\Atomico\\web2py\\gluon\\restricted.py'
p2804
sS'dump'
p2805
(dp2806
sS'lnum'
p2807
I192
sS'lines'
p2808
(dp2809
sS'call'
p2810
S'(code=\'response.write(\\\'<!DOCTYPE html>\\\\n<html lang="\\\', ...t   -->    \\\\n  </body>\\\\n</html>\\\\n\\\', escape=False)\', environment={\'A\': <class \'gluon.html.A\'>, \'B\': <class \'gluon.html.B\'>, \'BEAUTIFY\': <class \'gluon.html.BEAUTIFY\'>, \'BODY\': <class \'gluon.html.BODY\'>, \'BR\': <class \'gluon.html.BR\'>, \'BUTTON\': <class \'gluon.html.BUTTON\'>, \'CAT\': <class \'gluon.html.CAT\'>, \'CENTER\': <class \'gluon.html.CENTER\'>, \'CLEANUP\': <class \'gluon.validators.CLEANUP\'>, \'CODE\': <class \'gluon.html.CODE\'>, ...}, layer=r\'C:\\Users\\Atomico\\web2py\\applications\\Desglosar_Emails\\views\\default/entrada_bien.html\')'
p2811
sS'func'
p2812
S'restricted'
p2813
sa(dp2814
g2803
S'C:\\Users\\Atomico\\web2py\\applications\\Desglosar_Emails\\views\\default\\entrada_bien.html'
p2815
sg2805
(dp2816
sg2807
I129
sg2808
(dp2817
I128
S"        cadena=''"
p2818
sI129
S'        while not patternemail.search(res[i]):'
p2819
sI130
S"            cadena=cadena+' '+res[i]"
p2820
sI131
S'            i=i+1'
p2821
sI132
S'            pass'
p2822
sI133
S'        db.contactos.insert(nombre=cadena,email=res[i])'
p2823
sI134
S'        i=i+1'
p2824
sI135
S'    else:'
p2825
sI136
S'        db.contactos.insert(email=res[i])'
p2826
sI137
S'        i=i+1'
p2827
sI138
S'        pass'
p2828
sI139
S'    pass'
p2829
sI120
S'while i<len(res):'
p2830
sI121
S'    if patternemail.search(res[i]):'
p2831
sI122
S"        bol='True'"
p2832
sI123
S'    else:'
p2833
sI124
S"        bol='False'"
p2834
sI125
S'        pass'
p2835
sI126
S"    response.write('<br> i es: '+str(i)+' y patternemail para la palabra '+res[i]+' es '+bol ,escape=False)"
p2836
sI127
S'    if not patternemail.search(res[i]):'
p2837
ssg2810
S'()'
p2838
sg2812
S'<module>'
p2839
sasS'pyver'
p2840
S'Python 2.5.4: C:\\Users\\Atomico\\web2py\\web2py.exe'
p2841
sS'session'
p2842
g48
(g49
g50
NtRp2843
(dp2844
g53
(dp2845
sg55
(lp2846
g48
(g57
g50
NtRp2847
(dp2848
g53
(dp2849
g61
I5
ssg62
Nsg55
(lp2850
g48
(g64
g50
NtRp2851
(dp2852
g53
(dp2853
sg62
g2847
sg55
(lp2854
g48
(g69
g50
NtRp2855
(dp2856
g53
(dp2857
g73
g74
ssg62
g2851
sg55
(lp2858
S'last_query'
p2859
asbag48
(g69
g50
NtRp2860
(dp2861
g53
(dp2862
g80
g81
ssg62
g2851
sg55
(lp2863
S':'
asbag48
(g69
g50
NtRp2864
(dp2865
g53
(dp2866
sg62
g2851
sg55
(lp2867
g48
(g49
g50
NtRp2868
(dp2869
g53
(dp2870
g61
I5
ssg62
g2864
sg55
(lp2871
S'db.info4.id>0'
p2872
asbasbasbasbasbsS'etype'
p2873
S"<type 'exceptions.IndexError'>"
p2874
sS'date'
p2875
S'Wed Sep 21 14:11:33 2011'
p2876
sS'response'
p2877
g48
(g49
g50
NtRp2878
(dp2879
g53
(dp2880
sg55
(lp2881
g48
(g57
g50
NtRp2882
(dp2883
g53
(dp2884
g61
I5
ssg62
Nsg55
(lp2885
g48
(g64
g50
NtRp2886
(dp2887
g53
(dp2888
sg62
g2882
sg55
(lp2889
g48
(g69
g50
NtRp2890
(dp2891
g53
(dp2892
g73
g74
ssg62
g2886
sg55
(lp2893
g146
asbag48
(g69
g50
NtRp2894
(dp2895
g53
(dp2896
g80
g81
ssg62
g2886
sg55
(lp2897
S':'
asbag48
(g69
g50
NtRp2898
(dp2899
g53
(dp2900
sg62
g2886
sg55
(lp2901
g48
(g49
g50
NtRp2902
(dp2903
g53
(dp2904
g61
I5
ssg62
g2898
sg55
(lp2905
S'<cStringIO.StringO object at 0x07500620>'
p2906
asbasbasbag48
(g64
g50
NtRp2907
(dp2908
g53
(dp2909
sg62
g2882
sg55
(lp2910
g48
(g69
g50
NtRp2911
(dp2912
g53
(dp2913
g73
g74
ssg62
g2907
sg55
(lp2914
g212
asbag48
(g69
g50
NtRp2915
(dp2916
g53
(dp2917
g80
g81
ssg62
g2907
sg55
(lp2918
S':'
asbag48
(g69
g50
NtRp2919
(dp2920
g53
(dp2921
sg62
g2907
sg55
(lp2922
g48
(g49
g50
NtRp2923
(dp2924
g53
(dp2925
g61
I5
ssg62
g2919
sg55
(lp2926
g48
(g57
g50
NtRp2927
(dp2928
g53
(dp2929
g61
I4
ssg62
Nsg55
(lp2930
g48
(g64
g50
NtRp2931
(dp2932
g53
(dp2933
sg62
g2927
sg55
(lp2934
g48
(g69
g50
NtRp2935
(dp2936
g53
(dp2937
g73
g74
ssg62
g2931
sg55
(lp2938
S'session_id_desglosar_emails'
p2939
asbag48
(g69
g50
NtRp2940
(dp2941
g53
(dp2942
g80
g81
ssg62
g2931
sg55
(lp2943
S':'
asbag48
(g69
g50
NtRp2944
(dp2945
g53
(dp2946
sg62
g2931
sg55
(lp2947
g48
(g49
g50
NtRp2948
(dp2949
g53
(dp2950
g61
I4
ssg62
g2944
sg55
(lp2951
g48
(g57
g50
NtRp2952
(dp2953
g53
(dp2954
g61
I3
ssg62
Nsg55
(lp2955
g48
(g64
g50
NtRp2956
(dp2957
g53
(dp2958
sg62
g2952
sg55
(lp2959
g48
(g69
g50
NtRp2960
(dp2961
g53
(dp2962
g73
g74
ssg62
g2956
sg55
(lp2963
g262
asbag48
(g69
g50
NtRp2964
(dp2965
g53
(dp2966
g80
g81
ssg62
g2956
sg55
(lp2967
S':'
asbag48
(g69
g50
NtRp2968
(dp2969
g53
(dp2970
sg62
g2956
sg55
(lp2971
g48
(g49
g50
NtRp2972
(dp2973
g53
(dp2974
g61
I3
ssg62
g2968
sg55
(lp2975
S''
asbasbasbag48
(g64
g50
NtRp2976
(dp2977
g53
(dp2978
sg62
g2952
sg55
(lp2979
g48
(g69
g50
NtRp2980
(dp2981
g53
(dp2982
g73
g74
ssg62
g2976
sg55
(lp2983
g283
asbag48
(g69
g50
NtRp2984
(dp2985
g53
(dp2986
g80
g81
ssg62
g2976
sg55
(lp2987
S':'
asbag48
(g69
g50
NtRp2988
(dp2989
g53
(dp2990
sg62
g2976
sg55
(lp2991
g48
(g49
g50
NtRp2992
(dp2993
g53
(dp2994
g61
I3
ssg62
g2988
sg55
(lp2995
S''
asbasbasbag48
(g64
g50
NtRp2996
(dp2997
g53
(dp2998
sg62
g2952
sg55
(lp2999
g48
(g69
g50
NtRp3000
(dp3001
g53
(dp3002
g73
g74
ssg62
g2996
sg55
(lp3003
g304
asbag48
(g69
g50
NtRp3004
(dp3005
g53
(dp3006
g80
g81
ssg62
g2996
sg55
(lp3007
S':'
asbag48
(g69
g50
NtRp3008
(dp3009
g53
(dp3010
sg62
g2996
sg55
(lp3011
g48
(g49
g50
NtRp3012
(dp3013
g53
(dp3014
g61
I3
ssg62
g3008
sg55
(lp3015
S''
asbasbasbag48
(g64
g50
NtRp3016
(dp3017
g53
(dp3018
sg62
g2952
sg55
(lp3019
g48
(g69
g50
NtRp3020
(dp3021
g53
(dp3022
g73
g74
ssg62
g3016
sg55
(lp3023
g325
asbag48
(g69
g50
NtRp3024
(dp3025
g53
(dp3026
g80
g81
ssg62
g3016
sg55
(lp3027
S':'
asbag48
(g69
g50
NtRp3028
(dp3029
g53
(dp3030
sg62
g3016
sg55
(lp3031
g48
(g49
g50
NtRp3032
(dp3033
g53
(dp3034
g61
I3
ssg62
g3028
sg55
(lp3035
S''
asbasbasbag48
(g64
g50
NtRp3036
(dp3037
g53
(dp3038
sg62
g2952
sg55
(lp3039
g48
(g69
g50
NtRp3040
(dp3041
g53
(dp3042
g73
g74
ssg62
g3036
sg55
(lp3043
g346
asbag48
(g69
g50
NtRp3044
(dp3045
g53
(dp3046
g80
g81
ssg62
g3036
sg55
(lp3047
S':'
asbag48
(g69
g50
NtRp3048
(dp3049
g53
(dp3050
sg62
g3036
sg55
(lp3051
g48
(g49
g50
NtRp3052
(dp3053
g53
(dp3054
g61
I3
ssg62
g3048
sg55
(lp3055
S'/'
asbasbasbag48
(g64
g50
NtRp3056
(dp3057
g53
(dp3058
sg62
g2952
sg55
(lp3059
g48
(g69
g50
NtRp3060
(dp3061
g53
(dp3062
g73
g74
ssg62
g3056
sg55
(lp3063
g367
asbag48
(g69
g50
NtRp3064
(dp3065
g53
(dp3066
g80
g81
ssg62
g3056
sg55
(lp3067
S':'
asbag48
(g69
g50
NtRp3068
(dp3069
g53
(dp3070
sg62
g3056
sg55
(lp3071
g48
(g49
g50
NtRp3072
(dp3073
g53
(dp3074
g61
I3
ssg62
g3068
sg55
(lp3075
S''
asbasbasbag48
(g64
g50
NtRp3076
(dp3077
g53
(dp3078
sg62
g2952
sg55
(lp3079
g48
(g69
g50
NtRp3080
(dp3081
g53
(dp3082
g73
g74
ssg62
g3076
sg55
(lp3083
g388
asbag48
(g69
g50
NtRp3084
(dp3085
g53
(dp3086
g80
g81
ssg62
g3076
sg55
(lp3087
S':'
asbag48
(g69
g50
NtRp3088
(dp3089
g53
(dp3090
sg62
g3076
sg55
(lp3091
g48
(g49
g50
NtRp3092
(dp3093
g53
(dp3094
g61
I3
ssg62
g3088
sg55
(lp3095
S''
asbasbasbasbasbasbasbasbasbasbasbag48
(g64
g50
NtRp3096
(dp3097
g53
(dp3098
sg62
g2882
sg55
(lp3099
g48
(g69
g50
NtRp3100
(dp3101
g53
(dp3102
g73
g74
ssg62
g3096
sg55
(lp3103
S'files'
p3104
asbag48
(g69
g50
NtRp3105
(dp3106
g53
(dp3107
g80
g81
ssg62
g3096
sg55
(lp3108
S':'
asbag48
(g69
g50
NtRp3109
(dp3110
g53
(dp3111
sg62
g3096
sg55
(lp3112
g48
(g49
g50
NtRp3113
(dp3114
g53
(dp3115
g61
I5
ssg62
g3109
sg55
(lp3116
g48
(g57
g50
NtRp3117
(dp3118
g53
(dp3119
g61
I4
ssg62
Nsg55
(lp3120
g48
(g64
g50
NtRp3121
(dp3122
g53
(dp3123
sg62
g3117
sg55
(lp3124
g48
(g69
g50
NtRp3125
(dp3126
g53
(dp3127
sg62
g3121
sg55
(lp3128
g48
(g49
g50
NtRp3129
(dp3130
g53
(dp3131
g61
I4
ssg62
g3125
sg55
(lp3132
S'/Desglosar_Emails/static/js/jquery.js'
p3133
asbasbasbag48
(g64
g50
NtRp3134
(dp3135
g53
(dp3136
sg62
g3117
sg55
(lp3137
g48
(g69
g50
NtRp3138
(dp3139
g53
(dp3140
sg62
g3134
sg55
(lp3141
g48
(g49
g50
NtRp3142
(dp3143
g53
(dp3144
g61
I4
ssg62
g3138
sg55
(lp3145
S'/Desglosar_Emails/static/css/calendar.css'
p3146
asbasbasbag48
(g64
g50
NtRp3147
(dp3148
g53
(dp3149
sg62
g3117
sg55
(lp3150
g48
(g69
g50
NtRp3151
(dp3152
g53
(dp3153
sg62
g3147
sg55
(lp3154
g48
(g49
g50
NtRp3155
(dp3156
g53
(dp3157
g61
I4
ssg62
g3151
sg55
(lp3158
S'/Desglosar_Emails/static/js/calendar.js'
p3159
asbasbasbag48
(g64
g50
NtRp3160
(dp3161
g53
(dp3162
sg62
g3117
sg55
(lp3163
g48
(g69
g50
NtRp3164
(dp3165
g53
(dp3166
sg62
g3160
sg55
(lp3167
g48
(g49
g50
NtRp3168
(dp3169
g53
(dp3170
g61
I4
ssg62
g3164
sg55
(lp3171
S'/Desglosar_Emails/static/css/base.css'
p3172
asbasbasbag48
(g64
g50
NtRp3173
(dp3174
g53
(dp3175
sg62
g3117
sg55
(lp3176
g48
(g69
g50
NtRp3177
(dp3178
g53
(dp3179
sg62
g3173
sg55
(lp3180
g48
(g49
g50
NtRp3181
(dp3182
g53
(dp3183
g61
I4
ssg62
g3177
sg55
(lp3184
S'/Desglosar_Emails/static/css/superfish.css'
p3185
asbasbasbag48
(g64
g50
NtRp3186
(dp3187
g53
(dp3188
sg62
g3117
sg55
(lp3189
g48
(g69
g50
NtRp3190
(dp3191
g53
(dp3192
sg62
g3186
sg55
(lp3193
g48
(g49
g50
NtRp3194
(dp3195
g53
(dp3196
g61
I4
ssg62
g3190
sg55
(lp3197
S'/Desglosar_Emails/static/js/superfish.js'
p3198
asbasbasbasbasbasbasbag48
(g64
g50
NtRp3199
(dp3200
g53
(dp3201
sg62
g2882
sg55
(lp3202
g48
(g69
g50
NtRp3203
(dp3204
g53
(dp3205
g73
g74
ssg62
g3199
sg55
(lp3206
S'flash'
p3207
asbag48
(g69
g50
NtRp3208
(dp3209
g53
(dp3210
g80
g81
ssg62
g3199
sg55
(lp3211
S':'
asbag48
(g69
g50
NtRp3212
(dp3213
g53
(dp3214
sg62
g3199
sg55
(lp3215
g48
(g49
g50
NtRp3216
(dp3217
g53
(dp3218
g61
I5
ssg62
g3212
sg55
(lp3219
S''
asbasbasbag48
(g64
g50
NtRp3220
(dp3221
g53
(dp3222
sg62
g2882
sg55
(lp3223
g48
(g69
g50
NtRp3224
(dp3225
g53
(dp3226
g73
g74
ssg62
g3220
sg55
(lp3227
S'generic_patterns'
p3228
asbag48
(g69
g50
NtRp3229
(dp3230
g53
(dp3231
g80
g81
ssg62
g3220
sg55
(lp3232
S':'
asbag48
(g69
g50
NtRp3233
(dp3234
g53
(dp3235
sg62
g3220
sg55
(lp3236
g48
(g49
g50
NtRp3237
(dp3238
g53
(dp3239
g61
I5
ssg62
g3233
sg55
(lp3240
g48
(g57
g50
NtRp3241
(dp3242
g53
(dp3243
g61
I4
ssg62
Nsg55
(lp3244
sbasbasbasbag48
(g64
g50
NtRp3245
(dp3246
g53
(dp3247
sg62
g2882
sg55
(lp3248
g48
(g69
g50
NtRp3249
(dp3250
g53
(dp3251
g73
g74
ssg62
g3245
sg55
(lp3252
S'headers'
p3253
asbag48
(g69
g50
NtRp3254
(dp3255
g53
(dp3256
g80
g81
ssg62
g3245
sg55
(lp3257
S':'
asbag48
(g69
g50
NtRp3258
(dp3259
g53
(dp3260
sg62
g3245
sg55
(lp3261
g48
(g49
g50
NtRp3262
(dp3263
g53
(dp3264
g61
I5
ssg62
g3258
sg55
(lp3265
g48
(g57
g50
NtRp3266
(dp3267
g53
(dp3268
g61
I4
ssg62
Nsg55
(lp3269
g48
(g64
g50
NtRp3270
(dp3271
g53
(dp3272
sg62
g3266
sg55
(lp3273
g48
(g69
g50
NtRp3274
(dp3275
g53
(dp3276
g73
g74
ssg62
g3270
sg55
(lp3277
S'Cache-Control'
p3278
asbag48
(g69
g50
NtRp3279
(dp3280
g53
(dp3281
g80
g81
ssg62
g3270
sg55
(lp3282
S':'
asbag48
(g69
g50
NtRp3283
(dp3284
g53
(dp3285
sg62
g3270
sg55
(lp3286
g48
(g49
g50
NtRp3287
(dp3288
g53
(dp3289
g61
I4
ssg62
g3283
sg55
(lp3290
S'no-store, no-cache, must-revalidate, post-check=0, pre-check=0'
p3291
asbasbasbag48
(g64
g50
NtRp3292
(dp3293
g53
(dp3294
sg62
g3266
sg55
(lp3295
g48
(g69
g50
NtRp3296
(dp3297
g53
(dp3298
g73
g74
ssg62
g3292
sg55
(lp3299
S'Content-Type'
p3300
asbag48
(g69
g50
NtRp3301
(dp3302
g53
(dp3303
g80
g81
ssg62
g3292
sg55
(lp3304
S':'
asbag48
(g69
g50
NtRp3305
(dp3306
g53
(dp3307
sg62
g3292
sg55
(lp3308
g48
(g49
g50
NtRp3309
(dp3310
g53
(dp3311
g61
I4
ssg62
g3305
sg55
(lp3312
S'text/html; charset=utf-8'
p3313
asbasbasbag48
(g64
g50
NtRp3314
(dp3315
g53
(dp3316
sg62
g3266
sg55
(lp3317
g48
(g69
g50
NtRp3318
(dp3319
g53
(dp3320
g73
g74
ssg62
g3314
sg55
(lp3321
S'Expires'
p3322
asbag48
(g69
g50
NtRp3323
(dp3324
g53
(dp3325
g80
g81
ssg62
g3314
sg55
(lp3326
S':'
asbag48
(g69
g50
NtRp3327
(dp3328
g53
(dp3329
sg62
g3314
sg55
(lp3330
g48
(g49
g50
NtRp3331
(dp3332
g53
(dp3333
g61
I4
ssg62
g3327
sg55
(lp3334
S'Wed, 21 Sep 2011 12:11:33 GMT'
p3335
asbasbasbag48
(g64
g50
NtRp3336
(dp3337
g53
(dp3338
sg62
g3266
sg55
(lp3339
g48
(g69
g50
NtRp3340
(dp3341
g53
(dp3342
g73
g74
ssg62
g3336
sg55
(lp3343
S'Pragma'
p3344
asbag48
(g69
g50
NtRp3345
(dp3346
g53
(dp3347
g80
g81
ssg62
g3336
sg55
(lp3348
S':'
asbag48
(g69
g50
NtRp3349
(dp3350
g53
(dp3351
sg62
g3336
sg55
(lp3352
g48
(g49
g50
NtRp3353
(dp3354
g53
(dp3355
g61
I4
ssg62
g3349
sg55
(lp3356
S'no-cache'
p3357
asbasbasbag48
(g64
g50
NtRp3358
(dp3359
g53
(dp3360
sg62
g3266
sg55
(lp3361
g48
(g69
g50
NtRp3362
(dp3363
g53
(dp3364
g73
g74
ssg62
g3358
sg55
(lp3365
S'X-Powered-By'
p3366
asbag48
(g69
g50
NtRp3367
(dp3368
g53
(dp3369
g80
g81
ssg62
g3358
sg55
(lp3370
S':'
asbag48
(g69
g50
NtRp3371
(dp3372
g53
(dp3373
sg62
g3358
sg55
(lp3374
g48
(g49
g50
NtRp3375
(dp3376
g53
(dp3377
g61
I4
ssg62
g3371
sg55
(lp3378
S'web2py'
p3379
asbasbasbasbasbasbasbag48
(g64
g50
NtRp3380
(dp3381
g53
(dp3382
sg62
g2882
sg55
(lp3383
g48
(g69
g50
NtRp3384
(dp3385
g53
(dp3386
g73
g74
ssg62
g3380
sg55
(lp3387
S'menu'
p3388
asbag48
(g69
g50
NtRp3389
(dp3390
g53
(dp3391
g80
g81
ssg62
g3380
sg55
(lp3392
S':'
asbag48
(g69
g50
NtRp3393
(dp3394
g53
(dp3395
sg62
g3380
sg55
(lp3396
g48
(g49
g50
NtRp3397
(dp3398
g53
(dp3399
g61
I5
ssg62
g3393
sg55
(lp3400
g48
(g57
g50
NtRp3401
(dp3402
g53
(dp3403
g61
I4
ssg62
Nsg55
(lp3404
g48
(g64
g50
NtRp3405
(dp3406
g53
(dp3407
sg62
g3401
sg55
(lp3408
g48
(g69
g50
NtRp3409
(dp3410
g53
(dp3411
sg62
g3405
sg55
(lp3412
g48
(g49
g50
NtRp3413
(dp3414
g53
(dp3415
g61
I4
ssg62
g3409
sg55
(lp3416
g48
(g57
g50
NtRp3417
(dp3418
g53
(dp3419
g61
I3
ssg62
Nsg55
(lp3420
g48
(g64
g50
NtRp3421
(dp3422
g53
(dp3423
sg62
g3417
sg55
(lp3424
g48
(g69
g50
NtRp3425
(dp3426
g53
(dp3427
sg62
g3421
sg55
(lp3428
g48
(g49
g50
NtRp3429
(dp3430
g53
(dp3431
g61
I3
ssg62
g3425
sg55
(lp3432
cgluon.languages
lazyT_unpickle
p3433
(S't\x04\x00\x00\x00Home'
tRp3434
asbasbasbag48
(g64
g50
NtRp3435
(dp3436
g53
(dp3437
sg62
g3417
sg55
(lp3438
g48
(g69
g50
NtRp3439
(dp3440
g53
(dp3441
sg62
g3435
sg55
(lp3442
g48
(g49
g50
NtRp3443
(dp3444
g53
(dp3445
g61
I3
ssg62
g3439
sg55
(lp3446
g91
asbasbasbag48
(g64
g50
NtRp3447
(dp3448
g53
(dp3449
sg62
g3417
sg55
(lp3450
g48
(g69
g50
NtRp3451
(dp3452
g53
(dp3453
sg62
g3447
sg55
(lp3454
g48
(g49
g50
NtRp3455
(dp3456
g53
(dp3457
g61
I3
ssg62
g3451
sg55
(lp3458
S'/Desglosar_Emails/default/index'
p3459
asbasbasbag48
(g64
g50
NtRp3460
(dp3461
g53
(dp3462
sg62
g3417
sg55
(lp3463
g48
(g69
g50
NtRp3464
(dp3465
g53
(dp3466
sg62
g3460
sg55
(lp3467
g48
(g49
g50
NtRp3468
(dp3469
g53
(dp3470
g61
I3
ssg62
g3464
sg55
(lp3471
g48
(g57
g50
NtRp3472
(dp3473
g53
(dp3474
g61
I2
ssg62
Nsg55
(lp3475
sbasbasbasbasbasbasbasbag48
(g64
g50
NtRp3476
(dp3477
g53
(dp3478
sg62
g3401
sg55
(lp3479
g48
(g69
g50
NtRp3480
(dp3481
g53
(dp3482
sg62
g3476
sg55
(lp3483
g48
(g49
g50
NtRp3484
(dp3485
g53
(dp3486
g61
I4
ssg62
g3480
sg55
(lp3487
g48
(g57
g50
NtRp3488
(dp3489
g53
(dp3490
g61
I3
ssg62
Nsg55
(lp3491
g48
(g64
g50
NtRp3492
(dp3493
g53
(dp3494
sg62
g3488
sg55
(lp3495
g48
(g69
g50
NtRp3496
(dp3497
g53
(dp3498
sg62
g3492
sg55
(lp3499
g48
(g49
g50
NtRp3500
(dp3501
g53
(dp3502
g61
I3
ssg62
g3496
sg55
(lp3503
g3433
(S's\x08\x00\x00\x00This App'
tRp3504
asbasbasbag48
(g64
g50
NtRp3505
(dp3506
g53
(dp3507
sg62
g3488
sg55
(lp3508
g48
(g69
g50
NtRp3509
(dp3510
g53
(dp3511
sg62
g3505
sg55
(lp3512
g48
(g49
g50
NtRp3513
(dp3514
g53
(dp3515
g61
I3
ssg62
g3509
sg55
(lp3516
g91
asbasbasbag48
(g64
g50
NtRp3517
(dp3518
g53
(dp3519
sg62
g3488
sg55
(lp3520
g48
(g69
g50
NtRp3521
(dp3522
g53
(dp3523
sg62
g3517
sg55
(lp3524
g48
(g49
g50
NtRp3525
(dp3526
g53
(dp3527
g61
I3
ssg62
g3521
sg55
(lp3528
S'/admin/default/design/Desglosar_Emails'
p3529
asbasbasbag48
(g64
g50
NtRp3530
(dp3531
g53
(dp3532
sg62
g3488
sg55
(lp3533
g48
(g69
g50
NtRp3534
(dp3535
g53
(dp3536
sg62
g3530
sg55
(lp3537
g48
(g49
g50
NtRp3538
(dp3539
g53
(dp3540
g61
I3
ssg62
g3534
sg55
(lp3541
g48
(g57
g50
NtRp3542
(dp3543
g53
(dp3544
g61
I2
ssg62
Nsg55
(lp3545
g48
(g64
g50
NtRp3546
(dp3547
g53
(dp3548
sg62
g3542
sg55
(lp3549
g48
(g69
g50
NtRp3550
(dp3551
g53
(dp3552
sg62
g3546
sg55
(lp3553
g48
(g49
g50
NtRp3554
(dp3555
g53
(dp3556
g61
I2
ssg62
g3550
sg55
(lp3557
g48
(g57
g50
NtRp3558
(dp3559
g53
(dp3560
g61
I1
ssg62
Nsg55
(lp3561
g48
(g64
g50
NtRp3562
(dp3563
g53
(dp3564
sg62
g3558
sg55
(lp3565
g48
(g69
g50
NtRp3566
(dp3567
g53
(dp3568
sg62
g3562
sg55
(lp3569
g48
(g49
g50
NtRp3570
(dp3571
g53
(dp3572
g61
I1
ssg62
g3566
sg55
(lp3573
g3433
(S't\x0b\x00\x00\x00Controlador'
tRp3574
asbasbasbag48
(g64
g50
NtRp3575
(dp3576
g53
(dp3577
sg62
g3558
sg55
(lp3578
g48
(g69
g50
NtRp3579
(dp3580
g53
(dp3581
sg62
g3575
sg55
(lp3582
g48
(g49
g50
NtRp3583
(dp3584
g53
(dp3585
g61
I1
ssg62
g3579
sg55
(lp3586
I00
asbasbasbag48
(g64
g50
NtRp3587
(dp3588
g53
(dp3589
sg62
g3558
sg55
(lp3590
g48
(g69
g50
NtRp3591
(dp3592
g53
(dp3593
sg62
g3587
sg55
(lp3594
g48
(g49
g50
NtRp3595
(dp3596
g53
(dp3597
g61
I1
ssg62
g3591
sg55
(lp3598
S'/admin/default/edit/Desglosar_Emails/controllers/default.py'
p3599
asbasbasbasbasbasbasbag48
(g64
g50
NtRp3600
(dp3601
g53
(dp3602
sg62
g3542
sg55
(lp3603
g48
(g69
g50
NtRp3604
(dp3605
g53
(dp3606
sg62
g3600
sg55
(lp3607
g48
(g49
g50
NtRp3608
(dp3609
g53
(dp3610
g61
I2
ssg62
g3604
sg55
(lp3611
g48
(g57
g50
NtRp3612
(dp3613
g53
(dp3614
g61
I1
ssg62
Nsg55
(lp3615
g48
(g64
g50
NtRp3616
(dp3617
g53
(dp3618
sg62
g3612
sg55
(lp3619
g48
(g69
g50
NtRp3620
(dp3621
g53
(dp3622
sg62
g3616
sg55
(lp3623
g48
(g49
g50
NtRp3624
(dp3625
g53
(dp3626
g61
I1
ssg62
g3620
sg55
(lp3627
g3433
(S't\x05\x00\x00\x00Vista'
tRp3628
asbasbasbag48
(g64
g50
NtRp3629
(dp3630
g53
(dp3631
sg62
g3612
sg55
(lp3632
g48
(g69
g50
NtRp3633
(dp3634
g53
(dp3635
sg62
g3629
sg55
(lp3636
g48
(g49
g50
NtRp3637
(dp3638
g53
(dp3639
g61
I1
ssg62
g3633
sg55
(lp3640
I00
asbasbasbag48
(g64
g50
NtRp3641
(dp3642
g53
(dp3643
sg62
g3612
sg55
(lp3644
g48
(g69
g50
NtRp3645
(dp3646
g53
(dp3647
sg62
g3641
sg55
(lp3648
g48
(g49
g50
NtRp3649
(dp3650
g53
(dp3651
g61
I1
ssg62
g3645
sg55
(lp3652
S'/admin/default/edit/Desglosar_Emails/views/default/entrada_bien.html'
p3653
asbasbasbasbasbasbasbag48
(g64
g50
NtRp3654
(dp3655
g53
(dp3656
sg62
g3542
sg55
(lp3657
g48
(g69
g50
NtRp3658
(dp3659
g53
(dp3660
sg62
g3654
sg55
(lp3661
g48
(g49
g50
NtRp3662
(dp3663
g53
(dp3664
g61
I2
ssg62
g3658
sg55
(lp3665
g48
(g57
g50
NtRp3666
(dp3667
g53
(dp3668
g61
I1
ssg62
Nsg55
(lp3669
g48
(g64
g50
NtRp3670
(dp3671
g53
(dp3672
sg62
g3666
sg55
(lp3673
g48
(g69
g50
NtRp3674
(dp3675
g53
(dp3676
sg62
g3670
sg55
(lp3677
g48
(g49
g50
NtRp3678
(dp3679
g53
(dp3680
g61
I1
ssg62
g3674
sg55
(lp3681
g3433
(S's\x12\x00\x00\x00Dise\xc3\xb1o de p\xc3\xa1gina'
tRp3682
asbasbasbag48
(g64
g50
NtRp3683
(dp3684
g53
(dp3685
sg62
g3666
sg55
(lp3686
g48
(g69
g50
NtRp3687
(dp3688
g53
(dp3689
sg62
g3683
sg55
(lp3690
g48
(g49
g50
NtRp3691
(dp3692
g53
(dp3693
g61
I1
ssg62
g3687
sg55
(lp3694
I00
asbasbasbag48
(g64
g50
NtRp3695
(dp3696
g53
(dp3697
sg62
g3666
sg55
(lp3698
g48
(g69
g50
NtRp3699
(dp3700
g53
(dp3701
sg62
g3695
sg55
(lp3702
g48
(g49
g50
NtRp3703
(dp3704
g53
(dp3705
g61
I1
ssg62
g3699
sg55
(lp3706
S'/admin/default/edit/Desglosar_Emails/views/layout.html'
p3707
asbasbasbasbasbasbasbag48
(g64
g50
NtRp3708
(dp3709
g53
(dp3710
sg62
g3542
sg55
(lp3711
g48
(g69
g50
NtRp3712
(dp3713
g53
(dp3714
sg62
g3708
sg55
(lp3715
g48
(g49
g50
NtRp3716
(dp3717
g53
(dp3718
g61
I2
ssg62
g3712
sg55
(lp3719
g48
(g57
g50
NtRp3720
(dp3721
g53
(dp3722
g61
I1
ssg62
Nsg55
(lp3723
g48
(g64
g50
NtRp3724
(dp3725
g53
(dp3726
sg62
g3720
sg55
(lp3727
g48
(g69
g50
NtRp3728
(dp3729
g53
(dp3730
sg62
g3724
sg55
(lp3731
g48
(g49
g50
NtRp3732
(dp3733
g53
(dp3734
g61
I1
ssg62
g3728
sg55
(lp3735
g3433
(S's\x0e\x00\x00\x00Hoja de estilo'
tRp3736
asbasbasbag48
(g64
g50
NtRp3737
(dp3738
g53
(dp3739
sg62
g3720
sg55
(lp3740
g48
(g69
g50
NtRp3741
(dp3742
g53
(dp3743
sg62
g3737
sg55
(lp3744
g48
(g49
g50
NtRp3745
(dp3746
g53
(dp3747
g61
I1
ssg62
g3741
sg55
(lp3748
I00
asbasbasbag48
(g64
g50
NtRp3749
(dp3750
g53
(dp3751
sg62
g3720
sg55
(lp3752
g48
(g69
g50
NtRp3753
(dp3754
g53
(dp3755
sg62
g3749
sg55
(lp3756
g48
(g49
g50
NtRp3757
(dp3758
g53
(dp3759
g61
I1
ssg62
g3753
sg55
(lp3760
S'/admin/default/edit/Desglosar_Emails/static/base.css'
p3761
asbasbasbasbasbasbasbag48
(g64
g50
NtRp3762
(dp3763
g53
(dp3764
sg62
g3542
sg55
(lp3765
g48
(g69
g50
NtRp3766
(dp3767
g53
(dp3768
sg62
g3762
sg55
(lp3769
g48
(g49
g50
NtRp3770
(dp3771
g53
(dp3772
g61
I2
ssg62
g3766
sg55
(lp3773
g48
(g57
g50
NtRp3774
(dp3775
g53
(dp3776
g61
I1
ssg62
Nsg55
(lp3777
g48
(g64
g50
NtRp3778
(dp3779
g53
(dp3780
sg62
g3774
sg55
(lp3781
g48
(g69
g50
NtRp3782
(dp3783
g53
(dp3784
sg62
g3778
sg55
(lp3785
g48
(g49
g50
NtRp3786
(dp3787
g53
(dp3788
g61
I1
ssg62
g3782
sg55
(lp3789
g3433
(S's\x0b\x00\x00\x00Modelo "db"'
tRp3790
asbasbasbag48
(g64
g50
NtRp3791
(dp3792
g53
(dp3793
sg62
g3774
sg55
(lp3794
g48
(g69
g50
NtRp3795
(dp3796
g53
(dp3797
sg62
g3791
sg55
(lp3798
g48
(g49
g50
NtRp3799
(dp3800
g53
(dp3801
g61
I1
ssg62
g3795
sg55
(lp3802
I00
asbasbasbag48
(g64
g50
NtRp3803
(dp3804
g53
(dp3805
sg62
g3774
sg55
(lp3806
g48
(g69
g50
NtRp3807
(dp3808
g53
(dp3809
sg62
g3803
sg55
(lp3810
g48
(g49
g50
NtRp3811
(dp3812
g53
(dp3813
g61
I1
ssg62
g3807
sg55
(lp3814
S'/admin/default/edit/Desglosar_Emails/models/db.py'
p3815
asbasbasbasbasbasbasbag48
(g64
g50
NtRp3816
(dp3817
g53
(dp3818
sg62
g3542
sg55
(lp3819
g48
(g69
g50
NtRp3820
(dp3821
g53
(dp3822
sg62
g3816
sg55
(lp3823
g48
(g49
g50
NtRp3824
(dp3825
g53
(dp3826
g61
I2
ssg62
g3820
sg55
(lp3827
g48
(g57
g50
NtRp3828
(dp3829
g53
(dp3830
g61
I1
ssg62
Nsg55
(lp3831
g48
(g64
g50
NtRp3832
(dp3833
g53
(dp3834
sg62
g3828
sg55
(lp3835
g48
(g69
g50
NtRp3836
(dp3837
g53
(dp3838
sg62
g3832
sg55
(lp3839
g48
(g49
g50
NtRp3840
(dp3841
g53
(dp3842
g61
I1
ssg62
g3836
sg55
(lp3843
g3433
(S's\r\x00\x00\x00Modelo "menu"'
tRp3844
asbasbasbag48
(g64
g50
NtRp3845
(dp3846
g53
(dp3847
sg62
g3828
sg55
(lp3848
g48
(g69
g50
NtRp3849
(dp3850
g53
(dp3851
sg62
g3845
sg55
(lp3852
g48
(g49
g50
NtRp3853
(dp3854
g53
(dp3855
g61
I1
ssg62
g3849
sg55
(lp3856
I00
asbasbasbag48
(g64
g50
NtRp3857
(dp3858
g53
(dp3859
sg62
g3828
sg55
(lp3860
g48
(g69
g50
NtRp3861
(dp3862
g53
(dp3863
sg62
g3857
sg55
(lp3864
g48
(g49
g50
NtRp3865
(dp3866
g53
(dp3867
g61
I1
ssg62
g3861
sg55
(lp3868
S'/admin/default/edit/Desglosar_Emails/models/menu.py'
p3869
asbasbasbasbasbasbasbag48
(g64
g50
NtRp3870
(dp3871
g53
(dp3872
sg62
g3542
sg55
(lp3873
g48
(g69
g50
NtRp3874
(dp3875
g53
(dp3876
sg62
g3870
sg55
(lp3877
g48
(g49
g50
NtRp3878
(dp3879
g53
(dp3880
g61
I2
ssg62
g3874
sg55
(lp3881
g48
(g57
g50
NtRp3882
(dp3883
g53
(dp3884
g61
I1
ssg62
Nsg55
(lp3885
g48
(g64
g50
NtRp3886
(dp3887
g53
(dp3888
sg62
g3882
sg55
(lp3889
g48
(g69
g50
NtRp3890
(dp3891
g53
(dp3892
sg62
g3886
sg55
(lp3893
g48
(g49
g50
NtRp3894
(dp3895
g53
(dp3896
g61
I1
ssg62
g3890
sg55
(lp3897
g3433
(S's\r\x00\x00\x00Base de datos'
tRp3898
asbasbasbag48
(g64
g50
NtRp3899
(dp3900
g53
(dp3901
sg62
g3882
sg55
(lp3902
g48
(g69
g50
NtRp3903
(dp3904
g53
(dp3905
sg62
g3899
sg55
(lp3906
g48
(g49
g50
NtRp3907
(dp3908
g53
(dp3909
g61
I1
ssg62
g3903
sg55
(lp3910
I00
asbasbasbag48
(g64
g50
NtRp3911
(dp3912
g53
(dp3913
sg62
g3882
sg55
(lp3914
g48
(g69
g50
NtRp3915
(dp3916
g53
(dp3917
sg62
g3911
sg55
(lp3918
g48
(g49
g50
NtRp3919
(dp3920
g53
(dp3921
g61
I1
ssg62
g3915
sg55
(lp3922
S'/Desglosar_Emails/appadmin/index'
p3923
asbasbasbasbasbasbasbag48
(g64
g50
NtRp3924
(dp3925
g53
(dp3926
sg62
g3542
sg55
(lp3927
g48
(g69
g50
NtRp3928
(dp3929
g53
(dp3930
sg62
g3924
sg55
(lp3931
g48
(g49
g50
NtRp3932
(dp3933
g53
(dp3934
g61
I2
ssg62
g3928
sg55
(lp3935
g48
(g57
g50
NtRp3936
(dp3937
g53
(dp3938
g61
I1
ssg62
Nsg55
(lp3939
g48
(g64
g50
NtRp3940
(dp3941
g53
(dp3942
sg62
g3936
sg55
(lp3943
g48
(g69
g50
NtRp3944
(dp3945
g53
(dp3946
sg62
g3940
sg55
(lp3947
g48
(g49
g50
NtRp3948
(dp3949
g53
(dp3950
g61
I1
ssg62
g3944
sg55
(lp3951
g3433
(S't\x06\x00\x00\x00Errors'
tRp3952
asbasbasbag48
(g64
g50
NtRp3953
(dp3954
g53
(dp3955
sg62
g3936
sg55
(lp3956
g48
(g69
g50
NtRp3957
(dp3958
g53
(dp3959
sg62
g3953
sg55
(lp3960
g48
(g49
g50
NtRp3961
(dp3962
g53
(dp3963
g61
I1
ssg62
g3957
sg55
(lp3964
I00
asbasbasbag48
(g64
g50
NtRp3965
(dp3966
g53
(dp3967
sg62
g3936
sg55
(lp3968
g48
(g69
g50
NtRp3969
(dp3970
g53
(dp3971
sg62
g3965
sg55
(lp3972
g48
(g49
g50
NtRp3973
(dp3974
g53
(dp3975
g61
I1
ssg62
g3969
sg55
(lp3976
S'/admin/default/errors/Desglosar_Emails'
p3977
asbasbasbasbasbasbasbag48
(g64
g50
NtRp3978
(dp3979
g53
(dp3980
sg62
g3542
sg55
(lp3981
g48
(g69
g50
NtRp3982
(dp3983
g53
(dp3984
sg62
g3978
sg55
(lp3985
g48
(g49
g50
NtRp3986
(dp3987
g53
(dp3988
g61
I2
ssg62
g3982
sg55
(lp3989
g48
(g57
g50
NtRp3990
(dp3991
g53
(dp3992
g61
I1
ssg62
Nsg55
(lp3993
g48
(g64
g50
NtRp3994
(dp3995
g53
(dp3996
sg62
g3990
sg55
(lp3997
g48
(g69
g50
NtRp3998
(dp3999
g53
(dp4000
sg62
g3994
sg55
(lp4001
g48
(g49
g50
NtRp4002
(dp4003
g53
(dp4004
g61
I1
ssg62
g3998
sg55
(lp4005
g3433
(S's\t\x00\x00\x00Acerca de'
tRp4006
asbasbasbag48
(g64
g50
NtRp4007
(dp4008
g53
(dp4009
sg62
g3990
sg55
(lp4010
g48
(g69
g50
NtRp4011
(dp4012
g53
(dp4013
sg62
g4007
sg55
(lp4014
g48
(g49
g50
NtRp4015
(dp4016
g53
(dp4017
g61
I1
ssg62
g4011
sg55
(lp4018
I00
asbasbasbag48
(g64
g50
NtRp4019
(dp4020
g53
(dp4021
sg62
g3990
sg55
(lp4022
g48
(g69
g50
NtRp4023
(dp4024
g53
(dp4025
sg62
g4019
sg55
(lp4026
g48
(g49
g50
NtRp4027
(dp4028
g53
(dp4029
g61
I1
ssg62
g4023
sg55
(lp4030
S'/admin/default/about/Desglosar_Emails'
p4031
asbasbasbasbasbasbasbasbasbasbasbasbasbasbasbag48
(g64
g50
NtRp4032
(dp4033
g53
(dp4034
sg62
g3401
sg55
(lp4035
g48
(g69
g50
NtRp4036
(dp4037
g53
(dp4038
sg62
g4032
sg55
(lp4039
g48
(g49
g50
NtRp4040
(dp4041
g53
(dp4042
g61
I4
ssg62
g4036
sg55
(lp4043
g48
(g57
g50
NtRp4044
(dp4045
g53
(dp4046
g61
I3
ssg62
Nsg55
(lp4047
g48
(g64
g50
NtRp4048
(dp4049
g53
(dp4050
sg62
g4044
sg55
(lp4051
g48
(g69
g50
NtRp4052
(dp4053
g53
(dp4054
sg62
g4048
sg55
(lp4055
g48
(g49
g50
NtRp4056
(dp4057
g53
(dp4058
g61
I3
ssg62
g4052
sg55
(lp4059
g3433
(S't\t\x00\x00\x00Resources'
tRp4060
asbasbasbag48
(g64
g50
NtRp4061
(dp4062
g53
(dp4063
sg62
g4044
sg55
(lp4064
g48
(g69
g50
NtRp4065
(dp4066
g53
(dp4067
sg62
g4061
sg55
(lp4068
g48
(g49
g50
NtRp4069
(dp4070
g53
(dp4071
g61
I3
ssg62
g4065
sg55
(lp4072
g91
asbasbasbag48
(g64
g50
NtRp4073
(dp4074
g53
(dp4075
sg62
g4044
sg55
(lp4076
g48
(g69
g50
NtRp4077
(dp4078
g53
(dp4079
sg62
g4073
sg55
(lp4080
g48
(g49
g50
NtRp4081
(dp4082
g53
(dp4083
g61
I3
ssg62
g4077
sg55
(lp4084
S'None'
p4085
asbasbasbag48
(g64
g50
NtRp4086
(dp4087
g53
(dp4088
sg62
g4044
sg55
(lp4089
g48
(g69
g50
NtRp4090
(dp4091
g53
(dp4092
sg62
g4086
sg55
(lp4093
g48
(g49
g50
NtRp4094
(dp4095
g53
(dp4096
g61
I3
ssg62
g4090
sg55
(lp4097
g48
(g57
g50
NtRp4098
(dp4099
g53
(dp4100
g61
I2
ssg62
Nsg55
(lp4101
g48
(g64
g50
NtRp4102
(dp4103
g53
(dp4104
sg62
g4098
sg55
(lp4105
g48
(g69
g50
NtRp4106
(dp4107
g53
(dp4108
sg62
g4102
sg55
(lp4109
g48
(g49
g50
NtRp4110
(dp4111
g53
(dp4112
g61
I2
ssg62
g4106
sg55
(lp4113
g48
(g57
g50
NtRp4114
(dp4115
g53
(dp4116
g61
I1
ssg62
Nsg55
(lp4117
g48
(g64
g50
NtRp4118
(dp4119
g53
(dp4120
sg62
g4114
sg55
(lp4121
g48
(g69
g50
NtRp4122
(dp4123
g53
(dp4124
sg62
g4118
sg55
(lp4125
g48
(g49
g50
NtRp4126
(dp4127
g53
(dp4128
g61
I1
ssg62
g4122
sg55
(lp4129
g3433
(S's\x0e\x00\x00\x00Documentaci\xc3\xb3n'
tRp4130
asbasbasbag48
(g64
g50
NtRp4131
(dp4132
g53
(dp4133
sg62
g4114
sg55
(lp4134
g48
(g69
g50
NtRp4135
(dp4136
g53
(dp4137
sg62
g4131
sg55
(lp4138
g48
(g49
g50
NtRp4139
(dp4140
g53
(dp4141
g61
I1
ssg62
g4135
sg55
(lp4142
I00
asbasbasbag48
(g64
g50
NtRp4143
(dp4144
g53
(dp4145
sg62
g4114
sg55
(lp4146
g48
(g69
g50
NtRp4147
(dp4148
g53
(dp4149
sg62
g4143
sg55
(lp4150
g48
(g49
g50
NtRp4151
(dp4152
g53
(dp4153
g61
I1
ssg62
g4147
sg55
(lp4154
S'http://www.web2py.com/book'
p4155
asbasbasbag48
(g64
g50
NtRp4156
(dp4157
g53
(dp4158
sg62
g4114
sg55
(lp4159
g48
(g69
g50
NtRp4160
(dp4161
g53
(dp4162
sg62
g4156
sg55
(lp4163
g48
(g49
g50
NtRp4164
(dp4165
g53
(dp4166
g61
I1
ssg62
g4160
sg55
(lp4167
(lp4168
(g3433
(S't\x07\x00\x00\x00Preface'
tRp4169
I00
S'http://www.web2py.com/book/default/chapter/00'
tp4170
a(g3433
(S't\x0c\x00\x00\x00Introduction'
tRp4171
I00
S'http://www.web2py.com/book/default/chapter/01'
tp4172
a(g3433
(S't\x06\x00\x00\x00Python'
tRp4173
I00
S'http://www.web2py.com/book/default/chapter/02'
tp4174
a(g3433
(S't\x08\x00\x00\x00Overview'
tRp4175
I00
S'http://www.web2py.com/book/default/chapter/03'
tp4176
a(g3433
(S's\x08\x00\x00\x00The Core'
tRp4177
I00
S'http://www.web2py.com/book/default/chapter/04'
tp4178
a(g3433
(S's\t\x00\x00\x00The Views'
tRp4179
I00
S'http://www.web2py.com/book/default/chapter/05'
tp4180
a(g3433
(S's\r\x00\x00\x00Base de datos'
tRp4181
I00
S'http://www.web2py.com/book/default/chapter/06'
tp4182
a(g3433
(S's\x14\x00\x00\x00Forms and Validators'
tRp4183
I00
S'http://www.web2py.com/book/default/chapter/07'
tp4184
a(g3433
(S's\x0e\x00\x00\x00Access Control'
tRp4185
I00
S'http://www.web2py.com/book/default/chapter/08'
tp4186
a(g3433
(S't\x08\x00\x00\x00Services'
tRp4187
I00
S'http://www.web2py.com/book/default/chapter/09'
tp4188
a(g3433
(S's\x0c\x00\x00\x00Ajax Recipes'
tRp4189
I00
S'http://www.web2py.com/book/default/chapter/10'
tp4190
a(g3433
(S's\x12\x00\x00\x00Deployment Recipes'
tRp4191
I00
S'http://www.web2py.com/book/default/chapter/11'
tp4192
a(g3433
(S's\r\x00\x00\x00Other Recipes'
tRp4193
I00
S'http://www.web2py.com/book/default/chapter/12'
tp4194
a(g3433
(S's\r\x00\x00\x00Buy this book'
tRp4195
I00
S'http://stores.lulu.com/web2py'
tp4196
aasbasbasbasbasbasbasbag48
(g64
g50
NtRp4197
(dp4198
g53
(dp4199
sg62
g4098
sg55
(lp4200
g48
(g69
g50
NtRp4201
(dp4202
g53
(dp4203
sg62
g4197
sg55
(lp4204
g48
(g49
g50
NtRp4205
(dp4206
g53
(dp4207
g61
I2
ssg62
g4201
sg55
(lp4208
g48
(g57
g50
NtRp4209
(dp4210
g53
(dp4211
g61
I1
ssg62
Nsg55
(lp4212
g48
(g64
g50
NtRp4213
(dp4214
g53
(dp4215
sg62
g4209
sg55
(lp4216
g48
(g69
g50
NtRp4217
(dp4218
g53
(dp4219
sg62
g4213
sg55
(lp4220
g48
(g49
g50
NtRp4221
(dp4222
g53
(dp4223
g61
I1
ssg62
g4217
sg55
(lp4224
g3433
(S't\t\x00\x00\x00Community'
tRp4225
asbasbasbag48
(g64
g50
NtRp4226
(dp4227
g53
(dp4228
sg62
g4209
sg55
(lp4229
g48
(g69
g50
NtRp4230
(dp4231
g53
(dp4232
sg62
g4226
sg55
(lp4233
g48
(g49
g50
NtRp4234
(dp4235
g53
(dp4236
g61
I1
ssg62
g4230
sg55
(lp4237
I00
asbasbasbag48
(g64
g50
NtRp4238
(dp4239
g53
(dp4240
sg62
g4209
sg55
(lp4241
g48
(g69
g50
NtRp4242
(dp4243
g53
(dp4244
sg62
g4238
sg55
(lp4245
g48
(g49
g50
NtRp4246
(dp4247
g53
(dp4248
g61
I1
ssg62
g4242
sg55
(lp4249
Nasbasbasbag48
(g64
g50
NtRp4250
(dp4251
g53
(dp4252
sg62
g4209
sg55
(lp4253
g48
(g69
g50
NtRp4254
(dp4255
g53
(dp4256
sg62
g4250
sg55
(lp4257
g48
(g49
g50
NtRp4258
(dp4259
g53
(dp4260
g61
I1
ssg62
g4254
sg55
(lp4261
(lp4262
(g3433
(S't\x06\x00\x00\x00Groups'
tRp4263
I00
S'http://www.web2py.com/examples/default/usergroups'
tp4264
a(g3433
(S't\x07\x00\x00\x00Twitter'
tRp4265
I00
S'http://twitter.com/web2py'
tp4266
a(g3433
(S's\t\x00\x00\x00Live chat'
tRp4267
I00
S'http://mibbit.com/?channel=%23web2py&server=irc.mibbit.net'
tp4268
a(g3433
(S's\n\x00\x00\x00User Voice'
tRp4269
I00
S'http://web2py.uservoice.com/'
tp4270
aasbasbasbasbasbasbasbag48
(g64
g50
NtRp4271
(dp4272
g53
(dp4273
sg62
g4098
sg55
(lp4274
g48
(g69
g50
NtRp4275
(dp4276
g53
(dp4277
sg62
g4271
sg55
(lp4278
g48
(g49
g50
NtRp4279
(dp4280
g53
(dp4281
g61
I2
ssg62
g4275
sg55
(lp4282
g48
(g57
g50
NtRp4283
(dp4284
g53
(dp4285
g61
I1
ssg62
Nsg55
(lp4286
g48
(g64
g50
NtRp4287
(dp4288
g53
(dp4289
sg62
g4283
sg55
(lp4290
g48
(g69
g50
NtRp4291
(dp4292
g53
(dp4293
sg62
g4287
sg55
(lp4294
g48
(g49
g50
NtRp4295
(dp4296
g53
(dp4297
g61
I1
ssg62
g4291
sg55
(lp4298
g3433
(S't\x06\x00\x00\x00Web2py'
tRp4299
asbasbasbag48
(g64
g50
NtRp4300
(dp4301
g53
(dp4302
sg62
g4283
sg55
(lp4303
g48
(g69
g50
NtRp4304
(dp4305
g53
(dp4306
sg62
g4300
sg55
(lp4307
g48
(g49
g50
NtRp4308
(dp4309
g53
(dp4310
g61
I1
ssg62
g4304
sg55
(lp4311
I00
asbasbasbag48
(g64
g50
NtRp4312
(dp4313
g53
(dp4314
sg62
g4283
sg55
(lp4315
g48
(g69
g50
NtRp4316
(dp4317
g53
(dp4318
sg62
g4312
sg55
(lp4319
g48
(g49
g50
NtRp4320
(dp4321
g53
(dp4322
g61
I1
ssg62
g4316
sg55
(lp4323
S'http://www.web2py.com'
p4324
asbasbasbag48
(g64
g50
NtRp4325
(dp4326
g53
(dp4327
sg62
g4283
sg55
(lp4328
g48
(g69
g50
NtRp4329
(dp4330
g53
(dp4331
sg62
g4325
sg55
(lp4332
g48
(g49
g50
NtRp4333
(dp4334
g53
(dp4335
g61
I1
ssg62
g4329
sg55
(lp4336
(lp4337
(g3433
(S't\x08\x00\x00\x00Download'
tRp4338
I00
S'http://www.web2py.com/examples/default/download'
tp4339
a(g3433
(S't\x07\x00\x00\x00Support'
tRp4340
I00
S'http://www.web2py.com/examples/default/support'
tp4341
a(g3433
(S's\x0e\x00\x00\x00Quick Examples'
tRp4342
I00
S'http://web2py.com/examples/default/examples'
tp4343
a(g3433
(S't\x03\x00\x00\x00FAQ'
tRp4344
I00
S'http://web2py.com/AlterEgo'
tp4345
a(g3433
(S's\x11\x00\x00\x00Free Applications'
tRp4346
I00
S'http://web2py.com/appliances'
tp4347
a(g3433
(S't\x07\x00\x00\x00Plugins'
tRp4348
I00
S'http://web2py.com/plugins'
tp4349
a(g3433
(S't\x07\x00\x00\x00Recipes'
tRp4350
I00
S'http://web2pyslices.com/'
tp4351
a(g3433
(S't\x04\x00\x00\x00Demo'
tRp4352
I00
S'http://web2py.com/demo_admin'
tp4353
a(g3433
(S't\x08\x00\x00\x00Semantic'
tRp4354
I00
S'http://web2py.com/semantic'
tp4355
a(g3433
(S't\x07\x00\x00\x00Layouts'
tRp4356
I00
S'http://web2py.com/layouts'
tp4357
a(g3433
(S't\x06\x00\x00\x00Videos'
tRp4358
I00
S'http://www.web2py.com/examples/default/videos/'
tp4359
aasbasbasbasbasbasbasbasbasbasbasbasbasbasbasbasbasbasbasbag48
(g64
g50
NtRp4360
(dp4361
g53
(dp4362
sg62
g2882
sg55
(lp4363
g48
(g69
g50
NtRp4364
(dp4365
g53
(dp4366
g73
g74
ssg62
g4360
sg55
(lp4367
S'meta'
p4368
asbag48
(g69
g50
NtRp4369
(dp4370
g53
(dp4371
g80
g81
ssg62
g4360
sg55
(lp4372
S':'
asbag48
(g69
g50
NtRp4373
(dp4374
g53
(dp4375
sg62
g4360
sg55
(lp4376
g48
(g49
g50
NtRp4377
(dp4378
g53
(dp4379
g61
I5
ssg62
g4373
sg55
(lp4380
g48
(g57
g50
NtRp4381
(dp4382
g53
(dp4383
g61
I4
ssg62
Nsg55
(lp4384
g48
(g64
g50
NtRp4385
(dp4386
g53
(dp4387
sg62
g4381
sg55
(lp4388
g48
(g69
g50
NtRp4389
(dp4390
g53
(dp4391
g73
g74
ssg62
g4385
sg55
(lp4392
S'author'
p4393
asbag48
(g69
g50
NtRp4394
(dp4395
g53
(dp4396
g80
g81
ssg62
g4385
sg55
(lp4397
S':'
asbag48
(g69
g50
NtRp4398
(dp4399
g53
(dp4400
sg62
g4385
sg55
(lp4401
g48
(g49
g50
NtRp4402
(dp4403
g53
(dp4404
g61
I4
ssg62
g4398
sg55
(lp4405
S'you'
p4406
asbasbasbag48
(g64
g50
NtRp4407
(dp4408
g53
(dp4409
sg62
g4381
sg55
(lp4410
g48
(g69
g50
NtRp4411
(dp4412
g53
(dp4413
g73
g74
ssg62
g4407
sg55
(lp4414
S'copyright'
p4415
asbag48
(g69
g50
NtRp4416
(dp4417
g53
(dp4418
g80
g81
ssg62
g4407
sg55
(lp4419
S':'
asbag48
(g69
g50
NtRp4420
(dp4421
g53
(dp4422
sg62
g4407
sg55
(lp4423
g48
(g49
g50
NtRp4424
(dp4425
g53
(dp4426
g61
I4
ssg62
g4420
sg55
(lp4427
S'Copyright 2007-2010'
p4428
asbasbasbag48
(g64
g50
NtRp4429
(dp4430
g53
(dp4431
sg62
g4381
sg55
(lp4432
g48
(g69
g50
NtRp4433
(dp4434
g53
(dp4435
g73
g74
ssg62
g4429
sg55
(lp4436
S'description'
p4437
asbag48
(g69
g50
NtRp4438
(dp4439
g53
(dp4440
g80
g81
ssg62
g4429
sg55
(lp4441
S':'
asbag48
(g69
g50
NtRp4442
(dp4443
g53
(dp4444
sg62
g4429
sg55
(lp4445
g48
(g49
g50
NtRp4446
(dp4447
g53
(dp4448
g61
I4
ssg62
g4442
sg55
(lp4449
S'Free and open source full-stack enterprise framework for agile development of fast, scalable, secure and portable database-driven web-based applications. Written and programmable in Python'
p4450
asbasbasbag48
(g64
g50
NtRp4451
(dp4452
g53
(dp4453
sg62
g4381
sg55
(lp4454
g48
(g69
g50
NtRp4455
(dp4456
g53
(dp4457
g73
g74
ssg62
g4451
sg55
(lp4458
S'generator'
p4459
asbag48
(g69
g50
NtRp4460
(dp4461
g53
(dp4462
g80
g81
ssg62
g4451
sg55
(lp4463
S':'
asbag48
(g69
g50
NtRp4464
(dp4465
g53
(dp4466
sg62
g4451
sg55
(lp4467
g48
(g49
g50
NtRp4468
(dp4469
g53
(dp4470
g61
I4
ssg62
g4464
sg55
(lp4471
S'Web2py Enterprise Framework'
p4472
asbasbasbag48
(g64
g50
NtRp4473
(dp4474
g53
(dp4475
sg62
g4381
sg55
(lp4476
g48
(g69
g50
NtRp4477
(dp4478
g53
(dp4479
g73
g74
ssg62
g4473
sg55
(lp4480
S'keywords'
p4481
asbag48
(g69
g50
NtRp4482
(dp4483
g53
(dp4484
g80
g81
ssg62
g4473
sg55
(lp4485
S':'
asbag48
(g69
g50
NtRp4486
(dp4487
g53
(dp4488
sg62
g4473
sg55
(lp4489
g48
(g49
g50
NtRp4490
(dp4491
g53
(dp4492
g61
I4
ssg62
g4486
sg55
(lp4493
S'web2py, python, framework'
p4494
asbasbasbasbasbasbasbag48
(g64
g50
NtRp4495
(dp4496
g53
(dp4497
sg62
g2882
sg55
(lp4498
g48
(g69
g50
NtRp4499
(dp4500
g53
(dp4501
g73
g74
ssg62
g4495
sg55
(lp4502
S'postprocessing'
p4503
asbag48
(g69
g50
NtRp4504
(dp4505
g53
(dp4506
g80
g81
ssg62
g4495
sg55
(lp4507
S':'
asbag48
(g69
g50
NtRp4508
(dp4509
g53
(dp4510
sg62
g4495
sg55
(lp4511
g48
(g49
g50
NtRp4512
(dp4513
g53
(dp4514
g61
I5
ssg62
g4508
sg55
(lp4515
g48
(g57
g50
NtRp4516
(dp4517
g53
(dp4518
g61
I4
ssg62
Nsg55
(lp4519
sbasbasbasbag48
(g64
g50
NtRp4520
(dp4521
g53
(dp4522
sg62
g2882
sg55
(lp4523
g48
(g69
g50
NtRp4524
(dp4525
g53
(dp4526
g73
g74
ssg62
g4520
sg55
(lp4527
S'session_file'
p4528
asbag48
(g69
g50
NtRp4529
(dp4530
g53
(dp4531
g80
g81
ssg62
g4520
sg55
(lp4532
S':'
asbag48
(g69
g50
NtRp4533
(dp4534
g53
(dp4535
sg62
g4520
sg55
(lp4536
g48
(g49
g50
NtRp4537
(dp4538
g53
(dp4539
g61
I5
ssg62
g4533
sg55
(lp4540
S"<open file 'C:\\Users\\Atomico\\web2py\\applications\\Desglosar_Emails\\sessions\\127.0.0.1-c2891e73-e00c-4371-88c4-c01d892c385e', mode 'rb+' at 0x0716A728>"
p4541
asbasbasbag48
(g64
g50
NtRp4542
(dp4543
g53
(dp4544
sg62
g2882
sg55
(lp4545
g48
(g69
g50
NtRp4546
(dp4547
g53
(dp4548
g73
g74
ssg62
g4542
sg55
(lp4549
S'session_filename'
p4550
asbag48
(g69
g50
NtRp4551
(dp4552
g53
(dp4553
g80
g81
ssg62
g4542
sg55
(lp4554
S':'
asbag48
(g69
g50
NtRp4555
(dp4556
g53
(dp4557
sg62
g4542
sg55
(lp4558
g48
(g49
g50
NtRp4559
(dp4560
g53
(dp4561
g61
I5
ssg62
g4555
sg55
(lp4562
S'C:\\Users\\Atomico\\web2py\\applications\\Desglosar_Emails\\sessions\\127.0.0.1-c2891e73-e00c-4371-88c4-c01d892c385e'
p4563
asbasbasbag48
(g64
g50
NtRp4564
(dp4565
g53
(dp4566
sg62
g2882
sg55
(lp4567
g48
(g69
g50
NtRp4568
(dp4569
g53
(dp4570
g73
g74
ssg62
g4564
sg55
(lp4571
S'session_id'
p4572
asbag48
(g69
g50
NtRp4573
(dp4574
g53
(dp4575
g80
g81
ssg62
g4564
sg55
(lp4576
S':'
asbag48
(g69
g50
NtRp4577
(dp4578
g53
(dp4579
sg62
g4564
sg55
(lp4580
g48
(g49
g50
NtRp4581
(dp4582
g53
(dp4583
g61
I5
ssg62
g4577
sg55
(lp4584
S'127.0.0.1-c2891e73-e00c-4371-88c4-c01d892c385e'
p4585
asbasbasbag48
(g64
g50
NtRp4586
(dp4587
g53
(dp4588
sg62
g2882
sg55
(lp4589
g48
(g69
g50
NtRp4590
(dp4591
g53
(dp4592
g73
g74
ssg62
g4586
sg55
(lp4593
S'session_id_name'
p4594
asbag48
(g69
g50
NtRp4595
(dp4596
g53
(dp4597
g80
g81
ssg62
g4586
sg55
(lp4598
S':'
asbag48
(g69
g50
NtRp4599
(dp4600
g53
(dp4601
sg62
g4586
sg55
(lp4602
g48
(g49
g50
NtRp4603
(dp4604
g53
(dp4605
g61
I5
ssg62
g4599
sg55
(lp4606
g2939
asbasbasbag48
(g64
g50
NtRp4607
(dp4608
g53
(dp4609
sg62
g2882
sg55
(lp4610
g48
(g69
g50
NtRp4611
(dp4612
g53
(dp4613
g73
g74
ssg62
g4607
sg55
(lp4614
S'session_locked'
p4615
asbag48
(g69
g50
NtRp4616
(dp4617
g53
(dp4618
g80
g81
ssg62
g4607
sg55
(lp4619
S':'
asbag48
(g69
g50
NtRp4620
(dp4621
g53
(dp4622
sg62
g4607
sg55
(lp4623
g48
(g49
g50
NtRp4624
(dp4625
g53
(dp4626
g61
I5
ssg62
g4620
sg55
(lp4627
g1629
asbasbasbag48
(g64
g50
NtRp4628
(dp4629
g53
(dp4630
sg62
g2882
sg55
(lp4631
g48
(g69
g50
NtRp4632
(dp4633
g53
(dp4634
g73
g74
ssg62
g4628
sg55
(lp4635
S'session_new'
p4636
asbag48
(g69
g50
NtRp4637
(dp4638
g53
(dp4639
g80
g81
ssg62
g4628
sg55
(lp4640
S':'
asbag48
(g69
g50
NtRp4641
(dp4642
g53
(dp4643
sg62
g4628
sg55
(lp4644
g48
(g49
g50
NtRp4645
(dp4646
g53
(dp4647
g61
I5
ssg62
g4641
sg55
(lp4648
g91
asbasbasbag48
(g64
g50
NtRp4649
(dp4650
g53
(dp4651
sg62
g2882
sg55
(lp4652
g48
(g69
g50
NtRp4653
(dp4654
g53
(dp4655
g73
g74
ssg62
g4649
sg55
(lp4656
S'status'
p4657
asbag48
(g69
g50
NtRp4658
(dp4659
g53
(dp4660
g80
g81
ssg62
g4649
sg55
(lp4661
S':'
asbag48
(g69
g50
NtRp4662
(dp4663
g53
(dp4664
sg62
g4649
sg55
(lp4665
g48
(g49
g50
NtRp4666
(dp4667
g53
(dp4668
g61
I5
ssg62
g4662
sg55
(lp4669
S'200'
p4670
asbasbasbag48
(g64
g50
NtRp4671
(dp4672
g53
(dp4673
sg62
g2882
sg55
(lp4674
g48
(g69
g50
NtRp4675
(dp4676
g53
(dp4677
g73
g74
ssg62
g4671
sg55
(lp4678
S'subtitle'
p4679
asbag48
(g69
g50
NtRp4680
(dp4681
g53
(dp4682
g80
g81
ssg62
g4671
sg55
(lp4683
S':'
asbag48
(g69
g50
NtRp4684
(dp4685
g53
(dp4686
sg62
g4671
sg55
(lp4687
g48
(g49
g50
NtRp4688
(dp4689
g53
(dp4690
g61
I5
ssg62
g4684
sg55
(lp4691
g3433
(S's\t\x00\x00\x00Adaptame!'
tRp4692
asbasbasbag48
(g64
g50
NtRp4693
(dp4694
g53
(dp4695
sg62
g2882
sg55
(lp4696
g48
(g69
g50
NtRp4697
(dp4698
g53
(dp4699
g73
g74
ssg62
g4693
sg55
(lp4700
S'title'
p4701
asbag48
(g69
g50
NtRp4702
(dp4703
g53
(dp4704
g80
g81
ssg62
g4693
sg55
(lp4705
S':'
asbag48
(g69
g50
NtRp4706
(dp4707
g53
(dp4708
sg62
g4693
sg55
(lp4709
g48
(g49
g50
NtRp4710
(dp4711
g53
(dp4712
g61
I5
ssg62
g4706
sg55
(lp4713
g113
asbasbasbag48
(g64
g50
NtRp4714
(dp4715
g53
(dp4716
sg62
g2882
sg55
(lp4717
g48
(g69
g50
NtRp4718
(dp4719
g53
(dp4720
g73
g74
ssg62
g4714
sg55
(lp4721
g1996
asbag48
(g69
g50
NtRp4722
(dp4723
g53
(dp4724
g80
g81
ssg62
g4714
sg55
(lp4725
S':'
asbag48
(g69
g50
NtRp4726
(dp4727
g53
(dp4728
sg62
g4714
sg55
(lp4729
g48
(g49
g50
NtRp4730
(dp4731
g53
(dp4732
g61
I5
ssg62
g4726
sg55
(lp4733
g2009
asbasbasbag48
(g64
g50
NtRp4734
(dp4735
g53
(dp4736
sg62
g2882
sg55
(lp4737
g48
(g69
g50
NtRp4738
(dp4739
g53
(dp4740
g73
g74
ssg62
g4734
sg55
(lp4741
S'view'
p4742
asbag48
(g69
g50
NtRp4743
(dp4744
g53
(dp4745
g80
g81
ssg62
g4734
sg55
(lp4746
S':'
asbag48
(g69
g50
NtRp4747
(dp4748
g53
(dp4749
sg62
g4734
sg55
(lp4750
g48
(g49
g50
NtRp4751
(dp4752
g53
(dp4753
g61
I5
ssg62
g4747
sg55
(lp4754
S'default/entrada_bien.html'
p4755
asbasbasbasbasbsS'locals'
p4756
(dp4757
S'OBJECT'
p4758
S"<class 'gluon.html.OBJECT'>"
p4759
sS'_file'
p4760
S"'/Desglosar_Emails/static/js/superfish.js'"
p4761
sS'SQLDB'
p4762
S"<class 'gluon.dal.DAL'>"
p4763
sg2842
S'<Storage {\'_formkey[info4/create]\': \'0d29e2cd-72...\\xc8"n\\x1e\\xb4$\\xf3(\\x97V3\\xb3\\xf1\\xbb\\xa9\\xc0\'}>'
p4764
sS'LINK'
p4765
S"<class 'gluon.html.LINK'>"
p4766
sS'BR'
p4767
S"<class 'gluon.html.BR'>"
p4768
sS'local_import'
p4769
S'<function <lambda> at 0x075B1B30>'
p4770
sS'OPTGROUP'
p4771
S"<class 'gluon.html.OPTGROUP'>"
p4772
sS'PRE'
p4773
S"<class 'gluon.html.PRE'>"
p4774
sS'IS_INT_IN_RANGE'
p4775
S"<class 'gluon.validators.IS_INT_IN_RANGE'>"
p4776
sS'left_sidebar_enabled'
p4777
g91
sS'IS_LOWER'
p4778
S"<class 'gluon.validators.IS_LOWER'>"
p4779
sS'IS_STRONG'
p4780
S"<class 'gluon.validators.IS_STRONG'>"
p4781
sS'cache'
p4782
S'<gluon.cache.Cache object at 0x07500DD0>'
p4783
sS'IS_IN_DB'
p4784
S"<class 'gluon.validators.IS_IN_DB'>"
p4785
sS'TAG'
p4786
S'<gluon.html.__TAG__ object at 0x02960770>'
p4787
sS'_k'
p4788
S'5'
sS'SQLField'
p4789
S"<class 'gluon.dal.Field'>"
p4790
sS'BODY'
p4791
S"<class 'gluon.html.BODY'>"
p4792
sS'IS_DATE_IN_RANGE'
p4793
S"<class 'gluon.validators.IS_DATE_IN_RANGE'>"
p4794
sS'TH'
p4795
S"<class 'gluon.html.TH'>"
p4796
sS'URL'
p4797
S'<function URL at 0x029B7870>'
p4798
sS'__file__'
p4799
S"r'C:\\Users\\Atomico\\web2py\\applications\\Desglosar_Emails\\views\\default/entrada_bien.html'"
p4800
sS'db'
p4801
S"<DAL {'persona': <Table {'ALL': <gluon.dal.SQLAL...ing_references': {}, '_uri': 'sqlite://mydb.db'}>"
p4802
sS'P'
S"<class 'gluon.html.P'>"
p4803
sS'TFOOT'
p4804
S"<class 'gluon.html.TFOOT'>"
p4805
sS'XHTML'
p4806
S"<class 'gluon.html.XHTML'>"
p4807
sS'patternemail'
p4808
S'<_sre.SRE_Pattern object at 0x06AB1368>'
p4809
sS'ON'
p4810
g1629
sS'OL'
p4811
S"<class 'gluon.html.OL'>"
p4812
sS'TEXTAREA'
p4813
S"<class 'gluon.html.TEXTAREA'>"
p4814
sS'MENU'
p4815
S"<class 'gluon.html.MENU'>"
p4816
sS'_file0'
p4817
S"'/desglosar_emails/static/js/superfish.js'"
p4818
sS'LOAD'
p4819
S'<gluon.compileapp.LoadFactory object at 0x07500A90>'
p4820
sS'CODE'
p4821
S"<class 'gluon.html.CODE'>"
p4822
sS'HTTP'
p4823
S"<class 'gluon.http.HTTP'>"
p4824
sS'HR'
p4825
S"<class 'gluon.html.HR'>"
p4826
sS'IS_DATETIME'
p4827
S"<class 'gluon.validators.IS_DATETIME'>"
p4828
sS'HEAD'
p4829
S"<class 'gluon.html.HEAD'>"
p4830
sS'LABEL'
p4831
S"<class 'gluon.html.LABEL'>"
p4832
sS'CLEANUP'
p4833
S"<class 'gluon.validators.CLEANUP'>"
p4834
sS'SELECT'
p4835
S"<class 'gluon.html.SELECT'>"
p4836
sS'CENTER'
p4837
S"<class 'gluon.html.CENTER'>"
p4838
sS'left_sidebar_style'
p4839
S'\'style="display: none;"\''
p4840
sS'pattern'
p4841
S'<_sre.SRE_Pattern object at 0x06AA92A0>'
p4842
sS'__builtins__'
p4843
S"{'ArithmeticError': <type 'exceptions.ArithmeticError'>, 'AssertionError': <type 'exceptions.AssertionError'>, 'AttributeError': <type 'exceptions.AttributeError'>, 'BaseException': <type 'exceptions.BaseException'>, 'DeprecationWarning': <type 'exceptions.DeprecationWarning'>, 'EOFError': <type 'exceptions.EOFError'>, 'Ellipsis': Ellipsis, 'EnvironmentError': <type 'exceptions.EnvironmentError'>, 'Exception': <type 'exceptions.Exception'>, 'False': False, ...}"
p4844
sS'IS_LIST_OF'
p4845
S"<class 'gluon.validators.IS_LIST_OF'>"
p4846
sS'SQLFORM'
p4847
S"<class 'gluon.sqlhtml.SQLFORM'>"
p4848
sS'_item'
p4849
S"'author'"
p4850
sS'EM'
p4851
S"<class 'gluon.html.EM'>"
p4852
sS'redirect'
p4853
S'<function redirect at 0x026A33B0>'
p4854
sS'FIELDSET'
p4855
S"<class 'gluon.html.FIELDSET'>"
p4856
sS'IS_EQUAL_TO'
p4857
S"<class 'gluon.validators.IS_EQUAL_TO'>"
p4858
sS'embed64'
p4859
S'<function embed64 at 0x029BB3B0>'
p4860
sS'INPUT'
p4861
S"<class 'gluon.html.INPUT'>"
p4862
sS'EMBED'
p4863
S"<class 'gluon.html.EMBED'>"
p4864
sS'FORM'
p4865
S"<class 'gluon.html.FORM'>"
p4866
sS'width_content'
p4867
S"'100%'"
p4868
sS'H2'
p4869
S"<class 'gluon.html.H2'>"
p4870
sS'H3'
p4871
S"<class 'gluon.html.H3'>"
p4872
sS'BUTTON'
p4873
S"<class 'gluon.html.BUTTON'>"
p4874
sS'H1'
p4875
S"<class 'gluon.html.H1'>"
p4876
sS'H6'
p4877
S"<class 'gluon.html.H6'>"
p4878
sS'H4'
p4879
S"<class 'gluon.html.H4'>"
p4880
sS'H5'
p4881
S"<class 'gluon.html.H5'>"
p4882
sS'cadena'
p4883
S"' db select db.contactos.ALL lista'"
p4884
sS'UL'
p4885
S"<class 'gluon.html.UL'>"
p4886
sS'bol'
p4887
S"'False'"
p4888
sS'IS_UPPER'
p4889
S"<class 'gluon.validators.IS_UPPER'>"
p4890
sS'xmlescape'
p4891
S'<function xmlescape at 0x029B7830>'
p4892
sS'IS_TIME'
p4893
S"<class 'gluon.validators.IS_TIME'>"
p4894
sS'OPTION'
p4895
S"<class 'gluon.html.OPTION'>"
p4896
sS'TITLE'
p4897
S"<class 'gluon.html.TITLE'>"
p4898
sS'CRYPT'
p4899
S"<class 'gluon.validators.CRYPT'>"
p4900
sS'IS_EMPTY_OR'
p4901
S"<class 'gluon.validators.IS_EMPTY_OR'>"
p4902
sS'MARKMIN'
p4903
S"<class 'gluon.html.MARKMIN'>"
p4904
sS'txt'
p4905
S'"{{extend \'layout.html\'}} <h1>Esta es la plantill...to.com db().select(db.contactos.ALL) }}{{=lista}}"'
p4906
sS'SCRIPT'
p4907
S"<class 'gluon.html.SCRIPT'>"
p4908
sS'textual'
p4909
S"<Row {'update_record': <function <lambda> at 0x0...com db().select(db.contactos.ALL) }}{{=lista}}'}>"
p4910
sS'TABLE'
p4911
S"<class 'gluon.html.TABLE'>"
p4912
sS'IS_IPV4'
p4913
S"<class 'gluon.validators.IS_IPV4'>"
p4914
sS'IS_LENGTH'
p4915
S"<class 'gluon.validators.IS_LENGTH'>"
p4916
sS'XML'
p4917
S"<class 'gluon.html.XML'>"
p4918
sS'B'
S"<class 'gluon.html.B'>"
p4919
sS'form'
p4920
S'<gluon.sqlhtml.SQLFORM object at 0x06DA4450>'
p4921
sS'SQLTABLE'
p4922
S"<class 'gluon.sqlhtml.SQLTABLE'>"
p4923
sS'IS_MATCH'
p4924
S"<class 'gluon.validators.IS_MATCH'>"
p4925
sS'IS_ALPHANUMERIC'
p4926
S"<class 'gluon.validators.IS_ALPHANUMERIC'>"
p4927
sS'SPAN'
p4928
S"<class 'gluon.html.SPAN'>"
p4929
sS'IS_SLUG'
p4930
S"<class 'gluon.validators.IS_SLUG'>"
p4931
sS'BEAUTIFY'
p4932
S"<class 'gluon.html.BEAUTIFY'>"
p4933
sS'META'
p4934
S"<class 'gluon.html.META'>"
p4935
sS'IS_DATE'
p4936
S"<class 'gluon.validators.IS_DATE'>"
p4937
sS'IS_EMAIL'
p4938
S"<class 'gluon.validators.IS_EMAIL'>"
p4939
sS'IS_NOT_EMPTY'
p4940
S"<class 'gluon.validators.IS_NOT_EMPTY'>"
p4941
sg47
S"<Storage {'is_local': True, 'function': 'entrada....14-11-33.299bbb57-acd5-44bd-8e78-4a53be7d7820'}>"
p4942
sS'TBODY'
p4943
S"<class 'gluon.html.TBODY'>"
p4944
sS'CAT'
p4945
S"<class 'gluon.html.CAT'>"
p4946
sS'Field'
p4947
S"<class 'gluon.dal.Field'>"
p4948
sS'DIV'
p4949
S"<class 'gluon.html.DIV'>"
p4950
sS'LEGEND'
p4951
S"<class 'gluon.html.LEGEND'>"
p4952
sS'IMG'
p4953
S"<class 'gluon.html.IMG'>"
p4954
sS'DAL'
p4955
S"<class 'gluon.dal.DAL'>"
p4956
sS'TT'
p4957
S"<class 'gluon.html.TT'>"
p4958
sS'TR'
p4959
S"<class 'gluon.html.TR'>"
p4960
sS'LI'
p4961
S"<class 'gluon.html.LI'>"
p4962
sS'right_sidebar_enabled'
p4963
g91
sS'res2'
p4964
S"['@bacalao.com', '@berto.com']"
p4965
sS'IFRAME'
p4966
S"<class 'gluon.html.IFRAME'>"
p4967
sS'TD'
p4968
S"<class 'gluon.html.TD'>"
p4969
sS'IS_URL'
p4970
S"<class 'gluon.validators.IS_URL'>"
p4971
sS'A'
S"<class 'gluon.html.A'>"
p4972
sS'STYLE'
p4973
S"<class 'gluon.html.STYLE'>"
p4974
sS'IS_DATETIME_IN_RANGE'
p4975
S"<class 'gluon.validators.IS_DATETIME_IN_RANGE'>"
p4976
sS'HTML'
p4977
S"<class 'gluon.html.HTML'>"
p4978
sS'IS_IMAGE'
p4979
S"<class 'gluon.validators.IS_IMAGE'>"
p4980
sS'I'
S"<class 'gluon.html.I'>"
p4981
sS'right_sidebar_style'
p4982
S'\'style="display: none;"\''
p4983
sS'IS_NOT_IN_DB'
p4984
S"<class 'gluon.validators.IS_NOT_IN_DB'>"
p4985
sg2877
S"<Storage {'body': <cStringIO.StringO object at 0...x075B1BB0>, 'view': 'default/entrada_bien.html'}>"
p4986
sS'THEAD'
p4987
S"<class 'gluon.html.THEAD'>"
p4988
sS'IS_NULL_OR'
p4989
S"<class 'gluon.validators.IS_EMPTY_OR'>"
p4990
sS'i'
S'157'
p4991
sS'IS_FLOAT_IN_RANGE'
p4992
S"<class 'gluon.validators.IS_FLOAT_IN_RANGE'>"
p4993
sS'IS_EXPR'
p4994
S"<class 'gluon.validators.IS_EXPR'>"
p4995
sS'T'
S'<gluon.languages.translator object at 0x07500DF0>'
p4996
sS'IS_IN_SET'
p4997
S"<class 'gluon.validators.IS_IN_SET'>"
p4998
sS'IS_UPLOAD_FILENAME'
p4999
S"<class 'gluon.validators.IS_UPLOAD_FILENAME'>"
p5000
sS'res'
p5001
S"['extend', 'layout.html', 'h1', 'Esta', 'es', 'la', 'plantilla', 'default', 'entrada_mod3.html', 'h1', 'h2', 'Formulario', 'h2', 'form', 'br', 'h3', 'Tratamientos', 'h3', 'andres@bacalao.com', 'textual', ...]"
p5002
sS'style_content'
p5003
S'\'style="width: 100%"\''
p5004
sS're'
p5005
S"<module 're' from 'C:\\Users\\Atomico\\web2py\\library.zip\\re.pyc'>"
p5006
sS'IS_DECIMAL_IN_RANGE'
p5007
S"<class 'gluon.validators.IS_DECIMAL_IN_RANGE'>"
p5008
sssS'traceback'
p5009
S'Traceback (most recent call last):\n  File "gluon/restricted.py", line 192, in restricted\n  File "C:\\Users\\Atomico\\web2py\\applications\\Desglosar_Emails\\views\\default/entrada_bien.html", line 129, in <module>\nIndexError: list index out of range\n'
p5010
s.