(dp1
S'output'
p2
S''
sS'layer'
p3
S'C:\\Users\\Atomico\\web2py\\applications\\Desglosar_Emails\\views\\default/entrada_mod3.html'
p4
sS'code'
p5
S'response.write(\'<!DOCTYPE html>\\n<html lang="\', escape=False)\nresponse.write(T.accepted_language or \'en\')\nresponse.write(\'" class="no-js"><!-- no-js need it for modernzr -->\\n  <head>\\n    \\n    <meta charset="utf-8" />\\t  \\t\\n    <!-- www.phpied.com/conditional-comments-block-downloads/ -->\\n    <!--[if IE]><![endif]-->    \\n    <!-- Always force latest IE rendering engine \\n\\t (even in intranet) & Chrome Frame \\n\\t Remove this if you use the .htaccess -->\\n    <meta http-equiv="X-UA-Compatible" content="IE=edge,chrome=1">\\n    \\n    <title>\', escape=False)\nresponse.write(response.title or request.application)\nresponse.write(\'</title>\\n    \\n    <!-- http://dev.w3.org/html5/markup/meta.name.html -->\\n    <meta name="application-name" content="\', escape=False)\nresponse.write(request.application)\nresponse.write(\'" />\\t\\n    \\n    <!-- Speaking of Google, don\\\'t forget to set your site up: \\n\\t http://google.com/webmasters -->\\n    <meta name="google-site-verification" content="" />\\n    \\n    <!--  Mobile Viewport Fix\\n\\t  j.mp/mobileviewport & davidbcalhoun.com/2010/viewport-metatag \\n\\t  device-width: Occupy full width of the screen in its current orientation\\n\\t  initial-scale = 1.0 retains dimensions instead of zooming out if page height > device height\\n\\t  maximum-scale = 1.0 retains dimensions instead of zooming in if page width < device width\\n      -->\\n    <meta name="viewport" content="width=device-width, initial-scale=1.0, maximum-scale=1.0">\\n    \\n    <!-- Place favicon.ico and apple-touch-icon.png in the root of your domain and delete these references -->\\n    <link rel="shortcut icon" href="\', escape=False)\nresponse.write(URL(\'static\',\'favicon.ico\'))\nresponse.write(\'" type="image/x-icon">\\n    <link rel="apple-touch-icon" href="\', escape=False)\nresponse.write(URL(\'static\',\'favicon.png\'))\nresponse.write(\'">\\n\\n    <!-- For the less-enabled mobile browsers like Opera Mini -->\\n    <link rel="stylesheet" media="handheld" href="\', escape=False)\nresponse.write(URL(\'static\',\'css/handheld.css\'))\nresponse.write(\'">\\n    \\n    <!-- All JavaScript at the bottom, except for Modernizr which enables HTML5 elements & feature detects -->\\n    <script src="\', escape=False)\nresponse.write(URL(\'static\',\'js/modernizr-1.7.min.js\'))\nresponse.write(\'"></script>\\n    \\n    \', escape=False)\n#------  require CSS and JS files for this page (read info in base.css) ------\nresponse.write(\'\\n    \', escape=False)\nresponse.files.append(URL(\'static\',\'css/base.css\'))\nresponse.write(\'\\n    \', escape=False)\nresponse.files.append(URL(\'static\',\'css/superfish.css\'))\nresponse.write(\'\\n    \', escape=False)\nresponse.files.append(URL(\'static\',\'js/superfish.js\'))\nresponse.write(\'\\n    \', escape=False)\n#------ include web2py specific js code (jquery, calendar, form stuff) ------\nresponse.write(\'\\n    \', escape=False)\nresponse.files.insert(0,URL(\'static\',\'js/jquery.js\'))\nresponse.files.insert(1,URL(\'static\',\'css/calendar.css\'))\nresponse.files.insert(2,URL(\'static\',\'js/calendar.js\'))\nfor _item in response.meta or []:\n    response.write(\'\\n     <meta name="\', escape=False)\n    response.write(_item)\n    response.write(\'" content="\', escape=False)\n    response.write(response.meta[_item])\n    response.write(\'" />\', escape=False)\n    pass\nfor _k,_file in enumerate(response.files or []):\n    if _file in response.files[:_k]:\n        continue\n    _file0=_file.lower().split(\'?\')[0]\n    if _file0.endswith(\'.css\'):\n        response.write(\'\\n     <link href="\', escape=False)\n        response.write(_file)\n        response.write(\'" rel="stylesheet" type="text/css" />\', escape=False)\n    elif _file0.endswith(\'.js\'):\n        response.write(\'\\n     <script src="\', escape=False)\n        response.write(_file)\n        response.write(\'" type="text/javascript"></script>\', escape=False)\n        pass\n    pass\nresponse.write(\'\\n    <script type="text/javascript"><!--\\n    // These variables are used by the web2py_ajax_init function in web2py_ajax.js (which is loaded below).\\n    var w2p_ajax_confirm_message = "\', escape=False)\nresponse.write(T(\'Are you sure you want to delete this object?\'))\nresponse.write(\'";\\n    var w2p_ajax_date_format = "\', escape=False)\nresponse.write(T(\'%Y-%m-%d\'))\nresponse.write(\'";\\n    var w2p_ajax_datetime_format = "\', escape=False)\nresponse.write(T(\'%Y-%m-%d %H:%M:%S\'))\nresponse.write(\'";\\n    //--></script>\\n    <script src="\', escape=False)\nresponse.write(URL(\'static\',\'js/web2py_ajax.js\'))\nresponse.write(\'" type="text/javascript"></script>\\n\', escape=False)\nresponse.write(\'\\n\\n    \', escape=False)\n#using sidebars need to know what sidebar you want to use\n#prior of using it, because of static width size of content, you can use\n#left_sidebar, right_sidebar, both or none (False left and right)\nleft_sidebar_enabled = globals().get(\'left_sidebar_enabled\',False)\nright_sidebar_enabled = globals().get(\'right_sidebar_enabled\',False)\nif left_sidebar_enabled and right_sidebar_enabled: width_content=\'63%\'\nelif left_sidebar_enabled != right_sidebar_enabled: width_content=\'740px\'\nelse: width_content=\'100%\'\nif left_sidebar_enabled: left_sidebar_style = \'style="display: block;"\'\nelse: left_sidebar_style = \'style="display: none;"\'\nif right_sidebar_enabled: right_sidebar_style = \'style="display: block;"\'\nelse: right_sidebar_style = \'style="display: none;"\'\nstyle_content = \'style="width: %s"\' % width_content\nresponse.write(\'\\n  </head>\\n  \\n  <!-- paulirish.com/2008/conditional-stylesheets-vs-css-hacks-answer-neither/ -->\\t\\n  <!--[if lt IE 7 ]> <body class="ie6"> <![endif]-->\\n  <!--[if IE 7 ]>    <body class="ie7"> <![endif]-->\\n  <!--[if IE 8 ]>    <body class="ie8"> <![endif]-->\\n  <!--[if IE 9 ]>    <body class="ie9"> <![endif]-->\\n  <!--[if (gt IE 9)|!(IE)]><!--> <body> <!--<![endif]-->\\n    \\n    <div class="flash">\', escape=False)\nresponse.write(response.flash or \'\')\nresponse.write(\'</div> <!-- notification div -->\\n    \\n    <div id="container">\\t      \\t\\t      \\t\\n      \\n      <div id="wrapper">\\t\\t\\n\\t\\n\\t<div id="header"> <!-- header and login nav -->\\n\\t  \', escape=False)\nresponse.write(\' <!-- this is default header -->\\n\\t  \', escape=False)\ntry:\n    response.write(auth.navbar(action=URL(\'default\',\'user\')))\nexcept:pass\nresponse.write(\'\\t\\t          \\n\\t  <h1><span id="appname">\', escape=False)\nresponse.write(request.application.capitalize())\nresponse.write(\'</span>App</h1>\\n\\t  <div style="clear: both;"></div><!-- Clear the divs -->\\n\\t  \', escape=False)\nresponse.write(\'\\t\\t\\t\\t  \\t\\t\\t\\t\\t  \\n\\t</div><!-- header  -->\\n\\t\\n\\t<div id="statusbar"><!-- statusbar is menu zone -->\\n\\t  \', escape=False)\nresponse.write(\' <!-- this is default statusbar -->\\n\\t  \', escape=False)\n#------ superfish menu ------\nresponse.write(\'\\n\\t  \', escape=False)\nresponse.write(MENU(response.menu,_class=\'sf-menu\'))\nresponse.write(\'\\n\\t  <script type="text/javascript">\\n\\t    jQuery(document).ready(function(){\\n\\t    jQuery(\\\'ul.sf-menu\\\').superfish();});\\n\\t  </script>\\n\\t  <div style="clear: both;"></div><!-- Clear the divs -->\\t\\n\\t  \', escape=False)\nresponse.write(\'\\t\\t\\t\\t\\n\\t</div><!-- statusbar -->\\n\\t\\n\\t<div id="page"> <!-- Here my central body -->\\t  \\n\\n\\t  \', escape=False)\nif left_sidebar_enabled:\n    response.write(\'\\n          <div id="left_sidebar" \', escape=False)\n    response.write(XML(left_sidebar_style))\n    response.write(\' >\\n            <div style="padding: 4px;">\\n\\t      \', escape=False)\n    response.write(\'Content Left Sidebar\', escape=False)\n    response.write(\'\\t\\t  \\n            </div>\\n          </div><!-- left_sidebar -->\\n\\t  \', escape=False)\n    pass\nresponse.write(\'\\n\\n\\t  <!-- content -->\\n\\t  <div id="content" \', escape=False)\nresponse.write(XML(style_content))\nresponse.write(\' >\\n\\t    \', escape=False)\nresponse.write(\'\\r\\n<h1>Esta es la plantilla default/entrada_mod3.html</h1>\\r\\n<h2>Formulario</h2>\\r\\n\', escape=False)\nresponse.write(form)\nresponse.write(\'\\r\\n<br/>\\r\\n<h3>Tratamientos</h3>\\r\\n\', escape=False)\ntextual=db(db.info4.id==1).select()[0]\ntxt=textual.texto\nimport re\npattern=re.compile("\\w+[.@&-_\\w]*")\npatternemail=re.compile("@\\w+\\.[.\\w]+")\nres=pattern.findall(txt)\nres2=patternemail.findall(txt)\nfor i in res: response.write (i+\'    \')\nresponse.write(\'En total son \', escape=False)\nresponse.write(len(res))\nresponse.write(\' nombres sueltos <br/> \', escape=False)\nfor i in res2: response.write(i+\'    \')\nresponse.write(\'En total son \', escape=False)\nresponse.write(len(res2))\nresponse.write(\' conf de emails sueltos <br/> \', escape=False)\ni=0\nwhile i<len(res):\n    if patternemail.search(res[i]):\n        bol=\'True\'\n    else:\n        bol=\'False\'\n        pass\n    response.write(\'<br> i es: \'+str(i)+\' y patternemail para la palabra \'+res[i]+\' es \'+bol ,escape=False)\n    if not patternemail.search(res[i]):\n        cadena=\'\'\n        while not patternemail.search(res[i]):\n            cadena=cadena+res[i]\n            i=i+1\n            pass\n        db.contactos.insert(nombre=cadena,email=res[i])\n        i=i+1\n    else:\n        db.contactos.insert(email=res[i])\n        i=i+1\n        pass\n    pass\nresponse.write(\'\\r\\n\', escape=False)\nlista=db().select(db.contactos.ALL)\nresponse.write(lista)\nresponse.write(\'\\r\\n\', escape=False)\nresponse.write(\'\\t\\n\\t  </div>\\n\\t  <!-- content -->\\n\\n\\t  \', escape=False)\nif right_sidebar_enabled:\n    response.write(\'\\n          <div id="right_sidebar" \', escape=False)\n    response.write(XML(right_sidebar_style))\n    response.write(\' >\\n            <div style="padding: 4px;">\\n              \', escape=False)\n    response.write(\'Content Right Sidebar\', escape=False)\n    response.write(\'\\n            </div>\\n\\t  </div><!-- right_sidebar -->\\n          \', escape=False)\n    pass\nresponse.write(\'\\n\\n\\n\\t  <div style="clear: both;"></div><!-- Clear the divs -->\\n\\t  \\n\\t</div><!-- page -->\\t\\t\\t\\t\\t\\t\\t\\n\\t\\n\\t<div id="footer">\\n\\t  \', escape=False)\nresponse.write(\' <!-- this is default footer -->\\n\\t  <a href="http://www.web2py.com/" style="float: left; padding-right: 6px;">\\n\\t    <img src="\', escape=False)\nresponse.write(URL(\'static\',\'images/poweredby.png\'))\nresponse.write(\'"/>\\n\\t  </a>\\n\\t  \', escape=False)\nresponse.write(T(\'Copyright\'))\nresponse.write(\' &#169; 2010\\t\\t\\t\\t\\n\\t  <div style="clear: both;"></div><!-- Clear the divs -->\\n\\t  \', escape=False)\nresponse.write(\'\\n\\n\\t</div><!-- footer -->\\t\\t\\t\\n      </div><!-- wrapper -->\\n    </div><!-- container -->\\t\\t\\n    \\n    <!--[if lt IE 7 ]>\\n\\t<script src="\', escape=False)\nresponse.write(URL(\'static\',\'js/dd_belatedpng.js\'))\nresponse.write(\'"></script>\\n\\t<script> DD_belatedPNG.fix(\\\'img, .png_bg\\\'); //fix any <img> or .png_bg background-images </script>\\n\\t<![endif]-->\\n    \\n    <!-- asynchronous google analytics: mathiasbynens.be/notes/async-analytics-snippet \\n\\t change the UA-XXXXX-X to be your site\\\'s ID -->\\n    <!--   \\n\\t   <script>\\n\\t     var _gaq = [[\\\'_setAccount\\\', \\\'UA-XXXXX-X\\\'], [\\\'_trackPageview\\\']];\\n\\t     (function(d, t) {\\n\\t     var g = d.createElement(t),\\n\\t     s = d.getElementsByTagName(t)[0];\\n\\t     g.async = true;\\n\\t     g.src = \\\'//www.google-analytics.com/ga.js\\\';\\n\\t     s.parentNode.insertBefore(g, s);\\n\\t     })(document, \\\'script\\\');\\n\\t   </script>\\n\\t   -->    \\n  </body>\\n</html>\\n\', escape=False)'
p6
sS'snapshot'
p7
(dp8
S'exception'
p9
(dp10
S'__hash__'
p11
S"<method-wrapper '__hash__' of exceptions.IndexError object at 0x07F4E148>"
p12
sS'__setattr__'
p13
S"<method-wrapper '__setattr__' of exceptions.IndexError object at 0x07F4E148>"
p14
sS'__reduce_ex__'
p15
S'<built-in method __reduce_ex__ of exceptions.IndexError object at 0x07F4E148>'
p16
sS'__getslice__'
p17
S"<method-wrapper '__getslice__' of exceptions.IndexError object at 0x07F4E148>"
p18
sS'__getitem__'
p19
S"<method-wrapper '__getitem__' of exceptions.IndexError object at 0x07F4E148>"
p20
sS'__setstate__'
p21
S'<built-in method __setstate__ of exceptions.IndexError object at 0x07F4E148>'
p22
sS'__reduce__'
p23
S'<built-in method __reduce__ of exceptions.IndexError object at 0x07F4E148>'
p24
sS'__str__'
p25
S"<method-wrapper '__str__' of exceptions.IndexError object at 0x07F4E148>"
p26
sS'args'
p27
S"('list index out of range',)"
p28
sS'__getattribute__'
p29
S"<method-wrapper '__getattribute__' of exceptions.IndexError object at 0x07F4E148>"
p30
sS'__class__'
p31
S"<type 'exceptions.IndexError'>"
p32
sS'__delattr__'
p33
S"<method-wrapper '__delattr__' of exceptions.IndexError object at 0x07F4E148>"
p34
sS'__repr__'
p35
S"<method-wrapper '__repr__' of exceptions.IndexError object at 0x07F4E148>"
p36
sS'__dict__'
p37
S'{}'
p38
sS'__doc__'
p39
S"'Sequence index out of range.'"
p40
sS'__init__'
p41
S"<method-wrapper '__init__' of exceptions.IndexError object at 0x07F4E148>"
p42
sS'__new__'
p43
S'<built-in method __new__ of type object at 0x1E1CDEF0>'
p44
ssS'evalue'
p45
S'list index out of range'
p46
sS'request'
p47
ccopy_reg
_reconstructor
p48
(cgluon.html
BEAUTIFY
p49
c__builtin__
object
p50
NtRp51
(dp52
S'attributes'
p53
(dp54
sS'components'
p55
(lp56
g48
(cgluon.html
TABLE
p57
g50
NtRp58
(dp59
g53
(dp60
S'level'
p61
I5
ssS'parent'
p62
Nsg55
(lp63
g48
(cgluon.html
TR
p64
g50
NtRp65
(dp66
g53
(dp67
sg62
g58
sg55
(lp68
g48
(cgluon.html
TD
p69
g50
NtRp70
(dp71
g53
(dp72
S'_style'
p73
S'font-weight:bold;'
p74
ssg62
g65
sg55
(lp75
S'ajax'
p76
asbag48
(g69
g50
NtRp77
(dp78
g53
(dp79
S'_valign'
p80
S'top'
p81
ssg62
g65
sg55
(lp82
S':'
asbag48
(g69
g50
NtRp83
(dp84
g53
(dp85
sg62
g65
sg55
(lp86
g48
(g49
g50
NtRp87
(dp88
g53
(dp89
g61
I5
ssg62
g83
sg55
(lp90
S'False'
p91
asbasbasbag48
(g64
g50
NtRp92
(dp93
g53
(dp94
sg62
g58
sg55
(lp95
g48
(g69
g50
NtRp96
(dp97
g53
(dp98
g73
g74
ssg62
g92
sg55
(lp99
S'application'
p100
asbag48
(g69
g50
NtRp101
(dp102
g53
(dp103
g80
g81
ssg62
g92
sg55
(lp104
S':'
asbag48
(g69
g50
NtRp105
(dp106
g53
(dp107
sg62
g92
sg55
(lp108
g48
(g49
g50
NtRp109
(dp110
g53
(dp111
g61
I5
ssg62
g105
sg55
(lp112
S'Desglosar_Emails'
p113
asbasbasbag48
(g64
g50
NtRp114
(dp115
g53
(dp116
sg62
g58
sg55
(lp117
g48
(g69
g50
NtRp118
(dp119
g53
(dp120
g73
g74
ssg62
g114
sg55
(lp121
g27
asbag48
(g69
g50
NtRp122
(dp123
g53
(dp124
g80
g81
ssg62
g114
sg55
(lp125
S':'
asbag48
(g69
g50
NtRp126
(dp127
g53
(dp128
sg62
g114
sg55
(lp129
g48
(g49
g50
NtRp130
(dp131
g53
(dp132
g61
I5
ssg62
g126
sg55
(lp133
g48
(g57
g50
NtRp134
(dp135
g53
(dp136
g61
I4
ssg62
Nsg55
(lp137
sbasbasbasbag48
(g64
g50
NtRp138
(dp139
g53
(dp140
sg62
g58
sg55
(lp141
g48
(g69
g50
NtRp142
(dp143
g53
(dp144
g73
g74
ssg62
g138
sg55
(lp145
S'body'
p146
asbag48
(g69
g50
NtRp147
(dp148
g53
(dp149
g80
g81
ssg62
g138
sg55
(lp150
S':'
asbag48
(g69
g50
NtRp151
(dp152
g53
(dp153
sg62
g138
sg55
(lp154
g48
(g49
g50
NtRp155
(dp156
g53
(dp157
g61
I5
ssg62
g151
sg55
(lp158
S'<cStringIO.StringO object at 0x08148E60>'
p159
asbasbasbag48
(g64
g50
NtRp160
(dp161
g53
(dp162
sg62
g58
sg55
(lp163
g48
(g69
g50
NtRp164
(dp165
g53
(dp166
g73
g74
ssg62
g160
sg55
(lp167
S'client'
p168
asbag48
(g69
g50
NtRp169
(dp170
g53
(dp171
g80
g81
ssg62
g160
sg55
(lp172
S':'
asbag48
(g69
g50
NtRp173
(dp174
g53
(dp175
sg62
g160
sg55
(lp176
g48
(g49
g50
NtRp177
(dp178
g53
(dp179
g61
I5
ssg62
g173
sg55
(lp180
S'127.0.0.1'
p181
asbasbasbag48
(g64
g50
NtRp182
(dp183
g53
(dp184
sg62
g58
sg55
(lp185
g48
(g69
g50
NtRp186
(dp187
g53
(dp188
g73
g74
ssg62
g182
sg55
(lp189
S'controller'
p190
asbag48
(g69
g50
NtRp191
(dp192
g53
(dp193
g80
g81
ssg62
g182
sg55
(lp194
S':'
asbag48
(g69
g50
NtRp195
(dp196
g53
(dp197
sg62
g182
sg55
(lp198
g48
(g49
g50
NtRp199
(dp200
g53
(dp201
g61
I5
ssg62
g195
sg55
(lp202
S'default'
p203
asbasbasbag48
(g64
g50
NtRp204
(dp205
g53
(dp206
sg62
g58
sg55
(lp207
g48
(g69
g50
NtRp208
(dp209
g53
(dp210
g73
g74
ssg62
g204
sg55
(lp211
S'cookies'
p212
asbag48
(g69
g50
NtRp213
(dp214
g53
(dp215
g80
g81
ssg62
g204
sg55
(lp216
S':'
asbag48
(g69
g50
NtRp217
(dp218
g53
(dp219
sg62
g204
sg55
(lp220
g48
(g49
g50
NtRp221
(dp222
g53
(dp223
g61
I5
ssg62
g217
sg55
(lp224
g48
(g57
g50
NtRp225
(dp226
g53
(dp227
g61
I4
ssg62
Nsg55
(lp228
g48
(g64
g50
NtRp229
(dp230
g53
(dp231
sg62
g225
sg55
(lp232
g48
(g69
g50
NtRp233
(dp234
g53
(dp235
g73
g74
ssg62
g229
sg55
(lp236
S'session_id_admin'
p237
asbag48
(g69
g50
NtRp238
(dp239
g53
(dp240
g80
g81
ssg62
g229
sg55
(lp241
S':'
asbag48
(g69
g50
NtRp242
(dp243
g53
(dp244
sg62
g229
sg55
(lp245
g48
(g49
g50
NtRp246
(dp247
g53
(dp248
g61
I4
ssg62
g242
sg55
(lp249
g48
(g57
g50
NtRp250
(dp251
g53
(dp252
g61
I3
ssg62
Nsg55
(lp253
g48
(g64
g50
NtRp254
(dp255
g53
(dp256
sg62
g250
sg55
(lp257
g48
(g69
g50
NtRp258
(dp259
g53
(dp260
g73
g74
ssg62
g254
sg55
(lp261
S'comment'
p262
asbag48
(g69
g50
NtRp263
(dp264
g53
(dp265
g80
g81
ssg62
g254
sg55
(lp266
S':'
asbag48
(g69
g50
NtRp267
(dp268
g53
(dp269
sg62
g254
sg55
(lp270
g48
(g49
g50
NtRp271
(dp272
g53
(dp273
g61
I3
ssg62
g267
sg55
(lp274
S''
asbasbasbag48
(g64
g50
NtRp275
(dp276
g53
(dp277
sg62
g250
sg55
(lp278
g48
(g69
g50
NtRp279
(dp280
g53
(dp281
g73
g74
ssg62
g275
sg55
(lp282
S'domain'
p283
asbag48
(g69
g50
NtRp284
(dp285
g53
(dp286
g80
g81
ssg62
g275
sg55
(lp287
S':'
asbag48
(g69
g50
NtRp288
(dp289
g53
(dp290
sg62
g275
sg55
(lp291
g48
(g49
g50
NtRp292
(dp293
g53
(dp294
g61
I3
ssg62
g288
sg55
(lp295
S''
asbasbasbag48
(g64
g50
NtRp296
(dp297
g53
(dp298
sg62
g250
sg55
(lp299
g48
(g69
g50
NtRp300
(dp301
g53
(dp302
g73
g74
ssg62
g296
sg55
(lp303
S'expires'
p304
asbag48
(g69
g50
NtRp305
(dp306
g53
(dp307
g80
g81
ssg62
g296
sg55
(lp308
S':'
asbag48
(g69
g50
NtRp309
(dp310
g53
(dp311
sg62
g296
sg55
(lp312
g48
(g49
g50
NtRp313
(dp314
g53
(dp315
g61
I3
ssg62
g309
sg55
(lp316
S''
asbasbasbag48
(g64
g50
NtRp317
(dp318
g53
(dp319
sg62
g250
sg55
(lp320
g48
(g69
g50
NtRp321
(dp322
g53
(dp323
g73
g74
ssg62
g317
sg55
(lp324
S'max-age'
p325
asbag48
(g69
g50
NtRp326
(dp327
g53
(dp328
g80
g81
ssg62
g317
sg55
(lp329
S':'
asbag48
(g69
g50
NtRp330
(dp331
g53
(dp332
sg62
g317
sg55
(lp333
g48
(g49
g50
NtRp334
(dp335
g53
(dp336
g61
I3
ssg62
g330
sg55
(lp337
S''
asbasbasbag48
(g64
g50
NtRp338
(dp339
g53
(dp340
sg62
g250
sg55
(lp341
g48
(g69
g50
NtRp342
(dp343
g53
(dp344
g73
g74
ssg62
g338
sg55
(lp345
S'path'
p346
asbag48
(g69
g50
NtRp347
(dp348
g53
(dp349
g80
g81
ssg62
g338
sg55
(lp350
S':'
asbag48
(g69
g50
NtRp351
(dp352
g53
(dp353
sg62
g338
sg55
(lp354
g48
(g49
g50
NtRp355
(dp356
g53
(dp357
g61
I3
ssg62
g351
sg55
(lp358
S''
asbasbasbag48
(g64
g50
NtRp359
(dp360
g53
(dp361
sg62
g250
sg55
(lp362
g48
(g69
g50
NtRp363
(dp364
g53
(dp365
g73
g74
ssg62
g359
sg55
(lp366
S'secure'
p367
asbag48
(g69
g50
NtRp368
(dp369
g53
(dp370
g80
g81
ssg62
g359
sg55
(lp371
S':'
asbag48
(g69
g50
NtRp372
(dp373
g53
(dp374
sg62
g359
sg55
(lp375
g48
(g49
g50
NtRp376
(dp377
g53
(dp378
g61
I3
ssg62
g372
sg55
(lp379
S''
asbasbasbag48
(g64
g50
NtRp380
(dp381
g53
(dp382
sg62
g250
sg55
(lp383
g48
(g69
g50
NtRp384
(dp385
g53
(dp386
g73
g74
ssg62
g380
sg55
(lp387
S'version'
p388
asbag48
(g69
g50
NtRp389
(dp390
g53
(dp391
g80
g81
ssg62
g380
sg55
(lp392
S':'
asbag48
(g69
g50
NtRp393
(dp394
g53
(dp395
sg62
g380
sg55
(lp396
g48
(g49
g50
NtRp397
(dp398
g53
(dp399
g61
I3
ssg62
g393
sg55
(lp400
S''
asbasbasbasbasbasbasbag48
(g64
g50
NtRp401
(dp402
g53
(dp403
sg62
g225
sg55
(lp404
g48
(g69
g50
NtRp405
(dp406
g53
(dp407
g73
g74
ssg62
g401
sg55
(lp408
S'session_id_borrar2'
p409
asbag48
(g69
g50
NtRp410
(dp411
g53
(dp412
g80
g81
ssg62
g401
sg55
(lp413
S':'
asbag48
(g69
g50
NtRp414
(dp415
g53
(dp416
sg62
g401
sg55
(lp417
g48
(g49
g50
NtRp418
(dp419
g53
(dp420
g61
I4
ssg62
g414
sg55
(lp421
g48
(g57
g50
NtRp422
(dp423
g53
(dp424
g61
I3
ssg62
Nsg55
(lp425
g48
(g64
g50
NtRp426
(dp427
g53
(dp428
sg62
g422
sg55
(lp429
g48
(g69
g50
NtRp430
(dp431
g53
(dp432
g73
g74
ssg62
g426
sg55
(lp433
g262
asbag48
(g69
g50
NtRp434
(dp435
g53
(dp436
g80
g81
ssg62
g426
sg55
(lp437
S':'
asbag48
(g69
g50
NtRp438
(dp439
g53
(dp440
sg62
g426
sg55
(lp441
g48
(g49
g50
NtRp442
(dp443
g53
(dp444
g61
I3
ssg62
g438
sg55
(lp445
S''
asbasbasbag48
(g64
g50
NtRp446
(dp447
g53
(dp448
sg62
g422
sg55
(lp449
g48
(g69
g50
NtRp450
(dp451
g53
(dp452
g73
g74
ssg62
g446
sg55
(lp453
g283
asbag48
(g69
g50
NtRp454
(dp455
g53
(dp456
g80
g81
ssg62
g446
sg55
(lp457
S':'
asbag48
(g69
g50
NtRp458
(dp459
g53
(dp460
sg62
g446
sg55
(lp461
g48
(g49
g50
NtRp462
(dp463
g53
(dp464
g61
I3
ssg62
g458
sg55
(lp465
S''
asbasbasbag48
(g64
g50
NtRp466
(dp467
g53
(dp468
sg62
g422
sg55
(lp469
g48
(g69
g50
NtRp470
(dp471
g53
(dp472
g73
g74
ssg62
g466
sg55
(lp473
g304
asbag48
(g69
g50
NtRp474
(dp475
g53
(dp476
g80
g81
ssg62
g466
sg55
(lp477
S':'
asbag48
(g69
g50
NtRp478
(dp479
g53
(dp480
sg62
g466
sg55
(lp481
g48
(g49
g50
NtRp482
(dp483
g53
(dp484
g61
I3
ssg62
g478
sg55
(lp485
S''
asbasbasbag48
(g64
g50
NtRp486
(dp487
g53
(dp488
sg62
g422
sg55
(lp489
g48
(g69
g50
NtRp490
(dp491
g53
(dp492
g73
g74
ssg62
g486
sg55
(lp493
g325
asbag48
(g69
g50
NtRp494
(dp495
g53
(dp496
g80
g81
ssg62
g486
sg55
(lp497
S':'
asbag48
(g69
g50
NtRp498
(dp499
g53
(dp500
sg62
g486
sg55
(lp501
g48
(g49
g50
NtRp502
(dp503
g53
(dp504
g61
I3
ssg62
g498
sg55
(lp505
S''
asbasbasbag48
(g64
g50
NtRp506
(dp507
g53
(dp508
sg62
g422
sg55
(lp509
g48
(g69
g50
NtRp510
(dp511
g53
(dp512
g73
g74
ssg62
g506
sg55
(lp513
g346
asbag48
(g69
g50
NtRp514
(dp515
g53
(dp516
g80
g81
ssg62
g506
sg55
(lp517
S':'
asbag48
(g69
g50
NtRp518
(dp519
g53
(dp520
sg62
g506
sg55
(lp521
g48
(g49
g50
NtRp522
(dp523
g53
(dp524
g61
I3
ssg62
g518
sg55
(lp525
S''
asbasbasbag48
(g64
g50
NtRp526
(dp527
g53
(dp528
sg62
g422
sg55
(lp529
g48
(g69
g50
NtRp530
(dp531
g53
(dp532
g73
g74
ssg62
g526
sg55
(lp533
g367
asbag48
(g69
g50
NtRp534
(dp535
g53
(dp536
g80
g81
ssg62
g526
sg55
(lp537
S':'
asbag48
(g69
g50
NtRp538
(dp539
g53
(dp540
sg62
g526
sg55
(lp541
g48
(g49
g50
NtRp542
(dp543
g53
(dp544
g61
I3
ssg62
g538
sg55
(lp545
S''
asbasbasbag48
(g64
g50
NtRp546
(dp547
g53
(dp548
sg62
g422
sg55
(lp549
g48
(g69
g50
NtRp550
(dp551
g53
(dp552
g73
g74
ssg62
g546
sg55
(lp553
g388
asbag48
(g69
g50
NtRp554
(dp555
g53
(dp556
g80
g81
ssg62
g546
sg55
(lp557
S':'
asbag48
(g69
g50
NtRp558
(dp559
g53
(dp560
sg62
g546
sg55
(lp561
g48
(g49
g50
NtRp562
(dp563
g53
(dp564
g61
I3
ssg62
g558
sg55
(lp565
S''
asbasbasbasbasbasbasbag48
(g64
g50
NtRp566
(dp567
g53
(dp568
sg62
g225
sg55
(lp569
g48
(g69
g50
NtRp570
(dp571
g53
(dp572
g73
g74
ssg62
g566
sg55
(lp573
S'session_id_desglosar_emails'
p574
asbag48
(g69
g50
NtRp575
(dp576
g53
(dp577
g80
g81
ssg62
g566
sg55
(lp578
S':'
asbag48
(g69
g50
NtRp579
(dp580
g53
(dp581
sg62
g566
sg55
(lp582
g48
(g49
g50
NtRp583
(dp584
g53
(dp585
g61
I4
ssg62
g579
sg55
(lp586
g48
(g57
g50
NtRp587
(dp588
g53
(dp589
g61
I3
ssg62
Nsg55
(lp590
g48
(g64
g50
NtRp591
(dp592
g53
(dp593
sg62
g587
sg55
(lp594
g48
(g69
g50
NtRp595
(dp596
g53
(dp597
g73
g74
ssg62
g591
sg55
(lp598
g262
asbag48
(g69
g50
NtRp599
(dp600
g53
(dp601
g80
g81
ssg62
g591
sg55
(lp602
S':'
asbag48
(g69
g50
NtRp603
(dp604
g53
(dp605
sg62
g591
sg55
(lp606
g48
(g49
g50
NtRp607
(dp608
g53
(dp609
g61
I3
ssg62
g603
sg55
(lp610
S''
asbasbasbag48
(g64
g50
NtRp611
(dp612
g53
(dp613
sg62
g587
sg55
(lp614
g48
(g69
g50
NtRp615
(dp616
g53
(dp617
g73
g74
ssg62
g611
sg55
(lp618
g283
asbag48
(g69
g50
NtRp619
(dp620
g53
(dp621
g80
g81
ssg62
g611
sg55
(lp622
S':'
asbag48
(g69
g50
NtRp623
(dp624
g53
(dp625
sg62
g611
sg55
(lp626
g48
(g49
g50
NtRp627
(dp628
g53
(dp629
g61
I3
ssg62
g623
sg55
(lp630
S''
asbasbasbag48
(g64
g50
NtRp631
(dp632
g53
(dp633
sg62
g587
sg55
(lp634
g48
(g69
g50
NtRp635
(dp636
g53
(dp637
g73
g74
ssg62
g631
sg55
(lp638
g304
asbag48
(g69
g50
NtRp639
(dp640
g53
(dp641
g80
g81
ssg62
g631
sg55
(lp642
S':'
asbag48
(g69
g50
NtRp643
(dp644
g53
(dp645
sg62
g631
sg55
(lp646
g48
(g49
g50
NtRp647
(dp648
g53
(dp649
g61
I3
ssg62
g643
sg55
(lp650
S''
asbasbasbag48
(g64
g50
NtRp651
(dp652
g53
(dp653
sg62
g587
sg55
(lp654
g48
(g69
g50
NtRp655
(dp656
g53
(dp657
g73
g74
ssg62
g651
sg55
(lp658
g325
asbag48
(g69
g50
NtRp659
(dp660
g53
(dp661
g80
g81
ssg62
g651
sg55
(lp662
S':'
asbag48
(g69
g50
NtRp663
(dp664
g53
(dp665
sg62
g651
sg55
(lp666
g48
(g49
g50
NtRp667
(dp668
g53
(dp669
g61
I3
ssg62
g663
sg55
(lp670
S''
asbasbasbag48
(g64
g50
NtRp671
(dp672
g53
(dp673
sg62
g587
sg55
(lp674
g48
(g69
g50
NtRp675
(dp676
g53
(dp677
g73
g74
ssg62
g671
sg55
(lp678
g346
asbag48
(g69
g50
NtRp679
(dp680
g53
(dp681
g80
g81
ssg62
g671
sg55
(lp682
S':'
asbag48
(g69
g50
NtRp683
(dp684
g53
(dp685
sg62
g671
sg55
(lp686
g48
(g49
g50
NtRp687
(dp688
g53
(dp689
g61
I3
ssg62
g683
sg55
(lp690
S''
asbasbasbag48
(g64
g50
NtRp691
(dp692
g53
(dp693
sg62
g587
sg55
(lp694
g48
(g69
g50
NtRp695
(dp696
g53
(dp697
g73
g74
ssg62
g691
sg55
(lp698
g367
asbag48
(g69
g50
NtRp699
(dp700
g53
(dp701
g80
g81
ssg62
g691
sg55
(lp702
S':'
asbag48
(g69
g50
NtRp703
(dp704
g53
(dp705
sg62
g691
sg55
(lp706
g48
(g49
g50
NtRp707
(dp708
g53
(dp709
g61
I3
ssg62
g703
sg55
(lp710
S''
asbasbasbag48
(g64
g50
NtRp711
(dp712
g53
(dp713
sg62
g587
sg55
(lp714
g48
(g69
g50
NtRp715
(dp716
g53
(dp717
g73
g74
ssg62
g711
sg55
(lp718
g388
asbag48
(g69
g50
NtRp719
(dp720
g53
(dp721
g80
g81
ssg62
g711
sg55
(lp722
S':'
asbag48
(g69
g50
NtRp723
(dp724
g53
(dp725
sg62
g711
sg55
(lp726
g48
(g49
g50
NtRp727
(dp728
g53
(dp729
g61
I3
ssg62
g723
sg55
(lp730
S''
asbasbasbasbasbasbasbag48
(g64
g50
NtRp731
(dp732
g53
(dp733
sg62
g225
sg55
(lp734
g48
(g69
g50
NtRp735
(dp736
g53
(dp737
g73
g74
ssg62
g731
sg55
(lp738
S'session_id_myappjav'
p739
asbag48
(g69
g50
NtRp740
(dp741
g53
(dp742
g80
g81
ssg62
g731
sg55
(lp743
S':'
asbag48
(g69
g50
NtRp744
(dp745
g53
(dp746
sg62
g731
sg55
(lp747
g48
(g49
g50
NtRp748
(dp749
g53
(dp750
g61
I4
ssg62
g744
sg55
(lp751
g48
(g57
g50
NtRp752
(dp753
g53
(dp754
g61
I3
ssg62
Nsg55
(lp755
g48
(g64
g50
NtRp756
(dp757
g53
(dp758
sg62
g752
sg55
(lp759
g48
(g69
g50
NtRp760
(dp761
g53
(dp762
g73
g74
ssg62
g756
sg55
(lp763
g262
asbag48
(g69
g50
NtRp764
(dp765
g53
(dp766
g80
g81
ssg62
g756
sg55
(lp767
S':'
asbag48
(g69
g50
NtRp768
(dp769
g53
(dp770
sg62
g756
sg55
(lp771
g48
(g49
g50
NtRp772
(dp773
g53
(dp774
g61
I3
ssg62
g768
sg55
(lp775
S''
asbasbasbag48
(g64
g50
NtRp776
(dp777
g53
(dp778
sg62
g752
sg55
(lp779
g48
(g69
g50
NtRp780
(dp781
g53
(dp782
g73
g74
ssg62
g776
sg55
(lp783
g283
asbag48
(g69
g50
NtRp784
(dp785
g53
(dp786
g80
g81
ssg62
g776
sg55
(lp787
S':'
asbag48
(g69
g50
NtRp788
(dp789
g53
(dp790
sg62
g776
sg55
(lp791
g48
(g49
g50
NtRp792
(dp793
g53
(dp794
g61
I3
ssg62
g788
sg55
(lp795
S''
asbasbasbag48
(g64
g50
NtRp796
(dp797
g53
(dp798
sg62
g752
sg55
(lp799
g48
(g69
g50
NtRp800
(dp801
g53
(dp802
g73
g74
ssg62
g796
sg55
(lp803
g304
asbag48
(g69
g50
NtRp804
(dp805
g53
(dp806
g80
g81
ssg62
g796
sg55
(lp807
S':'
asbag48
(g69
g50
NtRp808
(dp809
g53
(dp810
sg62
g796
sg55
(lp811
g48
(g49
g50
NtRp812
(dp813
g53
(dp814
g61
I3
ssg62
g808
sg55
(lp815
S''
asbasbasbag48
(g64
g50
NtRp816
(dp817
g53
(dp818
sg62
g752
sg55
(lp819
g48
(g69
g50
NtRp820
(dp821
g53
(dp822
g73
g74
ssg62
g816
sg55
(lp823
g325
asbag48
(g69
g50
NtRp824
(dp825
g53
(dp826
g80
g81
ssg62
g816
sg55
(lp827
S':'
asbag48
(g69
g50
NtRp828
(dp829
g53
(dp830
sg62
g816
sg55
(lp831
g48
(g49
g50
NtRp832
(dp833
g53
(dp834
g61
I3
ssg62
g828
sg55
(lp835
S''
asbasbasbag48
(g64
g50
NtRp836
(dp837
g53
(dp838
sg62
g752
sg55
(lp839
g48
(g69
g50
NtRp840
(dp841
g53
(dp842
g73
g74
ssg62
g836
sg55
(lp843
g346
asbag48
(g69
g50
NtRp844
(dp845
g53
(dp846
g80
g81
ssg62
g836
sg55
(lp847
S':'
asbag48
(g69
g50
NtRp848
(dp849
g53
(dp850
sg62
g836
sg55
(lp851
g48
(g49
g50
NtRp852
(dp853
g53
(dp854
g61
I3
ssg62
g848
sg55
(lp855
S''
asbasbasbag48
(g64
g50
NtRp856
(dp857
g53
(dp858
sg62
g752
sg55
(lp859
g48
(g69
g50
NtRp860
(dp861
g53
(dp862
g73
g74
ssg62
g856
sg55
(lp863
g367
asbag48
(g69
g50
NtRp864
(dp865
g53
(dp866
g80
g81
ssg62
g856
sg55
(lp867
S':'
asbag48
(g69
g50
NtRp868
(dp869
g53
(dp870
sg62
g856
sg55
(lp871
g48
(g49
g50
NtRp872
(dp873
g53
(dp874
g61
I3
ssg62
g868
sg55
(lp875
S''
asbasbasbag48
(g64
g50
NtRp876
(dp877
g53
(dp878
sg62
g752
sg55
(lp879
g48
(g69
g50
NtRp880
(dp881
g53
(dp882
g73
g74
ssg62
g876
sg55
(lp883
g388
asbag48
(g69
g50
NtRp884
(dp885
g53
(dp886
g80
g81
ssg62
g876
sg55
(lp887
S':'
asbag48
(g69
g50
NtRp888
(dp889
g53
(dp890
sg62
g876
sg55
(lp891
g48
(g49
g50
NtRp892
(dp893
g53
(dp894
g61
I3
ssg62
g888
sg55
(lp895
S''
asbasbasbasbasbasbasbag48
(g64
g50
NtRp896
(dp897
g53
(dp898
sg62
g225
sg55
(lp899
g48
(g69
g50
NtRp900
(dp901
g53
(dp902
g73
g74
ssg62
g896
sg55
(lp903
S'session_id_welcome'
p904
asbag48
(g69
g50
NtRp905
(dp906
g53
(dp907
g80
g81
ssg62
g896
sg55
(lp908
S':'
asbag48
(g69
g50
NtRp909
(dp910
g53
(dp911
sg62
g896
sg55
(lp912
g48
(g49
g50
NtRp913
(dp914
g53
(dp915
g61
I4
ssg62
g909
sg55
(lp916
g48
(g57
g50
NtRp917
(dp918
g53
(dp919
g61
I3
ssg62
Nsg55
(lp920
g48
(g64
g50
NtRp921
(dp922
g53
(dp923
sg62
g917
sg55
(lp924
g48
(g69
g50
NtRp925
(dp926
g53
(dp927
g73
g74
ssg62
g921
sg55
(lp928
g262
asbag48
(g69
g50
NtRp929
(dp930
g53
(dp931
g80
g81
ssg62
g921
sg55
(lp932
S':'
asbag48
(g69
g50
NtRp933
(dp934
g53
(dp935
sg62
g921
sg55
(lp936
g48
(g49
g50
NtRp937
(dp938
g53
(dp939
g61
I3
ssg62
g933
sg55
(lp940
S''
asbasbasbag48
(g64
g50
NtRp941
(dp942
g53
(dp943
sg62
g917
sg55
(lp944
g48
(g69
g50
NtRp945
(dp946
g53
(dp947
g73
g74
ssg62
g941
sg55
(lp948
g283
asbag48
(g69
g50
NtRp949
(dp950
g53
(dp951
g80
g81
ssg62
g941
sg55
(lp952
S':'
asbag48
(g69
g50
NtRp953
(dp954
g53
(dp955
sg62
g941
sg55
(lp956
g48
(g49
g50
NtRp957
(dp958
g53
(dp959
g61
I3
ssg62
g953
sg55
(lp960
S''
asbasbasbag48
(g64
g50
NtRp961
(dp962
g53
(dp963
sg62
g917
sg55
(lp964
g48
(g69
g50
NtRp965
(dp966
g53
(dp967
g73
g74
ssg62
g961
sg55
(lp968
g304
asbag48
(g69
g50
NtRp969
(dp970
g53
(dp971
g80
g81
ssg62
g961
sg55
(lp972
S':'
asbag48
(g69
g50
NtRp973
(dp974
g53
(dp975
sg62
g961
sg55
(lp976
g48
(g49
g50
NtRp977
(dp978
g53
(dp979
g61
I3
ssg62
g973
sg55
(lp980
S''
asbasbasbag48
(g64
g50
NtRp981
(dp982
g53
(dp983
sg62
g917
sg55
(lp984
g48
(g69
g50
NtRp985
(dp986
g53
(dp987
g73
g74
ssg62
g981
sg55
(lp988
g325
asbag48
(g69
g50
NtRp989
(dp990
g53
(dp991
g80
g81
ssg62
g981
sg55
(lp992
S':'
asbag48
(g69
g50
NtRp993
(dp994
g53
(dp995
sg62
g981
sg55
(lp996
g48
(g49
g50
NtRp997
(dp998
g53
(dp999
g61
I3
ssg62
g993
sg55
(lp1000
S''
asbasbasbag48
(g64
g50
NtRp1001
(dp1002
g53
(dp1003
sg62
g917
sg55
(lp1004
g48
(g69
g50
NtRp1005
(dp1006
g53
(dp1007
g73
g74
ssg62
g1001
sg55
(lp1008
g346
asbag48
(g69
g50
NtRp1009
(dp1010
g53
(dp1011
g80
g81
ssg62
g1001
sg55
(lp1012
S':'
asbag48
(g69
g50
NtRp1013
(dp1014
g53
(dp1015
sg62
g1001
sg55
(lp1016
g48
(g49
g50
NtRp1017
(dp1018
g53
(dp1019
g61
I3
ssg62
g1013
sg55
(lp1020
S''
asbasbasbag48
(g64
g50
NtRp1021
(dp1022
g53
(dp1023
sg62
g917
sg55
(lp1024
g48
(g69
g50
NtRp1025
(dp1026
g53
(dp1027
g73
g74
ssg62
g1021
sg55
(lp1028
g367
asbag48
(g69
g50
NtRp1029
(dp1030
g53
(dp1031
g80
g81
ssg62
g1021
sg55
(lp1032
S':'
asbag48
(g69
g50
NtRp1033
(dp1034
g53
(dp1035
sg62
g1021
sg55
(lp1036
g48
(g49
g50
NtRp1037
(dp1038
g53
(dp1039
g61
I3
ssg62
g1033
sg55
(lp1040
S''
asbasbasbag48
(g64
g50
NtRp1041
(dp1042
g53
(dp1043
sg62
g917
sg55
(lp1044
g48
(g69
g50
NtRp1045
(dp1046
g53
(dp1047
g73
g74
ssg62
g1041
sg55
(lp1048
g388
asbag48
(g69
g50
NtRp1049
(dp1050
g53
(dp1051
g80
g81
ssg62
g1041
sg55
(lp1052
S':'
asbag48
(g69
g50
NtRp1053
(dp1054
g53
(dp1055
sg62
g1041
sg55
(lp1056
g48
(g49
g50
NtRp1057
(dp1058
g53
(dp1059
g61
I3
ssg62
g1053
sg55
(lp1060
S''
asbasbasbasbasbasbasbasbasbasbasbag48
(g64
g50
NtRp1061
(dp1062
g53
(dp1063
sg62
g58
sg55
(lp1064
g48
(g69
g50
NtRp1065
(dp1066
g53
(dp1067
g73
g74
ssg62
g1061
sg55
(lp1068
S'env'
p1069
asbag48
(g69
g50
NtRp1070
(dp1071
g53
(dp1072
g80
g81
ssg62
g1061
sg55
(lp1073
S':'
asbag48
(g69
g50
NtRp1074
(dp1075
g53
(dp1076
sg62
g1061
sg55
(lp1077
g48
(g49
g50
NtRp1078
(dp1079
g53
(dp1080
g61
I5
ssg62
g1074
sg55
(lp1081
g48
(g57
g50
NtRp1082
(dp1083
g53
(dp1084
g61
I4
ssg62
Nsg55
(lp1085
g48
(g64
g50
NtRp1086
(dp1087
g53
(dp1088
sg62
g1082
sg55
(lp1089
g48
(g69
g50
NtRp1090
(dp1091
g53
(dp1092
g73
g74
ssg62
g1086
sg55
(lp1093
S'app_folders'
p1094
asbag48
(g69
g50
NtRp1095
(dp1096
g53
(dp1097
g80
g81
ssg62
g1086
sg55
(lp1098
S':'
asbag48
(g69
g50
NtRp1099
(dp1100
g53
(dp1101
sg62
g1086
sg55
(lp1102
g48
(g49
g50
NtRp1103
(dp1104
g53
(dp1105
g61
I4
ssg62
g1099
sg55
(lp1106
S"set(['C:\\\\Users\\\\Atomico\\\\web2py\\\\applications\\\\welcome\\\\', 'C:\\\\Users\\\\Atomico\\\\web2py\\\\applications\\\\Desglosar_Emails\\\\', 'C:\\\\Users\\\\Atomico\\\\web2py\\\\applications\\\\admin\\\\'])"
p1107
asbasbasbag48
(g64
g50
NtRp1108
(dp1109
g53
(dp1110
sg62
g1082
sg55
(lp1111
g48
(g69
g50
NtRp1112
(dp1113
g53
(dp1114
g73
g74
ssg62
g1108
sg55
(lp1115
S'applications_parent'
p1116
asbag48
(g69
g50
NtRp1117
(dp1118
g53
(dp1119
g80
g81
ssg62
g1108
sg55
(lp1120
S':'
asbag48
(g69
g50
NtRp1121
(dp1122
g53
(dp1123
sg62
g1108
sg55
(lp1124
g48
(g49
g50
NtRp1125
(dp1126
g53
(dp1127
g61
I4
ssg62
g1121
sg55
(lp1128
S'C:\\Users\\Atomico\\web2py'
p1129
asbasbasbag48
(g64
g50
NtRp1130
(dp1131
g53
(dp1132
sg62
g1082
sg55
(lp1133
g48
(g69
g50
NtRp1134
(dp1135
g53
(dp1136
g73
g74
ssg62
g1130
sg55
(lp1137
S'cmd_args'
p1138
asbag48
(g69
g50
NtRp1139
(dp1140
g53
(dp1141
g80
g81
ssg62
g1130
sg55
(lp1142
S':'
asbag48
(g69
g50
NtRp1143
(dp1144
g53
(dp1145
sg62
g1130
sg55
(lp1146
g48
(g49
g50
NtRp1147
(dp1148
g53
(dp1149
g61
I4
ssg62
g1143
sg55
(lp1150
g48
(g57
g50
NtRp1151
(dp1152
g53
(dp1153
g61
I3
ssg62
Nsg55
(lp1154
sbasbasbasbag48
(g64
g50
NtRp1155
(dp1156
g53
(dp1157
sg62
g1082
sg55
(lp1158
g48
(g69
g50
NtRp1159
(dp1160
g53
(dp1161
g73
g74
ssg62
g1155
sg55
(lp1162
S'cmd_options'
p1163
asbag48
(g69
g50
NtRp1164
(dp1165
g53
(dp1166
g80
g81
ssg62
g1155
sg55
(lp1167
S':'
asbag48
(g69
g50
NtRp1168
(dp1169
g53
(dp1170
sg62
g1155
sg55
(lp1171
g48
(g49
g50
NtRp1172
(dp1173
g53
(dp1174
g61
I4
ssg62
g1168
sg55
(lp1175
S"<Values at 0x31fe5d0: {'verbose': False, 'ip': '127.0.0.1', 'shutdown_timeout': 5, 'taskbar': False, 'port': 8000, 'maxthreads': None, 'softcron': False, 'server_name': 'Swing', 'bpython': False, 'nogui': False, 'nocron': False, 'extcron': False, 'debuglevel': 30, 'test': None, 'folder': 'C:\\\\Users\\\\Atomico\\\\web2py', 'config': '', 'import_models': False, 'winservice': '', 'shell': None, 'run': '', 'log_filename': 'httpserver.log', 'args': [''], 'profiler_filename': None, 'ssl_private_key': '', 'password': '<ask>', 'request_queue_size': 5, 'ssl_certificate': '', 'cronjob': False, 'plain': False, 'quiet': False, 'interfaces': None, 'minthreads': None, 'timeout': 10, 'numthreads': None, 'nobanner': False, 'pid_filename': 'httpserver.pid'}>"
p1176
asbasbasbag48
(g64
g50
NtRp1177
(dp1178
g53
(dp1179
sg62
g1082
sg55
(lp1180
g48
(g69
g50
NtRp1181
(dp1182
g53
(dp1183
g73
g74
ssg62
g1177
sg55
(lp1184
S'db_sessions'
p1185
asbag48
(g69
g50
NtRp1186
(dp1187
g53
(dp1188
g80
g81
ssg62
g1177
sg55
(lp1189
S':'
asbag48
(g69
g50
NtRp1190
(dp1191
g53
(dp1192
sg62
g1177
sg55
(lp1193
g48
(g49
g50
NtRp1194
(dp1195
g53
(dp1196
g61
I4
ssg62
g1190
sg55
(lp1197
S'set([])'
p1198
asbasbasbag48
(g64
g50
NtRp1199
(dp1200
g53
(dp1201
sg62
g1082
sg55
(lp1202
g48
(g69
g50
NtRp1203
(dp1204
g53
(dp1205
g73
g74
ssg62
g1199
sg55
(lp1206
S'debugging'
p1207
asbag48
(g69
g50
NtRp1208
(dp1209
g53
(dp1210
g80
g81
ssg62
g1199
sg55
(lp1211
S':'
asbag48
(g69
g50
NtRp1212
(dp1213
g53
(dp1214
sg62
g1199
sg55
(lp1215
g48
(g49
g50
NtRp1216
(dp1217
g53
(dp1218
g61
I4
ssg62
g1212
sg55
(lp1219
g91
asbasbasbag48
(g64
g50
NtRp1220
(dp1221
g53
(dp1222
sg62
g1082
sg55
(lp1223
g48
(g69
g50
NtRp1224
(dp1225
g53
(dp1226
g73
g74
ssg62
g1220
sg55
(lp1227
S'gluon_parent'
p1228
asbag48
(g69
g50
NtRp1229
(dp1230
g53
(dp1231
g80
g81
ssg62
g1220
sg55
(lp1232
S':'
asbag48
(g69
g50
NtRp1233
(dp1234
g53
(dp1235
sg62
g1220
sg55
(lp1236
g48
(g49
g50
NtRp1237
(dp1238
g53
(dp1239
g61
I4
ssg62
g1233
sg55
(lp1240
S'C:\\Users\\Atomico\\web2py'
p1241
asbasbasbag48
(g64
g50
NtRp1242
(dp1243
g53
(dp1244
sg62
g1082
sg55
(lp1245
g48
(g69
g50
NtRp1246
(dp1247
g53
(dp1248
g73
g74
ssg62
g1242
sg55
(lp1249
S'http_accept'
p1250
asbag48
(g69
g50
NtRp1251
(dp1252
g53
(dp1253
g80
g81
ssg62
g1242
sg55
(lp1254
S':'
asbag48
(g69
g50
NtRp1255
(dp1256
g53
(dp1257
sg62
g1242
sg55
(lp1258
g48
(g49
g50
NtRp1259
(dp1260
g53
(dp1261
g61
I4
ssg62
g1255
sg55
(lp1262
S'text/html,application/xhtml+xml,application/xml;q=0.9,*/*;q=0.8'
p1263
asbasbasbag48
(g64
g50
NtRp1264
(dp1265
g53
(dp1266
sg62
g1082
sg55
(lp1267
g48
(g69
g50
NtRp1268
(dp1269
g53
(dp1270
g73
g74
ssg62
g1264
sg55
(lp1271
S'http_accept_charset'
p1272
asbag48
(g69
g50
NtRp1273
(dp1274
g53
(dp1275
g80
g81
ssg62
g1264
sg55
(lp1276
S':'
asbag48
(g69
g50
NtRp1277
(dp1278
g53
(dp1279
sg62
g1264
sg55
(lp1280
g48
(g49
g50
NtRp1281
(dp1282
g53
(dp1283
g61
I4
ssg62
g1277
sg55
(lp1284
S'ISO-8859-1,utf-8;q=0.7,*;q=0.7'
p1285
asbasbasbag48
(g64
g50
NtRp1286
(dp1287
g53
(dp1288
sg62
g1082
sg55
(lp1289
g48
(g69
g50
NtRp1290
(dp1291
g53
(dp1292
g73
g74
ssg62
g1286
sg55
(lp1293
S'http_accept_encoding'
p1294
asbag48
(g69
g50
NtRp1295
(dp1296
g53
(dp1297
g80
g81
ssg62
g1286
sg55
(lp1298
S':'
asbag48
(g69
g50
NtRp1299
(dp1300
g53
(dp1301
sg62
g1286
sg55
(lp1302
g48
(g49
g50
NtRp1303
(dp1304
g53
(dp1305
g61
I4
ssg62
g1299
sg55
(lp1306
S'gzip, deflate'
p1307
asbasbasbag48
(g64
g50
NtRp1308
(dp1309
g53
(dp1310
sg62
g1082
sg55
(lp1311
g48
(g69
g50
NtRp1312
(dp1313
g53
(dp1314
g73
g74
ssg62
g1308
sg55
(lp1315
S'http_accept_language'
p1316
asbag48
(g69
g50
NtRp1317
(dp1318
g53
(dp1319
g80
g81
ssg62
g1308
sg55
(lp1320
S':'
asbag48
(g69
g50
NtRp1321
(dp1322
g53
(dp1323
sg62
g1308
sg55
(lp1324
g48
(g49
g50
NtRp1325
(dp1326
g53
(dp1327
g61
I4
ssg62
g1321
sg55
(lp1328
S'es-es,es;q=0.8,en-us;q=0.5,en;q=0.3'
p1329
asbasbasbag48
(g64
g50
NtRp1330
(dp1331
g53
(dp1332
sg62
g1082
sg55
(lp1333
g48
(g69
g50
NtRp1334
(dp1335
g53
(dp1336
g73
g74
ssg62
g1330
sg55
(lp1337
S'http_cache_control'
p1338
asbag48
(g69
g50
NtRp1339
(dp1340
g53
(dp1341
g80
g81
ssg62
g1330
sg55
(lp1342
S':'
asbag48
(g69
g50
NtRp1343
(dp1344
g53
(dp1345
sg62
g1330
sg55
(lp1346
g48
(g49
g50
NtRp1347
(dp1348
g53
(dp1349
g61
I4
ssg62
g1343
sg55
(lp1350
S'max-age=0'
p1351
asbasbasbag48
(g64
g50
NtRp1352
(dp1353
g53
(dp1354
sg62
g1082
sg55
(lp1355
g48
(g69
g50
NtRp1356
(dp1357
g53
(dp1358
g73
g74
ssg62
g1352
sg55
(lp1359
S'http_connection'
p1360
asbag48
(g69
g50
NtRp1361
(dp1362
g53
(dp1363
g80
g81
ssg62
g1352
sg55
(lp1364
S':'
asbag48
(g69
g50
NtRp1365
(dp1366
g53
(dp1367
sg62
g1352
sg55
(lp1368
g48
(g49
g50
NtRp1369
(dp1370
g53
(dp1371
g61
I4
ssg62
g1365
sg55
(lp1372
S'keep-alive'
p1373
asbasbasbag48
(g64
g50
NtRp1374
(dp1375
g53
(dp1376
sg62
g1082
sg55
(lp1377
g48
(g69
g50
NtRp1378
(dp1379
g53
(dp1380
g73
g74
ssg62
g1374
sg55
(lp1381
S'http_cookie'
p1382
asbag48
(g69
g50
NtRp1383
(dp1384
g53
(dp1385
g80
g81
ssg62
g1374
sg55
(lp1386
S':'
asbag48
(g69
g50
NtRp1387
(dp1388
g53
(dp1389
sg62
g1374
sg55
(lp1390
g48
(g49
g50
NtRp1391
(dp1392
g53
(dp1393
g61
I4
ssg62
g1387
sg55
(lp1394
S'session_id_welcome=127.0.0.1-d4a19c8f-3eb1-49d7-87c7-849a3de2f2be; session_id_admin=127.0.0.1-ab41072a-78d8-41d9-b0f6-43c9e78f0c91; session_id_desglosar_emails=127.0.0.1-78cf8050-df87-4502-afb9-ed0c3843b414; session_id_borrar2=127.0.0.1-7b2821ce-f980-4deb-be8f-1de8266b25b6; session_id_myappjav=127.0.0.1-c0868253-65dd-491c-a2e7-2dc9aaaa4724'
p1395
asbasbasbag48
(g64
g50
NtRp1396
(dp1397
g53
(dp1398
sg62
g1082
sg55
(lp1399
g48
(g69
g50
NtRp1400
(dp1401
g53
(dp1402
g73
g74
ssg62
g1396
sg55
(lp1403
S'http_host'
p1404
asbag48
(g69
g50
NtRp1405
(dp1406
g53
(dp1407
g80
g81
ssg62
g1396
sg55
(lp1408
S':'
asbag48
(g69
g50
NtRp1409
(dp1410
g53
(dp1411
sg62
g1396
sg55
(lp1412
g48
(g49
g50
NtRp1413
(dp1414
g53
(dp1415
g61
I4
ssg62
g1409
sg55
(lp1416
S'127.0.0.1:8000'
p1417
asbasbasbag48
(g64
g50
NtRp1418
(dp1419
g53
(dp1420
sg62
g1082
sg55
(lp1421
g48
(g69
g50
NtRp1422
(dp1423
g53
(dp1424
g73
g74
ssg62
g1418
sg55
(lp1425
S'http_referer'
p1426
asbag48
(g69
g50
NtRp1427
(dp1428
g53
(dp1429
g80
g81
ssg62
g1418
sg55
(lp1430
S':'
asbag48
(g69
g50
NtRp1431
(dp1432
g53
(dp1433
sg62
g1418
sg55
(lp1434
g48
(g49
g50
NtRp1435
(dp1436
g53
(dp1437
g61
I4
ssg62
g1431
sg55
(lp1438
S'http://127.0.0.1:8000/admin/default/design/Desglosar_Emails'
p1439
asbasbasbag48
(g64
g50
NtRp1440
(dp1441
g53
(dp1442
sg62
g1082
sg55
(lp1443
g48
(g69
g50
NtRp1444
(dp1445
g53
(dp1446
g73
g74
ssg62
g1440
sg55
(lp1447
S'http_user_agent'
p1448
asbag48
(g69
g50
NtRp1449
(dp1450
g53
(dp1451
g80
g81
ssg62
g1440
sg55
(lp1452
S':'
asbag48
(g69
g50
NtRp1453
(dp1454
g53
(dp1455
sg62
g1440
sg55
(lp1456
g48
(g49
g50
NtRp1457
(dp1458
g53
(dp1459
g61
I4
ssg62
g1453
sg55
(lp1460
S'Mozilla/5.0 (Windows NT 6.1; WOW64; rv:6.0.2) Gecko/20100101 Firefox/6.0.2'
p1461
asbasbasbag48
(g64
g50
NtRp1462
(dp1463
g53
(dp1464
sg62
g1082
sg55
(lp1465
g48
(g69
g50
NtRp1466
(dp1467
g53
(dp1468
g73
g74
ssg62
g1462
sg55
(lp1469
S'is_jython'
p1470
asbag48
(g69
g50
NtRp1471
(dp1472
g53
(dp1473
g80
g81
ssg62
g1462
sg55
(lp1474
S':'
asbag48
(g69
g50
NtRp1475
(dp1476
g53
(dp1477
sg62
g1462
sg55
(lp1478
g48
(g49
g50
NtRp1479
(dp1480
g53
(dp1481
g61
I4
ssg62
g1475
sg55
(lp1482
g91
asbasbasbag48
(g64
g50
NtRp1483
(dp1484
g53
(dp1485
sg62
g1082
sg55
(lp1486
g48
(g69
g50
NtRp1487
(dp1488
g53
(dp1489
g73
g74
ssg62
g1483
sg55
(lp1490
S'path_info'
p1491
asbag48
(g69
g50
NtRp1492
(dp1493
g53
(dp1494
g80
g81
ssg62
g1483
sg55
(lp1495
S':'
asbag48
(g69
g50
NtRp1496
(dp1497
g53
(dp1498
sg62
g1483
sg55
(lp1499
g48
(g49
g50
NtRp1500
(dp1501
g53
(dp1502
g61
I4
ssg62
g1496
sg55
(lp1503
S'/Desglosar_Emails/default/entrada_mod3'
p1504
asbasbasbag48
(g64
g50
NtRp1505
(dp1506
g53
(dp1507
sg62
g1082
sg55
(lp1508
g48
(g69
g50
NtRp1509
(dp1510
g53
(dp1511
g73
g74
ssg62
g1505
sg55
(lp1512
S'query_string'
p1513
asbag48
(g69
g50
NtRp1514
(dp1515
g53
(dp1516
g80
g81
ssg62
g1505
sg55
(lp1517
S':'
asbag48
(g69
g50
NtRp1518
(dp1519
g53
(dp1520
sg62
g1505
sg55
(lp1521
g48
(g49
g50
NtRp1522
(dp1523
g53
(dp1524
g61
I4
ssg62
g1518
sg55
(lp1525
S''
asbasbasbag48
(g64
g50
NtRp1526
(dp1527
g53
(dp1528
sg62
g1082
sg55
(lp1529
g48
(g69
g50
NtRp1530
(dp1531
g53
(dp1532
g73
g74
ssg62
g1526
sg55
(lp1533
S'remote_addr'
p1534
asbag48
(g69
g50
NtRp1535
(dp1536
g53
(dp1537
g80
g81
ssg62
g1526
sg55
(lp1538
S':'
asbag48
(g69
g50
NtRp1539
(dp1540
g53
(dp1541
sg62
g1526
sg55
(lp1542
g48
(g49
g50
NtRp1543
(dp1544
g53
(dp1545
g61
I4
ssg62
g1539
sg55
(lp1546
g181
asbasbasbag48
(g64
g50
NtRp1547
(dp1548
g53
(dp1549
sg62
g1082
sg55
(lp1550
g48
(g69
g50
NtRp1551
(dp1552
g53
(dp1553
g73
g74
ssg62
g1547
sg55
(lp1554
S'remote_port'
p1555
asbag48
(g69
g50
NtRp1556
(dp1557
g53
(dp1558
g80
g81
ssg62
g1547
sg55
(lp1559
S':'
asbag48
(g69
g50
NtRp1560
(dp1561
g53
(dp1562
sg62
g1547
sg55
(lp1563
g48
(g49
g50
NtRp1564
(dp1565
g53
(dp1566
g61
I4
ssg62
g1560
sg55
(lp1567
S'63610'
p1568
asbasbasbag48
(g64
g50
NtRp1569
(dp1570
g53
(dp1571
sg62
g1082
sg55
(lp1572
g48
(g69
g50
NtRp1573
(dp1574
g53
(dp1575
g73
g74
ssg62
g1569
sg55
(lp1576
S'request_method'
p1577
asbag48
(g69
g50
NtRp1578
(dp1579
g53
(dp1580
g80
g81
ssg62
g1569
sg55
(lp1581
S':'
asbag48
(g69
g50
NtRp1582
(dp1583
g53
(dp1584
sg62
g1569
sg55
(lp1585
g48
(g49
g50
NtRp1586
(dp1587
g53
(dp1588
g61
I4
ssg62
g1582
sg55
(lp1589
S'GET'
p1590
asbasbasbag48
(g64
g50
NtRp1591
(dp1592
g53
(dp1593
sg62
g1082
sg55
(lp1594
g48
(g69
g50
NtRp1595
(dp1596
g53
(dp1597
g73
g74
ssg62
g1591
sg55
(lp1598
S'script_name'
p1599
asbag48
(g69
g50
NtRp1600
(dp1601
g53
(dp1602
g80
g81
ssg62
g1591
sg55
(lp1603
S':'
asbag48
(g69
g50
NtRp1604
(dp1605
g53
(dp1606
sg62
g1591
sg55
(lp1607
g48
(g49
g50
NtRp1608
(dp1609
g53
(dp1610
g61
I4
ssg62
g1604
sg55
(lp1611
S''
asbasbasbag48
(g64
g50
NtRp1612
(dp1613
g53
(dp1614
sg62
g1082
sg55
(lp1615
g48
(g69
g50
NtRp1616
(dp1617
g53
(dp1618
g73
g74
ssg62
g1612
sg55
(lp1619
S'server_name'
p1620
asbag48
(g69
g50
NtRp1621
(dp1622
g53
(dp1623
g80
g81
ssg62
g1612
sg55
(lp1624
S':'
asbag48
(g69
g50
NtRp1625
(dp1626
g53
(dp1627
sg62
g1612
sg55
(lp1628
g48
(g49
g50
NtRp1629
(dp1630
g53
(dp1631
g61
I4
ssg62
g1625
sg55
(lp1632
S'Swing'
p1633
asbasbasbag48
(g64
g50
NtRp1634
(dp1635
g53
(dp1636
sg62
g1082
sg55
(lp1637
g48
(g69
g50
NtRp1638
(dp1639
g53
(dp1640
g73
g74
ssg62
g1634
sg55
(lp1641
S'server_port'
p1642
asbag48
(g69
g50
NtRp1643
(dp1644
g53
(dp1645
g80
g81
ssg62
g1634
sg55
(lp1646
S':'
asbag48
(g69
g50
NtRp1647
(dp1648
g53
(dp1649
sg62
g1634
sg55
(lp1650
g48
(g49
g50
NtRp1651
(dp1652
g53
(dp1653
g61
I4
ssg62
g1647
sg55
(lp1654
S'8000'
p1655
asbasbasbag48
(g64
g50
NtRp1656
(dp1657
g53
(dp1658
sg62
g1082
sg55
(lp1659
g48
(g69
g50
NtRp1660
(dp1661
g53
(dp1662
g73
g74
ssg62
g1656
sg55
(lp1663
S'server_protocol'
p1664
asbag48
(g69
g50
NtRp1665
(dp1666
g53
(dp1667
g80
g81
ssg62
g1656
sg55
(lp1668
S':'
asbag48
(g69
g50
NtRp1669
(dp1670
g53
(dp1671
sg62
g1656
sg55
(lp1672
g48
(g49
g50
NtRp1673
(dp1674
g53
(dp1675
g61
I4
ssg62
g1669
sg55
(lp1676
S'HTTP/1.1'
p1677
asbasbasbag48
(g64
g50
NtRp1678
(dp1679
g53
(dp1680
sg62
g1082
sg55
(lp1681
g48
(g69
g50
NtRp1682
(dp1683
g53
(dp1684
g73
g74
ssg62
g1678
sg55
(lp1685
S'server_software'
p1686
asbag48
(g69
g50
NtRp1687
(dp1688
g53
(dp1689
g80
g81
ssg62
g1678
sg55
(lp1690
S':'
asbag48
(g69
g50
NtRp1691
(dp1692
g53
(dp1693
sg62
g1678
sg55
(lp1694
g48
(g49
g50
NtRp1695
(dp1696
g53
(dp1697
g61
I4
ssg62
g1691
sg55
(lp1698
S'Rocket 1.2.2'
p1699
asbasbasbag48
(g64
g50
NtRp1700
(dp1701
g53
(dp1702
sg62
g1082
sg55
(lp1703
g48
(g69
g50
NtRp1704
(dp1705
g53
(dp1706
g73
g74
ssg62
g1700
sg55
(lp1707
S'web2py_crontype'
p1708
asbag48
(g69
g50
NtRp1709
(dp1710
g53
(dp1711
g80
g81
ssg62
g1700
sg55
(lp1712
S':'
asbag48
(g69
g50
NtRp1713
(dp1714
g53
(dp1715
sg62
g1700
sg55
(lp1716
g48
(g49
g50
NtRp1717
(dp1718
g53
(dp1719
g61
I4
ssg62
g1713
sg55
(lp1720
S'hard'
p1721
asbasbasbag48
(g64
g50
NtRp1722
(dp1723
g53
(dp1724
sg62
g1082
sg55
(lp1725
g48
(g69
g50
NtRp1726
(dp1727
g53
(dp1728
g73
g74
ssg62
g1722
sg55
(lp1729
S'web2py_path'
p1730
asbag48
(g69
g50
NtRp1731
(dp1732
g53
(dp1733
g80
g81
ssg62
g1722
sg55
(lp1734
S':'
asbag48
(g69
g50
NtRp1735
(dp1736
g53
(dp1737
sg62
g1722
sg55
(lp1738
g48
(g49
g50
NtRp1739
(dp1740
g53
(dp1741
g61
I4
ssg62
g1735
sg55
(lp1742
g1129
asbasbasbag48
(g64
g50
NtRp1743
(dp1744
g53
(dp1745
sg62
g1082
sg55
(lp1746
g48
(g69
g50
NtRp1747
(dp1748
g53
(dp1749
g73
g74
ssg62
g1743
sg55
(lp1750
S'web2py_version'
p1751
asbag48
(g69
g50
NtRp1752
(dp1753
g53
(dp1754
g80
g81
ssg62
g1743
sg55
(lp1755
S':'
asbag48
(g69
g50
NtRp1756
(dp1757
g53
(dp1758
sg62
g1743
sg55
(lp1759
g48
(g49
g50
NtRp1760
(dp1761
g53
(dp1762
g61
I4
ssg62
g1756
sg55
(lp1763
S'Version 1.98.2 (2011-08-04 00:47:09)\n'
p1764
asbasbasbag48
(g64
g50
NtRp1765
(dp1766
g53
(dp1767
sg62
g1082
sg55
(lp1768
g48
(g69
g50
NtRp1769
(dp1770
g53
(dp1771
g73
g74
ssg62
g1765
sg55
(lp1772
S'wsgi_errors'
p1773
asbag48
(g69
g50
NtRp1774
(dp1775
g53
(dp1776
g80
g81
ssg62
g1765
sg55
(lp1777
S':'
asbag48
(g69
g50
NtRp1778
(dp1779
g53
(dp1780
sg62
g1765
sg55
(lp1781
g48
(g49
g50
NtRp1782
(dp1783
g53
(dp1784
g61
I4
ssg62
g1778
sg55
(lp1785
S"<open file '<stderr>', mode 'w' at 0x004200B0>"
p1786
asbasbasbag48
(g64
g50
NtRp1787
(dp1788
g53
(dp1789
sg62
g1082
sg55
(lp1790
g48
(g69
g50
NtRp1791
(dp1792
g53
(dp1793
g73
g74
ssg62
g1787
sg55
(lp1794
S'wsgi_file_wrapper'
p1795
asbag48
(g69
g50
NtRp1796
(dp1797
g53
(dp1798
g80
g81
ssg62
g1787
sg55
(lp1799
S':'
asbag48
(g69
g50
NtRp1800
(dp1801
g53
(dp1802
sg62
g1787
sg55
(lp1803
g48
(g49
g50
NtRp1804
(dp1805
g53
(dp1806
g61
I4
ssg62
g1800
sg55
(lp1807
S'<class gluon.rocket.FileWrapper at 0x031911B0>'
p1808
asbasbasbag48
(g64
g50
NtRp1809
(dp1810
g53
(dp1811
sg62
g1082
sg55
(lp1812
g48
(g69
g50
NtRp1813
(dp1814
g53
(dp1815
g73
g74
ssg62
g1809
sg55
(lp1816
S'wsgi_input'
p1817
asbag48
(g69
g50
NtRp1818
(dp1819
g53
(dp1820
g80
g81
ssg62
g1809
sg55
(lp1821
S':'
asbag48
(g69
g50
NtRp1822
(dp1823
g53
(dp1824
sg62
g1809
sg55
(lp1825
g48
(g49
g50
NtRp1826
(dp1827
g53
(dp1828
g61
I4
ssg62
g1822
sg55
(lp1829
S'<socket._fileobject object at 0x074927F0>'
p1830
asbasbasbag48
(g64
g50
NtRp1831
(dp1832
g53
(dp1833
sg62
g1082
sg55
(lp1834
g48
(g69
g50
NtRp1835
(dp1836
g53
(dp1837
g73
g74
ssg62
g1831
sg55
(lp1838
S'wsgi_multiprocess'
p1839
asbag48
(g69
g50
NtRp1840
(dp1841
g53
(dp1842
g80
g81
ssg62
g1831
sg55
(lp1843
S':'
asbag48
(g69
g50
NtRp1844
(dp1845
g53
(dp1846
sg62
g1831
sg55
(lp1847
g48
(g49
g50
NtRp1848
(dp1849
g53
(dp1850
g61
I4
ssg62
g1844
sg55
(lp1851
g91
asbasbasbag48
(g64
g50
NtRp1852
(dp1853
g53
(dp1854
sg62
g1082
sg55
(lp1855
g48
(g69
g50
NtRp1856
(dp1857
g53
(dp1858
g73
g74
ssg62
g1852
sg55
(lp1859
S'wsgi_multithread'
p1860
asbag48
(g69
g50
NtRp1861
(dp1862
g53
(dp1863
g80
g81
ssg62
g1852
sg55
(lp1864
S':'
asbag48
(g69
g50
NtRp1865
(dp1866
g53
(dp1867
sg62
g1852
sg55
(lp1868
g48
(g49
g50
NtRp1869
(dp1870
g53
(dp1871
g61
I4
ssg62
g1865
sg55
(lp1872
S'True'
p1873
asbasbasbag48
(g64
g50
NtRp1874
(dp1875
g53
(dp1876
sg62
g1082
sg55
(lp1877
g48
(g69
g50
NtRp1878
(dp1879
g53
(dp1880
g73
g74
ssg62
g1874
sg55
(lp1881
S'wsgi_run_once'
p1882
asbag48
(g69
g50
NtRp1883
(dp1884
g53
(dp1885
g80
g81
ssg62
g1874
sg55
(lp1886
S':'
asbag48
(g69
g50
NtRp1887
(dp1888
g53
(dp1889
sg62
g1874
sg55
(lp1890
g48
(g49
g50
NtRp1891
(dp1892
g53
(dp1893
g61
I4
ssg62
g1887
sg55
(lp1894
g91
asbasbasbag48
(g64
g50
NtRp1895
(dp1896
g53
(dp1897
sg62
g1082
sg55
(lp1898
g48
(g69
g50
NtRp1899
(dp1900
g53
(dp1901
g73
g74
ssg62
g1895
sg55
(lp1902
S'wsgi_url_scheme'
p1903
asbag48
(g69
g50
NtRp1904
(dp1905
g53
(dp1906
g80
g81
ssg62
g1895
sg55
(lp1907
S':'
asbag48
(g69
g50
NtRp1908
(dp1909
g53
(dp1910
sg62
g1895
sg55
(lp1911
g48
(g49
g50
NtRp1912
(dp1913
g53
(dp1914
g61
I4
ssg62
g1908
sg55
(lp1915
S'http'
p1916
asbasbasbag48
(g64
g50
NtRp1917
(dp1918
g53
(dp1919
sg62
g1082
sg55
(lp1920
g48
(g69
g50
NtRp1921
(dp1922
g53
(dp1923
g73
g74
ssg62
g1917
sg55
(lp1924
S'wsgi_version'
p1925
asbag48
(g69
g50
NtRp1926
(dp1927
g53
(dp1928
g80
g81
ssg62
g1917
sg55
(lp1929
S':'
asbag48
(g69
g50
NtRp1930
(dp1931
g53
(dp1932
sg62
g1917
sg55
(lp1933
g48
(g49
g50
NtRp1934
(dp1935
g53
(dp1936
g61
I4
ssg62
g1930
sg55
(lp1937
g48
(g57
g50
NtRp1938
(dp1939
g53
(dp1940
g61
I3
ssg62
Nsg55
(lp1941
g48
(g64
g50
NtRp1942
(dp1943
g53
(dp1944
sg62
g1938
sg55
(lp1945
g48
(g69
g50
NtRp1946
(dp1947
g53
(dp1948
sg62
g1942
sg55
(lp1949
g48
(g49
g50
NtRp1950
(dp1951
g53
(dp1952
g61
I3
ssg62
g1946
sg55
(lp1953
S'1'
asbasbasbag48
(g64
g50
NtRp1954
(dp1955
g53
(dp1956
sg62
g1938
sg55
(lp1957
g48
(g69
g50
NtRp1958
(dp1959
g53
(dp1960
sg62
g1954
sg55
(lp1961
g48
(g49
g50
NtRp1962
(dp1963
g53
(dp1964
g61
I3
ssg62
g1958
sg55
(lp1965
S'0'
asbasbasbasbasbasbasbasbasbasbasbag48
(g64
g50
NtRp1966
(dp1967
g53
(dp1968
sg62
g58
sg55
(lp1969
g48
(g69
g50
NtRp1970
(dp1971
g53
(dp1972
g73
g74
ssg62
g1966
sg55
(lp1973
S'extension'
p1974
asbag48
(g69
g50
NtRp1975
(dp1976
g53
(dp1977
g80
g81
ssg62
g1966
sg55
(lp1978
S':'
asbag48
(g69
g50
NtRp1979
(dp1980
g53
(dp1981
sg62
g1966
sg55
(lp1982
g48
(g49
g50
NtRp1983
(dp1984
g53
(dp1985
g61
I5
ssg62
g1979
sg55
(lp1986
S'html'
p1987
asbasbasbag48
(g64
g50
NtRp1988
(dp1989
g53
(dp1990
sg62
g58
sg55
(lp1991
g48
(g69
g50
NtRp1992
(dp1993
g53
(dp1994
g73
g74
ssg62
g1988
sg55
(lp1995
S'folder'
p1996
asbag48
(g69
g50
NtRp1997
(dp1998
g53
(dp1999
g80
g81
ssg62
g1988
sg55
(lp2000
S':'
asbag48
(g69
g50
NtRp2001
(dp2002
g53
(dp2003
sg62
g1988
sg55
(lp2004
g48
(g49
g50
NtRp2005
(dp2006
g53
(dp2007
g61
I5
ssg62
g2001
sg55
(lp2008
S'C:\\Users\\Atomico\\web2py\\applications\\Desglosar_Emails\\'
p2009
asbasbasbag48
(g64
g50
NtRp2010
(dp2011
g53
(dp2012
sg62
g58
sg55
(lp2013
g48
(g69
g50
NtRp2014
(dp2015
g53
(dp2016
g73
g74
ssg62
g2010
sg55
(lp2017
S'function'
p2018
asbag48
(g69
g50
NtRp2019
(dp2020
g53
(dp2021
g80
g81
ssg62
g2010
sg55
(lp2022
S':'
asbag48
(g69
g50
NtRp2023
(dp2024
g53
(dp2025
sg62
g2010
sg55
(lp2026
g48
(g49
g50
NtRp2027
(dp2028
g53
(dp2029
g61
I5
ssg62
g2023
sg55
(lp2030
S'entrada_mod3'
p2031
asbasbasbag48
(g64
g50
NtRp2032
(dp2033
g53
(dp2034
sg62
g58
sg55
(lp2035
g48
(g69
g50
NtRp2036
(dp2037
g53
(dp2038
g73
g74
ssg62
g2032
sg55
(lp2039
S'get_vars'
p2040
asbag48
(g69
g50
NtRp2041
(dp2042
g53
(dp2043
g80
g81
ssg62
g2032
sg55
(lp2044
S':'
asbag48
(g69
g50
NtRp2045
(dp2046
g53
(dp2047
sg62
g2032
sg55
(lp2048
g48
(g49
g50
NtRp2049
(dp2050
g53
(dp2051
g61
I5
ssg62
g2045
sg55
(lp2052
g48
(g57
g50
NtRp2053
(dp2054
g53
(dp2055
g61
I4
ssg62
Nsg55
(lp2056
sbasbasbasbag48
(g64
g50
NtRp2057
(dp2058
g53
(dp2059
sg62
g58
sg55
(lp2060
g48
(g69
g50
NtRp2061
(dp2062
g53
(dp2063
g73
g74
ssg62
g2057
sg55
(lp2064
S'is_https'
p2065
asbag48
(g69
g50
NtRp2066
(dp2067
g53
(dp2068
g80
g81
ssg62
g2057
sg55
(lp2069
S':'
asbag48
(g69
g50
NtRp2070
(dp2071
g53
(dp2072
sg62
g2057
sg55
(lp2073
g48
(g49
g50
NtRp2074
(dp2075
g53
(dp2076
g61
I5
ssg62
g2070
sg55
(lp2077
g91
asbasbasbag48
(g64
g50
NtRp2078
(dp2079
g53
(dp2080
sg62
g58
sg55
(lp2081
g48
(g69
g50
NtRp2082
(dp2083
g53
(dp2084
g73
g74
ssg62
g2078
sg55
(lp2085
S'is_local'
p2086
asbag48
(g69
g50
NtRp2087
(dp2088
g53
(dp2089
g80
g81
ssg62
g2078
sg55
(lp2090
S':'
asbag48
(g69
g50
NtRp2091
(dp2092
g53
(dp2093
sg62
g2078
sg55
(lp2094
g48
(g49
g50
NtRp2095
(dp2096
g53
(dp2097
g61
I5
ssg62
g2091
sg55
(lp2098
g1873
asbasbasbag48
(g64
g50
NtRp2099
(dp2100
g53
(dp2101
sg62
g58
sg55
(lp2102
g48
(g69
g50
NtRp2103
(dp2104
g53
(dp2105
g73
g74
ssg62
g2099
sg55
(lp2106
S'is_restful'
p2107
asbag48
(g69
g50
NtRp2108
(dp2109
g53
(dp2110
g80
g81
ssg62
g2099
sg55
(lp2111
S':'
asbag48
(g69
g50
NtRp2112
(dp2113
g53
(dp2114
sg62
g2099
sg55
(lp2115
g48
(g49
g50
NtRp2116
(dp2117
g53
(dp2118
g61
I5
ssg62
g2112
sg55
(lp2119
g91
asbasbasbag48
(g64
g50
NtRp2120
(dp2121
g53
(dp2122
sg62
g58
sg55
(lp2123
g48
(g69
g50
NtRp2124
(dp2125
g53
(dp2126
g73
g74
ssg62
g2120
sg55
(lp2127
S'now'
p2128
asbag48
(g69
g50
NtRp2129
(dp2130
g53
(dp2131
g80
g81
ssg62
g2120
sg55
(lp2132
S':'
asbag48
(g69
g50
NtRp2133
(dp2134
g53
(dp2135
sg62
g2120
sg55
(lp2136
g48
(g49
g50
NtRp2137
(dp2138
g53
(dp2139
g61
I5
ssg62
g2133
sg55
(lp2140
S'datetime.datetime(2011, 9, 20, 17, 56, 1, 527000)'
p2141
asbasbasbag48
(g64
g50
NtRp2142
(dp2143
g53
(dp2144
sg62
g58
sg55
(lp2145
g48
(g69
g50
NtRp2146
(dp2147
g53
(dp2148
g73
g74
ssg62
g2142
sg55
(lp2149
S'post_vars'
p2150
asbag48
(g69
g50
NtRp2151
(dp2152
g53
(dp2153
g80
g81
ssg62
g2142
sg55
(lp2154
S':'
asbag48
(g69
g50
NtRp2155
(dp2156
g53
(dp2157
sg62
g2142
sg55
(lp2158
g48
(g49
g50
NtRp2159
(dp2160
g53
(dp2161
g61
I5
ssg62
g2155
sg55
(lp2162
g48
(g57
g50
NtRp2163
(dp2164
g53
(dp2165
g61
I4
ssg62
Nsg55
(lp2166
sbasbasbasbag48
(g64
g50
NtRp2167
(dp2168
g53
(dp2169
sg62
g58
sg55
(lp2170
g48
(g69
g50
NtRp2171
(dp2172
g53
(dp2173
g73
g74
ssg62
g2167
sg55
(lp2174
S'url'
p2175
asbag48
(g69
g50
NtRp2176
(dp2177
g53
(dp2178
g80
g81
ssg62
g2167
sg55
(lp2179
S':'
asbag48
(g69
g50
NtRp2180
(dp2181
g53
(dp2182
sg62
g2167
sg55
(lp2183
g48
(g49
g50
NtRp2184
(dp2185
g53
(dp2186
g61
I5
ssg62
g2180
sg55
(lp2187
S'/Desglosar_Emails/default/entrada_mod3'
p2188
asbasbasbag48
(g64
g50
NtRp2189
(dp2190
g53
(dp2191
sg62
g58
sg55
(lp2192
g48
(g69
g50
NtRp2193
(dp2194
g53
(dp2195
g73
g74
ssg62
g2189
sg55
(lp2196
S'uuid'
p2197
asbag48
(g69
g50
NtRp2198
(dp2199
g53
(dp2200
g80
g81
ssg62
g2189
sg55
(lp2201
S':'
asbag48
(g69
g50
NtRp2202
(dp2203
g53
(dp2204
sg62
g2189
sg55
(lp2205
g48
(g49
g50
NtRp2206
(dp2207
g53
(dp2208
g61
I5
ssg62
g2202
sg55
(lp2209
S'Desglosar_Emails/127.0.0.1.2011-09-20.17-56-01.6a702e61-8e45-40bf-899a-224bd47d96a5'
p2210
asbasbasbag48
(g64
g50
NtRp2211
(dp2212
g53
(dp2213
sg62
g58
sg55
(lp2214
g48
(g69
g50
NtRp2215
(dp2216
g53
(dp2217
g73
g74
ssg62
g2211
sg55
(lp2218
S'vars'
p2219
asbag48
(g69
g50
NtRp2220
(dp2221
g53
(dp2222
g80
g81
ssg62
g2211
sg55
(lp2223
S':'
asbag48
(g69
g50
NtRp2224
(dp2225
g53
(dp2226
sg62
g2211
sg55
(lp2227
g48
(g49
g50
NtRp2228
(dp2229
g53
(dp2230
g61
I5
ssg62
g2224
sg55
(lp2231
g48
(g57
g50
NtRp2232
(dp2233
g53
(dp2234
g61
I4
ssg62
Nsg55
(lp2235
sbasbasbasbag48
(g64
g50
NtRp2236
(dp2237
g53
(dp2238
sg62
g58
sg55
(lp2239
g48
(g69
g50
NtRp2240
(dp2241
g53
(dp2242
g73
g74
ssg62
g2236
sg55
(lp2243
S'wsgi'
p2244
asbag48
(g69
g50
NtRp2245
(dp2246
g53
(dp2247
g80
g81
ssg62
g2236
sg55
(lp2248
S':'
asbag48
(g69
g50
NtRp2249
(dp2250
g53
(dp2251
sg62
g2236
sg55
(lp2252
g48
(g49
g50
NtRp2253
(dp2254
g53
(dp2255
g61
I5
ssg62
g2249
sg55
(lp2256
g48
(g57
g50
NtRp2257
(dp2258
g53
(dp2259
g61
I4
ssg62
Nsg55
(lp2260
g48
(g64
g50
NtRp2261
(dp2262
g53
(dp2263
sg62
g2257
sg55
(lp2264
g48
(g69
g50
NtRp2265
(dp2266
g53
(dp2267
g73
g74
ssg62
g2261
sg55
(lp2268
S'environ'
p2269
asbag48
(g69
g50
NtRp2270
(dp2271
g53
(dp2272
g80
g81
ssg62
g2261
sg55
(lp2273
S':'
asbag48
(g69
g50
NtRp2274
(dp2275
g53
(dp2276
sg62
g2261
sg55
(lp2277
g48
(g49
g50
NtRp2278
(dp2279
g53
(dp2280
g61
I4
ssg62
g2274
sg55
(lp2281
g48
(g57
g50
NtRp2282
(dp2283
g53
(dp2284
g61
I3
ssg62
Nsg55
(lp2285
g48
(g64
g50
NtRp2286
(dp2287
g53
(dp2288
sg62
g2282
sg55
(lp2289
g48
(g69
g50
NtRp2290
(dp2291
g53
(dp2292
g73
g74
ssg62
g2286
sg55
(lp2293
S'HTTP_ACCEPT'
p2294
asbag48
(g69
g50
NtRp2295
(dp2296
g53
(dp2297
g80
g81
ssg62
g2286
sg55
(lp2298
S':'
asbag48
(g69
g50
NtRp2299
(dp2300
g53
(dp2301
sg62
g2286
sg55
(lp2302
g48
(g49
g50
NtRp2303
(dp2304
g53
(dp2305
g61
I3
ssg62
g2299
sg55
(lp2306
g1263
asbasbasbag48
(g64
g50
NtRp2307
(dp2308
g53
(dp2309
sg62
g2282
sg55
(lp2310
g48
(g69
g50
NtRp2311
(dp2312
g53
(dp2313
g73
g74
ssg62
g2307
sg55
(lp2314
S'HTTP_ACCEPT_CHARSET'
p2315
asbag48
(g69
g50
NtRp2316
(dp2317
g53
(dp2318
g80
g81
ssg62
g2307
sg55
(lp2319
S':'
asbag48
(g69
g50
NtRp2320
(dp2321
g53
(dp2322
sg62
g2307
sg55
(lp2323
g48
(g49
g50
NtRp2324
(dp2325
g53
(dp2326
g61
I3
ssg62
g2320
sg55
(lp2327
g1285
asbasbasbag48
(g64
g50
NtRp2328
(dp2329
g53
(dp2330
sg62
g2282
sg55
(lp2331
g48
(g69
g50
NtRp2332
(dp2333
g53
(dp2334
g73
g74
ssg62
g2328
sg55
(lp2335
S'HTTP_ACCEPT_ENCODING'
p2336
asbag48
(g69
g50
NtRp2337
(dp2338
g53
(dp2339
g80
g81
ssg62
g2328
sg55
(lp2340
S':'
asbag48
(g69
g50
NtRp2341
(dp2342
g53
(dp2343
sg62
g2328
sg55
(lp2344
g48
(g49
g50
NtRp2345
(dp2346
g53
(dp2347
g61
I3
ssg62
g2341
sg55
(lp2348
g1307
asbasbasbag48
(g64
g50
NtRp2349
(dp2350
g53
(dp2351
sg62
g2282
sg55
(lp2352
g48
(g69
g50
NtRp2353
(dp2354
g53
(dp2355
g73
g74
ssg62
g2349
sg55
(lp2356
S'HTTP_ACCEPT_LANGUAGE'
p2357
asbag48
(g69
g50
NtRp2358
(dp2359
g53
(dp2360
g80
g81
ssg62
g2349
sg55
(lp2361
S':'
asbag48
(g69
g50
NtRp2362
(dp2363
g53
(dp2364
sg62
g2349
sg55
(lp2365
g48
(g49
g50
NtRp2366
(dp2367
g53
(dp2368
g61
I3
ssg62
g2362
sg55
(lp2369
g1329
asbasbasbag48
(g64
g50
NtRp2370
(dp2371
g53
(dp2372
sg62
g2282
sg55
(lp2373
g48
(g69
g50
NtRp2374
(dp2375
g53
(dp2376
g73
g74
ssg62
g2370
sg55
(lp2377
S'HTTP_CACHE_CONTROL'
p2378
asbag48
(g69
g50
NtRp2379
(dp2380
g53
(dp2381
g80
g81
ssg62
g2370
sg55
(lp2382
S':'
asbag48
(g69
g50
NtRp2383
(dp2384
g53
(dp2385
sg62
g2370
sg55
(lp2386
g48
(g49
g50
NtRp2387
(dp2388
g53
(dp2389
g61
I3
ssg62
g2383
sg55
(lp2390
g1351
asbasbasbag48
(g64
g50
NtRp2391
(dp2392
g53
(dp2393
sg62
g2282
sg55
(lp2394
g48
(g69
g50
NtRp2395
(dp2396
g53
(dp2397
g73
g74
ssg62
g2391
sg55
(lp2398
S'HTTP_CONNECTION'
p2399
asbag48
(g69
g50
NtRp2400
(dp2401
g53
(dp2402
g80
g81
ssg62
g2391
sg55
(lp2403
S':'
asbag48
(g69
g50
NtRp2404
(dp2405
g53
(dp2406
sg62
g2391
sg55
(lp2407
g48
(g49
g50
NtRp2408
(dp2409
g53
(dp2410
g61
I3
ssg62
g2404
sg55
(lp2411
g1373
asbasbasbag48
(g64
g50
NtRp2412
(dp2413
g53
(dp2414
sg62
g2282
sg55
(lp2415
g48
(g69
g50
NtRp2416
(dp2417
g53
(dp2418
g73
g74
ssg62
g2412
sg55
(lp2419
S'HTTP_COOKIE'
p2420
asbag48
(g69
g50
NtRp2421
(dp2422
g53
(dp2423
g80
g81
ssg62
g2412
sg55
(lp2424
S':'
asbag48
(g69
g50
NtRp2425
(dp2426
g53
(dp2427
sg62
g2412
sg55
(lp2428
g48
(g49
g50
NtRp2429
(dp2430
g53
(dp2431
g61
I3
ssg62
g2425
sg55
(lp2432
g1395
asbasbasbag48
(g64
g50
NtRp2433
(dp2434
g53
(dp2435
sg62
g2282
sg55
(lp2436
g48
(g69
g50
NtRp2437
(dp2438
g53
(dp2439
g73
g74
ssg62
g2433
sg55
(lp2440
S'HTTP_HOST'
p2441
asbag48
(g69
g50
NtRp2442
(dp2443
g53
(dp2444
g80
g81
ssg62
g2433
sg55
(lp2445
S':'
asbag48
(g69
g50
NtRp2446
(dp2447
g53
(dp2448
sg62
g2433
sg55
(lp2449
g48
(g49
g50
NtRp2450
(dp2451
g53
(dp2452
g61
I3
ssg62
g2446
sg55
(lp2453
g1417
asbasbasbag48
(g64
g50
NtRp2454
(dp2455
g53
(dp2456
sg62
g2282
sg55
(lp2457
g48
(g69
g50
NtRp2458
(dp2459
g53
(dp2460
g73
g74
ssg62
g2454
sg55
(lp2461
S'HTTP_REFERER'
p2462
asbag48
(g69
g50
NtRp2463
(dp2464
g53
(dp2465
g80
g81
ssg62
g2454
sg55
(lp2466
S':'
asbag48
(g69
g50
NtRp2467
(dp2468
g53
(dp2469
sg62
g2454
sg55
(lp2470
g48
(g49
g50
NtRp2471
(dp2472
g53
(dp2473
g61
I3
ssg62
g2467
sg55
(lp2474
g1439
asbasbasbag48
(g64
g50
NtRp2475
(dp2476
g53
(dp2477
sg62
g2282
sg55
(lp2478
g48
(g69
g50
NtRp2479
(dp2480
g53
(dp2481
g73
g74
ssg62
g2475
sg55
(lp2482
S'HTTP_USER_AGENT'
p2483
asbag48
(g69
g50
NtRp2484
(dp2485
g53
(dp2486
g80
g81
ssg62
g2475
sg55
(lp2487
S':'
asbag48
(g69
g50
NtRp2488
(dp2489
g53
(dp2490
sg62
g2475
sg55
(lp2491
g48
(g49
g50
NtRp2492
(dp2493
g53
(dp2494
g61
I3
ssg62
g2488
sg55
(lp2495
g1461
asbasbasbag48
(g64
g50
NtRp2496
(dp2497
g53
(dp2498
sg62
g2282
sg55
(lp2499
g48
(g69
g50
NtRp2500
(dp2501
g53
(dp2502
g73
g74
ssg62
g2496
sg55
(lp2503
S'PATH_INFO'
p2504
asbag48
(g69
g50
NtRp2505
(dp2506
g53
(dp2507
g80
g81
ssg62
g2496
sg55
(lp2508
S':'
asbag48
(g69
g50
NtRp2509
(dp2510
g53
(dp2511
sg62
g2496
sg55
(lp2512
g48
(g49
g50
NtRp2513
(dp2514
g53
(dp2515
g61
I3
ssg62
g2509
sg55
(lp2516
g1504
asbasbasbag48
(g64
g50
NtRp2517
(dp2518
g53
(dp2519
sg62
g2282
sg55
(lp2520
g48
(g69
g50
NtRp2521
(dp2522
g53
(dp2523
g73
g74
ssg62
g2517
sg55
(lp2524
S'QUERY_STRING'
p2525
asbag48
(g69
g50
NtRp2526
(dp2527
g53
(dp2528
g80
g81
ssg62
g2517
sg55
(lp2529
S':'
asbag48
(g69
g50
NtRp2530
(dp2531
g53
(dp2532
sg62
g2517
sg55
(lp2533
g48
(g49
g50
NtRp2534
(dp2535
g53
(dp2536
g61
I3
ssg62
g2530
sg55
(lp2537
S''
asbasbasbag48
(g64
g50
NtRp2538
(dp2539
g53
(dp2540
sg62
g2282
sg55
(lp2541
g48
(g69
g50
NtRp2542
(dp2543
g53
(dp2544
g73
g74
ssg62
g2538
sg55
(lp2545
S'REMOTE_ADDR'
p2546
asbag48
(g69
g50
NtRp2547
(dp2548
g53
(dp2549
g80
g81
ssg62
g2538
sg55
(lp2550
S':'
asbag48
(g69
g50
NtRp2551
(dp2552
g53
(dp2553
sg62
g2538
sg55
(lp2554
g48
(g49
g50
NtRp2555
(dp2556
g53
(dp2557
g61
I3
ssg62
g2551
sg55
(lp2558
g181
asbasbasbag48
(g64
g50
NtRp2559
(dp2560
g53
(dp2561
sg62
g2282
sg55
(lp2562
g48
(g69
g50
NtRp2563
(dp2564
g53
(dp2565
g73
g74
ssg62
g2559
sg55
(lp2566
S'REMOTE_PORT'
p2567
asbag48
(g69
g50
NtRp2568
(dp2569
g53
(dp2570
g80
g81
ssg62
g2559
sg55
(lp2571
S':'
asbag48
(g69
g50
NtRp2572
(dp2573
g53
(dp2574
sg62
g2559
sg55
(lp2575
g48
(g49
g50
NtRp2576
(dp2577
g53
(dp2578
g61
I3
ssg62
g2572
sg55
(lp2579
g1568
asbasbasbag48
(g64
g50
NtRp2580
(dp2581
g53
(dp2582
sg62
g2282
sg55
(lp2583
g48
(g69
g50
NtRp2584
(dp2585
g53
(dp2586
g73
g74
ssg62
g2580
sg55
(lp2587
S'REQUEST_METHOD'
p2588
asbag48
(g69
g50
NtRp2589
(dp2590
g53
(dp2591
g80
g81
ssg62
g2580
sg55
(lp2592
S':'
asbag48
(g69
g50
NtRp2593
(dp2594
g53
(dp2595
sg62
g2580
sg55
(lp2596
g48
(g49
g50
NtRp2597
(dp2598
g53
(dp2599
g61
I3
ssg62
g2593
sg55
(lp2600
g1590
asbasbasbag48
(g64
g50
NtRp2601
(dp2602
g53
(dp2603
sg62
g2282
sg55
(lp2604
g48
(g69
g50
NtRp2605
(dp2606
g53
(dp2607
g73
g74
ssg62
g2601
sg55
(lp2608
S'SCRIPT_NAME'
p2609
asbag48
(g69
g50
NtRp2610
(dp2611
g53
(dp2612
g80
g81
ssg62
g2601
sg55
(lp2613
S':'
asbag48
(g69
g50
NtRp2614
(dp2615
g53
(dp2616
sg62
g2601
sg55
(lp2617
g48
(g49
g50
NtRp2618
(dp2619
g53
(dp2620
g61
I3
ssg62
g2614
sg55
(lp2621
S''
asbasbasbag48
(g64
g50
NtRp2622
(dp2623
g53
(dp2624
sg62
g2282
sg55
(lp2625
g48
(g69
g50
NtRp2626
(dp2627
g53
(dp2628
g73
g74
ssg62
g2622
sg55
(lp2629
S'SERVER_NAME'
p2630
asbag48
(g69
g50
NtRp2631
(dp2632
g53
(dp2633
g80
g81
ssg62
g2622
sg55
(lp2634
S':'
asbag48
(g69
g50
NtRp2635
(dp2636
g53
(dp2637
sg62
g2622
sg55
(lp2638
g48
(g49
g50
NtRp2639
(dp2640
g53
(dp2641
g61
I3
ssg62
g2635
sg55
(lp2642
g1633
asbasbasbag48
(g64
g50
NtRp2643
(dp2644
g53
(dp2645
sg62
g2282
sg55
(lp2646
g48
(g69
g50
NtRp2647
(dp2648
g53
(dp2649
g73
g74
ssg62
g2643
sg55
(lp2650
S'SERVER_PORT'
p2651
asbag48
(g69
g50
NtRp2652
(dp2653
g53
(dp2654
g80
g81
ssg62
g2643
sg55
(lp2655
S':'
asbag48
(g69
g50
NtRp2656
(dp2657
g53
(dp2658
sg62
g2643
sg55
(lp2659
g48
(g49
g50
NtRp2660
(dp2661
g53
(dp2662
g61
I3
ssg62
g2656
sg55
(lp2663
g1655
asbasbasbag48
(g64
g50
NtRp2664
(dp2665
g53
(dp2666
sg62
g2282
sg55
(lp2667
g48
(g69
g50
NtRp2668
(dp2669
g53
(dp2670
g73
g74
ssg62
g2664
sg55
(lp2671
S'SERVER_PROTOCOL'
p2672
asbag48
(g69
g50
NtRp2673
(dp2674
g53
(dp2675
g80
g81
ssg62
g2664
sg55
(lp2676
S':'
asbag48
(g69
g50
NtRp2677
(dp2678
g53
(dp2679
sg62
g2664
sg55
(lp2680
g48
(g49
g50
NtRp2681
(dp2682
g53
(dp2683
g61
I3
ssg62
g2677
sg55
(lp2684
g1677
asbasbasbag48
(g64
g50
NtRp2685
(dp2686
g53
(dp2687
sg62
g2282
sg55
(lp2688
g48
(g69
g50
NtRp2689
(dp2690
g53
(dp2691
g73
g74
ssg62
g2685
sg55
(lp2692
S'SERVER_SOFTWARE'
p2693
asbag48
(g69
g50
NtRp2694
(dp2695
g53
(dp2696
g80
g81
ssg62
g2685
sg55
(lp2697
S':'
asbag48
(g69
g50
NtRp2698
(dp2699
g53
(dp2700
sg62
g2685
sg55
(lp2701
g48
(g49
g50
NtRp2702
(dp2703
g53
(dp2704
g61
I3
ssg62
g2698
sg55
(lp2705
g1699
asbasbasbag48
(g64
g50
NtRp2706
(dp2707
g53
(dp2708
sg62
g2282
sg55
(lp2709
g48
(g69
g50
NtRp2710
(dp2711
g53
(dp2712
g73
g74
ssg62
g2706
sg55
(lp2713
S'wsgi.errors'
p2714
asbag48
(g69
g50
NtRp2715
(dp2716
g53
(dp2717
g80
g81
ssg62
g2706
sg55
(lp2718
S':'
asbag48
(g69
g50
NtRp2719
(dp2720
g53
(dp2721
sg62
g2706
sg55
(lp2722
g48
(g49
g50
NtRp2723
(dp2724
g53
(dp2725
g61
I3
ssg62
g2719
sg55
(lp2726
S"<open file '<stderr>', mode 'w' at 0x004200B0>"
p2727
asbasbasbag48
(g64
g50
NtRp2728
(dp2729
g53
(dp2730
sg62
g2282
sg55
(lp2731
g48
(g69
g50
NtRp2732
(dp2733
g53
(dp2734
g73
g74
ssg62
g2728
sg55
(lp2735
S'wsgi.file_wrapper'
p2736
asbag48
(g69
g50
NtRp2737
(dp2738
g53
(dp2739
g80
g81
ssg62
g2728
sg55
(lp2740
S':'
asbag48
(g69
g50
NtRp2741
(dp2742
g53
(dp2743
sg62
g2728
sg55
(lp2744
g48
(g49
g50
NtRp2745
(dp2746
g53
(dp2747
g61
I3
ssg62
g2741
sg55
(lp2748
S'<class gluon.rocket.FileWrapper at 0x031911B0>'
p2749
asbasbasbag48
(g64
g50
NtRp2750
(dp2751
g53
(dp2752
sg62
g2282
sg55
(lp2753
g48
(g69
g50
NtRp2754
(dp2755
g53
(dp2756
g73
g74
ssg62
g2750
sg55
(lp2757
S'wsgi.input'
p2758
asbag48
(g69
g50
NtRp2759
(dp2760
g53
(dp2761
g80
g81
ssg62
g2750
sg55
(lp2762
S':'
asbag48
(g69
g50
NtRp2763
(dp2764
g53
(dp2765
sg62
g2750
sg55
(lp2766
g48
(g49
g50
NtRp2767
(dp2768
g53
(dp2769
g61
I3
ssg62
g2763
sg55
(lp2770
S'<cStringIO.StringO object at 0x08148E60>'
p2771
asbasbasbag48
(g64
g50
NtRp2772
(dp2773
g53
(dp2774
sg62
g2282
sg55
(lp2775
g48
(g69
g50
NtRp2776
(dp2777
g53
(dp2778
g73
g74
ssg62
g2772
sg55
(lp2779
S'wsgi.multiprocess'
p2780
asbag48
(g69
g50
NtRp2781
(dp2782
g53
(dp2783
g80
g81
ssg62
g2772
sg55
(lp2784
S':'
asbag48
(g69
g50
NtRp2785
(dp2786
g53
(dp2787
sg62
g2772
sg55
(lp2788
g48
(g49
g50
NtRp2789
(dp2790
g53
(dp2791
g61
I3
ssg62
g2785
sg55
(lp2792
g91
asbasbasbag48
(g64
g50
NtRp2793
(dp2794
g53
(dp2795
sg62
g2282
sg55
(lp2796
g48
(g69
g50
NtRp2797
(dp2798
g53
(dp2799
g73
g74
ssg62
g2793
sg55
(lp2800
S'wsgi.multithread'
p2801
asbag48
(g69
g50
NtRp2802
(dp2803
g53
(dp2804
g80
g81
ssg62
g2793
sg55
(lp2805
S':'
asbag48
(g69
g50
NtRp2806
(dp2807
g53
(dp2808
sg62
g2793
sg55
(lp2809
g48
(g49
g50
NtRp2810
(dp2811
g53
(dp2812
g61
I3
ssg62
g2806
sg55
(lp2813
g1873
asbasbasbag48
(g64
g50
NtRp2814
(dp2815
g53
(dp2816
sg62
g2282
sg55
(lp2817
g48
(g69
g50
NtRp2818
(dp2819
g53
(dp2820
g73
g74
ssg62
g2814
sg55
(lp2821
S'wsgi.run_once'
p2822
asbag48
(g69
g50
NtRp2823
(dp2824
g53
(dp2825
g80
g81
ssg62
g2814
sg55
(lp2826
S':'
asbag48
(g69
g50
NtRp2827
(dp2828
g53
(dp2829
sg62
g2814
sg55
(lp2830
g48
(g49
g50
NtRp2831
(dp2832
g53
(dp2833
g61
I3
ssg62
g2827
sg55
(lp2834
g91
asbasbasbag48
(g64
g50
NtRp2835
(dp2836
g53
(dp2837
sg62
g2282
sg55
(lp2838
g48
(g69
g50
NtRp2839
(dp2840
g53
(dp2841
g73
g74
ssg62
g2835
sg55
(lp2842
S'wsgi.url_scheme'
p2843
asbag48
(g69
g50
NtRp2844
(dp2845
g53
(dp2846
g80
g81
ssg62
g2835
sg55
(lp2847
S':'
asbag48
(g69
g50
NtRp2848
(dp2849
g53
(dp2850
sg62
g2835
sg55
(lp2851
g48
(g49
g50
NtRp2852
(dp2853
g53
(dp2854
g61
I3
ssg62
g2848
sg55
(lp2855
g1916
asbasbasbag48
(g64
g50
NtRp2856
(dp2857
g53
(dp2858
sg62
g2282
sg55
(lp2859
g48
(g69
g50
NtRp2860
(dp2861
g53
(dp2862
g73
g74
ssg62
g2856
sg55
(lp2863
S'wsgi.version'
p2864
asbag48
(g69
g50
NtRp2865
(dp2866
g53
(dp2867
g80
g81
ssg62
g2856
sg55
(lp2868
S':'
asbag48
(g69
g50
NtRp2869
(dp2870
g53
(dp2871
sg62
g2856
sg55
(lp2872
g48
(g49
g50
NtRp2873
(dp2874
g53
(dp2875
g61
I3
ssg62
g2869
sg55
(lp2876
S'1'
asbasbasbasbasbasbasbasbasbasbasbasbasbsS'frames'
p2877
(lp2878
(dp2879
S'file'
p2880
S'C:\\Users\\Atomico\\web2py\\gluon\\restricted.py'
p2881
sS'dump'
p2882
(dp2883
sS'lnum'
p2884
I192
sS'lines'
p2885
(dp2886
sS'call'
p2887
S'(code=\'response.write(\\\'<!DOCTYPE html>\\\\n<html lang="\\\', ...t   -->    \\\\n  </body>\\\\n</html>\\\\n\\\', escape=False)\', environment={\'A\': <class \'gluon.html.A\'>, \'B\': <class \'gluon.html.B\'>, \'BEAUTIFY\': <class \'gluon.html.BEAUTIFY\'>, \'BODY\': <class \'gluon.html.BODY\'>, \'BR\': <class \'gluon.html.BR\'>, \'BUTTON\': <class \'gluon.html.BUTTON\'>, \'CAT\': <class \'gluon.html.CAT\'>, \'CENTER\': <class \'gluon.html.CENTER\'>, \'CLEANUP\': <class \'gluon.validators.CLEANUP\'>, \'CODE\': <class \'gluon.html.CODE\'>, ...}, layer=r\'C:\\Users\\Atomico\\web2py\\applications\\Desglosar_Emails\\views\\default/entrada_mod3.html\')'
p2888
sS'func'
p2889
S'restricted'
p2890
sa(dp2891
g2880
S'C:\\Users\\Atomico\\web2py\\applications\\Desglosar_Emails\\views\\default\\entrada_mod3.html'
p2892
sg2882
(dp2893
sg2884
I103
sg2885
(dp2894
I96
S'    pass'
p2895
sI97
S'response.write(\'\\n\\n\\t  <!-- content -->\\n\\t  <div id="content" \', escape=False)'
p2896
sI98
S'response.write(XML(style_content))'
p2897
sI99
S"response.write(' >\\n\\t    ', escape=False)"
p2898
sI100
S"response.write('\\r\\n<h1>Esta es la plantilla default/entrada_mod3.html</h1>\\r\\n<h2>Formulario</h2>\\r\\n', escape=False)"
p2899
sI101
S'response.write(form)'
p2900
sI102
S"response.write('\\r\\n<br/>\\r\\n<h3>Tratamientos</h3>\\r\\n', escape=False)"
p2901
sI103
S'textual=db(db.info4.id==1).select()[0]'
p2902
sI104
S'txt=textual.texto'
p2903
sI105
S'import re'
p2904
sI106
S'pattern=re.compile("\\w+[.@&-_\\w]*")'
p2905
sI107
S'patternemail=re.compile("@\\w+\\.[.\\w]+")'
p2906
sI108
S'res=pattern.findall(txt)'
p2907
sI109
S'res2=patternemail.findall(txt)'
p2908
sI110
S"for i in res: response.write (i+'    ')"
p2909
sI111
S"response.write('En total son ', escape=False)"
p2910
sI112
S'response.write(len(res))'
p2911
sI113
S"response.write(' nombres sueltos <br/> ', escape=False)"
p2912
sI94
S"    response.write('Content Left Sidebar', escape=False)"
p2913
sI95
S"    response.write('\\t\\t  \\n            </div>\\n          </div><!-- left_sidebar -->\\n\\t  ', escape=False)"
p2914
ssg2887
S'()'
p2915
sg2889
S'<module>'
p2916
sa(dp2917
g2880
S'C:\\Users\\Atomico\\web2py\\gluon\\dal.py'
p2918
sg2882
(dp2919
sg2884
I5619
sg2885
(dp2920
sg2887
S'(self=<gluon.dal.Rows object at 0x07FDAC10>, i=0)'
p2921
sg2889
g19
sasS'pyver'
p2922
S'Python 2.5.4: C:\\Users\\Atomico\\web2py\\web2py.exe'
p2923
sS'session'
p2924
g48
(g49
g50
NtRp2925
(dp2926
g53
(dp2927
sg55
(lp2928
g48
(g57
g50
NtRp2929
(dp2930
g53
(dp2931
g61
I5
ssg62
Nsg55
(lp2932
g48
(g64
g50
NtRp2933
(dp2934
g53
(dp2935
sg62
g2929
sg55
(lp2936
g48
(g69
g50
NtRp2937
(dp2938
g53
(dp2939
g73
g74
ssg62
g2933
sg55
(lp2940
S'argumentos'
p2941
asbag48
(g69
g50
NtRp2942
(dp2943
g53
(dp2944
g80
g81
ssg62
g2933
sg55
(lp2945
S':'
asbag48
(g69
g50
NtRp2946
(dp2947
g53
(dp2948
sg62
g2933
sg55
(lp2949
g48
(g49
g50
NtRp2950
(dp2951
g53
(dp2952
g61
I5
ssg62
g2946
sg55
(lp2953
S''
asbasbasbag48
(g64
g50
NtRp2954
(dp2955
g53
(dp2956
sg62
g2929
sg55
(lp2957
g48
(g69
g50
NtRp2958
(dp2959
g53
(dp2960
g73
g74
ssg62
g2954
sg55
(lp2961
S'last_query'
p2962
asbag48
(g69
g50
NtRp2963
(dp2964
g53
(dp2965
g80
g81
ssg62
g2954
sg55
(lp2966
S':'
asbag48
(g69
g50
NtRp2967
(dp2968
g53
(dp2969
sg62
g2954
sg55
(lp2970
g48
(g49
g50
NtRp2971
(dp2972
g53
(dp2973
g61
I5
ssg62
g2967
sg55
(lp2974
S'db.info4.id>0'
p2975
asbasbasbasbasbsS'etype'
p2976
S"<type 'exceptions.IndexError'>"
p2977
sS'date'
p2978
S'Tue Sep 20 17:56:01 2011'
p2979
sS'response'
p2980
g48
(g49
g50
NtRp2981
(dp2982
g53
(dp2983
sg55
(lp2984
g48
(g57
g50
NtRp2985
(dp2986
g53
(dp2987
g61
I5
ssg62
Nsg55
(lp2988
g48
(g64
g50
NtRp2989
(dp2990
g53
(dp2991
sg62
g2985
sg55
(lp2992
g48
(g69
g50
NtRp2993
(dp2994
g53
(dp2995
g73
g74
ssg62
g2989
sg55
(lp2996
g146
asbag48
(g69
g50
NtRp2997
(dp2998
g53
(dp2999
g80
g81
ssg62
g2989
sg55
(lp3000
S':'
asbag48
(g69
g50
NtRp3001
(dp3002
g53
(dp3003
sg62
g2989
sg55
(lp3004
g48
(g49
g50
NtRp3005
(dp3006
g53
(dp3007
g61
I5
ssg62
g3001
sg55
(lp3008
S'<cStringIO.StringO object at 0x08148040>'
p3009
asbasbasbag48
(g64
g50
NtRp3010
(dp3011
g53
(dp3012
sg62
g2985
sg55
(lp3013
g48
(g69
g50
NtRp3014
(dp3015
g53
(dp3016
g73
g74
ssg62
g3010
sg55
(lp3017
g212
asbag48
(g69
g50
NtRp3018
(dp3019
g53
(dp3020
g80
g81
ssg62
g3010
sg55
(lp3021
S':'
asbag48
(g69
g50
NtRp3022
(dp3023
g53
(dp3024
sg62
g3010
sg55
(lp3025
g48
(g49
g50
NtRp3026
(dp3027
g53
(dp3028
g61
I5
ssg62
g3022
sg55
(lp3029
g48
(g57
g50
NtRp3030
(dp3031
g53
(dp3032
g61
I4
ssg62
Nsg55
(lp3033
g48
(g64
g50
NtRp3034
(dp3035
g53
(dp3036
sg62
g3030
sg55
(lp3037
g48
(g69
g50
NtRp3038
(dp3039
g53
(dp3040
g73
g74
ssg62
g3034
sg55
(lp3041
S'session_id_desglosar_emails'
p3042
asbag48
(g69
g50
NtRp3043
(dp3044
g53
(dp3045
g80
g81
ssg62
g3034
sg55
(lp3046
S':'
asbag48
(g69
g50
NtRp3047
(dp3048
g53
(dp3049
sg62
g3034
sg55
(lp3050
g48
(g49
g50
NtRp3051
(dp3052
g53
(dp3053
g61
I4
ssg62
g3047
sg55
(lp3054
g48
(g57
g50
NtRp3055
(dp3056
g53
(dp3057
g61
I3
ssg62
Nsg55
(lp3058
g48
(g64
g50
NtRp3059
(dp3060
g53
(dp3061
sg62
g3055
sg55
(lp3062
g48
(g69
g50
NtRp3063
(dp3064
g53
(dp3065
g73
g74
ssg62
g3059
sg55
(lp3066
g262
asbag48
(g69
g50
NtRp3067
(dp3068
g53
(dp3069
g80
g81
ssg62
g3059
sg55
(lp3070
S':'
asbag48
(g69
g50
NtRp3071
(dp3072
g53
(dp3073
sg62
g3059
sg55
(lp3074
g48
(g49
g50
NtRp3075
(dp3076
g53
(dp3077
g61
I3
ssg62
g3071
sg55
(lp3078
S''
asbasbasbag48
(g64
g50
NtRp3079
(dp3080
g53
(dp3081
sg62
g3055
sg55
(lp3082
g48
(g69
g50
NtRp3083
(dp3084
g53
(dp3085
g73
g74
ssg62
g3079
sg55
(lp3086
g283
asbag48
(g69
g50
NtRp3087
(dp3088
g53
(dp3089
g80
g81
ssg62
g3079
sg55
(lp3090
S':'
asbag48
(g69
g50
NtRp3091
(dp3092
g53
(dp3093
sg62
g3079
sg55
(lp3094
g48
(g49
g50
NtRp3095
(dp3096
g53
(dp3097
g61
I3
ssg62
g3091
sg55
(lp3098
S''
asbasbasbag48
(g64
g50
NtRp3099
(dp3100
g53
(dp3101
sg62
g3055
sg55
(lp3102
g48
(g69
g50
NtRp3103
(dp3104
g53
(dp3105
g73
g74
ssg62
g3099
sg55
(lp3106
g304
asbag48
(g69
g50
NtRp3107
(dp3108
g53
(dp3109
g80
g81
ssg62
g3099
sg55
(lp3110
S':'
asbag48
(g69
g50
NtRp3111
(dp3112
g53
(dp3113
sg62
g3099
sg55
(lp3114
g48
(g49
g50
NtRp3115
(dp3116
g53
(dp3117
g61
I3
ssg62
g3111
sg55
(lp3118
S''
asbasbasbag48
(g64
g50
NtRp3119
(dp3120
g53
(dp3121
sg62
g3055
sg55
(lp3122
g48
(g69
g50
NtRp3123
(dp3124
g53
(dp3125
g73
g74
ssg62
g3119
sg55
(lp3126
g325
asbag48
(g69
g50
NtRp3127
(dp3128
g53
(dp3129
g80
g81
ssg62
g3119
sg55
(lp3130
S':'
asbag48
(g69
g50
NtRp3131
(dp3132
g53
(dp3133
sg62
g3119
sg55
(lp3134
g48
(g49
g50
NtRp3135
(dp3136
g53
(dp3137
g61
I3
ssg62
g3131
sg55
(lp3138
S''
asbasbasbag48
(g64
g50
NtRp3139
(dp3140
g53
(dp3141
sg62
g3055
sg55
(lp3142
g48
(g69
g50
NtRp3143
(dp3144
g53
(dp3145
g73
g74
ssg62
g3139
sg55
(lp3146
g346
asbag48
(g69
g50
NtRp3147
(dp3148
g53
(dp3149
g80
g81
ssg62
g3139
sg55
(lp3150
S':'
asbag48
(g69
g50
NtRp3151
(dp3152
g53
(dp3153
sg62
g3139
sg55
(lp3154
g48
(g49
g50
NtRp3155
(dp3156
g53
(dp3157
g61
I3
ssg62
g3151
sg55
(lp3158
S'/'
asbasbasbag48
(g64
g50
NtRp3159
(dp3160
g53
(dp3161
sg62
g3055
sg55
(lp3162
g48
(g69
g50
NtRp3163
(dp3164
g53
(dp3165
g73
g74
ssg62
g3159
sg55
(lp3166
g367
asbag48
(g69
g50
NtRp3167
(dp3168
g53
(dp3169
g80
g81
ssg62
g3159
sg55
(lp3170
S':'
asbag48
(g69
g50
NtRp3171
(dp3172
g53
(dp3173
sg62
g3159
sg55
(lp3174
g48
(g49
g50
NtRp3175
(dp3176
g53
(dp3177
g61
I3
ssg62
g3171
sg55
(lp3178
S''
asbasbasbag48
(g64
g50
NtRp3179
(dp3180
g53
(dp3181
sg62
g3055
sg55
(lp3182
g48
(g69
g50
NtRp3183
(dp3184
g53
(dp3185
g73
g74
ssg62
g3179
sg55
(lp3186
g388
asbag48
(g69
g50
NtRp3187
(dp3188
g53
(dp3189
g80
g81
ssg62
g3179
sg55
(lp3190
S':'
asbag48
(g69
g50
NtRp3191
(dp3192
g53
(dp3193
sg62
g3179
sg55
(lp3194
g48
(g49
g50
NtRp3195
(dp3196
g53
(dp3197
g61
I3
ssg62
g3191
sg55
(lp3198
S''
asbasbasbasbasbasbasbasbasbasbasbag48
(g64
g50
NtRp3199
(dp3200
g53
(dp3201
sg62
g2985
sg55
(lp3202
g48
(g69
g50
NtRp3203
(dp3204
g53
(dp3205
g73
g74
ssg62
g3199
sg55
(lp3206
S'files'
p3207
asbag48
(g69
g50
NtRp3208
(dp3209
g53
(dp3210
g80
g81
ssg62
g3199
sg55
(lp3211
S':'
asbag48
(g69
g50
NtRp3212
(dp3213
g53
(dp3214
sg62
g3199
sg55
(lp3215
g48
(g49
g50
NtRp3216
(dp3217
g53
(dp3218
g61
I5
ssg62
g3212
sg55
(lp3219
g48
(g57
g50
NtRp3220
(dp3221
g53
(dp3222
g61
I4
ssg62
Nsg55
(lp3223
g48
(g64
g50
NtRp3224
(dp3225
g53
(dp3226
sg62
g3220
sg55
(lp3227
g48
(g69
g50
NtRp3228
(dp3229
g53
(dp3230
sg62
g3224
sg55
(lp3231
g48
(g49
g50
NtRp3232
(dp3233
g53
(dp3234
g61
I4
ssg62
g3228
sg55
(lp3235
S'/Desglosar_Emails/static/js/jquery.js'
p3236
asbasbasbag48
(g64
g50
NtRp3237
(dp3238
g53
(dp3239
sg62
g3220
sg55
(lp3240
g48
(g69
g50
NtRp3241
(dp3242
g53
(dp3243
sg62
g3237
sg55
(lp3244
g48
(g49
g50
NtRp3245
(dp3246
g53
(dp3247
g61
I4
ssg62
g3241
sg55
(lp3248
S'/Desglosar_Emails/static/css/calendar.css'
p3249
asbasbasbag48
(g64
g50
NtRp3250
(dp3251
g53
(dp3252
sg62
g3220
sg55
(lp3253
g48
(g69
g50
NtRp3254
(dp3255
g53
(dp3256
sg62
g3250
sg55
(lp3257
g48
(g49
g50
NtRp3258
(dp3259
g53
(dp3260
g61
I4
ssg62
g3254
sg55
(lp3261
S'/Desglosar_Emails/static/js/calendar.js'
p3262
asbasbasbag48
(g64
g50
NtRp3263
(dp3264
g53
(dp3265
sg62
g3220
sg55
(lp3266
g48
(g69
g50
NtRp3267
(dp3268
g53
(dp3269
sg62
g3263
sg55
(lp3270
g48
(g49
g50
NtRp3271
(dp3272
g53
(dp3273
g61
I4
ssg62
g3267
sg55
(lp3274
S'/Desglosar_Emails/static/css/base.css'
p3275
asbasbasbag48
(g64
g50
NtRp3276
(dp3277
g53
(dp3278
sg62
g3220
sg55
(lp3279
g48
(g69
g50
NtRp3280
(dp3281
g53
(dp3282
sg62
g3276
sg55
(lp3283
g48
(g49
g50
NtRp3284
(dp3285
g53
(dp3286
g61
I4
ssg62
g3280
sg55
(lp3287
S'/Desglosar_Emails/static/css/superfish.css'
p3288
asbasbasbag48
(g64
g50
NtRp3289
(dp3290
g53
(dp3291
sg62
g3220
sg55
(lp3292
g48
(g69
g50
NtRp3293
(dp3294
g53
(dp3295
sg62
g3289
sg55
(lp3296
g48
(g49
g50
NtRp3297
(dp3298
g53
(dp3299
g61
I4
ssg62
g3293
sg55
(lp3300
S'/Desglosar_Emails/static/js/superfish.js'
p3301
asbasbasbasbasbasbasbag48
(g64
g50
NtRp3302
(dp3303
g53
(dp3304
sg62
g2985
sg55
(lp3305
g48
(g69
g50
NtRp3306
(dp3307
g53
(dp3308
g73
g74
ssg62
g3302
sg55
(lp3309
S'flash'
p3310
asbag48
(g69
g50
NtRp3311
(dp3312
g53
(dp3313
g80
g81
ssg62
g3302
sg55
(lp3314
S':'
asbag48
(g69
g50
NtRp3315
(dp3316
g53
(dp3317
sg62
g3302
sg55
(lp3318
g48
(g49
g50
NtRp3319
(dp3320
g53
(dp3321
g61
I5
ssg62
g3315
sg55
(lp3322
S''
asbasbasbag48
(g64
g50
NtRp3323
(dp3324
g53
(dp3325
sg62
g2985
sg55
(lp3326
g48
(g69
g50
NtRp3327
(dp3328
g53
(dp3329
g73
g74
ssg62
g3323
sg55
(lp3330
S'generic_patterns'
p3331
asbag48
(g69
g50
NtRp3332
(dp3333
g53
(dp3334
g80
g81
ssg62
g3323
sg55
(lp3335
S':'
asbag48
(g69
g50
NtRp3336
(dp3337
g53
(dp3338
sg62
g3323
sg55
(lp3339
g48
(g49
g50
NtRp3340
(dp3341
g53
(dp3342
g61
I5
ssg62
g3336
sg55
(lp3343
g48
(g57
g50
NtRp3344
(dp3345
g53
(dp3346
g61
I4
ssg62
Nsg55
(lp3347
sbasbasbasbag48
(g64
g50
NtRp3348
(dp3349
g53
(dp3350
sg62
g2985
sg55
(lp3351
g48
(g69
g50
NtRp3352
(dp3353
g53
(dp3354
g73
g74
ssg62
g3348
sg55
(lp3355
S'headers'
p3356
asbag48
(g69
g50
NtRp3357
(dp3358
g53
(dp3359
g80
g81
ssg62
g3348
sg55
(lp3360
S':'
asbag48
(g69
g50
NtRp3361
(dp3362
g53
(dp3363
sg62
g3348
sg55
(lp3364
g48
(g49
g50
NtRp3365
(dp3366
g53
(dp3367
g61
I5
ssg62
g3361
sg55
(lp3368
g48
(g57
g50
NtRp3369
(dp3370
g53
(dp3371
g61
I4
ssg62
Nsg55
(lp3372
g48
(g64
g50
NtRp3373
(dp3374
g53
(dp3375
sg62
g3369
sg55
(lp3376
g48
(g69
g50
NtRp3377
(dp3378
g53
(dp3379
g73
g74
ssg62
g3373
sg55
(lp3380
S'Cache-Control'
p3381
asbag48
(g69
g50
NtRp3382
(dp3383
g53
(dp3384
g80
g81
ssg62
g3373
sg55
(lp3385
S':'
asbag48
(g69
g50
NtRp3386
(dp3387
g53
(dp3388
sg62
g3373
sg55
(lp3389
g48
(g49
g50
NtRp3390
(dp3391
g53
(dp3392
g61
I4
ssg62
g3386
sg55
(lp3393
S'no-store, no-cache, must-revalidate, post-check=0, pre-check=0'
p3394
asbasbasbag48
(g64
g50
NtRp3395
(dp3396
g53
(dp3397
sg62
g3369
sg55
(lp3398
g48
(g69
g50
NtRp3399
(dp3400
g53
(dp3401
g73
g74
ssg62
g3395
sg55
(lp3402
S'Content-Type'
p3403
asbag48
(g69
g50
NtRp3404
(dp3405
g53
(dp3406
g80
g81
ssg62
g3395
sg55
(lp3407
S':'
asbag48
(g69
g50
NtRp3408
(dp3409
g53
(dp3410
sg62
g3395
sg55
(lp3411
g48
(g49
g50
NtRp3412
(dp3413
g53
(dp3414
g61
I4
ssg62
g3408
sg55
(lp3415
S'text/html; charset=utf-8'
p3416
asbasbasbag48
(g64
g50
NtRp3417
(dp3418
g53
(dp3419
sg62
g3369
sg55
(lp3420
g48
(g69
g50
NtRp3421
(dp3422
g53
(dp3423
g73
g74
ssg62
g3417
sg55
(lp3424
S'Expires'
p3425
asbag48
(g69
g50
NtRp3426
(dp3427
g53
(dp3428
g80
g81
ssg62
g3417
sg55
(lp3429
S':'
asbag48
(g69
g50
NtRp3430
(dp3431
g53
(dp3432
sg62
g3417
sg55
(lp3433
g48
(g49
g50
NtRp3434
(dp3435
g53
(dp3436
g61
I4
ssg62
g3430
sg55
(lp3437
S'Tue, 20 Sep 2011 15:56:01 GMT'
p3438
asbasbasbag48
(g64
g50
NtRp3439
(dp3440
g53
(dp3441
sg62
g3369
sg55
(lp3442
g48
(g69
g50
NtRp3443
(dp3444
g53
(dp3445
g73
g74
ssg62
g3439
sg55
(lp3446
S'Pragma'
p3447
asbag48
(g69
g50
NtRp3448
(dp3449
g53
(dp3450
g80
g81
ssg62
g3439
sg55
(lp3451
S':'
asbag48
(g69
g50
NtRp3452
(dp3453
g53
(dp3454
sg62
g3439
sg55
(lp3455
g48
(g49
g50
NtRp3456
(dp3457
g53
(dp3458
g61
I4
ssg62
g3452
sg55
(lp3459
S'no-cache'
p3460
asbasbasbag48
(g64
g50
NtRp3461
(dp3462
g53
(dp3463
sg62
g3369
sg55
(lp3464
g48
(g69
g50
NtRp3465
(dp3466
g53
(dp3467
g73
g74
ssg62
g3461
sg55
(lp3468
S'X-Powered-By'
p3469
asbag48
(g69
g50
NtRp3470
(dp3471
g53
(dp3472
g80
g81
ssg62
g3461
sg55
(lp3473
S':'
asbag48
(g69
g50
NtRp3474
(dp3475
g53
(dp3476
sg62
g3461
sg55
(lp3477
g48
(g49
g50
NtRp3478
(dp3479
g53
(dp3480
g61
I4
ssg62
g3474
sg55
(lp3481
S'web2py'
p3482
asbasbasbasbasbasbasbag48
(g64
g50
NtRp3483
(dp3484
g53
(dp3485
sg62
g2985
sg55
(lp3486
g48
(g69
g50
NtRp3487
(dp3488
g53
(dp3489
g73
g74
ssg62
g3483
sg55
(lp3490
S'menu'
p3491
asbag48
(g69
g50
NtRp3492
(dp3493
g53
(dp3494
g80
g81
ssg62
g3483
sg55
(lp3495
S':'
asbag48
(g69
g50
NtRp3496
(dp3497
g53
(dp3498
sg62
g3483
sg55
(lp3499
g48
(g49
g50
NtRp3500
(dp3501
g53
(dp3502
g61
I5
ssg62
g3496
sg55
(lp3503
g48
(g57
g50
NtRp3504
(dp3505
g53
(dp3506
g61
I4
ssg62
Nsg55
(lp3507
g48
(g64
g50
NtRp3508
(dp3509
g53
(dp3510
sg62
g3504
sg55
(lp3511
g48
(g69
g50
NtRp3512
(dp3513
g53
(dp3514
sg62
g3508
sg55
(lp3515
g48
(g49
g50
NtRp3516
(dp3517
g53
(dp3518
g61
I4
ssg62
g3512
sg55
(lp3519
g48
(g57
g50
NtRp3520
(dp3521
g53
(dp3522
g61
I3
ssg62
Nsg55
(lp3523
g48
(g64
g50
NtRp3524
(dp3525
g53
(dp3526
sg62
g3520
sg55
(lp3527
g48
(g69
g50
NtRp3528
(dp3529
g53
(dp3530
sg62
g3524
sg55
(lp3531
g48
(g49
g50
NtRp3532
(dp3533
g53
(dp3534
g61
I3
ssg62
g3528
sg55
(lp3535
cgluon.languages
lazyT_unpickle
p3536
(S't\x04\x00\x00\x00Home'
tRp3537
asbasbasbag48
(g64
g50
NtRp3538
(dp3539
g53
(dp3540
sg62
g3520
sg55
(lp3541
g48
(g69
g50
NtRp3542
(dp3543
g53
(dp3544
sg62
g3538
sg55
(lp3545
g48
(g49
g50
NtRp3546
(dp3547
g53
(dp3548
g61
I3
ssg62
g3542
sg55
(lp3549
g91
asbasbasbag48
(g64
g50
NtRp3550
(dp3551
g53
(dp3552
sg62
g3520
sg55
(lp3553
g48
(g69
g50
NtRp3554
(dp3555
g53
(dp3556
sg62
g3550
sg55
(lp3557
g48
(g49
g50
NtRp3558
(dp3559
g53
(dp3560
g61
I3
ssg62
g3554
sg55
(lp3561
S'/Desglosar_Emails/default/index'
p3562
asbasbasbag48
(g64
g50
NtRp3563
(dp3564
g53
(dp3565
sg62
g3520
sg55
(lp3566
g48
(g69
g50
NtRp3567
(dp3568
g53
(dp3569
sg62
g3563
sg55
(lp3570
g48
(g49
g50
NtRp3571
(dp3572
g53
(dp3573
g61
I3
ssg62
g3567
sg55
(lp3574
g48
(g57
g50
NtRp3575
(dp3576
g53
(dp3577
g61
I2
ssg62
Nsg55
(lp3578
sbasbasbasbasbasbasbasbag48
(g64
g50
NtRp3579
(dp3580
g53
(dp3581
sg62
g3504
sg55
(lp3582
g48
(g69
g50
NtRp3583
(dp3584
g53
(dp3585
sg62
g3579
sg55
(lp3586
g48
(g49
g50
NtRp3587
(dp3588
g53
(dp3589
g61
I4
ssg62
g3583
sg55
(lp3590
g48
(g57
g50
NtRp3591
(dp3592
g53
(dp3593
g61
I3
ssg62
Nsg55
(lp3594
g48
(g64
g50
NtRp3595
(dp3596
g53
(dp3597
sg62
g3591
sg55
(lp3598
g48
(g69
g50
NtRp3599
(dp3600
g53
(dp3601
sg62
g3595
sg55
(lp3602
g48
(g49
g50
NtRp3603
(dp3604
g53
(dp3605
g61
I3
ssg62
g3599
sg55
(lp3606
g3536
(S's\x08\x00\x00\x00This App'
tRp3607
asbasbasbag48
(g64
g50
NtRp3608
(dp3609
g53
(dp3610
sg62
g3591
sg55
(lp3611
g48
(g69
g50
NtRp3612
(dp3613
g53
(dp3614
sg62
g3608
sg55
(lp3615
g48
(g49
g50
NtRp3616
(dp3617
g53
(dp3618
g61
I3
ssg62
g3612
sg55
(lp3619
g91
asbasbasbag48
(g64
g50
NtRp3620
(dp3621
g53
(dp3622
sg62
g3591
sg55
(lp3623
g48
(g69
g50
NtRp3624
(dp3625
g53
(dp3626
sg62
g3620
sg55
(lp3627
g48
(g49
g50
NtRp3628
(dp3629
g53
(dp3630
g61
I3
ssg62
g3624
sg55
(lp3631
S'/admin/default/design/Desglosar_Emails'
p3632
asbasbasbag48
(g64
g50
NtRp3633
(dp3634
g53
(dp3635
sg62
g3591
sg55
(lp3636
g48
(g69
g50
NtRp3637
(dp3638
g53
(dp3639
sg62
g3633
sg55
(lp3640
g48
(g49
g50
NtRp3641
(dp3642
g53
(dp3643
g61
I3
ssg62
g3637
sg55
(lp3644
g48
(g57
g50
NtRp3645
(dp3646
g53
(dp3647
g61
I2
ssg62
Nsg55
(lp3648
g48
(g64
g50
NtRp3649
(dp3650
g53
(dp3651
sg62
g3645
sg55
(lp3652
g48
(g69
g50
NtRp3653
(dp3654
g53
(dp3655
sg62
g3649
sg55
(lp3656
g48
(g49
g50
NtRp3657
(dp3658
g53
(dp3659
g61
I2
ssg62
g3653
sg55
(lp3660
g48
(g57
g50
NtRp3661
(dp3662
g53
(dp3663
g61
I1
ssg62
Nsg55
(lp3664
g48
(g64
g50
NtRp3665
(dp3666
g53
(dp3667
sg62
g3661
sg55
(lp3668
g48
(g69
g50
NtRp3669
(dp3670
g53
(dp3671
sg62
g3665
sg55
(lp3672
g48
(g49
g50
NtRp3673
(dp3674
g53
(dp3675
g61
I1
ssg62
g3669
sg55
(lp3676
g3536
(S't\x0b\x00\x00\x00Controlador'
tRp3677
asbasbasbag48
(g64
g50
NtRp3678
(dp3679
g53
(dp3680
sg62
g3661
sg55
(lp3681
g48
(g69
g50
NtRp3682
(dp3683
g53
(dp3684
sg62
g3678
sg55
(lp3685
g48
(g49
g50
NtRp3686
(dp3687
g53
(dp3688
g61
I1
ssg62
g3682
sg55
(lp3689
I00
asbasbasbag48
(g64
g50
NtRp3690
(dp3691
g53
(dp3692
sg62
g3661
sg55
(lp3693
g48
(g69
g50
NtRp3694
(dp3695
g53
(dp3696
sg62
g3690
sg55
(lp3697
g48
(g49
g50
NtRp3698
(dp3699
g53
(dp3700
g61
I1
ssg62
g3694
sg55
(lp3701
S'/admin/default/edit/Desglosar_Emails/controllers/default.py'
p3702
asbasbasbasbasbasbasbag48
(g64
g50
NtRp3703
(dp3704
g53
(dp3705
sg62
g3645
sg55
(lp3706
g48
(g69
g50
NtRp3707
(dp3708
g53
(dp3709
sg62
g3703
sg55
(lp3710
g48
(g49
g50
NtRp3711
(dp3712
g53
(dp3713
g61
I2
ssg62
g3707
sg55
(lp3714
g48
(g57
g50
NtRp3715
(dp3716
g53
(dp3717
g61
I1
ssg62
Nsg55
(lp3718
g48
(g64
g50
NtRp3719
(dp3720
g53
(dp3721
sg62
g3715
sg55
(lp3722
g48
(g69
g50
NtRp3723
(dp3724
g53
(dp3725
sg62
g3719
sg55
(lp3726
g48
(g49
g50
NtRp3727
(dp3728
g53
(dp3729
g61
I1
ssg62
g3723
sg55
(lp3730
g3536
(S't\x05\x00\x00\x00Vista'
tRp3731
asbasbasbag48
(g64
g50
NtRp3732
(dp3733
g53
(dp3734
sg62
g3715
sg55
(lp3735
g48
(g69
g50
NtRp3736
(dp3737
g53
(dp3738
sg62
g3732
sg55
(lp3739
g48
(g49
g50
NtRp3740
(dp3741
g53
(dp3742
g61
I1
ssg62
g3736
sg55
(lp3743
I00
asbasbasbag48
(g64
g50
NtRp3744
(dp3745
g53
(dp3746
sg62
g3715
sg55
(lp3747
g48
(g69
g50
NtRp3748
(dp3749
g53
(dp3750
sg62
g3744
sg55
(lp3751
g48
(g49
g50
NtRp3752
(dp3753
g53
(dp3754
g61
I1
ssg62
g3748
sg55
(lp3755
S'/admin/default/edit/Desglosar_Emails/views/default/entrada_mod3.html'
p3756
asbasbasbasbasbasbasbag48
(g64
g50
NtRp3757
(dp3758
g53
(dp3759
sg62
g3645
sg55
(lp3760
g48
(g69
g50
NtRp3761
(dp3762
g53
(dp3763
sg62
g3757
sg55
(lp3764
g48
(g49
g50
NtRp3765
(dp3766
g53
(dp3767
g61
I2
ssg62
g3761
sg55
(lp3768
g48
(g57
g50
NtRp3769
(dp3770
g53
(dp3771
g61
I1
ssg62
Nsg55
(lp3772
g48
(g64
g50
NtRp3773
(dp3774
g53
(dp3775
sg62
g3769
sg55
(lp3776
g48
(g69
g50
NtRp3777
(dp3778
g53
(dp3779
sg62
g3773
sg55
(lp3780
g48
(g49
g50
NtRp3781
(dp3782
g53
(dp3783
g61
I1
ssg62
g3777
sg55
(lp3784
g3536
(S's\x12\x00\x00\x00Dise\xc3\xb1o de p\xc3\xa1gina'
tRp3785
asbasbasbag48
(g64
g50
NtRp3786
(dp3787
g53
(dp3788
sg62
g3769
sg55
(lp3789
g48
(g69
g50
NtRp3790
(dp3791
g53
(dp3792
sg62
g3786
sg55
(lp3793
g48
(g49
g50
NtRp3794
(dp3795
g53
(dp3796
g61
I1
ssg62
g3790
sg55
(lp3797
I00
asbasbasbag48
(g64
g50
NtRp3798
(dp3799
g53
(dp3800
sg62
g3769
sg55
(lp3801
g48
(g69
g50
NtRp3802
(dp3803
g53
(dp3804
sg62
g3798
sg55
(lp3805
g48
(g49
g50
NtRp3806
(dp3807
g53
(dp3808
g61
I1
ssg62
g3802
sg55
(lp3809
S'/admin/default/edit/Desglosar_Emails/views/layout.html'
p3810
asbasbasbasbasbasbasbag48
(g64
g50
NtRp3811
(dp3812
g53
(dp3813
sg62
g3645
sg55
(lp3814
g48
(g69
g50
NtRp3815
(dp3816
g53
(dp3817
sg62
g3811
sg55
(lp3818
g48
(g49
g50
NtRp3819
(dp3820
g53
(dp3821
g61
I2
ssg62
g3815
sg55
(lp3822
g48
(g57
g50
NtRp3823
(dp3824
g53
(dp3825
g61
I1
ssg62
Nsg55
(lp3826
g48
(g64
g50
NtRp3827
(dp3828
g53
(dp3829
sg62
g3823
sg55
(lp3830
g48
(g69
g50
NtRp3831
(dp3832
g53
(dp3833
sg62
g3827
sg55
(lp3834
g48
(g49
g50
NtRp3835
(dp3836
g53
(dp3837
g61
I1
ssg62
g3831
sg55
(lp3838
g3536
(S's\x0e\x00\x00\x00Hoja de estilo'
tRp3839
asbasbasbag48
(g64
g50
NtRp3840
(dp3841
g53
(dp3842
sg62
g3823
sg55
(lp3843
g48
(g69
g50
NtRp3844
(dp3845
g53
(dp3846
sg62
g3840
sg55
(lp3847
g48
(g49
g50
NtRp3848
(dp3849
g53
(dp3850
g61
I1
ssg62
g3844
sg55
(lp3851
I00
asbasbasbag48
(g64
g50
NtRp3852
(dp3853
g53
(dp3854
sg62
g3823
sg55
(lp3855
g48
(g69
g50
NtRp3856
(dp3857
g53
(dp3858
sg62
g3852
sg55
(lp3859
g48
(g49
g50
NtRp3860
(dp3861
g53
(dp3862
g61
I1
ssg62
g3856
sg55
(lp3863
S'/admin/default/edit/Desglosar_Emails/static/base.css'
p3864
asbasbasbasbasbasbasbag48
(g64
g50
NtRp3865
(dp3866
g53
(dp3867
sg62
g3645
sg55
(lp3868
g48
(g69
g50
NtRp3869
(dp3870
g53
(dp3871
sg62
g3865
sg55
(lp3872
g48
(g49
g50
NtRp3873
(dp3874
g53
(dp3875
g61
I2
ssg62
g3869
sg55
(lp3876
g48
(g57
g50
NtRp3877
(dp3878
g53
(dp3879
g61
I1
ssg62
Nsg55
(lp3880
g48
(g64
g50
NtRp3881
(dp3882
g53
(dp3883
sg62
g3877
sg55
(lp3884
g48
(g69
g50
NtRp3885
(dp3886
g53
(dp3887
sg62
g3881
sg55
(lp3888
g48
(g49
g50
NtRp3889
(dp3890
g53
(dp3891
g61
I1
ssg62
g3885
sg55
(lp3892
g3536
(S's\x0b\x00\x00\x00Modelo "db"'
tRp3893
asbasbasbag48
(g64
g50
NtRp3894
(dp3895
g53
(dp3896
sg62
g3877
sg55
(lp3897
g48
(g69
g50
NtRp3898
(dp3899
g53
(dp3900
sg62
g3894
sg55
(lp3901
g48
(g49
g50
NtRp3902
(dp3903
g53
(dp3904
g61
I1
ssg62
g3898
sg55
(lp3905
I00
asbasbasbag48
(g64
g50
NtRp3906
(dp3907
g53
(dp3908
sg62
g3877
sg55
(lp3909
g48
(g69
g50
NtRp3910
(dp3911
g53
(dp3912
sg62
g3906
sg55
(lp3913
g48
(g49
g50
NtRp3914
(dp3915
g53
(dp3916
g61
I1
ssg62
g3910
sg55
(lp3917
S'/admin/default/edit/Desglosar_Emails/models/db.py'
p3918
asbasbasbasbasbasbasbag48
(g64
g50
NtRp3919
(dp3920
g53
(dp3921
sg62
g3645
sg55
(lp3922
g48
(g69
g50
NtRp3923
(dp3924
g53
(dp3925
sg62
g3919
sg55
(lp3926
g48
(g49
g50
NtRp3927
(dp3928
g53
(dp3929
g61
I2
ssg62
g3923
sg55
(lp3930
g48
(g57
g50
NtRp3931
(dp3932
g53
(dp3933
g61
I1
ssg62
Nsg55
(lp3934
g48
(g64
g50
NtRp3935
(dp3936
g53
(dp3937
sg62
g3931
sg55
(lp3938
g48
(g69
g50
NtRp3939
(dp3940
g53
(dp3941
sg62
g3935
sg55
(lp3942
g48
(g49
g50
NtRp3943
(dp3944
g53
(dp3945
g61
I1
ssg62
g3939
sg55
(lp3946
g3536
(S's\r\x00\x00\x00Modelo "menu"'
tRp3947
asbasbasbag48
(g64
g50
NtRp3948
(dp3949
g53
(dp3950
sg62
g3931
sg55
(lp3951
g48
(g69
g50
NtRp3952
(dp3953
g53
(dp3954
sg62
g3948
sg55
(lp3955
g48
(g49
g50
NtRp3956
(dp3957
g53
(dp3958
g61
I1
ssg62
g3952
sg55
(lp3959
I00
asbasbasbag48
(g64
g50
NtRp3960
(dp3961
g53
(dp3962
sg62
g3931
sg55
(lp3963
g48
(g69
g50
NtRp3964
(dp3965
g53
(dp3966
sg62
g3960
sg55
(lp3967
g48
(g49
g50
NtRp3968
(dp3969
g53
(dp3970
g61
I1
ssg62
g3964
sg55
(lp3971
S'/admin/default/edit/Desglosar_Emails/models/menu.py'
p3972
asbasbasbasbasbasbasbag48
(g64
g50
NtRp3973
(dp3974
g53
(dp3975
sg62
g3645
sg55
(lp3976
g48
(g69
g50
NtRp3977
(dp3978
g53
(dp3979
sg62
g3973
sg55
(lp3980
g48
(g49
g50
NtRp3981
(dp3982
g53
(dp3983
g61
I2
ssg62
g3977
sg55
(lp3984
g48
(g57
g50
NtRp3985
(dp3986
g53
(dp3987
g61
I1
ssg62
Nsg55
(lp3988
g48
(g64
g50
NtRp3989
(dp3990
g53
(dp3991
sg62
g3985
sg55
(lp3992
g48
(g69
g50
NtRp3993
(dp3994
g53
(dp3995
sg62
g3989
sg55
(lp3996
g48
(g49
g50
NtRp3997
(dp3998
g53
(dp3999
g61
I1
ssg62
g3993
sg55
(lp4000
g3536
(S's\r\x00\x00\x00Base de datos'
tRp4001
asbasbasbag48
(g64
g50
NtRp4002
(dp4003
g53
(dp4004
sg62
g3985
sg55
(lp4005
g48
(g69
g50
NtRp4006
(dp4007
g53
(dp4008
sg62
g4002
sg55
(lp4009
g48
(g49
g50
NtRp4010
(dp4011
g53
(dp4012
g61
I1
ssg62
g4006
sg55
(lp4013
I00
asbasbasbag48
(g64
g50
NtRp4014
(dp4015
g53
(dp4016
sg62
g3985
sg55
(lp4017
g48
(g69
g50
NtRp4018
(dp4019
g53
(dp4020
sg62
g4014
sg55
(lp4021
g48
(g49
g50
NtRp4022
(dp4023
g53
(dp4024
g61
I1
ssg62
g4018
sg55
(lp4025
S'/Desglosar_Emails/appadmin/index'
p4026
asbasbasbasbasbasbasbag48
(g64
g50
NtRp4027
(dp4028
g53
(dp4029
sg62
g3645
sg55
(lp4030
g48
(g69
g50
NtRp4031
(dp4032
g53
(dp4033
sg62
g4027
sg55
(lp4034
g48
(g49
g50
NtRp4035
(dp4036
g53
(dp4037
g61
I2
ssg62
g4031
sg55
(lp4038
g48
(g57
g50
NtRp4039
(dp4040
g53
(dp4041
g61
I1
ssg62
Nsg55
(lp4042
g48
(g64
g50
NtRp4043
(dp4044
g53
(dp4045
sg62
g4039
sg55
(lp4046
g48
(g69
g50
NtRp4047
(dp4048
g53
(dp4049
sg62
g4043
sg55
(lp4050
g48
(g49
g50
NtRp4051
(dp4052
g53
(dp4053
g61
I1
ssg62
g4047
sg55
(lp4054
g3536
(S't\x06\x00\x00\x00Errors'
tRp4055
asbasbasbag48
(g64
g50
NtRp4056
(dp4057
g53
(dp4058
sg62
g4039
sg55
(lp4059
g48
(g69
g50
NtRp4060
(dp4061
g53
(dp4062
sg62
g4056
sg55
(lp4063
g48
(g49
g50
NtRp4064
(dp4065
g53
(dp4066
g61
I1
ssg62
g4060
sg55
(lp4067
I00
asbasbasbag48
(g64
g50
NtRp4068
(dp4069
g53
(dp4070
sg62
g4039
sg55
(lp4071
g48
(g69
g50
NtRp4072
(dp4073
g53
(dp4074
sg62
g4068
sg55
(lp4075
g48
(g49
g50
NtRp4076
(dp4077
g53
(dp4078
g61
I1
ssg62
g4072
sg55
(lp4079
S'/admin/default/errors/Desglosar_Emails'
p4080
asbasbasbasbasbasbasbag48
(g64
g50
NtRp4081
(dp4082
g53
(dp4083
sg62
g3645
sg55
(lp4084
g48
(g69
g50
NtRp4085
(dp4086
g53
(dp4087
sg62
g4081
sg55
(lp4088
g48
(g49
g50
NtRp4089
(dp4090
g53
(dp4091
g61
I2
ssg62
g4085
sg55
(lp4092
g48
(g57
g50
NtRp4093
(dp4094
g53
(dp4095
g61
I1
ssg62
Nsg55
(lp4096
g48
(g64
g50
NtRp4097
(dp4098
g53
(dp4099
sg62
g4093
sg55
(lp4100
g48
(g69
g50
NtRp4101
(dp4102
g53
(dp4103
sg62
g4097
sg55
(lp4104
g48
(g49
g50
NtRp4105
(dp4106
g53
(dp4107
g61
I1
ssg62
g4101
sg55
(lp4108
g3536
(S's\t\x00\x00\x00Acerca de'
tRp4109
asbasbasbag48
(g64
g50
NtRp4110
(dp4111
g53
(dp4112
sg62
g4093
sg55
(lp4113
g48
(g69
g50
NtRp4114
(dp4115
g53
(dp4116
sg62
g4110
sg55
(lp4117
g48
(g49
g50
NtRp4118
(dp4119
g53
(dp4120
g61
I1
ssg62
g4114
sg55
(lp4121
I00
asbasbasbag48
(g64
g50
NtRp4122
(dp4123
g53
(dp4124
sg62
g4093
sg55
(lp4125
g48
(g69
g50
NtRp4126
(dp4127
g53
(dp4128
sg62
g4122
sg55
(lp4129
g48
(g49
g50
NtRp4130
(dp4131
g53
(dp4132
g61
I1
ssg62
g4126
sg55
(lp4133
S'/admin/default/about/Desglosar_Emails'
p4134
asbasbasbasbasbasbasbasbasbasbasbasbasbasbasbag48
(g64
g50
NtRp4135
(dp4136
g53
(dp4137
sg62
g3504
sg55
(lp4138
g48
(g69
g50
NtRp4139
(dp4140
g53
(dp4141
sg62
g4135
sg55
(lp4142
g48
(g49
g50
NtRp4143
(dp4144
g53
(dp4145
g61
I4
ssg62
g4139
sg55
(lp4146
g48
(g57
g50
NtRp4147
(dp4148
g53
(dp4149
g61
I3
ssg62
Nsg55
(lp4150
g48
(g64
g50
NtRp4151
(dp4152
g53
(dp4153
sg62
g4147
sg55
(lp4154
g48
(g69
g50
NtRp4155
(dp4156
g53
(dp4157
sg62
g4151
sg55
(lp4158
g48
(g49
g50
NtRp4159
(dp4160
g53
(dp4161
g61
I3
ssg62
g4155
sg55
(lp4162
g3536
(S't\t\x00\x00\x00Resources'
tRp4163
asbasbasbag48
(g64
g50
NtRp4164
(dp4165
g53
(dp4166
sg62
g4147
sg55
(lp4167
g48
(g69
g50
NtRp4168
(dp4169
g53
(dp4170
sg62
g4164
sg55
(lp4171
g48
(g49
g50
NtRp4172
(dp4173
g53
(dp4174
g61
I3
ssg62
g4168
sg55
(lp4175
g91
asbasbasbag48
(g64
g50
NtRp4176
(dp4177
g53
(dp4178
sg62
g4147
sg55
(lp4179
g48
(g69
g50
NtRp4180
(dp4181
g53
(dp4182
sg62
g4176
sg55
(lp4183
g48
(g49
g50
NtRp4184
(dp4185
g53
(dp4186
g61
I3
ssg62
g4180
sg55
(lp4187
S'None'
p4188
asbasbasbag48
(g64
g50
NtRp4189
(dp4190
g53
(dp4191
sg62
g4147
sg55
(lp4192
g48
(g69
g50
NtRp4193
(dp4194
g53
(dp4195
sg62
g4189
sg55
(lp4196
g48
(g49
g50
NtRp4197
(dp4198
g53
(dp4199
g61
I3
ssg62
g4193
sg55
(lp4200
g48
(g57
g50
NtRp4201
(dp4202
g53
(dp4203
g61
I2
ssg62
Nsg55
(lp4204
g48
(g64
g50
NtRp4205
(dp4206
g53
(dp4207
sg62
g4201
sg55
(lp4208
g48
(g69
g50
NtRp4209
(dp4210
g53
(dp4211
sg62
g4205
sg55
(lp4212
g48
(g49
g50
NtRp4213
(dp4214
g53
(dp4215
g61
I2
ssg62
g4209
sg55
(lp4216
g48
(g57
g50
NtRp4217
(dp4218
g53
(dp4219
g61
I1
ssg62
Nsg55
(lp4220
g48
(g64
g50
NtRp4221
(dp4222
g53
(dp4223
sg62
g4217
sg55
(lp4224
g48
(g69
g50
NtRp4225
(dp4226
g53
(dp4227
sg62
g4221
sg55
(lp4228
g48
(g49
g50
NtRp4229
(dp4230
g53
(dp4231
g61
I1
ssg62
g4225
sg55
(lp4232
g3536
(S's\x0e\x00\x00\x00Documentaci\xc3\xb3n'
tRp4233
asbasbasbag48
(g64
g50
NtRp4234
(dp4235
g53
(dp4236
sg62
g4217
sg55
(lp4237
g48
(g69
g50
NtRp4238
(dp4239
g53
(dp4240
sg62
g4234
sg55
(lp4241
g48
(g49
g50
NtRp4242
(dp4243
g53
(dp4244
g61
I1
ssg62
g4238
sg55
(lp4245
I00
asbasbasbag48
(g64
g50
NtRp4246
(dp4247
g53
(dp4248
sg62
g4217
sg55
(lp4249
g48
(g69
g50
NtRp4250
(dp4251
g53
(dp4252
sg62
g4246
sg55
(lp4253
g48
(g49
g50
NtRp4254
(dp4255
g53
(dp4256
g61
I1
ssg62
g4250
sg55
(lp4257
S'http://www.web2py.com/book'
p4258
asbasbasbag48
(g64
g50
NtRp4259
(dp4260
g53
(dp4261
sg62
g4217
sg55
(lp4262
g48
(g69
g50
NtRp4263
(dp4264
g53
(dp4265
sg62
g4259
sg55
(lp4266
g48
(g49
g50
NtRp4267
(dp4268
g53
(dp4269
g61
I1
ssg62
g4263
sg55
(lp4270
(lp4271
(g3536
(S't\x07\x00\x00\x00Preface'
tRp4272
I00
S'http://www.web2py.com/book/default/chapter/00'
tp4273
a(g3536
(S't\x0c\x00\x00\x00Introduction'
tRp4274
I00
S'http://www.web2py.com/book/default/chapter/01'
tp4275
a(g3536
(S't\x06\x00\x00\x00Python'
tRp4276
I00
S'http://www.web2py.com/book/default/chapter/02'
tp4277
a(g3536
(S't\x08\x00\x00\x00Overview'
tRp4278
I00
S'http://www.web2py.com/book/default/chapter/03'
tp4279
a(g3536
(S's\x08\x00\x00\x00The Core'
tRp4280
I00
S'http://www.web2py.com/book/default/chapter/04'
tp4281
a(g3536
(S's\t\x00\x00\x00The Views'
tRp4282
I00
S'http://www.web2py.com/book/default/chapter/05'
tp4283
a(g3536
(S's\r\x00\x00\x00Base de datos'
tRp4284
I00
S'http://www.web2py.com/book/default/chapter/06'
tp4285
a(g3536
(S's\x14\x00\x00\x00Forms and Validators'
tRp4286
I00
S'http://www.web2py.com/book/default/chapter/07'
tp4287
a(g3536
(S's\x0e\x00\x00\x00Access Control'
tRp4288
I00
S'http://www.web2py.com/book/default/chapter/08'
tp4289
a(g3536
(S't\x08\x00\x00\x00Services'
tRp4290
I00
S'http://www.web2py.com/book/default/chapter/09'
tp4291
a(g3536
(S's\x0c\x00\x00\x00Ajax Recipes'
tRp4292
I00
S'http://www.web2py.com/book/default/chapter/10'
tp4293
a(g3536
(S's\x12\x00\x00\x00Deployment Recipes'
tRp4294
I00
S'http://www.web2py.com/book/default/chapter/11'
tp4295
a(g3536
(S's\r\x00\x00\x00Other Recipes'
tRp4296
I00
S'http://www.web2py.com/book/default/chapter/12'
tp4297
a(g3536
(S's\r\x00\x00\x00Buy this book'
tRp4298
I00
S'http://stores.lulu.com/web2py'
tp4299
aasbasbasbasbasbasbasbag48
(g64
g50
NtRp4300
(dp4301
g53
(dp4302
sg62
g4201
sg55
(lp4303
g48
(g69
g50
NtRp4304
(dp4305
g53
(dp4306
sg62
g4300
sg55
(lp4307
g48
(g49
g50
NtRp4308
(dp4309
g53
(dp4310
g61
I2
ssg62
g4304
sg55
(lp4311
g48
(g57
g50
NtRp4312
(dp4313
g53
(dp4314
g61
I1
ssg62
Nsg55
(lp4315
g48
(g64
g50
NtRp4316
(dp4317
g53
(dp4318
sg62
g4312
sg55
(lp4319
g48
(g69
g50
NtRp4320
(dp4321
g53
(dp4322
sg62
g4316
sg55
(lp4323
g48
(g49
g50
NtRp4324
(dp4325
g53
(dp4326
g61
I1
ssg62
g4320
sg55
(lp4327
g3536
(S't\t\x00\x00\x00Community'
tRp4328
asbasbasbag48
(g64
g50
NtRp4329
(dp4330
g53
(dp4331
sg62
g4312
sg55
(lp4332
g48
(g69
g50
NtRp4333
(dp4334
g53
(dp4335
sg62
g4329
sg55
(lp4336
g48
(g49
g50
NtRp4337
(dp4338
g53
(dp4339
g61
I1
ssg62
g4333
sg55
(lp4340
I00
asbasbasbag48
(g64
g50
NtRp4341
(dp4342
g53
(dp4343
sg62
g4312
sg55
(lp4344
g48
(g69
g50
NtRp4345
(dp4346
g53
(dp4347
sg62
g4341
sg55
(lp4348
g48
(g49
g50
NtRp4349
(dp4350
g53
(dp4351
g61
I1
ssg62
g4345
sg55
(lp4352
Nasbasbasbag48
(g64
g50
NtRp4353
(dp4354
g53
(dp4355
sg62
g4312
sg55
(lp4356
g48
(g69
g50
NtRp4357
(dp4358
g53
(dp4359
sg62
g4353
sg55
(lp4360
g48
(g49
g50
NtRp4361
(dp4362
g53
(dp4363
g61
I1
ssg62
g4357
sg55
(lp4364
(lp4365
(g3536
(S't\x06\x00\x00\x00Groups'
tRp4366
I00
S'http://www.web2py.com/examples/default/usergroups'
tp4367
a(g3536
(S't\x07\x00\x00\x00Twitter'
tRp4368
I00
S'http://twitter.com/web2py'
tp4369
a(g3536
(S's\t\x00\x00\x00Live chat'
tRp4370
I00
S'http://mibbit.com/?channel=%23web2py&server=irc.mibbit.net'
tp4371
a(g3536
(S's\n\x00\x00\x00User Voice'
tRp4372
I00
S'http://web2py.uservoice.com/'
tp4373
aasbasbasbasbasbasbasbag48
(g64
g50
NtRp4374
(dp4375
g53
(dp4376
sg62
g4201
sg55
(lp4377
g48
(g69
g50
NtRp4378
(dp4379
g53
(dp4380
sg62
g4374
sg55
(lp4381
g48
(g49
g50
NtRp4382
(dp4383
g53
(dp4384
g61
I2
ssg62
g4378
sg55
(lp4385
g48
(g57
g50
NtRp4386
(dp4387
g53
(dp4388
g61
I1
ssg62
Nsg55
(lp4389
g48
(g64
g50
NtRp4390
(dp4391
g53
(dp4392
sg62
g4386
sg55
(lp4393
g48
(g69
g50
NtRp4394
(dp4395
g53
(dp4396
sg62
g4390
sg55
(lp4397
g48
(g49
g50
NtRp4398
(dp4399
g53
(dp4400
g61
I1
ssg62
g4394
sg55
(lp4401
g3536
(S't\x06\x00\x00\x00Web2py'
tRp4402
asbasbasbag48
(g64
g50
NtRp4403
(dp4404
g53
(dp4405
sg62
g4386
sg55
(lp4406
g48
(g69
g50
NtRp4407
(dp4408
g53
(dp4409
sg62
g4403
sg55
(lp4410
g48
(g49
g50
NtRp4411
(dp4412
g53
(dp4413
g61
I1
ssg62
g4407
sg55
(lp4414
I00
asbasbasbag48
(g64
g50
NtRp4415
(dp4416
g53
(dp4417
sg62
g4386
sg55
(lp4418
g48
(g69
g50
NtRp4419
(dp4420
g53
(dp4421
sg62
g4415
sg55
(lp4422
g48
(g49
g50
NtRp4423
(dp4424
g53
(dp4425
g61
I1
ssg62
g4419
sg55
(lp4426
S'http://www.web2py.com'
p4427
asbasbasbag48
(g64
g50
NtRp4428
(dp4429
g53
(dp4430
sg62
g4386
sg55
(lp4431
g48
(g69
g50
NtRp4432
(dp4433
g53
(dp4434
sg62
g4428
sg55
(lp4435
g48
(g49
g50
NtRp4436
(dp4437
g53
(dp4438
g61
I1
ssg62
g4432
sg55
(lp4439
(lp4440
(g3536
(S't\x08\x00\x00\x00Download'
tRp4441
I00
S'http://www.web2py.com/examples/default/download'
tp4442
a(g3536
(S't\x07\x00\x00\x00Support'
tRp4443
I00
S'http://www.web2py.com/examples/default/support'
tp4444
a(g3536
(S's\x0e\x00\x00\x00Quick Examples'
tRp4445
I00
S'http://web2py.com/examples/default/examples'
tp4446
a(g3536
(S't\x03\x00\x00\x00FAQ'
tRp4447
I00
S'http://web2py.com/AlterEgo'
tp4448
a(g3536
(S's\x11\x00\x00\x00Free Applications'
tRp4449
I00
S'http://web2py.com/appliances'
tp4450
a(g3536
(S't\x07\x00\x00\x00Plugins'
tRp4451
I00
S'http://web2py.com/plugins'
tp4452
a(g3536
(S't\x07\x00\x00\x00Recipes'
tRp4453
I00
S'http://web2pyslices.com/'
tp4454
a(g3536
(S't\x04\x00\x00\x00Demo'
tRp4455
I00
S'http://web2py.com/demo_admin'
tp4456
a(g3536
(S't\x08\x00\x00\x00Semantic'
tRp4457
I00
S'http://web2py.com/semantic'
tp4458
a(g3536
(S't\x07\x00\x00\x00Layouts'
tRp4459
I00
S'http://web2py.com/layouts'
tp4460
a(g3536
(S't\x06\x00\x00\x00Videos'
tRp4461
I00
S'http://www.web2py.com/examples/default/videos/'
tp4462
aasbasbasbasbasbasbasbasbasbasbasbasbasbasbasbasbasbasbasbag48
(g64
g50
NtRp4463
(dp4464
g53
(dp4465
sg62
g2985
sg55
(lp4466
g48
(g69
g50
NtRp4467
(dp4468
g53
(dp4469
g73
g74
ssg62
g4463
sg55
(lp4470
S'meta'
p4471
asbag48
(g69
g50
NtRp4472
(dp4473
g53
(dp4474
g80
g81
ssg62
g4463
sg55
(lp4475
S':'
asbag48
(g69
g50
NtRp4476
(dp4477
g53
(dp4478
sg62
g4463
sg55
(lp4479
g48
(g49
g50
NtRp4480
(dp4481
g53
(dp4482
g61
I5
ssg62
g4476
sg55
(lp4483
g48
(g57
g50
NtRp4484
(dp4485
g53
(dp4486
g61
I4
ssg62
Nsg55
(lp4487
g48
(g64
g50
NtRp4488
(dp4489
g53
(dp4490
sg62
g4484
sg55
(lp4491
g48
(g69
g50
NtRp4492
(dp4493
g53
(dp4494
g73
g74
ssg62
g4488
sg55
(lp4495
S'author'
p4496
asbag48
(g69
g50
NtRp4497
(dp4498
g53
(dp4499
g80
g81
ssg62
g4488
sg55
(lp4500
S':'
asbag48
(g69
g50
NtRp4501
(dp4502
g53
(dp4503
sg62
g4488
sg55
(lp4504
g48
(g49
g50
NtRp4505
(dp4506
g53
(dp4507
g61
I4
ssg62
g4501
sg55
(lp4508
S'you'
p4509
asbasbasbag48
(g64
g50
NtRp4510
(dp4511
g53
(dp4512
sg62
g4484
sg55
(lp4513
g48
(g69
g50
NtRp4514
(dp4515
g53
(dp4516
g73
g74
ssg62
g4510
sg55
(lp4517
S'copyright'
p4518
asbag48
(g69
g50
NtRp4519
(dp4520
g53
(dp4521
g80
g81
ssg62
g4510
sg55
(lp4522
S':'
asbag48
(g69
g50
NtRp4523
(dp4524
g53
(dp4525
sg62
g4510
sg55
(lp4526
g48
(g49
g50
NtRp4527
(dp4528
g53
(dp4529
g61
I4
ssg62
g4523
sg55
(lp4530
S'Copyright 2007-2010'
p4531
asbasbasbag48
(g64
g50
NtRp4532
(dp4533
g53
(dp4534
sg62
g4484
sg55
(lp4535
g48
(g69
g50
NtRp4536
(dp4537
g53
(dp4538
g73
g74
ssg62
g4532
sg55
(lp4539
S'description'
p4540
asbag48
(g69
g50
NtRp4541
(dp4542
g53
(dp4543
g80
g81
ssg62
g4532
sg55
(lp4544
S':'
asbag48
(g69
g50
NtRp4545
(dp4546
g53
(dp4547
sg62
g4532
sg55
(lp4548
g48
(g49
g50
NtRp4549
(dp4550
g53
(dp4551
g61
I4
ssg62
g4545
sg55
(lp4552
S'Free and open source full-stack enterprise framework for agile development of fast, scalable, secure and portable database-driven web-based applications. Written and programmable in Python'
p4553
asbasbasbag48
(g64
g50
NtRp4554
(dp4555
g53
(dp4556
sg62
g4484
sg55
(lp4557
g48
(g69
g50
NtRp4558
(dp4559
g53
(dp4560
g73
g74
ssg62
g4554
sg55
(lp4561
S'generator'
p4562
asbag48
(g69
g50
NtRp4563
(dp4564
g53
(dp4565
g80
g81
ssg62
g4554
sg55
(lp4566
S':'
asbag48
(g69
g50
NtRp4567
(dp4568
g53
(dp4569
sg62
g4554
sg55
(lp4570
g48
(g49
g50
NtRp4571
(dp4572
g53
(dp4573
g61
I4
ssg62
g4567
sg55
(lp4574
S'Web2py Enterprise Framework'
p4575
asbasbasbag48
(g64
g50
NtRp4576
(dp4577
g53
(dp4578
sg62
g4484
sg55
(lp4579
g48
(g69
g50
NtRp4580
(dp4581
g53
(dp4582
g73
g74
ssg62
g4576
sg55
(lp4583
S'keywords'
p4584
asbag48
(g69
g50
NtRp4585
(dp4586
g53
(dp4587
g80
g81
ssg62
g4576
sg55
(lp4588
S':'
asbag48
(g69
g50
NtRp4589
(dp4590
g53
(dp4591
sg62
g4576
sg55
(lp4592
g48
(g49
g50
NtRp4593
(dp4594
g53
(dp4595
g61
I4
ssg62
g4589
sg55
(lp4596
S'web2py, python, framework'
p4597
asbasbasbasbasbasbasbag48
(g64
g50
NtRp4598
(dp4599
g53
(dp4600
sg62
g2985
sg55
(lp4601
g48
(g69
g50
NtRp4602
(dp4603
g53
(dp4604
g73
g74
ssg62
g4598
sg55
(lp4605
S'postprocessing'
p4606
asbag48
(g69
g50
NtRp4607
(dp4608
g53
(dp4609
g80
g81
ssg62
g4598
sg55
(lp4610
S':'
asbag48
(g69
g50
NtRp4611
(dp4612
g53
(dp4613
sg62
g4598
sg55
(lp4614
g48
(g49
g50
NtRp4615
(dp4616
g53
(dp4617
g61
I5
ssg62
g4611
sg55
(lp4618
g48
(g57
g50
NtRp4619
(dp4620
g53
(dp4621
g61
I4
ssg62
Nsg55
(lp4622
sbasbasbasbag48
(g64
g50
NtRp4623
(dp4624
g53
(dp4625
sg62
g2985
sg55
(lp4626
g48
(g69
g50
NtRp4627
(dp4628
g53
(dp4629
g73
g74
ssg62
g4623
sg55
(lp4630
S'session_file'
p4631
asbag48
(g69
g50
NtRp4632
(dp4633
g53
(dp4634
g80
g81
ssg62
g4623
sg55
(lp4635
S':'
asbag48
(g69
g50
NtRp4636
(dp4637
g53
(dp4638
sg62
g4623
sg55
(lp4639
g48
(g49
g50
NtRp4640
(dp4641
g53
(dp4642
g61
I5
ssg62
g4636
sg55
(lp4643
S"<open file 'C:\\Users\\Atomico\\web2py\\applications\\Desglosar_Emails\\sessions\\127.0.0.1-78cf8050-df87-4502-afb9-ed0c3843b414', mode 'rb+' at 0x082BB1D0>"
p4644
asbasbasbag48
(g64
g50
NtRp4645
(dp4646
g53
(dp4647
sg62
g2985
sg55
(lp4648
g48
(g69
g50
NtRp4649
(dp4650
g53
(dp4651
g73
g74
ssg62
g4645
sg55
(lp4652
S'session_filename'
p4653
asbag48
(g69
g50
NtRp4654
(dp4655
g53
(dp4656
g80
g81
ssg62
g4645
sg55
(lp4657
S':'
asbag48
(g69
g50
NtRp4658
(dp4659
g53
(dp4660
sg62
g4645
sg55
(lp4661
g48
(g49
g50
NtRp4662
(dp4663
g53
(dp4664
g61
I5
ssg62
g4658
sg55
(lp4665
S'C:\\Users\\Atomico\\web2py\\applications\\Desglosar_Emails\\sessions\\127.0.0.1-78cf8050-df87-4502-afb9-ed0c3843b414'
p4666
asbasbasbag48
(g64
g50
NtRp4667
(dp4668
g53
(dp4669
sg62
g2985
sg55
(lp4670
g48
(g69
g50
NtRp4671
(dp4672
g53
(dp4673
g73
g74
ssg62
g4667
sg55
(lp4674
S'session_id'
p4675
asbag48
(g69
g50
NtRp4676
(dp4677
g53
(dp4678
g80
g81
ssg62
g4667
sg55
(lp4679
S':'
asbag48
(g69
g50
NtRp4680
(dp4681
g53
(dp4682
sg62
g4667
sg55
(lp4683
g48
(g49
g50
NtRp4684
(dp4685
g53
(dp4686
g61
I5
ssg62
g4680
sg55
(lp4687
S'127.0.0.1-78cf8050-df87-4502-afb9-ed0c3843b414'
p4688
asbasbasbag48
(g64
g50
NtRp4689
(dp4690
g53
(dp4691
sg62
g2985
sg55
(lp4692
g48
(g69
g50
NtRp4693
(dp4694
g53
(dp4695
g73
g74
ssg62
g4689
sg55
(lp4696
S'session_id_name'
p4697
asbag48
(g69
g50
NtRp4698
(dp4699
g53
(dp4700
g80
g81
ssg62
g4689
sg55
(lp4701
S':'
asbag48
(g69
g50
NtRp4702
(dp4703
g53
(dp4704
sg62
g4689
sg55
(lp4705
g48
(g49
g50
NtRp4706
(dp4707
g53
(dp4708
g61
I5
ssg62
g4702
sg55
(lp4709
g3042
asbasbasbag48
(g64
g50
NtRp4710
(dp4711
g53
(dp4712
sg62
g2985
sg55
(lp4713
g48
(g69
g50
NtRp4714
(dp4715
g53
(dp4716
g73
g74
ssg62
g4710
sg55
(lp4717
S'session_locked'
p4718
asbag48
(g69
g50
NtRp4719
(dp4720
g53
(dp4721
g80
g81
ssg62
g4710
sg55
(lp4722
S':'
asbag48
(g69
g50
NtRp4723
(dp4724
g53
(dp4725
sg62
g4710
sg55
(lp4726
g48
(g49
g50
NtRp4727
(dp4728
g53
(dp4729
g61
I5
ssg62
g4723
sg55
(lp4730
g1873
asbasbasbag48
(g64
g50
NtRp4731
(dp4732
g53
(dp4733
sg62
g2985
sg55
(lp4734
g48
(g69
g50
NtRp4735
(dp4736
g53
(dp4737
g73
g74
ssg62
g4731
sg55
(lp4738
S'session_new'
p4739
asbag48
(g69
g50
NtRp4740
(dp4741
g53
(dp4742
g80
g81
ssg62
g4731
sg55
(lp4743
S':'
asbag48
(g69
g50
NtRp4744
(dp4745
g53
(dp4746
sg62
g4731
sg55
(lp4747
g48
(g49
g50
NtRp4748
(dp4749
g53
(dp4750
g61
I5
ssg62
g4744
sg55
(lp4751
g91
asbasbasbag48
(g64
g50
NtRp4752
(dp4753
g53
(dp4754
sg62
g2985
sg55
(lp4755
g48
(g69
g50
NtRp4756
(dp4757
g53
(dp4758
g73
g74
ssg62
g4752
sg55
(lp4759
S'status'
p4760
asbag48
(g69
g50
NtRp4761
(dp4762
g53
(dp4763
g80
g81
ssg62
g4752
sg55
(lp4764
S':'
asbag48
(g69
g50
NtRp4765
(dp4766
g53
(dp4767
sg62
g4752
sg55
(lp4768
g48
(g49
g50
NtRp4769
(dp4770
g53
(dp4771
g61
I5
ssg62
g4765
sg55
(lp4772
S'200'
p4773
asbasbasbag48
(g64
g50
NtRp4774
(dp4775
g53
(dp4776
sg62
g2985
sg55
(lp4777
g48
(g69
g50
NtRp4778
(dp4779
g53
(dp4780
g73
g74
ssg62
g4774
sg55
(lp4781
S'subtitle'
p4782
asbag48
(g69
g50
NtRp4783
(dp4784
g53
(dp4785
g80
g81
ssg62
g4774
sg55
(lp4786
S':'
asbag48
(g69
g50
NtRp4787
(dp4788
g53
(dp4789
sg62
g4774
sg55
(lp4790
g48
(g49
g50
NtRp4791
(dp4792
g53
(dp4793
g61
I5
ssg62
g4787
sg55
(lp4794
g3536
(S's\t\x00\x00\x00Adaptame!'
tRp4795
asbasbasbag48
(g64
g50
NtRp4796
(dp4797
g53
(dp4798
sg62
g2985
sg55
(lp4799
g48
(g69
g50
NtRp4800
(dp4801
g53
(dp4802
g73
g74
ssg62
g4796
sg55
(lp4803
S'title'
p4804
asbag48
(g69
g50
NtRp4805
(dp4806
g53
(dp4807
g80
g81
ssg62
g4796
sg55
(lp4808
S':'
asbag48
(g69
g50
NtRp4809
(dp4810
g53
(dp4811
sg62
g4796
sg55
(lp4812
g48
(g49
g50
NtRp4813
(dp4814
g53
(dp4815
g61
I5
ssg62
g4809
sg55
(lp4816
g113
asbasbasbag48
(g64
g50
NtRp4817
(dp4818
g53
(dp4819
sg62
g2985
sg55
(lp4820
g48
(g69
g50
NtRp4821
(dp4822
g53
(dp4823
g73
g74
ssg62
g4817
sg55
(lp4824
g2197
asbag48
(g69
g50
NtRp4825
(dp4826
g53
(dp4827
g80
g81
ssg62
g4817
sg55
(lp4828
S':'
asbag48
(g69
g50
NtRp4829
(dp4830
g53
(dp4831
sg62
g4817
sg55
(lp4832
g48
(g49
g50
NtRp4833
(dp4834
g53
(dp4835
g61
I5
ssg62
g4829
sg55
(lp4836
g2210
asbasbasbag48
(g64
g50
NtRp4837
(dp4838
g53
(dp4839
sg62
g2985
sg55
(lp4840
g48
(g69
g50
NtRp4841
(dp4842
g53
(dp4843
g73
g74
ssg62
g4837
sg55
(lp4844
S'view'
p4845
asbag48
(g69
g50
NtRp4846
(dp4847
g53
(dp4848
g80
g81
ssg62
g4837
sg55
(lp4849
S':'
asbag48
(g69
g50
NtRp4850
(dp4851
g53
(dp4852
sg62
g4837
sg55
(lp4853
g48
(g49
g50
NtRp4854
(dp4855
g53
(dp4856
g61
I5
ssg62
g4850
sg55
(lp4857
S'default/entrada_mod3.html'
p4858
asbasbasbasbasbsS'locals'
p4859
(dp4860
S'i'
S'0'
sS'self'
p4861
S'<gluon.dal.Rows object at 0x07FDAC10>'
p4862
sssS'traceback'
p4863
S'Traceback (most recent call last):\n  File "gluon/restricted.py", line 192, in restricted\n  File "C:\\Users\\Atomico\\web2py\\applications\\Desglosar_Emails\\views\\default/entrada_mod3.html", line 103, in <module>\n  File "gluon/dal.py", line 5619, in __getitem__\nIndexError: list index out of range\n'
p4864
s.