(dp1
S'output'
p2
S''
sS'layer'
p3
S'C:\\Users\\Atomico\\web2py\\applications\\Desglosar_Emails\\controllers/default.py'
p4
sS'code'
p5
S'def entrada():\n    form=SQLFORM(db.info)\n    if form.accepts(request.vars,session): pass\n    \n    txt=db.info[12].texto\n    c=0\n    for i in range(len(txt)): c=c+1\n    response.write(\'el total de c es \'+str(c)+\'. \')\n   \n    import re\n    pattern=re.compile(".*a[0-5].*")\n    for i in range(len(txt)):\n    ## encontrar el primer email\n        s=txt[:i]\n        if pattern.search(s):\n            response.write(\'Se ha encontrado a1 o a2 o a3 \\r o a4 o a5 o a0\\n\')\n        elif not pattern.search(s) and i==(len(txt)-1):\n            response.write(\'Nanai contrai\')\n        \n    response.write(\'La len(txt) es \'+str(len(txt))+\' y la i es \'+str(i))\n    response.write(\'*********************\')\n\n    cont=0\n    for i in xrange(0,4):\n        cont=cont+1\n        response.write(\'Para el valor i \'+str(i)+\' el contador se pone a \'+str(cont))\n    response.write(\' y el resultado final es de i \'+str(i)+\' el contador se pone a \'+str(cont)+\'. \')\n    i=0\n    while i<len(txt):\n        response.write(txt[i]+\'-\')\n        i=i+1\n    response.write(\'. La len(txt) es de \'+str(len(txt))+\' y la i se ha quedado en \'+str(i))\n    db.info.insert(texto="Vete a Cascarla")\n    \n    return dict(form=form)\n    \ndef entrada_mod1():\n    form=SQLFORM(db.info2)\n    if form.accepts(request.vars,session): pass\n    i=0\n    # while  not db.info2[i].texto==\'\':\n    #    response.write(i)\n    #    i=i+1\n    db.info2.insert(texto=\'Vete a cascarla\')\n    \n    return dict(form=form)\n    \ndef salto():\n    for x in range (10):\n        response . write (x)\n        response . write ( \'hello<br />\' , escape=False )\n    return dict(x=x)\n    \ndef entrada_mod2():\n    form=SQLFORM(db.persona)\n    if form.accepts(request.vars,session):pass\n    \n    form2=SQLFORM(db.perro)\n    if form2.accepts(request.vars,session):pass\n    \n    return dict(form=form,form2=form2)\n    \ndef entrada_mod3():\n    form=SQLFORM(db.info4)\n    if form.accepts(request.vars,session):pass\n    \n    return dict(form=form)\n\nresponse._vars=response._caller(entrada_mod3)\n'
p6
sS'snapshot'
p7
(dp8
S'exception'
p9
(dp10
S'__hash__'
p11
S"<method-wrapper '__hash__' of OperationalError object at 0x07D28E90>"
p12
sS'__module__'
p13
S"'sqlite3'"
p14
sS'__reduce_ex__'
p15
S'<built-in method __reduce_ex__ of OperationalError object at 0x07D28E90>'
p16
sS'__getslice__'
p17
S"<method-wrapper '__getslice__' of OperationalError object at 0x07D28E90>"
p18
sS'__getitem__'
p19
S"<method-wrapper '__getitem__' of OperationalError object at 0x07D28E90>"
p20
sS'__setstate__'
p21
S'<built-in method __setstate__ of OperationalError object at 0x07D28E90>'
p22
sS'__reduce__'
p23
S'<built-in method __reduce__ of OperationalError object at 0x07D28E90>'
p24
sS'__str__'
p25
S"<method-wrapper '__str__' of OperationalError object at 0x07D28E90>"
p26
sS'args'
p27
S"('database is locked',)"
p28
sS'__getattribute__'
p29
S"<method-wrapper '__getattribute__' of OperationalError object at 0x07D28E90>"
p30
sS'__class__'
p31
S"<class 'sqlite3.OperationalError'>"
p32
sS'__delattr__'
p33
S"<method-wrapper '__delattr__' of OperationalError object at 0x07D28E90>"
p34
sS'__repr__'
p35
S"<method-wrapper '__repr__' of OperationalError object at 0x07D28E90>"
p36
sS'__setattr__'
p37
S"<method-wrapper '__setattr__' of OperationalError object at 0x07D28E90>"
p38
sS'__dict__'
p39
S'{}'
p40
sS'__weakref__'
p41
S'None'
p42
sS'__doc__'
p43
S'None'
p44
sS'__init__'
p45
S"<method-wrapper '__init__' of OperationalError object at 0x07D28E90>"
p46
sS'__new__'
p47
S'<built-in method __new__ of type object at 0x1E1CCCB0>'
p48
ssS'evalue'
p49
S'database is locked'
p50
sS'request'
p51
ccopy_reg
_reconstructor
p52
(cgluon.html
BEAUTIFY
p53
c__builtin__
object
p54
NtRp55
(dp56
S'attributes'
p57
(dp58
sS'components'
p59
(lp60
g52
(cgluon.html
TABLE
p61
g54
NtRp62
(dp63
g57
(dp64
S'level'
p65
I5
ssS'parent'
p66
Nsg59
(lp67
g52
(cgluon.html
TR
p68
g54
NtRp69
(dp70
g57
(dp71
sg66
g62
sg59
(lp72
g52
(cgluon.html
TD
p73
g54
NtRp74
(dp75
g57
(dp76
S'_style'
p77
S'font-weight:bold;'
p78
ssg66
g69
sg59
(lp79
S'ajax'
p80
asbag52
(g73
g54
NtRp81
(dp82
g57
(dp83
S'_valign'
p84
S'top'
p85
ssg66
g69
sg59
(lp86
S':'
asbag52
(g73
g54
NtRp87
(dp88
g57
(dp89
sg66
g69
sg59
(lp90
g52
(g53
g54
NtRp91
(dp92
g57
(dp93
g65
I5
ssg66
g87
sg59
(lp94
S'False'
p95
asbasbasbag52
(g68
g54
NtRp96
(dp97
g57
(dp98
sg66
g62
sg59
(lp99
g52
(g73
g54
NtRp100
(dp101
g57
(dp102
g77
g78
ssg66
g96
sg59
(lp103
S'application'
p104
asbag52
(g73
g54
NtRp105
(dp106
g57
(dp107
g84
g85
ssg66
g96
sg59
(lp108
S':'
asbag52
(g73
g54
NtRp109
(dp110
g57
(dp111
sg66
g96
sg59
(lp112
g52
(g53
g54
NtRp113
(dp114
g57
(dp115
g65
I5
ssg66
g109
sg59
(lp116
S'Desglosar_Emails'
p117
asbasbasbag52
(g68
g54
NtRp118
(dp119
g57
(dp120
sg66
g62
sg59
(lp121
g52
(g73
g54
NtRp122
(dp123
g57
(dp124
g77
g78
ssg66
g118
sg59
(lp125
g27
asbag52
(g73
g54
NtRp126
(dp127
g57
(dp128
g84
g85
ssg66
g118
sg59
(lp129
S':'
asbag52
(g73
g54
NtRp130
(dp131
g57
(dp132
sg66
g118
sg59
(lp133
g52
(g53
g54
NtRp134
(dp135
g57
(dp136
g65
I5
ssg66
g130
sg59
(lp137
g52
(g61
g54
NtRp138
(dp139
g57
(dp140
g65
I4
ssg66
Nsg59
(lp141
sbasbasbasbag52
(g68
g54
NtRp142
(dp143
g57
(dp144
sg66
g62
sg59
(lp145
g52
(g73
g54
NtRp146
(dp147
g57
(dp148
g77
g78
ssg66
g142
sg59
(lp149
S'body'
p150
asbag52
(g73
g54
NtRp151
(dp152
g57
(dp153
g84
g85
ssg66
g142
sg59
(lp154
S':'
asbag52
(g73
g54
NtRp155
(dp156
g57
(dp157
sg66
g142
sg59
(lp158
g52
(g53
g54
NtRp159
(dp160
g57
(dp161
g65
I5
ssg66
g155
sg59
(lp162
S"<open file '<fdopen>', mode 'w+b' at 0x07BAE260>"
p163
asbasbasbag52
(g68
g54
NtRp164
(dp165
g57
(dp166
sg66
g62
sg59
(lp167
g52
(g73
g54
NtRp168
(dp169
g57
(dp170
g77
g78
ssg66
g164
sg59
(lp171
S'client'
p172
asbag52
(g73
g54
NtRp173
(dp174
g57
(dp175
g84
g85
ssg66
g164
sg59
(lp176
S':'
asbag52
(g73
g54
NtRp177
(dp178
g57
(dp179
sg66
g164
sg59
(lp180
g52
(g53
g54
NtRp181
(dp182
g57
(dp183
g65
I5
ssg66
g177
sg59
(lp184
S'127.0.0.1'
p185
asbasbasbag52
(g68
g54
NtRp186
(dp187
g57
(dp188
sg66
g62
sg59
(lp189
g52
(g73
g54
NtRp190
(dp191
g57
(dp192
g77
g78
ssg66
g186
sg59
(lp193
S'controller'
p194
asbag52
(g73
g54
NtRp195
(dp196
g57
(dp197
g84
g85
ssg66
g186
sg59
(lp198
S':'
asbag52
(g73
g54
NtRp199
(dp200
g57
(dp201
sg66
g186
sg59
(lp202
g52
(g53
g54
NtRp203
(dp204
g57
(dp205
g65
I5
ssg66
g199
sg59
(lp206
S'default'
p207
asbasbasbag52
(g68
g54
NtRp208
(dp209
g57
(dp210
sg66
g62
sg59
(lp211
g52
(g73
g54
NtRp212
(dp213
g57
(dp214
g77
g78
ssg66
g208
sg59
(lp215
S'cookies'
p216
asbag52
(g73
g54
NtRp217
(dp218
g57
(dp219
g84
g85
ssg66
g208
sg59
(lp220
S':'
asbag52
(g73
g54
NtRp221
(dp222
g57
(dp223
sg66
g208
sg59
(lp224
g52
(g53
g54
NtRp225
(dp226
g57
(dp227
g65
I5
ssg66
g221
sg59
(lp228
g52
(g61
g54
NtRp229
(dp230
g57
(dp231
g65
I4
ssg66
Nsg59
(lp232
g52
(g68
g54
NtRp233
(dp234
g57
(dp235
sg66
g229
sg59
(lp236
g52
(g73
g54
NtRp237
(dp238
g57
(dp239
g77
g78
ssg66
g233
sg59
(lp240
S'session_id_admin'
p241
asbag52
(g73
g54
NtRp242
(dp243
g57
(dp244
g84
g85
ssg66
g233
sg59
(lp245
S':'
asbag52
(g73
g54
NtRp246
(dp247
g57
(dp248
sg66
g233
sg59
(lp249
g52
(g53
g54
NtRp250
(dp251
g57
(dp252
g65
I4
ssg66
g246
sg59
(lp253
g52
(g61
g54
NtRp254
(dp255
g57
(dp256
g65
I3
ssg66
Nsg59
(lp257
g52
(g68
g54
NtRp258
(dp259
g57
(dp260
sg66
g254
sg59
(lp261
g52
(g73
g54
NtRp262
(dp263
g57
(dp264
g77
g78
ssg66
g258
sg59
(lp265
S'comment'
p266
asbag52
(g73
g54
NtRp267
(dp268
g57
(dp269
g84
g85
ssg66
g258
sg59
(lp270
S':'
asbag52
(g73
g54
NtRp271
(dp272
g57
(dp273
sg66
g258
sg59
(lp274
g52
(g53
g54
NtRp275
(dp276
g57
(dp277
g65
I3
ssg66
g271
sg59
(lp278
S''
asbasbasbag52
(g68
g54
NtRp279
(dp280
g57
(dp281
sg66
g254
sg59
(lp282
g52
(g73
g54
NtRp283
(dp284
g57
(dp285
g77
g78
ssg66
g279
sg59
(lp286
S'domain'
p287
asbag52
(g73
g54
NtRp288
(dp289
g57
(dp290
g84
g85
ssg66
g279
sg59
(lp291
S':'
asbag52
(g73
g54
NtRp292
(dp293
g57
(dp294
sg66
g279
sg59
(lp295
g52
(g53
g54
NtRp296
(dp297
g57
(dp298
g65
I3
ssg66
g292
sg59
(lp299
S''
asbasbasbag52
(g68
g54
NtRp300
(dp301
g57
(dp302
sg66
g254
sg59
(lp303
g52
(g73
g54
NtRp304
(dp305
g57
(dp306
g77
g78
ssg66
g300
sg59
(lp307
S'expires'
p308
asbag52
(g73
g54
NtRp309
(dp310
g57
(dp311
g84
g85
ssg66
g300
sg59
(lp312
S':'
asbag52
(g73
g54
NtRp313
(dp314
g57
(dp315
sg66
g300
sg59
(lp316
g52
(g53
g54
NtRp317
(dp318
g57
(dp319
g65
I3
ssg66
g313
sg59
(lp320
S''
asbasbasbag52
(g68
g54
NtRp321
(dp322
g57
(dp323
sg66
g254
sg59
(lp324
g52
(g73
g54
NtRp325
(dp326
g57
(dp327
g77
g78
ssg66
g321
sg59
(lp328
S'max-age'
p329
asbag52
(g73
g54
NtRp330
(dp331
g57
(dp332
g84
g85
ssg66
g321
sg59
(lp333
S':'
asbag52
(g73
g54
NtRp334
(dp335
g57
(dp336
sg66
g321
sg59
(lp337
g52
(g53
g54
NtRp338
(dp339
g57
(dp340
g65
I3
ssg66
g334
sg59
(lp341
S''
asbasbasbag52
(g68
g54
NtRp342
(dp343
g57
(dp344
sg66
g254
sg59
(lp345
g52
(g73
g54
NtRp346
(dp347
g57
(dp348
g77
g78
ssg66
g342
sg59
(lp349
S'path'
p350
asbag52
(g73
g54
NtRp351
(dp352
g57
(dp353
g84
g85
ssg66
g342
sg59
(lp354
S':'
asbag52
(g73
g54
NtRp355
(dp356
g57
(dp357
sg66
g342
sg59
(lp358
g52
(g53
g54
NtRp359
(dp360
g57
(dp361
g65
I3
ssg66
g355
sg59
(lp362
S''
asbasbasbag52
(g68
g54
NtRp363
(dp364
g57
(dp365
sg66
g254
sg59
(lp366
g52
(g73
g54
NtRp367
(dp368
g57
(dp369
g77
g78
ssg66
g363
sg59
(lp370
S'secure'
p371
asbag52
(g73
g54
NtRp372
(dp373
g57
(dp374
g84
g85
ssg66
g363
sg59
(lp375
S':'
asbag52
(g73
g54
NtRp376
(dp377
g57
(dp378
sg66
g363
sg59
(lp379
g52
(g53
g54
NtRp380
(dp381
g57
(dp382
g65
I3
ssg66
g376
sg59
(lp383
S''
asbasbasbag52
(g68
g54
NtRp384
(dp385
g57
(dp386
sg66
g254
sg59
(lp387
g52
(g73
g54
NtRp388
(dp389
g57
(dp390
g77
g78
ssg66
g384
sg59
(lp391
S'version'
p392
asbag52
(g73
g54
NtRp393
(dp394
g57
(dp395
g84
g85
ssg66
g384
sg59
(lp396
S':'
asbag52
(g73
g54
NtRp397
(dp398
g57
(dp399
sg66
g384
sg59
(lp400
g52
(g53
g54
NtRp401
(dp402
g57
(dp403
g65
I3
ssg66
g397
sg59
(lp404
S''
asbasbasbasbasbasbasbag52
(g68
g54
NtRp405
(dp406
g57
(dp407
sg66
g229
sg59
(lp408
g52
(g73
g54
NtRp409
(dp410
g57
(dp411
g77
g78
ssg66
g405
sg59
(lp412
S'session_id_desglosar_emails'
p413
asbag52
(g73
g54
NtRp414
(dp415
g57
(dp416
g84
g85
ssg66
g405
sg59
(lp417
S':'
asbag52
(g73
g54
NtRp418
(dp419
g57
(dp420
sg66
g405
sg59
(lp421
g52
(g53
g54
NtRp422
(dp423
g57
(dp424
g65
I4
ssg66
g418
sg59
(lp425
g52
(g61
g54
NtRp426
(dp427
g57
(dp428
g65
I3
ssg66
Nsg59
(lp429
g52
(g68
g54
NtRp430
(dp431
g57
(dp432
sg66
g426
sg59
(lp433
g52
(g73
g54
NtRp434
(dp435
g57
(dp436
g77
g78
ssg66
g430
sg59
(lp437
g266
asbag52
(g73
g54
NtRp438
(dp439
g57
(dp440
g84
g85
ssg66
g430
sg59
(lp441
S':'
asbag52
(g73
g54
NtRp442
(dp443
g57
(dp444
sg66
g430
sg59
(lp445
g52
(g53
g54
NtRp446
(dp447
g57
(dp448
g65
I3
ssg66
g442
sg59
(lp449
S''
asbasbasbag52
(g68
g54
NtRp450
(dp451
g57
(dp452
sg66
g426
sg59
(lp453
g52
(g73
g54
NtRp454
(dp455
g57
(dp456
g77
g78
ssg66
g450
sg59
(lp457
g287
asbag52
(g73
g54
NtRp458
(dp459
g57
(dp460
g84
g85
ssg66
g450
sg59
(lp461
S':'
asbag52
(g73
g54
NtRp462
(dp463
g57
(dp464
sg66
g450
sg59
(lp465
g52
(g53
g54
NtRp466
(dp467
g57
(dp468
g65
I3
ssg66
g462
sg59
(lp469
S''
asbasbasbag52
(g68
g54
NtRp470
(dp471
g57
(dp472
sg66
g426
sg59
(lp473
g52
(g73
g54
NtRp474
(dp475
g57
(dp476
g77
g78
ssg66
g470
sg59
(lp477
g308
asbag52
(g73
g54
NtRp478
(dp479
g57
(dp480
g84
g85
ssg66
g470
sg59
(lp481
S':'
asbag52
(g73
g54
NtRp482
(dp483
g57
(dp484
sg66
g470
sg59
(lp485
g52
(g53
g54
NtRp486
(dp487
g57
(dp488
g65
I3
ssg66
g482
sg59
(lp489
S''
asbasbasbag52
(g68
g54
NtRp490
(dp491
g57
(dp492
sg66
g426
sg59
(lp493
g52
(g73
g54
NtRp494
(dp495
g57
(dp496
g77
g78
ssg66
g490
sg59
(lp497
g329
asbag52
(g73
g54
NtRp498
(dp499
g57
(dp500
g84
g85
ssg66
g490
sg59
(lp501
S':'
asbag52
(g73
g54
NtRp502
(dp503
g57
(dp504
sg66
g490
sg59
(lp505
g52
(g53
g54
NtRp506
(dp507
g57
(dp508
g65
I3
ssg66
g502
sg59
(lp509
S''
asbasbasbag52
(g68
g54
NtRp510
(dp511
g57
(dp512
sg66
g426
sg59
(lp513
g52
(g73
g54
NtRp514
(dp515
g57
(dp516
g77
g78
ssg66
g510
sg59
(lp517
g350
asbag52
(g73
g54
NtRp518
(dp519
g57
(dp520
g84
g85
ssg66
g510
sg59
(lp521
S':'
asbag52
(g73
g54
NtRp522
(dp523
g57
(dp524
sg66
g510
sg59
(lp525
g52
(g53
g54
NtRp526
(dp527
g57
(dp528
g65
I3
ssg66
g522
sg59
(lp529
S''
asbasbasbag52
(g68
g54
NtRp530
(dp531
g57
(dp532
sg66
g426
sg59
(lp533
g52
(g73
g54
NtRp534
(dp535
g57
(dp536
g77
g78
ssg66
g530
sg59
(lp537
g371
asbag52
(g73
g54
NtRp538
(dp539
g57
(dp540
g84
g85
ssg66
g530
sg59
(lp541
S':'
asbag52
(g73
g54
NtRp542
(dp543
g57
(dp544
sg66
g530
sg59
(lp545
g52
(g53
g54
NtRp546
(dp547
g57
(dp548
g65
I3
ssg66
g542
sg59
(lp549
S''
asbasbasbag52
(g68
g54
NtRp550
(dp551
g57
(dp552
sg66
g426
sg59
(lp553
g52
(g73
g54
NtRp554
(dp555
g57
(dp556
g77
g78
ssg66
g550
sg59
(lp557
g392
asbag52
(g73
g54
NtRp558
(dp559
g57
(dp560
g84
g85
ssg66
g550
sg59
(lp561
S':'
asbag52
(g73
g54
NtRp562
(dp563
g57
(dp564
sg66
g550
sg59
(lp565
g52
(g53
g54
NtRp566
(dp567
g57
(dp568
g65
I3
ssg66
g562
sg59
(lp569
S''
asbasbasbasbasbasbasbag52
(g68
g54
NtRp570
(dp571
g57
(dp572
sg66
g229
sg59
(lp573
g52
(g73
g54
NtRp574
(dp575
g57
(dp576
g77
g78
ssg66
g570
sg59
(lp577
S'session_id_welcome'
p578
asbag52
(g73
g54
NtRp579
(dp580
g57
(dp581
g84
g85
ssg66
g570
sg59
(lp582
S':'
asbag52
(g73
g54
NtRp583
(dp584
g57
(dp585
sg66
g570
sg59
(lp586
g52
(g53
g54
NtRp587
(dp588
g57
(dp589
g65
I4
ssg66
g583
sg59
(lp590
g52
(g61
g54
NtRp591
(dp592
g57
(dp593
g65
I3
ssg66
Nsg59
(lp594
g52
(g68
g54
NtRp595
(dp596
g57
(dp597
sg66
g591
sg59
(lp598
g52
(g73
g54
NtRp599
(dp600
g57
(dp601
g77
g78
ssg66
g595
sg59
(lp602
g266
asbag52
(g73
g54
NtRp603
(dp604
g57
(dp605
g84
g85
ssg66
g595
sg59
(lp606
S':'
asbag52
(g73
g54
NtRp607
(dp608
g57
(dp609
sg66
g595
sg59
(lp610
g52
(g53
g54
NtRp611
(dp612
g57
(dp613
g65
I3
ssg66
g607
sg59
(lp614
S''
asbasbasbag52
(g68
g54
NtRp615
(dp616
g57
(dp617
sg66
g591
sg59
(lp618
g52
(g73
g54
NtRp619
(dp620
g57
(dp621
g77
g78
ssg66
g615
sg59
(lp622
g287
asbag52
(g73
g54
NtRp623
(dp624
g57
(dp625
g84
g85
ssg66
g615
sg59
(lp626
S':'
asbag52
(g73
g54
NtRp627
(dp628
g57
(dp629
sg66
g615
sg59
(lp630
g52
(g53
g54
NtRp631
(dp632
g57
(dp633
g65
I3
ssg66
g627
sg59
(lp634
S''
asbasbasbag52
(g68
g54
NtRp635
(dp636
g57
(dp637
sg66
g591
sg59
(lp638
g52
(g73
g54
NtRp639
(dp640
g57
(dp641
g77
g78
ssg66
g635
sg59
(lp642
g308
asbag52
(g73
g54
NtRp643
(dp644
g57
(dp645
g84
g85
ssg66
g635
sg59
(lp646
S':'
asbag52
(g73
g54
NtRp647
(dp648
g57
(dp649
sg66
g635
sg59
(lp650
g52
(g53
g54
NtRp651
(dp652
g57
(dp653
g65
I3
ssg66
g647
sg59
(lp654
S''
asbasbasbag52
(g68
g54
NtRp655
(dp656
g57
(dp657
sg66
g591
sg59
(lp658
g52
(g73
g54
NtRp659
(dp660
g57
(dp661
g77
g78
ssg66
g655
sg59
(lp662
g329
asbag52
(g73
g54
NtRp663
(dp664
g57
(dp665
g84
g85
ssg66
g655
sg59
(lp666
S':'
asbag52
(g73
g54
NtRp667
(dp668
g57
(dp669
sg66
g655
sg59
(lp670
g52
(g53
g54
NtRp671
(dp672
g57
(dp673
g65
I3
ssg66
g667
sg59
(lp674
S''
asbasbasbag52
(g68
g54
NtRp675
(dp676
g57
(dp677
sg66
g591
sg59
(lp678
g52
(g73
g54
NtRp679
(dp680
g57
(dp681
g77
g78
ssg66
g675
sg59
(lp682
g350
asbag52
(g73
g54
NtRp683
(dp684
g57
(dp685
g84
g85
ssg66
g675
sg59
(lp686
S':'
asbag52
(g73
g54
NtRp687
(dp688
g57
(dp689
sg66
g675
sg59
(lp690
g52
(g53
g54
NtRp691
(dp692
g57
(dp693
g65
I3
ssg66
g687
sg59
(lp694
S''
asbasbasbag52
(g68
g54
NtRp695
(dp696
g57
(dp697
sg66
g591
sg59
(lp698
g52
(g73
g54
NtRp699
(dp700
g57
(dp701
g77
g78
ssg66
g695
sg59
(lp702
g371
asbag52
(g73
g54
NtRp703
(dp704
g57
(dp705
g84
g85
ssg66
g695
sg59
(lp706
S':'
asbag52
(g73
g54
NtRp707
(dp708
g57
(dp709
sg66
g695
sg59
(lp710
g52
(g53
g54
NtRp711
(dp712
g57
(dp713
g65
I3
ssg66
g707
sg59
(lp714
S''
asbasbasbag52
(g68
g54
NtRp715
(dp716
g57
(dp717
sg66
g591
sg59
(lp718
g52
(g73
g54
NtRp719
(dp720
g57
(dp721
g77
g78
ssg66
g715
sg59
(lp722
g392
asbag52
(g73
g54
NtRp723
(dp724
g57
(dp725
g84
g85
ssg66
g715
sg59
(lp726
S':'
asbag52
(g73
g54
NtRp727
(dp728
g57
(dp729
sg66
g715
sg59
(lp730
g52
(g53
g54
NtRp731
(dp732
g57
(dp733
g65
I3
ssg66
g727
sg59
(lp734
S''
asbasbasbasbasbasbasbasbasbasbasbag52
(g68
g54
NtRp735
(dp736
g57
(dp737
sg66
g62
sg59
(lp738
g52
(g73
g54
NtRp739
(dp740
g57
(dp741
g77
g78
ssg66
g735
sg59
(lp742
S'env'
p743
asbag52
(g73
g54
NtRp744
(dp745
g57
(dp746
g84
g85
ssg66
g735
sg59
(lp747
S':'
asbag52
(g73
g54
NtRp748
(dp749
g57
(dp750
sg66
g735
sg59
(lp751
g52
(g53
g54
NtRp752
(dp753
g57
(dp754
g65
I5
ssg66
g748
sg59
(lp755
g52
(g61
g54
NtRp756
(dp757
g57
(dp758
g65
I4
ssg66
Nsg59
(lp759
g52
(g68
g54
NtRp760
(dp761
g57
(dp762
sg66
g756
sg59
(lp763
g52
(g73
g54
NtRp764
(dp765
g57
(dp766
g77
g78
ssg66
g760
sg59
(lp767
S'app_folders'
p768
asbag52
(g73
g54
NtRp769
(dp770
g57
(dp771
g84
g85
ssg66
g760
sg59
(lp772
S':'
asbag52
(g73
g54
NtRp773
(dp774
g57
(dp775
sg66
g760
sg59
(lp776
g52
(g53
g54
NtRp777
(dp778
g57
(dp779
g65
I4
ssg66
g773
sg59
(lp780
S"set(['C:\\\\Users\\\\Atomico\\\\web2py\\\\applications\\\\welcome\\\\', 'C:\\\\Users\\\\Atomico\\\\web2py\\\\applications\\\\Desglosar_Emails\\\\', 'C:\\\\Users\\\\Atomico\\\\web2py\\\\applications\\\\admin\\\\'])"
p781
asbasbasbag52
(g68
g54
NtRp782
(dp783
g57
(dp784
sg66
g756
sg59
(lp785
g52
(g73
g54
NtRp786
(dp787
g57
(dp788
g77
g78
ssg66
g782
sg59
(lp789
S'applications_parent'
p790
asbag52
(g73
g54
NtRp791
(dp792
g57
(dp793
g84
g85
ssg66
g782
sg59
(lp794
S':'
asbag52
(g73
g54
NtRp795
(dp796
g57
(dp797
sg66
g782
sg59
(lp798
g52
(g53
g54
NtRp799
(dp800
g57
(dp801
g65
I4
ssg66
g795
sg59
(lp802
S'C:\\Users\\Atomico\\web2py'
p803
asbasbasbag52
(g68
g54
NtRp804
(dp805
g57
(dp806
sg66
g756
sg59
(lp807
g52
(g73
g54
NtRp808
(dp809
g57
(dp810
g77
g78
ssg66
g804
sg59
(lp811
S'cmd_args'
p812
asbag52
(g73
g54
NtRp813
(dp814
g57
(dp815
g84
g85
ssg66
g804
sg59
(lp816
S':'
asbag52
(g73
g54
NtRp817
(dp818
g57
(dp819
sg66
g804
sg59
(lp820
g52
(g53
g54
NtRp821
(dp822
g57
(dp823
g65
I4
ssg66
g817
sg59
(lp824
g52
(g61
g54
NtRp825
(dp826
g57
(dp827
g65
I3
ssg66
Nsg59
(lp828
sbasbasbasbag52
(g68
g54
NtRp829
(dp830
g57
(dp831
sg66
g756
sg59
(lp832
g52
(g73
g54
NtRp833
(dp834
g57
(dp835
g77
g78
ssg66
g829
sg59
(lp836
S'cmd_options'
p837
asbag52
(g73
g54
NtRp838
(dp839
g57
(dp840
g84
g85
ssg66
g829
sg59
(lp841
S':'
asbag52
(g73
g54
NtRp842
(dp843
g57
(dp844
sg66
g829
sg59
(lp845
g52
(g53
g54
NtRp846
(dp847
g57
(dp848
g65
I4
ssg66
g842
sg59
(lp849
S"<Values at 0x30f55d0: {'verbose': False, 'ip': '127.0.0.1', 'shutdown_timeout': 5, 'taskbar': False, 'port': 8000, 'maxthreads': None, 'softcron': False, 'server_name': 'Swing', 'bpython': False, 'nogui': False, 'nocron': False, 'extcron': False, 'debuglevel': 30, 'test': None, 'folder': 'C:\\\\Users\\\\Atomico\\\\web2py', 'config': '', 'import_models': False, 'winservice': '', 'shell': None, 'run': '', 'log_filename': 'httpserver.log', 'args': [''], 'profiler_filename': None, 'ssl_private_key': '', 'password': '<ask>', 'request_queue_size': 5, 'ssl_certificate': '', 'cronjob': False, 'plain': False, 'quiet': False, 'interfaces': None, 'minthreads': None, 'timeout': 10, 'numthreads': None, 'nobanner': False, 'pid_filename': 'httpserver.pid'}>"
p850
asbasbasbag52
(g68
g54
NtRp851
(dp852
g57
(dp853
sg66
g756
sg59
(lp854
g52
(g73
g54
NtRp855
(dp856
g57
(dp857
g77
g78
ssg66
g851
sg59
(lp858
S'content_length'
p859
asbag52
(g73
g54
NtRp860
(dp861
g57
(dp862
g84
g85
ssg66
g851
sg59
(lp863
S':'
asbag52
(g73
g54
NtRp864
(dp865
g57
(dp866
sg66
g851
sg59
(lp867
g52
(g53
g54
NtRp868
(dp869
g57
(dp870
g65
I4
ssg66
g864
sg59
(lp871
S'2004'
p872
asbasbasbag52
(g68
g54
NtRp873
(dp874
g57
(dp875
sg66
g756
sg59
(lp876
g52
(g73
g54
NtRp877
(dp878
g57
(dp879
g77
g78
ssg66
g873
sg59
(lp880
S'content_type'
p881
asbag52
(g73
g54
NtRp882
(dp883
g57
(dp884
g84
g85
ssg66
g873
sg59
(lp885
S':'
asbag52
(g73
g54
NtRp886
(dp887
g57
(dp888
sg66
g873
sg59
(lp889
g52
(g53
g54
NtRp890
(dp891
g57
(dp892
g65
I4
ssg66
g886
sg59
(lp893
S'multipart/form-data; boundary=---------------------------41184676334'
p894
asbasbasbag52
(g68
g54
NtRp895
(dp896
g57
(dp897
sg66
g756
sg59
(lp898
g52
(g73
g54
NtRp899
(dp900
g57
(dp901
g77
g78
ssg66
g895
sg59
(lp902
S'db_sessions'
p903
asbag52
(g73
g54
NtRp904
(dp905
g57
(dp906
g84
g85
ssg66
g895
sg59
(lp907
S':'
asbag52
(g73
g54
NtRp908
(dp909
g57
(dp910
sg66
g895
sg59
(lp911
g52
(g53
g54
NtRp912
(dp913
g57
(dp914
g65
I4
ssg66
g908
sg59
(lp915
S'set([])'
p916
asbasbasbag52
(g68
g54
NtRp917
(dp918
g57
(dp919
sg66
g756
sg59
(lp920
g52
(g73
g54
NtRp921
(dp922
g57
(dp923
g77
g78
ssg66
g917
sg59
(lp924
S'debugging'
p925
asbag52
(g73
g54
NtRp926
(dp927
g57
(dp928
g84
g85
ssg66
g917
sg59
(lp929
S':'
asbag52
(g73
g54
NtRp930
(dp931
g57
(dp932
sg66
g917
sg59
(lp933
g52
(g53
g54
NtRp934
(dp935
g57
(dp936
g65
I4
ssg66
g930
sg59
(lp937
g95
asbasbasbag52
(g68
g54
NtRp938
(dp939
g57
(dp940
sg66
g756
sg59
(lp941
g52
(g73
g54
NtRp942
(dp943
g57
(dp944
g77
g78
ssg66
g938
sg59
(lp945
S'gluon_parent'
p946
asbag52
(g73
g54
NtRp947
(dp948
g57
(dp949
g84
g85
ssg66
g938
sg59
(lp950
S':'
asbag52
(g73
g54
NtRp951
(dp952
g57
(dp953
sg66
g938
sg59
(lp954
g52
(g53
g54
NtRp955
(dp956
g57
(dp957
g65
I4
ssg66
g951
sg59
(lp958
S'C:\\Users\\Atomico\\web2py'
p959
asbasbasbag52
(g68
g54
NtRp960
(dp961
g57
(dp962
sg66
g756
sg59
(lp963
g52
(g73
g54
NtRp964
(dp965
g57
(dp966
g77
g78
ssg66
g960
sg59
(lp967
S'http_accept'
p968
asbag52
(g73
g54
NtRp969
(dp970
g57
(dp971
g84
g85
ssg66
g960
sg59
(lp972
S':'
asbag52
(g73
g54
NtRp973
(dp974
g57
(dp975
sg66
g960
sg59
(lp976
g52
(g53
g54
NtRp977
(dp978
g57
(dp979
g65
I4
ssg66
g973
sg59
(lp980
S'text/html,application/xhtml+xml,application/xml;q=0.9,*/*;q=0.8'
p981
asbasbasbag52
(g68
g54
NtRp982
(dp983
g57
(dp984
sg66
g756
sg59
(lp985
g52
(g73
g54
NtRp986
(dp987
g57
(dp988
g77
g78
ssg66
g982
sg59
(lp989
S'http_accept_charset'
p990
asbag52
(g73
g54
NtRp991
(dp992
g57
(dp993
g84
g85
ssg66
g982
sg59
(lp994
S':'
asbag52
(g73
g54
NtRp995
(dp996
g57
(dp997
sg66
g982
sg59
(lp998
g52
(g53
g54
NtRp999
(dp1000
g57
(dp1001
g65
I4
ssg66
g995
sg59
(lp1002
S'ISO-8859-1,utf-8;q=0.7,*;q=0.7'
p1003
asbasbasbag52
(g68
g54
NtRp1004
(dp1005
g57
(dp1006
sg66
g756
sg59
(lp1007
g52
(g73
g54
NtRp1008
(dp1009
g57
(dp1010
g77
g78
ssg66
g1004
sg59
(lp1011
S'http_accept_encoding'
p1012
asbag52
(g73
g54
NtRp1013
(dp1014
g57
(dp1015
g84
g85
ssg66
g1004
sg59
(lp1016
S':'
asbag52
(g73
g54
NtRp1017
(dp1018
g57
(dp1019
sg66
g1004
sg59
(lp1020
g52
(g53
g54
NtRp1021
(dp1022
g57
(dp1023
g65
I4
ssg66
g1017
sg59
(lp1024
S'gzip, deflate'
p1025
asbasbasbag52
(g68
g54
NtRp1026
(dp1027
g57
(dp1028
sg66
g756
sg59
(lp1029
g52
(g73
g54
NtRp1030
(dp1031
g57
(dp1032
g77
g78
ssg66
g1026
sg59
(lp1033
S'http_accept_language'
p1034
asbag52
(g73
g54
NtRp1035
(dp1036
g57
(dp1037
g84
g85
ssg66
g1026
sg59
(lp1038
S':'
asbag52
(g73
g54
NtRp1039
(dp1040
g57
(dp1041
sg66
g1026
sg59
(lp1042
g52
(g53
g54
NtRp1043
(dp1044
g57
(dp1045
g65
I4
ssg66
g1039
sg59
(lp1046
S'es-es,es;q=0.8,en-us;q=0.5,en;q=0.3'
p1047
asbasbasbag52
(g68
g54
NtRp1048
(dp1049
g57
(dp1050
sg66
g756
sg59
(lp1051
g52
(g73
g54
NtRp1052
(dp1053
g57
(dp1054
g77
g78
ssg66
g1048
sg59
(lp1055
S'http_connection'
p1056
asbag52
(g73
g54
NtRp1057
(dp1058
g57
(dp1059
g84
g85
ssg66
g1048
sg59
(lp1060
S':'
asbag52
(g73
g54
NtRp1061
(dp1062
g57
(dp1063
sg66
g1048
sg59
(lp1064
g52
(g53
g54
NtRp1065
(dp1066
g57
(dp1067
g65
I4
ssg66
g1061
sg59
(lp1068
S'keep-alive'
p1069
asbasbasbag52
(g68
g54
NtRp1070
(dp1071
g57
(dp1072
sg66
g756
sg59
(lp1073
g52
(g73
g54
NtRp1074
(dp1075
g57
(dp1076
g77
g78
ssg66
g1070
sg59
(lp1077
S'http_content_length'
p1078
asbag52
(g73
g54
NtRp1079
(dp1080
g57
(dp1081
g84
g85
ssg66
g1070
sg59
(lp1082
S':'
asbag52
(g73
g54
NtRp1083
(dp1084
g57
(dp1085
sg66
g1070
sg59
(lp1086
g52
(g53
g54
NtRp1087
(dp1088
g57
(dp1089
g65
I4
ssg66
g1083
sg59
(lp1090
g872
asbasbasbag52
(g68
g54
NtRp1091
(dp1092
g57
(dp1093
sg66
g756
sg59
(lp1094
g52
(g73
g54
NtRp1095
(dp1096
g57
(dp1097
g77
g78
ssg66
g1091
sg59
(lp1098
S'http_content_type'
p1099
asbag52
(g73
g54
NtRp1100
(dp1101
g57
(dp1102
g84
g85
ssg66
g1091
sg59
(lp1103
S':'
asbag52
(g73
g54
NtRp1104
(dp1105
g57
(dp1106
sg66
g1091
sg59
(lp1107
g52
(g53
g54
NtRp1108
(dp1109
g57
(dp1110
g65
I4
ssg66
g1104
sg59
(lp1111
g894
asbasbasbag52
(g68
g54
NtRp1112
(dp1113
g57
(dp1114
sg66
g756
sg59
(lp1115
g52
(g73
g54
NtRp1116
(dp1117
g57
(dp1118
g77
g78
ssg66
g1112
sg59
(lp1119
S'http_cookie'
p1120
asbag52
(g73
g54
NtRp1121
(dp1122
g57
(dp1123
g84
g85
ssg66
g1112
sg59
(lp1124
S':'
asbag52
(g73
g54
NtRp1125
(dp1126
g57
(dp1127
sg66
g1112
sg59
(lp1128
g52
(g53
g54
NtRp1129
(dp1130
g57
(dp1131
g65
I4
ssg66
g1125
sg59
(lp1132
S'session_id_welcome=127.0.0.1-376eb8b3-82de-4ca4-962a-cf914386adb5; session_id_admin=127.0.0.1-ab41072a-78d8-41d9-b0f6-43c9e78f0c91; session_id_desglosar_emails=127.0.0.1-78cf8050-df87-4502-afb9-ed0c3843b414'
p1133
asbasbasbag52
(g68
g54
NtRp1134
(dp1135
g57
(dp1136
sg66
g756
sg59
(lp1137
g52
(g73
g54
NtRp1138
(dp1139
g57
(dp1140
g77
g78
ssg66
g1134
sg59
(lp1141
S'http_host'
p1142
asbag52
(g73
g54
NtRp1143
(dp1144
g57
(dp1145
g84
g85
ssg66
g1134
sg59
(lp1146
S':'
asbag52
(g73
g54
NtRp1147
(dp1148
g57
(dp1149
sg66
g1134
sg59
(lp1150
g52
(g53
g54
NtRp1151
(dp1152
g57
(dp1153
g65
I4
ssg66
g1147
sg59
(lp1154
S'127.0.0.1:8000'
p1155
asbasbasbag52
(g68
g54
NtRp1156
(dp1157
g57
(dp1158
sg66
g756
sg59
(lp1159
g52
(g73
g54
NtRp1160
(dp1161
g57
(dp1162
g77
g78
ssg66
g1156
sg59
(lp1163
S'http_referer'
p1164
asbag52
(g73
g54
NtRp1165
(dp1166
g57
(dp1167
g84
g85
ssg66
g1156
sg59
(lp1168
S':'
asbag52
(g73
g54
NtRp1169
(dp1170
g57
(dp1171
sg66
g1156
sg59
(lp1172
g52
(g53
g54
NtRp1173
(dp1174
g57
(dp1175
g65
I4
ssg66
g1169
sg59
(lp1176
S'http://127.0.0.1:8000/Desglosar_Emails/default/entrada_mod3'
p1177
asbasbasbag52
(g68
g54
NtRp1178
(dp1179
g57
(dp1180
sg66
g756
sg59
(lp1181
g52
(g73
g54
NtRp1182
(dp1183
g57
(dp1184
g77
g78
ssg66
g1178
sg59
(lp1185
S'http_user_agent'
p1186
asbag52
(g73
g54
NtRp1187
(dp1188
g57
(dp1189
g84
g85
ssg66
g1178
sg59
(lp1190
S':'
asbag52
(g73
g54
NtRp1191
(dp1192
g57
(dp1193
sg66
g1178
sg59
(lp1194
g52
(g53
g54
NtRp1195
(dp1196
g57
(dp1197
g65
I4
ssg66
g1191
sg59
(lp1198
S'Mozilla/5.0 (Windows NT 6.1; WOW64; rv:6.0.2) Gecko/20100101 Firefox/6.0.2'
p1199
asbasbasbag52
(g68
g54
NtRp1200
(dp1201
g57
(dp1202
sg66
g756
sg59
(lp1203
g52
(g73
g54
NtRp1204
(dp1205
g57
(dp1206
g77
g78
ssg66
g1200
sg59
(lp1207
S'is_jython'
p1208
asbag52
(g73
g54
NtRp1209
(dp1210
g57
(dp1211
g84
g85
ssg66
g1200
sg59
(lp1212
S':'
asbag52
(g73
g54
NtRp1213
(dp1214
g57
(dp1215
sg66
g1200
sg59
(lp1216
g52
(g53
g54
NtRp1217
(dp1218
g57
(dp1219
g65
I4
ssg66
g1213
sg59
(lp1220
g95
asbasbasbag52
(g68
g54
NtRp1221
(dp1222
g57
(dp1223
sg66
g756
sg59
(lp1224
g52
(g73
g54
NtRp1225
(dp1226
g57
(dp1227
g77
g78
ssg66
g1221
sg59
(lp1228
S'path_info'
p1229
asbag52
(g73
g54
NtRp1230
(dp1231
g57
(dp1232
g84
g85
ssg66
g1221
sg59
(lp1233
S':'
asbag52
(g73
g54
NtRp1234
(dp1235
g57
(dp1236
sg66
g1221
sg59
(lp1237
g52
(g53
g54
NtRp1238
(dp1239
g57
(dp1240
g65
I4
ssg66
g1234
sg59
(lp1241
S'/Desglosar_Emails/default/entrada_mod3'
p1242
asbasbasbag52
(g68
g54
NtRp1243
(dp1244
g57
(dp1245
sg66
g756
sg59
(lp1246
g52
(g73
g54
NtRp1247
(dp1248
g57
(dp1249
g77
g78
ssg66
g1243
sg59
(lp1250
S'query_string'
p1251
asbag52
(g73
g54
NtRp1252
(dp1253
g57
(dp1254
g84
g85
ssg66
g1243
sg59
(lp1255
S':'
asbag52
(g73
g54
NtRp1256
(dp1257
g57
(dp1258
sg66
g1243
sg59
(lp1259
g52
(g53
g54
NtRp1260
(dp1261
g57
(dp1262
g65
I4
ssg66
g1256
sg59
(lp1263
S''
asbasbasbag52
(g68
g54
NtRp1264
(dp1265
g57
(dp1266
sg66
g756
sg59
(lp1267
g52
(g73
g54
NtRp1268
(dp1269
g57
(dp1270
g77
g78
ssg66
g1264
sg59
(lp1271
S'remote_addr'
p1272
asbag52
(g73
g54
NtRp1273
(dp1274
g57
(dp1275
g84
g85
ssg66
g1264
sg59
(lp1276
S':'
asbag52
(g73
g54
NtRp1277
(dp1278
g57
(dp1279
sg66
g1264
sg59
(lp1280
g52
(g53
g54
NtRp1281
(dp1282
g57
(dp1283
g65
I4
ssg66
g1277
sg59
(lp1284
g185
asbasbasbag52
(g68
g54
NtRp1285
(dp1286
g57
(dp1287
sg66
g756
sg59
(lp1288
g52
(g73
g54
NtRp1289
(dp1290
g57
(dp1291
g77
g78
ssg66
g1285
sg59
(lp1292
S'remote_port'
p1293
asbag52
(g73
g54
NtRp1294
(dp1295
g57
(dp1296
g84
g85
ssg66
g1285
sg59
(lp1297
S':'
asbag52
(g73
g54
NtRp1298
(dp1299
g57
(dp1300
sg66
g1285
sg59
(lp1301
g52
(g53
g54
NtRp1302
(dp1303
g57
(dp1304
g65
I4
ssg66
g1298
sg59
(lp1305
S'64472'
p1306
asbasbasbag52
(g68
g54
NtRp1307
(dp1308
g57
(dp1309
sg66
g756
sg59
(lp1310
g52
(g73
g54
NtRp1311
(dp1312
g57
(dp1313
g77
g78
ssg66
g1307
sg59
(lp1314
S'request_method'
p1315
asbag52
(g73
g54
NtRp1316
(dp1317
g57
(dp1318
g84
g85
ssg66
g1307
sg59
(lp1319
S':'
asbag52
(g73
g54
NtRp1320
(dp1321
g57
(dp1322
sg66
g1307
sg59
(lp1323
g52
(g53
g54
NtRp1324
(dp1325
g57
(dp1326
g65
I4
ssg66
g1320
sg59
(lp1327
S'POST'
p1328
asbasbasbag52
(g68
g54
NtRp1329
(dp1330
g57
(dp1331
sg66
g756
sg59
(lp1332
g52
(g73
g54
NtRp1333
(dp1334
g57
(dp1335
g77
g78
ssg66
g1329
sg59
(lp1336
S'script_name'
p1337
asbag52
(g73
g54
NtRp1338
(dp1339
g57
(dp1340
g84
g85
ssg66
g1329
sg59
(lp1341
S':'
asbag52
(g73
g54
NtRp1342
(dp1343
g57
(dp1344
sg66
g1329
sg59
(lp1345
g52
(g53
g54
NtRp1346
(dp1347
g57
(dp1348
g65
I4
ssg66
g1342
sg59
(lp1349
S''
asbasbasbag52
(g68
g54
NtRp1350
(dp1351
g57
(dp1352
sg66
g756
sg59
(lp1353
g52
(g73
g54
NtRp1354
(dp1355
g57
(dp1356
g77
g78
ssg66
g1350
sg59
(lp1357
S'server_name'
p1358
asbag52
(g73
g54
NtRp1359
(dp1360
g57
(dp1361
g84
g85
ssg66
g1350
sg59
(lp1362
S':'
asbag52
(g73
g54
NtRp1363
(dp1364
g57
(dp1365
sg66
g1350
sg59
(lp1366
g52
(g53
g54
NtRp1367
(dp1368
g57
(dp1369
g65
I4
ssg66
g1363
sg59
(lp1370
S'Swing'
p1371
asbasbasbag52
(g68
g54
NtRp1372
(dp1373
g57
(dp1374
sg66
g756
sg59
(lp1375
g52
(g73
g54
NtRp1376
(dp1377
g57
(dp1378
g77
g78
ssg66
g1372
sg59
(lp1379
S'server_port'
p1380
asbag52
(g73
g54
NtRp1381
(dp1382
g57
(dp1383
g84
g85
ssg66
g1372
sg59
(lp1384
S':'
asbag52
(g73
g54
NtRp1385
(dp1386
g57
(dp1387
sg66
g1372
sg59
(lp1388
g52
(g53
g54
NtRp1389
(dp1390
g57
(dp1391
g65
I4
ssg66
g1385
sg59
(lp1392
S'8000'
p1393
asbasbasbag52
(g68
g54
NtRp1394
(dp1395
g57
(dp1396
sg66
g756
sg59
(lp1397
g52
(g73
g54
NtRp1398
(dp1399
g57
(dp1400
g77
g78
ssg66
g1394
sg59
(lp1401
S'server_protocol'
p1402
asbag52
(g73
g54
NtRp1403
(dp1404
g57
(dp1405
g84
g85
ssg66
g1394
sg59
(lp1406
S':'
asbag52
(g73
g54
NtRp1407
(dp1408
g57
(dp1409
sg66
g1394
sg59
(lp1410
g52
(g53
g54
NtRp1411
(dp1412
g57
(dp1413
g65
I4
ssg66
g1407
sg59
(lp1414
S'HTTP/1.1'
p1415
asbasbasbag52
(g68
g54
NtRp1416
(dp1417
g57
(dp1418
sg66
g756
sg59
(lp1419
g52
(g73
g54
NtRp1420
(dp1421
g57
(dp1422
g77
g78
ssg66
g1416
sg59
(lp1423
S'server_software'
p1424
asbag52
(g73
g54
NtRp1425
(dp1426
g57
(dp1427
g84
g85
ssg66
g1416
sg59
(lp1428
S':'
asbag52
(g73
g54
NtRp1429
(dp1430
g57
(dp1431
sg66
g1416
sg59
(lp1432
g52
(g53
g54
NtRp1433
(dp1434
g57
(dp1435
g65
I4
ssg66
g1429
sg59
(lp1436
S'Rocket 1.2.2'
p1437
asbasbasbag52
(g68
g54
NtRp1438
(dp1439
g57
(dp1440
sg66
g756
sg59
(lp1441
g52
(g73
g54
NtRp1442
(dp1443
g57
(dp1444
g77
g78
ssg66
g1438
sg59
(lp1445
S'web2py_crontype'
p1446
asbag52
(g73
g54
NtRp1447
(dp1448
g57
(dp1449
g84
g85
ssg66
g1438
sg59
(lp1450
S':'
asbag52
(g73
g54
NtRp1451
(dp1452
g57
(dp1453
sg66
g1438
sg59
(lp1454
g52
(g53
g54
NtRp1455
(dp1456
g57
(dp1457
g65
I4
ssg66
g1451
sg59
(lp1458
S'hard'
p1459
asbasbasbag52
(g68
g54
NtRp1460
(dp1461
g57
(dp1462
sg66
g756
sg59
(lp1463
g52
(g73
g54
NtRp1464
(dp1465
g57
(dp1466
g77
g78
ssg66
g1460
sg59
(lp1467
S'web2py_path'
p1468
asbag52
(g73
g54
NtRp1469
(dp1470
g57
(dp1471
g84
g85
ssg66
g1460
sg59
(lp1472
S':'
asbag52
(g73
g54
NtRp1473
(dp1474
g57
(dp1475
sg66
g1460
sg59
(lp1476
g52
(g53
g54
NtRp1477
(dp1478
g57
(dp1479
g65
I4
ssg66
g1473
sg59
(lp1480
g803
asbasbasbag52
(g68
g54
NtRp1481
(dp1482
g57
(dp1483
sg66
g756
sg59
(lp1484
g52
(g73
g54
NtRp1485
(dp1486
g57
(dp1487
g77
g78
ssg66
g1481
sg59
(lp1488
S'web2py_version'
p1489
asbag52
(g73
g54
NtRp1490
(dp1491
g57
(dp1492
g84
g85
ssg66
g1481
sg59
(lp1493
S':'
asbag52
(g73
g54
NtRp1494
(dp1495
g57
(dp1496
sg66
g1481
sg59
(lp1497
g52
(g53
g54
NtRp1498
(dp1499
g57
(dp1500
g65
I4
ssg66
g1494
sg59
(lp1501
S'Version 1.98.2 (2011-08-04 00:47:09)\n'
p1502
asbasbasbag52
(g68
g54
NtRp1503
(dp1504
g57
(dp1505
sg66
g756
sg59
(lp1506
g52
(g73
g54
NtRp1507
(dp1508
g57
(dp1509
g77
g78
ssg66
g1503
sg59
(lp1510
S'wsgi_errors'
p1511
asbag52
(g73
g54
NtRp1512
(dp1513
g57
(dp1514
g84
g85
ssg66
g1503
sg59
(lp1515
S':'
asbag52
(g73
g54
NtRp1516
(dp1517
g57
(dp1518
sg66
g1503
sg59
(lp1519
g52
(g53
g54
NtRp1520
(dp1521
g57
(dp1522
g65
I4
ssg66
g1516
sg59
(lp1523
S"<open file '<stderr>', mode 'w' at 0x01F200B0>"
p1524
asbasbasbag52
(g68
g54
NtRp1525
(dp1526
g57
(dp1527
sg66
g756
sg59
(lp1528
g52
(g73
g54
NtRp1529
(dp1530
g57
(dp1531
g77
g78
ssg66
g1525
sg59
(lp1532
S'wsgi_file_wrapper'
p1533
asbag52
(g73
g54
NtRp1534
(dp1535
g57
(dp1536
g84
g85
ssg66
g1525
sg59
(lp1537
S':'
asbag52
(g73
g54
NtRp1538
(dp1539
g57
(dp1540
sg66
g1525
sg59
(lp1541
g52
(g53
g54
NtRp1542
(dp1543
g57
(dp1544
g65
I4
ssg66
g1538
sg59
(lp1545
S'<class gluon.rocket.FileWrapper at 0x0307F1B0>'
p1546
asbasbasbag52
(g68
g54
NtRp1547
(dp1548
g57
(dp1549
sg66
g756
sg59
(lp1550
g52
(g73
g54
NtRp1551
(dp1552
g57
(dp1553
g77
g78
ssg66
g1547
sg59
(lp1554
S'wsgi_input'
p1555
asbag52
(g73
g54
NtRp1556
(dp1557
g57
(dp1558
g84
g85
ssg66
g1547
sg59
(lp1559
S':'
asbag52
(g73
g54
NtRp1560
(dp1561
g57
(dp1562
sg66
g1547
sg59
(lp1563
g52
(g53
g54
NtRp1564
(dp1565
g57
(dp1566
g65
I4
ssg66
g1560
sg59
(lp1567
S'<socket._fileobject object at 0x032EF3B0>'
p1568
asbasbasbag52
(g68
g54
NtRp1569
(dp1570
g57
(dp1571
sg66
g756
sg59
(lp1572
g52
(g73
g54
NtRp1573
(dp1574
g57
(dp1575
g77
g78
ssg66
g1569
sg59
(lp1576
S'wsgi_multiprocess'
p1577
asbag52
(g73
g54
NtRp1578
(dp1579
g57
(dp1580
g84
g85
ssg66
g1569
sg59
(lp1581
S':'
asbag52
(g73
g54
NtRp1582
(dp1583
g57
(dp1584
sg66
g1569
sg59
(lp1585
g52
(g53
g54
NtRp1586
(dp1587
g57
(dp1588
g65
I4
ssg66
g1582
sg59
(lp1589
g95
asbasbasbag52
(g68
g54
NtRp1590
(dp1591
g57
(dp1592
sg66
g756
sg59
(lp1593
g52
(g73
g54
NtRp1594
(dp1595
g57
(dp1596
g77
g78
ssg66
g1590
sg59
(lp1597
S'wsgi_multithread'
p1598
asbag52
(g73
g54
NtRp1599
(dp1600
g57
(dp1601
g84
g85
ssg66
g1590
sg59
(lp1602
S':'
asbag52
(g73
g54
NtRp1603
(dp1604
g57
(dp1605
sg66
g1590
sg59
(lp1606
g52
(g53
g54
NtRp1607
(dp1608
g57
(dp1609
g65
I4
ssg66
g1603
sg59
(lp1610
S'True'
p1611
asbasbasbag52
(g68
g54
NtRp1612
(dp1613
g57
(dp1614
sg66
g756
sg59
(lp1615
g52
(g73
g54
NtRp1616
(dp1617
g57
(dp1618
g77
g78
ssg66
g1612
sg59
(lp1619
S'wsgi_run_once'
p1620
asbag52
(g73
g54
NtRp1621
(dp1622
g57
(dp1623
g84
g85
ssg66
g1612
sg59
(lp1624
S':'
asbag52
(g73
g54
NtRp1625
(dp1626
g57
(dp1627
sg66
g1612
sg59
(lp1628
g52
(g53
g54
NtRp1629
(dp1630
g57
(dp1631
g65
I4
ssg66
g1625
sg59
(lp1632
g95
asbasbasbag52
(g68
g54
NtRp1633
(dp1634
g57
(dp1635
sg66
g756
sg59
(lp1636
g52
(g73
g54
NtRp1637
(dp1638
g57
(dp1639
g77
g78
ssg66
g1633
sg59
(lp1640
S'wsgi_url_scheme'
p1641
asbag52
(g73
g54
NtRp1642
(dp1643
g57
(dp1644
g84
g85
ssg66
g1633
sg59
(lp1645
S':'
asbag52
(g73
g54
NtRp1646
(dp1647
g57
(dp1648
sg66
g1633
sg59
(lp1649
g52
(g53
g54
NtRp1650
(dp1651
g57
(dp1652
g65
I4
ssg66
g1646
sg59
(lp1653
S'http'
p1654
asbasbasbag52
(g68
g54
NtRp1655
(dp1656
g57
(dp1657
sg66
g756
sg59
(lp1658
g52
(g73
g54
NtRp1659
(dp1660
g57
(dp1661
g77
g78
ssg66
g1655
sg59
(lp1662
S'wsgi_version'
p1663
asbag52
(g73
g54
NtRp1664
(dp1665
g57
(dp1666
g84
g85
ssg66
g1655
sg59
(lp1667
S':'
asbag52
(g73
g54
NtRp1668
(dp1669
g57
(dp1670
sg66
g1655
sg59
(lp1671
g52
(g53
g54
NtRp1672
(dp1673
g57
(dp1674
g65
I4
ssg66
g1668
sg59
(lp1675
g52
(g61
g54
NtRp1676
(dp1677
g57
(dp1678
g65
I3
ssg66
Nsg59
(lp1679
g52
(g68
g54
NtRp1680
(dp1681
g57
(dp1682
sg66
g1676
sg59
(lp1683
g52
(g73
g54
NtRp1684
(dp1685
g57
(dp1686
sg66
g1680
sg59
(lp1687
g52
(g53
g54
NtRp1688
(dp1689
g57
(dp1690
g65
I3
ssg66
g1684
sg59
(lp1691
S'1'
asbasbasbag52
(g68
g54
NtRp1692
(dp1693
g57
(dp1694
sg66
g1676
sg59
(lp1695
g52
(g73
g54
NtRp1696
(dp1697
g57
(dp1698
sg66
g1692
sg59
(lp1699
g52
(g53
g54
NtRp1700
(dp1701
g57
(dp1702
g65
I3
ssg66
g1696
sg59
(lp1703
S'0'
asbasbasbasbasbasbasbasbasbasbasbag52
(g68
g54
NtRp1704
(dp1705
g57
(dp1706
sg66
g62
sg59
(lp1707
g52
(g73
g54
NtRp1708
(dp1709
g57
(dp1710
g77
g78
ssg66
g1704
sg59
(lp1711
S'extension'
p1712
asbag52
(g73
g54
NtRp1713
(dp1714
g57
(dp1715
g84
g85
ssg66
g1704
sg59
(lp1716
S':'
asbag52
(g73
g54
NtRp1717
(dp1718
g57
(dp1719
sg66
g1704
sg59
(lp1720
g52
(g53
g54
NtRp1721
(dp1722
g57
(dp1723
g65
I5
ssg66
g1717
sg59
(lp1724
S'html'
p1725
asbasbasbag52
(g68
g54
NtRp1726
(dp1727
g57
(dp1728
sg66
g62
sg59
(lp1729
g52
(g73
g54
NtRp1730
(dp1731
g57
(dp1732
g77
g78
ssg66
g1726
sg59
(lp1733
S'folder'
p1734
asbag52
(g73
g54
NtRp1735
(dp1736
g57
(dp1737
g84
g85
ssg66
g1726
sg59
(lp1738
S':'
asbag52
(g73
g54
NtRp1739
(dp1740
g57
(dp1741
sg66
g1726
sg59
(lp1742
g52
(g53
g54
NtRp1743
(dp1744
g57
(dp1745
g65
I5
ssg66
g1739
sg59
(lp1746
S'C:\\Users\\Atomico\\web2py\\applications\\Desglosar_Emails\\'
p1747
asbasbasbag52
(g68
g54
NtRp1748
(dp1749
g57
(dp1750
sg66
g62
sg59
(lp1751
g52
(g73
g54
NtRp1752
(dp1753
g57
(dp1754
g77
g78
ssg66
g1748
sg59
(lp1755
S'function'
p1756
asbag52
(g73
g54
NtRp1757
(dp1758
g57
(dp1759
g84
g85
ssg66
g1748
sg59
(lp1760
S':'
asbag52
(g73
g54
NtRp1761
(dp1762
g57
(dp1763
sg66
g1748
sg59
(lp1764
g52
(g53
g54
NtRp1765
(dp1766
g57
(dp1767
g65
I5
ssg66
g1761
sg59
(lp1768
S'entrada_mod3'
p1769
asbasbasbag52
(g68
g54
NtRp1770
(dp1771
g57
(dp1772
sg66
g62
sg59
(lp1773
g52
(g73
g54
NtRp1774
(dp1775
g57
(dp1776
g77
g78
ssg66
g1770
sg59
(lp1777
S'get_vars'
p1778
asbag52
(g73
g54
NtRp1779
(dp1780
g57
(dp1781
g84
g85
ssg66
g1770
sg59
(lp1782
S':'
asbag52
(g73
g54
NtRp1783
(dp1784
g57
(dp1785
sg66
g1770
sg59
(lp1786
g52
(g53
g54
NtRp1787
(dp1788
g57
(dp1789
g65
I5
ssg66
g1783
sg59
(lp1790
g52
(g61
g54
NtRp1791
(dp1792
g57
(dp1793
g65
I4
ssg66
Nsg59
(lp1794
sbasbasbasbag52
(g68
g54
NtRp1795
(dp1796
g57
(dp1797
sg66
g62
sg59
(lp1798
g52
(g73
g54
NtRp1799
(dp1800
g57
(dp1801
g77
g78
ssg66
g1795
sg59
(lp1802
S'is_https'
p1803
asbag52
(g73
g54
NtRp1804
(dp1805
g57
(dp1806
g84
g85
ssg66
g1795
sg59
(lp1807
S':'
asbag52
(g73
g54
NtRp1808
(dp1809
g57
(dp1810
sg66
g1795
sg59
(lp1811
g52
(g53
g54
NtRp1812
(dp1813
g57
(dp1814
g65
I5
ssg66
g1808
sg59
(lp1815
g95
asbasbasbag52
(g68
g54
NtRp1816
(dp1817
g57
(dp1818
sg66
g62
sg59
(lp1819
g52
(g73
g54
NtRp1820
(dp1821
g57
(dp1822
g77
g78
ssg66
g1816
sg59
(lp1823
S'is_local'
p1824
asbag52
(g73
g54
NtRp1825
(dp1826
g57
(dp1827
g84
g85
ssg66
g1816
sg59
(lp1828
S':'
asbag52
(g73
g54
NtRp1829
(dp1830
g57
(dp1831
sg66
g1816
sg59
(lp1832
g52
(g53
g54
NtRp1833
(dp1834
g57
(dp1835
g65
I5
ssg66
g1829
sg59
(lp1836
g1611
asbasbasbag52
(g68
g54
NtRp1837
(dp1838
g57
(dp1839
sg66
g62
sg59
(lp1840
g52
(g73
g54
NtRp1841
(dp1842
g57
(dp1843
g77
g78
ssg66
g1837
sg59
(lp1844
S'is_restful'
p1845
asbag52
(g73
g54
NtRp1846
(dp1847
g57
(dp1848
g84
g85
ssg66
g1837
sg59
(lp1849
S':'
asbag52
(g73
g54
NtRp1850
(dp1851
g57
(dp1852
sg66
g1837
sg59
(lp1853
g52
(g53
g54
NtRp1854
(dp1855
g57
(dp1856
g65
I5
ssg66
g1850
sg59
(lp1857
g95
asbasbasbag52
(g68
g54
NtRp1858
(dp1859
g57
(dp1860
sg66
g62
sg59
(lp1861
g52
(g73
g54
NtRp1862
(dp1863
g57
(dp1864
g77
g78
ssg66
g1858
sg59
(lp1865
S'now'
p1866
asbag52
(g73
g54
NtRp1867
(dp1868
g57
(dp1869
g84
g85
ssg66
g1858
sg59
(lp1870
S':'
asbag52
(g73
g54
NtRp1871
(dp1872
g57
(dp1873
sg66
g1858
sg59
(lp1874
g52
(g53
g54
NtRp1875
(dp1876
g57
(dp1877
g65
I5
ssg66
g1871
sg59
(lp1878
S'datetime.datetime(2011, 9, 20, 9, 5, 4, 548000)'
p1879
asbasbasbag52
(g68
g54
NtRp1880
(dp1881
g57
(dp1882
sg66
g62
sg59
(lp1883
g52
(g73
g54
NtRp1884
(dp1885
g57
(dp1886
g77
g78
ssg66
g1880
sg59
(lp1887
S'post_vars'
p1888
asbag52
(g73
g54
NtRp1889
(dp1890
g57
(dp1891
g84
g85
ssg66
g1880
sg59
(lp1892
S':'
asbag52
(g73
g54
NtRp1893
(dp1894
g57
(dp1895
sg66
g1880
sg59
(lp1896
g52
(g53
g54
NtRp1897
(dp1898
g57
(dp1899
g65
I5
ssg66
g1893
sg59
(lp1900
g52
(g61
g54
NtRp1901
(dp1902
g57
(dp1903
g65
I4
ssg66
Nsg59
(lp1904
g52
(g68
g54
NtRp1905
(dp1906
g57
(dp1907
sg66
g1901
sg59
(lp1908
g52
(g73
g54
NtRp1909
(dp1910
g57
(dp1911
g77
g78
ssg66
g1905
sg59
(lp1912
S'longitud'
p1913
asbag52
(g73
g54
NtRp1914
(dp1915
g57
(dp1916
g84
g85
ssg66
g1905
sg59
(lp1917
S':'
asbag52
(g73
g54
NtRp1918
(dp1919
g57
(dp1920
sg66
g1905
sg59
(lp1921
g52
(g53
g54
NtRp1922
(dp1923
g57
(dp1924
g65
I4
ssg66
g1918
sg59
(lp1925
S''
asbasbasbag52
(g68
g54
NtRp1926
(dp1927
g57
(dp1928
sg66
g1901
sg59
(lp1929
g52
(g73
g54
NtRp1930
(dp1931
g57
(dp1932
g77
g78
ssg66
g1926
sg59
(lp1933
S'texto'
p1934
asbag52
(g73
g54
NtRp1935
(dp1936
g57
(dp1937
g84
g85
ssg66
g1926
sg59
(lp1938
S':'
asbag52
(g73
g54
NtRp1939
(dp1940
g57
(dp1941
sg66
g1926
sg59
(lp1942
g52
(g53
g54
NtRp1943
(dp1944
g57
(dp1945
g65
I4
ssg66
g1939
sg59
(lp1946
S'onkicaronki@hotmail.com, cecilia.prada@fastwebnet.it, gallo.moa@gmail.com, ferrer_chinchilla@yahoo.es  RESTI (restign@hotmail.com); Natacion, Luis (enebel1@euskalnet.net); Natacion, Jose Manuel (jmprieto@ashland.com); Natacion, club (cdnmeatzaldea@hotmail.com); Mikel (mikelvitores7@hotmail.com); Maite (maitemoran1@hotmail.com); Luisma (lmfullaondo@hotmail.com); Luis Angel (labengoetxea@hotmail.com); i\xc3\xb1aki vitores pascual (ivitorespascual@hotmail.com); I\xc3\xb1aki (zitrofulmi@hotmail.com); I\xc3\xb1aki - euskaltel (ivitores@euskaltel.net); Gaizka (gaiz_tami@hotmail.com); G. Yoli (bizkaitar@yahoo.es); G. Vicente (dimeqsikballero1967@hotmail.com); G. Txomin (txominsanchez@hotmail.com); G. Sergio (sergirgutierrez@hotmail.com); G. Luis (drtedio@hotmail.com); G. Lucio (instri@hotmail.com); G. Koldo (atilanoh@hotmail.com); G. Jesus (kurru@euskalnet.net); G. Javi (soka_sestao@hotmail.com); G. Jasone (bizkuter@hotmail.es); G. Iban (askatasun_bideak@hotmail.com); G. Gorka (gorkitarob@gmail.com); G Alejandro (ajavier@euskalnet.net); Clarisa (clarisa_palomar@hotmail.com); Carolina Fullaondo (caryto73@hotmail.com); C. MANU@MONTSE (PORTU) (manu.mrnd@gmail.com); C. KE\xc3\x91O&AVELI (PORTU) (eu_cortes@yahoo.es); C. Javi Tamayo (Portu) (jtamayoe@msn.com); C. I\xc3\x91AKI&MAITE (PORTU) (ivitores@euskalnet.net); C. I\xc3\x91AKI&ANA (PORTU) (ialonso@euskalnet.net); C. EMILIO&CRISTINA (PORTU) (emilioanero@telefonica.net); C. ANDONI&ASCEN (PORTU) (andonibas@teleline.es); C. ANDONI @ISABEL (PORTU) (andysa@euskalnet.net); Bibi (bibianaperezsolano@hotmail.com)'
p1947
asbasbasbasbasbasbasbag52
(g68
g54
NtRp1948
(dp1949
g57
(dp1950
sg66
g62
sg59
(lp1951
g52
(g73
g54
NtRp1952
(dp1953
g57
(dp1954
g77
g78
ssg66
g1948
sg59
(lp1955
S'url'
p1956
asbag52
(g73
g54
NtRp1957
(dp1958
g57
(dp1959
g84
g85
ssg66
g1948
sg59
(lp1960
S':'
asbag52
(g73
g54
NtRp1961
(dp1962
g57
(dp1963
sg66
g1948
sg59
(lp1964
g52
(g53
g54
NtRp1965
(dp1966
g57
(dp1967
g65
I5
ssg66
g1961
sg59
(lp1968
S'/Desglosar_Emails/default/entrada_mod3'
p1969
asbasbasbag52
(g68
g54
NtRp1970
(dp1971
g57
(dp1972
sg66
g62
sg59
(lp1973
g52
(g73
g54
NtRp1974
(dp1975
g57
(dp1976
g77
g78
ssg66
g1970
sg59
(lp1977
S'uuid'
p1978
asbag52
(g73
g54
NtRp1979
(dp1980
g57
(dp1981
g84
g85
ssg66
g1970
sg59
(lp1982
S':'
asbag52
(g73
g54
NtRp1983
(dp1984
g57
(dp1985
sg66
g1970
sg59
(lp1986
g52
(g53
g54
NtRp1987
(dp1988
g57
(dp1989
g65
I5
ssg66
g1983
sg59
(lp1990
S'Desglosar_Emails/127.0.0.1.2011-09-20.09-05-04.6bde66f6-42f3-44a1-b14f-778e969b2bab'
p1991
asbasbasbag52
(g68
g54
NtRp1992
(dp1993
g57
(dp1994
sg66
g62
sg59
(lp1995
g52
(g73
g54
NtRp1996
(dp1997
g57
(dp1998
g77
g78
ssg66
g1992
sg59
(lp1999
S'vars'
p2000
asbag52
(g73
g54
NtRp2001
(dp2002
g57
(dp2003
g84
g85
ssg66
g1992
sg59
(lp2004
S':'
asbag52
(g73
g54
NtRp2005
(dp2006
g57
(dp2007
sg66
g1992
sg59
(lp2008
g52
(g53
g54
NtRp2009
(dp2010
g57
(dp2011
g65
I5
ssg66
g2005
sg59
(lp2012
g52
(g61
g54
NtRp2013
(dp2014
g57
(dp2015
g65
I4
ssg66
Nsg59
(lp2016
g52
(g68
g54
NtRp2017
(dp2018
g57
(dp2019
sg66
g2013
sg59
(lp2020
g52
(g73
g54
NtRp2021
(dp2022
g57
(dp2023
g77
g78
ssg66
g2017
sg59
(lp2024
g1913
asbag52
(g73
g54
NtRp2025
(dp2026
g57
(dp2027
g84
g85
ssg66
g2017
sg59
(lp2028
S':'
asbag52
(g73
g54
NtRp2029
(dp2030
g57
(dp2031
sg66
g2017
sg59
(lp2032
g52
(g53
g54
NtRp2033
(dp2034
g57
(dp2035
g65
I4
ssg66
g2029
sg59
(lp2036
S''
asbasbasbag52
(g68
g54
NtRp2037
(dp2038
g57
(dp2039
sg66
g2013
sg59
(lp2040
g52
(g73
g54
NtRp2041
(dp2042
g57
(dp2043
g77
g78
ssg66
g2037
sg59
(lp2044
g1934
asbag52
(g73
g54
NtRp2045
(dp2046
g57
(dp2047
g84
g85
ssg66
g2037
sg59
(lp2048
S':'
asbag52
(g73
g54
NtRp2049
(dp2050
g57
(dp2051
sg66
g2037
sg59
(lp2052
g52
(g53
g54
NtRp2053
(dp2054
g57
(dp2055
g65
I4
ssg66
g2049
sg59
(lp2056
g1947
asbasbasbasbasbasbasbag52
(g68
g54
NtRp2057
(dp2058
g57
(dp2059
sg66
g62
sg59
(lp2060
g52
(g73
g54
NtRp2061
(dp2062
g57
(dp2063
g77
g78
ssg66
g2057
sg59
(lp2064
S'wsgi'
p2065
asbag52
(g73
g54
NtRp2066
(dp2067
g57
(dp2068
g84
g85
ssg66
g2057
sg59
(lp2069
S':'
asbag52
(g73
g54
NtRp2070
(dp2071
g57
(dp2072
sg66
g2057
sg59
(lp2073
g52
(g53
g54
NtRp2074
(dp2075
g57
(dp2076
g65
I5
ssg66
g2070
sg59
(lp2077
g52
(g61
g54
NtRp2078
(dp2079
g57
(dp2080
g65
I4
ssg66
Nsg59
(lp2081
g52
(g68
g54
NtRp2082
(dp2083
g57
(dp2084
sg66
g2078
sg59
(lp2085
g52
(g73
g54
NtRp2086
(dp2087
g57
(dp2088
g77
g78
ssg66
g2082
sg59
(lp2089
S'environ'
p2090
asbag52
(g73
g54
NtRp2091
(dp2092
g57
(dp2093
g84
g85
ssg66
g2082
sg59
(lp2094
S':'
asbag52
(g73
g54
NtRp2095
(dp2096
g57
(dp2097
sg66
g2082
sg59
(lp2098
g52
(g53
g54
NtRp2099
(dp2100
g57
(dp2101
g65
I4
ssg66
g2095
sg59
(lp2102
g52
(g61
g54
NtRp2103
(dp2104
g57
(dp2105
g65
I3
ssg66
Nsg59
(lp2106
g52
(g68
g54
NtRp2107
(dp2108
g57
(dp2109
sg66
g2103
sg59
(lp2110
g52
(g73
g54
NtRp2111
(dp2112
g57
(dp2113
g77
g78
ssg66
g2107
sg59
(lp2114
S'CONTENT_LENGTH'
p2115
asbag52
(g73
g54
NtRp2116
(dp2117
g57
(dp2118
g84
g85
ssg66
g2107
sg59
(lp2119
S':'
asbag52
(g73
g54
NtRp2120
(dp2121
g57
(dp2122
sg66
g2107
sg59
(lp2123
g52
(g53
g54
NtRp2124
(dp2125
g57
(dp2126
g65
I3
ssg66
g2120
sg59
(lp2127
g872
asbasbasbag52
(g68
g54
NtRp2128
(dp2129
g57
(dp2130
sg66
g2103
sg59
(lp2131
g52
(g73
g54
NtRp2132
(dp2133
g57
(dp2134
g77
g78
ssg66
g2128
sg59
(lp2135
S'CONTENT_TYPE'
p2136
asbag52
(g73
g54
NtRp2137
(dp2138
g57
(dp2139
g84
g85
ssg66
g2128
sg59
(lp2140
S':'
asbag52
(g73
g54
NtRp2141
(dp2142
g57
(dp2143
sg66
g2128
sg59
(lp2144
g52
(g53
g54
NtRp2145
(dp2146
g57
(dp2147
g65
I3
ssg66
g2141
sg59
(lp2148
g894
asbasbasbag52
(g68
g54
NtRp2149
(dp2150
g57
(dp2151
sg66
g2103
sg59
(lp2152
g52
(g73
g54
NtRp2153
(dp2154
g57
(dp2155
g77
g78
ssg66
g2149
sg59
(lp2156
S'HTTP_ACCEPT'
p2157
asbag52
(g73
g54
NtRp2158
(dp2159
g57
(dp2160
g84
g85
ssg66
g2149
sg59
(lp2161
S':'
asbag52
(g73
g54
NtRp2162
(dp2163
g57
(dp2164
sg66
g2149
sg59
(lp2165
g52
(g53
g54
NtRp2166
(dp2167
g57
(dp2168
g65
I3
ssg66
g2162
sg59
(lp2169
g981
asbasbasbag52
(g68
g54
NtRp2170
(dp2171
g57
(dp2172
sg66
g2103
sg59
(lp2173
g52
(g73
g54
NtRp2174
(dp2175
g57
(dp2176
g77
g78
ssg66
g2170
sg59
(lp2177
S'HTTP_ACCEPT_CHARSET'
p2178
asbag52
(g73
g54
NtRp2179
(dp2180
g57
(dp2181
g84
g85
ssg66
g2170
sg59
(lp2182
S':'
asbag52
(g73
g54
NtRp2183
(dp2184
g57
(dp2185
sg66
g2170
sg59
(lp2186
g52
(g53
g54
NtRp2187
(dp2188
g57
(dp2189
g65
I3
ssg66
g2183
sg59
(lp2190
g1003
asbasbasbag52
(g68
g54
NtRp2191
(dp2192
g57
(dp2193
sg66
g2103
sg59
(lp2194
g52
(g73
g54
NtRp2195
(dp2196
g57
(dp2197
g77
g78
ssg66
g2191
sg59
(lp2198
S'HTTP_ACCEPT_ENCODING'
p2199
asbag52
(g73
g54
NtRp2200
(dp2201
g57
(dp2202
g84
g85
ssg66
g2191
sg59
(lp2203
S':'
asbag52
(g73
g54
NtRp2204
(dp2205
g57
(dp2206
sg66
g2191
sg59
(lp2207
g52
(g53
g54
NtRp2208
(dp2209
g57
(dp2210
g65
I3
ssg66
g2204
sg59
(lp2211
g1025
asbasbasbag52
(g68
g54
NtRp2212
(dp2213
g57
(dp2214
sg66
g2103
sg59
(lp2215
g52
(g73
g54
NtRp2216
(dp2217
g57
(dp2218
g77
g78
ssg66
g2212
sg59
(lp2219
S'HTTP_ACCEPT_LANGUAGE'
p2220
asbag52
(g73
g54
NtRp2221
(dp2222
g57
(dp2223
g84
g85
ssg66
g2212
sg59
(lp2224
S':'
asbag52
(g73
g54
NtRp2225
(dp2226
g57
(dp2227
sg66
g2212
sg59
(lp2228
g52
(g53
g54
NtRp2229
(dp2230
g57
(dp2231
g65
I3
ssg66
g2225
sg59
(lp2232
g1047
asbasbasbag52
(g68
g54
NtRp2233
(dp2234
g57
(dp2235
sg66
g2103
sg59
(lp2236
g52
(g73
g54
NtRp2237
(dp2238
g57
(dp2239
g77
g78
ssg66
g2233
sg59
(lp2240
S'HTTP_CONNECTION'
p2241
asbag52
(g73
g54
NtRp2242
(dp2243
g57
(dp2244
g84
g85
ssg66
g2233
sg59
(lp2245
S':'
asbag52
(g73
g54
NtRp2246
(dp2247
g57
(dp2248
sg66
g2233
sg59
(lp2249
g52
(g53
g54
NtRp2250
(dp2251
g57
(dp2252
g65
I3
ssg66
g2246
sg59
(lp2253
g1069
asbasbasbag52
(g68
g54
NtRp2254
(dp2255
g57
(dp2256
sg66
g2103
sg59
(lp2257
g52
(g73
g54
NtRp2258
(dp2259
g57
(dp2260
g77
g78
ssg66
g2254
sg59
(lp2261
S'HTTP_CONTENT_LENGTH'
p2262
asbag52
(g73
g54
NtRp2263
(dp2264
g57
(dp2265
g84
g85
ssg66
g2254
sg59
(lp2266
S':'
asbag52
(g73
g54
NtRp2267
(dp2268
g57
(dp2269
sg66
g2254
sg59
(lp2270
g52
(g53
g54
NtRp2271
(dp2272
g57
(dp2273
g65
I3
ssg66
g2267
sg59
(lp2274
g872
asbasbasbag52
(g68
g54
NtRp2275
(dp2276
g57
(dp2277
sg66
g2103
sg59
(lp2278
g52
(g73
g54
NtRp2279
(dp2280
g57
(dp2281
g77
g78
ssg66
g2275
sg59
(lp2282
S'HTTP_CONTENT_TYPE'
p2283
asbag52
(g73
g54
NtRp2284
(dp2285
g57
(dp2286
g84
g85
ssg66
g2275
sg59
(lp2287
S':'
asbag52
(g73
g54
NtRp2288
(dp2289
g57
(dp2290
sg66
g2275
sg59
(lp2291
g52
(g53
g54
NtRp2292
(dp2293
g57
(dp2294
g65
I3
ssg66
g2288
sg59
(lp2295
g894
asbasbasbag52
(g68
g54
NtRp2296
(dp2297
g57
(dp2298
sg66
g2103
sg59
(lp2299
g52
(g73
g54
NtRp2300
(dp2301
g57
(dp2302
g77
g78
ssg66
g2296
sg59
(lp2303
S'HTTP_COOKIE'
p2304
asbag52
(g73
g54
NtRp2305
(dp2306
g57
(dp2307
g84
g85
ssg66
g2296
sg59
(lp2308
S':'
asbag52
(g73
g54
NtRp2309
(dp2310
g57
(dp2311
sg66
g2296
sg59
(lp2312
g52
(g53
g54
NtRp2313
(dp2314
g57
(dp2315
g65
I3
ssg66
g2309
sg59
(lp2316
g1133
asbasbasbag52
(g68
g54
NtRp2317
(dp2318
g57
(dp2319
sg66
g2103
sg59
(lp2320
g52
(g73
g54
NtRp2321
(dp2322
g57
(dp2323
g77
g78
ssg66
g2317
sg59
(lp2324
S'HTTP_HOST'
p2325
asbag52
(g73
g54
NtRp2326
(dp2327
g57
(dp2328
g84
g85
ssg66
g2317
sg59
(lp2329
S':'
asbag52
(g73
g54
NtRp2330
(dp2331
g57
(dp2332
sg66
g2317
sg59
(lp2333
g52
(g53
g54
NtRp2334
(dp2335
g57
(dp2336
g65
I3
ssg66
g2330
sg59
(lp2337
g1155
asbasbasbag52
(g68
g54
NtRp2338
(dp2339
g57
(dp2340
sg66
g2103
sg59
(lp2341
g52
(g73
g54
NtRp2342
(dp2343
g57
(dp2344
g77
g78
ssg66
g2338
sg59
(lp2345
S'HTTP_REFERER'
p2346
asbag52
(g73
g54
NtRp2347
(dp2348
g57
(dp2349
g84
g85
ssg66
g2338
sg59
(lp2350
S':'
asbag52
(g73
g54
NtRp2351
(dp2352
g57
(dp2353
sg66
g2338
sg59
(lp2354
g52
(g53
g54
NtRp2355
(dp2356
g57
(dp2357
g65
I3
ssg66
g2351
sg59
(lp2358
g1177
asbasbasbag52
(g68
g54
NtRp2359
(dp2360
g57
(dp2361
sg66
g2103
sg59
(lp2362
g52
(g73
g54
NtRp2363
(dp2364
g57
(dp2365
g77
g78
ssg66
g2359
sg59
(lp2366
S'HTTP_USER_AGENT'
p2367
asbag52
(g73
g54
NtRp2368
(dp2369
g57
(dp2370
g84
g85
ssg66
g2359
sg59
(lp2371
S':'
asbag52
(g73
g54
NtRp2372
(dp2373
g57
(dp2374
sg66
g2359
sg59
(lp2375
g52
(g53
g54
NtRp2376
(dp2377
g57
(dp2378
g65
I3
ssg66
g2372
sg59
(lp2379
g1199
asbasbasbag52
(g68
g54
NtRp2380
(dp2381
g57
(dp2382
sg66
g2103
sg59
(lp2383
g52
(g73
g54
NtRp2384
(dp2385
g57
(dp2386
g77
g78
ssg66
g2380
sg59
(lp2387
S'PATH_INFO'
p2388
asbag52
(g73
g54
NtRp2389
(dp2390
g57
(dp2391
g84
g85
ssg66
g2380
sg59
(lp2392
S':'
asbag52
(g73
g54
NtRp2393
(dp2394
g57
(dp2395
sg66
g2380
sg59
(lp2396
g52
(g53
g54
NtRp2397
(dp2398
g57
(dp2399
g65
I3
ssg66
g2393
sg59
(lp2400
g1242
asbasbasbag52
(g68
g54
NtRp2401
(dp2402
g57
(dp2403
sg66
g2103
sg59
(lp2404
g52
(g73
g54
NtRp2405
(dp2406
g57
(dp2407
g77
g78
ssg66
g2401
sg59
(lp2408
S'QUERY_STRING'
p2409
asbag52
(g73
g54
NtRp2410
(dp2411
g57
(dp2412
g84
g85
ssg66
g2401
sg59
(lp2413
S':'
asbag52
(g73
g54
NtRp2414
(dp2415
g57
(dp2416
sg66
g2401
sg59
(lp2417
g52
(g53
g54
NtRp2418
(dp2419
g57
(dp2420
g65
I3
ssg66
g2414
sg59
(lp2421
S''
asbasbasbag52
(g68
g54
NtRp2422
(dp2423
g57
(dp2424
sg66
g2103
sg59
(lp2425
g52
(g73
g54
NtRp2426
(dp2427
g57
(dp2428
g77
g78
ssg66
g2422
sg59
(lp2429
S'REMOTE_ADDR'
p2430
asbag52
(g73
g54
NtRp2431
(dp2432
g57
(dp2433
g84
g85
ssg66
g2422
sg59
(lp2434
S':'
asbag52
(g73
g54
NtRp2435
(dp2436
g57
(dp2437
sg66
g2422
sg59
(lp2438
g52
(g53
g54
NtRp2439
(dp2440
g57
(dp2441
g65
I3
ssg66
g2435
sg59
(lp2442
g185
asbasbasbag52
(g68
g54
NtRp2443
(dp2444
g57
(dp2445
sg66
g2103
sg59
(lp2446
g52
(g73
g54
NtRp2447
(dp2448
g57
(dp2449
g77
g78
ssg66
g2443
sg59
(lp2450
S'REMOTE_PORT'
p2451
asbag52
(g73
g54
NtRp2452
(dp2453
g57
(dp2454
g84
g85
ssg66
g2443
sg59
(lp2455
S':'
asbag52
(g73
g54
NtRp2456
(dp2457
g57
(dp2458
sg66
g2443
sg59
(lp2459
g52
(g53
g54
NtRp2460
(dp2461
g57
(dp2462
g65
I3
ssg66
g2456
sg59
(lp2463
g1306
asbasbasbag52
(g68
g54
NtRp2464
(dp2465
g57
(dp2466
sg66
g2103
sg59
(lp2467
g52
(g73
g54
NtRp2468
(dp2469
g57
(dp2470
g77
g78
ssg66
g2464
sg59
(lp2471
S'REQUEST_METHOD'
p2472
asbag52
(g73
g54
NtRp2473
(dp2474
g57
(dp2475
g84
g85
ssg66
g2464
sg59
(lp2476
S':'
asbag52
(g73
g54
NtRp2477
(dp2478
g57
(dp2479
sg66
g2464
sg59
(lp2480
g52
(g53
g54
NtRp2481
(dp2482
g57
(dp2483
g65
I3
ssg66
g2477
sg59
(lp2484
g1328
asbasbasbag52
(g68
g54
NtRp2485
(dp2486
g57
(dp2487
sg66
g2103
sg59
(lp2488
g52
(g73
g54
NtRp2489
(dp2490
g57
(dp2491
g77
g78
ssg66
g2485
sg59
(lp2492
S'SCRIPT_NAME'
p2493
asbag52
(g73
g54
NtRp2494
(dp2495
g57
(dp2496
g84
g85
ssg66
g2485
sg59
(lp2497
S':'
asbag52
(g73
g54
NtRp2498
(dp2499
g57
(dp2500
sg66
g2485
sg59
(lp2501
g52
(g53
g54
NtRp2502
(dp2503
g57
(dp2504
g65
I3
ssg66
g2498
sg59
(lp2505
S''
asbasbasbag52
(g68
g54
NtRp2506
(dp2507
g57
(dp2508
sg66
g2103
sg59
(lp2509
g52
(g73
g54
NtRp2510
(dp2511
g57
(dp2512
g77
g78
ssg66
g2506
sg59
(lp2513
S'SERVER_NAME'
p2514
asbag52
(g73
g54
NtRp2515
(dp2516
g57
(dp2517
g84
g85
ssg66
g2506
sg59
(lp2518
S':'
asbag52
(g73
g54
NtRp2519
(dp2520
g57
(dp2521
sg66
g2506
sg59
(lp2522
g52
(g53
g54
NtRp2523
(dp2524
g57
(dp2525
g65
I3
ssg66
g2519
sg59
(lp2526
g1371
asbasbasbag52
(g68
g54
NtRp2527
(dp2528
g57
(dp2529
sg66
g2103
sg59
(lp2530
g52
(g73
g54
NtRp2531
(dp2532
g57
(dp2533
g77
g78
ssg66
g2527
sg59
(lp2534
S'SERVER_PORT'
p2535
asbag52
(g73
g54
NtRp2536
(dp2537
g57
(dp2538
g84
g85
ssg66
g2527
sg59
(lp2539
S':'
asbag52
(g73
g54
NtRp2540
(dp2541
g57
(dp2542
sg66
g2527
sg59
(lp2543
g52
(g53
g54
NtRp2544
(dp2545
g57
(dp2546
g65
I3
ssg66
g2540
sg59
(lp2547
g1393
asbasbasbag52
(g68
g54
NtRp2548
(dp2549
g57
(dp2550
sg66
g2103
sg59
(lp2551
g52
(g73
g54
NtRp2552
(dp2553
g57
(dp2554
g77
g78
ssg66
g2548
sg59
(lp2555
S'SERVER_PROTOCOL'
p2556
asbag52
(g73
g54
NtRp2557
(dp2558
g57
(dp2559
g84
g85
ssg66
g2548
sg59
(lp2560
S':'
asbag52
(g73
g54
NtRp2561
(dp2562
g57
(dp2563
sg66
g2548
sg59
(lp2564
g52
(g53
g54
NtRp2565
(dp2566
g57
(dp2567
g65
I3
ssg66
g2561
sg59
(lp2568
g1415
asbasbasbag52
(g68
g54
NtRp2569
(dp2570
g57
(dp2571
sg66
g2103
sg59
(lp2572
g52
(g73
g54
NtRp2573
(dp2574
g57
(dp2575
g77
g78
ssg66
g2569
sg59
(lp2576
S'SERVER_SOFTWARE'
p2577
asbag52
(g73
g54
NtRp2578
(dp2579
g57
(dp2580
g84
g85
ssg66
g2569
sg59
(lp2581
S':'
asbag52
(g73
g54
NtRp2582
(dp2583
g57
(dp2584
sg66
g2569
sg59
(lp2585
g52
(g53
g54
NtRp2586
(dp2587
g57
(dp2588
g65
I3
ssg66
g2582
sg59
(lp2589
g1437
asbasbasbag52
(g68
g54
NtRp2590
(dp2591
g57
(dp2592
sg66
g2103
sg59
(lp2593
g52
(g73
g54
NtRp2594
(dp2595
g57
(dp2596
g77
g78
ssg66
g2590
sg59
(lp2597
S'wsgi.errors'
p2598
asbag52
(g73
g54
NtRp2599
(dp2600
g57
(dp2601
g84
g85
ssg66
g2590
sg59
(lp2602
S':'
asbag52
(g73
g54
NtRp2603
(dp2604
g57
(dp2605
sg66
g2590
sg59
(lp2606
g52
(g53
g54
NtRp2607
(dp2608
g57
(dp2609
g65
I3
ssg66
g2603
sg59
(lp2610
S"<open file '<stderr>', mode 'w' at 0x01F200B0>"
p2611
asbasbasbag52
(g68
g54
NtRp2612
(dp2613
g57
(dp2614
sg66
g2103
sg59
(lp2615
g52
(g73
g54
NtRp2616
(dp2617
g57
(dp2618
g77
g78
ssg66
g2612
sg59
(lp2619
S'wsgi.file_wrapper'
p2620
asbag52
(g73
g54
NtRp2621
(dp2622
g57
(dp2623
g84
g85
ssg66
g2612
sg59
(lp2624
S':'
asbag52
(g73
g54
NtRp2625
(dp2626
g57
(dp2627
sg66
g2612
sg59
(lp2628
g52
(g53
g54
NtRp2629
(dp2630
g57
(dp2631
g65
I3
ssg66
g2625
sg59
(lp2632
S'<class gluon.rocket.FileWrapper at 0x0307F1B0>'
p2633
asbasbasbag52
(g68
g54
NtRp2634
(dp2635
g57
(dp2636
sg66
g2103
sg59
(lp2637
g52
(g73
g54
NtRp2638
(dp2639
g57
(dp2640
g77
g78
ssg66
g2634
sg59
(lp2641
S'wsgi.input'
p2642
asbag52
(g73
g54
NtRp2643
(dp2644
g57
(dp2645
g84
g85
ssg66
g2634
sg59
(lp2646
S':'
asbag52
(g73
g54
NtRp2647
(dp2648
g57
(dp2649
sg66
g2634
sg59
(lp2650
g52
(g53
g54
NtRp2651
(dp2652
g57
(dp2653
g65
I3
ssg66
g2647
sg59
(lp2654
S"<open file '<fdopen>', mode 'w+b' at 0x07BAE260>"
p2655
asbasbasbag52
(g68
g54
NtRp2656
(dp2657
g57
(dp2658
sg66
g2103
sg59
(lp2659
g52
(g73
g54
NtRp2660
(dp2661
g57
(dp2662
g77
g78
ssg66
g2656
sg59
(lp2663
S'wsgi.multiprocess'
p2664
asbag52
(g73
g54
NtRp2665
(dp2666
g57
(dp2667
g84
g85
ssg66
g2656
sg59
(lp2668
S':'
asbag52
(g73
g54
NtRp2669
(dp2670
g57
(dp2671
sg66
g2656
sg59
(lp2672
g52
(g53
g54
NtRp2673
(dp2674
g57
(dp2675
g65
I3
ssg66
g2669
sg59
(lp2676
g95
asbasbasbag52
(g68
g54
NtRp2677
(dp2678
g57
(dp2679
sg66
g2103
sg59
(lp2680
g52
(g73
g54
NtRp2681
(dp2682
g57
(dp2683
g77
g78
ssg66
g2677
sg59
(lp2684
S'wsgi.multithread'
p2685
asbag52
(g73
g54
NtRp2686
(dp2687
g57
(dp2688
g84
g85
ssg66
g2677
sg59
(lp2689
S':'
asbag52
(g73
g54
NtRp2690
(dp2691
g57
(dp2692
sg66
g2677
sg59
(lp2693
g52
(g53
g54
NtRp2694
(dp2695
g57
(dp2696
g65
I3
ssg66
g2690
sg59
(lp2697
g1611
asbasbasbag52
(g68
g54
NtRp2698
(dp2699
g57
(dp2700
sg66
g2103
sg59
(lp2701
g52
(g73
g54
NtRp2702
(dp2703
g57
(dp2704
g77
g78
ssg66
g2698
sg59
(lp2705
S'wsgi.run_once'
p2706
asbag52
(g73
g54
NtRp2707
(dp2708
g57
(dp2709
g84
g85
ssg66
g2698
sg59
(lp2710
S':'
asbag52
(g73
g54
NtRp2711
(dp2712
g57
(dp2713
sg66
g2698
sg59
(lp2714
g52
(g53
g54
NtRp2715
(dp2716
g57
(dp2717
g65
I3
ssg66
g2711
sg59
(lp2718
g95
asbasbasbag52
(g68
g54
NtRp2719
(dp2720
g57
(dp2721
sg66
g2103
sg59
(lp2722
g52
(g73
g54
NtRp2723
(dp2724
g57
(dp2725
g77
g78
ssg66
g2719
sg59
(lp2726
S'wsgi.url_scheme'
p2727
asbag52
(g73
g54
NtRp2728
(dp2729
g57
(dp2730
g84
g85
ssg66
g2719
sg59
(lp2731
S':'
asbag52
(g73
g54
NtRp2732
(dp2733
g57
(dp2734
sg66
g2719
sg59
(lp2735
g52
(g53
g54
NtRp2736
(dp2737
g57
(dp2738
g65
I3
ssg66
g2732
sg59
(lp2739
g1654
asbasbasbag52
(g68
g54
NtRp2740
(dp2741
g57
(dp2742
sg66
g2103
sg59
(lp2743
g52
(g73
g54
NtRp2744
(dp2745
g57
(dp2746
g77
g78
ssg66
g2740
sg59
(lp2747
S'wsgi.version'
p2748
asbag52
(g73
g54
NtRp2749
(dp2750
g57
(dp2751
g84
g85
ssg66
g2740
sg59
(lp2752
S':'
asbag52
(g73
g54
NtRp2753
(dp2754
g57
(dp2755
sg66
g2740
sg59
(lp2756
g52
(g53
g54
NtRp2757
(dp2758
g57
(dp2759
g65
I3
ssg66
g2753
sg59
(lp2760
S'1'
asbasbasbasbasbasbasbasbasbasbasbasbasbsS'frames'
p2761
(lp2762
(dp2763
S'file'
p2764
S'C:\\Users\\Atomico\\web2py\\gluon\\restricted.py'
p2765
sS'dump'
p2766
(dp2767
sS'lnum'
p2768
I192
sS'lines'
p2769
(dp2770
sS'call'
p2771
S"(code='def entrada():\\n    form=SQLFORM(db.info)\\n    if ...)\\n\\nresponse._vars=response._caller(entrada_mod3)\\n', environment={'A': <class 'gluon.html.A'>, 'B': <class 'gluon.html.B'>, 'BEAUTIFY': <class 'gluon.html.BEAUTIFY'>, 'BODY': <class 'gluon.html.BODY'>, 'BR': <class 'gluon.html.BR'>, 'BUTTON': <class 'gluon.html.BUTTON'>, 'CAT': <class 'gluon.html.CAT'>, 'CENTER': <class 'gluon.html.CENTER'>, 'CLEANUP': <class 'gluon.validators.CLEANUP'>, 'CODE': <class 'gluon.html.CODE'>, ...}, layer=r'C:\\Users\\Atomico\\web2py\\applications\\Desglosar_Emails\\controllers/default.py')"
p2772
sS'func'
p2773
S'restricted'
p2774
sa(dp2775
g2764
S'C:\\Users\\Atomico\\web2py\\applications\\Desglosar_Emails\\controllers\\default.py'
p2776
sg2766
(dp2777
sg2768
I69
sg2769
(dp2778
I64
S'    form=SQLFORM(db.info4)'
p2779
sI65
S'    if form.accepts(request.vars,session):pass'
p2780
sI66
S''
sI67
S'    return dict(form=form)'
p2781
sI58
S'    form2=SQLFORM(db.perro)'
p2782
sI59
S'    if form2.accepts(request.vars,session):pass'
p2783
sI60
S''
sI61
S'    return dict(form=form,form2=form2)'
p2784
sI62
S''
sI63
S'def entrada_mod3():'
p2785
ssg2771
S'()'
p2786
sg2773
S'<module>'
p2787
sa(dp2788
g2764
S'C:\\Users\\Atomico\\web2py\\gluon\\globals.py'
p2789
sg2766
(dp2790
sg2768
I145
sg2769
(dp2791
sg2771
S'(f=<function entrada_mod3 at 0x07D53670>)'
p2792
sg2773
S'<lambda>'
p2793
sa(dp2794
g2764
S'C:\\Users\\Atomico\\web2py\\applications\\Desglosar_Emails\\controllers\\default.py'
p2795
sg2766
(dp2796
sg2768
I65
sg2769
(dp2797
I64
S'    form=SQLFORM(db.info4)'
p2798
sI65
S'    if form.accepts(request.vars,session):pass'
p2799
sI66
S''
sI67
S'    return dict(form=form)'
p2800
sI58
S'    form2=SQLFORM(db.perro)'
p2801
sI59
S'    if form2.accepts(request.vars,session):pass'
p2802
sI60
S''
sI61
S'    return dict(form=form,form2=form2)'
p2803
sI62
S''
sI63
S'def entrada_mod3():'
p2804
ssg2771
S'()'
p2805
sg2773
S'entrada_mod3'
p2806
sa(dp2807
g2764
S'C:\\Users\\Atomico\\web2py\\gluon\\sqlhtml.py'
p2808
sg2766
(dp2809
sg2768
I1223
sg2769
(dp2810
sg2771
S"(self=<gluon.sqlhtml.SQLFORM object at 0x07D17790>, request_vars=<Storage {'_formkey': '142b5f77-d43a-44a1-9e7d-3...et.net); Bibi (bibianaperezsolano@hotmail.com)'}>, session=<Storage {'_formkey[info4/create]': '24e2eedb-cb...hash': '\\x9d\\x12[\\x912\\xe7L*?&.\\n\\x84\\xad\\x081'}>, formname='info4/create', keepvalues=False, onvalidation=None, dbio=True, hideerror=False, detect_record_change=False)"
p2811
sg2773
S'accepts'
p2812
sa(dp2813
g2764
S'C:\\Users\\Atomico\\web2py\\gluon\\dal.py'
p2814
sg2766
(dp2815
sg2768
I4786
sg2769
(dp2816
sg2771
S"(self=<Table {'ALL': <gluon.dal.SQLALL object at 0x07D...ngitud': <gluon.dal.Field object at 0x07D32390>}>, **fields={'longitud': '', 'texto': 'onkicaronki@hotmail.com, cecilia.prada@fastwebne...alnet.net); Bibi (bibianaperezsolano@hotmail.com)'})"
p2817
sg2773
S'insert'
p2818
sa(dp2819
g2764
S'C:\\Users\\Atomico\\web2py\\gluon\\dal.py'
p2820
sg2766
(dp2821
sg2768
I844
sg2769
(dp2822
sg2771
S"(self=<gluon.dal.SQLiteAdapter object at 0x07D226D0>, table=<Table {'ALL': <gluon.dal.SQLALL object at 0x07D...ngitud': <gluon.dal.Field object at 0x07D32390>}>, fields=[(<gluon.dal.Field object at 0x07D32330>, 'onkicaronki@hotmail.com, cecilia.prada@fastwebne...alnet.net); Bibi (bibianaperezsolano@hotmail.com)'), (<gluon.dal.Field object at 0x07D32390>, '')])"
p2823
sg2773
g2818
sasS'pyver'
p2824
S'Python 2.5.4: C:\\Users\\Atomico\\web2py\\web2py.exe'
p2825
sS'session'
p2826
g52
(g53
g54
NtRp2827
(dp2828
g57
(dp2829
sg59
(lp2830
g52
(g61
g54
NtRp2831
(dp2832
g57
(dp2833
g65
I5
ssg66
Nsg59
(lp2834
g52
(g68
g54
NtRp2835
(dp2836
g57
(dp2837
sg66
g2831
sg59
(lp2838
g52
(g73
g54
NtRp2839
(dp2840
g57
(dp2841
g77
g78
ssg66
g2835
sg59
(lp2842
S'last_query'
p2843
asbag52
(g73
g54
NtRp2844
(dp2845
g57
(dp2846
g84
g85
ssg66
g2835
sg59
(lp2847
S':'
asbag52
(g73
g54
NtRp2848
(dp2849
g57
(dp2850
sg66
g2835
sg59
(lp2851
g52
(g53
g54
NtRp2852
(dp2853
g57
(dp2854
g65
I5
ssg66
g2848
sg59
(lp2855
S'db.contactos.id>0'
p2856
asbasbasbasbasbsS'etype'
p2857
S"<class 'sqlite3.OperationalError'>"
p2858
sS'date'
p2859
S'Tue Sep 20 09:05:04 2011'
p2860
sS'response'
p2861
g52
(g53
g54
NtRp2862
(dp2863
g57
(dp2864
sg59
(lp2865
g52
(g61
g54
NtRp2866
(dp2867
g57
(dp2868
g65
I5
ssg66
Nsg59
(lp2869
g52
(g68
g54
NtRp2870
(dp2871
g57
(dp2872
sg66
g2866
sg59
(lp2873
g52
(g73
g54
NtRp2874
(dp2875
g57
(dp2876
g77
g78
ssg66
g2870
sg59
(lp2877
g150
asbag52
(g73
g54
NtRp2878
(dp2879
g57
(dp2880
g84
g85
ssg66
g2870
sg59
(lp2881
S':'
asbag52
(g73
g54
NtRp2882
(dp2883
g57
(dp2884
sg66
g2870
sg59
(lp2885
g52
(g53
g54
NtRp2886
(dp2887
g57
(dp2888
g65
I5
ssg66
g2882
sg59
(lp2889
S'<cStringIO.StringO object at 0x03317C20>'
p2890
asbasbasbag52
(g68
g54
NtRp2891
(dp2892
g57
(dp2893
sg66
g2866
sg59
(lp2894
g52
(g73
g54
NtRp2895
(dp2896
g57
(dp2897
g77
g78
ssg66
g2891
sg59
(lp2898
g216
asbag52
(g73
g54
NtRp2899
(dp2900
g57
(dp2901
g84
g85
ssg66
g2891
sg59
(lp2902
S':'
asbag52
(g73
g54
NtRp2903
(dp2904
g57
(dp2905
sg66
g2891
sg59
(lp2906
g52
(g53
g54
NtRp2907
(dp2908
g57
(dp2909
g65
I5
ssg66
g2903
sg59
(lp2910
g52
(g61
g54
NtRp2911
(dp2912
g57
(dp2913
g65
I4
ssg66
Nsg59
(lp2914
g52
(g68
g54
NtRp2915
(dp2916
g57
(dp2917
sg66
g2911
sg59
(lp2918
g52
(g73
g54
NtRp2919
(dp2920
g57
(dp2921
g77
g78
ssg66
g2915
sg59
(lp2922
S'session_id_desglosar_emails'
p2923
asbag52
(g73
g54
NtRp2924
(dp2925
g57
(dp2926
g84
g85
ssg66
g2915
sg59
(lp2927
S':'
asbag52
(g73
g54
NtRp2928
(dp2929
g57
(dp2930
sg66
g2915
sg59
(lp2931
g52
(g53
g54
NtRp2932
(dp2933
g57
(dp2934
g65
I4
ssg66
g2928
sg59
(lp2935
g52
(g61
g54
NtRp2936
(dp2937
g57
(dp2938
g65
I3
ssg66
Nsg59
(lp2939
g52
(g68
g54
NtRp2940
(dp2941
g57
(dp2942
sg66
g2936
sg59
(lp2943
g52
(g73
g54
NtRp2944
(dp2945
g57
(dp2946
g77
g78
ssg66
g2940
sg59
(lp2947
g266
asbag52
(g73
g54
NtRp2948
(dp2949
g57
(dp2950
g84
g85
ssg66
g2940
sg59
(lp2951
S':'
asbag52
(g73
g54
NtRp2952
(dp2953
g57
(dp2954
sg66
g2940
sg59
(lp2955
g52
(g53
g54
NtRp2956
(dp2957
g57
(dp2958
g65
I3
ssg66
g2952
sg59
(lp2959
S''
asbasbasbag52
(g68
g54
NtRp2960
(dp2961
g57
(dp2962
sg66
g2936
sg59
(lp2963
g52
(g73
g54
NtRp2964
(dp2965
g57
(dp2966
g77
g78
ssg66
g2960
sg59
(lp2967
g287
asbag52
(g73
g54
NtRp2968
(dp2969
g57
(dp2970
g84
g85
ssg66
g2960
sg59
(lp2971
S':'
asbag52
(g73
g54
NtRp2972
(dp2973
g57
(dp2974
sg66
g2960
sg59
(lp2975
g52
(g53
g54
NtRp2976
(dp2977
g57
(dp2978
g65
I3
ssg66
g2972
sg59
(lp2979
S''
asbasbasbag52
(g68
g54
NtRp2980
(dp2981
g57
(dp2982
sg66
g2936
sg59
(lp2983
g52
(g73
g54
NtRp2984
(dp2985
g57
(dp2986
g77
g78
ssg66
g2980
sg59
(lp2987
g308
asbag52
(g73
g54
NtRp2988
(dp2989
g57
(dp2990
g84
g85
ssg66
g2980
sg59
(lp2991
S':'
asbag52
(g73
g54
NtRp2992
(dp2993
g57
(dp2994
sg66
g2980
sg59
(lp2995
g52
(g53
g54
NtRp2996
(dp2997
g57
(dp2998
g65
I3
ssg66
g2992
sg59
(lp2999
S''
asbasbasbag52
(g68
g54
NtRp3000
(dp3001
g57
(dp3002
sg66
g2936
sg59
(lp3003
g52
(g73
g54
NtRp3004
(dp3005
g57
(dp3006
g77
g78
ssg66
g3000
sg59
(lp3007
g329
asbag52
(g73
g54
NtRp3008
(dp3009
g57
(dp3010
g84
g85
ssg66
g3000
sg59
(lp3011
S':'
asbag52
(g73
g54
NtRp3012
(dp3013
g57
(dp3014
sg66
g3000
sg59
(lp3015
g52
(g53
g54
NtRp3016
(dp3017
g57
(dp3018
g65
I3
ssg66
g3012
sg59
(lp3019
S''
asbasbasbag52
(g68
g54
NtRp3020
(dp3021
g57
(dp3022
sg66
g2936
sg59
(lp3023
g52
(g73
g54
NtRp3024
(dp3025
g57
(dp3026
g77
g78
ssg66
g3020
sg59
(lp3027
g350
asbag52
(g73
g54
NtRp3028
(dp3029
g57
(dp3030
g84
g85
ssg66
g3020
sg59
(lp3031
S':'
asbag52
(g73
g54
NtRp3032
(dp3033
g57
(dp3034
sg66
g3020
sg59
(lp3035
g52
(g53
g54
NtRp3036
(dp3037
g57
(dp3038
g65
I3
ssg66
g3032
sg59
(lp3039
S'/'
asbasbasbag52
(g68
g54
NtRp3040
(dp3041
g57
(dp3042
sg66
g2936
sg59
(lp3043
g52
(g73
g54
NtRp3044
(dp3045
g57
(dp3046
g77
g78
ssg66
g3040
sg59
(lp3047
g371
asbag52
(g73
g54
NtRp3048
(dp3049
g57
(dp3050
g84
g85
ssg66
g3040
sg59
(lp3051
S':'
asbag52
(g73
g54
NtRp3052
(dp3053
g57
(dp3054
sg66
g3040
sg59
(lp3055
g52
(g53
g54
NtRp3056
(dp3057
g57
(dp3058
g65
I3
ssg66
g3052
sg59
(lp3059
S''
asbasbasbag52
(g68
g54
NtRp3060
(dp3061
g57
(dp3062
sg66
g2936
sg59
(lp3063
g52
(g73
g54
NtRp3064
(dp3065
g57
(dp3066
g77
g78
ssg66
g3060
sg59
(lp3067
g392
asbag52
(g73
g54
NtRp3068
(dp3069
g57
(dp3070
g84
g85
ssg66
g3060
sg59
(lp3071
S':'
asbag52
(g73
g54
NtRp3072
(dp3073
g57
(dp3074
sg66
g3060
sg59
(lp3075
g52
(g53
g54
NtRp3076
(dp3077
g57
(dp3078
g65
I3
ssg66
g3072
sg59
(lp3079
S''
asbasbasbasbasbasbasbasbasbasbasbag52
(g68
g54
NtRp3080
(dp3081
g57
(dp3082
sg66
g2866
sg59
(lp3083
g52
(g73
g54
NtRp3084
(dp3085
g57
(dp3086
g77
g78
ssg66
g3080
sg59
(lp3087
S'files'
p3088
asbag52
(g73
g54
NtRp3089
(dp3090
g57
(dp3091
g84
g85
ssg66
g3080
sg59
(lp3092
S':'
asbag52
(g73
g54
NtRp3093
(dp3094
g57
(dp3095
sg66
g3080
sg59
(lp3096
g52
(g53
g54
NtRp3097
(dp3098
g57
(dp3099
g65
I5
ssg66
g3093
sg59
(lp3100
g52
(g61
g54
NtRp3101
(dp3102
g57
(dp3103
g65
I4
ssg66
Nsg59
(lp3104
sbasbasbasbag52
(g68
g54
NtRp3105
(dp3106
g57
(dp3107
sg66
g2866
sg59
(lp3108
g52
(g73
g54
NtRp3109
(dp3110
g57
(dp3111
g77
g78
ssg66
g3105
sg59
(lp3112
S'flash'
p3113
asbag52
(g73
g54
NtRp3114
(dp3115
g57
(dp3116
g84
g85
ssg66
g3105
sg59
(lp3117
S':'
asbag52
(g73
g54
NtRp3118
(dp3119
g57
(dp3120
sg66
g3105
sg59
(lp3121
g52
(g53
g54
NtRp3122
(dp3123
g57
(dp3124
g65
I5
ssg66
g3118
sg59
(lp3125
S''
asbasbasbag52
(g68
g54
NtRp3126
(dp3127
g57
(dp3128
sg66
g2866
sg59
(lp3129
g52
(g73
g54
NtRp3130
(dp3131
g57
(dp3132
g77
g78
ssg66
g3126
sg59
(lp3133
S'generic_patterns'
p3134
asbag52
(g73
g54
NtRp3135
(dp3136
g57
(dp3137
g84
g85
ssg66
g3126
sg59
(lp3138
S':'
asbag52
(g73
g54
NtRp3139
(dp3140
g57
(dp3141
sg66
g3126
sg59
(lp3142
g52
(g53
g54
NtRp3143
(dp3144
g57
(dp3145
g65
I5
ssg66
g3139
sg59
(lp3146
g52
(g61
g54
NtRp3147
(dp3148
g57
(dp3149
g65
I4
ssg66
Nsg59
(lp3150
sbasbasbasbag52
(g68
g54
NtRp3151
(dp3152
g57
(dp3153
sg66
g2866
sg59
(lp3154
g52
(g73
g54
NtRp3155
(dp3156
g57
(dp3157
g77
g78
ssg66
g3151
sg59
(lp3158
S'headers'
p3159
asbag52
(g73
g54
NtRp3160
(dp3161
g57
(dp3162
g84
g85
ssg66
g3151
sg59
(lp3163
S':'
asbag52
(g73
g54
NtRp3164
(dp3165
g57
(dp3166
sg66
g3151
sg59
(lp3167
g52
(g53
g54
NtRp3168
(dp3169
g57
(dp3170
g65
I5
ssg66
g3164
sg59
(lp3171
g52
(g61
g54
NtRp3172
(dp3173
g57
(dp3174
g65
I4
ssg66
Nsg59
(lp3175
g52
(g68
g54
NtRp3176
(dp3177
g57
(dp3178
sg66
g3172
sg59
(lp3179
g52
(g73
g54
NtRp3180
(dp3181
g57
(dp3182
g77
g78
ssg66
g3176
sg59
(lp3183
S'Cache-Control'
p3184
asbag52
(g73
g54
NtRp3185
(dp3186
g57
(dp3187
g84
g85
ssg66
g3176
sg59
(lp3188
S':'
asbag52
(g73
g54
NtRp3189
(dp3190
g57
(dp3191
sg66
g3176
sg59
(lp3192
g52
(g53
g54
NtRp3193
(dp3194
g57
(dp3195
g65
I4
ssg66
g3189
sg59
(lp3196
S'no-store, no-cache, must-revalidate, post-check=0, pre-check=0'
p3197
asbasbasbag52
(g68
g54
NtRp3198
(dp3199
g57
(dp3200
sg66
g3172
sg59
(lp3201
g52
(g73
g54
NtRp3202
(dp3203
g57
(dp3204
g77
g78
ssg66
g3198
sg59
(lp3205
S'Content-Type'
p3206
asbag52
(g73
g54
NtRp3207
(dp3208
g57
(dp3209
g84
g85
ssg66
g3198
sg59
(lp3210
S':'
asbag52
(g73
g54
NtRp3211
(dp3212
g57
(dp3213
sg66
g3198
sg59
(lp3214
g52
(g53
g54
NtRp3215
(dp3216
g57
(dp3217
g65
I4
ssg66
g3211
sg59
(lp3218
S'text/html; charset=utf-8'
p3219
asbasbasbag52
(g68
g54
NtRp3220
(dp3221
g57
(dp3222
sg66
g3172
sg59
(lp3223
g52
(g73
g54
NtRp3224
(dp3225
g57
(dp3226
g77
g78
ssg66
g3220
sg59
(lp3227
S'Expires'
p3228
asbag52
(g73
g54
NtRp3229
(dp3230
g57
(dp3231
g84
g85
ssg66
g3220
sg59
(lp3232
S':'
asbag52
(g73
g54
NtRp3233
(dp3234
g57
(dp3235
sg66
g3220
sg59
(lp3236
g52
(g53
g54
NtRp3237
(dp3238
g57
(dp3239
g65
I4
ssg66
g3233
sg59
(lp3240
S'Tue, 20 Sep 2011 07:05:04 GMT'
p3241
asbasbasbag52
(g68
g54
NtRp3242
(dp3243
g57
(dp3244
sg66
g3172
sg59
(lp3245
g52
(g73
g54
NtRp3246
(dp3247
g57
(dp3248
g77
g78
ssg66
g3242
sg59
(lp3249
S'Pragma'
p3250
asbag52
(g73
g54
NtRp3251
(dp3252
g57
(dp3253
g84
g85
ssg66
g3242
sg59
(lp3254
S':'
asbag52
(g73
g54
NtRp3255
(dp3256
g57
(dp3257
sg66
g3242
sg59
(lp3258
g52
(g53
g54
NtRp3259
(dp3260
g57
(dp3261
g65
I4
ssg66
g3255
sg59
(lp3262
S'no-cache'
p3263
asbasbasbag52
(g68
g54
NtRp3264
(dp3265
g57
(dp3266
sg66
g3172
sg59
(lp3267
g52
(g73
g54
NtRp3268
(dp3269
g57
(dp3270
g77
g78
ssg66
g3264
sg59
(lp3271
S'X-Powered-By'
p3272
asbag52
(g73
g54
NtRp3273
(dp3274
g57
(dp3275
g84
g85
ssg66
g3264
sg59
(lp3276
S':'
asbag52
(g73
g54
NtRp3277
(dp3278
g57
(dp3279
sg66
g3264
sg59
(lp3280
g52
(g53
g54
NtRp3281
(dp3282
g57
(dp3283
g65
I4
ssg66
g3277
sg59
(lp3284
S'web2py'
p3285
asbasbasbasbasbasbasbag52
(g68
g54
NtRp3286
(dp3287
g57
(dp3288
sg66
g2866
sg59
(lp3289
g52
(g73
g54
NtRp3290
(dp3291
g57
(dp3292
g77
g78
ssg66
g3286
sg59
(lp3293
S'menu'
p3294
asbag52
(g73
g54
NtRp3295
(dp3296
g57
(dp3297
g84
g85
ssg66
g3286
sg59
(lp3298
S':'
asbag52
(g73
g54
NtRp3299
(dp3300
g57
(dp3301
sg66
g3286
sg59
(lp3302
g52
(g53
g54
NtRp3303
(dp3304
g57
(dp3305
g65
I5
ssg66
g3299
sg59
(lp3306
g52
(g61
g54
NtRp3307
(dp3308
g57
(dp3309
g65
I4
ssg66
Nsg59
(lp3310
g52
(g68
g54
NtRp3311
(dp3312
g57
(dp3313
sg66
g3307
sg59
(lp3314
g52
(g73
g54
NtRp3315
(dp3316
g57
(dp3317
sg66
g3311
sg59
(lp3318
g52
(g53
g54
NtRp3319
(dp3320
g57
(dp3321
g65
I4
ssg66
g3315
sg59
(lp3322
g52
(g61
g54
NtRp3323
(dp3324
g57
(dp3325
g65
I3
ssg66
Nsg59
(lp3326
g52
(g68
g54
NtRp3327
(dp3328
g57
(dp3329
sg66
g3323
sg59
(lp3330
g52
(g73
g54
NtRp3331
(dp3332
g57
(dp3333
sg66
g3327
sg59
(lp3334
g52
(g53
g54
NtRp3335
(dp3336
g57
(dp3337
g65
I3
ssg66
g3331
sg59
(lp3338
cgluon.languages
lazyT_unpickle
p3339
(S't\x04\x00\x00\x00Home'
tRp3340
asbasbasbag52
(g68
g54
NtRp3341
(dp3342
g57
(dp3343
sg66
g3323
sg59
(lp3344
g52
(g73
g54
NtRp3345
(dp3346
g57
(dp3347
sg66
g3341
sg59
(lp3348
g52
(g53
g54
NtRp3349
(dp3350
g57
(dp3351
g65
I3
ssg66
g3345
sg59
(lp3352
g95
asbasbasbag52
(g68
g54
NtRp3353
(dp3354
g57
(dp3355
sg66
g3323
sg59
(lp3356
g52
(g73
g54
NtRp3357
(dp3358
g57
(dp3359
sg66
g3353
sg59
(lp3360
g52
(g53
g54
NtRp3361
(dp3362
g57
(dp3363
g65
I3
ssg66
g3357
sg59
(lp3364
S'/Desglosar_Emails/default/index'
p3365
asbasbasbag52
(g68
g54
NtRp3366
(dp3367
g57
(dp3368
sg66
g3323
sg59
(lp3369
g52
(g73
g54
NtRp3370
(dp3371
g57
(dp3372
sg66
g3366
sg59
(lp3373
g52
(g53
g54
NtRp3374
(dp3375
g57
(dp3376
g65
I3
ssg66
g3370
sg59
(lp3377
g52
(g61
g54
NtRp3378
(dp3379
g57
(dp3380
g65
I2
ssg66
Nsg59
(lp3381
sbasbasbasbasbasbasbasbag52
(g68
g54
NtRp3382
(dp3383
g57
(dp3384
sg66
g3307
sg59
(lp3385
g52
(g73
g54
NtRp3386
(dp3387
g57
(dp3388
sg66
g3382
sg59
(lp3389
g52
(g53
g54
NtRp3390
(dp3391
g57
(dp3392
g65
I4
ssg66
g3386
sg59
(lp3393
g52
(g61
g54
NtRp3394
(dp3395
g57
(dp3396
g65
I3
ssg66
Nsg59
(lp3397
g52
(g68
g54
NtRp3398
(dp3399
g57
(dp3400
sg66
g3394
sg59
(lp3401
g52
(g73
g54
NtRp3402
(dp3403
g57
(dp3404
sg66
g3398
sg59
(lp3405
g52
(g53
g54
NtRp3406
(dp3407
g57
(dp3408
g65
I3
ssg66
g3402
sg59
(lp3409
g3339
(S's\x08\x00\x00\x00This App'
tRp3410
asbasbasbag52
(g68
g54
NtRp3411
(dp3412
g57
(dp3413
sg66
g3394
sg59
(lp3414
g52
(g73
g54
NtRp3415
(dp3416
g57
(dp3417
sg66
g3411
sg59
(lp3418
g52
(g53
g54
NtRp3419
(dp3420
g57
(dp3421
g65
I3
ssg66
g3415
sg59
(lp3422
g95
asbasbasbag52
(g68
g54
NtRp3423
(dp3424
g57
(dp3425
sg66
g3394
sg59
(lp3426
g52
(g73
g54
NtRp3427
(dp3428
g57
(dp3429
sg66
g3423
sg59
(lp3430
g52
(g53
g54
NtRp3431
(dp3432
g57
(dp3433
g65
I3
ssg66
g3427
sg59
(lp3434
S'/admin/default/design/Desglosar_Emails'
p3435
asbasbasbag52
(g68
g54
NtRp3436
(dp3437
g57
(dp3438
sg66
g3394
sg59
(lp3439
g52
(g73
g54
NtRp3440
(dp3441
g57
(dp3442
sg66
g3436
sg59
(lp3443
g52
(g53
g54
NtRp3444
(dp3445
g57
(dp3446
g65
I3
ssg66
g3440
sg59
(lp3447
g52
(g61
g54
NtRp3448
(dp3449
g57
(dp3450
g65
I2
ssg66
Nsg59
(lp3451
g52
(g68
g54
NtRp3452
(dp3453
g57
(dp3454
sg66
g3448
sg59
(lp3455
g52
(g73
g54
NtRp3456
(dp3457
g57
(dp3458
sg66
g3452
sg59
(lp3459
g52
(g53
g54
NtRp3460
(dp3461
g57
(dp3462
g65
I2
ssg66
g3456
sg59
(lp3463
g52
(g61
g54
NtRp3464
(dp3465
g57
(dp3466
g65
I1
ssg66
Nsg59
(lp3467
g52
(g68
g54
NtRp3468
(dp3469
g57
(dp3470
sg66
g3464
sg59
(lp3471
g52
(g73
g54
NtRp3472
(dp3473
g57
(dp3474
sg66
g3468
sg59
(lp3475
g52
(g53
g54
NtRp3476
(dp3477
g57
(dp3478
g65
I1
ssg66
g3472
sg59
(lp3479
g3339
(S't\x0b\x00\x00\x00Controlador'
tRp3480
asbasbasbag52
(g68
g54
NtRp3481
(dp3482
g57
(dp3483
sg66
g3464
sg59
(lp3484
g52
(g73
g54
NtRp3485
(dp3486
g57
(dp3487
sg66
g3481
sg59
(lp3488
g52
(g53
g54
NtRp3489
(dp3490
g57
(dp3491
g65
I1
ssg66
g3485
sg59
(lp3492
I00
asbasbasbag52
(g68
g54
NtRp3493
(dp3494
g57
(dp3495
sg66
g3464
sg59
(lp3496
g52
(g73
g54
NtRp3497
(dp3498
g57
(dp3499
sg66
g3493
sg59
(lp3500
g52
(g53
g54
NtRp3501
(dp3502
g57
(dp3503
g65
I1
ssg66
g3497
sg59
(lp3504
S'/admin/default/edit/Desglosar_Emails/controllers/default.py'
p3505
asbasbasbasbasbasbasbag52
(g68
g54
NtRp3506
(dp3507
g57
(dp3508
sg66
g3448
sg59
(lp3509
g52
(g73
g54
NtRp3510
(dp3511
g57
(dp3512
sg66
g3506
sg59
(lp3513
g52
(g53
g54
NtRp3514
(dp3515
g57
(dp3516
g65
I2
ssg66
g3510
sg59
(lp3517
g52
(g61
g54
NtRp3518
(dp3519
g57
(dp3520
g65
I1
ssg66
Nsg59
(lp3521
g52
(g68
g54
NtRp3522
(dp3523
g57
(dp3524
sg66
g3518
sg59
(lp3525
g52
(g73
g54
NtRp3526
(dp3527
g57
(dp3528
sg66
g3522
sg59
(lp3529
g52
(g53
g54
NtRp3530
(dp3531
g57
(dp3532
g65
I1
ssg66
g3526
sg59
(lp3533
g3339
(S't\x05\x00\x00\x00Vista'
tRp3534
asbasbasbag52
(g68
g54
NtRp3535
(dp3536
g57
(dp3537
sg66
g3518
sg59
(lp3538
g52
(g73
g54
NtRp3539
(dp3540
g57
(dp3541
sg66
g3535
sg59
(lp3542
g52
(g53
g54
NtRp3543
(dp3544
g57
(dp3545
g65
I1
ssg66
g3539
sg59
(lp3546
I00
asbasbasbag52
(g68
g54
NtRp3547
(dp3548
g57
(dp3549
sg66
g3518
sg59
(lp3550
g52
(g73
g54
NtRp3551
(dp3552
g57
(dp3553
sg66
g3547
sg59
(lp3554
g52
(g53
g54
NtRp3555
(dp3556
g57
(dp3557
g65
I1
ssg66
g3551
sg59
(lp3558
S'/admin/default/edit/Desglosar_Emails/views/default/entrada_mod3.html'
p3559
asbasbasbasbasbasbasbag52
(g68
g54
NtRp3560
(dp3561
g57
(dp3562
sg66
g3448
sg59
(lp3563
g52
(g73
g54
NtRp3564
(dp3565
g57
(dp3566
sg66
g3560
sg59
(lp3567
g52
(g53
g54
NtRp3568
(dp3569
g57
(dp3570
g65
I2
ssg66
g3564
sg59
(lp3571
g52
(g61
g54
NtRp3572
(dp3573
g57
(dp3574
g65
I1
ssg66
Nsg59
(lp3575
g52
(g68
g54
NtRp3576
(dp3577
g57
(dp3578
sg66
g3572
sg59
(lp3579
g52
(g73
g54
NtRp3580
(dp3581
g57
(dp3582
sg66
g3576
sg59
(lp3583
g52
(g53
g54
NtRp3584
(dp3585
g57
(dp3586
g65
I1
ssg66
g3580
sg59
(lp3587
g3339
(S's\x12\x00\x00\x00Dise\xc3\xb1o de p\xc3\xa1gina'
tRp3588
asbasbasbag52
(g68
g54
NtRp3589
(dp3590
g57
(dp3591
sg66
g3572
sg59
(lp3592
g52
(g73
g54
NtRp3593
(dp3594
g57
(dp3595
sg66
g3589
sg59
(lp3596
g52
(g53
g54
NtRp3597
(dp3598
g57
(dp3599
g65
I1
ssg66
g3593
sg59
(lp3600
I00
asbasbasbag52
(g68
g54
NtRp3601
(dp3602
g57
(dp3603
sg66
g3572
sg59
(lp3604
g52
(g73
g54
NtRp3605
(dp3606
g57
(dp3607
sg66
g3601
sg59
(lp3608
g52
(g53
g54
NtRp3609
(dp3610
g57
(dp3611
g65
I1
ssg66
g3605
sg59
(lp3612
S'/admin/default/edit/Desglosar_Emails/views/layout.html'
p3613
asbasbasbasbasbasbasbag52
(g68
g54
NtRp3614
(dp3615
g57
(dp3616
sg66
g3448
sg59
(lp3617
g52
(g73
g54
NtRp3618
(dp3619
g57
(dp3620
sg66
g3614
sg59
(lp3621
g52
(g53
g54
NtRp3622
(dp3623
g57
(dp3624
g65
I2
ssg66
g3618
sg59
(lp3625
g52
(g61
g54
NtRp3626
(dp3627
g57
(dp3628
g65
I1
ssg66
Nsg59
(lp3629
g52
(g68
g54
NtRp3630
(dp3631
g57
(dp3632
sg66
g3626
sg59
(lp3633
g52
(g73
g54
NtRp3634
(dp3635
g57
(dp3636
sg66
g3630
sg59
(lp3637
g52
(g53
g54
NtRp3638
(dp3639
g57
(dp3640
g65
I1
ssg66
g3634
sg59
(lp3641
g3339
(S's\x0e\x00\x00\x00Hoja de estilo'
tRp3642
asbasbasbag52
(g68
g54
NtRp3643
(dp3644
g57
(dp3645
sg66
g3626
sg59
(lp3646
g52
(g73
g54
NtRp3647
(dp3648
g57
(dp3649
sg66
g3643
sg59
(lp3650
g52
(g53
g54
NtRp3651
(dp3652
g57
(dp3653
g65
I1
ssg66
g3647
sg59
(lp3654
I00
asbasbasbag52
(g68
g54
NtRp3655
(dp3656
g57
(dp3657
sg66
g3626
sg59
(lp3658
g52
(g73
g54
NtRp3659
(dp3660
g57
(dp3661
sg66
g3655
sg59
(lp3662
g52
(g53
g54
NtRp3663
(dp3664
g57
(dp3665
g65
I1
ssg66
g3659
sg59
(lp3666
S'/admin/default/edit/Desglosar_Emails/static/base.css'
p3667
asbasbasbasbasbasbasbag52
(g68
g54
NtRp3668
(dp3669
g57
(dp3670
sg66
g3448
sg59
(lp3671
g52
(g73
g54
NtRp3672
(dp3673
g57
(dp3674
sg66
g3668
sg59
(lp3675
g52
(g53
g54
NtRp3676
(dp3677
g57
(dp3678
g65
I2
ssg66
g3672
sg59
(lp3679
g52
(g61
g54
NtRp3680
(dp3681
g57
(dp3682
g65
I1
ssg66
Nsg59
(lp3683
g52
(g68
g54
NtRp3684
(dp3685
g57
(dp3686
sg66
g3680
sg59
(lp3687
g52
(g73
g54
NtRp3688
(dp3689
g57
(dp3690
sg66
g3684
sg59
(lp3691
g52
(g53
g54
NtRp3692
(dp3693
g57
(dp3694
g65
I1
ssg66
g3688
sg59
(lp3695
g3339
(S's\x0b\x00\x00\x00Modelo "db"'
tRp3696
asbasbasbag52
(g68
g54
NtRp3697
(dp3698
g57
(dp3699
sg66
g3680
sg59
(lp3700
g52
(g73
g54
NtRp3701
(dp3702
g57
(dp3703
sg66
g3697
sg59
(lp3704
g52
(g53
g54
NtRp3705
(dp3706
g57
(dp3707
g65
I1
ssg66
g3701
sg59
(lp3708
I00
asbasbasbag52
(g68
g54
NtRp3709
(dp3710
g57
(dp3711
sg66
g3680
sg59
(lp3712
g52
(g73
g54
NtRp3713
(dp3714
g57
(dp3715
sg66
g3709
sg59
(lp3716
g52
(g53
g54
NtRp3717
(dp3718
g57
(dp3719
g65
I1
ssg66
g3713
sg59
(lp3720
S'/admin/default/edit/Desglosar_Emails/models/db.py'
p3721
asbasbasbasbasbasbasbag52
(g68
g54
NtRp3722
(dp3723
g57
(dp3724
sg66
g3448
sg59
(lp3725
g52
(g73
g54
NtRp3726
(dp3727
g57
(dp3728
sg66
g3722
sg59
(lp3729
g52
(g53
g54
NtRp3730
(dp3731
g57
(dp3732
g65
I2
ssg66
g3726
sg59
(lp3733
g52
(g61
g54
NtRp3734
(dp3735
g57
(dp3736
g65
I1
ssg66
Nsg59
(lp3737
g52
(g68
g54
NtRp3738
(dp3739
g57
(dp3740
sg66
g3734
sg59
(lp3741
g52
(g73
g54
NtRp3742
(dp3743
g57
(dp3744
sg66
g3738
sg59
(lp3745
g52
(g53
g54
NtRp3746
(dp3747
g57
(dp3748
g65
I1
ssg66
g3742
sg59
(lp3749
g3339
(S's\r\x00\x00\x00Modelo "menu"'
tRp3750
asbasbasbag52
(g68
g54
NtRp3751
(dp3752
g57
(dp3753
sg66
g3734
sg59
(lp3754
g52
(g73
g54
NtRp3755
(dp3756
g57
(dp3757
sg66
g3751
sg59
(lp3758
g52
(g53
g54
NtRp3759
(dp3760
g57
(dp3761
g65
I1
ssg66
g3755
sg59
(lp3762
I00
asbasbasbag52
(g68
g54
NtRp3763
(dp3764
g57
(dp3765
sg66
g3734
sg59
(lp3766
g52
(g73
g54
NtRp3767
(dp3768
g57
(dp3769
sg66
g3763
sg59
(lp3770
g52
(g53
g54
NtRp3771
(dp3772
g57
(dp3773
g65
I1
ssg66
g3767
sg59
(lp3774
S'/admin/default/edit/Desglosar_Emails/models/menu.py'
p3775
asbasbasbasbasbasbasbag52
(g68
g54
NtRp3776
(dp3777
g57
(dp3778
sg66
g3448
sg59
(lp3779
g52
(g73
g54
NtRp3780
(dp3781
g57
(dp3782
sg66
g3776
sg59
(lp3783
g52
(g53
g54
NtRp3784
(dp3785
g57
(dp3786
g65
I2
ssg66
g3780
sg59
(lp3787
g52
(g61
g54
NtRp3788
(dp3789
g57
(dp3790
g65
I1
ssg66
Nsg59
(lp3791
g52
(g68
g54
NtRp3792
(dp3793
g57
(dp3794
sg66
g3788
sg59
(lp3795
g52
(g73
g54
NtRp3796
(dp3797
g57
(dp3798
sg66
g3792
sg59
(lp3799
g52
(g53
g54
NtRp3800
(dp3801
g57
(dp3802
g65
I1
ssg66
g3796
sg59
(lp3803
g3339
(S's\r\x00\x00\x00Base de datos'
tRp3804
asbasbasbag52
(g68
g54
NtRp3805
(dp3806
g57
(dp3807
sg66
g3788
sg59
(lp3808
g52
(g73
g54
NtRp3809
(dp3810
g57
(dp3811
sg66
g3805
sg59
(lp3812
g52
(g53
g54
NtRp3813
(dp3814
g57
(dp3815
g65
I1
ssg66
g3809
sg59
(lp3816
I00
asbasbasbag52
(g68
g54
NtRp3817
(dp3818
g57
(dp3819
sg66
g3788
sg59
(lp3820
g52
(g73
g54
NtRp3821
(dp3822
g57
(dp3823
sg66
g3817
sg59
(lp3824
g52
(g53
g54
NtRp3825
(dp3826
g57
(dp3827
g65
I1
ssg66
g3821
sg59
(lp3828
S'/Desglosar_Emails/appadmin/index'
p3829
asbasbasbasbasbasbasbag52
(g68
g54
NtRp3830
(dp3831
g57
(dp3832
sg66
g3448
sg59
(lp3833
g52
(g73
g54
NtRp3834
(dp3835
g57
(dp3836
sg66
g3830
sg59
(lp3837
g52
(g53
g54
NtRp3838
(dp3839
g57
(dp3840
g65
I2
ssg66
g3834
sg59
(lp3841
g52
(g61
g54
NtRp3842
(dp3843
g57
(dp3844
g65
I1
ssg66
Nsg59
(lp3845
g52
(g68
g54
NtRp3846
(dp3847
g57
(dp3848
sg66
g3842
sg59
(lp3849
g52
(g73
g54
NtRp3850
(dp3851
g57
(dp3852
sg66
g3846
sg59
(lp3853
g52
(g53
g54
NtRp3854
(dp3855
g57
(dp3856
g65
I1
ssg66
g3850
sg59
(lp3857
g3339
(S't\x06\x00\x00\x00Errors'
tRp3858
asbasbasbag52
(g68
g54
NtRp3859
(dp3860
g57
(dp3861
sg66
g3842
sg59
(lp3862
g52
(g73
g54
NtRp3863
(dp3864
g57
(dp3865
sg66
g3859
sg59
(lp3866
g52
(g53
g54
NtRp3867
(dp3868
g57
(dp3869
g65
I1
ssg66
g3863
sg59
(lp3870
I00
asbasbasbag52
(g68
g54
NtRp3871
(dp3872
g57
(dp3873
sg66
g3842
sg59
(lp3874
g52
(g73
g54
NtRp3875
(dp3876
g57
(dp3877
sg66
g3871
sg59
(lp3878
g52
(g53
g54
NtRp3879
(dp3880
g57
(dp3881
g65
I1
ssg66
g3875
sg59
(lp3882
S'/admin/default/errors/Desglosar_Emails'
p3883
asbasbasbasbasbasbasbag52
(g68
g54
NtRp3884
(dp3885
g57
(dp3886
sg66
g3448
sg59
(lp3887
g52
(g73
g54
NtRp3888
(dp3889
g57
(dp3890
sg66
g3884
sg59
(lp3891
g52
(g53
g54
NtRp3892
(dp3893
g57
(dp3894
g65
I2
ssg66
g3888
sg59
(lp3895
g52
(g61
g54
NtRp3896
(dp3897
g57
(dp3898
g65
I1
ssg66
Nsg59
(lp3899
g52
(g68
g54
NtRp3900
(dp3901
g57
(dp3902
sg66
g3896
sg59
(lp3903
g52
(g73
g54
NtRp3904
(dp3905
g57
(dp3906
sg66
g3900
sg59
(lp3907
g52
(g53
g54
NtRp3908
(dp3909
g57
(dp3910
g65
I1
ssg66
g3904
sg59
(lp3911
g3339
(S's\t\x00\x00\x00Acerca de'
tRp3912
asbasbasbag52
(g68
g54
NtRp3913
(dp3914
g57
(dp3915
sg66
g3896
sg59
(lp3916
g52
(g73
g54
NtRp3917
(dp3918
g57
(dp3919
sg66
g3913
sg59
(lp3920
g52
(g53
g54
NtRp3921
(dp3922
g57
(dp3923
g65
I1
ssg66
g3917
sg59
(lp3924
I00
asbasbasbag52
(g68
g54
NtRp3925
(dp3926
g57
(dp3927
sg66
g3896
sg59
(lp3928
g52
(g73
g54
NtRp3929
(dp3930
g57
(dp3931
sg66
g3925
sg59
(lp3932
g52
(g53
g54
NtRp3933
(dp3934
g57
(dp3935
g65
I1
ssg66
g3929
sg59
(lp3936
S'/admin/default/about/Desglosar_Emails'
p3937
asbasbasbasbasbasbasbasbasbasbasbasbasbasbasbag52
(g68
g54
NtRp3938
(dp3939
g57
(dp3940
sg66
g3307
sg59
(lp3941
g52
(g73
g54
NtRp3942
(dp3943
g57
(dp3944
sg66
g3938
sg59
(lp3945
g52
(g53
g54
NtRp3946
(dp3947
g57
(dp3948
g65
I4
ssg66
g3942
sg59
(lp3949
g52
(g61
g54
NtRp3950
(dp3951
g57
(dp3952
g65
I3
ssg66
Nsg59
(lp3953
g52
(g68
g54
NtRp3954
(dp3955
g57
(dp3956
sg66
g3950
sg59
(lp3957
g52
(g73
g54
NtRp3958
(dp3959
g57
(dp3960
sg66
g3954
sg59
(lp3961
g52
(g53
g54
NtRp3962
(dp3963
g57
(dp3964
g65
I3
ssg66
g3958
sg59
(lp3965
g3339
(S't\t\x00\x00\x00Resources'
tRp3966
asbasbasbag52
(g68
g54
NtRp3967
(dp3968
g57
(dp3969
sg66
g3950
sg59
(lp3970
g52
(g73
g54
NtRp3971
(dp3972
g57
(dp3973
sg66
g3967
sg59
(lp3974
g52
(g53
g54
NtRp3975
(dp3976
g57
(dp3977
g65
I3
ssg66
g3971
sg59
(lp3978
g95
asbasbasbag52
(g68
g54
NtRp3979
(dp3980
g57
(dp3981
sg66
g3950
sg59
(lp3982
g52
(g73
g54
NtRp3983
(dp3984
g57
(dp3985
sg66
g3979
sg59
(lp3986
g52
(g53
g54
NtRp3987
(dp3988
g57
(dp3989
g65
I3
ssg66
g3983
sg59
(lp3990
S'None'
p3991
asbasbasbag52
(g68
g54
NtRp3992
(dp3993
g57
(dp3994
sg66
g3950
sg59
(lp3995
g52
(g73
g54
NtRp3996
(dp3997
g57
(dp3998
sg66
g3992
sg59
(lp3999
g52
(g53
g54
NtRp4000
(dp4001
g57
(dp4002
g65
I3
ssg66
g3996
sg59
(lp4003
g52
(g61
g54
NtRp4004
(dp4005
g57
(dp4006
g65
I2
ssg66
Nsg59
(lp4007
g52
(g68
g54
NtRp4008
(dp4009
g57
(dp4010
sg66
g4004
sg59
(lp4011
g52
(g73
g54
NtRp4012
(dp4013
g57
(dp4014
sg66
g4008
sg59
(lp4015
g52
(g53
g54
NtRp4016
(dp4017
g57
(dp4018
g65
I2
ssg66
g4012
sg59
(lp4019
g52
(g61
g54
NtRp4020
(dp4021
g57
(dp4022
g65
I1
ssg66
Nsg59
(lp4023
g52
(g68
g54
NtRp4024
(dp4025
g57
(dp4026
sg66
g4020
sg59
(lp4027
g52
(g73
g54
NtRp4028
(dp4029
g57
(dp4030
sg66
g4024
sg59
(lp4031
g52
(g53
g54
NtRp4032
(dp4033
g57
(dp4034
g65
I1
ssg66
g4028
sg59
(lp4035
g3339
(S's\x0e\x00\x00\x00Documentaci\xc3\xb3n'
tRp4036
asbasbasbag52
(g68
g54
NtRp4037
(dp4038
g57
(dp4039
sg66
g4020
sg59
(lp4040
g52
(g73
g54
NtRp4041
(dp4042
g57
(dp4043
sg66
g4037
sg59
(lp4044
g52
(g53
g54
NtRp4045
(dp4046
g57
(dp4047
g65
I1
ssg66
g4041
sg59
(lp4048
I00
asbasbasbag52
(g68
g54
NtRp4049
(dp4050
g57
(dp4051
sg66
g4020
sg59
(lp4052
g52
(g73
g54
NtRp4053
(dp4054
g57
(dp4055
sg66
g4049
sg59
(lp4056
g52
(g53
g54
NtRp4057
(dp4058
g57
(dp4059
g65
I1
ssg66
g4053
sg59
(lp4060
S'http://www.web2py.com/book'
p4061
asbasbasbag52
(g68
g54
NtRp4062
(dp4063
g57
(dp4064
sg66
g4020
sg59
(lp4065
g52
(g73
g54
NtRp4066
(dp4067
g57
(dp4068
sg66
g4062
sg59
(lp4069
g52
(g53
g54
NtRp4070
(dp4071
g57
(dp4072
g65
I1
ssg66
g4066
sg59
(lp4073
(lp4074
(g3339
(S't\x07\x00\x00\x00Preface'
tRp4075
I00
S'http://www.web2py.com/book/default/chapter/00'
tp4076
a(g3339
(S't\x0c\x00\x00\x00Introduction'
tRp4077
I00
S'http://www.web2py.com/book/default/chapter/01'
tp4078
a(g3339
(S't\x06\x00\x00\x00Python'
tRp4079
I00
S'http://www.web2py.com/book/default/chapter/02'
tp4080
a(g3339
(S't\x08\x00\x00\x00Overview'
tRp4081
I00
S'http://www.web2py.com/book/default/chapter/03'
tp4082
a(g3339
(S's\x08\x00\x00\x00The Core'
tRp4083
I00
S'http://www.web2py.com/book/default/chapter/04'
tp4084
a(g3339
(S's\t\x00\x00\x00The Views'
tRp4085
I00
S'http://www.web2py.com/book/default/chapter/05'
tp4086
a(g3339
(S's\r\x00\x00\x00Base de datos'
tRp4087
I00
S'http://www.web2py.com/book/default/chapter/06'
tp4088
a(g3339
(S's\x14\x00\x00\x00Forms and Validators'
tRp4089
I00
S'http://www.web2py.com/book/default/chapter/07'
tp4090
a(g3339
(S's\x0e\x00\x00\x00Access Control'
tRp4091
I00
S'http://www.web2py.com/book/default/chapter/08'
tp4092
a(g3339
(S't\x08\x00\x00\x00Services'
tRp4093
I00
S'http://www.web2py.com/book/default/chapter/09'
tp4094
a(g3339
(S's\x0c\x00\x00\x00Ajax Recipes'
tRp4095
I00
S'http://www.web2py.com/book/default/chapter/10'
tp4096
a(g3339
(S's\x12\x00\x00\x00Deployment Recipes'
tRp4097
I00
S'http://www.web2py.com/book/default/chapter/11'
tp4098
a(g3339
(S's\r\x00\x00\x00Other Recipes'
tRp4099
I00
S'http://www.web2py.com/book/default/chapter/12'
tp4100
a(g3339
(S's\r\x00\x00\x00Buy this book'
tRp4101
I00
S'http://stores.lulu.com/web2py'
tp4102
aasbasbasbasbasbasbasbag52
(g68
g54
NtRp4103
(dp4104
g57
(dp4105
sg66
g4004
sg59
(lp4106
g52
(g73
g54
NtRp4107
(dp4108
g57
(dp4109
sg66
g4103
sg59
(lp4110
g52
(g53
g54
NtRp4111
(dp4112
g57
(dp4113
g65
I2
ssg66
g4107
sg59
(lp4114
g52
(g61
g54
NtRp4115
(dp4116
g57
(dp4117
g65
I1
ssg66
Nsg59
(lp4118
g52
(g68
g54
NtRp4119
(dp4120
g57
(dp4121
sg66
g4115
sg59
(lp4122
g52
(g73
g54
NtRp4123
(dp4124
g57
(dp4125
sg66
g4119
sg59
(lp4126
g52
(g53
g54
NtRp4127
(dp4128
g57
(dp4129
g65
I1
ssg66
g4123
sg59
(lp4130
g3339
(S't\t\x00\x00\x00Community'
tRp4131
asbasbasbag52
(g68
g54
NtRp4132
(dp4133
g57
(dp4134
sg66
g4115
sg59
(lp4135
g52
(g73
g54
NtRp4136
(dp4137
g57
(dp4138
sg66
g4132
sg59
(lp4139
g52
(g53
g54
NtRp4140
(dp4141
g57
(dp4142
g65
I1
ssg66
g4136
sg59
(lp4143
I00
asbasbasbag52
(g68
g54
NtRp4144
(dp4145
g57
(dp4146
sg66
g4115
sg59
(lp4147
g52
(g73
g54
NtRp4148
(dp4149
g57
(dp4150
sg66
g4144
sg59
(lp4151
g52
(g53
g54
NtRp4152
(dp4153
g57
(dp4154
g65
I1
ssg66
g4148
sg59
(lp4155
Nasbasbasbag52
(g68
g54
NtRp4156
(dp4157
g57
(dp4158
sg66
g4115
sg59
(lp4159
g52
(g73
g54
NtRp4160
(dp4161
g57
(dp4162
sg66
g4156
sg59
(lp4163
g52
(g53
g54
NtRp4164
(dp4165
g57
(dp4166
g65
I1
ssg66
g4160
sg59
(lp4167
(lp4168
(g3339
(S't\x06\x00\x00\x00Groups'
tRp4169
I00
S'http://www.web2py.com/examples/default/usergroups'
tp4170
a(g3339
(S't\x07\x00\x00\x00Twitter'
tRp4171
I00
S'http://twitter.com/web2py'
tp4172
a(g3339
(S's\t\x00\x00\x00Live chat'
tRp4173
I00
S'http://mibbit.com/?channel=%23web2py&server=irc.mibbit.net'
tp4174
a(g3339
(S's\n\x00\x00\x00User Voice'
tRp4175
I00
S'http://web2py.uservoice.com/'
tp4176
aasbasbasbasbasbasbasbag52
(g68
g54
NtRp4177
(dp4178
g57
(dp4179
sg66
g4004
sg59
(lp4180
g52
(g73
g54
NtRp4181
(dp4182
g57
(dp4183
sg66
g4177
sg59
(lp4184
g52
(g53
g54
NtRp4185
(dp4186
g57
(dp4187
g65
I2
ssg66
g4181
sg59
(lp4188
g52
(g61
g54
NtRp4189
(dp4190
g57
(dp4191
g65
I1
ssg66
Nsg59
(lp4192
g52
(g68
g54
NtRp4193
(dp4194
g57
(dp4195
sg66
g4189
sg59
(lp4196
g52
(g73
g54
NtRp4197
(dp4198
g57
(dp4199
sg66
g4193
sg59
(lp4200
g52
(g53
g54
NtRp4201
(dp4202
g57
(dp4203
g65
I1
ssg66
g4197
sg59
(lp4204
g3339
(S't\x06\x00\x00\x00Web2py'
tRp4205
asbasbasbag52
(g68
g54
NtRp4206
(dp4207
g57
(dp4208
sg66
g4189
sg59
(lp4209
g52
(g73
g54
NtRp4210
(dp4211
g57
(dp4212
sg66
g4206
sg59
(lp4213
g52
(g53
g54
NtRp4214
(dp4215
g57
(dp4216
g65
I1
ssg66
g4210
sg59
(lp4217
I00
asbasbasbag52
(g68
g54
NtRp4218
(dp4219
g57
(dp4220
sg66
g4189
sg59
(lp4221
g52
(g73
g54
NtRp4222
(dp4223
g57
(dp4224
sg66
g4218
sg59
(lp4225
g52
(g53
g54
NtRp4226
(dp4227
g57
(dp4228
g65
I1
ssg66
g4222
sg59
(lp4229
S'http://www.web2py.com'
p4230
asbasbasbag52
(g68
g54
NtRp4231
(dp4232
g57
(dp4233
sg66
g4189
sg59
(lp4234
g52
(g73
g54
NtRp4235
(dp4236
g57
(dp4237
sg66
g4231
sg59
(lp4238
g52
(g53
g54
NtRp4239
(dp4240
g57
(dp4241
g65
I1
ssg66
g4235
sg59
(lp4242
(lp4243
(g3339
(S't\x08\x00\x00\x00Download'
tRp4244
I00
S'http://www.web2py.com/examples/default/download'
tp4245
a(g3339
(S't\x07\x00\x00\x00Support'
tRp4246
I00
S'http://www.web2py.com/examples/default/support'
tp4247
a(g3339
(S's\x0e\x00\x00\x00Quick Examples'
tRp4248
I00
S'http://web2py.com/examples/default/examples'
tp4249
a(g3339
(S't\x03\x00\x00\x00FAQ'
tRp4250
I00
S'http://web2py.com/AlterEgo'
tp4251
a(g3339
(S's\x11\x00\x00\x00Free Applications'
tRp4252
I00
S'http://web2py.com/appliances'
tp4253
a(g3339
(S't\x07\x00\x00\x00Plugins'
tRp4254
I00
S'http://web2py.com/plugins'
tp4255
a(g3339
(S't\x07\x00\x00\x00Recipes'
tRp4256
I00
S'http://web2pyslices.com/'
tp4257
a(g3339
(S't\x04\x00\x00\x00Demo'
tRp4258
I00
S'http://web2py.com/demo_admin'
tp4259
a(g3339
(S't\x08\x00\x00\x00Semantic'
tRp4260
I00
S'http://web2py.com/semantic'
tp4261
a(g3339
(S't\x07\x00\x00\x00Layouts'
tRp4262
I00
S'http://web2py.com/layouts'
tp4263
a(g3339
(S't\x06\x00\x00\x00Videos'
tRp4264
I00
S'http://www.web2py.com/examples/default/videos/'
tp4265
aasbasbasbasbasbasbasbasbasbasbasbasbasbasbasbasbasbasbasbag52
(g68
g54
NtRp4266
(dp4267
g57
(dp4268
sg66
g2866
sg59
(lp4269
g52
(g73
g54
NtRp4270
(dp4271
g57
(dp4272
g77
g78
ssg66
g4266
sg59
(lp4273
S'meta'
p4274
asbag52
(g73
g54
NtRp4275
(dp4276
g57
(dp4277
g84
g85
ssg66
g4266
sg59
(lp4278
S':'
asbag52
(g73
g54
NtRp4279
(dp4280
g57
(dp4281
sg66
g4266
sg59
(lp4282
g52
(g53
g54
NtRp4283
(dp4284
g57
(dp4285
g65
I5
ssg66
g4279
sg59
(lp4286
g52
(g61
g54
NtRp4287
(dp4288
g57
(dp4289
g65
I4
ssg66
Nsg59
(lp4290
g52
(g68
g54
NtRp4291
(dp4292
g57
(dp4293
sg66
g4287
sg59
(lp4294
g52
(g73
g54
NtRp4295
(dp4296
g57
(dp4297
g77
g78
ssg66
g4291
sg59
(lp4298
S'author'
p4299
asbag52
(g73
g54
NtRp4300
(dp4301
g57
(dp4302
g84
g85
ssg66
g4291
sg59
(lp4303
S':'
asbag52
(g73
g54
NtRp4304
(dp4305
g57
(dp4306
sg66
g4291
sg59
(lp4307
g52
(g53
g54
NtRp4308
(dp4309
g57
(dp4310
g65
I4
ssg66
g4304
sg59
(lp4311
S'you'
p4312
asbasbasbag52
(g68
g54
NtRp4313
(dp4314
g57
(dp4315
sg66
g4287
sg59
(lp4316
g52
(g73
g54
NtRp4317
(dp4318
g57
(dp4319
g77
g78
ssg66
g4313
sg59
(lp4320
S'copyright'
p4321
asbag52
(g73
g54
NtRp4322
(dp4323
g57
(dp4324
g84
g85
ssg66
g4313
sg59
(lp4325
S':'
asbag52
(g73
g54
NtRp4326
(dp4327
g57
(dp4328
sg66
g4313
sg59
(lp4329
g52
(g53
g54
NtRp4330
(dp4331
g57
(dp4332
g65
I4
ssg66
g4326
sg59
(lp4333
S'Copyright 2007-2010'
p4334
asbasbasbag52
(g68
g54
NtRp4335
(dp4336
g57
(dp4337
sg66
g4287
sg59
(lp4338
g52
(g73
g54
NtRp4339
(dp4340
g57
(dp4341
g77
g78
ssg66
g4335
sg59
(lp4342
S'description'
p4343
asbag52
(g73
g54
NtRp4344
(dp4345
g57
(dp4346
g84
g85
ssg66
g4335
sg59
(lp4347
S':'
asbag52
(g73
g54
NtRp4348
(dp4349
g57
(dp4350
sg66
g4335
sg59
(lp4351
g52
(g53
g54
NtRp4352
(dp4353
g57
(dp4354
g65
I4
ssg66
g4348
sg59
(lp4355
S'Free and open source full-stack enterprise framework for agile development of fast, scalable, secure and portable database-driven web-based applications. Written and programmable in Python'
p4356
asbasbasbag52
(g68
g54
NtRp4357
(dp4358
g57
(dp4359
sg66
g4287
sg59
(lp4360
g52
(g73
g54
NtRp4361
(dp4362
g57
(dp4363
g77
g78
ssg66
g4357
sg59
(lp4364
S'generator'
p4365
asbag52
(g73
g54
NtRp4366
(dp4367
g57
(dp4368
g84
g85
ssg66
g4357
sg59
(lp4369
S':'
asbag52
(g73
g54
NtRp4370
(dp4371
g57
(dp4372
sg66
g4357
sg59
(lp4373
g52
(g53
g54
NtRp4374
(dp4375
g57
(dp4376
g65
I4
ssg66
g4370
sg59
(lp4377
S'Web2py Enterprise Framework'
p4378
asbasbasbag52
(g68
g54
NtRp4379
(dp4380
g57
(dp4381
sg66
g4287
sg59
(lp4382
g52
(g73
g54
NtRp4383
(dp4384
g57
(dp4385
g77
g78
ssg66
g4379
sg59
(lp4386
S'keywords'
p4387
asbag52
(g73
g54
NtRp4388
(dp4389
g57
(dp4390
g84
g85
ssg66
g4379
sg59
(lp4391
S':'
asbag52
(g73
g54
NtRp4392
(dp4393
g57
(dp4394
sg66
g4379
sg59
(lp4395
g52
(g53
g54
NtRp4396
(dp4397
g57
(dp4398
g65
I4
ssg66
g4392
sg59
(lp4399
S'web2py, python, framework'
p4400
asbasbasbasbasbasbasbag52
(g68
g54
NtRp4401
(dp4402
g57
(dp4403
sg66
g2866
sg59
(lp4404
g52
(g73
g54
NtRp4405
(dp4406
g57
(dp4407
g77
g78
ssg66
g4401
sg59
(lp4408
S'postprocessing'
p4409
asbag52
(g73
g54
NtRp4410
(dp4411
g57
(dp4412
g84
g85
ssg66
g4401
sg59
(lp4413
S':'
asbag52
(g73
g54
NtRp4414
(dp4415
g57
(dp4416
sg66
g4401
sg59
(lp4417
g52
(g53
g54
NtRp4418
(dp4419
g57
(dp4420
g65
I5
ssg66
g4414
sg59
(lp4421
g52
(g61
g54
NtRp4422
(dp4423
g57
(dp4424
g65
I4
ssg66
Nsg59
(lp4425
sbasbasbasbag52
(g68
g54
NtRp4426
(dp4427
g57
(dp4428
sg66
g2866
sg59
(lp4429
g52
(g73
g54
NtRp4430
(dp4431
g57
(dp4432
g77
g78
ssg66
g4426
sg59
(lp4433
S'session_file'
p4434
asbag52
(g73
g54
NtRp4435
(dp4436
g57
(dp4437
g84
g85
ssg66
g4426
sg59
(lp4438
S':'
asbag52
(g73
g54
NtRp4439
(dp4440
g57
(dp4441
sg66
g4426
sg59
(lp4442
g52
(g53
g54
NtRp4443
(dp4444
g57
(dp4445
g65
I5
ssg66
g4439
sg59
(lp4446
S"<open file 'C:\\Users\\Atomico\\web2py\\applications\\Desglosar_Emails\\sessions\\127.0.0.1-78cf8050-df87-4502-afb9-ed0c3843b414', mode 'rb+' at 0x07D57A40>"
p4447
asbasbasbag52
(g68
g54
NtRp4448
(dp4449
g57
(dp4450
sg66
g2866
sg59
(lp4451
g52
(g73
g54
NtRp4452
(dp4453
g57
(dp4454
g77
g78
ssg66
g4448
sg59
(lp4455
S'session_filename'
p4456
asbag52
(g73
g54
NtRp4457
(dp4458
g57
(dp4459
g84
g85
ssg66
g4448
sg59
(lp4460
S':'
asbag52
(g73
g54
NtRp4461
(dp4462
g57
(dp4463
sg66
g4448
sg59
(lp4464
g52
(g53
g54
NtRp4465
(dp4466
g57
(dp4467
g65
I5
ssg66
g4461
sg59
(lp4468
S'C:\\Users\\Atomico\\web2py\\applications\\Desglosar_Emails\\sessions\\127.0.0.1-78cf8050-df87-4502-afb9-ed0c3843b414'
p4469
asbasbasbag52
(g68
g54
NtRp4470
(dp4471
g57
(dp4472
sg66
g2866
sg59
(lp4473
g52
(g73
g54
NtRp4474
(dp4475
g57
(dp4476
g77
g78
ssg66
g4470
sg59
(lp4477
S'session_id'
p4478
asbag52
(g73
g54
NtRp4479
(dp4480
g57
(dp4481
g84
g85
ssg66
g4470
sg59
(lp4482
S':'
asbag52
(g73
g54
NtRp4483
(dp4484
g57
(dp4485
sg66
g4470
sg59
(lp4486
g52
(g53
g54
NtRp4487
(dp4488
g57
(dp4489
g65
I5
ssg66
g4483
sg59
(lp4490
S'127.0.0.1-78cf8050-df87-4502-afb9-ed0c3843b414'
p4491
asbasbasbag52
(g68
g54
NtRp4492
(dp4493
g57
(dp4494
sg66
g2866
sg59
(lp4495
g52
(g73
g54
NtRp4496
(dp4497
g57
(dp4498
g77
g78
ssg66
g4492
sg59
(lp4499
S'session_id_name'
p4500
asbag52
(g73
g54
NtRp4501
(dp4502
g57
(dp4503
g84
g85
ssg66
g4492
sg59
(lp4504
S':'
asbag52
(g73
g54
NtRp4505
(dp4506
g57
(dp4507
sg66
g4492
sg59
(lp4508
g52
(g53
g54
NtRp4509
(dp4510
g57
(dp4511
g65
I5
ssg66
g4505
sg59
(lp4512
g2923
asbasbasbag52
(g68
g54
NtRp4513
(dp4514
g57
(dp4515
sg66
g2866
sg59
(lp4516
g52
(g73
g54
NtRp4517
(dp4518
g57
(dp4519
g77
g78
ssg66
g4513
sg59
(lp4520
S'session_locked'
p4521
asbag52
(g73
g54
NtRp4522
(dp4523
g57
(dp4524
g84
g85
ssg66
g4513
sg59
(lp4525
S':'
asbag52
(g73
g54
NtRp4526
(dp4527
g57
(dp4528
sg66
g4513
sg59
(lp4529
g52
(g53
g54
NtRp4530
(dp4531
g57
(dp4532
g65
I5
ssg66
g4526
sg59
(lp4533
g1611
asbasbasbag52
(g68
g54
NtRp4534
(dp4535
g57
(dp4536
sg66
g2866
sg59
(lp4537
g52
(g73
g54
NtRp4538
(dp4539
g57
(dp4540
g77
g78
ssg66
g4534
sg59
(lp4541
S'session_new'
p4542
asbag52
(g73
g54
NtRp4543
(dp4544
g57
(dp4545
g84
g85
ssg66
g4534
sg59
(lp4546
S':'
asbag52
(g73
g54
NtRp4547
(dp4548
g57
(dp4549
sg66
g4534
sg59
(lp4550
g52
(g53
g54
NtRp4551
(dp4552
g57
(dp4553
g65
I5
ssg66
g4547
sg59
(lp4554
g95
asbasbasbag52
(g68
g54
NtRp4555
(dp4556
g57
(dp4557
sg66
g2866
sg59
(lp4558
g52
(g73
g54
NtRp4559
(dp4560
g57
(dp4561
g77
g78
ssg66
g4555
sg59
(lp4562
S'status'
p4563
asbag52
(g73
g54
NtRp4564
(dp4565
g57
(dp4566
g84
g85
ssg66
g4555
sg59
(lp4567
S':'
asbag52
(g73
g54
NtRp4568
(dp4569
g57
(dp4570
sg66
g4555
sg59
(lp4571
g52
(g53
g54
NtRp4572
(dp4573
g57
(dp4574
g65
I5
ssg66
g4568
sg59
(lp4575
S'200'
p4576
asbasbasbag52
(g68
g54
NtRp4577
(dp4578
g57
(dp4579
sg66
g2866
sg59
(lp4580
g52
(g73
g54
NtRp4581
(dp4582
g57
(dp4583
g77
g78
ssg66
g4577
sg59
(lp4584
S'subtitle'
p4585
asbag52
(g73
g54
NtRp4586
(dp4587
g57
(dp4588
g84
g85
ssg66
g4577
sg59
(lp4589
S':'
asbag52
(g73
g54
NtRp4590
(dp4591
g57
(dp4592
sg66
g4577
sg59
(lp4593
g52
(g53
g54
NtRp4594
(dp4595
g57
(dp4596
g65
I5
ssg66
g4590
sg59
(lp4597
g3339
(S's\t\x00\x00\x00Adaptame!'
tRp4598
asbasbasbag52
(g68
g54
NtRp4599
(dp4600
g57
(dp4601
sg66
g2866
sg59
(lp4602
g52
(g73
g54
NtRp4603
(dp4604
g57
(dp4605
g77
g78
ssg66
g4599
sg59
(lp4606
S'title'
p4607
asbag52
(g73
g54
NtRp4608
(dp4609
g57
(dp4610
g84
g85
ssg66
g4599
sg59
(lp4611
S':'
asbag52
(g73
g54
NtRp4612
(dp4613
g57
(dp4614
sg66
g4599
sg59
(lp4615
g52
(g53
g54
NtRp4616
(dp4617
g57
(dp4618
g65
I5
ssg66
g4612
sg59
(lp4619
g117
asbasbasbag52
(g68
g54
NtRp4620
(dp4621
g57
(dp4622
sg66
g2866
sg59
(lp4623
g52
(g73
g54
NtRp4624
(dp4625
g57
(dp4626
g77
g78
ssg66
g4620
sg59
(lp4627
g1978
asbag52
(g73
g54
NtRp4628
(dp4629
g57
(dp4630
g84
g85
ssg66
g4620
sg59
(lp4631
S':'
asbag52
(g73
g54
NtRp4632
(dp4633
g57
(dp4634
sg66
g4620
sg59
(lp4635
g52
(g53
g54
NtRp4636
(dp4637
g57
(dp4638
g65
I5
ssg66
g4632
sg59
(lp4639
g1991
asbasbasbag52
(g68
g54
NtRp4640
(dp4641
g57
(dp4642
sg66
g2866
sg59
(lp4643
g52
(g73
g54
NtRp4644
(dp4645
g57
(dp4646
g77
g78
ssg66
g4640
sg59
(lp4647
S'view'
p4648
asbag52
(g73
g54
NtRp4649
(dp4650
g57
(dp4651
g84
g85
ssg66
g4640
sg59
(lp4652
S':'
asbag52
(g73
g54
NtRp4653
(dp4654
g57
(dp4655
sg66
g4640
sg59
(lp4656
g52
(g53
g54
NtRp4657
(dp4658
g57
(dp4659
g65
I5
ssg66
g4653
sg59
(lp4660
S'default/entrada_mod3.html'
p4661
asbasbasbasbasbsS'locals'
p4662
(dp4663
S'query'
p4664
S'"INSERT INTO info4(texto,longitud) VALUES (\'onkic...net); Bibi (bibianaperezsolano@hotmail.com)\',\'\');"'
p4665
sS'self'
p4666
S'<gluon.dal.SQLiteAdapter object at 0x07D226D0>'
p4667
sS'e'
S"OperationalError('database is locked',)"
p4668
sS'fields'
p4669
S"[(<gluon.dal.Field object at 0x07D32330>, 'onkicaronki@hotmail.com, cecilia.prada@fastwebne...alnet.net); Bibi (bibianaperezsolano@hotmail.com)'), (<gluon.dal.Field object at 0x07D32390>, '')]"
p4670
sS'table'
p4671
S"<Table {'ALL': <gluon.dal.SQLALL object at 0x07D...ngitud': <gluon.dal.Field object at 0x07D32390>}>"
p4672
sssS'traceback'
p4673
S'Traceback (most recent call last):\n  File "gluon/restricted.py", line 192, in restricted\n  File "C:\\Users\\Atomico\\web2py\\applications\\Desglosar_Emails\\controllers/default.py", line 69, in <module>\n  File "gluon/globals.py", line 145, in <lambda>\n  File "C:\\Users\\Atomico\\web2py\\applications\\Desglosar_Emails\\controllers/default.py", line 65, in entrada_mod3\n  File "gluon/sqlhtml.py", line 1223, in accepts\n  File "gluon/dal.py", line 4786, in insert\n  File "gluon/dal.py", line 844, in insert\nOperationalError: database is locked\n'
p4674
s.