(dp1
S'output'
p2
S''
sS'layer'
p3
S'C:\\Users\\Atomico\\web2py\\applications\\Desglosar_Emails\\controllers/default.py'
p4
sS'code'
p5
S"def entrada_mod3():\n    form=SQLFORM(db.info4)\n    if form.accepts(request.vars,session):pass\n    \n    return dict(form=form)\n   \ndef borrardb():\n    db.contactos.truncate()\n    db.info4.truncate()\n    \n    return dict(cad='Cagada pastoret')\n    \ndef relaciones():\n    form=FORM(INPUT(_name='argumentos',notnull=True),\n              INPUT(_type='submit'))\n    if form.accepts(request.vars,session):\n        session.argumentos=form.vars.argumentos\n        \n    form2=FORM(INPUT(_name='texto'),\n               INPUT(_type='submit'))\n    if form2.accepts(request.vars,session):\n        texto=form2.vars.texto\n        \n    return dict(cad='Que si',form=form,form2=form2,texto=texto)\n\nresponse._vars=response._caller(relaciones)\n"
p6
sS'snapshot'
p7
(dp8
S'exception'
p9
(dp10
S'__hash__'
p11
S"<method-wrapper '__hash__' of exceptions.UnboundLocalError object at 0x0779F9B8>"
p12
sS'__setattr__'
p13
S"<method-wrapper '__setattr__' of exceptions.UnboundLocalError object at 0x0779F9B8>"
p14
sS'__reduce_ex__'
p15
S'<built-in method __reduce_ex__ of exceptions.UnboundLocalError object at 0x0779F9B8>'
p16
sS'__getslice__'
p17
S"<method-wrapper '__getslice__' of exceptions.UnboundLocalError object at 0x0779F9B8>"
p18
sS'__getitem__'
p19
S"<method-wrapper '__getitem__' of exceptions.UnboundLocalError object at 0x0779F9B8>"
p20
sS'__setstate__'
p21
S'<built-in method __setstate__ of exceptions.UnboundLocalError object at 0x0779F9B8>'
p22
sS'__reduce__'
p23
S'<built-in method __reduce__ of exceptions.UnboundLocalError object at 0x0779F9B8>'
p24
sS'__str__'
p25
S"<method-wrapper '__str__' of exceptions.UnboundLocalError object at 0x0779F9B8>"
p26
sS'args'
p27
S'("local variable \'texto\' referenced before assignment",)'
p28
sS'__getattribute__'
p29
S"<method-wrapper '__getattribute__' of exceptions.UnboundLocalError object at 0x0779F9B8>"
p30
sS'__class__'
p31
S"<type 'exceptions.UnboundLocalError'>"
p32
sS'__delattr__'
p33
S"<method-wrapper '__delattr__' of exceptions.UnboundLocalError object at 0x0779F9B8>"
p34
sS'__repr__'
p35
S"<method-wrapper '__repr__' of exceptions.UnboundLocalError object at 0x0779F9B8>"
p36
sS'__dict__'
p37
S'{}'
p38
sS'__doc__'
p39
S"'Local name referenced but not bound to a value.'"
p40
sS'__init__'
p41
S"<method-wrapper '__init__' of exceptions.UnboundLocalError object at 0x0779F9B8>"
p42
sS'__new__'
p43
S'<built-in method __new__ of type object at 0x1E1CD9A0>'
p44
ssS'evalue'
p45
S"local variable 'texto' referenced before assignment"
p46
sS'request'
p47
ccopy_reg
_reconstructor
p48
(cgluon.html
BEAUTIFY
p49
c__builtin__
object
p50
NtRp51
(dp52
S'attributes'
p53
(dp54
sS'components'
p55
(lp56
g48
(cgluon.html
TABLE
p57
g50
NtRp58
(dp59
g53
(dp60
S'level'
p61
I5
ssS'parent'
p62
Nsg55
(lp63
g48
(cgluon.html
TR
p64
g50
NtRp65
(dp66
g53
(dp67
sg62
g58
sg55
(lp68
g48
(cgluon.html
TD
p69
g50
NtRp70
(dp71
g53
(dp72
S'_style'
p73
S'font-weight:bold;'
p74
ssg62
g65
sg55
(lp75
S'ajax'
p76
asbag48
(g69
g50
NtRp77
(dp78
g53
(dp79
S'_valign'
p80
S'top'
p81
ssg62
g65
sg55
(lp82
S':'
asbag48
(g69
g50
NtRp83
(dp84
g53
(dp85
sg62
g65
sg55
(lp86
g48
(g49
g50
NtRp87
(dp88
g53
(dp89
g61
I5
ssg62
g83
sg55
(lp90
S'False'
p91
asbasbasbag48
(g64
g50
NtRp92
(dp93
g53
(dp94
sg62
g58
sg55
(lp95
g48
(g69
g50
NtRp96
(dp97
g53
(dp98
g73
g74
ssg62
g92
sg55
(lp99
S'application'
p100
asbag48
(g69
g50
NtRp101
(dp102
g53
(dp103
g80
g81
ssg62
g92
sg55
(lp104
S':'
asbag48
(g69
g50
NtRp105
(dp106
g53
(dp107
sg62
g92
sg55
(lp108
g48
(g49
g50
NtRp109
(dp110
g53
(dp111
g61
I5
ssg62
g105
sg55
(lp112
S'Desglosar_Emails'
p113
asbasbasbag48
(g64
g50
NtRp114
(dp115
g53
(dp116
sg62
g58
sg55
(lp117
g48
(g69
g50
NtRp118
(dp119
g53
(dp120
g73
g74
ssg62
g114
sg55
(lp121
g27
asbag48
(g69
g50
NtRp122
(dp123
g53
(dp124
g80
g81
ssg62
g114
sg55
(lp125
S':'
asbag48
(g69
g50
NtRp126
(dp127
g53
(dp128
sg62
g114
sg55
(lp129
g48
(g49
g50
NtRp130
(dp131
g53
(dp132
g61
I5
ssg62
g126
sg55
(lp133
g48
(g57
g50
NtRp134
(dp135
g53
(dp136
g61
I4
ssg62
Nsg55
(lp137
sbasbasbasbag48
(g64
g50
NtRp138
(dp139
g53
(dp140
sg62
g58
sg55
(lp141
g48
(g69
g50
NtRp142
(dp143
g53
(dp144
g73
g74
ssg62
g138
sg55
(lp145
S'body'
p146
asbag48
(g69
g50
NtRp147
(dp148
g53
(dp149
g80
g81
ssg62
g138
sg55
(lp150
S':'
asbag48
(g69
g50
NtRp151
(dp152
g53
(dp153
sg62
g138
sg55
(lp154
g48
(g49
g50
NtRp155
(dp156
g53
(dp157
g61
I5
ssg62
g151
sg55
(lp158
S"<open file '<fdopen>', mode 'w+b' at 0x07A0CD10>"
p159
asbasbasbag48
(g64
g50
NtRp160
(dp161
g53
(dp162
sg62
g58
sg55
(lp163
g48
(g69
g50
NtRp164
(dp165
g53
(dp166
g73
g74
ssg62
g160
sg55
(lp167
S'client'
p168
asbag48
(g69
g50
NtRp169
(dp170
g53
(dp171
g80
g81
ssg62
g160
sg55
(lp172
S':'
asbag48
(g69
g50
NtRp173
(dp174
g53
(dp175
sg62
g160
sg55
(lp176
g48
(g49
g50
NtRp177
(dp178
g53
(dp179
g61
I5
ssg62
g173
sg55
(lp180
S'127.0.0.1'
p181
asbasbasbag48
(g64
g50
NtRp182
(dp183
g53
(dp184
sg62
g58
sg55
(lp185
g48
(g69
g50
NtRp186
(dp187
g53
(dp188
g73
g74
ssg62
g182
sg55
(lp189
S'controller'
p190
asbag48
(g69
g50
NtRp191
(dp192
g53
(dp193
g80
g81
ssg62
g182
sg55
(lp194
S':'
asbag48
(g69
g50
NtRp195
(dp196
g53
(dp197
sg62
g182
sg55
(lp198
g48
(g49
g50
NtRp199
(dp200
g53
(dp201
g61
I5
ssg62
g195
sg55
(lp202
S'default'
p203
asbasbasbag48
(g64
g50
NtRp204
(dp205
g53
(dp206
sg62
g58
sg55
(lp207
g48
(g69
g50
NtRp208
(dp209
g53
(dp210
g73
g74
ssg62
g204
sg55
(lp211
S'cookies'
p212
asbag48
(g69
g50
NtRp213
(dp214
g53
(dp215
g80
g81
ssg62
g204
sg55
(lp216
S':'
asbag48
(g69
g50
NtRp217
(dp218
g53
(dp219
sg62
g204
sg55
(lp220
g48
(g49
g50
NtRp221
(dp222
g53
(dp223
g61
I5
ssg62
g217
sg55
(lp224
g48
(g57
g50
NtRp225
(dp226
g53
(dp227
g61
I4
ssg62
Nsg55
(lp228
g48
(g64
g50
NtRp229
(dp230
g53
(dp231
sg62
g225
sg55
(lp232
g48
(g69
g50
NtRp233
(dp234
g53
(dp235
g73
g74
ssg62
g229
sg55
(lp236
S'session_id_admin'
p237
asbag48
(g69
g50
NtRp238
(dp239
g53
(dp240
g80
g81
ssg62
g229
sg55
(lp241
S':'
asbag48
(g69
g50
NtRp242
(dp243
g53
(dp244
sg62
g229
sg55
(lp245
g48
(g49
g50
NtRp246
(dp247
g53
(dp248
g61
I4
ssg62
g242
sg55
(lp249
g48
(g57
g50
NtRp250
(dp251
g53
(dp252
g61
I3
ssg62
Nsg55
(lp253
g48
(g64
g50
NtRp254
(dp255
g53
(dp256
sg62
g250
sg55
(lp257
g48
(g69
g50
NtRp258
(dp259
g53
(dp260
g73
g74
ssg62
g254
sg55
(lp261
S'comment'
p262
asbag48
(g69
g50
NtRp263
(dp264
g53
(dp265
g80
g81
ssg62
g254
sg55
(lp266
S':'
asbag48
(g69
g50
NtRp267
(dp268
g53
(dp269
sg62
g254
sg55
(lp270
g48
(g49
g50
NtRp271
(dp272
g53
(dp273
g61
I3
ssg62
g267
sg55
(lp274
S''
asbasbasbag48
(g64
g50
NtRp275
(dp276
g53
(dp277
sg62
g250
sg55
(lp278
g48
(g69
g50
NtRp279
(dp280
g53
(dp281
g73
g74
ssg62
g275
sg55
(lp282
S'domain'
p283
asbag48
(g69
g50
NtRp284
(dp285
g53
(dp286
g80
g81
ssg62
g275
sg55
(lp287
S':'
asbag48
(g69
g50
NtRp288
(dp289
g53
(dp290
sg62
g275
sg55
(lp291
g48
(g49
g50
NtRp292
(dp293
g53
(dp294
g61
I3
ssg62
g288
sg55
(lp295
S''
asbasbasbag48
(g64
g50
NtRp296
(dp297
g53
(dp298
sg62
g250
sg55
(lp299
g48
(g69
g50
NtRp300
(dp301
g53
(dp302
g73
g74
ssg62
g296
sg55
(lp303
S'expires'
p304
asbag48
(g69
g50
NtRp305
(dp306
g53
(dp307
g80
g81
ssg62
g296
sg55
(lp308
S':'
asbag48
(g69
g50
NtRp309
(dp310
g53
(dp311
sg62
g296
sg55
(lp312
g48
(g49
g50
NtRp313
(dp314
g53
(dp315
g61
I3
ssg62
g309
sg55
(lp316
S''
asbasbasbag48
(g64
g50
NtRp317
(dp318
g53
(dp319
sg62
g250
sg55
(lp320
g48
(g69
g50
NtRp321
(dp322
g53
(dp323
g73
g74
ssg62
g317
sg55
(lp324
S'max-age'
p325
asbag48
(g69
g50
NtRp326
(dp327
g53
(dp328
g80
g81
ssg62
g317
sg55
(lp329
S':'
asbag48
(g69
g50
NtRp330
(dp331
g53
(dp332
sg62
g317
sg55
(lp333
g48
(g49
g50
NtRp334
(dp335
g53
(dp336
g61
I3
ssg62
g330
sg55
(lp337
S''
asbasbasbag48
(g64
g50
NtRp338
(dp339
g53
(dp340
sg62
g250
sg55
(lp341
g48
(g69
g50
NtRp342
(dp343
g53
(dp344
g73
g74
ssg62
g338
sg55
(lp345
S'path'
p346
asbag48
(g69
g50
NtRp347
(dp348
g53
(dp349
g80
g81
ssg62
g338
sg55
(lp350
S':'
asbag48
(g69
g50
NtRp351
(dp352
g53
(dp353
sg62
g338
sg55
(lp354
g48
(g49
g50
NtRp355
(dp356
g53
(dp357
g61
I3
ssg62
g351
sg55
(lp358
S''
asbasbasbag48
(g64
g50
NtRp359
(dp360
g53
(dp361
sg62
g250
sg55
(lp362
g48
(g69
g50
NtRp363
(dp364
g53
(dp365
g73
g74
ssg62
g359
sg55
(lp366
S'secure'
p367
asbag48
(g69
g50
NtRp368
(dp369
g53
(dp370
g80
g81
ssg62
g359
sg55
(lp371
S':'
asbag48
(g69
g50
NtRp372
(dp373
g53
(dp374
sg62
g359
sg55
(lp375
g48
(g49
g50
NtRp376
(dp377
g53
(dp378
g61
I3
ssg62
g372
sg55
(lp379
S''
asbasbasbag48
(g64
g50
NtRp380
(dp381
g53
(dp382
sg62
g250
sg55
(lp383
g48
(g69
g50
NtRp384
(dp385
g53
(dp386
g73
g74
ssg62
g380
sg55
(lp387
S'version'
p388
asbag48
(g69
g50
NtRp389
(dp390
g53
(dp391
g80
g81
ssg62
g380
sg55
(lp392
S':'
asbag48
(g69
g50
NtRp393
(dp394
g53
(dp395
sg62
g380
sg55
(lp396
g48
(g49
g50
NtRp397
(dp398
g53
(dp399
g61
I3
ssg62
g393
sg55
(lp400
S''
asbasbasbasbasbasbasbag48
(g64
g50
NtRp401
(dp402
g53
(dp403
sg62
g225
sg55
(lp404
g48
(g69
g50
NtRp405
(dp406
g53
(dp407
g73
g74
ssg62
g401
sg55
(lp408
S'session_id_borrar2'
p409
asbag48
(g69
g50
NtRp410
(dp411
g53
(dp412
g80
g81
ssg62
g401
sg55
(lp413
S':'
asbag48
(g69
g50
NtRp414
(dp415
g53
(dp416
sg62
g401
sg55
(lp417
g48
(g49
g50
NtRp418
(dp419
g53
(dp420
g61
I4
ssg62
g414
sg55
(lp421
g48
(g57
g50
NtRp422
(dp423
g53
(dp424
g61
I3
ssg62
Nsg55
(lp425
g48
(g64
g50
NtRp426
(dp427
g53
(dp428
sg62
g422
sg55
(lp429
g48
(g69
g50
NtRp430
(dp431
g53
(dp432
g73
g74
ssg62
g426
sg55
(lp433
g262
asbag48
(g69
g50
NtRp434
(dp435
g53
(dp436
g80
g81
ssg62
g426
sg55
(lp437
S':'
asbag48
(g69
g50
NtRp438
(dp439
g53
(dp440
sg62
g426
sg55
(lp441
g48
(g49
g50
NtRp442
(dp443
g53
(dp444
g61
I3
ssg62
g438
sg55
(lp445
S''
asbasbasbag48
(g64
g50
NtRp446
(dp447
g53
(dp448
sg62
g422
sg55
(lp449
g48
(g69
g50
NtRp450
(dp451
g53
(dp452
g73
g74
ssg62
g446
sg55
(lp453
g283
asbag48
(g69
g50
NtRp454
(dp455
g53
(dp456
g80
g81
ssg62
g446
sg55
(lp457
S':'
asbag48
(g69
g50
NtRp458
(dp459
g53
(dp460
sg62
g446
sg55
(lp461
g48
(g49
g50
NtRp462
(dp463
g53
(dp464
g61
I3
ssg62
g458
sg55
(lp465
S''
asbasbasbag48
(g64
g50
NtRp466
(dp467
g53
(dp468
sg62
g422
sg55
(lp469
g48
(g69
g50
NtRp470
(dp471
g53
(dp472
g73
g74
ssg62
g466
sg55
(lp473
g304
asbag48
(g69
g50
NtRp474
(dp475
g53
(dp476
g80
g81
ssg62
g466
sg55
(lp477
S':'
asbag48
(g69
g50
NtRp478
(dp479
g53
(dp480
sg62
g466
sg55
(lp481
g48
(g49
g50
NtRp482
(dp483
g53
(dp484
g61
I3
ssg62
g478
sg55
(lp485
S''
asbasbasbag48
(g64
g50
NtRp486
(dp487
g53
(dp488
sg62
g422
sg55
(lp489
g48
(g69
g50
NtRp490
(dp491
g53
(dp492
g73
g74
ssg62
g486
sg55
(lp493
g325
asbag48
(g69
g50
NtRp494
(dp495
g53
(dp496
g80
g81
ssg62
g486
sg55
(lp497
S':'
asbag48
(g69
g50
NtRp498
(dp499
g53
(dp500
sg62
g486
sg55
(lp501
g48
(g49
g50
NtRp502
(dp503
g53
(dp504
g61
I3
ssg62
g498
sg55
(lp505
S''
asbasbasbag48
(g64
g50
NtRp506
(dp507
g53
(dp508
sg62
g422
sg55
(lp509
g48
(g69
g50
NtRp510
(dp511
g53
(dp512
g73
g74
ssg62
g506
sg55
(lp513
g346
asbag48
(g69
g50
NtRp514
(dp515
g53
(dp516
g80
g81
ssg62
g506
sg55
(lp517
S':'
asbag48
(g69
g50
NtRp518
(dp519
g53
(dp520
sg62
g506
sg55
(lp521
g48
(g49
g50
NtRp522
(dp523
g53
(dp524
g61
I3
ssg62
g518
sg55
(lp525
S''
asbasbasbag48
(g64
g50
NtRp526
(dp527
g53
(dp528
sg62
g422
sg55
(lp529
g48
(g69
g50
NtRp530
(dp531
g53
(dp532
g73
g74
ssg62
g526
sg55
(lp533
g367
asbag48
(g69
g50
NtRp534
(dp535
g53
(dp536
g80
g81
ssg62
g526
sg55
(lp537
S':'
asbag48
(g69
g50
NtRp538
(dp539
g53
(dp540
sg62
g526
sg55
(lp541
g48
(g49
g50
NtRp542
(dp543
g53
(dp544
g61
I3
ssg62
g538
sg55
(lp545
S''
asbasbasbag48
(g64
g50
NtRp546
(dp547
g53
(dp548
sg62
g422
sg55
(lp549
g48
(g69
g50
NtRp550
(dp551
g53
(dp552
g73
g74
ssg62
g546
sg55
(lp553
g388
asbag48
(g69
g50
NtRp554
(dp555
g53
(dp556
g80
g81
ssg62
g546
sg55
(lp557
S':'
asbag48
(g69
g50
NtRp558
(dp559
g53
(dp560
sg62
g546
sg55
(lp561
g48
(g49
g50
NtRp562
(dp563
g53
(dp564
g61
I3
ssg62
g558
sg55
(lp565
S''
asbasbasbasbasbasbasbag48
(g64
g50
NtRp566
(dp567
g53
(dp568
sg62
g225
sg55
(lp569
g48
(g69
g50
NtRp570
(dp571
g53
(dp572
g73
g74
ssg62
g566
sg55
(lp573
S'session_id_desglosar_emails'
p574
asbag48
(g69
g50
NtRp575
(dp576
g53
(dp577
g80
g81
ssg62
g566
sg55
(lp578
S':'
asbag48
(g69
g50
NtRp579
(dp580
g53
(dp581
sg62
g566
sg55
(lp582
g48
(g49
g50
NtRp583
(dp584
g53
(dp585
g61
I4
ssg62
g579
sg55
(lp586
g48
(g57
g50
NtRp587
(dp588
g53
(dp589
g61
I3
ssg62
Nsg55
(lp590
g48
(g64
g50
NtRp591
(dp592
g53
(dp593
sg62
g587
sg55
(lp594
g48
(g69
g50
NtRp595
(dp596
g53
(dp597
g73
g74
ssg62
g591
sg55
(lp598
g262
asbag48
(g69
g50
NtRp599
(dp600
g53
(dp601
g80
g81
ssg62
g591
sg55
(lp602
S':'
asbag48
(g69
g50
NtRp603
(dp604
g53
(dp605
sg62
g591
sg55
(lp606
g48
(g49
g50
NtRp607
(dp608
g53
(dp609
g61
I3
ssg62
g603
sg55
(lp610
S''
asbasbasbag48
(g64
g50
NtRp611
(dp612
g53
(dp613
sg62
g587
sg55
(lp614
g48
(g69
g50
NtRp615
(dp616
g53
(dp617
g73
g74
ssg62
g611
sg55
(lp618
g283
asbag48
(g69
g50
NtRp619
(dp620
g53
(dp621
g80
g81
ssg62
g611
sg55
(lp622
S':'
asbag48
(g69
g50
NtRp623
(dp624
g53
(dp625
sg62
g611
sg55
(lp626
g48
(g49
g50
NtRp627
(dp628
g53
(dp629
g61
I3
ssg62
g623
sg55
(lp630
S''
asbasbasbag48
(g64
g50
NtRp631
(dp632
g53
(dp633
sg62
g587
sg55
(lp634
g48
(g69
g50
NtRp635
(dp636
g53
(dp637
g73
g74
ssg62
g631
sg55
(lp638
g304
asbag48
(g69
g50
NtRp639
(dp640
g53
(dp641
g80
g81
ssg62
g631
sg55
(lp642
S':'
asbag48
(g69
g50
NtRp643
(dp644
g53
(dp645
sg62
g631
sg55
(lp646
g48
(g49
g50
NtRp647
(dp648
g53
(dp649
g61
I3
ssg62
g643
sg55
(lp650
S''
asbasbasbag48
(g64
g50
NtRp651
(dp652
g53
(dp653
sg62
g587
sg55
(lp654
g48
(g69
g50
NtRp655
(dp656
g53
(dp657
g73
g74
ssg62
g651
sg55
(lp658
g325
asbag48
(g69
g50
NtRp659
(dp660
g53
(dp661
g80
g81
ssg62
g651
sg55
(lp662
S':'
asbag48
(g69
g50
NtRp663
(dp664
g53
(dp665
sg62
g651
sg55
(lp666
g48
(g49
g50
NtRp667
(dp668
g53
(dp669
g61
I3
ssg62
g663
sg55
(lp670
S''
asbasbasbag48
(g64
g50
NtRp671
(dp672
g53
(dp673
sg62
g587
sg55
(lp674
g48
(g69
g50
NtRp675
(dp676
g53
(dp677
g73
g74
ssg62
g671
sg55
(lp678
g346
asbag48
(g69
g50
NtRp679
(dp680
g53
(dp681
g80
g81
ssg62
g671
sg55
(lp682
S':'
asbag48
(g69
g50
NtRp683
(dp684
g53
(dp685
sg62
g671
sg55
(lp686
g48
(g49
g50
NtRp687
(dp688
g53
(dp689
g61
I3
ssg62
g683
sg55
(lp690
S''
asbasbasbag48
(g64
g50
NtRp691
(dp692
g53
(dp693
sg62
g587
sg55
(lp694
g48
(g69
g50
NtRp695
(dp696
g53
(dp697
g73
g74
ssg62
g691
sg55
(lp698
g367
asbag48
(g69
g50
NtRp699
(dp700
g53
(dp701
g80
g81
ssg62
g691
sg55
(lp702
S':'
asbag48
(g69
g50
NtRp703
(dp704
g53
(dp705
sg62
g691
sg55
(lp706
g48
(g49
g50
NtRp707
(dp708
g53
(dp709
g61
I3
ssg62
g703
sg55
(lp710
S''
asbasbasbag48
(g64
g50
NtRp711
(dp712
g53
(dp713
sg62
g587
sg55
(lp714
g48
(g69
g50
NtRp715
(dp716
g53
(dp717
g73
g74
ssg62
g711
sg55
(lp718
g388
asbag48
(g69
g50
NtRp719
(dp720
g53
(dp721
g80
g81
ssg62
g711
sg55
(lp722
S':'
asbag48
(g69
g50
NtRp723
(dp724
g53
(dp725
sg62
g711
sg55
(lp726
g48
(g49
g50
NtRp727
(dp728
g53
(dp729
g61
I3
ssg62
g723
sg55
(lp730
S''
asbasbasbasbasbasbasbag48
(g64
g50
NtRp731
(dp732
g53
(dp733
sg62
g225
sg55
(lp734
g48
(g69
g50
NtRp735
(dp736
g53
(dp737
g73
g74
ssg62
g731
sg55
(lp738
S'session_id_myappjav'
p739
asbag48
(g69
g50
NtRp740
(dp741
g53
(dp742
g80
g81
ssg62
g731
sg55
(lp743
S':'
asbag48
(g69
g50
NtRp744
(dp745
g53
(dp746
sg62
g731
sg55
(lp747
g48
(g49
g50
NtRp748
(dp749
g53
(dp750
g61
I4
ssg62
g744
sg55
(lp751
g48
(g57
g50
NtRp752
(dp753
g53
(dp754
g61
I3
ssg62
Nsg55
(lp755
g48
(g64
g50
NtRp756
(dp757
g53
(dp758
sg62
g752
sg55
(lp759
g48
(g69
g50
NtRp760
(dp761
g53
(dp762
g73
g74
ssg62
g756
sg55
(lp763
g262
asbag48
(g69
g50
NtRp764
(dp765
g53
(dp766
g80
g81
ssg62
g756
sg55
(lp767
S':'
asbag48
(g69
g50
NtRp768
(dp769
g53
(dp770
sg62
g756
sg55
(lp771
g48
(g49
g50
NtRp772
(dp773
g53
(dp774
g61
I3
ssg62
g768
sg55
(lp775
S''
asbasbasbag48
(g64
g50
NtRp776
(dp777
g53
(dp778
sg62
g752
sg55
(lp779
g48
(g69
g50
NtRp780
(dp781
g53
(dp782
g73
g74
ssg62
g776
sg55
(lp783
g283
asbag48
(g69
g50
NtRp784
(dp785
g53
(dp786
g80
g81
ssg62
g776
sg55
(lp787
S':'
asbag48
(g69
g50
NtRp788
(dp789
g53
(dp790
sg62
g776
sg55
(lp791
g48
(g49
g50
NtRp792
(dp793
g53
(dp794
g61
I3
ssg62
g788
sg55
(lp795
S''
asbasbasbag48
(g64
g50
NtRp796
(dp797
g53
(dp798
sg62
g752
sg55
(lp799
g48
(g69
g50
NtRp800
(dp801
g53
(dp802
g73
g74
ssg62
g796
sg55
(lp803
g304
asbag48
(g69
g50
NtRp804
(dp805
g53
(dp806
g80
g81
ssg62
g796
sg55
(lp807
S':'
asbag48
(g69
g50
NtRp808
(dp809
g53
(dp810
sg62
g796
sg55
(lp811
g48
(g49
g50
NtRp812
(dp813
g53
(dp814
g61
I3
ssg62
g808
sg55
(lp815
S''
asbasbasbag48
(g64
g50
NtRp816
(dp817
g53
(dp818
sg62
g752
sg55
(lp819
g48
(g69
g50
NtRp820
(dp821
g53
(dp822
g73
g74
ssg62
g816
sg55
(lp823
g325
asbag48
(g69
g50
NtRp824
(dp825
g53
(dp826
g80
g81
ssg62
g816
sg55
(lp827
S':'
asbag48
(g69
g50
NtRp828
(dp829
g53
(dp830
sg62
g816
sg55
(lp831
g48
(g49
g50
NtRp832
(dp833
g53
(dp834
g61
I3
ssg62
g828
sg55
(lp835
S''
asbasbasbag48
(g64
g50
NtRp836
(dp837
g53
(dp838
sg62
g752
sg55
(lp839
g48
(g69
g50
NtRp840
(dp841
g53
(dp842
g73
g74
ssg62
g836
sg55
(lp843
g346
asbag48
(g69
g50
NtRp844
(dp845
g53
(dp846
g80
g81
ssg62
g836
sg55
(lp847
S':'
asbag48
(g69
g50
NtRp848
(dp849
g53
(dp850
sg62
g836
sg55
(lp851
g48
(g49
g50
NtRp852
(dp853
g53
(dp854
g61
I3
ssg62
g848
sg55
(lp855
S''
asbasbasbag48
(g64
g50
NtRp856
(dp857
g53
(dp858
sg62
g752
sg55
(lp859
g48
(g69
g50
NtRp860
(dp861
g53
(dp862
g73
g74
ssg62
g856
sg55
(lp863
g367
asbag48
(g69
g50
NtRp864
(dp865
g53
(dp866
g80
g81
ssg62
g856
sg55
(lp867
S':'
asbag48
(g69
g50
NtRp868
(dp869
g53
(dp870
sg62
g856
sg55
(lp871
g48
(g49
g50
NtRp872
(dp873
g53
(dp874
g61
I3
ssg62
g868
sg55
(lp875
S''
asbasbasbag48
(g64
g50
NtRp876
(dp877
g53
(dp878
sg62
g752
sg55
(lp879
g48
(g69
g50
NtRp880
(dp881
g53
(dp882
g73
g74
ssg62
g876
sg55
(lp883
g388
asbag48
(g69
g50
NtRp884
(dp885
g53
(dp886
g80
g81
ssg62
g876
sg55
(lp887
S':'
asbag48
(g69
g50
NtRp888
(dp889
g53
(dp890
sg62
g876
sg55
(lp891
g48
(g49
g50
NtRp892
(dp893
g53
(dp894
g61
I3
ssg62
g888
sg55
(lp895
S''
asbasbasbasbasbasbasbag48
(g64
g50
NtRp896
(dp897
g53
(dp898
sg62
g225
sg55
(lp899
g48
(g69
g50
NtRp900
(dp901
g53
(dp902
g73
g74
ssg62
g896
sg55
(lp903
S'session_id_welcome'
p904
asbag48
(g69
g50
NtRp905
(dp906
g53
(dp907
g80
g81
ssg62
g896
sg55
(lp908
S':'
asbag48
(g69
g50
NtRp909
(dp910
g53
(dp911
sg62
g896
sg55
(lp912
g48
(g49
g50
NtRp913
(dp914
g53
(dp915
g61
I4
ssg62
g909
sg55
(lp916
g48
(g57
g50
NtRp917
(dp918
g53
(dp919
g61
I3
ssg62
Nsg55
(lp920
g48
(g64
g50
NtRp921
(dp922
g53
(dp923
sg62
g917
sg55
(lp924
g48
(g69
g50
NtRp925
(dp926
g53
(dp927
g73
g74
ssg62
g921
sg55
(lp928
g262
asbag48
(g69
g50
NtRp929
(dp930
g53
(dp931
g80
g81
ssg62
g921
sg55
(lp932
S':'
asbag48
(g69
g50
NtRp933
(dp934
g53
(dp935
sg62
g921
sg55
(lp936
g48
(g49
g50
NtRp937
(dp938
g53
(dp939
g61
I3
ssg62
g933
sg55
(lp940
S''
asbasbasbag48
(g64
g50
NtRp941
(dp942
g53
(dp943
sg62
g917
sg55
(lp944
g48
(g69
g50
NtRp945
(dp946
g53
(dp947
g73
g74
ssg62
g941
sg55
(lp948
g283
asbag48
(g69
g50
NtRp949
(dp950
g53
(dp951
g80
g81
ssg62
g941
sg55
(lp952
S':'
asbag48
(g69
g50
NtRp953
(dp954
g53
(dp955
sg62
g941
sg55
(lp956
g48
(g49
g50
NtRp957
(dp958
g53
(dp959
g61
I3
ssg62
g953
sg55
(lp960
S''
asbasbasbag48
(g64
g50
NtRp961
(dp962
g53
(dp963
sg62
g917
sg55
(lp964
g48
(g69
g50
NtRp965
(dp966
g53
(dp967
g73
g74
ssg62
g961
sg55
(lp968
g304
asbag48
(g69
g50
NtRp969
(dp970
g53
(dp971
g80
g81
ssg62
g961
sg55
(lp972
S':'
asbag48
(g69
g50
NtRp973
(dp974
g53
(dp975
sg62
g961
sg55
(lp976
g48
(g49
g50
NtRp977
(dp978
g53
(dp979
g61
I3
ssg62
g973
sg55
(lp980
S''
asbasbasbag48
(g64
g50
NtRp981
(dp982
g53
(dp983
sg62
g917
sg55
(lp984
g48
(g69
g50
NtRp985
(dp986
g53
(dp987
g73
g74
ssg62
g981
sg55
(lp988
g325
asbag48
(g69
g50
NtRp989
(dp990
g53
(dp991
g80
g81
ssg62
g981
sg55
(lp992
S':'
asbag48
(g69
g50
NtRp993
(dp994
g53
(dp995
sg62
g981
sg55
(lp996
g48
(g49
g50
NtRp997
(dp998
g53
(dp999
g61
I3
ssg62
g993
sg55
(lp1000
S''
asbasbasbag48
(g64
g50
NtRp1001
(dp1002
g53
(dp1003
sg62
g917
sg55
(lp1004
g48
(g69
g50
NtRp1005
(dp1006
g53
(dp1007
g73
g74
ssg62
g1001
sg55
(lp1008
g346
asbag48
(g69
g50
NtRp1009
(dp1010
g53
(dp1011
g80
g81
ssg62
g1001
sg55
(lp1012
S':'
asbag48
(g69
g50
NtRp1013
(dp1014
g53
(dp1015
sg62
g1001
sg55
(lp1016
g48
(g49
g50
NtRp1017
(dp1018
g53
(dp1019
g61
I3
ssg62
g1013
sg55
(lp1020
S''
asbasbasbag48
(g64
g50
NtRp1021
(dp1022
g53
(dp1023
sg62
g917
sg55
(lp1024
g48
(g69
g50
NtRp1025
(dp1026
g53
(dp1027
g73
g74
ssg62
g1021
sg55
(lp1028
g367
asbag48
(g69
g50
NtRp1029
(dp1030
g53
(dp1031
g80
g81
ssg62
g1021
sg55
(lp1032
S':'
asbag48
(g69
g50
NtRp1033
(dp1034
g53
(dp1035
sg62
g1021
sg55
(lp1036
g48
(g49
g50
NtRp1037
(dp1038
g53
(dp1039
g61
I3
ssg62
g1033
sg55
(lp1040
S''
asbasbasbag48
(g64
g50
NtRp1041
(dp1042
g53
(dp1043
sg62
g917
sg55
(lp1044
g48
(g69
g50
NtRp1045
(dp1046
g53
(dp1047
g73
g74
ssg62
g1041
sg55
(lp1048
g388
asbag48
(g69
g50
NtRp1049
(dp1050
g53
(dp1051
g80
g81
ssg62
g1041
sg55
(lp1052
S':'
asbag48
(g69
g50
NtRp1053
(dp1054
g53
(dp1055
sg62
g1041
sg55
(lp1056
g48
(g49
g50
NtRp1057
(dp1058
g53
(dp1059
g61
I3
ssg62
g1053
sg55
(lp1060
S''
asbasbasbasbasbasbasbasbasbasbasbag48
(g64
g50
NtRp1061
(dp1062
g53
(dp1063
sg62
g58
sg55
(lp1064
g48
(g69
g50
NtRp1065
(dp1066
g53
(dp1067
g73
g74
ssg62
g1061
sg55
(lp1068
S'env'
p1069
asbag48
(g69
g50
NtRp1070
(dp1071
g53
(dp1072
g80
g81
ssg62
g1061
sg55
(lp1073
S':'
asbag48
(g69
g50
NtRp1074
(dp1075
g53
(dp1076
sg62
g1061
sg55
(lp1077
g48
(g49
g50
NtRp1078
(dp1079
g53
(dp1080
g61
I5
ssg62
g1074
sg55
(lp1081
g48
(g57
g50
NtRp1082
(dp1083
g53
(dp1084
g61
I4
ssg62
Nsg55
(lp1085
g48
(g64
g50
NtRp1086
(dp1087
g53
(dp1088
sg62
g1082
sg55
(lp1089
g48
(g69
g50
NtRp1090
(dp1091
g53
(dp1092
g73
g74
ssg62
g1086
sg55
(lp1093
S'app_folders'
p1094
asbag48
(g69
g50
NtRp1095
(dp1096
g53
(dp1097
g80
g81
ssg62
g1086
sg55
(lp1098
S':'
asbag48
(g69
g50
NtRp1099
(dp1100
g53
(dp1101
sg62
g1086
sg55
(lp1102
g48
(g49
g50
NtRp1103
(dp1104
g53
(dp1105
g61
I4
ssg62
g1099
sg55
(lp1106
S"set(['C:\\\\Users\\\\Atomico\\\\web2py\\\\applications\\\\welcome\\\\', 'C:\\\\Users\\\\Atomico\\\\web2py\\\\applications\\\\Desglosar_Emails\\\\', 'C:\\\\Users\\\\Atomico\\\\web2py\\\\applications\\\\admin\\\\'])"
p1107
asbasbasbag48
(g64
g50
NtRp1108
(dp1109
g53
(dp1110
sg62
g1082
sg55
(lp1111
g48
(g69
g50
NtRp1112
(dp1113
g53
(dp1114
g73
g74
ssg62
g1108
sg55
(lp1115
S'applications_parent'
p1116
asbag48
(g69
g50
NtRp1117
(dp1118
g53
(dp1119
g80
g81
ssg62
g1108
sg55
(lp1120
S':'
asbag48
(g69
g50
NtRp1121
(dp1122
g53
(dp1123
sg62
g1108
sg55
(lp1124
g48
(g49
g50
NtRp1125
(dp1126
g53
(dp1127
g61
I4
ssg62
g1121
sg55
(lp1128
S'C:\\Users\\Atomico\\web2py'
p1129
asbasbasbag48
(g64
g50
NtRp1130
(dp1131
g53
(dp1132
sg62
g1082
sg55
(lp1133
g48
(g69
g50
NtRp1134
(dp1135
g53
(dp1136
g73
g74
ssg62
g1130
sg55
(lp1137
S'cmd_args'
p1138
asbag48
(g69
g50
NtRp1139
(dp1140
g53
(dp1141
g80
g81
ssg62
g1130
sg55
(lp1142
S':'
asbag48
(g69
g50
NtRp1143
(dp1144
g53
(dp1145
sg62
g1130
sg55
(lp1146
g48
(g49
g50
NtRp1147
(dp1148
g53
(dp1149
g61
I4
ssg62
g1143
sg55
(lp1150
g48
(g57
g50
NtRp1151
(dp1152
g53
(dp1153
g61
I3
ssg62
Nsg55
(lp1154
sbasbasbasbag48
(g64
g50
NtRp1155
(dp1156
g53
(dp1157
sg62
g1082
sg55
(lp1158
g48
(g69
g50
NtRp1159
(dp1160
g53
(dp1161
g73
g74
ssg62
g1155
sg55
(lp1162
S'cmd_options'
p1163
asbag48
(g69
g50
NtRp1164
(dp1165
g53
(dp1166
g80
g81
ssg62
g1155
sg55
(lp1167
S':'
asbag48
(g69
g50
NtRp1168
(dp1169
g53
(dp1170
sg62
g1155
sg55
(lp1171
g48
(g49
g50
NtRp1172
(dp1173
g53
(dp1174
g61
I4
ssg62
g1168
sg55
(lp1175
S"<Values at 0x31fe5d0: {'verbose': False, 'ip': '127.0.0.1', 'shutdown_timeout': 5, 'taskbar': False, 'port': 8000, 'maxthreads': None, 'softcron': False, 'server_name': 'Swing', 'bpython': False, 'nogui': False, 'nocron': False, 'extcron': False, 'debuglevel': 30, 'test': None, 'folder': 'C:\\\\Users\\\\Atomico\\\\web2py', 'config': '', 'import_models': False, 'winservice': '', 'shell': None, 'run': '', 'log_filename': 'httpserver.log', 'args': [''], 'profiler_filename': None, 'ssl_private_key': '', 'password': '<ask>', 'request_queue_size': 5, 'ssl_certificate': '', 'cronjob': False, 'plain': False, 'quiet': False, 'interfaces': None, 'minthreads': None, 'timeout': 10, 'numthreads': None, 'nobanner': False, 'pid_filename': 'httpserver.pid'}>"
p1176
asbasbasbag48
(g64
g50
NtRp1177
(dp1178
g53
(dp1179
sg62
g1082
sg55
(lp1180
g48
(g69
g50
NtRp1181
(dp1182
g53
(dp1183
g73
g74
ssg62
g1177
sg55
(lp1184
S'content_length'
p1185
asbag48
(g69
g50
NtRp1186
(dp1187
g53
(dp1188
g80
g81
ssg62
g1177
sg55
(lp1189
S':'
asbag48
(g69
g50
NtRp1190
(dp1191
g53
(dp1192
sg62
g1177
sg55
(lp1193
g48
(g49
g50
NtRp1194
(dp1195
g53
(dp1196
g61
I4
ssg62
g1190
sg55
(lp1197
S'378'
p1198
asbasbasbag48
(g64
g50
NtRp1199
(dp1200
g53
(dp1201
sg62
g1082
sg55
(lp1202
g48
(g69
g50
NtRp1203
(dp1204
g53
(dp1205
g73
g74
ssg62
g1199
sg55
(lp1206
S'content_type'
p1207
asbag48
(g69
g50
NtRp1208
(dp1209
g53
(dp1210
g80
g81
ssg62
g1199
sg55
(lp1211
S':'
asbag48
(g69
g50
NtRp1212
(dp1213
g53
(dp1214
sg62
g1199
sg55
(lp1215
g48
(g49
g50
NtRp1216
(dp1217
g53
(dp1218
g61
I4
ssg62
g1212
sg55
(lp1219
S'multipart/form-data; boundary=---------------------------71955065158'
p1220
asbasbasbag48
(g64
g50
NtRp1221
(dp1222
g53
(dp1223
sg62
g1082
sg55
(lp1224
g48
(g69
g50
NtRp1225
(dp1226
g53
(dp1227
g73
g74
ssg62
g1221
sg55
(lp1228
S'db_sessions'
p1229
asbag48
(g69
g50
NtRp1230
(dp1231
g53
(dp1232
g80
g81
ssg62
g1221
sg55
(lp1233
S':'
asbag48
(g69
g50
NtRp1234
(dp1235
g53
(dp1236
sg62
g1221
sg55
(lp1237
g48
(g49
g50
NtRp1238
(dp1239
g53
(dp1240
g61
I4
ssg62
g1234
sg55
(lp1241
S'set([])'
p1242
asbasbasbag48
(g64
g50
NtRp1243
(dp1244
g53
(dp1245
sg62
g1082
sg55
(lp1246
g48
(g69
g50
NtRp1247
(dp1248
g53
(dp1249
g73
g74
ssg62
g1243
sg55
(lp1250
S'debugging'
p1251
asbag48
(g69
g50
NtRp1252
(dp1253
g53
(dp1254
g80
g81
ssg62
g1243
sg55
(lp1255
S':'
asbag48
(g69
g50
NtRp1256
(dp1257
g53
(dp1258
sg62
g1243
sg55
(lp1259
g48
(g49
g50
NtRp1260
(dp1261
g53
(dp1262
g61
I4
ssg62
g1256
sg55
(lp1263
g91
asbasbasbag48
(g64
g50
NtRp1264
(dp1265
g53
(dp1266
sg62
g1082
sg55
(lp1267
g48
(g69
g50
NtRp1268
(dp1269
g53
(dp1270
g73
g74
ssg62
g1264
sg55
(lp1271
S'gluon_parent'
p1272
asbag48
(g69
g50
NtRp1273
(dp1274
g53
(dp1275
g80
g81
ssg62
g1264
sg55
(lp1276
S':'
asbag48
(g69
g50
NtRp1277
(dp1278
g53
(dp1279
sg62
g1264
sg55
(lp1280
g48
(g49
g50
NtRp1281
(dp1282
g53
(dp1283
g61
I4
ssg62
g1277
sg55
(lp1284
S'C:\\Users\\Atomico\\web2py'
p1285
asbasbasbag48
(g64
g50
NtRp1286
(dp1287
g53
(dp1288
sg62
g1082
sg55
(lp1289
g48
(g69
g50
NtRp1290
(dp1291
g53
(dp1292
g73
g74
ssg62
g1286
sg55
(lp1293
S'http_accept'
p1294
asbag48
(g69
g50
NtRp1295
(dp1296
g53
(dp1297
g80
g81
ssg62
g1286
sg55
(lp1298
S':'
asbag48
(g69
g50
NtRp1299
(dp1300
g53
(dp1301
sg62
g1286
sg55
(lp1302
g48
(g49
g50
NtRp1303
(dp1304
g53
(dp1305
g61
I4
ssg62
g1299
sg55
(lp1306
S'text/html,application/xhtml+xml,application/xml;q=0.9,*/*;q=0.8'
p1307
asbasbasbag48
(g64
g50
NtRp1308
(dp1309
g53
(dp1310
sg62
g1082
sg55
(lp1311
g48
(g69
g50
NtRp1312
(dp1313
g53
(dp1314
g73
g74
ssg62
g1308
sg55
(lp1315
S'http_accept_charset'
p1316
asbag48
(g69
g50
NtRp1317
(dp1318
g53
(dp1319
g80
g81
ssg62
g1308
sg55
(lp1320
S':'
asbag48
(g69
g50
NtRp1321
(dp1322
g53
(dp1323
sg62
g1308
sg55
(lp1324
g48
(g49
g50
NtRp1325
(dp1326
g53
(dp1327
g61
I4
ssg62
g1321
sg55
(lp1328
S'ISO-8859-1,utf-8;q=0.7,*;q=0.7'
p1329
asbasbasbag48
(g64
g50
NtRp1330
(dp1331
g53
(dp1332
sg62
g1082
sg55
(lp1333
g48
(g69
g50
NtRp1334
(dp1335
g53
(dp1336
g73
g74
ssg62
g1330
sg55
(lp1337
S'http_accept_encoding'
p1338
asbag48
(g69
g50
NtRp1339
(dp1340
g53
(dp1341
g80
g81
ssg62
g1330
sg55
(lp1342
S':'
asbag48
(g69
g50
NtRp1343
(dp1344
g53
(dp1345
sg62
g1330
sg55
(lp1346
g48
(g49
g50
NtRp1347
(dp1348
g53
(dp1349
g61
I4
ssg62
g1343
sg55
(lp1350
S'gzip, deflate'
p1351
asbasbasbag48
(g64
g50
NtRp1352
(dp1353
g53
(dp1354
sg62
g1082
sg55
(lp1355
g48
(g69
g50
NtRp1356
(dp1357
g53
(dp1358
g73
g74
ssg62
g1352
sg55
(lp1359
S'http_accept_language'
p1360
asbag48
(g69
g50
NtRp1361
(dp1362
g53
(dp1363
g80
g81
ssg62
g1352
sg55
(lp1364
S':'
asbag48
(g69
g50
NtRp1365
(dp1366
g53
(dp1367
sg62
g1352
sg55
(lp1368
g48
(g49
g50
NtRp1369
(dp1370
g53
(dp1371
g61
I4
ssg62
g1365
sg55
(lp1372
S'es-es,es;q=0.8,en-us;q=0.5,en;q=0.3'
p1373
asbasbasbag48
(g64
g50
NtRp1374
(dp1375
g53
(dp1376
sg62
g1082
sg55
(lp1377
g48
(g69
g50
NtRp1378
(dp1379
g53
(dp1380
g73
g74
ssg62
g1374
sg55
(lp1381
S'http_cache_control'
p1382
asbag48
(g69
g50
NtRp1383
(dp1384
g53
(dp1385
g80
g81
ssg62
g1374
sg55
(lp1386
S':'
asbag48
(g69
g50
NtRp1387
(dp1388
g53
(dp1389
sg62
g1374
sg55
(lp1390
g48
(g49
g50
NtRp1391
(dp1392
g53
(dp1393
g61
I4
ssg62
g1387
sg55
(lp1394
S'max-age=0'
p1395
asbasbasbag48
(g64
g50
NtRp1396
(dp1397
g53
(dp1398
sg62
g1082
sg55
(lp1399
g48
(g69
g50
NtRp1400
(dp1401
g53
(dp1402
g73
g74
ssg62
g1396
sg55
(lp1403
S'http_connection'
p1404
asbag48
(g69
g50
NtRp1405
(dp1406
g53
(dp1407
g80
g81
ssg62
g1396
sg55
(lp1408
S':'
asbag48
(g69
g50
NtRp1409
(dp1410
g53
(dp1411
sg62
g1396
sg55
(lp1412
g48
(g49
g50
NtRp1413
(dp1414
g53
(dp1415
g61
I4
ssg62
g1409
sg55
(lp1416
S'keep-alive'
p1417
asbasbasbag48
(g64
g50
NtRp1418
(dp1419
g53
(dp1420
sg62
g1082
sg55
(lp1421
g48
(g69
g50
NtRp1422
(dp1423
g53
(dp1424
g73
g74
ssg62
g1418
sg55
(lp1425
S'http_content_length'
p1426
asbag48
(g69
g50
NtRp1427
(dp1428
g53
(dp1429
g80
g81
ssg62
g1418
sg55
(lp1430
S':'
asbag48
(g69
g50
NtRp1431
(dp1432
g53
(dp1433
sg62
g1418
sg55
(lp1434
g48
(g49
g50
NtRp1435
(dp1436
g53
(dp1437
g61
I4
ssg62
g1431
sg55
(lp1438
g1198
asbasbasbag48
(g64
g50
NtRp1439
(dp1440
g53
(dp1441
sg62
g1082
sg55
(lp1442
g48
(g69
g50
NtRp1443
(dp1444
g53
(dp1445
g73
g74
ssg62
g1439
sg55
(lp1446
S'http_content_type'
p1447
asbag48
(g69
g50
NtRp1448
(dp1449
g53
(dp1450
g80
g81
ssg62
g1439
sg55
(lp1451
S':'
asbag48
(g69
g50
NtRp1452
(dp1453
g53
(dp1454
sg62
g1439
sg55
(lp1455
g48
(g49
g50
NtRp1456
(dp1457
g53
(dp1458
g61
I4
ssg62
g1452
sg55
(lp1459
g1220
asbasbasbag48
(g64
g50
NtRp1460
(dp1461
g53
(dp1462
sg62
g1082
sg55
(lp1463
g48
(g69
g50
NtRp1464
(dp1465
g53
(dp1466
g73
g74
ssg62
g1460
sg55
(lp1467
S'http_cookie'
p1468
asbag48
(g69
g50
NtRp1469
(dp1470
g53
(dp1471
g80
g81
ssg62
g1460
sg55
(lp1472
S':'
asbag48
(g69
g50
NtRp1473
(dp1474
g53
(dp1475
sg62
g1460
sg55
(lp1476
g48
(g49
g50
NtRp1477
(dp1478
g53
(dp1479
g61
I4
ssg62
g1473
sg55
(lp1480
S'session_id_welcome=127.0.0.1-d4a19c8f-3eb1-49d7-87c7-849a3de2f2be; session_id_admin=127.0.0.1-ab41072a-78d8-41d9-b0f6-43c9e78f0c91; session_id_desglosar_emails=127.0.0.1-78cf8050-df87-4502-afb9-ed0c3843b414; session_id_borrar2=127.0.0.1-7b2821ce-f980-4deb-be8f-1de8266b25b6; session_id_myappjav=127.0.0.1-c0868253-65dd-491c-a2e7-2dc9aaaa4724'
p1481
asbasbasbag48
(g64
g50
NtRp1482
(dp1483
g53
(dp1484
sg62
g1082
sg55
(lp1485
g48
(g69
g50
NtRp1486
(dp1487
g53
(dp1488
g73
g74
ssg62
g1482
sg55
(lp1489
S'http_host'
p1490
asbag48
(g69
g50
NtRp1491
(dp1492
g53
(dp1493
g80
g81
ssg62
g1482
sg55
(lp1494
S':'
asbag48
(g69
g50
NtRp1495
(dp1496
g53
(dp1497
sg62
g1482
sg55
(lp1498
g48
(g49
g50
NtRp1499
(dp1500
g53
(dp1501
g61
I4
ssg62
g1495
sg55
(lp1502
S'127.0.0.1:8000'
p1503
asbasbasbag48
(g64
g50
NtRp1504
(dp1505
g53
(dp1506
sg62
g1082
sg55
(lp1507
g48
(g69
g50
NtRp1508
(dp1509
g53
(dp1510
g73
g74
ssg62
g1504
sg55
(lp1511
S'http_referer'
p1512
asbag48
(g69
g50
NtRp1513
(dp1514
g53
(dp1515
g80
g81
ssg62
g1504
sg55
(lp1516
S':'
asbag48
(g69
g50
NtRp1517
(dp1518
g53
(dp1519
sg62
g1504
sg55
(lp1520
g48
(g49
g50
NtRp1521
(dp1522
g53
(dp1523
g61
I4
ssg62
g1517
sg55
(lp1524
S'http://127.0.0.1:8000/Desglosar_Emails/default/relaciones'
p1525
asbasbasbag48
(g64
g50
NtRp1526
(dp1527
g53
(dp1528
sg62
g1082
sg55
(lp1529
g48
(g69
g50
NtRp1530
(dp1531
g53
(dp1532
g73
g74
ssg62
g1526
sg55
(lp1533
S'http_user_agent'
p1534
asbag48
(g69
g50
NtRp1535
(dp1536
g53
(dp1537
g80
g81
ssg62
g1526
sg55
(lp1538
S':'
asbag48
(g69
g50
NtRp1539
(dp1540
g53
(dp1541
sg62
g1526
sg55
(lp1542
g48
(g49
g50
NtRp1543
(dp1544
g53
(dp1545
g61
I4
ssg62
g1539
sg55
(lp1546
S'Mozilla/5.0 (Windows NT 6.1; WOW64; rv:6.0.2) Gecko/20100101 Firefox/6.0.2'
p1547
asbasbasbag48
(g64
g50
NtRp1548
(dp1549
g53
(dp1550
sg62
g1082
sg55
(lp1551
g48
(g69
g50
NtRp1552
(dp1553
g53
(dp1554
g73
g74
ssg62
g1548
sg55
(lp1555
S'is_jython'
p1556
asbag48
(g69
g50
NtRp1557
(dp1558
g53
(dp1559
g80
g81
ssg62
g1548
sg55
(lp1560
S':'
asbag48
(g69
g50
NtRp1561
(dp1562
g53
(dp1563
sg62
g1548
sg55
(lp1564
g48
(g49
g50
NtRp1565
(dp1566
g53
(dp1567
g61
I4
ssg62
g1561
sg55
(lp1568
g91
asbasbasbag48
(g64
g50
NtRp1569
(dp1570
g53
(dp1571
sg62
g1082
sg55
(lp1572
g48
(g69
g50
NtRp1573
(dp1574
g53
(dp1575
g73
g74
ssg62
g1569
sg55
(lp1576
S'path_info'
p1577
asbag48
(g69
g50
NtRp1578
(dp1579
g53
(dp1580
g80
g81
ssg62
g1569
sg55
(lp1581
S':'
asbag48
(g69
g50
NtRp1582
(dp1583
g53
(dp1584
sg62
g1569
sg55
(lp1585
g48
(g49
g50
NtRp1586
(dp1587
g53
(dp1588
g61
I4
ssg62
g1582
sg55
(lp1589
S'/Desglosar_Emails/default/relaciones'
p1590
asbasbasbag48
(g64
g50
NtRp1591
(dp1592
g53
(dp1593
sg62
g1082
sg55
(lp1594
g48
(g69
g50
NtRp1595
(dp1596
g53
(dp1597
g73
g74
ssg62
g1591
sg55
(lp1598
S'query_string'
p1599
asbag48
(g69
g50
NtRp1600
(dp1601
g53
(dp1602
g80
g81
ssg62
g1591
sg55
(lp1603
S':'
asbag48
(g69
g50
NtRp1604
(dp1605
g53
(dp1606
sg62
g1591
sg55
(lp1607
g48
(g49
g50
NtRp1608
(dp1609
g53
(dp1610
g61
I4
ssg62
g1604
sg55
(lp1611
S''
asbasbasbag48
(g64
g50
NtRp1612
(dp1613
g53
(dp1614
sg62
g1082
sg55
(lp1615
g48
(g69
g50
NtRp1616
(dp1617
g53
(dp1618
g73
g74
ssg62
g1612
sg55
(lp1619
S'remote_addr'
p1620
asbag48
(g69
g50
NtRp1621
(dp1622
g53
(dp1623
g80
g81
ssg62
g1612
sg55
(lp1624
S':'
asbag48
(g69
g50
NtRp1625
(dp1626
g53
(dp1627
sg62
g1612
sg55
(lp1628
g48
(g49
g50
NtRp1629
(dp1630
g53
(dp1631
g61
I4
ssg62
g1625
sg55
(lp1632
g181
asbasbasbag48
(g64
g50
NtRp1633
(dp1634
g53
(dp1635
sg62
g1082
sg55
(lp1636
g48
(g69
g50
NtRp1637
(dp1638
g53
(dp1639
g73
g74
ssg62
g1633
sg55
(lp1640
S'remote_port'
p1641
asbag48
(g69
g50
NtRp1642
(dp1643
g53
(dp1644
g80
g81
ssg62
g1633
sg55
(lp1645
S':'
asbag48
(g69
g50
NtRp1646
(dp1647
g53
(dp1648
sg62
g1633
sg55
(lp1649
g48
(g49
g50
NtRp1650
(dp1651
g53
(dp1652
g61
I4
ssg62
g1646
sg55
(lp1653
S'51672'
p1654
asbasbasbag48
(g64
g50
NtRp1655
(dp1656
g53
(dp1657
sg62
g1082
sg55
(lp1658
g48
(g69
g50
NtRp1659
(dp1660
g53
(dp1661
g73
g74
ssg62
g1655
sg55
(lp1662
S'request_method'
p1663
asbag48
(g69
g50
NtRp1664
(dp1665
g53
(dp1666
g80
g81
ssg62
g1655
sg55
(lp1667
S':'
asbag48
(g69
g50
NtRp1668
(dp1669
g53
(dp1670
sg62
g1655
sg55
(lp1671
g48
(g49
g50
NtRp1672
(dp1673
g53
(dp1674
g61
I4
ssg62
g1668
sg55
(lp1675
S'POST'
p1676
asbasbasbag48
(g64
g50
NtRp1677
(dp1678
g53
(dp1679
sg62
g1082
sg55
(lp1680
g48
(g69
g50
NtRp1681
(dp1682
g53
(dp1683
g73
g74
ssg62
g1677
sg55
(lp1684
S'script_name'
p1685
asbag48
(g69
g50
NtRp1686
(dp1687
g53
(dp1688
g80
g81
ssg62
g1677
sg55
(lp1689
S':'
asbag48
(g69
g50
NtRp1690
(dp1691
g53
(dp1692
sg62
g1677
sg55
(lp1693
g48
(g49
g50
NtRp1694
(dp1695
g53
(dp1696
g61
I4
ssg62
g1690
sg55
(lp1697
S''
asbasbasbag48
(g64
g50
NtRp1698
(dp1699
g53
(dp1700
sg62
g1082
sg55
(lp1701
g48
(g69
g50
NtRp1702
(dp1703
g53
(dp1704
g73
g74
ssg62
g1698
sg55
(lp1705
S'server_name'
p1706
asbag48
(g69
g50
NtRp1707
(dp1708
g53
(dp1709
g80
g81
ssg62
g1698
sg55
(lp1710
S':'
asbag48
(g69
g50
NtRp1711
(dp1712
g53
(dp1713
sg62
g1698
sg55
(lp1714
g48
(g49
g50
NtRp1715
(dp1716
g53
(dp1717
g61
I4
ssg62
g1711
sg55
(lp1718
S'Swing'
p1719
asbasbasbag48
(g64
g50
NtRp1720
(dp1721
g53
(dp1722
sg62
g1082
sg55
(lp1723
g48
(g69
g50
NtRp1724
(dp1725
g53
(dp1726
g73
g74
ssg62
g1720
sg55
(lp1727
S'server_port'
p1728
asbag48
(g69
g50
NtRp1729
(dp1730
g53
(dp1731
g80
g81
ssg62
g1720
sg55
(lp1732
S':'
asbag48
(g69
g50
NtRp1733
(dp1734
g53
(dp1735
sg62
g1720
sg55
(lp1736
g48
(g49
g50
NtRp1737
(dp1738
g53
(dp1739
g61
I4
ssg62
g1733
sg55
(lp1740
S'8000'
p1741
asbasbasbag48
(g64
g50
NtRp1742
(dp1743
g53
(dp1744
sg62
g1082
sg55
(lp1745
g48
(g69
g50
NtRp1746
(dp1747
g53
(dp1748
g73
g74
ssg62
g1742
sg55
(lp1749
S'server_protocol'
p1750
asbag48
(g69
g50
NtRp1751
(dp1752
g53
(dp1753
g80
g81
ssg62
g1742
sg55
(lp1754
S':'
asbag48
(g69
g50
NtRp1755
(dp1756
g53
(dp1757
sg62
g1742
sg55
(lp1758
g48
(g49
g50
NtRp1759
(dp1760
g53
(dp1761
g61
I4
ssg62
g1755
sg55
(lp1762
S'HTTP/1.1'
p1763
asbasbasbag48
(g64
g50
NtRp1764
(dp1765
g53
(dp1766
sg62
g1082
sg55
(lp1767
g48
(g69
g50
NtRp1768
(dp1769
g53
(dp1770
g73
g74
ssg62
g1764
sg55
(lp1771
S'server_software'
p1772
asbag48
(g69
g50
NtRp1773
(dp1774
g53
(dp1775
g80
g81
ssg62
g1764
sg55
(lp1776
S':'
asbag48
(g69
g50
NtRp1777
(dp1778
g53
(dp1779
sg62
g1764
sg55
(lp1780
g48
(g49
g50
NtRp1781
(dp1782
g53
(dp1783
g61
I4
ssg62
g1777
sg55
(lp1784
S'Rocket 1.2.2'
p1785
asbasbasbag48
(g64
g50
NtRp1786
(dp1787
g53
(dp1788
sg62
g1082
sg55
(lp1789
g48
(g69
g50
NtRp1790
(dp1791
g53
(dp1792
g73
g74
ssg62
g1786
sg55
(lp1793
S'web2py_crontype'
p1794
asbag48
(g69
g50
NtRp1795
(dp1796
g53
(dp1797
g80
g81
ssg62
g1786
sg55
(lp1798
S':'
asbag48
(g69
g50
NtRp1799
(dp1800
g53
(dp1801
sg62
g1786
sg55
(lp1802
g48
(g49
g50
NtRp1803
(dp1804
g53
(dp1805
g61
I4
ssg62
g1799
sg55
(lp1806
S'hard'
p1807
asbasbasbag48
(g64
g50
NtRp1808
(dp1809
g53
(dp1810
sg62
g1082
sg55
(lp1811
g48
(g69
g50
NtRp1812
(dp1813
g53
(dp1814
g73
g74
ssg62
g1808
sg55
(lp1815
S'web2py_path'
p1816
asbag48
(g69
g50
NtRp1817
(dp1818
g53
(dp1819
g80
g81
ssg62
g1808
sg55
(lp1820
S':'
asbag48
(g69
g50
NtRp1821
(dp1822
g53
(dp1823
sg62
g1808
sg55
(lp1824
g48
(g49
g50
NtRp1825
(dp1826
g53
(dp1827
g61
I4
ssg62
g1821
sg55
(lp1828
g1129
asbasbasbag48
(g64
g50
NtRp1829
(dp1830
g53
(dp1831
sg62
g1082
sg55
(lp1832
g48
(g69
g50
NtRp1833
(dp1834
g53
(dp1835
g73
g74
ssg62
g1829
sg55
(lp1836
S'web2py_version'
p1837
asbag48
(g69
g50
NtRp1838
(dp1839
g53
(dp1840
g80
g81
ssg62
g1829
sg55
(lp1841
S':'
asbag48
(g69
g50
NtRp1842
(dp1843
g53
(dp1844
sg62
g1829
sg55
(lp1845
g48
(g49
g50
NtRp1846
(dp1847
g53
(dp1848
g61
I4
ssg62
g1842
sg55
(lp1849
S'Version 1.98.2 (2011-08-04 00:47:09)\n'
p1850
asbasbasbag48
(g64
g50
NtRp1851
(dp1852
g53
(dp1853
sg62
g1082
sg55
(lp1854
g48
(g69
g50
NtRp1855
(dp1856
g53
(dp1857
g73
g74
ssg62
g1851
sg55
(lp1858
S'wsgi_errors'
p1859
asbag48
(g69
g50
NtRp1860
(dp1861
g53
(dp1862
g80
g81
ssg62
g1851
sg55
(lp1863
S':'
asbag48
(g69
g50
NtRp1864
(dp1865
g53
(dp1866
sg62
g1851
sg55
(lp1867
g48
(g49
g50
NtRp1868
(dp1869
g53
(dp1870
g61
I4
ssg62
g1864
sg55
(lp1871
S"<open file '<stderr>', mode 'w' at 0x004200B0>"
p1872
asbasbasbag48
(g64
g50
NtRp1873
(dp1874
g53
(dp1875
sg62
g1082
sg55
(lp1876
g48
(g69
g50
NtRp1877
(dp1878
g53
(dp1879
g73
g74
ssg62
g1873
sg55
(lp1880
S'wsgi_file_wrapper'
p1881
asbag48
(g69
g50
NtRp1882
(dp1883
g53
(dp1884
g80
g81
ssg62
g1873
sg55
(lp1885
S':'
asbag48
(g69
g50
NtRp1886
(dp1887
g53
(dp1888
sg62
g1873
sg55
(lp1889
g48
(g49
g50
NtRp1890
(dp1891
g53
(dp1892
g61
I4
ssg62
g1886
sg55
(lp1893
S'<class gluon.rocket.FileWrapper at 0x031911B0>'
p1894
asbasbasbag48
(g64
g50
NtRp1895
(dp1896
g53
(dp1897
sg62
g1082
sg55
(lp1898
g48
(g69
g50
NtRp1899
(dp1900
g53
(dp1901
g73
g74
ssg62
g1895
sg55
(lp1902
S'wsgi_input'
p1903
asbag48
(g69
g50
NtRp1904
(dp1905
g53
(dp1906
g80
g81
ssg62
g1895
sg55
(lp1907
S':'
asbag48
(g69
g50
NtRp1908
(dp1909
g53
(dp1910
sg62
g1895
sg55
(lp1911
g48
(g49
g50
NtRp1912
(dp1913
g53
(dp1914
g61
I4
ssg62
g1908
sg55
(lp1915
S'<socket._fileobject object at 0x082B9830>'
p1916
asbasbasbag48
(g64
g50
NtRp1917
(dp1918
g53
(dp1919
sg62
g1082
sg55
(lp1920
g48
(g69
g50
NtRp1921
(dp1922
g53
(dp1923
g73
g74
ssg62
g1917
sg55
(lp1924
S'wsgi_multiprocess'
p1925
asbag48
(g69
g50
NtRp1926
(dp1927
g53
(dp1928
g80
g81
ssg62
g1917
sg55
(lp1929
S':'
asbag48
(g69
g50
NtRp1930
(dp1931
g53
(dp1932
sg62
g1917
sg55
(lp1933
g48
(g49
g50
NtRp1934
(dp1935
g53
(dp1936
g61
I4
ssg62
g1930
sg55
(lp1937
g91
asbasbasbag48
(g64
g50
NtRp1938
(dp1939
g53
(dp1940
sg62
g1082
sg55
(lp1941
g48
(g69
g50
NtRp1942
(dp1943
g53
(dp1944
g73
g74
ssg62
g1938
sg55
(lp1945
S'wsgi_multithread'
p1946
asbag48
(g69
g50
NtRp1947
(dp1948
g53
(dp1949
g80
g81
ssg62
g1938
sg55
(lp1950
S':'
asbag48
(g69
g50
NtRp1951
(dp1952
g53
(dp1953
sg62
g1938
sg55
(lp1954
g48
(g49
g50
NtRp1955
(dp1956
g53
(dp1957
g61
I4
ssg62
g1951
sg55
(lp1958
S'True'
p1959
asbasbasbag48
(g64
g50
NtRp1960
(dp1961
g53
(dp1962
sg62
g1082
sg55
(lp1963
g48
(g69
g50
NtRp1964
(dp1965
g53
(dp1966
g73
g74
ssg62
g1960
sg55
(lp1967
S'wsgi_run_once'
p1968
asbag48
(g69
g50
NtRp1969
(dp1970
g53
(dp1971
g80
g81
ssg62
g1960
sg55
(lp1972
S':'
asbag48
(g69
g50
NtRp1973
(dp1974
g53
(dp1975
sg62
g1960
sg55
(lp1976
g48
(g49
g50
NtRp1977
(dp1978
g53
(dp1979
g61
I4
ssg62
g1973
sg55
(lp1980
g91
asbasbasbag48
(g64
g50
NtRp1981
(dp1982
g53
(dp1983
sg62
g1082
sg55
(lp1984
g48
(g69
g50
NtRp1985
(dp1986
g53
(dp1987
g73
g74
ssg62
g1981
sg55
(lp1988
S'wsgi_url_scheme'
p1989
asbag48
(g69
g50
NtRp1990
(dp1991
g53
(dp1992
g80
g81
ssg62
g1981
sg55
(lp1993
S':'
asbag48
(g69
g50
NtRp1994
(dp1995
g53
(dp1996
sg62
g1981
sg55
(lp1997
g48
(g49
g50
NtRp1998
(dp1999
g53
(dp2000
g61
I4
ssg62
g1994
sg55
(lp2001
S'http'
p2002
asbasbasbag48
(g64
g50
NtRp2003
(dp2004
g53
(dp2005
sg62
g1082
sg55
(lp2006
g48
(g69
g50
NtRp2007
(dp2008
g53
(dp2009
g73
g74
ssg62
g2003
sg55
(lp2010
S'wsgi_version'
p2011
asbag48
(g69
g50
NtRp2012
(dp2013
g53
(dp2014
g80
g81
ssg62
g2003
sg55
(lp2015
S':'
asbag48
(g69
g50
NtRp2016
(dp2017
g53
(dp2018
sg62
g2003
sg55
(lp2019
g48
(g49
g50
NtRp2020
(dp2021
g53
(dp2022
g61
I4
ssg62
g2016
sg55
(lp2023
g48
(g57
g50
NtRp2024
(dp2025
g53
(dp2026
g61
I3
ssg62
Nsg55
(lp2027
g48
(g64
g50
NtRp2028
(dp2029
g53
(dp2030
sg62
g2024
sg55
(lp2031
g48
(g69
g50
NtRp2032
(dp2033
g53
(dp2034
sg62
g2028
sg55
(lp2035
g48
(g49
g50
NtRp2036
(dp2037
g53
(dp2038
g61
I3
ssg62
g2032
sg55
(lp2039
S'1'
asbasbasbag48
(g64
g50
NtRp2040
(dp2041
g53
(dp2042
sg62
g2024
sg55
(lp2043
g48
(g69
g50
NtRp2044
(dp2045
g53
(dp2046
sg62
g2040
sg55
(lp2047
g48
(g49
g50
NtRp2048
(dp2049
g53
(dp2050
g61
I3
ssg62
g2044
sg55
(lp2051
S'0'
asbasbasbasbasbasbasbasbasbasbasbag48
(g64
g50
NtRp2052
(dp2053
g53
(dp2054
sg62
g58
sg55
(lp2055
g48
(g69
g50
NtRp2056
(dp2057
g53
(dp2058
g73
g74
ssg62
g2052
sg55
(lp2059
S'extension'
p2060
asbag48
(g69
g50
NtRp2061
(dp2062
g53
(dp2063
g80
g81
ssg62
g2052
sg55
(lp2064
S':'
asbag48
(g69
g50
NtRp2065
(dp2066
g53
(dp2067
sg62
g2052
sg55
(lp2068
g48
(g49
g50
NtRp2069
(dp2070
g53
(dp2071
g61
I5
ssg62
g2065
sg55
(lp2072
S'html'
p2073
asbasbasbag48
(g64
g50
NtRp2074
(dp2075
g53
(dp2076
sg62
g58
sg55
(lp2077
g48
(g69
g50
NtRp2078
(dp2079
g53
(dp2080
g73
g74
ssg62
g2074
sg55
(lp2081
S'folder'
p2082
asbag48
(g69
g50
NtRp2083
(dp2084
g53
(dp2085
g80
g81
ssg62
g2074
sg55
(lp2086
S':'
asbag48
(g69
g50
NtRp2087
(dp2088
g53
(dp2089
sg62
g2074
sg55
(lp2090
g48
(g49
g50
NtRp2091
(dp2092
g53
(dp2093
g61
I5
ssg62
g2087
sg55
(lp2094
S'C:\\Users\\Atomico\\web2py\\applications\\Desglosar_Emails\\'
p2095
asbasbasbag48
(g64
g50
NtRp2096
(dp2097
g53
(dp2098
sg62
g58
sg55
(lp2099
g48
(g69
g50
NtRp2100
(dp2101
g53
(dp2102
g73
g74
ssg62
g2096
sg55
(lp2103
S'function'
p2104
asbag48
(g69
g50
NtRp2105
(dp2106
g53
(dp2107
g80
g81
ssg62
g2096
sg55
(lp2108
S':'
asbag48
(g69
g50
NtRp2109
(dp2110
g53
(dp2111
sg62
g2096
sg55
(lp2112
g48
(g49
g50
NtRp2113
(dp2114
g53
(dp2115
g61
I5
ssg62
g2109
sg55
(lp2116
S'relaciones'
p2117
asbasbasbag48
(g64
g50
NtRp2118
(dp2119
g53
(dp2120
sg62
g58
sg55
(lp2121
g48
(g69
g50
NtRp2122
(dp2123
g53
(dp2124
g73
g74
ssg62
g2118
sg55
(lp2125
S'get_vars'
p2126
asbag48
(g69
g50
NtRp2127
(dp2128
g53
(dp2129
g80
g81
ssg62
g2118
sg55
(lp2130
S':'
asbag48
(g69
g50
NtRp2131
(dp2132
g53
(dp2133
sg62
g2118
sg55
(lp2134
g48
(g49
g50
NtRp2135
(dp2136
g53
(dp2137
g61
I5
ssg62
g2131
sg55
(lp2138
g48
(g57
g50
NtRp2139
(dp2140
g53
(dp2141
g61
I4
ssg62
Nsg55
(lp2142
sbasbasbasbag48
(g64
g50
NtRp2143
(dp2144
g53
(dp2145
sg62
g58
sg55
(lp2146
g48
(g69
g50
NtRp2147
(dp2148
g53
(dp2149
g73
g74
ssg62
g2143
sg55
(lp2150
S'is_https'
p2151
asbag48
(g69
g50
NtRp2152
(dp2153
g53
(dp2154
g80
g81
ssg62
g2143
sg55
(lp2155
S':'
asbag48
(g69
g50
NtRp2156
(dp2157
g53
(dp2158
sg62
g2143
sg55
(lp2159
g48
(g49
g50
NtRp2160
(dp2161
g53
(dp2162
g61
I5
ssg62
g2156
sg55
(lp2163
g91
asbasbasbag48
(g64
g50
NtRp2164
(dp2165
g53
(dp2166
sg62
g58
sg55
(lp2167
g48
(g69
g50
NtRp2168
(dp2169
g53
(dp2170
g73
g74
ssg62
g2164
sg55
(lp2171
S'is_local'
p2172
asbag48
(g69
g50
NtRp2173
(dp2174
g53
(dp2175
g80
g81
ssg62
g2164
sg55
(lp2176
S':'
asbag48
(g69
g50
NtRp2177
(dp2178
g53
(dp2179
sg62
g2164
sg55
(lp2180
g48
(g49
g50
NtRp2181
(dp2182
g53
(dp2183
g61
I5
ssg62
g2177
sg55
(lp2184
g1959
asbasbasbag48
(g64
g50
NtRp2185
(dp2186
g53
(dp2187
sg62
g58
sg55
(lp2188
g48
(g69
g50
NtRp2189
(dp2190
g53
(dp2191
g73
g74
ssg62
g2185
sg55
(lp2192
S'is_restful'
p2193
asbag48
(g69
g50
NtRp2194
(dp2195
g53
(dp2196
g80
g81
ssg62
g2185
sg55
(lp2197
S':'
asbag48
(g69
g50
NtRp2198
(dp2199
g53
(dp2200
sg62
g2185
sg55
(lp2201
g48
(g49
g50
NtRp2202
(dp2203
g53
(dp2204
g61
I5
ssg62
g2198
sg55
(lp2205
g91
asbasbasbag48
(g64
g50
NtRp2206
(dp2207
g53
(dp2208
sg62
g58
sg55
(lp2209
g48
(g69
g50
NtRp2210
(dp2211
g53
(dp2212
g73
g74
ssg62
g2206
sg55
(lp2213
S'now'
p2214
asbag48
(g69
g50
NtRp2215
(dp2216
g53
(dp2217
g80
g81
ssg62
g2206
sg55
(lp2218
S':'
asbag48
(g69
g50
NtRp2219
(dp2220
g53
(dp2221
sg62
g2206
sg55
(lp2222
g48
(g49
g50
NtRp2223
(dp2224
g53
(dp2225
g61
I5
ssg62
g2219
sg55
(lp2226
S'datetime.datetime(2011, 9, 20, 14, 15, 57, 3000)'
p2227
asbasbasbag48
(g64
g50
NtRp2228
(dp2229
g53
(dp2230
sg62
g58
sg55
(lp2231
g48
(g69
g50
NtRp2232
(dp2233
g53
(dp2234
g73
g74
ssg62
g2228
sg55
(lp2235
S'post_vars'
p2236
asbag48
(g69
g50
NtRp2237
(dp2238
g53
(dp2239
g80
g81
ssg62
g2228
sg55
(lp2240
S':'
asbag48
(g69
g50
NtRp2241
(dp2242
g53
(dp2243
sg62
g2228
sg55
(lp2244
g48
(g49
g50
NtRp2245
(dp2246
g53
(dp2247
g61
I5
ssg62
g2241
sg55
(lp2248
g48
(g57
g50
NtRp2249
(dp2250
g53
(dp2251
g61
I4
ssg62
Nsg55
(lp2252
g48
(g64
g50
NtRp2253
(dp2254
g53
(dp2255
sg62
g2249
sg55
(lp2256
g48
(g69
g50
NtRp2257
(dp2258
g53
(dp2259
g73
g74
ssg62
g2253
sg55
(lp2260
S'texto'
p2261
asbag48
(g69
g50
NtRp2262
(dp2263
g53
(dp2264
g80
g81
ssg62
g2253
sg55
(lp2265
S':'
asbag48
(g69
g50
NtRp2266
(dp2267
g53
(dp2268
sg62
g2253
sg55
(lp2269
g48
(g49
g50
NtRp2270
(dp2271
g53
(dp2272
g61
I4
ssg62
g2266
sg55
(lp2273
S'asdfadsf'
p2274
asbasbasbasbasbasbasbag48
(g64
g50
NtRp2275
(dp2276
g53
(dp2277
sg62
g58
sg55
(lp2278
g48
(g69
g50
NtRp2279
(dp2280
g53
(dp2281
g73
g74
ssg62
g2275
sg55
(lp2282
S'url'
p2283
asbag48
(g69
g50
NtRp2284
(dp2285
g53
(dp2286
g80
g81
ssg62
g2275
sg55
(lp2287
S':'
asbag48
(g69
g50
NtRp2288
(dp2289
g53
(dp2290
sg62
g2275
sg55
(lp2291
g48
(g49
g50
NtRp2292
(dp2293
g53
(dp2294
g61
I5
ssg62
g2288
sg55
(lp2295
S'/Desglosar_Emails/default/relaciones'
p2296
asbasbasbag48
(g64
g50
NtRp2297
(dp2298
g53
(dp2299
sg62
g58
sg55
(lp2300
g48
(g69
g50
NtRp2301
(dp2302
g53
(dp2303
g73
g74
ssg62
g2297
sg55
(lp2304
S'uuid'
p2305
asbag48
(g69
g50
NtRp2306
(dp2307
g53
(dp2308
g80
g81
ssg62
g2297
sg55
(lp2309
S':'
asbag48
(g69
g50
NtRp2310
(dp2311
g53
(dp2312
sg62
g2297
sg55
(lp2313
g48
(g49
g50
NtRp2314
(dp2315
g53
(dp2316
g61
I5
ssg62
g2310
sg55
(lp2317
S'Desglosar_Emails/127.0.0.1.2011-09-20.14-15-57.d0b0ab9b-c1eb-482c-8a0f-e4f2c7e7155c'
p2318
asbasbasbag48
(g64
g50
NtRp2319
(dp2320
g53
(dp2321
sg62
g58
sg55
(lp2322
g48
(g69
g50
NtRp2323
(dp2324
g53
(dp2325
g73
g74
ssg62
g2319
sg55
(lp2326
S'vars'
p2327
asbag48
(g69
g50
NtRp2328
(dp2329
g53
(dp2330
g80
g81
ssg62
g2319
sg55
(lp2331
S':'
asbag48
(g69
g50
NtRp2332
(dp2333
g53
(dp2334
sg62
g2319
sg55
(lp2335
g48
(g49
g50
NtRp2336
(dp2337
g53
(dp2338
g61
I5
ssg62
g2332
sg55
(lp2339
g48
(g57
g50
NtRp2340
(dp2341
g53
(dp2342
g61
I4
ssg62
Nsg55
(lp2343
g48
(g64
g50
NtRp2344
(dp2345
g53
(dp2346
sg62
g2340
sg55
(lp2347
g48
(g69
g50
NtRp2348
(dp2349
g53
(dp2350
g73
g74
ssg62
g2344
sg55
(lp2351
g2261
asbag48
(g69
g50
NtRp2352
(dp2353
g53
(dp2354
g80
g81
ssg62
g2344
sg55
(lp2355
S':'
asbag48
(g69
g50
NtRp2356
(dp2357
g53
(dp2358
sg62
g2344
sg55
(lp2359
g48
(g49
g50
NtRp2360
(dp2361
g53
(dp2362
g61
I4
ssg62
g2356
sg55
(lp2363
g2274
asbasbasbasbasbasbasbag48
(g64
g50
NtRp2364
(dp2365
g53
(dp2366
sg62
g58
sg55
(lp2367
g48
(g69
g50
NtRp2368
(dp2369
g53
(dp2370
g73
g74
ssg62
g2364
sg55
(lp2371
S'wsgi'
p2372
asbag48
(g69
g50
NtRp2373
(dp2374
g53
(dp2375
g80
g81
ssg62
g2364
sg55
(lp2376
S':'
asbag48
(g69
g50
NtRp2377
(dp2378
g53
(dp2379
sg62
g2364
sg55
(lp2380
g48
(g49
g50
NtRp2381
(dp2382
g53
(dp2383
g61
I5
ssg62
g2377
sg55
(lp2384
g48
(g57
g50
NtRp2385
(dp2386
g53
(dp2387
g61
I4
ssg62
Nsg55
(lp2388
g48
(g64
g50
NtRp2389
(dp2390
g53
(dp2391
sg62
g2385
sg55
(lp2392
g48
(g69
g50
NtRp2393
(dp2394
g53
(dp2395
g73
g74
ssg62
g2389
sg55
(lp2396
S'environ'
p2397
asbag48
(g69
g50
NtRp2398
(dp2399
g53
(dp2400
g80
g81
ssg62
g2389
sg55
(lp2401
S':'
asbag48
(g69
g50
NtRp2402
(dp2403
g53
(dp2404
sg62
g2389
sg55
(lp2405
g48
(g49
g50
NtRp2406
(dp2407
g53
(dp2408
g61
I4
ssg62
g2402
sg55
(lp2409
g48
(g57
g50
NtRp2410
(dp2411
g53
(dp2412
g61
I3
ssg62
Nsg55
(lp2413
g48
(g64
g50
NtRp2414
(dp2415
g53
(dp2416
sg62
g2410
sg55
(lp2417
g48
(g69
g50
NtRp2418
(dp2419
g53
(dp2420
g73
g74
ssg62
g2414
sg55
(lp2421
S'CONTENT_LENGTH'
p2422
asbag48
(g69
g50
NtRp2423
(dp2424
g53
(dp2425
g80
g81
ssg62
g2414
sg55
(lp2426
S':'
asbag48
(g69
g50
NtRp2427
(dp2428
g53
(dp2429
sg62
g2414
sg55
(lp2430
g48
(g49
g50
NtRp2431
(dp2432
g53
(dp2433
g61
I3
ssg62
g2427
sg55
(lp2434
g1198
asbasbasbag48
(g64
g50
NtRp2435
(dp2436
g53
(dp2437
sg62
g2410
sg55
(lp2438
g48
(g69
g50
NtRp2439
(dp2440
g53
(dp2441
g73
g74
ssg62
g2435
sg55
(lp2442
S'CONTENT_TYPE'
p2443
asbag48
(g69
g50
NtRp2444
(dp2445
g53
(dp2446
g80
g81
ssg62
g2435
sg55
(lp2447
S':'
asbag48
(g69
g50
NtRp2448
(dp2449
g53
(dp2450
sg62
g2435
sg55
(lp2451
g48
(g49
g50
NtRp2452
(dp2453
g53
(dp2454
g61
I3
ssg62
g2448
sg55
(lp2455
g1220
asbasbasbag48
(g64
g50
NtRp2456
(dp2457
g53
(dp2458
sg62
g2410
sg55
(lp2459
g48
(g69
g50
NtRp2460
(dp2461
g53
(dp2462
g73
g74
ssg62
g2456
sg55
(lp2463
S'HTTP_ACCEPT'
p2464
asbag48
(g69
g50
NtRp2465
(dp2466
g53
(dp2467
g80
g81
ssg62
g2456
sg55
(lp2468
S':'
asbag48
(g69
g50
NtRp2469
(dp2470
g53
(dp2471
sg62
g2456
sg55
(lp2472
g48
(g49
g50
NtRp2473
(dp2474
g53
(dp2475
g61
I3
ssg62
g2469
sg55
(lp2476
g1307
asbasbasbag48
(g64
g50
NtRp2477
(dp2478
g53
(dp2479
sg62
g2410
sg55
(lp2480
g48
(g69
g50
NtRp2481
(dp2482
g53
(dp2483
g73
g74
ssg62
g2477
sg55
(lp2484
S'HTTP_ACCEPT_CHARSET'
p2485
asbag48
(g69
g50
NtRp2486
(dp2487
g53
(dp2488
g80
g81
ssg62
g2477
sg55
(lp2489
S':'
asbag48
(g69
g50
NtRp2490
(dp2491
g53
(dp2492
sg62
g2477
sg55
(lp2493
g48
(g49
g50
NtRp2494
(dp2495
g53
(dp2496
g61
I3
ssg62
g2490
sg55
(lp2497
g1329
asbasbasbag48
(g64
g50
NtRp2498
(dp2499
g53
(dp2500
sg62
g2410
sg55
(lp2501
g48
(g69
g50
NtRp2502
(dp2503
g53
(dp2504
g73
g74
ssg62
g2498
sg55
(lp2505
S'HTTP_ACCEPT_ENCODING'
p2506
asbag48
(g69
g50
NtRp2507
(dp2508
g53
(dp2509
g80
g81
ssg62
g2498
sg55
(lp2510
S':'
asbag48
(g69
g50
NtRp2511
(dp2512
g53
(dp2513
sg62
g2498
sg55
(lp2514
g48
(g49
g50
NtRp2515
(dp2516
g53
(dp2517
g61
I3
ssg62
g2511
sg55
(lp2518
g1351
asbasbasbag48
(g64
g50
NtRp2519
(dp2520
g53
(dp2521
sg62
g2410
sg55
(lp2522
g48
(g69
g50
NtRp2523
(dp2524
g53
(dp2525
g73
g74
ssg62
g2519
sg55
(lp2526
S'HTTP_ACCEPT_LANGUAGE'
p2527
asbag48
(g69
g50
NtRp2528
(dp2529
g53
(dp2530
g80
g81
ssg62
g2519
sg55
(lp2531
S':'
asbag48
(g69
g50
NtRp2532
(dp2533
g53
(dp2534
sg62
g2519
sg55
(lp2535
g48
(g49
g50
NtRp2536
(dp2537
g53
(dp2538
g61
I3
ssg62
g2532
sg55
(lp2539
g1373
asbasbasbag48
(g64
g50
NtRp2540
(dp2541
g53
(dp2542
sg62
g2410
sg55
(lp2543
g48
(g69
g50
NtRp2544
(dp2545
g53
(dp2546
g73
g74
ssg62
g2540
sg55
(lp2547
S'HTTP_CACHE_CONTROL'
p2548
asbag48
(g69
g50
NtRp2549
(dp2550
g53
(dp2551
g80
g81
ssg62
g2540
sg55
(lp2552
S':'
asbag48
(g69
g50
NtRp2553
(dp2554
g53
(dp2555
sg62
g2540
sg55
(lp2556
g48
(g49
g50
NtRp2557
(dp2558
g53
(dp2559
g61
I3
ssg62
g2553
sg55
(lp2560
g1395
asbasbasbag48
(g64
g50
NtRp2561
(dp2562
g53
(dp2563
sg62
g2410
sg55
(lp2564
g48
(g69
g50
NtRp2565
(dp2566
g53
(dp2567
g73
g74
ssg62
g2561
sg55
(lp2568
S'HTTP_CONNECTION'
p2569
asbag48
(g69
g50
NtRp2570
(dp2571
g53
(dp2572
g80
g81
ssg62
g2561
sg55
(lp2573
S':'
asbag48
(g69
g50
NtRp2574
(dp2575
g53
(dp2576
sg62
g2561
sg55
(lp2577
g48
(g49
g50
NtRp2578
(dp2579
g53
(dp2580
g61
I3
ssg62
g2574
sg55
(lp2581
g1417
asbasbasbag48
(g64
g50
NtRp2582
(dp2583
g53
(dp2584
sg62
g2410
sg55
(lp2585
g48
(g69
g50
NtRp2586
(dp2587
g53
(dp2588
g73
g74
ssg62
g2582
sg55
(lp2589
S'HTTP_CONTENT_LENGTH'
p2590
asbag48
(g69
g50
NtRp2591
(dp2592
g53
(dp2593
g80
g81
ssg62
g2582
sg55
(lp2594
S':'
asbag48
(g69
g50
NtRp2595
(dp2596
g53
(dp2597
sg62
g2582
sg55
(lp2598
g48
(g49
g50
NtRp2599
(dp2600
g53
(dp2601
g61
I3
ssg62
g2595
sg55
(lp2602
g1198
asbasbasbag48
(g64
g50
NtRp2603
(dp2604
g53
(dp2605
sg62
g2410
sg55
(lp2606
g48
(g69
g50
NtRp2607
(dp2608
g53
(dp2609
g73
g74
ssg62
g2603
sg55
(lp2610
S'HTTP_CONTENT_TYPE'
p2611
asbag48
(g69
g50
NtRp2612
(dp2613
g53
(dp2614
g80
g81
ssg62
g2603
sg55
(lp2615
S':'
asbag48
(g69
g50
NtRp2616
(dp2617
g53
(dp2618
sg62
g2603
sg55
(lp2619
g48
(g49
g50
NtRp2620
(dp2621
g53
(dp2622
g61
I3
ssg62
g2616
sg55
(lp2623
g1220
asbasbasbag48
(g64
g50
NtRp2624
(dp2625
g53
(dp2626
sg62
g2410
sg55
(lp2627
g48
(g69
g50
NtRp2628
(dp2629
g53
(dp2630
g73
g74
ssg62
g2624
sg55
(lp2631
S'HTTP_COOKIE'
p2632
asbag48
(g69
g50
NtRp2633
(dp2634
g53
(dp2635
g80
g81
ssg62
g2624
sg55
(lp2636
S':'
asbag48
(g69
g50
NtRp2637
(dp2638
g53
(dp2639
sg62
g2624
sg55
(lp2640
g48
(g49
g50
NtRp2641
(dp2642
g53
(dp2643
g61
I3
ssg62
g2637
sg55
(lp2644
g1481
asbasbasbag48
(g64
g50
NtRp2645
(dp2646
g53
(dp2647
sg62
g2410
sg55
(lp2648
g48
(g69
g50
NtRp2649
(dp2650
g53
(dp2651
g73
g74
ssg62
g2645
sg55
(lp2652
S'HTTP_HOST'
p2653
asbag48
(g69
g50
NtRp2654
(dp2655
g53
(dp2656
g80
g81
ssg62
g2645
sg55
(lp2657
S':'
asbag48
(g69
g50
NtRp2658
(dp2659
g53
(dp2660
sg62
g2645
sg55
(lp2661
g48
(g49
g50
NtRp2662
(dp2663
g53
(dp2664
g61
I3
ssg62
g2658
sg55
(lp2665
g1503
asbasbasbag48
(g64
g50
NtRp2666
(dp2667
g53
(dp2668
sg62
g2410
sg55
(lp2669
g48
(g69
g50
NtRp2670
(dp2671
g53
(dp2672
g73
g74
ssg62
g2666
sg55
(lp2673
S'HTTP_REFERER'
p2674
asbag48
(g69
g50
NtRp2675
(dp2676
g53
(dp2677
g80
g81
ssg62
g2666
sg55
(lp2678
S':'
asbag48
(g69
g50
NtRp2679
(dp2680
g53
(dp2681
sg62
g2666
sg55
(lp2682
g48
(g49
g50
NtRp2683
(dp2684
g53
(dp2685
g61
I3
ssg62
g2679
sg55
(lp2686
g1525
asbasbasbag48
(g64
g50
NtRp2687
(dp2688
g53
(dp2689
sg62
g2410
sg55
(lp2690
g48
(g69
g50
NtRp2691
(dp2692
g53
(dp2693
g73
g74
ssg62
g2687
sg55
(lp2694
S'HTTP_USER_AGENT'
p2695
asbag48
(g69
g50
NtRp2696
(dp2697
g53
(dp2698
g80
g81
ssg62
g2687
sg55
(lp2699
S':'
asbag48
(g69
g50
NtRp2700
(dp2701
g53
(dp2702
sg62
g2687
sg55
(lp2703
g48
(g49
g50
NtRp2704
(dp2705
g53
(dp2706
g61
I3
ssg62
g2700
sg55
(lp2707
g1547
asbasbasbag48
(g64
g50
NtRp2708
(dp2709
g53
(dp2710
sg62
g2410
sg55
(lp2711
g48
(g69
g50
NtRp2712
(dp2713
g53
(dp2714
g73
g74
ssg62
g2708
sg55
(lp2715
S'PATH_INFO'
p2716
asbag48
(g69
g50
NtRp2717
(dp2718
g53
(dp2719
g80
g81
ssg62
g2708
sg55
(lp2720
S':'
asbag48
(g69
g50
NtRp2721
(dp2722
g53
(dp2723
sg62
g2708
sg55
(lp2724
g48
(g49
g50
NtRp2725
(dp2726
g53
(dp2727
g61
I3
ssg62
g2721
sg55
(lp2728
g1590
asbasbasbag48
(g64
g50
NtRp2729
(dp2730
g53
(dp2731
sg62
g2410
sg55
(lp2732
g48
(g69
g50
NtRp2733
(dp2734
g53
(dp2735
g73
g74
ssg62
g2729
sg55
(lp2736
S'QUERY_STRING'
p2737
asbag48
(g69
g50
NtRp2738
(dp2739
g53
(dp2740
g80
g81
ssg62
g2729
sg55
(lp2741
S':'
asbag48
(g69
g50
NtRp2742
(dp2743
g53
(dp2744
sg62
g2729
sg55
(lp2745
g48
(g49
g50
NtRp2746
(dp2747
g53
(dp2748
g61
I3
ssg62
g2742
sg55
(lp2749
S''
asbasbasbag48
(g64
g50
NtRp2750
(dp2751
g53
(dp2752
sg62
g2410
sg55
(lp2753
g48
(g69
g50
NtRp2754
(dp2755
g53
(dp2756
g73
g74
ssg62
g2750
sg55
(lp2757
S'REMOTE_ADDR'
p2758
asbag48
(g69
g50
NtRp2759
(dp2760
g53
(dp2761
g80
g81
ssg62
g2750
sg55
(lp2762
S':'
asbag48
(g69
g50
NtRp2763
(dp2764
g53
(dp2765
sg62
g2750
sg55
(lp2766
g48
(g49
g50
NtRp2767
(dp2768
g53
(dp2769
g61
I3
ssg62
g2763
sg55
(lp2770
g181
asbasbasbag48
(g64
g50
NtRp2771
(dp2772
g53
(dp2773
sg62
g2410
sg55
(lp2774
g48
(g69
g50
NtRp2775
(dp2776
g53
(dp2777
g73
g74
ssg62
g2771
sg55
(lp2778
S'REMOTE_PORT'
p2779
asbag48
(g69
g50
NtRp2780
(dp2781
g53
(dp2782
g80
g81
ssg62
g2771
sg55
(lp2783
S':'
asbag48
(g69
g50
NtRp2784
(dp2785
g53
(dp2786
sg62
g2771
sg55
(lp2787
g48
(g49
g50
NtRp2788
(dp2789
g53
(dp2790
g61
I3
ssg62
g2784
sg55
(lp2791
g1654
asbasbasbag48
(g64
g50
NtRp2792
(dp2793
g53
(dp2794
sg62
g2410
sg55
(lp2795
g48
(g69
g50
NtRp2796
(dp2797
g53
(dp2798
g73
g74
ssg62
g2792
sg55
(lp2799
S'REQUEST_METHOD'
p2800
asbag48
(g69
g50
NtRp2801
(dp2802
g53
(dp2803
g80
g81
ssg62
g2792
sg55
(lp2804
S':'
asbag48
(g69
g50
NtRp2805
(dp2806
g53
(dp2807
sg62
g2792
sg55
(lp2808
g48
(g49
g50
NtRp2809
(dp2810
g53
(dp2811
g61
I3
ssg62
g2805
sg55
(lp2812
g1676
asbasbasbag48
(g64
g50
NtRp2813
(dp2814
g53
(dp2815
sg62
g2410
sg55
(lp2816
g48
(g69
g50
NtRp2817
(dp2818
g53
(dp2819
g73
g74
ssg62
g2813
sg55
(lp2820
S'SCRIPT_NAME'
p2821
asbag48
(g69
g50
NtRp2822
(dp2823
g53
(dp2824
g80
g81
ssg62
g2813
sg55
(lp2825
S':'
asbag48
(g69
g50
NtRp2826
(dp2827
g53
(dp2828
sg62
g2813
sg55
(lp2829
g48
(g49
g50
NtRp2830
(dp2831
g53
(dp2832
g61
I3
ssg62
g2826
sg55
(lp2833
S''
asbasbasbag48
(g64
g50
NtRp2834
(dp2835
g53
(dp2836
sg62
g2410
sg55
(lp2837
g48
(g69
g50
NtRp2838
(dp2839
g53
(dp2840
g73
g74
ssg62
g2834
sg55
(lp2841
S'SERVER_NAME'
p2842
asbag48
(g69
g50
NtRp2843
(dp2844
g53
(dp2845
g80
g81
ssg62
g2834
sg55
(lp2846
S':'
asbag48
(g69
g50
NtRp2847
(dp2848
g53
(dp2849
sg62
g2834
sg55
(lp2850
g48
(g49
g50
NtRp2851
(dp2852
g53
(dp2853
g61
I3
ssg62
g2847
sg55
(lp2854
g1719
asbasbasbag48
(g64
g50
NtRp2855
(dp2856
g53
(dp2857
sg62
g2410
sg55
(lp2858
g48
(g69
g50
NtRp2859
(dp2860
g53
(dp2861
g73
g74
ssg62
g2855
sg55
(lp2862
S'SERVER_PORT'
p2863
asbag48
(g69
g50
NtRp2864
(dp2865
g53
(dp2866
g80
g81
ssg62
g2855
sg55
(lp2867
S':'
asbag48
(g69
g50
NtRp2868
(dp2869
g53
(dp2870
sg62
g2855
sg55
(lp2871
g48
(g49
g50
NtRp2872
(dp2873
g53
(dp2874
g61
I3
ssg62
g2868
sg55
(lp2875
g1741
asbasbasbag48
(g64
g50
NtRp2876
(dp2877
g53
(dp2878
sg62
g2410
sg55
(lp2879
g48
(g69
g50
NtRp2880
(dp2881
g53
(dp2882
g73
g74
ssg62
g2876
sg55
(lp2883
S'SERVER_PROTOCOL'
p2884
asbag48
(g69
g50
NtRp2885
(dp2886
g53
(dp2887
g80
g81
ssg62
g2876
sg55
(lp2888
S':'
asbag48
(g69
g50
NtRp2889
(dp2890
g53
(dp2891
sg62
g2876
sg55
(lp2892
g48
(g49
g50
NtRp2893
(dp2894
g53
(dp2895
g61
I3
ssg62
g2889
sg55
(lp2896
g1763
asbasbasbag48
(g64
g50
NtRp2897
(dp2898
g53
(dp2899
sg62
g2410
sg55
(lp2900
g48
(g69
g50
NtRp2901
(dp2902
g53
(dp2903
g73
g74
ssg62
g2897
sg55
(lp2904
S'SERVER_SOFTWARE'
p2905
asbag48
(g69
g50
NtRp2906
(dp2907
g53
(dp2908
g80
g81
ssg62
g2897
sg55
(lp2909
S':'
asbag48
(g69
g50
NtRp2910
(dp2911
g53
(dp2912
sg62
g2897
sg55
(lp2913
g48
(g49
g50
NtRp2914
(dp2915
g53
(dp2916
g61
I3
ssg62
g2910
sg55
(lp2917
g1785
asbasbasbag48
(g64
g50
NtRp2918
(dp2919
g53
(dp2920
sg62
g2410
sg55
(lp2921
g48
(g69
g50
NtRp2922
(dp2923
g53
(dp2924
g73
g74
ssg62
g2918
sg55
(lp2925
S'wsgi.errors'
p2926
asbag48
(g69
g50
NtRp2927
(dp2928
g53
(dp2929
g80
g81
ssg62
g2918
sg55
(lp2930
S':'
asbag48
(g69
g50
NtRp2931
(dp2932
g53
(dp2933
sg62
g2918
sg55
(lp2934
g48
(g49
g50
NtRp2935
(dp2936
g53
(dp2937
g61
I3
ssg62
g2931
sg55
(lp2938
S"<open file '<stderr>', mode 'w' at 0x004200B0>"
p2939
asbasbasbag48
(g64
g50
NtRp2940
(dp2941
g53
(dp2942
sg62
g2410
sg55
(lp2943
g48
(g69
g50
NtRp2944
(dp2945
g53
(dp2946
g73
g74
ssg62
g2940
sg55
(lp2947
S'wsgi.file_wrapper'
p2948
asbag48
(g69
g50
NtRp2949
(dp2950
g53
(dp2951
g80
g81
ssg62
g2940
sg55
(lp2952
S':'
asbag48
(g69
g50
NtRp2953
(dp2954
g53
(dp2955
sg62
g2940
sg55
(lp2956
g48
(g49
g50
NtRp2957
(dp2958
g53
(dp2959
g61
I3
ssg62
g2953
sg55
(lp2960
S'<class gluon.rocket.FileWrapper at 0x031911B0>'
p2961
asbasbasbag48
(g64
g50
NtRp2962
(dp2963
g53
(dp2964
sg62
g2410
sg55
(lp2965
g48
(g69
g50
NtRp2966
(dp2967
g53
(dp2968
g73
g74
ssg62
g2962
sg55
(lp2969
S'wsgi.input'
p2970
asbag48
(g69
g50
NtRp2971
(dp2972
g53
(dp2973
g80
g81
ssg62
g2962
sg55
(lp2974
S':'
asbag48
(g69
g50
NtRp2975
(dp2976
g53
(dp2977
sg62
g2962
sg55
(lp2978
g48
(g49
g50
NtRp2979
(dp2980
g53
(dp2981
g61
I3
ssg62
g2975
sg55
(lp2982
S"<open file '<fdopen>', mode 'w+b' at 0x07A0CD10>"
p2983
asbasbasbag48
(g64
g50
NtRp2984
(dp2985
g53
(dp2986
sg62
g2410
sg55
(lp2987
g48
(g69
g50
NtRp2988
(dp2989
g53
(dp2990
g73
g74
ssg62
g2984
sg55
(lp2991
S'wsgi.multiprocess'
p2992
asbag48
(g69
g50
NtRp2993
(dp2994
g53
(dp2995
g80
g81
ssg62
g2984
sg55
(lp2996
S':'
asbag48
(g69
g50
NtRp2997
(dp2998
g53
(dp2999
sg62
g2984
sg55
(lp3000
g48
(g49
g50
NtRp3001
(dp3002
g53
(dp3003
g61
I3
ssg62
g2997
sg55
(lp3004
g91
asbasbasbag48
(g64
g50
NtRp3005
(dp3006
g53
(dp3007
sg62
g2410
sg55
(lp3008
g48
(g69
g50
NtRp3009
(dp3010
g53
(dp3011
g73
g74
ssg62
g3005
sg55
(lp3012
S'wsgi.multithread'
p3013
asbag48
(g69
g50
NtRp3014
(dp3015
g53
(dp3016
g80
g81
ssg62
g3005
sg55
(lp3017
S':'
asbag48
(g69
g50
NtRp3018
(dp3019
g53
(dp3020
sg62
g3005
sg55
(lp3021
g48
(g49
g50
NtRp3022
(dp3023
g53
(dp3024
g61
I3
ssg62
g3018
sg55
(lp3025
g1959
asbasbasbag48
(g64
g50
NtRp3026
(dp3027
g53
(dp3028
sg62
g2410
sg55
(lp3029
g48
(g69
g50
NtRp3030
(dp3031
g53
(dp3032
g73
g74
ssg62
g3026
sg55
(lp3033
S'wsgi.run_once'
p3034
asbag48
(g69
g50
NtRp3035
(dp3036
g53
(dp3037
g80
g81
ssg62
g3026
sg55
(lp3038
S':'
asbag48
(g69
g50
NtRp3039
(dp3040
g53
(dp3041
sg62
g3026
sg55
(lp3042
g48
(g49
g50
NtRp3043
(dp3044
g53
(dp3045
g61
I3
ssg62
g3039
sg55
(lp3046
g91
asbasbasbag48
(g64
g50
NtRp3047
(dp3048
g53
(dp3049
sg62
g2410
sg55
(lp3050
g48
(g69
g50
NtRp3051
(dp3052
g53
(dp3053
g73
g74
ssg62
g3047
sg55
(lp3054
S'wsgi.url_scheme'
p3055
asbag48
(g69
g50
NtRp3056
(dp3057
g53
(dp3058
g80
g81
ssg62
g3047
sg55
(lp3059
S':'
asbag48
(g69
g50
NtRp3060
(dp3061
g53
(dp3062
sg62
g3047
sg55
(lp3063
g48
(g49
g50
NtRp3064
(dp3065
g53
(dp3066
g61
I3
ssg62
g3060
sg55
(lp3067
g2002
asbasbasbag48
(g64
g50
NtRp3068
(dp3069
g53
(dp3070
sg62
g2410
sg55
(lp3071
g48
(g69
g50
NtRp3072
(dp3073
g53
(dp3074
g73
g74
ssg62
g3068
sg55
(lp3075
S'wsgi.version'
p3076
asbag48
(g69
g50
NtRp3077
(dp3078
g53
(dp3079
g80
g81
ssg62
g3068
sg55
(lp3080
S':'
asbag48
(g69
g50
NtRp3081
(dp3082
g53
(dp3083
sg62
g3068
sg55
(lp3084
g48
(g49
g50
NtRp3085
(dp3086
g53
(dp3087
g61
I3
ssg62
g3081
sg55
(lp3088
S'1'
asbasbasbasbasbasbasbasbasbasbasbasbasbsS'frames'
p3089
(lp3090
(dp3091
S'file'
p3092
S'C:\\Users\\Atomico\\web2py\\gluon\\restricted.py'
p3093
sS'dump'
p3094
(dp3095
sS'lnum'
p3096
I192
sS'lines'
p3097
(dp3098
sS'call'
p3099
S"(code='def entrada_mod3():\\n    form=SQLFORM(db.info4)\\n ...to)\\n\\nresponse._vars=response._caller(relaciones)\\n', environment={'A': <class 'gluon.html.A'>, 'B': <class 'gluon.html.B'>, 'BEAUTIFY': <class 'gluon.html.BEAUTIFY'>, 'BODY': <class 'gluon.html.BODY'>, 'BR': <class 'gluon.html.BR'>, 'BUTTON': <class 'gluon.html.BUTTON'>, 'CAT': <class 'gluon.html.CAT'>, 'CENTER': <class 'gluon.html.CENTER'>, 'CLEANUP': <class 'gluon.validators.CLEANUP'>, 'CODE': <class 'gluon.html.CODE'>, ...}, layer=r'C:\\Users\\Atomico\\web2py\\applications\\Desglosar_Emails\\controllers/default.py')"
p3100
sS'func'
p3101
S'restricted'
p3102
sa(dp3103
g3092
S'C:\\Users\\Atomico\\web2py\\applications\\Desglosar_Emails\\controllers\\default.py'
p3104
sg3094
(dp3105
sg3096
I26
sg3097
(dp3106
I15
S"              INPUT(_type='submit'))"
p3107
sI16
S'    if form.accepts(request.vars,session):'
p3108
sI17
S'        session.argumentos=form.vars.argumentos'
p3109
sI18
S''
sI19
S"    form2=FORM(INPUT(_name='texto'),"
p3110
sI20
S"               INPUT(_type='submit'))"
p3111
sI21
S'    if form2.accepts(request.vars,session):'
p3112
sI22
S'        texto=form2.vars.texto'
p3113
sI23
S''
sI24
S"    return dict(cad='Que si',form=form,form2=form2,texto=texto)"
p3114
ssg3099
S'()'
p3115
sg3101
S'<module>'
p3116
sa(dp3117
g3092
S'C:\\Users\\Atomico\\web2py\\gluon\\globals.py'
p3118
sg3094
(dp3119
sg3096
I145
sg3097
(dp3120
sg3099
S'(f=<function relaciones at 0x082D4C70>)'
p3121
sg3101
S'<lambda>'
p3122
sa(dp3123
g3092
S'C:\\Users\\Atomico\\web2py\\applications\\Desglosar_Emails\\controllers\\default.py'
p3124
sg3094
(dp3125
sg3096
I24
sg3097
(dp3126
I15
S"              INPUT(_type='submit'))"
p3127
sI16
S'    if form.accepts(request.vars,session):'
p3128
sI17
S'        session.argumentos=form.vars.argumentos'
p3129
sI18
S''
sI19
S"    form2=FORM(INPUT(_name='texto'),"
p3130
sI20
S"               INPUT(_type='submit'))"
p3131
sI21
S'    if form2.accepts(request.vars,session):'
p3132
sI22
S'        texto=form2.vars.texto'
p3133
sI23
S''
sI24
S"    return dict(cad='Que si',form=form,form2=form2,texto=texto)"
p3134
ssg3099
S'()'
p3135
sg3101
S'relaciones'
p3136
sasS'pyver'
p3137
S'Python 2.5.4: C:\\Users\\Atomico\\web2py\\web2py.exe'
p3138
sS'session'
p3139
g48
(g49
g50
NtRp3140
(dp3141
g53
(dp3142
sg55
(lp3143
g48
(g57
g50
NtRp3144
(dp3145
g53
(dp3146
g61
I5
ssg62
Nsg55
(lp3147
g48
(g64
g50
NtRp3148
(dp3149
g53
(dp3150
sg62
g3144
sg55
(lp3151
g48
(g69
g50
NtRp3152
(dp3153
g53
(dp3154
g73
g74
ssg62
g3148
sg55
(lp3155
S'argumentos'
p3156
asbag48
(g69
g50
NtRp3157
(dp3158
g53
(dp3159
g80
g81
ssg62
g3148
sg55
(lp3160
S':'
asbag48
(g69
g50
NtRp3161
(dp3162
g53
(dp3163
sg62
g3148
sg55
(lp3164
g48
(g49
g50
NtRp3165
(dp3166
g53
(dp3167
g61
I5
ssg62
g3161
sg55
(lp3168
S''
asbasbasbag48
(g64
g50
NtRp3169
(dp3170
g53
(dp3171
sg62
g3144
sg55
(lp3172
g48
(g69
g50
NtRp3173
(dp3174
g53
(dp3175
g73
g74
ssg62
g3169
sg55
(lp3176
S'last_query'
p3177
asbag48
(g69
g50
NtRp3178
(dp3179
g53
(dp3180
g80
g81
ssg62
g3169
sg55
(lp3181
S':'
asbag48
(g69
g50
NtRp3182
(dp3183
g53
(dp3184
sg62
g3169
sg55
(lp3185
g48
(g49
g50
NtRp3186
(dp3187
g53
(dp3188
g61
I5
ssg62
g3182
sg55
(lp3189
S'db.contactos.id>0'
p3190
asbasbasbasbasbsS'etype'
p3191
S"<type 'exceptions.UnboundLocalError'>"
p3192
sS'date'
p3193
S'Tue Sep 20 14:15:57 2011'
p3194
sS'response'
p3195
g48
(g49
g50
NtRp3196
(dp3197
g53
(dp3198
sg55
(lp3199
g48
(g57
g50
NtRp3200
(dp3201
g53
(dp3202
g61
I5
ssg62
Nsg55
(lp3203
g48
(g64
g50
NtRp3204
(dp3205
g53
(dp3206
sg62
g3200
sg55
(lp3207
g48
(g69
g50
NtRp3208
(dp3209
g53
(dp3210
g73
g74
ssg62
g3204
sg55
(lp3211
g146
asbag48
(g69
g50
NtRp3212
(dp3213
g53
(dp3214
g80
g81
ssg62
g3204
sg55
(lp3215
S':'
asbag48
(g69
g50
NtRp3216
(dp3217
g53
(dp3218
sg62
g3204
sg55
(lp3219
g48
(g49
g50
NtRp3220
(dp3221
g53
(dp3222
g61
I5
ssg62
g3216
sg55
(lp3223
S'<cStringIO.StringO object at 0x07A74160>'
p3224
asbasbasbag48
(g64
g50
NtRp3225
(dp3226
g53
(dp3227
sg62
g3200
sg55
(lp3228
g48
(g69
g50
NtRp3229
(dp3230
g53
(dp3231
g73
g74
ssg62
g3225
sg55
(lp3232
g212
asbag48
(g69
g50
NtRp3233
(dp3234
g53
(dp3235
g80
g81
ssg62
g3225
sg55
(lp3236
S':'
asbag48
(g69
g50
NtRp3237
(dp3238
g53
(dp3239
sg62
g3225
sg55
(lp3240
g48
(g49
g50
NtRp3241
(dp3242
g53
(dp3243
g61
I5
ssg62
g3237
sg55
(lp3244
g48
(g57
g50
NtRp3245
(dp3246
g53
(dp3247
g61
I4
ssg62
Nsg55
(lp3248
g48
(g64
g50
NtRp3249
(dp3250
g53
(dp3251
sg62
g3245
sg55
(lp3252
g48
(g69
g50
NtRp3253
(dp3254
g53
(dp3255
g73
g74
ssg62
g3249
sg55
(lp3256
S'session_id_desglosar_emails'
p3257
asbag48
(g69
g50
NtRp3258
(dp3259
g53
(dp3260
g80
g81
ssg62
g3249
sg55
(lp3261
S':'
asbag48
(g69
g50
NtRp3262
(dp3263
g53
(dp3264
sg62
g3249
sg55
(lp3265
g48
(g49
g50
NtRp3266
(dp3267
g53
(dp3268
g61
I4
ssg62
g3262
sg55
(lp3269
g48
(g57
g50
NtRp3270
(dp3271
g53
(dp3272
g61
I3
ssg62
Nsg55
(lp3273
g48
(g64
g50
NtRp3274
(dp3275
g53
(dp3276
sg62
g3270
sg55
(lp3277
g48
(g69
g50
NtRp3278
(dp3279
g53
(dp3280
g73
g74
ssg62
g3274
sg55
(lp3281
g262
asbag48
(g69
g50
NtRp3282
(dp3283
g53
(dp3284
g80
g81
ssg62
g3274
sg55
(lp3285
S':'
asbag48
(g69
g50
NtRp3286
(dp3287
g53
(dp3288
sg62
g3274
sg55
(lp3289
g48
(g49
g50
NtRp3290
(dp3291
g53
(dp3292
g61
I3
ssg62
g3286
sg55
(lp3293
S''
asbasbasbag48
(g64
g50
NtRp3294
(dp3295
g53
(dp3296
sg62
g3270
sg55
(lp3297
g48
(g69
g50
NtRp3298
(dp3299
g53
(dp3300
g73
g74
ssg62
g3294
sg55
(lp3301
g283
asbag48
(g69
g50
NtRp3302
(dp3303
g53
(dp3304
g80
g81
ssg62
g3294
sg55
(lp3305
S':'
asbag48
(g69
g50
NtRp3306
(dp3307
g53
(dp3308
sg62
g3294
sg55
(lp3309
g48
(g49
g50
NtRp3310
(dp3311
g53
(dp3312
g61
I3
ssg62
g3306
sg55
(lp3313
S''
asbasbasbag48
(g64
g50
NtRp3314
(dp3315
g53
(dp3316
sg62
g3270
sg55
(lp3317
g48
(g69
g50
NtRp3318
(dp3319
g53
(dp3320
g73
g74
ssg62
g3314
sg55
(lp3321
g304
asbag48
(g69
g50
NtRp3322
(dp3323
g53
(dp3324
g80
g81
ssg62
g3314
sg55
(lp3325
S':'
asbag48
(g69
g50
NtRp3326
(dp3327
g53
(dp3328
sg62
g3314
sg55
(lp3329
g48
(g49
g50
NtRp3330
(dp3331
g53
(dp3332
g61
I3
ssg62
g3326
sg55
(lp3333
S''
asbasbasbag48
(g64
g50
NtRp3334
(dp3335
g53
(dp3336
sg62
g3270
sg55
(lp3337
g48
(g69
g50
NtRp3338
(dp3339
g53
(dp3340
g73
g74
ssg62
g3334
sg55
(lp3341
g325
asbag48
(g69
g50
NtRp3342
(dp3343
g53
(dp3344
g80
g81
ssg62
g3334
sg55
(lp3345
S':'
asbag48
(g69
g50
NtRp3346
(dp3347
g53
(dp3348
sg62
g3334
sg55
(lp3349
g48
(g49
g50
NtRp3350
(dp3351
g53
(dp3352
g61
I3
ssg62
g3346
sg55
(lp3353
S''
asbasbasbag48
(g64
g50
NtRp3354
(dp3355
g53
(dp3356
sg62
g3270
sg55
(lp3357
g48
(g69
g50
NtRp3358
(dp3359
g53
(dp3360
g73
g74
ssg62
g3354
sg55
(lp3361
g346
asbag48
(g69
g50
NtRp3362
(dp3363
g53
(dp3364
g80
g81
ssg62
g3354
sg55
(lp3365
S':'
asbag48
(g69
g50
NtRp3366
(dp3367
g53
(dp3368
sg62
g3354
sg55
(lp3369
g48
(g49
g50
NtRp3370
(dp3371
g53
(dp3372
g61
I3
ssg62
g3366
sg55
(lp3373
S'/'
asbasbasbag48
(g64
g50
NtRp3374
(dp3375
g53
(dp3376
sg62
g3270
sg55
(lp3377
g48
(g69
g50
NtRp3378
(dp3379
g53
(dp3380
g73
g74
ssg62
g3374
sg55
(lp3381
g367
asbag48
(g69
g50
NtRp3382
(dp3383
g53
(dp3384
g80
g81
ssg62
g3374
sg55
(lp3385
S':'
asbag48
(g69
g50
NtRp3386
(dp3387
g53
(dp3388
sg62
g3374
sg55
(lp3389
g48
(g49
g50
NtRp3390
(dp3391
g53
(dp3392
g61
I3
ssg62
g3386
sg55
(lp3393
S''
asbasbasbag48
(g64
g50
NtRp3394
(dp3395
g53
(dp3396
sg62
g3270
sg55
(lp3397
g48
(g69
g50
NtRp3398
(dp3399
g53
(dp3400
g73
g74
ssg62
g3394
sg55
(lp3401
g388
asbag48
(g69
g50
NtRp3402
(dp3403
g53
(dp3404
g80
g81
ssg62
g3394
sg55
(lp3405
S':'
asbag48
(g69
g50
NtRp3406
(dp3407
g53
(dp3408
sg62
g3394
sg55
(lp3409
g48
(g49
g50
NtRp3410
(dp3411
g53
(dp3412
g61
I3
ssg62
g3406
sg55
(lp3413
S''
asbasbasbasbasbasbasbasbasbasbasbag48
(g64
g50
NtRp3414
(dp3415
g53
(dp3416
sg62
g3200
sg55
(lp3417
g48
(g69
g50
NtRp3418
(dp3419
g53
(dp3420
g73
g74
ssg62
g3414
sg55
(lp3421
S'files'
p3422
asbag48
(g69
g50
NtRp3423
(dp3424
g53
(dp3425
g80
g81
ssg62
g3414
sg55
(lp3426
S':'
asbag48
(g69
g50
NtRp3427
(dp3428
g53
(dp3429
sg62
g3414
sg55
(lp3430
g48
(g49
g50
NtRp3431
(dp3432
g53
(dp3433
g61
I5
ssg62
g3427
sg55
(lp3434
g48
(g57
g50
NtRp3435
(dp3436
g53
(dp3437
g61
I4
ssg62
Nsg55
(lp3438
sbasbasbasbag48
(g64
g50
NtRp3439
(dp3440
g53
(dp3441
sg62
g3200
sg55
(lp3442
g48
(g69
g50
NtRp3443
(dp3444
g53
(dp3445
g73
g74
ssg62
g3439
sg55
(lp3446
S'flash'
p3447
asbag48
(g69
g50
NtRp3448
(dp3449
g53
(dp3450
g80
g81
ssg62
g3439
sg55
(lp3451
S':'
asbag48
(g69
g50
NtRp3452
(dp3453
g53
(dp3454
sg62
g3439
sg55
(lp3455
g48
(g49
g50
NtRp3456
(dp3457
g53
(dp3458
g61
I5
ssg62
g3452
sg55
(lp3459
S''
asbasbasbag48
(g64
g50
NtRp3460
(dp3461
g53
(dp3462
sg62
g3200
sg55
(lp3463
g48
(g69
g50
NtRp3464
(dp3465
g53
(dp3466
g73
g74
ssg62
g3460
sg55
(lp3467
S'generic_patterns'
p3468
asbag48
(g69
g50
NtRp3469
(dp3470
g53
(dp3471
g80
g81
ssg62
g3460
sg55
(lp3472
S':'
asbag48
(g69
g50
NtRp3473
(dp3474
g53
(dp3475
sg62
g3460
sg55
(lp3476
g48
(g49
g50
NtRp3477
(dp3478
g53
(dp3479
g61
I5
ssg62
g3473
sg55
(lp3480
g48
(g57
g50
NtRp3481
(dp3482
g53
(dp3483
g61
I4
ssg62
Nsg55
(lp3484
sbasbasbasbag48
(g64
g50
NtRp3485
(dp3486
g53
(dp3487
sg62
g3200
sg55
(lp3488
g48
(g69
g50
NtRp3489
(dp3490
g53
(dp3491
g73
g74
ssg62
g3485
sg55
(lp3492
S'headers'
p3493
asbag48
(g69
g50
NtRp3494
(dp3495
g53
(dp3496
g80
g81
ssg62
g3485
sg55
(lp3497
S':'
asbag48
(g69
g50
NtRp3498
(dp3499
g53
(dp3500
sg62
g3485
sg55
(lp3501
g48
(g49
g50
NtRp3502
(dp3503
g53
(dp3504
g61
I5
ssg62
g3498
sg55
(lp3505
g48
(g57
g50
NtRp3506
(dp3507
g53
(dp3508
g61
I4
ssg62
Nsg55
(lp3509
g48
(g64
g50
NtRp3510
(dp3511
g53
(dp3512
sg62
g3506
sg55
(lp3513
g48
(g69
g50
NtRp3514
(dp3515
g53
(dp3516
g73
g74
ssg62
g3510
sg55
(lp3517
S'Cache-Control'
p3518
asbag48
(g69
g50
NtRp3519
(dp3520
g53
(dp3521
g80
g81
ssg62
g3510
sg55
(lp3522
S':'
asbag48
(g69
g50
NtRp3523
(dp3524
g53
(dp3525
sg62
g3510
sg55
(lp3526
g48
(g49
g50
NtRp3527
(dp3528
g53
(dp3529
g61
I4
ssg62
g3523
sg55
(lp3530
S'no-store, no-cache, must-revalidate, post-check=0, pre-check=0'
p3531
asbasbasbag48
(g64
g50
NtRp3532
(dp3533
g53
(dp3534
sg62
g3506
sg55
(lp3535
g48
(g69
g50
NtRp3536
(dp3537
g53
(dp3538
g73
g74
ssg62
g3532
sg55
(lp3539
S'Content-Type'
p3540
asbag48
(g69
g50
NtRp3541
(dp3542
g53
(dp3543
g80
g81
ssg62
g3532
sg55
(lp3544
S':'
asbag48
(g69
g50
NtRp3545
(dp3546
g53
(dp3547
sg62
g3532
sg55
(lp3548
g48
(g49
g50
NtRp3549
(dp3550
g53
(dp3551
g61
I4
ssg62
g3545
sg55
(lp3552
S'text/html; charset=utf-8'
p3553
asbasbasbag48
(g64
g50
NtRp3554
(dp3555
g53
(dp3556
sg62
g3506
sg55
(lp3557
g48
(g69
g50
NtRp3558
(dp3559
g53
(dp3560
g73
g74
ssg62
g3554
sg55
(lp3561
S'Expires'
p3562
asbag48
(g69
g50
NtRp3563
(dp3564
g53
(dp3565
g80
g81
ssg62
g3554
sg55
(lp3566
S':'
asbag48
(g69
g50
NtRp3567
(dp3568
g53
(dp3569
sg62
g3554
sg55
(lp3570
g48
(g49
g50
NtRp3571
(dp3572
g53
(dp3573
g61
I4
ssg62
g3567
sg55
(lp3574
S'Tue, 20 Sep 2011 12:15:57 GMT'
p3575
asbasbasbag48
(g64
g50
NtRp3576
(dp3577
g53
(dp3578
sg62
g3506
sg55
(lp3579
g48
(g69
g50
NtRp3580
(dp3581
g53
(dp3582
g73
g74
ssg62
g3576
sg55
(lp3583
S'Pragma'
p3584
asbag48
(g69
g50
NtRp3585
(dp3586
g53
(dp3587
g80
g81
ssg62
g3576
sg55
(lp3588
S':'
asbag48
(g69
g50
NtRp3589
(dp3590
g53
(dp3591
sg62
g3576
sg55
(lp3592
g48
(g49
g50
NtRp3593
(dp3594
g53
(dp3595
g61
I4
ssg62
g3589
sg55
(lp3596
S'no-cache'
p3597
asbasbasbag48
(g64
g50
NtRp3598
(dp3599
g53
(dp3600
sg62
g3506
sg55
(lp3601
g48
(g69
g50
NtRp3602
(dp3603
g53
(dp3604
g73
g74
ssg62
g3598
sg55
(lp3605
S'X-Powered-By'
p3606
asbag48
(g69
g50
NtRp3607
(dp3608
g53
(dp3609
g80
g81
ssg62
g3598
sg55
(lp3610
S':'
asbag48
(g69
g50
NtRp3611
(dp3612
g53
(dp3613
sg62
g3598
sg55
(lp3614
g48
(g49
g50
NtRp3615
(dp3616
g53
(dp3617
g61
I4
ssg62
g3611
sg55
(lp3618
S'web2py'
p3619
asbasbasbasbasbasbasbag48
(g64
g50
NtRp3620
(dp3621
g53
(dp3622
sg62
g3200
sg55
(lp3623
g48
(g69
g50
NtRp3624
(dp3625
g53
(dp3626
g73
g74
ssg62
g3620
sg55
(lp3627
S'menu'
p3628
asbag48
(g69
g50
NtRp3629
(dp3630
g53
(dp3631
g80
g81
ssg62
g3620
sg55
(lp3632
S':'
asbag48
(g69
g50
NtRp3633
(dp3634
g53
(dp3635
sg62
g3620
sg55
(lp3636
g48
(g49
g50
NtRp3637
(dp3638
g53
(dp3639
g61
I5
ssg62
g3633
sg55
(lp3640
g48
(g57
g50
NtRp3641
(dp3642
g53
(dp3643
g61
I4
ssg62
Nsg55
(lp3644
g48
(g64
g50
NtRp3645
(dp3646
g53
(dp3647
sg62
g3641
sg55
(lp3648
g48
(g69
g50
NtRp3649
(dp3650
g53
(dp3651
sg62
g3645
sg55
(lp3652
g48
(g49
g50
NtRp3653
(dp3654
g53
(dp3655
g61
I4
ssg62
g3649
sg55
(lp3656
g48
(g57
g50
NtRp3657
(dp3658
g53
(dp3659
g61
I3
ssg62
Nsg55
(lp3660
g48
(g64
g50
NtRp3661
(dp3662
g53
(dp3663
sg62
g3657
sg55
(lp3664
g48
(g69
g50
NtRp3665
(dp3666
g53
(dp3667
sg62
g3661
sg55
(lp3668
g48
(g49
g50
NtRp3669
(dp3670
g53
(dp3671
g61
I3
ssg62
g3665
sg55
(lp3672
cgluon.languages
lazyT_unpickle
p3673
(S't\x04\x00\x00\x00Home'
tRp3674
asbasbasbag48
(g64
g50
NtRp3675
(dp3676
g53
(dp3677
sg62
g3657
sg55
(lp3678
g48
(g69
g50
NtRp3679
(dp3680
g53
(dp3681
sg62
g3675
sg55
(lp3682
g48
(g49
g50
NtRp3683
(dp3684
g53
(dp3685
g61
I3
ssg62
g3679
sg55
(lp3686
g91
asbasbasbag48
(g64
g50
NtRp3687
(dp3688
g53
(dp3689
sg62
g3657
sg55
(lp3690
g48
(g69
g50
NtRp3691
(dp3692
g53
(dp3693
sg62
g3687
sg55
(lp3694
g48
(g49
g50
NtRp3695
(dp3696
g53
(dp3697
g61
I3
ssg62
g3691
sg55
(lp3698
S'/Desglosar_Emails/default/index'
p3699
asbasbasbag48
(g64
g50
NtRp3700
(dp3701
g53
(dp3702
sg62
g3657
sg55
(lp3703
g48
(g69
g50
NtRp3704
(dp3705
g53
(dp3706
sg62
g3700
sg55
(lp3707
g48
(g49
g50
NtRp3708
(dp3709
g53
(dp3710
g61
I3
ssg62
g3704
sg55
(lp3711
g48
(g57
g50
NtRp3712
(dp3713
g53
(dp3714
g61
I2
ssg62
Nsg55
(lp3715
sbasbasbasbasbasbasbasbag48
(g64
g50
NtRp3716
(dp3717
g53
(dp3718
sg62
g3641
sg55
(lp3719
g48
(g69
g50
NtRp3720
(dp3721
g53
(dp3722
sg62
g3716
sg55
(lp3723
g48
(g49
g50
NtRp3724
(dp3725
g53
(dp3726
g61
I4
ssg62
g3720
sg55
(lp3727
g48
(g57
g50
NtRp3728
(dp3729
g53
(dp3730
g61
I3
ssg62
Nsg55
(lp3731
g48
(g64
g50
NtRp3732
(dp3733
g53
(dp3734
sg62
g3728
sg55
(lp3735
g48
(g69
g50
NtRp3736
(dp3737
g53
(dp3738
sg62
g3732
sg55
(lp3739
g48
(g49
g50
NtRp3740
(dp3741
g53
(dp3742
g61
I3
ssg62
g3736
sg55
(lp3743
g3673
(S's\x08\x00\x00\x00This App'
tRp3744
asbasbasbag48
(g64
g50
NtRp3745
(dp3746
g53
(dp3747
sg62
g3728
sg55
(lp3748
g48
(g69
g50
NtRp3749
(dp3750
g53
(dp3751
sg62
g3745
sg55
(lp3752
g48
(g49
g50
NtRp3753
(dp3754
g53
(dp3755
g61
I3
ssg62
g3749
sg55
(lp3756
g91
asbasbasbag48
(g64
g50
NtRp3757
(dp3758
g53
(dp3759
sg62
g3728
sg55
(lp3760
g48
(g69
g50
NtRp3761
(dp3762
g53
(dp3763
sg62
g3757
sg55
(lp3764
g48
(g49
g50
NtRp3765
(dp3766
g53
(dp3767
g61
I3
ssg62
g3761
sg55
(lp3768
S'/admin/default/design/Desglosar_Emails'
p3769
asbasbasbag48
(g64
g50
NtRp3770
(dp3771
g53
(dp3772
sg62
g3728
sg55
(lp3773
g48
(g69
g50
NtRp3774
(dp3775
g53
(dp3776
sg62
g3770
sg55
(lp3777
g48
(g49
g50
NtRp3778
(dp3779
g53
(dp3780
g61
I3
ssg62
g3774
sg55
(lp3781
g48
(g57
g50
NtRp3782
(dp3783
g53
(dp3784
g61
I2
ssg62
Nsg55
(lp3785
g48
(g64
g50
NtRp3786
(dp3787
g53
(dp3788
sg62
g3782
sg55
(lp3789
g48
(g69
g50
NtRp3790
(dp3791
g53
(dp3792
sg62
g3786
sg55
(lp3793
g48
(g49
g50
NtRp3794
(dp3795
g53
(dp3796
g61
I2
ssg62
g3790
sg55
(lp3797
g48
(g57
g50
NtRp3798
(dp3799
g53
(dp3800
g61
I1
ssg62
Nsg55
(lp3801
g48
(g64
g50
NtRp3802
(dp3803
g53
(dp3804
sg62
g3798
sg55
(lp3805
g48
(g69
g50
NtRp3806
(dp3807
g53
(dp3808
sg62
g3802
sg55
(lp3809
g48
(g49
g50
NtRp3810
(dp3811
g53
(dp3812
g61
I1
ssg62
g3806
sg55
(lp3813
g3673
(S't\x0b\x00\x00\x00Controlador'
tRp3814
asbasbasbag48
(g64
g50
NtRp3815
(dp3816
g53
(dp3817
sg62
g3798
sg55
(lp3818
g48
(g69
g50
NtRp3819
(dp3820
g53
(dp3821
sg62
g3815
sg55
(lp3822
g48
(g49
g50
NtRp3823
(dp3824
g53
(dp3825
g61
I1
ssg62
g3819
sg55
(lp3826
I00
asbasbasbag48
(g64
g50
NtRp3827
(dp3828
g53
(dp3829
sg62
g3798
sg55
(lp3830
g48
(g69
g50
NtRp3831
(dp3832
g53
(dp3833
sg62
g3827
sg55
(lp3834
g48
(g49
g50
NtRp3835
(dp3836
g53
(dp3837
g61
I1
ssg62
g3831
sg55
(lp3838
S'/admin/default/edit/Desglosar_Emails/controllers/default.py'
p3839
asbasbasbasbasbasbasbag48
(g64
g50
NtRp3840
(dp3841
g53
(dp3842
sg62
g3782
sg55
(lp3843
g48
(g69
g50
NtRp3844
(dp3845
g53
(dp3846
sg62
g3840
sg55
(lp3847
g48
(g49
g50
NtRp3848
(dp3849
g53
(dp3850
g61
I2
ssg62
g3844
sg55
(lp3851
g48
(g57
g50
NtRp3852
(dp3853
g53
(dp3854
g61
I1
ssg62
Nsg55
(lp3855
g48
(g64
g50
NtRp3856
(dp3857
g53
(dp3858
sg62
g3852
sg55
(lp3859
g48
(g69
g50
NtRp3860
(dp3861
g53
(dp3862
sg62
g3856
sg55
(lp3863
g48
(g49
g50
NtRp3864
(dp3865
g53
(dp3866
g61
I1
ssg62
g3860
sg55
(lp3867
g3673
(S't\x05\x00\x00\x00Vista'
tRp3868
asbasbasbag48
(g64
g50
NtRp3869
(dp3870
g53
(dp3871
sg62
g3852
sg55
(lp3872
g48
(g69
g50
NtRp3873
(dp3874
g53
(dp3875
sg62
g3869
sg55
(lp3876
g48
(g49
g50
NtRp3877
(dp3878
g53
(dp3879
g61
I1
ssg62
g3873
sg55
(lp3880
I00
asbasbasbag48
(g64
g50
NtRp3881
(dp3882
g53
(dp3883
sg62
g3852
sg55
(lp3884
g48
(g69
g50
NtRp3885
(dp3886
g53
(dp3887
sg62
g3881
sg55
(lp3888
g48
(g49
g50
NtRp3889
(dp3890
g53
(dp3891
g61
I1
ssg62
g3885
sg55
(lp3892
S'/admin/default/edit/Desglosar_Emails/views/default/relaciones.html'
p3893
asbasbasbasbasbasbasbag48
(g64
g50
NtRp3894
(dp3895
g53
(dp3896
sg62
g3782
sg55
(lp3897
g48
(g69
g50
NtRp3898
(dp3899
g53
(dp3900
sg62
g3894
sg55
(lp3901
g48
(g49
g50
NtRp3902
(dp3903
g53
(dp3904
g61
I2
ssg62
g3898
sg55
(lp3905
g48
(g57
g50
NtRp3906
(dp3907
g53
(dp3908
g61
I1
ssg62
Nsg55
(lp3909
g48
(g64
g50
NtRp3910
(dp3911
g53
(dp3912
sg62
g3906
sg55
(lp3913
g48
(g69
g50
NtRp3914
(dp3915
g53
(dp3916
sg62
g3910
sg55
(lp3917
g48
(g49
g50
NtRp3918
(dp3919
g53
(dp3920
g61
I1
ssg62
g3914
sg55
(lp3921
g3673
(S's\x12\x00\x00\x00Dise\xc3\xb1o de p\xc3\xa1gina'
tRp3922
asbasbasbag48
(g64
g50
NtRp3923
(dp3924
g53
(dp3925
sg62
g3906
sg55
(lp3926
g48
(g69
g50
NtRp3927
(dp3928
g53
(dp3929
sg62
g3923
sg55
(lp3930
g48
(g49
g50
NtRp3931
(dp3932
g53
(dp3933
g61
I1
ssg62
g3927
sg55
(lp3934
I00
asbasbasbag48
(g64
g50
NtRp3935
(dp3936
g53
(dp3937
sg62
g3906
sg55
(lp3938
g48
(g69
g50
NtRp3939
(dp3940
g53
(dp3941
sg62
g3935
sg55
(lp3942
g48
(g49
g50
NtRp3943
(dp3944
g53
(dp3945
g61
I1
ssg62
g3939
sg55
(lp3946
S'/admin/default/edit/Desglosar_Emails/views/layout.html'
p3947
asbasbasbasbasbasbasbag48
(g64
g50
NtRp3948
(dp3949
g53
(dp3950
sg62
g3782
sg55
(lp3951
g48
(g69
g50
NtRp3952
(dp3953
g53
(dp3954
sg62
g3948
sg55
(lp3955
g48
(g49
g50
NtRp3956
(dp3957
g53
(dp3958
g61
I2
ssg62
g3952
sg55
(lp3959
g48
(g57
g50
NtRp3960
(dp3961
g53
(dp3962
g61
I1
ssg62
Nsg55
(lp3963
g48
(g64
g50
NtRp3964
(dp3965
g53
(dp3966
sg62
g3960
sg55
(lp3967
g48
(g69
g50
NtRp3968
(dp3969
g53
(dp3970
sg62
g3964
sg55
(lp3971
g48
(g49
g50
NtRp3972
(dp3973
g53
(dp3974
g61
I1
ssg62
g3968
sg55
(lp3975
g3673
(S's\x0e\x00\x00\x00Hoja de estilo'
tRp3976
asbasbasbag48
(g64
g50
NtRp3977
(dp3978
g53
(dp3979
sg62
g3960
sg55
(lp3980
g48
(g69
g50
NtRp3981
(dp3982
g53
(dp3983
sg62
g3977
sg55
(lp3984
g48
(g49
g50
NtRp3985
(dp3986
g53
(dp3987
g61
I1
ssg62
g3981
sg55
(lp3988
I00
asbasbasbag48
(g64
g50
NtRp3989
(dp3990
g53
(dp3991
sg62
g3960
sg55
(lp3992
g48
(g69
g50
NtRp3993
(dp3994
g53
(dp3995
sg62
g3989
sg55
(lp3996
g48
(g49
g50
NtRp3997
(dp3998
g53
(dp3999
g61
I1
ssg62
g3993
sg55
(lp4000
S'/admin/default/edit/Desglosar_Emails/static/base.css'
p4001
asbasbasbasbasbasbasbag48
(g64
g50
NtRp4002
(dp4003
g53
(dp4004
sg62
g3782
sg55
(lp4005
g48
(g69
g50
NtRp4006
(dp4007
g53
(dp4008
sg62
g4002
sg55
(lp4009
g48
(g49
g50
NtRp4010
(dp4011
g53
(dp4012
g61
I2
ssg62
g4006
sg55
(lp4013
g48
(g57
g50
NtRp4014
(dp4015
g53
(dp4016
g61
I1
ssg62
Nsg55
(lp4017
g48
(g64
g50
NtRp4018
(dp4019
g53
(dp4020
sg62
g4014
sg55
(lp4021
g48
(g69
g50
NtRp4022
(dp4023
g53
(dp4024
sg62
g4018
sg55
(lp4025
g48
(g49
g50
NtRp4026
(dp4027
g53
(dp4028
g61
I1
ssg62
g4022
sg55
(lp4029
g3673
(S's\x0b\x00\x00\x00Modelo "db"'
tRp4030
asbasbasbag48
(g64
g50
NtRp4031
(dp4032
g53
(dp4033
sg62
g4014
sg55
(lp4034
g48
(g69
g50
NtRp4035
(dp4036
g53
(dp4037
sg62
g4031
sg55
(lp4038
g48
(g49
g50
NtRp4039
(dp4040
g53
(dp4041
g61
I1
ssg62
g4035
sg55
(lp4042
I00
asbasbasbag48
(g64
g50
NtRp4043
(dp4044
g53
(dp4045
sg62
g4014
sg55
(lp4046
g48
(g69
g50
NtRp4047
(dp4048
g53
(dp4049
sg62
g4043
sg55
(lp4050
g48
(g49
g50
NtRp4051
(dp4052
g53
(dp4053
g61
I1
ssg62
g4047
sg55
(lp4054
S'/admin/default/edit/Desglosar_Emails/models/db.py'
p4055
asbasbasbasbasbasbasbag48
(g64
g50
NtRp4056
(dp4057
g53
(dp4058
sg62
g3782
sg55
(lp4059
g48
(g69
g50
NtRp4060
(dp4061
g53
(dp4062
sg62
g4056
sg55
(lp4063
g48
(g49
g50
NtRp4064
(dp4065
g53
(dp4066
g61
I2
ssg62
g4060
sg55
(lp4067
g48
(g57
g50
NtRp4068
(dp4069
g53
(dp4070
g61
I1
ssg62
Nsg55
(lp4071
g48
(g64
g50
NtRp4072
(dp4073
g53
(dp4074
sg62
g4068
sg55
(lp4075
g48
(g69
g50
NtRp4076
(dp4077
g53
(dp4078
sg62
g4072
sg55
(lp4079
g48
(g49
g50
NtRp4080
(dp4081
g53
(dp4082
g61
I1
ssg62
g4076
sg55
(lp4083
g3673
(S's\r\x00\x00\x00Modelo "menu"'
tRp4084
asbasbasbag48
(g64
g50
NtRp4085
(dp4086
g53
(dp4087
sg62
g4068
sg55
(lp4088
g48
(g69
g50
NtRp4089
(dp4090
g53
(dp4091
sg62
g4085
sg55
(lp4092
g48
(g49
g50
NtRp4093
(dp4094
g53
(dp4095
g61
I1
ssg62
g4089
sg55
(lp4096
I00
asbasbasbag48
(g64
g50
NtRp4097
(dp4098
g53
(dp4099
sg62
g4068
sg55
(lp4100
g48
(g69
g50
NtRp4101
(dp4102
g53
(dp4103
sg62
g4097
sg55
(lp4104
g48
(g49
g50
NtRp4105
(dp4106
g53
(dp4107
g61
I1
ssg62
g4101
sg55
(lp4108
S'/admin/default/edit/Desglosar_Emails/models/menu.py'
p4109
asbasbasbasbasbasbasbag48
(g64
g50
NtRp4110
(dp4111
g53
(dp4112
sg62
g3782
sg55
(lp4113
g48
(g69
g50
NtRp4114
(dp4115
g53
(dp4116
sg62
g4110
sg55
(lp4117
g48
(g49
g50
NtRp4118
(dp4119
g53
(dp4120
g61
I2
ssg62
g4114
sg55
(lp4121
g48
(g57
g50
NtRp4122
(dp4123
g53
(dp4124
g61
I1
ssg62
Nsg55
(lp4125
g48
(g64
g50
NtRp4126
(dp4127
g53
(dp4128
sg62
g4122
sg55
(lp4129
g48
(g69
g50
NtRp4130
(dp4131
g53
(dp4132
sg62
g4126
sg55
(lp4133
g48
(g49
g50
NtRp4134
(dp4135
g53
(dp4136
g61
I1
ssg62
g4130
sg55
(lp4137
g3673
(S's\r\x00\x00\x00Base de datos'
tRp4138
asbasbasbag48
(g64
g50
NtRp4139
(dp4140
g53
(dp4141
sg62
g4122
sg55
(lp4142
g48
(g69
g50
NtRp4143
(dp4144
g53
(dp4145
sg62
g4139
sg55
(lp4146
g48
(g49
g50
NtRp4147
(dp4148
g53
(dp4149
g61
I1
ssg62
g4143
sg55
(lp4150
I00
asbasbasbag48
(g64
g50
NtRp4151
(dp4152
g53
(dp4153
sg62
g4122
sg55
(lp4154
g48
(g69
g50
NtRp4155
(dp4156
g53
(dp4157
sg62
g4151
sg55
(lp4158
g48
(g49
g50
NtRp4159
(dp4160
g53
(dp4161
g61
I1
ssg62
g4155
sg55
(lp4162
S'/Desglosar_Emails/appadmin/index'
p4163
asbasbasbasbasbasbasbag48
(g64
g50
NtRp4164
(dp4165
g53
(dp4166
sg62
g3782
sg55
(lp4167
g48
(g69
g50
NtRp4168
(dp4169
g53
(dp4170
sg62
g4164
sg55
(lp4171
g48
(g49
g50
NtRp4172
(dp4173
g53
(dp4174
g61
I2
ssg62
g4168
sg55
(lp4175
g48
(g57
g50
NtRp4176
(dp4177
g53
(dp4178
g61
I1
ssg62
Nsg55
(lp4179
g48
(g64
g50
NtRp4180
(dp4181
g53
(dp4182
sg62
g4176
sg55
(lp4183
g48
(g69
g50
NtRp4184
(dp4185
g53
(dp4186
sg62
g4180
sg55
(lp4187
g48
(g49
g50
NtRp4188
(dp4189
g53
(dp4190
g61
I1
ssg62
g4184
sg55
(lp4191
g3673
(S't\x06\x00\x00\x00Errors'
tRp4192
asbasbasbag48
(g64
g50
NtRp4193
(dp4194
g53
(dp4195
sg62
g4176
sg55
(lp4196
g48
(g69
g50
NtRp4197
(dp4198
g53
(dp4199
sg62
g4193
sg55
(lp4200
g48
(g49
g50
NtRp4201
(dp4202
g53
(dp4203
g61
I1
ssg62
g4197
sg55
(lp4204
I00
asbasbasbag48
(g64
g50
NtRp4205
(dp4206
g53
(dp4207
sg62
g4176
sg55
(lp4208
g48
(g69
g50
NtRp4209
(dp4210
g53
(dp4211
sg62
g4205
sg55
(lp4212
g48
(g49
g50
NtRp4213
(dp4214
g53
(dp4215
g61
I1
ssg62
g4209
sg55
(lp4216
S'/admin/default/errors/Desglosar_Emails'
p4217
asbasbasbasbasbasbasbag48
(g64
g50
NtRp4218
(dp4219
g53
(dp4220
sg62
g3782
sg55
(lp4221
g48
(g69
g50
NtRp4222
(dp4223
g53
(dp4224
sg62
g4218
sg55
(lp4225
g48
(g49
g50
NtRp4226
(dp4227
g53
(dp4228
g61
I2
ssg62
g4222
sg55
(lp4229
g48
(g57
g50
NtRp4230
(dp4231
g53
(dp4232
g61
I1
ssg62
Nsg55
(lp4233
g48
(g64
g50
NtRp4234
(dp4235
g53
(dp4236
sg62
g4230
sg55
(lp4237
g48
(g69
g50
NtRp4238
(dp4239
g53
(dp4240
sg62
g4234
sg55
(lp4241
g48
(g49
g50
NtRp4242
(dp4243
g53
(dp4244
g61
I1
ssg62
g4238
sg55
(lp4245
g3673
(S's\t\x00\x00\x00Acerca de'
tRp4246
asbasbasbag48
(g64
g50
NtRp4247
(dp4248
g53
(dp4249
sg62
g4230
sg55
(lp4250
g48
(g69
g50
NtRp4251
(dp4252
g53
(dp4253
sg62
g4247
sg55
(lp4254
g48
(g49
g50
NtRp4255
(dp4256
g53
(dp4257
g61
I1
ssg62
g4251
sg55
(lp4258
I00
asbasbasbag48
(g64
g50
NtRp4259
(dp4260
g53
(dp4261
sg62
g4230
sg55
(lp4262
g48
(g69
g50
NtRp4263
(dp4264
g53
(dp4265
sg62
g4259
sg55
(lp4266
g48
(g49
g50
NtRp4267
(dp4268
g53
(dp4269
g61
I1
ssg62
g4263
sg55
(lp4270
S'/admin/default/about/Desglosar_Emails'
p4271
asbasbasbasbasbasbasbasbasbasbasbasbasbasbasbag48
(g64
g50
NtRp4272
(dp4273
g53
(dp4274
sg62
g3641
sg55
(lp4275
g48
(g69
g50
NtRp4276
(dp4277
g53
(dp4278
sg62
g4272
sg55
(lp4279
g48
(g49
g50
NtRp4280
(dp4281
g53
(dp4282
g61
I4
ssg62
g4276
sg55
(lp4283
g48
(g57
g50
NtRp4284
(dp4285
g53
(dp4286
g61
I3
ssg62
Nsg55
(lp4287
g48
(g64
g50
NtRp4288
(dp4289
g53
(dp4290
sg62
g4284
sg55
(lp4291
g48
(g69
g50
NtRp4292
(dp4293
g53
(dp4294
sg62
g4288
sg55
(lp4295
g48
(g49
g50
NtRp4296
(dp4297
g53
(dp4298
g61
I3
ssg62
g4292
sg55
(lp4299
g3673
(S't\t\x00\x00\x00Resources'
tRp4300
asbasbasbag48
(g64
g50
NtRp4301
(dp4302
g53
(dp4303
sg62
g4284
sg55
(lp4304
g48
(g69
g50
NtRp4305
(dp4306
g53
(dp4307
sg62
g4301
sg55
(lp4308
g48
(g49
g50
NtRp4309
(dp4310
g53
(dp4311
g61
I3
ssg62
g4305
sg55
(lp4312
g91
asbasbasbag48
(g64
g50
NtRp4313
(dp4314
g53
(dp4315
sg62
g4284
sg55
(lp4316
g48
(g69
g50
NtRp4317
(dp4318
g53
(dp4319
sg62
g4313
sg55
(lp4320
g48
(g49
g50
NtRp4321
(dp4322
g53
(dp4323
g61
I3
ssg62
g4317
sg55
(lp4324
S'None'
p4325
asbasbasbag48
(g64
g50
NtRp4326
(dp4327
g53
(dp4328
sg62
g4284
sg55
(lp4329
g48
(g69
g50
NtRp4330
(dp4331
g53
(dp4332
sg62
g4326
sg55
(lp4333
g48
(g49
g50
NtRp4334
(dp4335
g53
(dp4336
g61
I3
ssg62
g4330
sg55
(lp4337
g48
(g57
g50
NtRp4338
(dp4339
g53
(dp4340
g61
I2
ssg62
Nsg55
(lp4341
g48
(g64
g50
NtRp4342
(dp4343
g53
(dp4344
sg62
g4338
sg55
(lp4345
g48
(g69
g50
NtRp4346
(dp4347
g53
(dp4348
sg62
g4342
sg55
(lp4349
g48
(g49
g50
NtRp4350
(dp4351
g53
(dp4352
g61
I2
ssg62
g4346
sg55
(lp4353
g48
(g57
g50
NtRp4354
(dp4355
g53
(dp4356
g61
I1
ssg62
Nsg55
(lp4357
g48
(g64
g50
NtRp4358
(dp4359
g53
(dp4360
sg62
g4354
sg55
(lp4361
g48
(g69
g50
NtRp4362
(dp4363
g53
(dp4364
sg62
g4358
sg55
(lp4365
g48
(g49
g50
NtRp4366
(dp4367
g53
(dp4368
g61
I1
ssg62
g4362
sg55
(lp4369
g3673
(S's\x0e\x00\x00\x00Documentaci\xc3\xb3n'
tRp4370
asbasbasbag48
(g64
g50
NtRp4371
(dp4372
g53
(dp4373
sg62
g4354
sg55
(lp4374
g48
(g69
g50
NtRp4375
(dp4376
g53
(dp4377
sg62
g4371
sg55
(lp4378
g48
(g49
g50
NtRp4379
(dp4380
g53
(dp4381
g61
I1
ssg62
g4375
sg55
(lp4382
I00
asbasbasbag48
(g64
g50
NtRp4383
(dp4384
g53
(dp4385
sg62
g4354
sg55
(lp4386
g48
(g69
g50
NtRp4387
(dp4388
g53
(dp4389
sg62
g4383
sg55
(lp4390
g48
(g49
g50
NtRp4391
(dp4392
g53
(dp4393
g61
I1
ssg62
g4387
sg55
(lp4394
S'http://www.web2py.com/book'
p4395
asbasbasbag48
(g64
g50
NtRp4396
(dp4397
g53
(dp4398
sg62
g4354
sg55
(lp4399
g48
(g69
g50
NtRp4400
(dp4401
g53
(dp4402
sg62
g4396
sg55
(lp4403
g48
(g49
g50
NtRp4404
(dp4405
g53
(dp4406
g61
I1
ssg62
g4400
sg55
(lp4407
(lp4408
(g3673
(S't\x07\x00\x00\x00Preface'
tRp4409
I00
S'http://www.web2py.com/book/default/chapter/00'
tp4410
a(g3673
(S't\x0c\x00\x00\x00Introduction'
tRp4411
I00
S'http://www.web2py.com/book/default/chapter/01'
tp4412
a(g3673
(S't\x06\x00\x00\x00Python'
tRp4413
I00
S'http://www.web2py.com/book/default/chapter/02'
tp4414
a(g3673
(S't\x08\x00\x00\x00Overview'
tRp4415
I00
S'http://www.web2py.com/book/default/chapter/03'
tp4416
a(g3673
(S's\x08\x00\x00\x00The Core'
tRp4417
I00
S'http://www.web2py.com/book/default/chapter/04'
tp4418
a(g3673
(S's\t\x00\x00\x00The Views'
tRp4419
I00
S'http://www.web2py.com/book/default/chapter/05'
tp4420
a(g3673
(S's\r\x00\x00\x00Base de datos'
tRp4421
I00
S'http://www.web2py.com/book/default/chapter/06'
tp4422
a(g3673
(S's\x14\x00\x00\x00Forms and Validators'
tRp4423
I00
S'http://www.web2py.com/book/default/chapter/07'
tp4424
a(g3673
(S's\x0e\x00\x00\x00Access Control'
tRp4425
I00
S'http://www.web2py.com/book/default/chapter/08'
tp4426
a(g3673
(S't\x08\x00\x00\x00Services'
tRp4427
I00
S'http://www.web2py.com/book/default/chapter/09'
tp4428
a(g3673
(S's\x0c\x00\x00\x00Ajax Recipes'
tRp4429
I00
S'http://www.web2py.com/book/default/chapter/10'
tp4430
a(g3673
(S's\x12\x00\x00\x00Deployment Recipes'
tRp4431
I00
S'http://www.web2py.com/book/default/chapter/11'
tp4432
a(g3673
(S's\r\x00\x00\x00Other Recipes'
tRp4433
I00
S'http://www.web2py.com/book/default/chapter/12'
tp4434
a(g3673
(S's\r\x00\x00\x00Buy this book'
tRp4435
I00
S'http://stores.lulu.com/web2py'
tp4436
aasbasbasbasbasbasbasbag48
(g64
g50
NtRp4437
(dp4438
g53
(dp4439
sg62
g4338
sg55
(lp4440
g48
(g69
g50
NtRp4441
(dp4442
g53
(dp4443
sg62
g4437
sg55
(lp4444
g48
(g49
g50
NtRp4445
(dp4446
g53
(dp4447
g61
I2
ssg62
g4441
sg55
(lp4448
g48
(g57
g50
NtRp4449
(dp4450
g53
(dp4451
g61
I1
ssg62
Nsg55
(lp4452
g48
(g64
g50
NtRp4453
(dp4454
g53
(dp4455
sg62
g4449
sg55
(lp4456
g48
(g69
g50
NtRp4457
(dp4458
g53
(dp4459
sg62
g4453
sg55
(lp4460
g48
(g49
g50
NtRp4461
(dp4462
g53
(dp4463
g61
I1
ssg62
g4457
sg55
(lp4464
g3673
(S't\t\x00\x00\x00Community'
tRp4465
asbasbasbag48
(g64
g50
NtRp4466
(dp4467
g53
(dp4468
sg62
g4449
sg55
(lp4469
g48
(g69
g50
NtRp4470
(dp4471
g53
(dp4472
sg62
g4466
sg55
(lp4473
g48
(g49
g50
NtRp4474
(dp4475
g53
(dp4476
g61
I1
ssg62
g4470
sg55
(lp4477
I00
asbasbasbag48
(g64
g50
NtRp4478
(dp4479
g53
(dp4480
sg62
g4449
sg55
(lp4481
g48
(g69
g50
NtRp4482
(dp4483
g53
(dp4484
sg62
g4478
sg55
(lp4485
g48
(g49
g50
NtRp4486
(dp4487
g53
(dp4488
g61
I1
ssg62
g4482
sg55
(lp4489
Nasbasbasbag48
(g64
g50
NtRp4490
(dp4491
g53
(dp4492
sg62
g4449
sg55
(lp4493
g48
(g69
g50
NtRp4494
(dp4495
g53
(dp4496
sg62
g4490
sg55
(lp4497
g48
(g49
g50
NtRp4498
(dp4499
g53
(dp4500
g61
I1
ssg62
g4494
sg55
(lp4501
(lp4502
(g3673
(S't\x06\x00\x00\x00Groups'
tRp4503
I00
S'http://www.web2py.com/examples/default/usergroups'
tp4504
a(g3673
(S't\x07\x00\x00\x00Twitter'
tRp4505
I00
S'http://twitter.com/web2py'
tp4506
a(g3673
(S's\t\x00\x00\x00Live chat'
tRp4507
I00
S'http://mibbit.com/?channel=%23web2py&server=irc.mibbit.net'
tp4508
a(g3673
(S's\n\x00\x00\x00User Voice'
tRp4509
I00
S'http://web2py.uservoice.com/'
tp4510
aasbasbasbasbasbasbasbag48
(g64
g50
NtRp4511
(dp4512
g53
(dp4513
sg62
g4338
sg55
(lp4514
g48
(g69
g50
NtRp4515
(dp4516
g53
(dp4517
sg62
g4511
sg55
(lp4518
g48
(g49
g50
NtRp4519
(dp4520
g53
(dp4521
g61
I2
ssg62
g4515
sg55
(lp4522
g48
(g57
g50
NtRp4523
(dp4524
g53
(dp4525
g61
I1
ssg62
Nsg55
(lp4526
g48
(g64
g50
NtRp4527
(dp4528
g53
(dp4529
sg62
g4523
sg55
(lp4530
g48
(g69
g50
NtRp4531
(dp4532
g53
(dp4533
sg62
g4527
sg55
(lp4534
g48
(g49
g50
NtRp4535
(dp4536
g53
(dp4537
g61
I1
ssg62
g4531
sg55
(lp4538
g3673
(S't\x06\x00\x00\x00Web2py'
tRp4539
asbasbasbag48
(g64
g50
NtRp4540
(dp4541
g53
(dp4542
sg62
g4523
sg55
(lp4543
g48
(g69
g50
NtRp4544
(dp4545
g53
(dp4546
sg62
g4540
sg55
(lp4547
g48
(g49
g50
NtRp4548
(dp4549
g53
(dp4550
g61
I1
ssg62
g4544
sg55
(lp4551
I00
asbasbasbag48
(g64
g50
NtRp4552
(dp4553
g53
(dp4554
sg62
g4523
sg55
(lp4555
g48
(g69
g50
NtRp4556
(dp4557
g53
(dp4558
sg62
g4552
sg55
(lp4559
g48
(g49
g50
NtRp4560
(dp4561
g53
(dp4562
g61
I1
ssg62
g4556
sg55
(lp4563
S'http://www.web2py.com'
p4564
asbasbasbag48
(g64
g50
NtRp4565
(dp4566
g53
(dp4567
sg62
g4523
sg55
(lp4568
g48
(g69
g50
NtRp4569
(dp4570
g53
(dp4571
sg62
g4565
sg55
(lp4572
g48
(g49
g50
NtRp4573
(dp4574
g53
(dp4575
g61
I1
ssg62
g4569
sg55
(lp4576
(lp4577
(g3673
(S't\x08\x00\x00\x00Download'
tRp4578
I00
S'http://www.web2py.com/examples/default/download'
tp4579
a(g3673
(S't\x07\x00\x00\x00Support'
tRp4580
I00
S'http://www.web2py.com/examples/default/support'
tp4581
a(g3673
(S's\x0e\x00\x00\x00Quick Examples'
tRp4582
I00
S'http://web2py.com/examples/default/examples'
tp4583
a(g3673
(S't\x03\x00\x00\x00FAQ'
tRp4584
I00
S'http://web2py.com/AlterEgo'
tp4585
a(g3673
(S's\x11\x00\x00\x00Free Applications'
tRp4586
I00
S'http://web2py.com/appliances'
tp4587
a(g3673
(S't\x07\x00\x00\x00Plugins'
tRp4588
I00
S'http://web2py.com/plugins'
tp4589
a(g3673
(S't\x07\x00\x00\x00Recipes'
tRp4590
I00
S'http://web2pyslices.com/'
tp4591
a(g3673
(S't\x04\x00\x00\x00Demo'
tRp4592
I00
S'http://web2py.com/demo_admin'
tp4593
a(g3673
(S't\x08\x00\x00\x00Semantic'
tRp4594
I00
S'http://web2py.com/semantic'
tp4595
a(g3673
(S't\x07\x00\x00\x00Layouts'
tRp4596
I00
S'http://web2py.com/layouts'
tp4597
a(g3673
(S't\x06\x00\x00\x00Videos'
tRp4598
I00
S'http://www.web2py.com/examples/default/videos/'
tp4599
aasbasbasbasbasbasbasbasbasbasbasbasbasbasbasbasbasbasbasbag48
(g64
g50
NtRp4600
(dp4601
g53
(dp4602
sg62
g3200
sg55
(lp4603
g48
(g69
g50
NtRp4604
(dp4605
g53
(dp4606
g73
g74
ssg62
g4600
sg55
(lp4607
S'meta'
p4608
asbag48
(g69
g50
NtRp4609
(dp4610
g53
(dp4611
g80
g81
ssg62
g4600
sg55
(lp4612
S':'
asbag48
(g69
g50
NtRp4613
(dp4614
g53
(dp4615
sg62
g4600
sg55
(lp4616
g48
(g49
g50
NtRp4617
(dp4618
g53
(dp4619
g61
I5
ssg62
g4613
sg55
(lp4620
g48
(g57
g50
NtRp4621
(dp4622
g53
(dp4623
g61
I4
ssg62
Nsg55
(lp4624
g48
(g64
g50
NtRp4625
(dp4626
g53
(dp4627
sg62
g4621
sg55
(lp4628
g48
(g69
g50
NtRp4629
(dp4630
g53
(dp4631
g73
g74
ssg62
g4625
sg55
(lp4632
S'author'
p4633
asbag48
(g69
g50
NtRp4634
(dp4635
g53
(dp4636
g80
g81
ssg62
g4625
sg55
(lp4637
S':'
asbag48
(g69
g50
NtRp4638
(dp4639
g53
(dp4640
sg62
g4625
sg55
(lp4641
g48
(g49
g50
NtRp4642
(dp4643
g53
(dp4644
g61
I4
ssg62
g4638
sg55
(lp4645
S'you'
p4646
asbasbasbag48
(g64
g50
NtRp4647
(dp4648
g53
(dp4649
sg62
g4621
sg55
(lp4650
g48
(g69
g50
NtRp4651
(dp4652
g53
(dp4653
g73
g74
ssg62
g4647
sg55
(lp4654
S'copyright'
p4655
asbag48
(g69
g50
NtRp4656
(dp4657
g53
(dp4658
g80
g81
ssg62
g4647
sg55
(lp4659
S':'
asbag48
(g69
g50
NtRp4660
(dp4661
g53
(dp4662
sg62
g4647
sg55
(lp4663
g48
(g49
g50
NtRp4664
(dp4665
g53
(dp4666
g61
I4
ssg62
g4660
sg55
(lp4667
S'Copyright 2007-2010'
p4668
asbasbasbag48
(g64
g50
NtRp4669
(dp4670
g53
(dp4671
sg62
g4621
sg55
(lp4672
g48
(g69
g50
NtRp4673
(dp4674
g53
(dp4675
g73
g74
ssg62
g4669
sg55
(lp4676
S'description'
p4677
asbag48
(g69
g50
NtRp4678
(dp4679
g53
(dp4680
g80
g81
ssg62
g4669
sg55
(lp4681
S':'
asbag48
(g69
g50
NtRp4682
(dp4683
g53
(dp4684
sg62
g4669
sg55
(lp4685
g48
(g49
g50
NtRp4686
(dp4687
g53
(dp4688
g61
I4
ssg62
g4682
sg55
(lp4689
S'Free and open source full-stack enterprise framework for agile development of fast, scalable, secure and portable database-driven web-based applications. Written and programmable in Python'
p4690
asbasbasbag48
(g64
g50
NtRp4691
(dp4692
g53
(dp4693
sg62
g4621
sg55
(lp4694
g48
(g69
g50
NtRp4695
(dp4696
g53
(dp4697
g73
g74
ssg62
g4691
sg55
(lp4698
S'generator'
p4699
asbag48
(g69
g50
NtRp4700
(dp4701
g53
(dp4702
g80
g81
ssg62
g4691
sg55
(lp4703
S':'
asbag48
(g69
g50
NtRp4704
(dp4705
g53
(dp4706
sg62
g4691
sg55
(lp4707
g48
(g49
g50
NtRp4708
(dp4709
g53
(dp4710
g61
I4
ssg62
g4704
sg55
(lp4711
S'Web2py Enterprise Framework'
p4712
asbasbasbag48
(g64
g50
NtRp4713
(dp4714
g53
(dp4715
sg62
g4621
sg55
(lp4716
g48
(g69
g50
NtRp4717
(dp4718
g53
(dp4719
g73
g74
ssg62
g4713
sg55
(lp4720
S'keywords'
p4721
asbag48
(g69
g50
NtRp4722
(dp4723
g53
(dp4724
g80
g81
ssg62
g4713
sg55
(lp4725
S':'
asbag48
(g69
g50
NtRp4726
(dp4727
g53
(dp4728
sg62
g4713
sg55
(lp4729
g48
(g49
g50
NtRp4730
(dp4731
g53
(dp4732
g61
I4
ssg62
g4726
sg55
(lp4733
S'web2py, python, framework'
p4734
asbasbasbasbasbasbasbag48
(g64
g50
NtRp4735
(dp4736
g53
(dp4737
sg62
g3200
sg55
(lp4738
g48
(g69
g50
NtRp4739
(dp4740
g53
(dp4741
g73
g74
ssg62
g4735
sg55
(lp4742
S'postprocessing'
p4743
asbag48
(g69
g50
NtRp4744
(dp4745
g53
(dp4746
g80
g81
ssg62
g4735
sg55
(lp4747
S':'
asbag48
(g69
g50
NtRp4748
(dp4749
g53
(dp4750
sg62
g4735
sg55
(lp4751
g48
(g49
g50
NtRp4752
(dp4753
g53
(dp4754
g61
I5
ssg62
g4748
sg55
(lp4755
g48
(g57
g50
NtRp4756
(dp4757
g53
(dp4758
g61
I4
ssg62
Nsg55
(lp4759
sbasbasbasbag48
(g64
g50
NtRp4760
(dp4761
g53
(dp4762
sg62
g3200
sg55
(lp4763
g48
(g69
g50
NtRp4764
(dp4765
g53
(dp4766
g73
g74
ssg62
g4760
sg55
(lp4767
S'session_file'
p4768
asbag48
(g69
g50
NtRp4769
(dp4770
g53
(dp4771
g80
g81
ssg62
g4760
sg55
(lp4772
S':'
asbag48
(g69
g50
NtRp4773
(dp4774
g53
(dp4775
sg62
g4760
sg55
(lp4776
g48
(g49
g50
NtRp4777
(dp4778
g53
(dp4779
g61
I5
ssg62
g4773
sg55
(lp4780
S"<open file 'C:\\Users\\Atomico\\web2py\\applications\\Desglosar_Emails\\sessions\\127.0.0.1-78cf8050-df87-4502-afb9-ed0c3843b414', mode 'rb+' at 0x080C15C0>"
p4781
asbasbasbag48
(g64
g50
NtRp4782
(dp4783
g53
(dp4784
sg62
g3200
sg55
(lp4785
g48
(g69
g50
NtRp4786
(dp4787
g53
(dp4788
g73
g74
ssg62
g4782
sg55
(lp4789
S'session_filename'
p4790
asbag48
(g69
g50
NtRp4791
(dp4792
g53
(dp4793
g80
g81
ssg62
g4782
sg55
(lp4794
S':'
asbag48
(g69
g50
NtRp4795
(dp4796
g53
(dp4797
sg62
g4782
sg55
(lp4798
g48
(g49
g50
NtRp4799
(dp4800
g53
(dp4801
g61
I5
ssg62
g4795
sg55
(lp4802
S'C:\\Users\\Atomico\\web2py\\applications\\Desglosar_Emails\\sessions\\127.0.0.1-78cf8050-df87-4502-afb9-ed0c3843b414'
p4803
asbasbasbag48
(g64
g50
NtRp4804
(dp4805
g53
(dp4806
sg62
g3200
sg55
(lp4807
g48
(g69
g50
NtRp4808
(dp4809
g53
(dp4810
g73
g74
ssg62
g4804
sg55
(lp4811
S'session_id'
p4812
asbag48
(g69
g50
NtRp4813
(dp4814
g53
(dp4815
g80
g81
ssg62
g4804
sg55
(lp4816
S':'
asbag48
(g69
g50
NtRp4817
(dp4818
g53
(dp4819
sg62
g4804
sg55
(lp4820
g48
(g49
g50
NtRp4821
(dp4822
g53
(dp4823
g61
I5
ssg62
g4817
sg55
(lp4824
S'127.0.0.1-78cf8050-df87-4502-afb9-ed0c3843b414'
p4825
asbasbasbag48
(g64
g50
NtRp4826
(dp4827
g53
(dp4828
sg62
g3200
sg55
(lp4829
g48
(g69
g50
NtRp4830
(dp4831
g53
(dp4832
g73
g74
ssg62
g4826
sg55
(lp4833
S'session_id_name'
p4834
asbag48
(g69
g50
NtRp4835
(dp4836
g53
(dp4837
g80
g81
ssg62
g4826
sg55
(lp4838
S':'
asbag48
(g69
g50
NtRp4839
(dp4840
g53
(dp4841
sg62
g4826
sg55
(lp4842
g48
(g49
g50
NtRp4843
(dp4844
g53
(dp4845
g61
I5
ssg62
g4839
sg55
(lp4846
g3257
asbasbasbag48
(g64
g50
NtRp4847
(dp4848
g53
(dp4849
sg62
g3200
sg55
(lp4850
g48
(g69
g50
NtRp4851
(dp4852
g53
(dp4853
g73
g74
ssg62
g4847
sg55
(lp4854
S'session_locked'
p4855
asbag48
(g69
g50
NtRp4856
(dp4857
g53
(dp4858
g80
g81
ssg62
g4847
sg55
(lp4859
S':'
asbag48
(g69
g50
NtRp4860
(dp4861
g53
(dp4862
sg62
g4847
sg55
(lp4863
g48
(g49
g50
NtRp4864
(dp4865
g53
(dp4866
g61
I5
ssg62
g4860
sg55
(lp4867
g1959
asbasbasbag48
(g64
g50
NtRp4868
(dp4869
g53
(dp4870
sg62
g3200
sg55
(lp4871
g48
(g69
g50
NtRp4872
(dp4873
g53
(dp4874
g73
g74
ssg62
g4868
sg55
(lp4875
S'session_new'
p4876
asbag48
(g69
g50
NtRp4877
(dp4878
g53
(dp4879
g80
g81
ssg62
g4868
sg55
(lp4880
S':'
asbag48
(g69
g50
NtRp4881
(dp4882
g53
(dp4883
sg62
g4868
sg55
(lp4884
g48
(g49
g50
NtRp4885
(dp4886
g53
(dp4887
g61
I5
ssg62
g4881
sg55
(lp4888
g91
asbasbasbag48
(g64
g50
NtRp4889
(dp4890
g53
(dp4891
sg62
g3200
sg55
(lp4892
g48
(g69
g50
NtRp4893
(dp4894
g53
(dp4895
g73
g74
ssg62
g4889
sg55
(lp4896
S'status'
p4897
asbag48
(g69
g50
NtRp4898
(dp4899
g53
(dp4900
g80
g81
ssg62
g4889
sg55
(lp4901
S':'
asbag48
(g69
g50
NtRp4902
(dp4903
g53
(dp4904
sg62
g4889
sg55
(lp4905
g48
(g49
g50
NtRp4906
(dp4907
g53
(dp4908
g61
I5
ssg62
g4902
sg55
(lp4909
S'200'
p4910
asbasbasbag48
(g64
g50
NtRp4911
(dp4912
g53
(dp4913
sg62
g3200
sg55
(lp4914
g48
(g69
g50
NtRp4915
(dp4916
g53
(dp4917
g73
g74
ssg62
g4911
sg55
(lp4918
S'subtitle'
p4919
asbag48
(g69
g50
NtRp4920
(dp4921
g53
(dp4922
g80
g81
ssg62
g4911
sg55
(lp4923
S':'
asbag48
(g69
g50
NtRp4924
(dp4925
g53
(dp4926
sg62
g4911
sg55
(lp4927
g48
(g49
g50
NtRp4928
(dp4929
g53
(dp4930
g61
I5
ssg62
g4924
sg55
(lp4931
g3673
(S's\t\x00\x00\x00Adaptame!'
tRp4932
asbasbasbag48
(g64
g50
NtRp4933
(dp4934
g53
(dp4935
sg62
g3200
sg55
(lp4936
g48
(g69
g50
NtRp4937
(dp4938
g53
(dp4939
g73
g74
ssg62
g4933
sg55
(lp4940
S'title'
p4941
asbag48
(g69
g50
NtRp4942
(dp4943
g53
(dp4944
g80
g81
ssg62
g4933
sg55
(lp4945
S':'
asbag48
(g69
g50
NtRp4946
(dp4947
g53
(dp4948
sg62
g4933
sg55
(lp4949
g48
(g49
g50
NtRp4950
(dp4951
g53
(dp4952
g61
I5
ssg62
g4946
sg55
(lp4953
g113
asbasbasbag48
(g64
g50
NtRp4954
(dp4955
g53
(dp4956
sg62
g3200
sg55
(lp4957
g48
(g69
g50
NtRp4958
(dp4959
g53
(dp4960
g73
g74
ssg62
g4954
sg55
(lp4961
g2305
asbag48
(g69
g50
NtRp4962
(dp4963
g53
(dp4964
g80
g81
ssg62
g4954
sg55
(lp4965
S':'
asbag48
(g69
g50
NtRp4966
(dp4967
g53
(dp4968
sg62
g4954
sg55
(lp4969
g48
(g49
g50
NtRp4970
(dp4971
g53
(dp4972
g61
I5
ssg62
g4966
sg55
(lp4973
g2318
asbasbasbag48
(g64
g50
NtRp4974
(dp4975
g53
(dp4976
sg62
g3200
sg55
(lp4977
g48
(g69
g50
NtRp4978
(dp4979
g53
(dp4980
g73
g74
ssg62
g4974
sg55
(lp4981
S'view'
p4982
asbag48
(g69
g50
NtRp4983
(dp4984
g53
(dp4985
g80
g81
ssg62
g4974
sg55
(lp4986
S':'
asbag48
(g69
g50
NtRp4987
(dp4988
g53
(dp4989
sg62
g4974
sg55
(lp4990
g48
(g49
g50
NtRp4991
(dp4992
g53
(dp4993
g61
I5
ssg62
g4987
sg55
(lp4994
S'default/relaciones.html'
p4995
asbasbasbasbasbsS'locals'
p4996
(dp4997
S'form2'
p4998
S'<gluon.html.FORM object at 0x08265510>'
p4999
sS'form'
p5000
S'<gluon.html.FORM object at 0x08265650>'
p5001
sssS'traceback'
p5002
S'Traceback (most recent call last):\n  File "gluon/restricted.py", line 192, in restricted\n  File "C:\\Users\\Atomico\\web2py\\applications\\Desglosar_Emails\\controllers/default.py", line 26, in <module>\n  File "gluon/globals.py", line 145, in <lambda>\n  File "C:\\Users\\Atomico\\web2py\\applications\\Desglosar_Emails\\controllers/default.py", line 24, in relaciones\nUnboundLocalError: local variable \'texto\' referenced before assignment\n'
p5003
s.