(dp1
S'output'
p2
S''
sS'layer'
p3
S'C:\\Users\\Atomico\\web2py\\applications\\Desglosar_Emails\\views\\default/entrada_mod3.html'
p4
sS'code'
p5
S'response.write(\'<!DOCTYPE html>\\n<html lang="\', escape=False)\nresponse.write(T.accepted_language or \'en\')\nresponse.write(\'" class="no-js"><!-- no-js need it for modernzr -->\\n  <head>\\n    \\n    <meta charset="utf-8" />\\t  \\t\\n    <!-- www.phpied.com/conditional-comments-block-downloads/ -->\\n    <!--[if IE]><![endif]-->    \\n    <!-- Always force latest IE rendering engine \\n\\t (even in intranet) & Chrome Frame \\n\\t Remove this if you use the .htaccess -->\\n    <meta http-equiv="X-UA-Compatible" content="IE=edge,chrome=1">\\n    \\n    <title>\', escape=False)\nresponse.write(response.title or request.application)\nresponse.write(\'</title>\\n    \\n    <!-- http://dev.w3.org/html5/markup/meta.name.html -->\\n    <meta name="application-name" content="\', escape=False)\nresponse.write(request.application)\nresponse.write(\'" />\\t\\n    \\n    <!-- Speaking of Google, don\\\'t forget to set your site up: \\n\\t http://google.com/webmasters -->\\n    <meta name="google-site-verification" content="" />\\n    \\n    <!--  Mobile Viewport Fix\\n\\t  j.mp/mobileviewport & davidbcalhoun.com/2010/viewport-metatag \\n\\t  device-width: Occupy full width of the screen in its current orientation\\n\\t  initial-scale = 1.0 retains dimensions instead of zooming out if page height > device height\\n\\t  maximum-scale = 1.0 retains dimensions instead of zooming in if page width < device width\\n      -->\\n    <meta name="viewport" content="width=device-width, initial-scale=1.0, maximum-scale=1.0">\\n    \\n    <!-- Place favicon.ico and apple-touch-icon.png in the root of your domain and delete these references -->\\n    <link rel="shortcut icon" href="\', escape=False)\nresponse.write(URL(\'static\',\'favicon.ico\'))\nresponse.write(\'" type="image/x-icon">\\n    <link rel="apple-touch-icon" href="\', escape=False)\nresponse.write(URL(\'static\',\'favicon.png\'))\nresponse.write(\'">\\n\\n    <!-- For the less-enabled mobile browsers like Opera Mini -->\\n    <link rel="stylesheet" media="handheld" href="\', escape=False)\nresponse.write(URL(\'static\',\'css/handheld.css\'))\nresponse.write(\'">\\n    \\n    <!-- All JavaScript at the bottom, except for Modernizr which enables HTML5 elements & feature detects -->\\n    <script src="\', escape=False)\nresponse.write(URL(\'static\',\'js/modernizr-1.7.min.js\'))\nresponse.write(\'"></script>\\n    \\n    \', escape=False)\n#------  require CSS and JS files for this page (read info in base.css) ------\nresponse.write(\'\\n    \', escape=False)\nresponse.files.append(URL(\'static\',\'css/base.css\'))\nresponse.write(\'\\n    \', escape=False)\nresponse.files.append(URL(\'static\',\'css/superfish.css\'))\nresponse.write(\'\\n    \', escape=False)\nresponse.files.append(URL(\'static\',\'js/superfish.js\'))\nresponse.write(\'\\n    \', escape=False)\n#------ include web2py specific js code (jquery, calendar, form stuff) ------\nresponse.write(\'\\n    \', escape=False)\nresponse.files.insert(0,URL(\'static\',\'js/jquery.js\'))\nresponse.files.insert(1,URL(\'static\',\'css/calendar.css\'))\nresponse.files.insert(2,URL(\'static\',\'js/calendar.js\'))\nfor _item in response.meta or []:\n    response.write(\'\\n     <meta name="\', escape=False)\n    response.write(_item)\n    response.write(\'" content="\', escape=False)\n    response.write(response.meta[_item])\n    response.write(\'" />\', escape=False)\n    pass\nfor _k,_file in enumerate(response.files or []):\n    if _file in response.files[:_k]:\n        continue\n    _file0=_file.lower().split(\'?\')[0]\n    if _file0.endswith(\'.css\'):\n        response.write(\'\\n     <link href="\', escape=False)\n        response.write(_file)\n        response.write(\'" rel="stylesheet" type="text/css" />\', escape=False)\n    elif _file0.endswith(\'.js\'):\n        response.write(\'\\n     <script src="\', escape=False)\n        response.write(_file)\n        response.write(\'" type="text/javascript"></script>\', escape=False)\n        pass\n    pass\nresponse.write(\'\\n    <script type="text/javascript"><!--\\n    // These variables are used by the web2py_ajax_init function in web2py_ajax.js (which is loaded below).\\n    var w2p_ajax_confirm_message = "\', escape=False)\nresponse.write(T(\'Are you sure you want to delete this object?\'))\nresponse.write(\'";\\n    var w2p_ajax_date_format = "\', escape=False)\nresponse.write(T(\'%Y-%m-%d\'))\nresponse.write(\'";\\n    var w2p_ajax_datetime_format = "\', escape=False)\nresponse.write(T(\'%Y-%m-%d %H:%M:%S\'))\nresponse.write(\'";\\n    //--></script>\\n    <script src="\', escape=False)\nresponse.write(URL(\'static\',\'js/web2py_ajax.js\'))\nresponse.write(\'" type="text/javascript"></script>\\n\', escape=False)\nresponse.write(\'\\n\\n    \', escape=False)\n#using sidebars need to know what sidebar you want to use\n#prior of using it, because of static width size of content, you can use\n#left_sidebar, right_sidebar, both or none (False left and right)\nleft_sidebar_enabled = globals().get(\'left_sidebar_enabled\',False)\nright_sidebar_enabled = globals().get(\'right_sidebar_enabled\',False)\nif left_sidebar_enabled and right_sidebar_enabled: width_content=\'63%\'\nelif left_sidebar_enabled != right_sidebar_enabled: width_content=\'740px\'\nelse: width_content=\'100%\'\nif left_sidebar_enabled: left_sidebar_style = \'style="display: block;"\'\nelse: left_sidebar_style = \'style="display: none;"\'\nif right_sidebar_enabled: right_sidebar_style = \'style="display: block;"\'\nelse: right_sidebar_style = \'style="display: none;"\'\nstyle_content = \'style="width: %s"\' % width_content\nresponse.write(\'\\n  </head>\\n  \\n  <!-- paulirish.com/2008/conditional-stylesheets-vs-css-hacks-answer-neither/ -->\\t\\n  <!--[if lt IE 7 ]> <body class="ie6"> <![endif]-->\\n  <!--[if IE 7 ]>    <body class="ie7"> <![endif]-->\\n  <!--[if IE 8 ]>    <body class="ie8"> <![endif]-->\\n  <!--[if IE 9 ]>    <body class="ie9"> <![endif]-->\\n  <!--[if (gt IE 9)|!(IE)]><!--> <body> <!--<![endif]-->\\n    \\n    <div class="flash">\', escape=False)\nresponse.write(response.flash or \'\')\nresponse.write(\'</div> <!-- notification div -->\\n    \\n    <div id="container">\\t      \\t\\t      \\t\\n      \\n      <div id="wrapper">\\t\\t\\n\\t\\n\\t<div id="header"> <!-- header and login nav -->\\n\\t  \', escape=False)\nresponse.write(\' <!-- this is default header -->\\n\\t  \', escape=False)\ntry:\n    response.write(auth.navbar(action=URL(\'default\',\'user\')))\nexcept:pass\nresponse.write(\'\\t\\t          \\n\\t  <h1><span id="appname">\', escape=False)\nresponse.write(request.application.capitalize())\nresponse.write(\'</span>App</h1>\\n\\t  <div style="clear: both;"></div><!-- Clear the divs -->\\n\\t  \', escape=False)\nresponse.write(\'\\t\\t\\t\\t  \\t\\t\\t\\t\\t  \\n\\t</div><!-- header  -->\\n\\t\\n\\t<div id="statusbar"><!-- statusbar is menu zone -->\\n\\t  \', escape=False)\nresponse.write(\' <!-- this is default statusbar -->\\n\\t  \', escape=False)\n#------ superfish menu ------\nresponse.write(\'\\n\\t  \', escape=False)\nresponse.write(MENU(response.menu,_class=\'sf-menu\'))\nresponse.write(\'\\n\\t  <script type="text/javascript">\\n\\t    jQuery(document).ready(function(){\\n\\t    jQuery(\\\'ul.sf-menu\\\').superfish();});\\n\\t  </script>\\n\\t  <div style="clear: both;"></div><!-- Clear the divs -->\\t\\n\\t  \', escape=False)\nresponse.write(\'\\t\\t\\t\\t\\n\\t</div><!-- statusbar -->\\n\\t\\n\\t<div id="page"> <!-- Here my central body -->\\t  \\n\\n\\t  \', escape=False)\nif left_sidebar_enabled:\n    response.write(\'\\n          <div id="left_sidebar" \', escape=False)\n    response.write(XML(left_sidebar_style))\n    response.write(\' >\\n            <div style="padding: 4px;">\\n\\t      \', escape=False)\n    response.write(\'Content Left Sidebar\', escape=False)\n    response.write(\'\\t\\t  \\n            </div>\\n          </div><!-- left_sidebar -->\\n\\t  \', escape=False)\n    pass\nresponse.write(\'\\n\\n\\t  <!-- content -->\\n\\t  <div id="content" \', escape=False)\nresponse.write(XML(style_content))\nresponse.write(\' >\\n\\t    \', escape=False)\nresponse.write(\'\\r\\n<h1>Esta es la plantilla default/entrada_mod3.html</h1>\\r\\n<h2>Formulario</h2>\\r\\n\', escape=False)\nresponse.write(form)\nresponse.write(\'\\r\\n<br/>\\r\\n<h3>Tratamientos</h3>\\r\\n\', escape=False)\ntextual=db(db.info4.id==1).select()[0]\ntxt=textual.texto\nimport re\npattern=re.compile("\\w+.\\w+.\\w+")\npatternemail=re.compile("@\\w+[.]\\w+.\\w+")\nres=pattern.findall(txt)\nres2=patternemail.findall(txt)\nfor i in res: response.write (i+\'    \')\nresponse.write(\'En total son \', escape=False)\nresponse.write(len(res))\nresponse.write(\' nombres sueltos <br/> \', escape=False)\nfor i in res2: response.write(i+\'    \')\nresponse.write(\'En total son \', escape=False)\nresponse.write(len(res2))\nresponse.write(\' conf de emails sueltos <br/> \', escape=False)\ni=0\nwhile i<len(res):\n    response.write(\'<br>\'+str(i)+\'es: \',escape=False)\n    response.write(\'el elemento que toca es: \'+\'res[i]\'+\' y patternemail es: \')\n    if patternemail.search(res[i]): bol=\'True\'\nelse: bol=\'False\'\nresponse.write(bol)\nif patternemail.search(res[i])==False:\n    cadena=\'\'\n    response.write(\'ZZZZZZZZZZ\')\n    while patternemail.search(res[i])==False:\n        response.write(\'0XXXXXXXXXXX0\')\n        cadena=cadena+res[i]\n        i=i+1\n        pass\n    db.contactos.insert(nombre=cadena,email=res[i])\n    i=i+1\nelse:\n    db.contactos.insert(email=res[i])\n    i=i+1\n    pass\npass\nresponse.write(\'\\r\\n\', escape=False)\nif patternemail.search(res[4]): response.write(\'True\')\nelse: response.write(\'False\')\nresponse.write(\'\\r\\n\', escape=False)\nresponse.write(\'\\t\\n\\t  </div>\\n\\t  <!-- content -->\\n\\n\\t  \', escape=False)\nif right_sidebar_enabled:\n    response.write(\'\\n          <div id="right_sidebar" \', escape=False)\n    response.write(XML(right_sidebar_style))\n    response.write(\' >\\n            <div style="padding: 4px;">\\n              \', escape=False)\n    response.write(\'Content Right Sidebar\', escape=False)\n    response.write(\'\\n            </div>\\n\\t  </div><!-- right_sidebar -->\\n          \', escape=False)\n    pass\nresponse.write(\'\\n\\n\\n\\t  <div style="clear: both;"></div><!-- Clear the divs -->\\n\\t  \\n\\t</div><!-- page -->\\t\\t\\t\\t\\t\\t\\t\\n\\t\\n\\t<div id="footer">\\n\\t  \', escape=False)\nresponse.write(\' <!-- this is default footer -->\\n\\t  <a href="http://www.web2py.com/" style="float: left; padding-right: 6px;">\\n\\t    <img src="\', escape=False)\nresponse.write(URL(\'static\',\'images/poweredby.png\'))\nresponse.write(\'"/>\\n\\t  </a>\\n\\t  \', escape=False)\nresponse.write(T(\'Copyright\'))\nresponse.write(\' &#169; 2010\\t\\t\\t\\t\\n\\t  <div style="clear: both;"></div><!-- Clear the divs -->\\n\\t  \', escape=False)\nresponse.write(\'\\n\\n\\t</div><!-- footer -->\\t\\t\\t\\n      </div><!-- wrapper -->\\n    </div><!-- container -->\\t\\t\\n    \\n    <!--[if lt IE 7 ]>\\n\\t<script src="\', escape=False)\nresponse.write(URL(\'static\',\'js/dd_belatedpng.js\'))\nresponse.write(\'"></script>\\n\\t<script> DD_belatedPNG.fix(\\\'img, .png_bg\\\'); //fix any <img> or .png_bg background-images </script>\\n\\t<![endif]-->\\n    \\n    <!-- asynchronous google analytics: mathiasbynens.be/notes/async-analytics-snippet \\n\\t change the UA-XXXXX-X to be your site\\\'s ID -->\\n    <!--   \\n\\t   <script>\\n\\t     var _gaq = [[\\\'_setAccount\\\', \\\'UA-XXXXX-X\\\'], [\\\'_trackPageview\\\']];\\n\\t     (function(d, t) {\\n\\t     var g = d.createElement(t),\\n\\t     s = d.getElementsByTagName(t)[0];\\n\\t     g.async = true;\\n\\t     g.src = \\\'//www.google-analytics.com/ga.js\\\';\\n\\t     s.parentNode.insertBefore(g, s);\\n\\t     })(document, \\\'script\\\');\\n\\t   </script>\\n\\t   -->    \\n  </body>\\n</html>\\n\', escape=False)'
p6
sS'snapshot'
p7
(dp8
S'exception'
p9
(dp10
S'__hash__'
p11
S"<method-wrapper '__hash__' of exceptions.MemoryError object at 0x083F0418>"
p12
sS'__setattr__'
p13
S"<method-wrapper '__setattr__' of exceptions.MemoryError object at 0x083F0418>"
p14
sS'__reduce_ex__'
p15
S'<built-in method __reduce_ex__ of exceptions.MemoryError object at 0x083F0418>'
p16
sS'__getslice__'
p17
S"<method-wrapper '__getslice__' of exceptions.MemoryError object at 0x083F0418>"
p18
sS'__getitem__'
p19
S"<method-wrapper '__getitem__' of exceptions.MemoryError object at 0x083F0418>"
p20
sS'__setstate__'
p21
S'<built-in method __setstate__ of exceptions.MemoryError object at 0x083F0418>'
p22
sS'__reduce__'
p23
S'<built-in method __reduce__ of exceptions.MemoryError object at 0x083F0418>'
p24
sS'__str__'
p25
S"<method-wrapper '__str__' of exceptions.MemoryError object at 0x083F0418>"
p26
sS'args'
p27
S"('out of memory',)"
p28
sS'__getattribute__'
p29
S"<method-wrapper '__getattribute__' of exceptions.MemoryError object at 0x083F0418>"
p30
sS'__class__'
p31
S"<type 'exceptions.MemoryError'>"
p32
sS'__delattr__'
p33
S"<method-wrapper '__delattr__' of exceptions.MemoryError object at 0x083F0418>"
p34
sS'__repr__'
p35
S"<method-wrapper '__repr__' of exceptions.MemoryError object at 0x083F0418>"
p36
sS'__dict__'
p37
S'{}'
p38
sS'__doc__'
p39
S"'Out of memory.'"
p40
sS'__init__'
p41
S"<method-wrapper '__init__' of exceptions.MemoryError object at 0x083F0418>"
p42
sS'__new__'
p43
S'<built-in method __new__ of type object at 0x1E1CEA70>'
p44
ssS'evalue'
p45
S'out of memory'
p46
sS'request'
p47
ccopy_reg
_reconstructor
p48
(cgluon.html
BEAUTIFY
p49
c__builtin__
object
p50
NtRp51
(dp52
S'attributes'
p53
(dp54
sS'components'
p55
(lp56
g48
(cgluon.html
TABLE
p57
g50
NtRp58
(dp59
g53
(dp60
S'level'
p61
I5
ssS'parent'
p62
Nsg55
(lp63
g48
(cgluon.html
TR
p64
g50
NtRp65
(dp66
g53
(dp67
sg62
g58
sg55
(lp68
g48
(cgluon.html
TD
p69
g50
NtRp70
(dp71
g53
(dp72
S'_style'
p73
S'font-weight:bold;'
p74
ssg62
g65
sg55
(lp75
S'ajax'
p76
asbag48
(g69
g50
NtRp77
(dp78
g53
(dp79
S'_valign'
p80
S'top'
p81
ssg62
g65
sg55
(lp82
S':'
asbag48
(g69
g50
NtRp83
(dp84
g53
(dp85
sg62
g65
sg55
(lp86
g48
(g49
g50
NtRp87
(dp88
g53
(dp89
g61
I5
ssg62
g83
sg55
(lp90
S'False'
p91
asbasbasbag48
(g64
g50
NtRp92
(dp93
g53
(dp94
sg62
g58
sg55
(lp95
g48
(g69
g50
NtRp96
(dp97
g53
(dp98
g73
g74
ssg62
g92
sg55
(lp99
S'application'
p100
asbag48
(g69
g50
NtRp101
(dp102
g53
(dp103
g80
g81
ssg62
g92
sg55
(lp104
S':'
asbag48
(g69
g50
NtRp105
(dp106
g53
(dp107
sg62
g92
sg55
(lp108
g48
(g49
g50
NtRp109
(dp110
g53
(dp111
g61
I5
ssg62
g105
sg55
(lp112
S'Desglosar_Emails'
p113
asbasbasbag48
(g64
g50
NtRp114
(dp115
g53
(dp116
sg62
g58
sg55
(lp117
g48
(g69
g50
NtRp118
(dp119
g53
(dp120
g73
g74
ssg62
g114
sg55
(lp121
g27
asbag48
(g69
g50
NtRp122
(dp123
g53
(dp124
g80
g81
ssg62
g114
sg55
(lp125
S':'
asbag48
(g69
g50
NtRp126
(dp127
g53
(dp128
sg62
g114
sg55
(lp129
g48
(g49
g50
NtRp130
(dp131
g53
(dp132
g61
I5
ssg62
g126
sg55
(lp133
g48
(g57
g50
NtRp134
(dp135
g53
(dp136
g61
I4
ssg62
Nsg55
(lp137
sbasbasbasbag48
(g64
g50
NtRp138
(dp139
g53
(dp140
sg62
g58
sg55
(lp141
g48
(g69
g50
NtRp142
(dp143
g53
(dp144
g73
g74
ssg62
g138
sg55
(lp145
S'body'
p146
asbag48
(g69
g50
NtRp147
(dp148
g53
(dp149
g80
g81
ssg62
g138
sg55
(lp150
S':'
asbag48
(g69
g50
NtRp151
(dp152
g53
(dp153
sg62
g138
sg55
(lp154
g48
(g49
g50
NtRp155
(dp156
g53
(dp157
g61
I5
ssg62
g151
sg55
(lp158
S'<cStringIO.StringO object at 0x07C725C0>'
p159
asbasbasbag48
(g64
g50
NtRp160
(dp161
g53
(dp162
sg62
g58
sg55
(lp163
g48
(g69
g50
NtRp164
(dp165
g53
(dp166
g73
g74
ssg62
g160
sg55
(lp167
S'client'
p168
asbag48
(g69
g50
NtRp169
(dp170
g53
(dp171
g80
g81
ssg62
g160
sg55
(lp172
S':'
asbag48
(g69
g50
NtRp173
(dp174
g53
(dp175
sg62
g160
sg55
(lp176
g48
(g49
g50
NtRp177
(dp178
g53
(dp179
g61
I5
ssg62
g173
sg55
(lp180
S'127.0.0.1'
p181
asbasbasbag48
(g64
g50
NtRp182
(dp183
g53
(dp184
sg62
g58
sg55
(lp185
g48
(g69
g50
NtRp186
(dp187
g53
(dp188
g73
g74
ssg62
g182
sg55
(lp189
S'controller'
p190
asbag48
(g69
g50
NtRp191
(dp192
g53
(dp193
g80
g81
ssg62
g182
sg55
(lp194
S':'
asbag48
(g69
g50
NtRp195
(dp196
g53
(dp197
sg62
g182
sg55
(lp198
g48
(g49
g50
NtRp199
(dp200
g53
(dp201
g61
I5
ssg62
g195
sg55
(lp202
S'default'
p203
asbasbasbag48
(g64
g50
NtRp204
(dp205
g53
(dp206
sg62
g58
sg55
(lp207
g48
(g69
g50
NtRp208
(dp209
g53
(dp210
g73
g74
ssg62
g204
sg55
(lp211
S'cookies'
p212
asbag48
(g69
g50
NtRp213
(dp214
g53
(dp215
g80
g81
ssg62
g204
sg55
(lp216
S':'
asbag48
(g69
g50
NtRp217
(dp218
g53
(dp219
sg62
g204
sg55
(lp220
g48
(g49
g50
NtRp221
(dp222
g53
(dp223
g61
I5
ssg62
g217
sg55
(lp224
g48
(g57
g50
NtRp225
(dp226
g53
(dp227
g61
I4
ssg62
Nsg55
(lp228
g48
(g64
g50
NtRp229
(dp230
g53
(dp231
sg62
g225
sg55
(lp232
g48
(g69
g50
NtRp233
(dp234
g53
(dp235
g73
g74
ssg62
g229
sg55
(lp236
S'session_id_admin'
p237
asbag48
(g69
g50
NtRp238
(dp239
g53
(dp240
g80
g81
ssg62
g229
sg55
(lp241
S':'
asbag48
(g69
g50
NtRp242
(dp243
g53
(dp244
sg62
g229
sg55
(lp245
g48
(g49
g50
NtRp246
(dp247
g53
(dp248
g61
I4
ssg62
g242
sg55
(lp249
g48
(g57
g50
NtRp250
(dp251
g53
(dp252
g61
I3
ssg62
Nsg55
(lp253
g48
(g64
g50
NtRp254
(dp255
g53
(dp256
sg62
g250
sg55
(lp257
g48
(g69
g50
NtRp258
(dp259
g53
(dp260
g73
g74
ssg62
g254
sg55
(lp261
S'comment'
p262
asbag48
(g69
g50
NtRp263
(dp264
g53
(dp265
g80
g81
ssg62
g254
sg55
(lp266
S':'
asbag48
(g69
g50
NtRp267
(dp268
g53
(dp269
sg62
g254
sg55
(lp270
g48
(g49
g50
NtRp271
(dp272
g53
(dp273
g61
I3
ssg62
g267
sg55
(lp274
S''
asbasbasbag48
(g64
g50
NtRp275
(dp276
g53
(dp277
sg62
g250
sg55
(lp278
g48
(g69
g50
NtRp279
(dp280
g53
(dp281
g73
g74
ssg62
g275
sg55
(lp282
S'domain'
p283
asbag48
(g69
g50
NtRp284
(dp285
g53
(dp286
g80
g81
ssg62
g275
sg55
(lp287
S':'
asbag48
(g69
g50
NtRp288
(dp289
g53
(dp290
sg62
g275
sg55
(lp291
g48
(g49
g50
NtRp292
(dp293
g53
(dp294
g61
I3
ssg62
g288
sg55
(lp295
S''
asbasbasbag48
(g64
g50
NtRp296
(dp297
g53
(dp298
sg62
g250
sg55
(lp299
g48
(g69
g50
NtRp300
(dp301
g53
(dp302
g73
g74
ssg62
g296
sg55
(lp303
S'expires'
p304
asbag48
(g69
g50
NtRp305
(dp306
g53
(dp307
g80
g81
ssg62
g296
sg55
(lp308
S':'
asbag48
(g69
g50
NtRp309
(dp310
g53
(dp311
sg62
g296
sg55
(lp312
g48
(g49
g50
NtRp313
(dp314
g53
(dp315
g61
I3
ssg62
g309
sg55
(lp316
S''
asbasbasbag48
(g64
g50
NtRp317
(dp318
g53
(dp319
sg62
g250
sg55
(lp320
g48
(g69
g50
NtRp321
(dp322
g53
(dp323
g73
g74
ssg62
g317
sg55
(lp324
S'max-age'
p325
asbag48
(g69
g50
NtRp326
(dp327
g53
(dp328
g80
g81
ssg62
g317
sg55
(lp329
S':'
asbag48
(g69
g50
NtRp330
(dp331
g53
(dp332
sg62
g317
sg55
(lp333
g48
(g49
g50
NtRp334
(dp335
g53
(dp336
g61
I3
ssg62
g330
sg55
(lp337
S''
asbasbasbag48
(g64
g50
NtRp338
(dp339
g53
(dp340
sg62
g250
sg55
(lp341
g48
(g69
g50
NtRp342
(dp343
g53
(dp344
g73
g74
ssg62
g338
sg55
(lp345
S'path'
p346
asbag48
(g69
g50
NtRp347
(dp348
g53
(dp349
g80
g81
ssg62
g338
sg55
(lp350
S':'
asbag48
(g69
g50
NtRp351
(dp352
g53
(dp353
sg62
g338
sg55
(lp354
g48
(g49
g50
NtRp355
(dp356
g53
(dp357
g61
I3
ssg62
g351
sg55
(lp358
S''
asbasbasbag48
(g64
g50
NtRp359
(dp360
g53
(dp361
sg62
g250
sg55
(lp362
g48
(g69
g50
NtRp363
(dp364
g53
(dp365
g73
g74
ssg62
g359
sg55
(lp366
S'secure'
p367
asbag48
(g69
g50
NtRp368
(dp369
g53
(dp370
g80
g81
ssg62
g359
sg55
(lp371
S':'
asbag48
(g69
g50
NtRp372
(dp373
g53
(dp374
sg62
g359
sg55
(lp375
g48
(g49
g50
NtRp376
(dp377
g53
(dp378
g61
I3
ssg62
g372
sg55
(lp379
S''
asbasbasbag48
(g64
g50
NtRp380
(dp381
g53
(dp382
sg62
g250
sg55
(lp383
g48
(g69
g50
NtRp384
(dp385
g53
(dp386
g73
g74
ssg62
g380
sg55
(lp387
S'version'
p388
asbag48
(g69
g50
NtRp389
(dp390
g53
(dp391
g80
g81
ssg62
g380
sg55
(lp392
S':'
asbag48
(g69
g50
NtRp393
(dp394
g53
(dp395
sg62
g380
sg55
(lp396
g48
(g49
g50
NtRp397
(dp398
g53
(dp399
g61
I3
ssg62
g393
sg55
(lp400
S''
asbasbasbasbasbasbasbag48
(g64
g50
NtRp401
(dp402
g53
(dp403
sg62
g225
sg55
(lp404
g48
(g69
g50
NtRp405
(dp406
g53
(dp407
g73
g74
ssg62
g401
sg55
(lp408
S'session_id_desglosar_emails'
p409
asbag48
(g69
g50
NtRp410
(dp411
g53
(dp412
g80
g81
ssg62
g401
sg55
(lp413
S':'
asbag48
(g69
g50
NtRp414
(dp415
g53
(dp416
sg62
g401
sg55
(lp417
g48
(g49
g50
NtRp418
(dp419
g53
(dp420
g61
I4
ssg62
g414
sg55
(lp421
g48
(g57
g50
NtRp422
(dp423
g53
(dp424
g61
I3
ssg62
Nsg55
(lp425
g48
(g64
g50
NtRp426
(dp427
g53
(dp428
sg62
g422
sg55
(lp429
g48
(g69
g50
NtRp430
(dp431
g53
(dp432
g73
g74
ssg62
g426
sg55
(lp433
g262
asbag48
(g69
g50
NtRp434
(dp435
g53
(dp436
g80
g81
ssg62
g426
sg55
(lp437
S':'
asbag48
(g69
g50
NtRp438
(dp439
g53
(dp440
sg62
g426
sg55
(lp441
g48
(g49
g50
NtRp442
(dp443
g53
(dp444
g61
I3
ssg62
g438
sg55
(lp445
S''
asbasbasbag48
(g64
g50
NtRp446
(dp447
g53
(dp448
sg62
g422
sg55
(lp449
g48
(g69
g50
NtRp450
(dp451
g53
(dp452
g73
g74
ssg62
g446
sg55
(lp453
g283
asbag48
(g69
g50
NtRp454
(dp455
g53
(dp456
g80
g81
ssg62
g446
sg55
(lp457
S':'
asbag48
(g69
g50
NtRp458
(dp459
g53
(dp460
sg62
g446
sg55
(lp461
g48
(g49
g50
NtRp462
(dp463
g53
(dp464
g61
I3
ssg62
g458
sg55
(lp465
S''
asbasbasbag48
(g64
g50
NtRp466
(dp467
g53
(dp468
sg62
g422
sg55
(lp469
g48
(g69
g50
NtRp470
(dp471
g53
(dp472
g73
g74
ssg62
g466
sg55
(lp473
g304
asbag48
(g69
g50
NtRp474
(dp475
g53
(dp476
g80
g81
ssg62
g466
sg55
(lp477
S':'
asbag48
(g69
g50
NtRp478
(dp479
g53
(dp480
sg62
g466
sg55
(lp481
g48
(g49
g50
NtRp482
(dp483
g53
(dp484
g61
I3
ssg62
g478
sg55
(lp485
S''
asbasbasbag48
(g64
g50
NtRp486
(dp487
g53
(dp488
sg62
g422
sg55
(lp489
g48
(g69
g50
NtRp490
(dp491
g53
(dp492
g73
g74
ssg62
g486
sg55
(lp493
g325
asbag48
(g69
g50
NtRp494
(dp495
g53
(dp496
g80
g81
ssg62
g486
sg55
(lp497
S':'
asbag48
(g69
g50
NtRp498
(dp499
g53
(dp500
sg62
g486
sg55
(lp501
g48
(g49
g50
NtRp502
(dp503
g53
(dp504
g61
I3
ssg62
g498
sg55
(lp505
S''
asbasbasbag48
(g64
g50
NtRp506
(dp507
g53
(dp508
sg62
g422
sg55
(lp509
g48
(g69
g50
NtRp510
(dp511
g53
(dp512
g73
g74
ssg62
g506
sg55
(lp513
g346
asbag48
(g69
g50
NtRp514
(dp515
g53
(dp516
g80
g81
ssg62
g506
sg55
(lp517
S':'
asbag48
(g69
g50
NtRp518
(dp519
g53
(dp520
sg62
g506
sg55
(lp521
g48
(g49
g50
NtRp522
(dp523
g53
(dp524
g61
I3
ssg62
g518
sg55
(lp525
S''
asbasbasbag48
(g64
g50
NtRp526
(dp527
g53
(dp528
sg62
g422
sg55
(lp529
g48
(g69
g50
NtRp530
(dp531
g53
(dp532
g73
g74
ssg62
g526
sg55
(lp533
g367
asbag48
(g69
g50
NtRp534
(dp535
g53
(dp536
g80
g81
ssg62
g526
sg55
(lp537
S':'
asbag48
(g69
g50
NtRp538
(dp539
g53
(dp540
sg62
g526
sg55
(lp541
g48
(g49
g50
NtRp542
(dp543
g53
(dp544
g61
I3
ssg62
g538
sg55
(lp545
S''
asbasbasbag48
(g64
g50
NtRp546
(dp547
g53
(dp548
sg62
g422
sg55
(lp549
g48
(g69
g50
NtRp550
(dp551
g53
(dp552
g73
g74
ssg62
g546
sg55
(lp553
g388
asbag48
(g69
g50
NtRp554
(dp555
g53
(dp556
g80
g81
ssg62
g546
sg55
(lp557
S':'
asbag48
(g69
g50
NtRp558
(dp559
g53
(dp560
sg62
g546
sg55
(lp561
g48
(g49
g50
NtRp562
(dp563
g53
(dp564
g61
I3
ssg62
g558
sg55
(lp565
S''
asbasbasbasbasbasbasbag48
(g64
g50
NtRp566
(dp567
g53
(dp568
sg62
g225
sg55
(lp569
g48
(g69
g50
NtRp570
(dp571
g53
(dp572
g73
g74
ssg62
g566
sg55
(lp573
S'session_id_welcome'
p574
asbag48
(g69
g50
NtRp575
(dp576
g53
(dp577
g80
g81
ssg62
g566
sg55
(lp578
S':'
asbag48
(g69
g50
NtRp579
(dp580
g53
(dp581
sg62
g566
sg55
(lp582
g48
(g49
g50
NtRp583
(dp584
g53
(dp585
g61
I4
ssg62
g579
sg55
(lp586
g48
(g57
g50
NtRp587
(dp588
g53
(dp589
g61
I3
ssg62
Nsg55
(lp590
g48
(g64
g50
NtRp591
(dp592
g53
(dp593
sg62
g587
sg55
(lp594
g48
(g69
g50
NtRp595
(dp596
g53
(dp597
g73
g74
ssg62
g591
sg55
(lp598
g262
asbag48
(g69
g50
NtRp599
(dp600
g53
(dp601
g80
g81
ssg62
g591
sg55
(lp602
S':'
asbag48
(g69
g50
NtRp603
(dp604
g53
(dp605
sg62
g591
sg55
(lp606
g48
(g49
g50
NtRp607
(dp608
g53
(dp609
g61
I3
ssg62
g603
sg55
(lp610
S''
asbasbasbag48
(g64
g50
NtRp611
(dp612
g53
(dp613
sg62
g587
sg55
(lp614
g48
(g69
g50
NtRp615
(dp616
g53
(dp617
g73
g74
ssg62
g611
sg55
(lp618
g283
asbag48
(g69
g50
NtRp619
(dp620
g53
(dp621
g80
g81
ssg62
g611
sg55
(lp622
S':'
asbag48
(g69
g50
NtRp623
(dp624
g53
(dp625
sg62
g611
sg55
(lp626
g48
(g49
g50
NtRp627
(dp628
g53
(dp629
g61
I3
ssg62
g623
sg55
(lp630
S''
asbasbasbag48
(g64
g50
NtRp631
(dp632
g53
(dp633
sg62
g587
sg55
(lp634
g48
(g69
g50
NtRp635
(dp636
g53
(dp637
g73
g74
ssg62
g631
sg55
(lp638
g304
asbag48
(g69
g50
NtRp639
(dp640
g53
(dp641
g80
g81
ssg62
g631
sg55
(lp642
S':'
asbag48
(g69
g50
NtRp643
(dp644
g53
(dp645
sg62
g631
sg55
(lp646
g48
(g49
g50
NtRp647
(dp648
g53
(dp649
g61
I3
ssg62
g643
sg55
(lp650
S''
asbasbasbag48
(g64
g50
NtRp651
(dp652
g53
(dp653
sg62
g587
sg55
(lp654
g48
(g69
g50
NtRp655
(dp656
g53
(dp657
g73
g74
ssg62
g651
sg55
(lp658
g325
asbag48
(g69
g50
NtRp659
(dp660
g53
(dp661
g80
g81
ssg62
g651
sg55
(lp662
S':'
asbag48
(g69
g50
NtRp663
(dp664
g53
(dp665
sg62
g651
sg55
(lp666
g48
(g49
g50
NtRp667
(dp668
g53
(dp669
g61
I3
ssg62
g663
sg55
(lp670
S''
asbasbasbag48
(g64
g50
NtRp671
(dp672
g53
(dp673
sg62
g587
sg55
(lp674
g48
(g69
g50
NtRp675
(dp676
g53
(dp677
g73
g74
ssg62
g671
sg55
(lp678
g346
asbag48
(g69
g50
NtRp679
(dp680
g53
(dp681
g80
g81
ssg62
g671
sg55
(lp682
S':'
asbag48
(g69
g50
NtRp683
(dp684
g53
(dp685
sg62
g671
sg55
(lp686
g48
(g49
g50
NtRp687
(dp688
g53
(dp689
g61
I3
ssg62
g683
sg55
(lp690
S''
asbasbasbag48
(g64
g50
NtRp691
(dp692
g53
(dp693
sg62
g587
sg55
(lp694
g48
(g69
g50
NtRp695
(dp696
g53
(dp697
g73
g74
ssg62
g691
sg55
(lp698
g367
asbag48
(g69
g50
NtRp699
(dp700
g53
(dp701
g80
g81
ssg62
g691
sg55
(lp702
S':'
asbag48
(g69
g50
NtRp703
(dp704
g53
(dp705
sg62
g691
sg55
(lp706
g48
(g49
g50
NtRp707
(dp708
g53
(dp709
g61
I3
ssg62
g703
sg55
(lp710
S''
asbasbasbag48
(g64
g50
NtRp711
(dp712
g53
(dp713
sg62
g587
sg55
(lp714
g48
(g69
g50
NtRp715
(dp716
g53
(dp717
g73
g74
ssg62
g711
sg55
(lp718
g388
asbag48
(g69
g50
NtRp719
(dp720
g53
(dp721
g80
g81
ssg62
g711
sg55
(lp722
S':'
asbag48
(g69
g50
NtRp723
(dp724
g53
(dp725
sg62
g711
sg55
(lp726
g48
(g49
g50
NtRp727
(dp728
g53
(dp729
g61
I3
ssg62
g723
sg55
(lp730
S''
asbasbasbasbasbasbasbasbasbasbasbag48
(g64
g50
NtRp731
(dp732
g53
(dp733
sg62
g58
sg55
(lp734
g48
(g69
g50
NtRp735
(dp736
g53
(dp737
g73
g74
ssg62
g731
sg55
(lp738
S'env'
p739
asbag48
(g69
g50
NtRp740
(dp741
g53
(dp742
g80
g81
ssg62
g731
sg55
(lp743
S':'
asbag48
(g69
g50
NtRp744
(dp745
g53
(dp746
sg62
g731
sg55
(lp747
g48
(g49
g50
NtRp748
(dp749
g53
(dp750
g61
I5
ssg62
g744
sg55
(lp751
g48
(g57
g50
NtRp752
(dp753
g53
(dp754
g61
I4
ssg62
Nsg55
(lp755
g48
(g64
g50
NtRp756
(dp757
g53
(dp758
sg62
g752
sg55
(lp759
g48
(g69
g50
NtRp760
(dp761
g53
(dp762
g73
g74
ssg62
g756
sg55
(lp763
S'app_folders'
p764
asbag48
(g69
g50
NtRp765
(dp766
g53
(dp767
g80
g81
ssg62
g756
sg55
(lp768
S':'
asbag48
(g69
g50
NtRp769
(dp770
g53
(dp771
sg62
g756
sg55
(lp772
g48
(g49
g50
NtRp773
(dp774
g53
(dp775
g61
I4
ssg62
g769
sg55
(lp776
S"set(['C:\\\\Users\\\\Atomico\\\\web2py\\\\applications\\\\welcome\\\\', 'C:\\\\Users\\\\Atomico\\\\web2py\\\\applications\\\\examples\\\\', 'C:\\\\Users\\\\Atomico\\\\web2py\\\\applications\\\\Desglosar_Emails\\\\', 'C:\\\\Users\\\\Atomico\\\\web2py\\\\applications\\\\admin\\\\'])"
p777
asbasbasbag48
(g64
g50
NtRp778
(dp779
g53
(dp780
sg62
g752
sg55
(lp781
g48
(g69
g50
NtRp782
(dp783
g53
(dp784
g73
g74
ssg62
g778
sg55
(lp785
S'applications_parent'
p786
asbag48
(g69
g50
NtRp787
(dp788
g53
(dp789
g80
g81
ssg62
g778
sg55
(lp790
S':'
asbag48
(g69
g50
NtRp791
(dp792
g53
(dp793
sg62
g778
sg55
(lp794
g48
(g49
g50
NtRp795
(dp796
g53
(dp797
g61
I4
ssg62
g791
sg55
(lp798
S'C:\\Users\\Atomico\\web2py'
p799
asbasbasbag48
(g64
g50
NtRp800
(dp801
g53
(dp802
sg62
g752
sg55
(lp803
g48
(g69
g50
NtRp804
(dp805
g53
(dp806
g73
g74
ssg62
g800
sg55
(lp807
S'cmd_args'
p808
asbag48
(g69
g50
NtRp809
(dp810
g53
(dp811
g80
g81
ssg62
g800
sg55
(lp812
S':'
asbag48
(g69
g50
NtRp813
(dp814
g53
(dp815
sg62
g800
sg55
(lp816
g48
(g49
g50
NtRp817
(dp818
g53
(dp819
g61
I4
ssg62
g813
sg55
(lp820
g48
(g57
g50
NtRp821
(dp822
g53
(dp823
g61
I3
ssg62
Nsg55
(lp824
sbasbasbasbag48
(g64
g50
NtRp825
(dp826
g53
(dp827
sg62
g752
sg55
(lp828
g48
(g69
g50
NtRp829
(dp830
g53
(dp831
g73
g74
ssg62
g825
sg55
(lp832
S'cmd_options'
p833
asbag48
(g69
g50
NtRp834
(dp835
g53
(dp836
g80
g81
ssg62
g825
sg55
(lp837
S':'
asbag48
(g69
g50
NtRp838
(dp839
g53
(dp840
sg62
g825
sg55
(lp841
g48
(g49
g50
NtRp842
(dp843
g53
(dp844
g61
I4
ssg62
g838
sg55
(lp845
S"<Values at 0x30f55d0: {'verbose': False, 'ip': '127.0.0.1', 'shutdown_timeout': 5, 'taskbar': False, 'port': 8000, 'maxthreads': None, 'softcron': False, 'server_name': 'Swing', 'bpython': False, 'nogui': False, 'nocron': False, 'extcron': False, 'debuglevel': 30, 'test': None, 'folder': 'C:\\\\Users\\\\Atomico\\\\web2py', 'config': '', 'import_models': False, 'winservice': '', 'shell': None, 'run': '', 'log_filename': 'httpserver.log', 'args': [''], 'profiler_filename': None, 'ssl_private_key': '', 'password': '<ask>', 'request_queue_size': 5, 'ssl_certificate': '', 'cronjob': False, 'plain': False, 'quiet': False, 'interfaces': None, 'minthreads': None, 'timeout': 10, 'numthreads': None, 'nobanner': False, 'pid_filename': 'httpserver.pid'}>"
p846
asbasbasbag48
(g64
g50
NtRp847
(dp848
g53
(dp849
sg62
g752
sg55
(lp850
g48
(g69
g50
NtRp851
(dp852
g53
(dp853
g73
g74
ssg62
g847
sg55
(lp854
S'db_sessions'
p855
asbag48
(g69
g50
NtRp856
(dp857
g53
(dp858
g80
g81
ssg62
g847
sg55
(lp859
S':'
asbag48
(g69
g50
NtRp860
(dp861
g53
(dp862
sg62
g847
sg55
(lp863
g48
(g49
g50
NtRp864
(dp865
g53
(dp866
g61
I4
ssg62
g860
sg55
(lp867
S'set([])'
p868
asbasbasbag48
(g64
g50
NtRp869
(dp870
g53
(dp871
sg62
g752
sg55
(lp872
g48
(g69
g50
NtRp873
(dp874
g53
(dp875
g73
g74
ssg62
g869
sg55
(lp876
S'debugging'
p877
asbag48
(g69
g50
NtRp878
(dp879
g53
(dp880
g80
g81
ssg62
g869
sg55
(lp881
S':'
asbag48
(g69
g50
NtRp882
(dp883
g53
(dp884
sg62
g869
sg55
(lp885
g48
(g49
g50
NtRp886
(dp887
g53
(dp888
g61
I4
ssg62
g882
sg55
(lp889
g91
asbasbasbag48
(g64
g50
NtRp890
(dp891
g53
(dp892
sg62
g752
sg55
(lp893
g48
(g69
g50
NtRp894
(dp895
g53
(dp896
g73
g74
ssg62
g890
sg55
(lp897
S'gluon_parent'
p898
asbag48
(g69
g50
NtRp899
(dp900
g53
(dp901
g80
g81
ssg62
g890
sg55
(lp902
S':'
asbag48
(g69
g50
NtRp903
(dp904
g53
(dp905
sg62
g890
sg55
(lp906
g48
(g49
g50
NtRp907
(dp908
g53
(dp909
g61
I4
ssg62
g903
sg55
(lp910
S'C:\\Users\\Atomico\\web2py'
p911
asbasbasbag48
(g64
g50
NtRp912
(dp913
g53
(dp914
sg62
g752
sg55
(lp915
g48
(g69
g50
NtRp916
(dp917
g53
(dp918
g73
g74
ssg62
g912
sg55
(lp919
S'http_accept'
p920
asbag48
(g69
g50
NtRp921
(dp922
g53
(dp923
g80
g81
ssg62
g912
sg55
(lp924
S':'
asbag48
(g69
g50
NtRp925
(dp926
g53
(dp927
sg62
g912
sg55
(lp928
g48
(g49
g50
NtRp929
(dp930
g53
(dp931
g61
I4
ssg62
g925
sg55
(lp932
S'text/html,application/xhtml+xml,application/xml;q=0.9,*/*;q=0.8'
p933
asbasbasbag48
(g64
g50
NtRp934
(dp935
g53
(dp936
sg62
g752
sg55
(lp937
g48
(g69
g50
NtRp938
(dp939
g53
(dp940
g73
g74
ssg62
g934
sg55
(lp941
S'http_accept_charset'
p942
asbag48
(g69
g50
NtRp943
(dp944
g53
(dp945
g80
g81
ssg62
g934
sg55
(lp946
S':'
asbag48
(g69
g50
NtRp947
(dp948
g53
(dp949
sg62
g934
sg55
(lp950
g48
(g49
g50
NtRp951
(dp952
g53
(dp953
g61
I4
ssg62
g947
sg55
(lp954
S'ISO-8859-1,utf-8;q=0.7,*;q=0.7'
p955
asbasbasbag48
(g64
g50
NtRp956
(dp957
g53
(dp958
sg62
g752
sg55
(lp959
g48
(g69
g50
NtRp960
(dp961
g53
(dp962
g73
g74
ssg62
g956
sg55
(lp963
S'http_accept_encoding'
p964
asbag48
(g69
g50
NtRp965
(dp966
g53
(dp967
g80
g81
ssg62
g956
sg55
(lp968
S':'
asbag48
(g69
g50
NtRp969
(dp970
g53
(dp971
sg62
g956
sg55
(lp972
g48
(g49
g50
NtRp973
(dp974
g53
(dp975
g61
I4
ssg62
g969
sg55
(lp976
S'gzip, deflate'
p977
asbasbasbag48
(g64
g50
NtRp978
(dp979
g53
(dp980
sg62
g752
sg55
(lp981
g48
(g69
g50
NtRp982
(dp983
g53
(dp984
g73
g74
ssg62
g978
sg55
(lp985
S'http_accept_language'
p986
asbag48
(g69
g50
NtRp987
(dp988
g53
(dp989
g80
g81
ssg62
g978
sg55
(lp990
S':'
asbag48
(g69
g50
NtRp991
(dp992
g53
(dp993
sg62
g978
sg55
(lp994
g48
(g49
g50
NtRp995
(dp996
g53
(dp997
g61
I4
ssg62
g991
sg55
(lp998
S'es-es,es;q=0.8,en-us;q=0.5,en;q=0.3'
p999
asbasbasbag48
(g64
g50
NtRp1000
(dp1001
g53
(dp1002
sg62
g752
sg55
(lp1003
g48
(g69
g50
NtRp1004
(dp1005
g53
(dp1006
g73
g74
ssg62
g1000
sg55
(lp1007
S'http_cache_control'
p1008
asbag48
(g69
g50
NtRp1009
(dp1010
g53
(dp1011
g80
g81
ssg62
g1000
sg55
(lp1012
S':'
asbag48
(g69
g50
NtRp1013
(dp1014
g53
(dp1015
sg62
g1000
sg55
(lp1016
g48
(g49
g50
NtRp1017
(dp1018
g53
(dp1019
g61
I4
ssg62
g1013
sg55
(lp1020
S'max-age=0'
p1021
asbasbasbag48
(g64
g50
NtRp1022
(dp1023
g53
(dp1024
sg62
g752
sg55
(lp1025
g48
(g69
g50
NtRp1026
(dp1027
g53
(dp1028
g73
g74
ssg62
g1022
sg55
(lp1029
S'http_connection'
p1030
asbag48
(g69
g50
NtRp1031
(dp1032
g53
(dp1033
g80
g81
ssg62
g1022
sg55
(lp1034
S':'
asbag48
(g69
g50
NtRp1035
(dp1036
g53
(dp1037
sg62
g1022
sg55
(lp1038
g48
(g49
g50
NtRp1039
(dp1040
g53
(dp1041
g61
I4
ssg62
g1035
sg55
(lp1042
S'keep-alive'
p1043
asbasbasbag48
(g64
g50
NtRp1044
(dp1045
g53
(dp1046
sg62
g752
sg55
(lp1047
g48
(g69
g50
NtRp1048
(dp1049
g53
(dp1050
g73
g74
ssg62
g1044
sg55
(lp1051
S'http_cookie'
p1052
asbag48
(g69
g50
NtRp1053
(dp1054
g53
(dp1055
g80
g81
ssg62
g1044
sg55
(lp1056
S':'
asbag48
(g69
g50
NtRp1057
(dp1058
g53
(dp1059
sg62
g1044
sg55
(lp1060
g48
(g49
g50
NtRp1061
(dp1062
g53
(dp1063
g61
I4
ssg62
g1057
sg55
(lp1064
S'session_id_welcome=127.0.0.1-376eb8b3-82de-4ca4-962a-cf914386adb5; session_id_admin=127.0.0.1-ab41072a-78d8-41d9-b0f6-43c9e78f0c91; session_id_desglosar_emails=127.0.0.1-78cf8050-df87-4502-afb9-ed0c3843b414'
p1065
asbasbasbag48
(g64
g50
NtRp1066
(dp1067
g53
(dp1068
sg62
g752
sg55
(lp1069
g48
(g69
g50
NtRp1070
(dp1071
g53
(dp1072
g73
g74
ssg62
g1066
sg55
(lp1073
S'http_host'
p1074
asbag48
(g69
g50
NtRp1075
(dp1076
g53
(dp1077
g80
g81
ssg62
g1066
sg55
(lp1078
S':'
asbag48
(g69
g50
NtRp1079
(dp1080
g53
(dp1081
sg62
g1066
sg55
(lp1082
g48
(g49
g50
NtRp1083
(dp1084
g53
(dp1085
g61
I4
ssg62
g1079
sg55
(lp1086
S'127.0.0.1:8000'
p1087
asbasbasbag48
(g64
g50
NtRp1088
(dp1089
g53
(dp1090
sg62
g752
sg55
(lp1091
g48
(g69
g50
NtRp1092
(dp1093
g53
(dp1094
g73
g74
ssg62
g1088
sg55
(lp1095
S'http_user_agent'
p1096
asbag48
(g69
g50
NtRp1097
(dp1098
g53
(dp1099
g80
g81
ssg62
g1088
sg55
(lp1100
S':'
asbag48
(g69
g50
NtRp1101
(dp1102
g53
(dp1103
sg62
g1088
sg55
(lp1104
g48
(g49
g50
NtRp1105
(dp1106
g53
(dp1107
g61
I4
ssg62
g1101
sg55
(lp1108
S'Mozilla/5.0 (Windows NT 6.1; WOW64; rv:6.0.2) Gecko/20100101 Firefox/6.0.2'
p1109
asbasbasbag48
(g64
g50
NtRp1110
(dp1111
g53
(dp1112
sg62
g752
sg55
(lp1113
g48
(g69
g50
NtRp1114
(dp1115
g53
(dp1116
g73
g74
ssg62
g1110
sg55
(lp1117
S'is_jython'
p1118
asbag48
(g69
g50
NtRp1119
(dp1120
g53
(dp1121
g80
g81
ssg62
g1110
sg55
(lp1122
S':'
asbag48
(g69
g50
NtRp1123
(dp1124
g53
(dp1125
sg62
g1110
sg55
(lp1126
g48
(g49
g50
NtRp1127
(dp1128
g53
(dp1129
g61
I4
ssg62
g1123
sg55
(lp1130
g91
asbasbasbag48
(g64
g50
NtRp1131
(dp1132
g53
(dp1133
sg62
g752
sg55
(lp1134
g48
(g69
g50
NtRp1135
(dp1136
g53
(dp1137
g73
g74
ssg62
g1131
sg55
(lp1138
S'path_info'
p1139
asbag48
(g69
g50
NtRp1140
(dp1141
g53
(dp1142
g80
g81
ssg62
g1131
sg55
(lp1143
S':'
asbag48
(g69
g50
NtRp1144
(dp1145
g53
(dp1146
sg62
g1131
sg55
(lp1147
g48
(g49
g50
NtRp1148
(dp1149
g53
(dp1150
g61
I4
ssg62
g1144
sg55
(lp1151
S'/Desglosar_Emails/default/entrada_mod3'
p1152
asbasbasbag48
(g64
g50
NtRp1153
(dp1154
g53
(dp1155
sg62
g752
sg55
(lp1156
g48
(g69
g50
NtRp1157
(dp1158
g53
(dp1159
g73
g74
ssg62
g1153
sg55
(lp1160
S'query_string'
p1161
asbag48
(g69
g50
NtRp1162
(dp1163
g53
(dp1164
g80
g81
ssg62
g1153
sg55
(lp1165
S':'
asbag48
(g69
g50
NtRp1166
(dp1167
g53
(dp1168
sg62
g1153
sg55
(lp1169
g48
(g49
g50
NtRp1170
(dp1171
g53
(dp1172
g61
I4
ssg62
g1166
sg55
(lp1173
S''
asbasbasbag48
(g64
g50
NtRp1174
(dp1175
g53
(dp1176
sg62
g752
sg55
(lp1177
g48
(g69
g50
NtRp1178
(dp1179
g53
(dp1180
g73
g74
ssg62
g1174
sg55
(lp1181
S'remote_addr'
p1182
asbag48
(g69
g50
NtRp1183
(dp1184
g53
(dp1185
g80
g81
ssg62
g1174
sg55
(lp1186
S':'
asbag48
(g69
g50
NtRp1187
(dp1188
g53
(dp1189
sg62
g1174
sg55
(lp1190
g48
(g49
g50
NtRp1191
(dp1192
g53
(dp1193
g61
I4
ssg62
g1187
sg55
(lp1194
g181
asbasbasbag48
(g64
g50
NtRp1195
(dp1196
g53
(dp1197
sg62
g752
sg55
(lp1198
g48
(g69
g50
NtRp1199
(dp1200
g53
(dp1201
g73
g74
ssg62
g1195
sg55
(lp1202
S'remote_port'
p1203
asbag48
(g69
g50
NtRp1204
(dp1205
g53
(dp1206
g80
g81
ssg62
g1195
sg55
(lp1207
S':'
asbag48
(g69
g50
NtRp1208
(dp1209
g53
(dp1210
sg62
g1195
sg55
(lp1211
g48
(g49
g50
NtRp1212
(dp1213
g53
(dp1214
g61
I4
ssg62
g1208
sg55
(lp1215
S'61373'
p1216
asbasbasbag48
(g64
g50
NtRp1217
(dp1218
g53
(dp1219
sg62
g752
sg55
(lp1220
g48
(g69
g50
NtRp1221
(dp1222
g53
(dp1223
g73
g74
ssg62
g1217
sg55
(lp1224
S'request_method'
p1225
asbag48
(g69
g50
NtRp1226
(dp1227
g53
(dp1228
g80
g81
ssg62
g1217
sg55
(lp1229
S':'
asbag48
(g69
g50
NtRp1230
(dp1231
g53
(dp1232
sg62
g1217
sg55
(lp1233
g48
(g49
g50
NtRp1234
(dp1235
g53
(dp1236
g61
I4
ssg62
g1230
sg55
(lp1237
S'GET'
p1238
asbasbasbag48
(g64
g50
NtRp1239
(dp1240
g53
(dp1241
sg62
g752
sg55
(lp1242
g48
(g69
g50
NtRp1243
(dp1244
g53
(dp1245
g73
g74
ssg62
g1239
sg55
(lp1246
S'script_name'
p1247
asbag48
(g69
g50
NtRp1248
(dp1249
g53
(dp1250
g80
g81
ssg62
g1239
sg55
(lp1251
S':'
asbag48
(g69
g50
NtRp1252
(dp1253
g53
(dp1254
sg62
g1239
sg55
(lp1255
g48
(g49
g50
NtRp1256
(dp1257
g53
(dp1258
g61
I4
ssg62
g1252
sg55
(lp1259
S''
asbasbasbag48
(g64
g50
NtRp1260
(dp1261
g53
(dp1262
sg62
g752
sg55
(lp1263
g48
(g69
g50
NtRp1264
(dp1265
g53
(dp1266
g73
g74
ssg62
g1260
sg55
(lp1267
S'server_name'
p1268
asbag48
(g69
g50
NtRp1269
(dp1270
g53
(dp1271
g80
g81
ssg62
g1260
sg55
(lp1272
S':'
asbag48
(g69
g50
NtRp1273
(dp1274
g53
(dp1275
sg62
g1260
sg55
(lp1276
g48
(g49
g50
NtRp1277
(dp1278
g53
(dp1279
g61
I4
ssg62
g1273
sg55
(lp1280
S'Swing'
p1281
asbasbasbag48
(g64
g50
NtRp1282
(dp1283
g53
(dp1284
sg62
g752
sg55
(lp1285
g48
(g69
g50
NtRp1286
(dp1287
g53
(dp1288
g73
g74
ssg62
g1282
sg55
(lp1289
S'server_port'
p1290
asbag48
(g69
g50
NtRp1291
(dp1292
g53
(dp1293
g80
g81
ssg62
g1282
sg55
(lp1294
S':'
asbag48
(g69
g50
NtRp1295
(dp1296
g53
(dp1297
sg62
g1282
sg55
(lp1298
g48
(g49
g50
NtRp1299
(dp1300
g53
(dp1301
g61
I4
ssg62
g1295
sg55
(lp1302
S'8000'
p1303
asbasbasbag48
(g64
g50
NtRp1304
(dp1305
g53
(dp1306
sg62
g752
sg55
(lp1307
g48
(g69
g50
NtRp1308
(dp1309
g53
(dp1310
g73
g74
ssg62
g1304
sg55
(lp1311
S'server_protocol'
p1312
asbag48
(g69
g50
NtRp1313
(dp1314
g53
(dp1315
g80
g81
ssg62
g1304
sg55
(lp1316
S':'
asbag48
(g69
g50
NtRp1317
(dp1318
g53
(dp1319
sg62
g1304
sg55
(lp1320
g48
(g49
g50
NtRp1321
(dp1322
g53
(dp1323
g61
I4
ssg62
g1317
sg55
(lp1324
S'HTTP/1.1'
p1325
asbasbasbag48
(g64
g50
NtRp1326
(dp1327
g53
(dp1328
sg62
g752
sg55
(lp1329
g48
(g69
g50
NtRp1330
(dp1331
g53
(dp1332
g73
g74
ssg62
g1326
sg55
(lp1333
S'server_software'
p1334
asbag48
(g69
g50
NtRp1335
(dp1336
g53
(dp1337
g80
g81
ssg62
g1326
sg55
(lp1338
S':'
asbag48
(g69
g50
NtRp1339
(dp1340
g53
(dp1341
sg62
g1326
sg55
(lp1342
g48
(g49
g50
NtRp1343
(dp1344
g53
(dp1345
g61
I4
ssg62
g1339
sg55
(lp1346
S'Rocket 1.2.2'
p1347
asbasbasbag48
(g64
g50
NtRp1348
(dp1349
g53
(dp1350
sg62
g752
sg55
(lp1351
g48
(g69
g50
NtRp1352
(dp1353
g53
(dp1354
g73
g74
ssg62
g1348
sg55
(lp1355
S'web2py_crontype'
p1356
asbag48
(g69
g50
NtRp1357
(dp1358
g53
(dp1359
g80
g81
ssg62
g1348
sg55
(lp1360
S':'
asbag48
(g69
g50
NtRp1361
(dp1362
g53
(dp1363
sg62
g1348
sg55
(lp1364
g48
(g49
g50
NtRp1365
(dp1366
g53
(dp1367
g61
I4
ssg62
g1361
sg55
(lp1368
S'hard'
p1369
asbasbasbag48
(g64
g50
NtRp1370
(dp1371
g53
(dp1372
sg62
g752
sg55
(lp1373
g48
(g69
g50
NtRp1374
(dp1375
g53
(dp1376
g73
g74
ssg62
g1370
sg55
(lp1377
S'web2py_path'
p1378
asbag48
(g69
g50
NtRp1379
(dp1380
g53
(dp1381
g80
g81
ssg62
g1370
sg55
(lp1382
S':'
asbag48
(g69
g50
NtRp1383
(dp1384
g53
(dp1385
sg62
g1370
sg55
(lp1386
g48
(g49
g50
NtRp1387
(dp1388
g53
(dp1389
g61
I4
ssg62
g1383
sg55
(lp1390
g799
asbasbasbag48
(g64
g50
NtRp1391
(dp1392
g53
(dp1393
sg62
g752
sg55
(lp1394
g48
(g69
g50
NtRp1395
(dp1396
g53
(dp1397
g73
g74
ssg62
g1391
sg55
(lp1398
S'web2py_version'
p1399
asbag48
(g69
g50
NtRp1400
(dp1401
g53
(dp1402
g80
g81
ssg62
g1391
sg55
(lp1403
S':'
asbag48
(g69
g50
NtRp1404
(dp1405
g53
(dp1406
sg62
g1391
sg55
(lp1407
g48
(g49
g50
NtRp1408
(dp1409
g53
(dp1410
g61
I4
ssg62
g1404
sg55
(lp1411
S'Version 1.98.2 (2011-08-04 00:47:09)\n'
p1412
asbasbasbag48
(g64
g50
NtRp1413
(dp1414
g53
(dp1415
sg62
g752
sg55
(lp1416
g48
(g69
g50
NtRp1417
(dp1418
g53
(dp1419
g73
g74
ssg62
g1413
sg55
(lp1420
S'wsgi_errors'
p1421
asbag48
(g69
g50
NtRp1422
(dp1423
g53
(dp1424
g80
g81
ssg62
g1413
sg55
(lp1425
S':'
asbag48
(g69
g50
NtRp1426
(dp1427
g53
(dp1428
sg62
g1413
sg55
(lp1429
g48
(g49
g50
NtRp1430
(dp1431
g53
(dp1432
g61
I4
ssg62
g1426
sg55
(lp1433
S"<open file '<stderr>', mode 'w' at 0x01F200B0>"
p1434
asbasbasbag48
(g64
g50
NtRp1435
(dp1436
g53
(dp1437
sg62
g752
sg55
(lp1438
g48
(g69
g50
NtRp1439
(dp1440
g53
(dp1441
g73
g74
ssg62
g1435
sg55
(lp1442
S'wsgi_file_wrapper'
p1443
asbag48
(g69
g50
NtRp1444
(dp1445
g53
(dp1446
g80
g81
ssg62
g1435
sg55
(lp1447
S':'
asbag48
(g69
g50
NtRp1448
(dp1449
g53
(dp1450
sg62
g1435
sg55
(lp1451
g48
(g49
g50
NtRp1452
(dp1453
g53
(dp1454
g61
I4
ssg62
g1448
sg55
(lp1455
S'<class gluon.rocket.FileWrapper at 0x0307F1B0>'
p1456
asbasbasbag48
(g64
g50
NtRp1457
(dp1458
g53
(dp1459
sg62
g752
sg55
(lp1460
g48
(g69
g50
NtRp1461
(dp1462
g53
(dp1463
g73
g74
ssg62
g1457
sg55
(lp1464
S'wsgi_input'
p1465
asbag48
(g69
g50
NtRp1466
(dp1467
g53
(dp1468
g80
g81
ssg62
g1457
sg55
(lp1469
S':'
asbag48
(g69
g50
NtRp1470
(dp1471
g53
(dp1472
sg62
g1457
sg55
(lp1473
g48
(g49
g50
NtRp1474
(dp1475
g53
(dp1476
g61
I4
ssg62
g1470
sg55
(lp1477
S'<socket._fileobject object at 0x08517830>'
p1478
asbasbasbag48
(g64
g50
NtRp1479
(dp1480
g53
(dp1481
sg62
g752
sg55
(lp1482
g48
(g69
g50
NtRp1483
(dp1484
g53
(dp1485
g73
g74
ssg62
g1479
sg55
(lp1486
S'wsgi_multiprocess'
p1487
asbag48
(g69
g50
NtRp1488
(dp1489
g53
(dp1490
g80
g81
ssg62
g1479
sg55
(lp1491
S':'
asbag48
(g69
g50
NtRp1492
(dp1493
g53
(dp1494
sg62
g1479
sg55
(lp1495
g48
(g49
g50
NtRp1496
(dp1497
g53
(dp1498
g61
I4
ssg62
g1492
sg55
(lp1499
g91
asbasbasbag48
(g64
g50
NtRp1500
(dp1501
g53
(dp1502
sg62
g752
sg55
(lp1503
g48
(g69
g50
NtRp1504
(dp1505
g53
(dp1506
g73
g74
ssg62
g1500
sg55
(lp1507
S'wsgi_multithread'
p1508
asbag48
(g69
g50
NtRp1509
(dp1510
g53
(dp1511
g80
g81
ssg62
g1500
sg55
(lp1512
S':'
asbag48
(g69
g50
NtRp1513
(dp1514
g53
(dp1515
sg62
g1500
sg55
(lp1516
g48
(g49
g50
NtRp1517
(dp1518
g53
(dp1519
g61
I4
ssg62
g1513
sg55
(lp1520
S'True'
p1521
asbasbasbag48
(g64
g50
NtRp1522
(dp1523
g53
(dp1524
sg62
g752
sg55
(lp1525
g48
(g69
g50
NtRp1526
(dp1527
g53
(dp1528
g73
g74
ssg62
g1522
sg55
(lp1529
S'wsgi_run_once'
p1530
asbag48
(g69
g50
NtRp1531
(dp1532
g53
(dp1533
g80
g81
ssg62
g1522
sg55
(lp1534
S':'
asbag48
(g69
g50
NtRp1535
(dp1536
g53
(dp1537
sg62
g1522
sg55
(lp1538
g48
(g49
g50
NtRp1539
(dp1540
g53
(dp1541
g61
I4
ssg62
g1535
sg55
(lp1542
g91
asbasbasbag48
(g64
g50
NtRp1543
(dp1544
g53
(dp1545
sg62
g752
sg55
(lp1546
g48
(g69
g50
NtRp1547
(dp1548
g53
(dp1549
g73
g74
ssg62
g1543
sg55
(lp1550
S'wsgi_url_scheme'
p1551
asbag48
(g69
g50
NtRp1552
(dp1553
g53
(dp1554
g80
g81
ssg62
g1543
sg55
(lp1555
S':'
asbag48
(g69
g50
NtRp1556
(dp1557
g53
(dp1558
sg62
g1543
sg55
(lp1559
g48
(g49
g50
NtRp1560
(dp1561
g53
(dp1562
g61
I4
ssg62
g1556
sg55
(lp1563
S'http'
p1564
asbasbasbag48
(g64
g50
NtRp1565
(dp1566
g53
(dp1567
sg62
g752
sg55
(lp1568
g48
(g69
g50
NtRp1569
(dp1570
g53
(dp1571
g73
g74
ssg62
g1565
sg55
(lp1572
S'wsgi_version'
p1573
asbag48
(g69
g50
NtRp1574
(dp1575
g53
(dp1576
g80
g81
ssg62
g1565
sg55
(lp1577
S':'
asbag48
(g69
g50
NtRp1578
(dp1579
g53
(dp1580
sg62
g1565
sg55
(lp1581
g48
(g49
g50
NtRp1582
(dp1583
g53
(dp1584
g61
I4
ssg62
g1578
sg55
(lp1585
g48
(g57
g50
NtRp1586
(dp1587
g53
(dp1588
g61
I3
ssg62
Nsg55
(lp1589
g48
(g64
g50
NtRp1590
(dp1591
g53
(dp1592
sg62
g1586
sg55
(lp1593
g48
(g69
g50
NtRp1594
(dp1595
g53
(dp1596
sg62
g1590
sg55
(lp1597
g48
(g49
g50
NtRp1598
(dp1599
g53
(dp1600
g61
I3
ssg62
g1594
sg55
(lp1601
S'1'
asbasbasbag48
(g64
g50
NtRp1602
(dp1603
g53
(dp1604
sg62
g1586
sg55
(lp1605
g48
(g69
g50
NtRp1606
(dp1607
g53
(dp1608
sg62
g1602
sg55
(lp1609
g48
(g49
g50
NtRp1610
(dp1611
g53
(dp1612
g61
I3
ssg62
g1606
sg55
(lp1613
S'0'
asbasbasbasbasbasbasbasbasbasbasbag48
(g64
g50
NtRp1614
(dp1615
g53
(dp1616
sg62
g58
sg55
(lp1617
g48
(g69
g50
NtRp1618
(dp1619
g53
(dp1620
g73
g74
ssg62
g1614
sg55
(lp1621
S'extension'
p1622
asbag48
(g69
g50
NtRp1623
(dp1624
g53
(dp1625
g80
g81
ssg62
g1614
sg55
(lp1626
S':'
asbag48
(g69
g50
NtRp1627
(dp1628
g53
(dp1629
sg62
g1614
sg55
(lp1630
g48
(g49
g50
NtRp1631
(dp1632
g53
(dp1633
g61
I5
ssg62
g1627
sg55
(lp1634
S'html'
p1635
asbasbasbag48
(g64
g50
NtRp1636
(dp1637
g53
(dp1638
sg62
g58
sg55
(lp1639
g48
(g69
g50
NtRp1640
(dp1641
g53
(dp1642
g73
g74
ssg62
g1636
sg55
(lp1643
S'folder'
p1644
asbag48
(g69
g50
NtRp1645
(dp1646
g53
(dp1647
g80
g81
ssg62
g1636
sg55
(lp1648
S':'
asbag48
(g69
g50
NtRp1649
(dp1650
g53
(dp1651
sg62
g1636
sg55
(lp1652
g48
(g49
g50
NtRp1653
(dp1654
g53
(dp1655
g61
I5
ssg62
g1649
sg55
(lp1656
S'C:\\Users\\Atomico\\web2py\\applications\\Desglosar_Emails\\'
p1657
asbasbasbag48
(g64
g50
NtRp1658
(dp1659
g53
(dp1660
sg62
g58
sg55
(lp1661
g48
(g69
g50
NtRp1662
(dp1663
g53
(dp1664
g73
g74
ssg62
g1658
sg55
(lp1665
S'function'
p1666
asbag48
(g69
g50
NtRp1667
(dp1668
g53
(dp1669
g80
g81
ssg62
g1658
sg55
(lp1670
S':'
asbag48
(g69
g50
NtRp1671
(dp1672
g53
(dp1673
sg62
g1658
sg55
(lp1674
g48
(g49
g50
NtRp1675
(dp1676
g53
(dp1677
g61
I5
ssg62
g1671
sg55
(lp1678
S'entrada_mod3'
p1679
asbasbasbag48
(g64
g50
NtRp1680
(dp1681
g53
(dp1682
sg62
g58
sg55
(lp1683
g48
(g69
g50
NtRp1684
(dp1685
g53
(dp1686
g73
g74
ssg62
g1680
sg55
(lp1687
S'get_vars'
p1688
asbag48
(g69
g50
NtRp1689
(dp1690
g53
(dp1691
g80
g81
ssg62
g1680
sg55
(lp1692
S':'
asbag48
(g69
g50
NtRp1693
(dp1694
g53
(dp1695
sg62
g1680
sg55
(lp1696
g48
(g49
g50
NtRp1697
(dp1698
g53
(dp1699
g61
I5
ssg62
g1693
sg55
(lp1700
g48
(g57
g50
NtRp1701
(dp1702
g53
(dp1703
g61
I4
ssg62
Nsg55
(lp1704
sbasbasbasbag48
(g64
g50
NtRp1705
(dp1706
g53
(dp1707
sg62
g58
sg55
(lp1708
g48
(g69
g50
NtRp1709
(dp1710
g53
(dp1711
g73
g74
ssg62
g1705
sg55
(lp1712
S'is_https'
p1713
asbag48
(g69
g50
NtRp1714
(dp1715
g53
(dp1716
g80
g81
ssg62
g1705
sg55
(lp1717
S':'
asbag48
(g69
g50
NtRp1718
(dp1719
g53
(dp1720
sg62
g1705
sg55
(lp1721
g48
(g49
g50
NtRp1722
(dp1723
g53
(dp1724
g61
I5
ssg62
g1718
sg55
(lp1725
g91
asbasbasbag48
(g64
g50
NtRp1726
(dp1727
g53
(dp1728
sg62
g58
sg55
(lp1729
g48
(g69
g50
NtRp1730
(dp1731
g53
(dp1732
g73
g74
ssg62
g1726
sg55
(lp1733
S'is_local'
p1734
asbag48
(g69
g50
NtRp1735
(dp1736
g53
(dp1737
g80
g81
ssg62
g1726
sg55
(lp1738
S':'
asbag48
(g69
g50
NtRp1739
(dp1740
g53
(dp1741
sg62
g1726
sg55
(lp1742
g48
(g49
g50
NtRp1743
(dp1744
g53
(dp1745
g61
I5
ssg62
g1739
sg55
(lp1746
g1521
asbasbasbag48
(g64
g50
NtRp1747
(dp1748
g53
(dp1749
sg62
g58
sg55
(lp1750
g48
(g69
g50
NtRp1751
(dp1752
g53
(dp1753
g73
g74
ssg62
g1747
sg55
(lp1754
S'is_restful'
p1755
asbag48
(g69
g50
NtRp1756
(dp1757
g53
(dp1758
g80
g81
ssg62
g1747
sg55
(lp1759
S':'
asbag48
(g69
g50
NtRp1760
(dp1761
g53
(dp1762
sg62
g1747
sg55
(lp1763
g48
(g49
g50
NtRp1764
(dp1765
g53
(dp1766
g61
I5
ssg62
g1760
sg55
(lp1767
g91
asbasbasbag48
(g64
g50
NtRp1768
(dp1769
g53
(dp1770
sg62
g58
sg55
(lp1771
g48
(g69
g50
NtRp1772
(dp1773
g53
(dp1774
g73
g74
ssg62
g1768
sg55
(lp1775
S'now'
p1776
asbag48
(g69
g50
NtRp1777
(dp1778
g53
(dp1779
g80
g81
ssg62
g1768
sg55
(lp1780
S':'
asbag48
(g69
g50
NtRp1781
(dp1782
g53
(dp1783
sg62
g1768
sg55
(lp1784
g48
(g49
g50
NtRp1785
(dp1786
g53
(dp1787
g61
I5
ssg62
g1781
sg55
(lp1788
S'datetime.datetime(2011, 9, 20, 11, 59, 29, 155000)'
p1789
asbasbasbag48
(g64
g50
NtRp1790
(dp1791
g53
(dp1792
sg62
g58
sg55
(lp1793
g48
(g69
g50
NtRp1794
(dp1795
g53
(dp1796
g73
g74
ssg62
g1790
sg55
(lp1797
S'post_vars'
p1798
asbag48
(g69
g50
NtRp1799
(dp1800
g53
(dp1801
g80
g81
ssg62
g1790
sg55
(lp1802
S':'
asbag48
(g69
g50
NtRp1803
(dp1804
g53
(dp1805
sg62
g1790
sg55
(lp1806
g48
(g49
g50
NtRp1807
(dp1808
g53
(dp1809
g61
I5
ssg62
g1803
sg55
(lp1810
g48
(g57
g50
NtRp1811
(dp1812
g53
(dp1813
g61
I4
ssg62
Nsg55
(lp1814
sbasbasbasbag48
(g64
g50
NtRp1815
(dp1816
g53
(dp1817
sg62
g58
sg55
(lp1818
g48
(g69
g50
NtRp1819
(dp1820
g53
(dp1821
g73
g74
ssg62
g1815
sg55
(lp1822
S'url'
p1823
asbag48
(g69
g50
NtRp1824
(dp1825
g53
(dp1826
g80
g81
ssg62
g1815
sg55
(lp1827
S':'
asbag48
(g69
g50
NtRp1828
(dp1829
g53
(dp1830
sg62
g1815
sg55
(lp1831
g48
(g49
g50
NtRp1832
(dp1833
g53
(dp1834
g61
I5
ssg62
g1828
sg55
(lp1835
S'/Desglosar_Emails/default/entrada_mod3'
p1836
asbasbasbag48
(g64
g50
NtRp1837
(dp1838
g53
(dp1839
sg62
g58
sg55
(lp1840
g48
(g69
g50
NtRp1841
(dp1842
g53
(dp1843
g73
g74
ssg62
g1837
sg55
(lp1844
S'uuid'
p1845
asbag48
(g69
g50
NtRp1846
(dp1847
g53
(dp1848
g80
g81
ssg62
g1837
sg55
(lp1849
S':'
asbag48
(g69
g50
NtRp1850
(dp1851
g53
(dp1852
sg62
g1837
sg55
(lp1853
g48
(g49
g50
NtRp1854
(dp1855
g53
(dp1856
g61
I5
ssg62
g1850
sg55
(lp1857
S'Desglosar_Emails/127.0.0.1.2011-09-20.11-59-29.66f2e028-f7aa-4706-854d-034d14b30e5c'
p1858
asbasbasbag48
(g64
g50
NtRp1859
(dp1860
g53
(dp1861
sg62
g58
sg55
(lp1862
g48
(g69
g50
NtRp1863
(dp1864
g53
(dp1865
g73
g74
ssg62
g1859
sg55
(lp1866
S'vars'
p1867
asbag48
(g69
g50
NtRp1868
(dp1869
g53
(dp1870
g80
g81
ssg62
g1859
sg55
(lp1871
S':'
asbag48
(g69
g50
NtRp1872
(dp1873
g53
(dp1874
sg62
g1859
sg55
(lp1875
g48
(g49
g50
NtRp1876
(dp1877
g53
(dp1878
g61
I5
ssg62
g1872
sg55
(lp1879
g48
(g57
g50
NtRp1880
(dp1881
g53
(dp1882
g61
I4
ssg62
Nsg55
(lp1883
sbasbasbasbag48
(g64
g50
NtRp1884
(dp1885
g53
(dp1886
sg62
g58
sg55
(lp1887
g48
(g69
g50
NtRp1888
(dp1889
g53
(dp1890
g73
g74
ssg62
g1884
sg55
(lp1891
S'wsgi'
p1892
asbag48
(g69
g50
NtRp1893
(dp1894
g53
(dp1895
g80
g81
ssg62
g1884
sg55
(lp1896
S':'
asbag48
(g69
g50
NtRp1897
(dp1898
g53
(dp1899
sg62
g1884
sg55
(lp1900
g48
(g49
g50
NtRp1901
(dp1902
g53
(dp1903
g61
I5
ssg62
g1897
sg55
(lp1904
g48
(g57
g50
NtRp1905
(dp1906
g53
(dp1907
g61
I4
ssg62
Nsg55
(lp1908
g48
(g64
g50
NtRp1909
(dp1910
g53
(dp1911
sg62
g1905
sg55
(lp1912
g48
(g69
g50
NtRp1913
(dp1914
g53
(dp1915
g73
g74
ssg62
g1909
sg55
(lp1916
S'environ'
p1917
asbag48
(g69
g50
NtRp1918
(dp1919
g53
(dp1920
g80
g81
ssg62
g1909
sg55
(lp1921
S':'
asbag48
(g69
g50
NtRp1922
(dp1923
g53
(dp1924
sg62
g1909
sg55
(lp1925
g48
(g49
g50
NtRp1926
(dp1927
g53
(dp1928
g61
I4
ssg62
g1922
sg55
(lp1929
g48
(g57
g50
NtRp1930
(dp1931
g53
(dp1932
g61
I3
ssg62
Nsg55
(lp1933
g48
(g64
g50
NtRp1934
(dp1935
g53
(dp1936
sg62
g1930
sg55
(lp1937
g48
(g69
g50
NtRp1938
(dp1939
g53
(dp1940
g73
g74
ssg62
g1934
sg55
(lp1941
S'HTTP_ACCEPT'
p1942
asbag48
(g69
g50
NtRp1943
(dp1944
g53
(dp1945
g80
g81
ssg62
g1934
sg55
(lp1946
S':'
asbag48
(g69
g50
NtRp1947
(dp1948
g53
(dp1949
sg62
g1934
sg55
(lp1950
g48
(g49
g50
NtRp1951
(dp1952
g53
(dp1953
g61
I3
ssg62
g1947
sg55
(lp1954
g933
asbasbasbag48
(g64
g50
NtRp1955
(dp1956
g53
(dp1957
sg62
g1930
sg55
(lp1958
g48
(g69
g50
NtRp1959
(dp1960
g53
(dp1961
g73
g74
ssg62
g1955
sg55
(lp1962
S'HTTP_ACCEPT_CHARSET'
p1963
asbag48
(g69
g50
NtRp1964
(dp1965
g53
(dp1966
g80
g81
ssg62
g1955
sg55
(lp1967
S':'
asbag48
(g69
g50
NtRp1968
(dp1969
g53
(dp1970
sg62
g1955
sg55
(lp1971
g48
(g49
g50
NtRp1972
(dp1973
g53
(dp1974
g61
I3
ssg62
g1968
sg55
(lp1975
g955
asbasbasbag48
(g64
g50
NtRp1976
(dp1977
g53
(dp1978
sg62
g1930
sg55
(lp1979
g48
(g69
g50
NtRp1980
(dp1981
g53
(dp1982
g73
g74
ssg62
g1976
sg55
(lp1983
S'HTTP_ACCEPT_ENCODING'
p1984
asbag48
(g69
g50
NtRp1985
(dp1986
g53
(dp1987
g80
g81
ssg62
g1976
sg55
(lp1988
S':'
asbag48
(g69
g50
NtRp1989
(dp1990
g53
(dp1991
sg62
g1976
sg55
(lp1992
g48
(g49
g50
NtRp1993
(dp1994
g53
(dp1995
g61
I3
ssg62
g1989
sg55
(lp1996
g977
asbasbasbag48
(g64
g50
NtRp1997
(dp1998
g53
(dp1999
sg62
g1930
sg55
(lp2000
g48
(g69
g50
NtRp2001
(dp2002
g53
(dp2003
g73
g74
ssg62
g1997
sg55
(lp2004
S'HTTP_ACCEPT_LANGUAGE'
p2005
asbag48
(g69
g50
NtRp2006
(dp2007
g53
(dp2008
g80
g81
ssg62
g1997
sg55
(lp2009
S':'
asbag48
(g69
g50
NtRp2010
(dp2011
g53
(dp2012
sg62
g1997
sg55
(lp2013
g48
(g49
g50
NtRp2014
(dp2015
g53
(dp2016
g61
I3
ssg62
g2010
sg55
(lp2017
g999
asbasbasbag48
(g64
g50
NtRp2018
(dp2019
g53
(dp2020
sg62
g1930
sg55
(lp2021
g48
(g69
g50
NtRp2022
(dp2023
g53
(dp2024
g73
g74
ssg62
g2018
sg55
(lp2025
S'HTTP_CACHE_CONTROL'
p2026
asbag48
(g69
g50
NtRp2027
(dp2028
g53
(dp2029
g80
g81
ssg62
g2018
sg55
(lp2030
S':'
asbag48
(g69
g50
NtRp2031
(dp2032
g53
(dp2033
sg62
g2018
sg55
(lp2034
g48
(g49
g50
NtRp2035
(dp2036
g53
(dp2037
g61
I3
ssg62
g2031
sg55
(lp2038
g1021
asbasbasbag48
(g64
g50
NtRp2039
(dp2040
g53
(dp2041
sg62
g1930
sg55
(lp2042
g48
(g69
g50
NtRp2043
(dp2044
g53
(dp2045
g73
g74
ssg62
g2039
sg55
(lp2046
S'HTTP_CONNECTION'
p2047
asbag48
(g69
g50
NtRp2048
(dp2049
g53
(dp2050
g80
g81
ssg62
g2039
sg55
(lp2051
S':'
asbag48
(g69
g50
NtRp2052
(dp2053
g53
(dp2054
sg62
g2039
sg55
(lp2055
g48
(g49
g50
NtRp2056
(dp2057
g53
(dp2058
g61
I3
ssg62
g2052
sg55
(lp2059
g1043
asbasbasbag48
(g64
g50
NtRp2060
(dp2061
g53
(dp2062
sg62
g1930
sg55
(lp2063
g48
(g69
g50
NtRp2064
(dp2065
g53
(dp2066
g73
g74
ssg62
g2060
sg55
(lp2067
S'HTTP_COOKIE'
p2068
asbag48
(g69
g50
NtRp2069
(dp2070
g53
(dp2071
g80
g81
ssg62
g2060
sg55
(lp2072
S':'
asbag48
(g69
g50
NtRp2073
(dp2074
g53
(dp2075
sg62
g2060
sg55
(lp2076
g48
(g49
g50
NtRp2077
(dp2078
g53
(dp2079
g61
I3
ssg62
g2073
sg55
(lp2080
g1065
asbasbasbag48
(g64
g50
NtRp2081
(dp2082
g53
(dp2083
sg62
g1930
sg55
(lp2084
g48
(g69
g50
NtRp2085
(dp2086
g53
(dp2087
g73
g74
ssg62
g2081
sg55
(lp2088
S'HTTP_HOST'
p2089
asbag48
(g69
g50
NtRp2090
(dp2091
g53
(dp2092
g80
g81
ssg62
g2081
sg55
(lp2093
S':'
asbag48
(g69
g50
NtRp2094
(dp2095
g53
(dp2096
sg62
g2081
sg55
(lp2097
g48
(g49
g50
NtRp2098
(dp2099
g53
(dp2100
g61
I3
ssg62
g2094
sg55
(lp2101
g1087
asbasbasbag48
(g64
g50
NtRp2102
(dp2103
g53
(dp2104
sg62
g1930
sg55
(lp2105
g48
(g69
g50
NtRp2106
(dp2107
g53
(dp2108
g73
g74
ssg62
g2102
sg55
(lp2109
S'HTTP_USER_AGENT'
p2110
asbag48
(g69
g50
NtRp2111
(dp2112
g53
(dp2113
g80
g81
ssg62
g2102
sg55
(lp2114
S':'
asbag48
(g69
g50
NtRp2115
(dp2116
g53
(dp2117
sg62
g2102
sg55
(lp2118
g48
(g49
g50
NtRp2119
(dp2120
g53
(dp2121
g61
I3
ssg62
g2115
sg55
(lp2122
g1109
asbasbasbag48
(g64
g50
NtRp2123
(dp2124
g53
(dp2125
sg62
g1930
sg55
(lp2126
g48
(g69
g50
NtRp2127
(dp2128
g53
(dp2129
g73
g74
ssg62
g2123
sg55
(lp2130
S'PATH_INFO'
p2131
asbag48
(g69
g50
NtRp2132
(dp2133
g53
(dp2134
g80
g81
ssg62
g2123
sg55
(lp2135
S':'
asbag48
(g69
g50
NtRp2136
(dp2137
g53
(dp2138
sg62
g2123
sg55
(lp2139
g48
(g49
g50
NtRp2140
(dp2141
g53
(dp2142
g61
I3
ssg62
g2136
sg55
(lp2143
g1152
asbasbasbag48
(g64
g50
NtRp2144
(dp2145
g53
(dp2146
sg62
g1930
sg55
(lp2147
g48
(g69
g50
NtRp2148
(dp2149
g53
(dp2150
g73
g74
ssg62
g2144
sg55
(lp2151
S'QUERY_STRING'
p2152
asbag48
(g69
g50
NtRp2153
(dp2154
g53
(dp2155
g80
g81
ssg62
g2144
sg55
(lp2156
S':'
asbag48
(g69
g50
NtRp2157
(dp2158
g53
(dp2159
sg62
g2144
sg55
(lp2160
g48
(g49
g50
NtRp2161
(dp2162
g53
(dp2163
g61
I3
ssg62
g2157
sg55
(lp2164
S''
asbasbasbag48
(g64
g50
NtRp2165
(dp2166
g53
(dp2167
sg62
g1930
sg55
(lp2168
g48
(g69
g50
NtRp2169
(dp2170
g53
(dp2171
g73
g74
ssg62
g2165
sg55
(lp2172
S'REMOTE_ADDR'
p2173
asbag48
(g69
g50
NtRp2174
(dp2175
g53
(dp2176
g80
g81
ssg62
g2165
sg55
(lp2177
S':'
asbag48
(g69
g50
NtRp2178
(dp2179
g53
(dp2180
sg62
g2165
sg55
(lp2181
g48
(g49
g50
NtRp2182
(dp2183
g53
(dp2184
g61
I3
ssg62
g2178
sg55
(lp2185
g181
asbasbasbag48
(g64
g50
NtRp2186
(dp2187
g53
(dp2188
sg62
g1930
sg55
(lp2189
g48
(g69
g50
NtRp2190
(dp2191
g53
(dp2192
g73
g74
ssg62
g2186
sg55
(lp2193
S'REMOTE_PORT'
p2194
asbag48
(g69
g50
NtRp2195
(dp2196
g53
(dp2197
g80
g81
ssg62
g2186
sg55
(lp2198
S':'
asbag48
(g69
g50
NtRp2199
(dp2200
g53
(dp2201
sg62
g2186
sg55
(lp2202
g48
(g49
g50
NtRp2203
(dp2204
g53
(dp2205
g61
I3
ssg62
g2199
sg55
(lp2206
g1216
asbasbasbag48
(g64
g50
NtRp2207
(dp2208
g53
(dp2209
sg62
g1930
sg55
(lp2210
g48
(g69
g50
NtRp2211
(dp2212
g53
(dp2213
g73
g74
ssg62
g2207
sg55
(lp2214
S'REQUEST_METHOD'
p2215
asbag48
(g69
g50
NtRp2216
(dp2217
g53
(dp2218
g80
g81
ssg62
g2207
sg55
(lp2219
S':'
asbag48
(g69
g50
NtRp2220
(dp2221
g53
(dp2222
sg62
g2207
sg55
(lp2223
g48
(g49
g50
NtRp2224
(dp2225
g53
(dp2226
g61
I3
ssg62
g2220
sg55
(lp2227
g1238
asbasbasbag48
(g64
g50
NtRp2228
(dp2229
g53
(dp2230
sg62
g1930
sg55
(lp2231
g48
(g69
g50
NtRp2232
(dp2233
g53
(dp2234
g73
g74
ssg62
g2228
sg55
(lp2235
S'SCRIPT_NAME'
p2236
asbag48
(g69
g50
NtRp2237
(dp2238
g53
(dp2239
g80
g81
ssg62
g2228
sg55
(lp2240
S':'
asbag48
(g69
g50
NtRp2241
(dp2242
g53
(dp2243
sg62
g2228
sg55
(lp2244
g48
(g49
g50
NtRp2245
(dp2246
g53
(dp2247
g61
I3
ssg62
g2241
sg55
(lp2248
S''
asbasbasbag48
(g64
g50
NtRp2249
(dp2250
g53
(dp2251
sg62
g1930
sg55
(lp2252
g48
(g69
g50
NtRp2253
(dp2254
g53
(dp2255
g73
g74
ssg62
g2249
sg55
(lp2256
S'SERVER_NAME'
p2257
asbag48
(g69
g50
NtRp2258
(dp2259
g53
(dp2260
g80
g81
ssg62
g2249
sg55
(lp2261
S':'
asbag48
(g69
g50
NtRp2262
(dp2263
g53
(dp2264
sg62
g2249
sg55
(lp2265
g48
(g49
g50
NtRp2266
(dp2267
g53
(dp2268
g61
I3
ssg62
g2262
sg55
(lp2269
g1281
asbasbasbag48
(g64
g50
NtRp2270
(dp2271
g53
(dp2272
sg62
g1930
sg55
(lp2273
g48
(g69
g50
NtRp2274
(dp2275
g53
(dp2276
g73
g74
ssg62
g2270
sg55
(lp2277
S'SERVER_PORT'
p2278
asbag48
(g69
g50
NtRp2279
(dp2280
g53
(dp2281
g80
g81
ssg62
g2270
sg55
(lp2282
S':'
asbag48
(g69
g50
NtRp2283
(dp2284
g53
(dp2285
sg62
g2270
sg55
(lp2286
g48
(g49
g50
NtRp2287
(dp2288
g53
(dp2289
g61
I3
ssg62
g2283
sg55
(lp2290
g1303
asbasbasbag48
(g64
g50
NtRp2291
(dp2292
g53
(dp2293
sg62
g1930
sg55
(lp2294
g48
(g69
g50
NtRp2295
(dp2296
g53
(dp2297
g73
g74
ssg62
g2291
sg55
(lp2298
S'SERVER_PROTOCOL'
p2299
asbag48
(g69
g50
NtRp2300
(dp2301
g53
(dp2302
g80
g81
ssg62
g2291
sg55
(lp2303
S':'
asbag48
(g69
g50
NtRp2304
(dp2305
g53
(dp2306
sg62
g2291
sg55
(lp2307
g48
(g49
g50
NtRp2308
(dp2309
g53
(dp2310
g61
I3
ssg62
g2304
sg55
(lp2311
g1325
asbasbasbag48
(g64
g50
NtRp2312
(dp2313
g53
(dp2314
sg62
g1930
sg55
(lp2315
g48
(g69
g50
NtRp2316
(dp2317
g53
(dp2318
g73
g74
ssg62
g2312
sg55
(lp2319
S'SERVER_SOFTWARE'
p2320
asbag48
(g69
g50
NtRp2321
(dp2322
g53
(dp2323
g80
g81
ssg62
g2312
sg55
(lp2324
S':'
asbag48
(g69
g50
NtRp2325
(dp2326
g53
(dp2327
sg62
g2312
sg55
(lp2328
g48
(g49
g50
NtRp2329
(dp2330
g53
(dp2331
g61
I3
ssg62
g2325
sg55
(lp2332
g1347
asbasbasbag48
(g64
g50
NtRp2333
(dp2334
g53
(dp2335
sg62
g1930
sg55
(lp2336
g48
(g69
g50
NtRp2337
(dp2338
g53
(dp2339
g73
g74
ssg62
g2333
sg55
(lp2340
S'wsgi.errors'
p2341
asbag48
(g69
g50
NtRp2342
(dp2343
g53
(dp2344
g80
g81
ssg62
g2333
sg55
(lp2345
S':'
asbag48
(g69
g50
NtRp2346
(dp2347
g53
(dp2348
sg62
g2333
sg55
(lp2349
g48
(g49
g50
NtRp2350
(dp2351
g53
(dp2352
g61
I3
ssg62
g2346
sg55
(lp2353
S"<open file '<stderr>', mode 'w' at 0x01F200B0>"
p2354
asbasbasbag48
(g64
g50
NtRp2355
(dp2356
g53
(dp2357
sg62
g1930
sg55
(lp2358
g48
(g69
g50
NtRp2359
(dp2360
g53
(dp2361
g73
g74
ssg62
g2355
sg55
(lp2362
S'wsgi.file_wrapper'
p2363
asbag48
(g69
g50
NtRp2364
(dp2365
g53
(dp2366
g80
g81
ssg62
g2355
sg55
(lp2367
S':'
asbag48
(g69
g50
NtRp2368
(dp2369
g53
(dp2370
sg62
g2355
sg55
(lp2371
g48
(g49
g50
NtRp2372
(dp2373
g53
(dp2374
g61
I3
ssg62
g2368
sg55
(lp2375
S'<class gluon.rocket.FileWrapper at 0x0307F1B0>'
p2376
asbasbasbag48
(g64
g50
NtRp2377
(dp2378
g53
(dp2379
sg62
g1930
sg55
(lp2380
g48
(g69
g50
NtRp2381
(dp2382
g53
(dp2383
g73
g74
ssg62
g2377
sg55
(lp2384
S'wsgi.input'
p2385
asbag48
(g69
g50
NtRp2386
(dp2387
g53
(dp2388
g80
g81
ssg62
g2377
sg55
(lp2389
S':'
asbag48
(g69
g50
NtRp2390
(dp2391
g53
(dp2392
sg62
g2377
sg55
(lp2393
g48
(g49
g50
NtRp2394
(dp2395
g53
(dp2396
g61
I3
ssg62
g2390
sg55
(lp2397
S'<cStringIO.StringO object at 0x07C725C0>'
p2398
asbasbasbag48
(g64
g50
NtRp2399
(dp2400
g53
(dp2401
sg62
g1930
sg55
(lp2402
g48
(g69
g50
NtRp2403
(dp2404
g53
(dp2405
g73
g74
ssg62
g2399
sg55
(lp2406
S'wsgi.multiprocess'
p2407
asbag48
(g69
g50
NtRp2408
(dp2409
g53
(dp2410
g80
g81
ssg62
g2399
sg55
(lp2411
S':'
asbag48
(g69
g50
NtRp2412
(dp2413
g53
(dp2414
sg62
g2399
sg55
(lp2415
g48
(g49
g50
NtRp2416
(dp2417
g53
(dp2418
g61
I3
ssg62
g2412
sg55
(lp2419
g91
asbasbasbag48
(g64
g50
NtRp2420
(dp2421
g53
(dp2422
sg62
g1930
sg55
(lp2423
g48
(g69
g50
NtRp2424
(dp2425
g53
(dp2426
g73
g74
ssg62
g2420
sg55
(lp2427
S'wsgi.multithread'
p2428
asbag48
(g69
g50
NtRp2429
(dp2430
g53
(dp2431
g80
g81
ssg62
g2420
sg55
(lp2432
S':'
asbag48
(g69
g50
NtRp2433
(dp2434
g53
(dp2435
sg62
g2420
sg55
(lp2436
g48
(g49
g50
NtRp2437
(dp2438
g53
(dp2439
g61
I3
ssg62
g2433
sg55
(lp2440
g1521
asbasbasbag48
(g64
g50
NtRp2441
(dp2442
g53
(dp2443
sg62
g1930
sg55
(lp2444
g48
(g69
g50
NtRp2445
(dp2446
g53
(dp2447
g73
g74
ssg62
g2441
sg55
(lp2448
S'wsgi.run_once'
p2449
asbag48
(g69
g50
NtRp2450
(dp2451
g53
(dp2452
g80
g81
ssg62
g2441
sg55
(lp2453
S':'
asbag48
(g69
g50
NtRp2454
(dp2455
g53
(dp2456
sg62
g2441
sg55
(lp2457
g48
(g49
g50
NtRp2458
(dp2459
g53
(dp2460
g61
I3
ssg62
g2454
sg55
(lp2461
g91
asbasbasbag48
(g64
g50
NtRp2462
(dp2463
g53
(dp2464
sg62
g1930
sg55
(lp2465
g48
(g69
g50
NtRp2466
(dp2467
g53
(dp2468
g73
g74
ssg62
g2462
sg55
(lp2469
S'wsgi.url_scheme'
p2470
asbag48
(g69
g50
NtRp2471
(dp2472
g53
(dp2473
g80
g81
ssg62
g2462
sg55
(lp2474
S':'
asbag48
(g69
g50
NtRp2475
(dp2476
g53
(dp2477
sg62
g2462
sg55
(lp2478
g48
(g49
g50
NtRp2479
(dp2480
g53
(dp2481
g61
I3
ssg62
g2475
sg55
(lp2482
g1564
asbasbasbag48
(g64
g50
NtRp2483
(dp2484
g53
(dp2485
sg62
g1930
sg55
(lp2486
g48
(g69
g50
NtRp2487
(dp2488
g53
(dp2489
g73
g74
ssg62
g2483
sg55
(lp2490
S'wsgi.version'
p2491
asbag48
(g69
g50
NtRp2492
(dp2493
g53
(dp2494
g80
g81
ssg62
g2483
sg55
(lp2495
S':'
asbag48
(g69
g50
NtRp2496
(dp2497
g53
(dp2498
sg62
g2483
sg55
(lp2499
g48
(g49
g50
NtRp2500
(dp2501
g53
(dp2502
g61
I3
ssg62
g2496
sg55
(lp2503
S'1'
asbasbasbasbasbasbasbasbasbasbasbasbasbsS'frames'
p2504
(lp2505
(dp2506
S'file'
p2507
S'C:\\Users\\Atomico\\web2py\\gluon\\restricted.py'
p2508
sS'dump'
p2509
(dp2510
sS'lnum'
p2511
I192
sS'lines'
p2512
(dp2513
sS'call'
p2514
S'(code=\'response.write(\\\'<!DOCTYPE html>\\\\n<html lang="\\\', ...t   -->    \\\\n  </body>\\\\n</html>\\\\n\\\', escape=False)\', environment={\'A\': <class \'gluon.html.A\'>, \'B\': <class \'gluon.html.B\'>, \'BEAUTIFY\': <class \'gluon.html.BEAUTIFY\'>, \'BODY\': <class \'gluon.html.BODY\'>, \'BR\': <class \'gluon.html.BR\'>, \'BUTTON\': <class \'gluon.html.BUTTON\'>, \'CAT\': <class \'gluon.html.CAT\'>, \'CENTER\': <class \'gluon.html.CENTER\'>, \'CLEANUP\': <class \'gluon.validators.CLEANUP\'>, \'CODE\': <class \'gluon.html.CODE\'>, ...}, layer=r\'C:\\Users\\Atomico\\web2py\\applications\\Desglosar_Emails\\views\\default/entrada_mod3.html\')'
p2515
sS'func'
p2516
S'restricted'
p2517
sa(dp2518
g2507
S'C:\\Users\\Atomico\\web2py\\applications\\Desglosar_Emails\\views\\default\\entrada_mod3.html'
p2519
sg2509
(dp2520
sg2511
I121
sg2512
(dp2521
I128
S'    while patternemail.search(res[i])==False:'
p2522
sI129
S"        response.write('0XXXXXXXXXXX0')"
p2523
sI130
S'        cadena=cadena+res[i]'
p2524
sI131
S'        i=i+1'
p2525
sI112
S'response.write(len(res))'
p2526
sI113
S"response.write(' nombres sueltos <br/> ', escape=False)"
p2527
sI114
S"for i in res2: response.write(i+'    ')"
p2528
sI115
S"response.write('En total son ', escape=False)"
p2529
sI116
S'response.write(len(res2))'
p2530
sI117
S"response.write(' conf de emails sueltos <br/> ', escape=False)"
p2531
sI118
S'i=0'
p2532
sI119
S'while i<len(res):'
p2533
sI120
S"    response.write('<br>'+str(i)+'es: ',escape=False)"
p2534
sI121
S"    response.write('el elemento que toca es: '+'res[i]'+' y patternemail es: ')"
p2535
sI122
S"    if patternemail.search(res[i]): bol='True'"
p2536
sI123
S"else: bol='False'"
p2537
sI124
S'response.write(bol)'
p2538
sI125
S'if patternemail.search(res[i])==False:'
p2539
sI126
S"    cadena=''"
p2540
sI127
S"    response.write('ZZZZZZZZZZ')"
p2541
ssg2514
S'()'
p2542
sg2516
S'<module>'
p2543
sa(dp2544
g2507
S'C:\\Users\\Atomico\\web2py\\gluon\\globals.py'
p2545
sg2509
(dp2546
sg2511
I154
sg2512
(dp2547
sg2514
S"(self=<Storage {'body': <cStringIO.StringO object at 0...x0850DFB0>, 'view': 'default/entrada_mod3.html'}>, data='el elemento que toca es: res[i] y patternemail es: ', escape=True)"
p2548
sg2516
S'write'
p2549
sasS'pyver'
p2550
S'Python 2.5.4: C:\\Users\\Atomico\\web2py\\web2py.exe'
p2551
sS'session'
p2552
g48
(g49
g50
NtRp2553
(dp2554
g53
(dp2555
sg55
(lp2556
g48
(g57
g50
NtRp2557
(dp2558
g53
(dp2559
g61
I5
ssg62
Nsg55
(lp2560
g48
(g64
g50
NtRp2561
(dp2562
g53
(dp2563
sg62
g2557
sg55
(lp2564
g48
(g69
g50
NtRp2565
(dp2566
g53
(dp2567
g73
g74
ssg62
g2561
sg55
(lp2568
S'last_query'
p2569
asbag48
(g69
g50
NtRp2570
(dp2571
g53
(dp2572
g80
g81
ssg62
g2561
sg55
(lp2573
S':'
asbag48
(g69
g50
NtRp2574
(dp2575
g53
(dp2576
sg62
g2561
sg55
(lp2577
g48
(g49
g50
NtRp2578
(dp2579
g53
(dp2580
g61
I5
ssg62
g2574
sg55
(lp2581
S'db.contactos.id>0'
p2582
asbasbasbasbasbsS'etype'
p2583
S"<type 'exceptions.MemoryError'>"
p2584
sS'date'
p2585
S'Tue Sep 20 12:02:21 2011'
p2586
sS'response'
p2587
g48
(g49
g50
NtRp2588
(dp2589
g53
(dp2590
sg55
(lp2591
g48
(g57
g50
NtRp2592
(dp2593
g53
(dp2594
g61
I5
ssg62
Nsg55
(lp2595
g48
(g64
g50
NtRp2596
(dp2597
g53
(dp2598
sg62
g2592
sg55
(lp2599
g48
(g69
g50
NtRp2600
(dp2601
g53
(dp2602
g73
g74
ssg62
g2596
sg55
(lp2603
g146
asbag48
(g69
g50
NtRp2604
(dp2605
g53
(dp2606
g80
g81
ssg62
g2596
sg55
(lp2607
S':'
asbag48
(g69
g50
NtRp2608
(dp2609
g53
(dp2610
sg62
g2596
sg55
(lp2611
g48
(g49
g50
NtRp2612
(dp2613
g53
(dp2614
g61
I5
ssg62
g2608
sg55
(lp2615
S'<cStringIO.StringO object at 0x08407900>'
p2616
asbasbasbag48
(g64
g50
NtRp2617
(dp2618
g53
(dp2619
sg62
g2592
sg55
(lp2620
g48
(g69
g50
NtRp2621
(dp2622
g53
(dp2623
g73
g74
ssg62
g2617
sg55
(lp2624
g212
asbag48
(g69
g50
NtRp2625
(dp2626
g53
(dp2627
g80
g81
ssg62
g2617
sg55
(lp2628
S':'
asbag48
(g69
g50
NtRp2629
(dp2630
g53
(dp2631
sg62
g2617
sg55
(lp2632
g48
(g49
g50
NtRp2633
(dp2634
g53
(dp2635
g61
I5
ssg62
g2629
sg55
(lp2636
g48
(g57
g50
NtRp2637
(dp2638
g53
(dp2639
g61
I4
ssg62
Nsg55
(lp2640
g48
(g64
g50
NtRp2641
(dp2642
g53
(dp2643
sg62
g2637
sg55
(lp2644
g48
(g69
g50
NtRp2645
(dp2646
g53
(dp2647
g73
g74
ssg62
g2641
sg55
(lp2648
S'session_id_desglosar_emails'
p2649
asbag48
(g69
g50
NtRp2650
(dp2651
g53
(dp2652
g80
g81
ssg62
g2641
sg55
(lp2653
S':'
asbag48
(g69
g50
NtRp2654
(dp2655
g53
(dp2656
sg62
g2641
sg55
(lp2657
g48
(g49
g50
NtRp2658
(dp2659
g53
(dp2660
g61
I4
ssg62
g2654
sg55
(lp2661
g48
(g57
g50
NtRp2662
(dp2663
g53
(dp2664
g61
I3
ssg62
Nsg55
(lp2665
g48
(g64
g50
NtRp2666
(dp2667
g53
(dp2668
sg62
g2662
sg55
(lp2669
g48
(g69
g50
NtRp2670
(dp2671
g53
(dp2672
g73
g74
ssg62
g2666
sg55
(lp2673
g262
asbag48
(g69
g50
NtRp2674
(dp2675
g53
(dp2676
g80
g81
ssg62
g2666
sg55
(lp2677
S':'
asbag48
(g69
g50
NtRp2678
(dp2679
g53
(dp2680
sg62
g2666
sg55
(lp2681
g48
(g49
g50
NtRp2682
(dp2683
g53
(dp2684
g61
I3
ssg62
g2678
sg55
(lp2685
S''
asbasbasbag48
(g64
g50
NtRp2686
(dp2687
g53
(dp2688
sg62
g2662
sg55
(lp2689
g48
(g69
g50
NtRp2690
(dp2691
g53
(dp2692
g73
g74
ssg62
g2686
sg55
(lp2693
g283
asbag48
(g69
g50
NtRp2694
(dp2695
g53
(dp2696
g80
g81
ssg62
g2686
sg55
(lp2697
S':'
asbag48
(g69
g50
NtRp2698
(dp2699
g53
(dp2700
sg62
g2686
sg55
(lp2701
g48
(g49
g50
NtRp2702
(dp2703
g53
(dp2704
g61
I3
ssg62
g2698
sg55
(lp2705
S''
asbasbasbag48
(g64
g50
NtRp2706
(dp2707
g53
(dp2708
sg62
g2662
sg55
(lp2709
g48
(g69
g50
NtRp2710
(dp2711
g53
(dp2712
g73
g74
ssg62
g2706
sg55
(lp2713
g304
asbag48
(g69
g50
NtRp2714
(dp2715
g53
(dp2716
g80
g81
ssg62
g2706
sg55
(lp2717
S':'
asbag48
(g69
g50
NtRp2718
(dp2719
g53
(dp2720
sg62
g2706
sg55
(lp2721
g48
(g49
g50
NtRp2722
(dp2723
g53
(dp2724
g61
I3
ssg62
g2718
sg55
(lp2725
S''
asbasbasbag48
(g64
g50
NtRp2726
(dp2727
g53
(dp2728
sg62
g2662
sg55
(lp2729
g48
(g69
g50
NtRp2730
(dp2731
g53
(dp2732
g73
g74
ssg62
g2726
sg55
(lp2733
g325
asbag48
(g69
g50
NtRp2734
(dp2735
g53
(dp2736
g80
g81
ssg62
g2726
sg55
(lp2737
S':'
asbag48
(g69
g50
NtRp2738
(dp2739
g53
(dp2740
sg62
g2726
sg55
(lp2741
g48
(g49
g50
NtRp2742
(dp2743
g53
(dp2744
g61
I3
ssg62
g2738
sg55
(lp2745
S''
asbasbasbag48
(g64
g50
NtRp2746
(dp2747
g53
(dp2748
sg62
g2662
sg55
(lp2749
g48
(g69
g50
NtRp2750
(dp2751
g53
(dp2752
g73
g74
ssg62
g2746
sg55
(lp2753
g346
asbag48
(g69
g50
NtRp2754
(dp2755
g53
(dp2756
g80
g81
ssg62
g2746
sg55
(lp2757
S':'
asbag48
(g69
g50
NtRp2758
(dp2759
g53
(dp2760
sg62
g2746
sg55
(lp2761
g48
(g49
g50
NtRp2762
(dp2763
g53
(dp2764
g61
I3
ssg62
g2758
sg55
(lp2765
S'/'
asbasbasbag48
(g64
g50
NtRp2766
(dp2767
g53
(dp2768
sg62
g2662
sg55
(lp2769
g48
(g69
g50
NtRp2770
(dp2771
g53
(dp2772
g73
g74
ssg62
g2766
sg55
(lp2773
g367
asbag48
(g69
g50
NtRp2774
(dp2775
g53
(dp2776
g80
g81
ssg62
g2766
sg55
(lp2777
S':'
asbag48
(g69
g50
NtRp2778
(dp2779
g53
(dp2780
sg62
g2766
sg55
(lp2781
g48
(g49
g50
NtRp2782
(dp2783
g53
(dp2784
g61
I3
ssg62
g2778
sg55
(lp2785
S''
asbasbasbag48
(g64
g50
NtRp2786
(dp2787
g53
(dp2788
sg62
g2662
sg55
(lp2789
g48
(g69
g50
NtRp2790
(dp2791
g53
(dp2792
g73
g74
ssg62
g2786
sg55
(lp2793
g388
asbag48
(g69
g50
NtRp2794
(dp2795
g53
(dp2796
g80
g81
ssg62
g2786
sg55
(lp2797
S':'
asbag48
(g69
g50
NtRp2798
(dp2799
g53
(dp2800
sg62
g2786
sg55
(lp2801
g48
(g49
g50
NtRp2802
(dp2803
g53
(dp2804
g61
I3
ssg62
g2798
sg55
(lp2805
S''
asbasbasbasbasbasbasbasbasbasbasbag48
(g64
g50
NtRp2806
(dp2807
g53
(dp2808
sg62
g2592
sg55
(lp2809
g48
(g69
g50
NtRp2810
(dp2811
g53
(dp2812
g73
g74
ssg62
g2806
sg55
(lp2813
S'files'
p2814
asbag48
(g69
g50
NtRp2815
(dp2816
g53
(dp2817
g80
g81
ssg62
g2806
sg55
(lp2818
S':'
asbag48
(g69
g50
NtRp2819
(dp2820
g53
(dp2821
sg62
g2806
sg55
(lp2822
g48
(g49
g50
NtRp2823
(dp2824
g53
(dp2825
g61
I5
ssg62
g2819
sg55
(lp2826
g48
(g57
g50
NtRp2827
(dp2828
g53
(dp2829
g61
I4
ssg62
Nsg55
(lp2830
g48
(g64
g50
NtRp2831
(dp2832
g53
(dp2833
sg62
g2827
sg55
(lp2834
g48
(g69
g50
NtRp2835
(dp2836
g53
(dp2837
sg62
g2831
sg55
(lp2838
g48
(g49
g50
NtRp2839
(dp2840
g53
(dp2841
g61
I4
ssg62
g2835
sg55
(lp2842
S'/Desglosar_Emails/static/js/jquery.js'
p2843
asbasbasbag48
(g64
g50
NtRp2844
(dp2845
g53
(dp2846
sg62
g2827
sg55
(lp2847
g48
(g69
g50
NtRp2848
(dp2849
g53
(dp2850
sg62
g2844
sg55
(lp2851
g48
(g49
g50
NtRp2852
(dp2853
g53
(dp2854
g61
I4
ssg62
g2848
sg55
(lp2855
S'/Desglosar_Emails/static/css/calendar.css'
p2856
asbasbasbag48
(g64
g50
NtRp2857
(dp2858
g53
(dp2859
sg62
g2827
sg55
(lp2860
g48
(g69
g50
NtRp2861
(dp2862
g53
(dp2863
sg62
g2857
sg55
(lp2864
g48
(g49
g50
NtRp2865
(dp2866
g53
(dp2867
g61
I4
ssg62
g2861
sg55
(lp2868
S'/Desglosar_Emails/static/js/calendar.js'
p2869
asbasbasbag48
(g64
g50
NtRp2870
(dp2871
g53
(dp2872
sg62
g2827
sg55
(lp2873
g48
(g69
g50
NtRp2874
(dp2875
g53
(dp2876
sg62
g2870
sg55
(lp2877
g48
(g49
g50
NtRp2878
(dp2879
g53
(dp2880
g61
I4
ssg62
g2874
sg55
(lp2881
S'/Desglosar_Emails/static/css/base.css'
p2882
asbasbasbag48
(g64
g50
NtRp2883
(dp2884
g53
(dp2885
sg62
g2827
sg55
(lp2886
g48
(g69
g50
NtRp2887
(dp2888
g53
(dp2889
sg62
g2883
sg55
(lp2890
g48
(g49
g50
NtRp2891
(dp2892
g53
(dp2893
g61
I4
ssg62
g2887
sg55
(lp2894
S'/Desglosar_Emails/static/css/superfish.css'
p2895
asbasbasbag48
(g64
g50
NtRp2896
(dp2897
g53
(dp2898
sg62
g2827
sg55
(lp2899
g48
(g69
g50
NtRp2900
(dp2901
g53
(dp2902
sg62
g2896
sg55
(lp2903
g48
(g49
g50
NtRp2904
(dp2905
g53
(dp2906
g61
I4
ssg62
g2900
sg55
(lp2907
S'/Desglosar_Emails/static/js/superfish.js'
p2908
asbasbasbasbasbasbasbag48
(g64
g50
NtRp2909
(dp2910
g53
(dp2911
sg62
g2592
sg55
(lp2912
g48
(g69
g50
NtRp2913
(dp2914
g53
(dp2915
g73
g74
ssg62
g2909
sg55
(lp2916
S'flash'
p2917
asbag48
(g69
g50
NtRp2918
(dp2919
g53
(dp2920
g80
g81
ssg62
g2909
sg55
(lp2921
S':'
asbag48
(g69
g50
NtRp2922
(dp2923
g53
(dp2924
sg62
g2909
sg55
(lp2925
g48
(g49
g50
NtRp2926
(dp2927
g53
(dp2928
g61
I5
ssg62
g2922
sg55
(lp2929
S''
asbasbasbag48
(g64
g50
NtRp2930
(dp2931
g53
(dp2932
sg62
g2592
sg55
(lp2933
g48
(g69
g50
NtRp2934
(dp2935
g53
(dp2936
g73
g74
ssg62
g2930
sg55
(lp2937
S'generic_patterns'
p2938
asbag48
(g69
g50
NtRp2939
(dp2940
g53
(dp2941
g80
g81
ssg62
g2930
sg55
(lp2942
S':'
asbag48
(g69
g50
NtRp2943
(dp2944
g53
(dp2945
sg62
g2930
sg55
(lp2946
g48
(g49
g50
NtRp2947
(dp2948
g53
(dp2949
g61
I5
ssg62
g2943
sg55
(lp2950
g48
(g57
g50
NtRp2951
(dp2952
g53
(dp2953
g61
I4
ssg62
Nsg55
(lp2954
sbasbasbasbag48
(g64
g50
NtRp2955
(dp2956
g53
(dp2957
sg62
g2592
sg55
(lp2958
g48
(g69
g50
NtRp2959
(dp2960
g53
(dp2961
g73
g74
ssg62
g2955
sg55
(lp2962
S'headers'
p2963
asbag48
(g69
g50
NtRp2964
(dp2965
g53
(dp2966
g80
g81
ssg62
g2955
sg55
(lp2967
S':'
asbag48
(g69
g50
NtRp2968
(dp2969
g53
(dp2970
sg62
g2955
sg55
(lp2971
g48
(g49
g50
NtRp2972
(dp2973
g53
(dp2974
g61
I5
ssg62
g2968
sg55
(lp2975
g48
(g57
g50
NtRp2976
(dp2977
g53
(dp2978
g61
I4
ssg62
Nsg55
(lp2979
g48
(g64
g50
NtRp2980
(dp2981
g53
(dp2982
sg62
g2976
sg55
(lp2983
g48
(g69
g50
NtRp2984
(dp2985
g53
(dp2986
g73
g74
ssg62
g2980
sg55
(lp2987
S'Cache-Control'
p2988
asbag48
(g69
g50
NtRp2989
(dp2990
g53
(dp2991
g80
g81
ssg62
g2980
sg55
(lp2992
S':'
asbag48
(g69
g50
NtRp2993
(dp2994
g53
(dp2995
sg62
g2980
sg55
(lp2996
g48
(g49
g50
NtRp2997
(dp2998
g53
(dp2999
g61
I4
ssg62
g2993
sg55
(lp3000
S'no-store, no-cache, must-revalidate, post-check=0, pre-check=0'
p3001
asbasbasbag48
(g64
g50
NtRp3002
(dp3003
g53
(dp3004
sg62
g2976
sg55
(lp3005
g48
(g69
g50
NtRp3006
(dp3007
g53
(dp3008
g73
g74
ssg62
g3002
sg55
(lp3009
S'Content-Type'
p3010
asbag48
(g69
g50
NtRp3011
(dp3012
g53
(dp3013
g80
g81
ssg62
g3002
sg55
(lp3014
S':'
asbag48
(g69
g50
NtRp3015
(dp3016
g53
(dp3017
sg62
g3002
sg55
(lp3018
g48
(g49
g50
NtRp3019
(dp3020
g53
(dp3021
g61
I4
ssg62
g3015
sg55
(lp3022
S'text/html; charset=utf-8'
p3023
asbasbasbag48
(g64
g50
NtRp3024
(dp3025
g53
(dp3026
sg62
g2976
sg55
(lp3027
g48
(g69
g50
NtRp3028
(dp3029
g53
(dp3030
g73
g74
ssg62
g3024
sg55
(lp3031
S'Expires'
p3032
asbag48
(g69
g50
NtRp3033
(dp3034
g53
(dp3035
g80
g81
ssg62
g3024
sg55
(lp3036
S':'
asbag48
(g69
g50
NtRp3037
(dp3038
g53
(dp3039
sg62
g3024
sg55
(lp3040
g48
(g49
g50
NtRp3041
(dp3042
g53
(dp3043
g61
I4
ssg62
g3037
sg55
(lp3044
S'Tue, 20 Sep 2011 09:59:29 GMT'
p3045
asbasbasbag48
(g64
g50
NtRp3046
(dp3047
g53
(dp3048
sg62
g2976
sg55
(lp3049
g48
(g69
g50
NtRp3050
(dp3051
g53
(dp3052
g73
g74
ssg62
g3046
sg55
(lp3053
S'Pragma'
p3054
asbag48
(g69
g50
NtRp3055
(dp3056
g53
(dp3057
g80
g81
ssg62
g3046
sg55
(lp3058
S':'
asbag48
(g69
g50
NtRp3059
(dp3060
g53
(dp3061
sg62
g3046
sg55
(lp3062
g48
(g49
g50
NtRp3063
(dp3064
g53
(dp3065
g61
I4
ssg62
g3059
sg55
(lp3066
S'no-cache'
p3067
asbasbasbag48
(g64
g50
NtRp3068
(dp3069
g53
(dp3070
sg62
g2976
sg55
(lp3071
g48
(g69
g50
NtRp3072
(dp3073
g53
(dp3074
g73
g74
ssg62
g3068
sg55
(lp3075
S'X-Powered-By'
p3076
asbag48
(g69
g50
NtRp3077
(dp3078
g53
(dp3079
g80
g81
ssg62
g3068
sg55
(lp3080
S':'
asbag48
(g69
g50
NtRp3081
(dp3082
g53
(dp3083
sg62
g3068
sg55
(lp3084
g48
(g49
g50
NtRp3085
(dp3086
g53
(dp3087
g61
I4
ssg62
g3081
sg55
(lp3088
S'web2py'
p3089
asbasbasbasbasbasbasbag48
(g64
g50
NtRp3090
(dp3091
g53
(dp3092
sg62
g2592
sg55
(lp3093
g48
(g69
g50
NtRp3094
(dp3095
g53
(dp3096
g73
g74
ssg62
g3090
sg55
(lp3097
S'menu'
p3098
asbag48
(g69
g50
NtRp3099
(dp3100
g53
(dp3101
g80
g81
ssg62
g3090
sg55
(lp3102
S':'
asbag48
(g69
g50
NtRp3103
(dp3104
g53
(dp3105
sg62
g3090
sg55
(lp3106
g48
(g49
g50
NtRp3107
(dp3108
g53
(dp3109
g61
I5
ssg62
g3103
sg55
(lp3110
g48
(g57
g50
NtRp3111
(dp3112
g53
(dp3113
g61
I4
ssg62
Nsg55
(lp3114
g48
(g64
g50
NtRp3115
(dp3116
g53
(dp3117
sg62
g3111
sg55
(lp3118
g48
(g69
g50
NtRp3119
(dp3120
g53
(dp3121
sg62
g3115
sg55
(lp3122
g48
(g49
g50
NtRp3123
(dp3124
g53
(dp3125
g61
I4
ssg62
g3119
sg55
(lp3126
g48
(g57
g50
NtRp3127
(dp3128
g53
(dp3129
g61
I3
ssg62
Nsg55
(lp3130
g48
(g64
g50
NtRp3131
(dp3132
g53
(dp3133
sg62
g3127
sg55
(lp3134
g48
(g69
g50
NtRp3135
(dp3136
g53
(dp3137
sg62
g3131
sg55
(lp3138
g48
(g49
g50
NtRp3139
(dp3140
g53
(dp3141
g61
I3
ssg62
g3135
sg55
(lp3142
cgluon.languages
lazyT_unpickle
p3143
(S't\x04\x00\x00\x00Home'
tRp3144
asbasbasbag48
(g64
g50
NtRp3145
(dp3146
g53
(dp3147
sg62
g3127
sg55
(lp3148
g48
(g69
g50
NtRp3149
(dp3150
g53
(dp3151
sg62
g3145
sg55
(lp3152
g48
(g49
g50
NtRp3153
(dp3154
g53
(dp3155
g61
I3
ssg62
g3149
sg55
(lp3156
g91
asbasbasbag48
(g64
g50
NtRp3157
(dp3158
g53
(dp3159
sg62
g3127
sg55
(lp3160
g48
(g69
g50
NtRp3161
(dp3162
g53
(dp3163
sg62
g3157
sg55
(lp3164
g48
(g49
g50
NtRp3165
(dp3166
g53
(dp3167
g61
I3
ssg62
g3161
sg55
(lp3168
S'/Desglosar_Emails/default/index'
p3169
asbasbasbag48
(g64
g50
NtRp3170
(dp3171
g53
(dp3172
sg62
g3127
sg55
(lp3173
g48
(g69
g50
NtRp3174
(dp3175
g53
(dp3176
sg62
g3170
sg55
(lp3177
g48
(g49
g50
NtRp3178
(dp3179
g53
(dp3180
g61
I3
ssg62
g3174
sg55
(lp3181
g48
(g57
g50
NtRp3182
(dp3183
g53
(dp3184
g61
I2
ssg62
Nsg55
(lp3185
sbasbasbasbasbasbasbasbag48
(g64
g50
NtRp3186
(dp3187
g53
(dp3188
sg62
g3111
sg55
(lp3189
g48
(g69
g50
NtRp3190
(dp3191
g53
(dp3192
sg62
g3186
sg55
(lp3193
g48
(g49
g50
NtRp3194
(dp3195
g53
(dp3196
g61
I4
ssg62
g3190
sg55
(lp3197
g48
(g57
g50
NtRp3198
(dp3199
g53
(dp3200
g61
I3
ssg62
Nsg55
(lp3201
g48
(g64
g50
NtRp3202
(dp3203
g53
(dp3204
sg62
g3198
sg55
(lp3205
g48
(g69
g50
NtRp3206
(dp3207
g53
(dp3208
sg62
g3202
sg55
(lp3209
g48
(g49
g50
NtRp3210
(dp3211
g53
(dp3212
g61
I3
ssg62
g3206
sg55
(lp3213
g3143
(S's\x08\x00\x00\x00This App'
tRp3214
asbasbasbag48
(g64
g50
NtRp3215
(dp3216
g53
(dp3217
sg62
g3198
sg55
(lp3218
g48
(g69
g50
NtRp3219
(dp3220
g53
(dp3221
sg62
g3215
sg55
(lp3222
g48
(g49
g50
NtRp3223
(dp3224
g53
(dp3225
g61
I3
ssg62
g3219
sg55
(lp3226
g91
asbasbasbag48
(g64
g50
NtRp3227
(dp3228
g53
(dp3229
sg62
g3198
sg55
(lp3230
g48
(g69
g50
NtRp3231
(dp3232
g53
(dp3233
sg62
g3227
sg55
(lp3234
g48
(g49
g50
NtRp3235
(dp3236
g53
(dp3237
g61
I3
ssg62
g3231
sg55
(lp3238
S'/admin/default/design/Desglosar_Emails'
p3239
asbasbasbag48
(g64
g50
NtRp3240
(dp3241
g53
(dp3242
sg62
g3198
sg55
(lp3243
g48
(g69
g50
NtRp3244
(dp3245
g53
(dp3246
sg62
g3240
sg55
(lp3247
g48
(g49
g50
NtRp3248
(dp3249
g53
(dp3250
g61
I3
ssg62
g3244
sg55
(lp3251
g48
(g57
g50
NtRp3252
(dp3253
g53
(dp3254
g61
I2
ssg62
Nsg55
(lp3255
g48
(g64
g50
NtRp3256
(dp3257
g53
(dp3258
sg62
g3252
sg55
(lp3259
g48
(g69
g50
NtRp3260
(dp3261
g53
(dp3262
sg62
g3256
sg55
(lp3263
g48
(g49
g50
NtRp3264
(dp3265
g53
(dp3266
g61
I2
ssg62
g3260
sg55
(lp3267
g48
(g57
g50
NtRp3268
(dp3269
g53
(dp3270
g61
I1
ssg62
Nsg55
(lp3271
g48
(g64
g50
NtRp3272
(dp3273
g53
(dp3274
sg62
g3268
sg55
(lp3275
g48
(g69
g50
NtRp3276
(dp3277
g53
(dp3278
sg62
g3272
sg55
(lp3279
g48
(g49
g50
NtRp3280
(dp3281
g53
(dp3282
g61
I1
ssg62
g3276
sg55
(lp3283
g3143
(S't\x0b\x00\x00\x00Controlador'
tRp3284
asbasbasbag48
(g64
g50
NtRp3285
(dp3286
g53
(dp3287
sg62
g3268
sg55
(lp3288
g48
(g69
g50
NtRp3289
(dp3290
g53
(dp3291
sg62
g3285
sg55
(lp3292
g48
(g49
g50
NtRp3293
(dp3294
g53
(dp3295
g61
I1
ssg62
g3289
sg55
(lp3296
I00
asbasbasbag48
(g64
g50
NtRp3297
(dp3298
g53
(dp3299
sg62
g3268
sg55
(lp3300
g48
(g69
g50
NtRp3301
(dp3302
g53
(dp3303
sg62
g3297
sg55
(lp3304
g48
(g49
g50
NtRp3305
(dp3306
g53
(dp3307
g61
I1
ssg62
g3301
sg55
(lp3308
S'/admin/default/edit/Desglosar_Emails/controllers/default.py'
p3309
asbasbasbasbasbasbasbag48
(g64
g50
NtRp3310
(dp3311
g53
(dp3312
sg62
g3252
sg55
(lp3313
g48
(g69
g50
NtRp3314
(dp3315
g53
(dp3316
sg62
g3310
sg55
(lp3317
g48
(g49
g50
NtRp3318
(dp3319
g53
(dp3320
g61
I2
ssg62
g3314
sg55
(lp3321
g48
(g57
g50
NtRp3322
(dp3323
g53
(dp3324
g61
I1
ssg62
Nsg55
(lp3325
g48
(g64
g50
NtRp3326
(dp3327
g53
(dp3328
sg62
g3322
sg55
(lp3329
g48
(g69
g50
NtRp3330
(dp3331
g53
(dp3332
sg62
g3326
sg55
(lp3333
g48
(g49
g50
NtRp3334
(dp3335
g53
(dp3336
g61
I1
ssg62
g3330
sg55
(lp3337
g3143
(S't\x05\x00\x00\x00Vista'
tRp3338
asbasbasbag48
(g64
g50
NtRp3339
(dp3340
g53
(dp3341
sg62
g3322
sg55
(lp3342
g48
(g69
g50
NtRp3343
(dp3344
g53
(dp3345
sg62
g3339
sg55
(lp3346
g48
(g49
g50
NtRp3347
(dp3348
g53
(dp3349
g61
I1
ssg62
g3343
sg55
(lp3350
I00
asbasbasbag48
(g64
g50
NtRp3351
(dp3352
g53
(dp3353
sg62
g3322
sg55
(lp3354
g48
(g69
g50
NtRp3355
(dp3356
g53
(dp3357
sg62
g3351
sg55
(lp3358
g48
(g49
g50
NtRp3359
(dp3360
g53
(dp3361
g61
I1
ssg62
g3355
sg55
(lp3362
S'/admin/default/edit/Desglosar_Emails/views/default/entrada_mod3.html'
p3363
asbasbasbasbasbasbasbag48
(g64
g50
NtRp3364
(dp3365
g53
(dp3366
sg62
g3252
sg55
(lp3367
g48
(g69
g50
NtRp3368
(dp3369
g53
(dp3370
sg62
g3364
sg55
(lp3371
g48
(g49
g50
NtRp3372
(dp3373
g53
(dp3374
g61
I2
ssg62
g3368
sg55
(lp3375
g48
(g57
g50
NtRp3376
(dp3377
g53
(dp3378
g61
I1
ssg62
Nsg55
(lp3379
g48
(g64
g50
NtRp3380
(dp3381
g53
(dp3382
sg62
g3376
sg55
(lp3383
g48
(g69
g50
NtRp3384
(dp3385
g53
(dp3386
sg62
g3380
sg55
(lp3387
g48
(g49
g50
NtRp3388
(dp3389
g53
(dp3390
g61
I1
ssg62
g3384
sg55
(lp3391
g3143
(S's\x12\x00\x00\x00Dise\xc3\xb1o de p\xc3\xa1gina'
tRp3392
asbasbasbag48
(g64
g50
NtRp3393
(dp3394
g53
(dp3395
sg62
g3376
sg55
(lp3396
g48
(g69
g50
NtRp3397
(dp3398
g53
(dp3399
sg62
g3393
sg55
(lp3400
g48
(g49
g50
NtRp3401
(dp3402
g53
(dp3403
g61
I1
ssg62
g3397
sg55
(lp3404
I00
asbasbasbag48
(g64
g50
NtRp3405
(dp3406
g53
(dp3407
sg62
g3376
sg55
(lp3408
g48
(g69
g50
NtRp3409
(dp3410
g53
(dp3411
sg62
g3405
sg55
(lp3412
g48
(g49
g50
NtRp3413
(dp3414
g53
(dp3415
g61
I1
ssg62
g3409
sg55
(lp3416
S'/admin/default/edit/Desglosar_Emails/views/layout.html'
p3417
asbasbasbasbasbasbasbag48
(g64
g50
NtRp3418
(dp3419
g53
(dp3420
sg62
g3252
sg55
(lp3421
g48
(g69
g50
NtRp3422
(dp3423
g53
(dp3424
sg62
g3418
sg55
(lp3425
g48
(g49
g50
NtRp3426
(dp3427
g53
(dp3428
g61
I2
ssg62
g3422
sg55
(lp3429
g48
(g57
g50
NtRp3430
(dp3431
g53
(dp3432
g61
I1
ssg62
Nsg55
(lp3433
g48
(g64
g50
NtRp3434
(dp3435
g53
(dp3436
sg62
g3430
sg55
(lp3437
g48
(g69
g50
NtRp3438
(dp3439
g53
(dp3440
sg62
g3434
sg55
(lp3441
g48
(g49
g50
NtRp3442
(dp3443
g53
(dp3444
g61
I1
ssg62
g3438
sg55
(lp3445
g3143
(S's\x0e\x00\x00\x00Hoja de estilo'
tRp3446
asbasbasbag48
(g64
g50
NtRp3447
(dp3448
g53
(dp3449
sg62
g3430
sg55
(lp3450
g48
(g69
g50
NtRp3451
(dp3452
g53
(dp3453
sg62
g3447
sg55
(lp3454
g48
(g49
g50
NtRp3455
(dp3456
g53
(dp3457
g61
I1
ssg62
g3451
sg55
(lp3458
I00
asbasbasbag48
(g64
g50
NtRp3459
(dp3460
g53
(dp3461
sg62
g3430
sg55
(lp3462
g48
(g69
g50
NtRp3463
(dp3464
g53
(dp3465
sg62
g3459
sg55
(lp3466
g48
(g49
g50
NtRp3467
(dp3468
g53
(dp3469
g61
I1
ssg62
g3463
sg55
(lp3470
S'/admin/default/edit/Desglosar_Emails/static/base.css'
p3471
asbasbasbasbasbasbasbag48
(g64
g50
NtRp3472
(dp3473
g53
(dp3474
sg62
g3252
sg55
(lp3475
g48
(g69
g50
NtRp3476
(dp3477
g53
(dp3478
sg62
g3472
sg55
(lp3479
g48
(g49
g50
NtRp3480
(dp3481
g53
(dp3482
g61
I2
ssg62
g3476
sg55
(lp3483
g48
(g57
g50
NtRp3484
(dp3485
g53
(dp3486
g61
I1
ssg62
Nsg55
(lp3487
g48
(g64
g50
NtRp3488
(dp3489
g53
(dp3490
sg62
g3484
sg55
(lp3491
g48
(g69
g50
NtRp3492
(dp3493
g53
(dp3494
sg62
g3488
sg55
(lp3495
g48
(g49
g50
NtRp3496
(dp3497
g53
(dp3498
g61
I1
ssg62
g3492
sg55
(lp3499
g3143
(S's\x0b\x00\x00\x00Modelo "db"'
tRp3500
asbasbasbag48
(g64
g50
NtRp3501
(dp3502
g53
(dp3503
sg62
g3484
sg55
(lp3504
g48
(g69
g50
NtRp3505
(dp3506
g53
(dp3507
sg62
g3501
sg55
(lp3508
g48
(g49
g50
NtRp3509
(dp3510
g53
(dp3511
g61
I1
ssg62
g3505
sg55
(lp3512
I00
asbasbasbag48
(g64
g50
NtRp3513
(dp3514
g53
(dp3515
sg62
g3484
sg55
(lp3516
g48
(g69
g50
NtRp3517
(dp3518
g53
(dp3519
sg62
g3513
sg55
(lp3520
g48
(g49
g50
NtRp3521
(dp3522
g53
(dp3523
g61
I1
ssg62
g3517
sg55
(lp3524
S'/admin/default/edit/Desglosar_Emails/models/db.py'
p3525
asbasbasbasbasbasbasbag48
(g64
g50
NtRp3526
(dp3527
g53
(dp3528
sg62
g3252
sg55
(lp3529
g48
(g69
g50
NtRp3530
(dp3531
g53
(dp3532
sg62
g3526
sg55
(lp3533
g48
(g49
g50
NtRp3534
(dp3535
g53
(dp3536
g61
I2
ssg62
g3530
sg55
(lp3537
g48
(g57
g50
NtRp3538
(dp3539
g53
(dp3540
g61
I1
ssg62
Nsg55
(lp3541
g48
(g64
g50
NtRp3542
(dp3543
g53
(dp3544
sg62
g3538
sg55
(lp3545
g48
(g69
g50
NtRp3546
(dp3547
g53
(dp3548
sg62
g3542
sg55
(lp3549
g48
(g49
g50
NtRp3550
(dp3551
g53
(dp3552
g61
I1
ssg62
g3546
sg55
(lp3553
g3143
(S's\r\x00\x00\x00Modelo "menu"'
tRp3554
asbasbasbag48
(g64
g50
NtRp3555
(dp3556
g53
(dp3557
sg62
g3538
sg55
(lp3558
g48
(g69
g50
NtRp3559
(dp3560
g53
(dp3561
sg62
g3555
sg55
(lp3562
g48
(g49
g50
NtRp3563
(dp3564
g53
(dp3565
g61
I1
ssg62
g3559
sg55
(lp3566
I00
asbasbasbag48
(g64
g50
NtRp3567
(dp3568
g53
(dp3569
sg62
g3538
sg55
(lp3570
g48
(g69
g50
NtRp3571
(dp3572
g53
(dp3573
sg62
g3567
sg55
(lp3574
g48
(g49
g50
NtRp3575
(dp3576
g53
(dp3577
g61
I1
ssg62
g3571
sg55
(lp3578
S'/admin/default/edit/Desglosar_Emails/models/menu.py'
p3579
asbasbasbasbasbasbasbag48
(g64
g50
NtRp3580
(dp3581
g53
(dp3582
sg62
g3252
sg55
(lp3583
g48
(g69
g50
NtRp3584
(dp3585
g53
(dp3586
sg62
g3580
sg55
(lp3587
g48
(g49
g50
NtRp3588
(dp3589
g53
(dp3590
g61
I2
ssg62
g3584
sg55
(lp3591
g48
(g57
g50
NtRp3592
(dp3593
g53
(dp3594
g61
I1
ssg62
Nsg55
(lp3595
g48
(g64
g50
NtRp3596
(dp3597
g53
(dp3598
sg62
g3592
sg55
(lp3599
g48
(g69
g50
NtRp3600
(dp3601
g53
(dp3602
sg62
g3596
sg55
(lp3603
g48
(g49
g50
NtRp3604
(dp3605
g53
(dp3606
g61
I1
ssg62
g3600
sg55
(lp3607
g3143
(S's\r\x00\x00\x00Base de datos'
tRp3608
asbasbasbag48
(g64
g50
NtRp3609
(dp3610
g53
(dp3611
sg62
g3592
sg55
(lp3612
g48
(g69
g50
NtRp3613
(dp3614
g53
(dp3615
sg62
g3609
sg55
(lp3616
g48
(g49
g50
NtRp3617
(dp3618
g53
(dp3619
g61
I1
ssg62
g3613
sg55
(lp3620
I00
asbasbasbag48
(g64
g50
NtRp3621
(dp3622
g53
(dp3623
sg62
g3592
sg55
(lp3624
g48
(g69
g50
NtRp3625
(dp3626
g53
(dp3627
sg62
g3621
sg55
(lp3628
g48
(g49
g50
NtRp3629
(dp3630
g53
(dp3631
g61
I1
ssg62
g3625
sg55
(lp3632
S'/Desglosar_Emails/appadmin/index'
p3633
asbasbasbasbasbasbasbag48
(g64
g50
NtRp3634
(dp3635
g53
(dp3636
sg62
g3252
sg55
(lp3637
g48
(g69
g50
NtRp3638
(dp3639
g53
(dp3640
sg62
g3634
sg55
(lp3641
g48
(g49
g50
NtRp3642
(dp3643
g53
(dp3644
g61
I2
ssg62
g3638
sg55
(lp3645
g48
(g57
g50
NtRp3646
(dp3647
g53
(dp3648
g61
I1
ssg62
Nsg55
(lp3649
g48
(g64
g50
NtRp3650
(dp3651
g53
(dp3652
sg62
g3646
sg55
(lp3653
g48
(g69
g50
NtRp3654
(dp3655
g53
(dp3656
sg62
g3650
sg55
(lp3657
g48
(g49
g50
NtRp3658
(dp3659
g53
(dp3660
g61
I1
ssg62
g3654
sg55
(lp3661
g3143
(S't\x06\x00\x00\x00Errors'
tRp3662
asbasbasbag48
(g64
g50
NtRp3663
(dp3664
g53
(dp3665
sg62
g3646
sg55
(lp3666
g48
(g69
g50
NtRp3667
(dp3668
g53
(dp3669
sg62
g3663
sg55
(lp3670
g48
(g49
g50
NtRp3671
(dp3672
g53
(dp3673
g61
I1
ssg62
g3667
sg55
(lp3674
I00
asbasbasbag48
(g64
g50
NtRp3675
(dp3676
g53
(dp3677
sg62
g3646
sg55
(lp3678
g48
(g69
g50
NtRp3679
(dp3680
g53
(dp3681
sg62
g3675
sg55
(lp3682
g48
(g49
g50
NtRp3683
(dp3684
g53
(dp3685
g61
I1
ssg62
g3679
sg55
(lp3686
S'/admin/default/errors/Desglosar_Emails'
p3687
asbasbasbasbasbasbasbag48
(g64
g50
NtRp3688
(dp3689
g53
(dp3690
sg62
g3252
sg55
(lp3691
g48
(g69
g50
NtRp3692
(dp3693
g53
(dp3694
sg62
g3688
sg55
(lp3695
g48
(g49
g50
NtRp3696
(dp3697
g53
(dp3698
g61
I2
ssg62
g3692
sg55
(lp3699
g48
(g57
g50
NtRp3700
(dp3701
g53
(dp3702
g61
I1
ssg62
Nsg55
(lp3703
g48
(g64
g50
NtRp3704
(dp3705
g53
(dp3706
sg62
g3700
sg55
(lp3707
g48
(g69
g50
NtRp3708
(dp3709
g53
(dp3710
sg62
g3704
sg55
(lp3711
g48
(g49
g50
NtRp3712
(dp3713
g53
(dp3714
g61
I1
ssg62
g3708
sg55
(lp3715
g3143
(S's\t\x00\x00\x00Acerca de'
tRp3716
asbasbasbag48
(g64
g50
NtRp3717
(dp3718
g53
(dp3719
sg62
g3700
sg55
(lp3720
g48
(g69
g50
NtRp3721
(dp3722
g53
(dp3723
sg62
g3717
sg55
(lp3724
g48
(g49
g50
NtRp3725
(dp3726
g53
(dp3727
g61
I1
ssg62
g3721
sg55
(lp3728
I00
asbasbasbag48
(g64
g50
NtRp3729
(dp3730
g53
(dp3731
sg62
g3700
sg55
(lp3732
g48
(g69
g50
NtRp3733
(dp3734
g53
(dp3735
sg62
g3729
sg55
(lp3736
g48
(g49
g50
NtRp3737
(dp3738
g53
(dp3739
g61
I1
ssg62
g3733
sg55
(lp3740
S'/admin/default/about/Desglosar_Emails'
p3741
asbasbasbasbasbasbasbasbasbasbasbasbasbasbasbag48
(g64
g50
NtRp3742
(dp3743
g53
(dp3744
sg62
g3111
sg55
(lp3745
g48
(g69
g50
NtRp3746
(dp3747
g53
(dp3748
sg62
g3742
sg55
(lp3749
g48
(g49
g50
NtRp3750
(dp3751
g53
(dp3752
g61
I4
ssg62
g3746
sg55
(lp3753
g48
(g57
g50
NtRp3754
(dp3755
g53
(dp3756
g61
I3
ssg62
Nsg55
(lp3757
g48
(g64
g50
NtRp3758
(dp3759
g53
(dp3760
sg62
g3754
sg55
(lp3761
g48
(g69
g50
NtRp3762
(dp3763
g53
(dp3764
sg62
g3758
sg55
(lp3765
g48
(g49
g50
NtRp3766
(dp3767
g53
(dp3768
g61
I3
ssg62
g3762
sg55
(lp3769
g3143
(S't\t\x00\x00\x00Resources'
tRp3770
asbasbasbag48
(g64
g50
NtRp3771
(dp3772
g53
(dp3773
sg62
g3754
sg55
(lp3774
g48
(g69
g50
NtRp3775
(dp3776
g53
(dp3777
sg62
g3771
sg55
(lp3778
g48
(g49
g50
NtRp3779
(dp3780
g53
(dp3781
g61
I3
ssg62
g3775
sg55
(lp3782
g91
asbasbasbag48
(g64
g50
NtRp3783
(dp3784
g53
(dp3785
sg62
g3754
sg55
(lp3786
g48
(g69
g50
NtRp3787
(dp3788
g53
(dp3789
sg62
g3783
sg55
(lp3790
g48
(g49
g50
NtRp3791
(dp3792
g53
(dp3793
g61
I3
ssg62
g3787
sg55
(lp3794
S'None'
p3795
asbasbasbag48
(g64
g50
NtRp3796
(dp3797
g53
(dp3798
sg62
g3754
sg55
(lp3799
g48
(g69
g50
NtRp3800
(dp3801
g53
(dp3802
sg62
g3796
sg55
(lp3803
g48
(g49
g50
NtRp3804
(dp3805
g53
(dp3806
g61
I3
ssg62
g3800
sg55
(lp3807
g48
(g57
g50
NtRp3808
(dp3809
g53
(dp3810
g61
I2
ssg62
Nsg55
(lp3811
g48
(g64
g50
NtRp3812
(dp3813
g53
(dp3814
sg62
g3808
sg55
(lp3815
g48
(g69
g50
NtRp3816
(dp3817
g53
(dp3818
sg62
g3812
sg55
(lp3819
g48
(g49
g50
NtRp3820
(dp3821
g53
(dp3822
g61
I2
ssg62
g3816
sg55
(lp3823
g48
(g57
g50
NtRp3824
(dp3825
g53
(dp3826
g61
I1
ssg62
Nsg55
(lp3827
g48
(g64
g50
NtRp3828
(dp3829
g53
(dp3830
sg62
g3824
sg55
(lp3831
g48
(g69
g50
NtRp3832
(dp3833
g53
(dp3834
sg62
g3828
sg55
(lp3835
g48
(g49
g50
NtRp3836
(dp3837
g53
(dp3838
g61
I1
ssg62
g3832
sg55
(lp3839
g3143
(S's\x0e\x00\x00\x00Documentaci\xc3\xb3n'
tRp3840
asbasbasbag48
(g64
g50
NtRp3841
(dp3842
g53
(dp3843
sg62
g3824
sg55
(lp3844
g48
(g69
g50
NtRp3845
(dp3846
g53
(dp3847
sg62
g3841
sg55
(lp3848
g48
(g49
g50
NtRp3849
(dp3850
g53
(dp3851
g61
I1
ssg62
g3845
sg55
(lp3852
I00
asbasbasbag48
(g64
g50
NtRp3853
(dp3854
g53
(dp3855
sg62
g3824
sg55
(lp3856
g48
(g69
g50
NtRp3857
(dp3858
g53
(dp3859
sg62
g3853
sg55
(lp3860
g48
(g49
g50
NtRp3861
(dp3862
g53
(dp3863
g61
I1
ssg62
g3857
sg55
(lp3864
S'http://www.web2py.com/book'
p3865
asbasbasbag48
(g64
g50
NtRp3866
(dp3867
g53
(dp3868
sg62
g3824
sg55
(lp3869
g48
(g69
g50
NtRp3870
(dp3871
g53
(dp3872
sg62
g3866
sg55
(lp3873
g48
(g49
g50
NtRp3874
(dp3875
g53
(dp3876
g61
I1
ssg62
g3870
sg55
(lp3877
(lp3878
(g3143
(S't\x07\x00\x00\x00Preface'
tRp3879
I00
S'http://www.web2py.com/book/default/chapter/00'
tp3880
a(g3143
(S't\x0c\x00\x00\x00Introduction'
tRp3881
I00
S'http://www.web2py.com/book/default/chapter/01'
tp3882
a(g3143
(S't\x06\x00\x00\x00Python'
tRp3883
I00
S'http://www.web2py.com/book/default/chapter/02'
tp3884
a(g3143
(S't\x08\x00\x00\x00Overview'
tRp3885
I00
S'http://www.web2py.com/book/default/chapter/03'
tp3886
a(g3143
(S's\x08\x00\x00\x00The Core'
tRp3887
I00
S'http://www.web2py.com/book/default/chapter/04'
tp3888
a(g3143
(S's\t\x00\x00\x00The Views'
tRp3889
I00
S'http://www.web2py.com/book/default/chapter/05'
tp3890
a(g3143
(S's\r\x00\x00\x00Base de datos'
tRp3891
I00
S'http://www.web2py.com/book/default/chapter/06'
tp3892
a(g3143
(S's\x14\x00\x00\x00Forms and Validators'
tRp3893
I00
S'http://www.web2py.com/book/default/chapter/07'
tp3894
a(g3143
(S's\x0e\x00\x00\x00Access Control'
tRp3895
I00
S'http://www.web2py.com/book/default/chapter/08'
tp3896
a(g3143
(S't\x08\x00\x00\x00Services'
tRp3897
I00
S'http://www.web2py.com/book/default/chapter/09'
tp3898
a(g3143
(S's\x0c\x00\x00\x00Ajax Recipes'
tRp3899
I00
S'http://www.web2py.com/book/default/chapter/10'
tp3900
a(g3143
(S's\x12\x00\x00\x00Deployment Recipes'
tRp3901
I00
S'http://www.web2py.com/book/default/chapter/11'
tp3902
a(g3143
(S's\r\x00\x00\x00Other Recipes'
tRp3903
I00
S'http://www.web2py.com/book/default/chapter/12'
tp3904
a(g3143
(S's\r\x00\x00\x00Buy this book'
tRp3905
I00
S'http://stores.lulu.com/web2py'
tp3906
aasbasbasbasbasbasbasbag48
(g64
g50
NtRp3907
(dp3908
g53
(dp3909
sg62
g3808
sg55
(lp3910
g48
(g69
g50
NtRp3911
(dp3912
g53
(dp3913
sg62
g3907
sg55
(lp3914
g48
(g49
g50
NtRp3915
(dp3916
g53
(dp3917
g61
I2
ssg62
g3911
sg55
(lp3918
g48
(g57
g50
NtRp3919
(dp3920
g53
(dp3921
g61
I1
ssg62
Nsg55
(lp3922
g48
(g64
g50
NtRp3923
(dp3924
g53
(dp3925
sg62
g3919
sg55
(lp3926
g48
(g69
g50
NtRp3927
(dp3928
g53
(dp3929
sg62
g3923
sg55
(lp3930
g48
(g49
g50
NtRp3931
(dp3932
g53
(dp3933
g61
I1
ssg62
g3927
sg55
(lp3934
g3143
(S't\t\x00\x00\x00Community'
tRp3935
asbasbasbag48
(g64
g50
NtRp3936
(dp3937
g53
(dp3938
sg62
g3919
sg55
(lp3939
g48
(g69
g50
NtRp3940
(dp3941
g53
(dp3942
sg62
g3936
sg55
(lp3943
g48
(g49
g50
NtRp3944
(dp3945
g53
(dp3946
g61
I1
ssg62
g3940
sg55
(lp3947
I00
asbasbasbag48
(g64
g50
NtRp3948
(dp3949
g53
(dp3950
sg62
g3919
sg55
(lp3951
g48
(g69
g50
NtRp3952
(dp3953
g53
(dp3954
sg62
g3948
sg55
(lp3955
g48
(g49
g50
NtRp3956
(dp3957
g53
(dp3958
g61
I1
ssg62
g3952
sg55
(lp3959
Nasbasbasbag48
(g64
g50
NtRp3960
(dp3961
g53
(dp3962
sg62
g3919
sg55
(lp3963
g48
(g69
g50
NtRp3964
(dp3965
g53
(dp3966
sg62
g3960
sg55
(lp3967
g48
(g49
g50
NtRp3968
(dp3969
g53
(dp3970
g61
I1
ssg62
g3964
sg55
(lp3971
(lp3972
(g3143
(S't\x06\x00\x00\x00Groups'
tRp3973
I00
S'http://www.web2py.com/examples/default/usergroups'
tp3974
a(g3143
(S't\x07\x00\x00\x00Twitter'
tRp3975
I00
S'http://twitter.com/web2py'
tp3976
a(g3143
(S's\t\x00\x00\x00Live chat'
tRp3977
I00
S'http://mibbit.com/?channel=%23web2py&server=irc.mibbit.net'
tp3978
a(g3143
(S's\n\x00\x00\x00User Voice'
tRp3979
I00
S'http://web2py.uservoice.com/'
tp3980
aasbasbasbasbasbasbasbag48
(g64
g50
NtRp3981
(dp3982
g53
(dp3983
sg62
g3808
sg55
(lp3984
g48
(g69
g50
NtRp3985
(dp3986
g53
(dp3987
sg62
g3981
sg55
(lp3988
g48
(g49
g50
NtRp3989
(dp3990
g53
(dp3991
g61
I2
ssg62
g3985
sg55
(lp3992
g48
(g57
g50
NtRp3993
(dp3994
g53
(dp3995
g61
I1
ssg62
Nsg55
(lp3996
g48
(g64
g50
NtRp3997
(dp3998
g53
(dp3999
sg62
g3993
sg55
(lp4000
g48
(g69
g50
NtRp4001
(dp4002
g53
(dp4003
sg62
g3997
sg55
(lp4004
g48
(g49
g50
NtRp4005
(dp4006
g53
(dp4007
g61
I1
ssg62
g4001
sg55
(lp4008
g3143
(S't\x06\x00\x00\x00Web2py'
tRp4009
asbasbasbag48
(g64
g50
NtRp4010
(dp4011
g53
(dp4012
sg62
g3993
sg55
(lp4013
g48
(g69
g50
NtRp4014
(dp4015
g53
(dp4016
sg62
g4010
sg55
(lp4017
g48
(g49
g50
NtRp4018
(dp4019
g53
(dp4020
g61
I1
ssg62
g4014
sg55
(lp4021
I00
asbasbasbag48
(g64
g50
NtRp4022
(dp4023
g53
(dp4024
sg62
g3993
sg55
(lp4025
g48
(g69
g50
NtRp4026
(dp4027
g53
(dp4028
sg62
g4022
sg55
(lp4029
g48
(g49
g50
NtRp4030
(dp4031
g53
(dp4032
g61
I1
ssg62
g4026
sg55
(lp4033
S'http://www.web2py.com'
p4034
asbasbasbag48
(g64
g50
NtRp4035
(dp4036
g53
(dp4037
sg62
g3993
sg55
(lp4038
g48
(g69
g50
NtRp4039
(dp4040
g53
(dp4041
sg62
g4035
sg55
(lp4042
g48
(g49
g50
NtRp4043
(dp4044
g53
(dp4045
g61
I1
ssg62
g4039
sg55
(lp4046
(lp4047
(g3143
(S't\x08\x00\x00\x00Download'
tRp4048
I00
S'http://www.web2py.com/examples/default/download'
tp4049
a(g3143
(S't\x07\x00\x00\x00Support'
tRp4050
I00
S'http://www.web2py.com/examples/default/support'
tp4051
a(g3143
(S's\x0e\x00\x00\x00Quick Examples'
tRp4052
I00
S'http://web2py.com/examples/default/examples'
tp4053
a(g3143
(S't\x03\x00\x00\x00FAQ'
tRp4054
I00
S'http://web2py.com/AlterEgo'
tp4055
a(g3143
(S's\x11\x00\x00\x00Free Applications'
tRp4056
I00
S'http://web2py.com/appliances'
tp4057
a(g3143
(S't\x07\x00\x00\x00Plugins'
tRp4058
I00
S'http://web2py.com/plugins'
tp4059
a(g3143
(S't\x07\x00\x00\x00Recipes'
tRp4060
I00
S'http://web2pyslices.com/'
tp4061
a(g3143
(S't\x04\x00\x00\x00Demo'
tRp4062
I00
S'http://web2py.com/demo_admin'
tp4063
a(g3143
(S't\x08\x00\x00\x00Semantic'
tRp4064
I00
S'http://web2py.com/semantic'
tp4065
a(g3143
(S't\x07\x00\x00\x00Layouts'
tRp4066
I00
S'http://web2py.com/layouts'
tp4067
a(g3143
(S't\x06\x00\x00\x00Videos'
tRp4068
I00
S'http://www.web2py.com/examples/default/videos/'
tp4069
aasbasbasbasbasbasbasbasbasbasbasbasbasbasbasbasbasbasbasbag48
(g64
g50
NtRp4070
(dp4071
g53
(dp4072
sg62
g2592
sg55
(lp4073
g48
(g69
g50
NtRp4074
(dp4075
g53
(dp4076
g73
g74
ssg62
g4070
sg55
(lp4077
S'meta'
p4078
asbag48
(g69
g50
NtRp4079
(dp4080
g53
(dp4081
g80
g81
ssg62
g4070
sg55
(lp4082
S':'
asbag48
(g69
g50
NtRp4083
(dp4084
g53
(dp4085
sg62
g4070
sg55
(lp4086
g48
(g49
g50
NtRp4087
(dp4088
g53
(dp4089
g61
I5
ssg62
g4083
sg55
(lp4090
g48
(g57
g50
NtRp4091
(dp4092
g53
(dp4093
g61
I4
ssg62
Nsg55
(lp4094
g48
(g64
g50
NtRp4095
(dp4096
g53
(dp4097
sg62
g4091
sg55
(lp4098
g48
(g69
g50
NtRp4099
(dp4100
g53
(dp4101
g73
g74
ssg62
g4095
sg55
(lp4102
S'author'
p4103
asbag48
(g69
g50
NtRp4104
(dp4105
g53
(dp4106
g80
g81
ssg62
g4095
sg55
(lp4107
S':'
asbag48
(g69
g50
NtRp4108
(dp4109
g53
(dp4110
sg62
g4095
sg55
(lp4111
g48
(g49
g50
NtRp4112
(dp4113
g53
(dp4114
g61
I4
ssg62
g4108
sg55
(lp4115
S'you'
p4116
asbasbasbag48
(g64
g50
NtRp4117
(dp4118
g53
(dp4119
sg62
g4091
sg55
(lp4120
g48
(g69
g50
NtRp4121
(dp4122
g53
(dp4123
g73
g74
ssg62
g4117
sg55
(lp4124
S'copyright'
p4125
asbag48
(g69
g50
NtRp4126
(dp4127
g53
(dp4128
g80
g81
ssg62
g4117
sg55
(lp4129
S':'
asbag48
(g69
g50
NtRp4130
(dp4131
g53
(dp4132
sg62
g4117
sg55
(lp4133
g48
(g49
g50
NtRp4134
(dp4135
g53
(dp4136
g61
I4
ssg62
g4130
sg55
(lp4137
S'Copyright 2007-2010'
p4138
asbasbasbag48
(g64
g50
NtRp4139
(dp4140
g53
(dp4141
sg62
g4091
sg55
(lp4142
g48
(g69
g50
NtRp4143
(dp4144
g53
(dp4145
g73
g74
ssg62
g4139
sg55
(lp4146
S'description'
p4147
asbag48
(g69
g50
NtRp4148
(dp4149
g53
(dp4150
g80
g81
ssg62
g4139
sg55
(lp4151
S':'
asbag48
(g69
g50
NtRp4152
(dp4153
g53
(dp4154
sg62
g4139
sg55
(lp4155
g48
(g49
g50
NtRp4156
(dp4157
g53
(dp4158
g61
I4
ssg62
g4152
sg55
(lp4159
S'Free and open source full-stack enterprise framework for agile development of fast, scalable, secure and portable database-driven web-based applications. Written and programmable in Python'
p4160
asbasbasbag48
(g64
g50
NtRp4161
(dp4162
g53
(dp4163
sg62
g4091
sg55
(lp4164
g48
(g69
g50
NtRp4165
(dp4166
g53
(dp4167
g73
g74
ssg62
g4161
sg55
(lp4168
S'generator'
p4169
asbag48
(g69
g50
NtRp4170
(dp4171
g53
(dp4172
g80
g81
ssg62
g4161
sg55
(lp4173
S':'
asbag48
(g69
g50
NtRp4174
(dp4175
g53
(dp4176
sg62
g4161
sg55
(lp4177
g48
(g49
g50
NtRp4178
(dp4179
g53
(dp4180
g61
I4
ssg62
g4174
sg55
(lp4181
S'Web2py Enterprise Framework'
p4182
asbasbasbag48
(g64
g50
NtRp4183
(dp4184
g53
(dp4185
sg62
g4091
sg55
(lp4186
g48
(g69
g50
NtRp4187
(dp4188
g53
(dp4189
g73
g74
ssg62
g4183
sg55
(lp4190
S'keywords'
p4191
asbag48
(g69
g50
NtRp4192
(dp4193
g53
(dp4194
g80
g81
ssg62
g4183
sg55
(lp4195
S':'
asbag48
(g69
g50
NtRp4196
(dp4197
g53
(dp4198
sg62
g4183
sg55
(lp4199
g48
(g49
g50
NtRp4200
(dp4201
g53
(dp4202
g61
I4
ssg62
g4196
sg55
(lp4203
S'web2py, python, framework'
p4204
asbasbasbasbasbasbasbag48
(g64
g50
NtRp4205
(dp4206
g53
(dp4207
sg62
g2592
sg55
(lp4208
g48
(g69
g50
NtRp4209
(dp4210
g53
(dp4211
g73
g74
ssg62
g4205
sg55
(lp4212
S'postprocessing'
p4213
asbag48
(g69
g50
NtRp4214
(dp4215
g53
(dp4216
g80
g81
ssg62
g4205
sg55
(lp4217
S':'
asbag48
(g69
g50
NtRp4218
(dp4219
g53
(dp4220
sg62
g4205
sg55
(lp4221
g48
(g49
g50
NtRp4222
(dp4223
g53
(dp4224
g61
I5
ssg62
g4218
sg55
(lp4225
g48
(g57
g50
NtRp4226
(dp4227
g53
(dp4228
g61
I4
ssg62
Nsg55
(lp4229
sbasbasbasbag48
(g64
g50
NtRp4230
(dp4231
g53
(dp4232
sg62
g2592
sg55
(lp4233
g48
(g69
g50
NtRp4234
(dp4235
g53
(dp4236
g73
g74
ssg62
g4230
sg55
(lp4237
S'session_file'
p4238
asbag48
(g69
g50
NtRp4239
(dp4240
g53
(dp4241
g80
g81
ssg62
g4230
sg55
(lp4242
S':'
asbag48
(g69
g50
NtRp4243
(dp4244
g53
(dp4245
sg62
g4230
sg55
(lp4246
g48
(g49
g50
NtRp4247
(dp4248
g53
(dp4249
g61
I5
ssg62
g4243
sg55
(lp4250
S"<open file 'C:\\Users\\Atomico\\web2py\\applications\\Desglosar_Emails\\sessions\\127.0.0.1-78cf8050-df87-4502-afb9-ed0c3843b414', mode 'rb+' at 0x08826DE8>"
p4251
asbasbasbag48
(g64
g50
NtRp4252
(dp4253
g53
(dp4254
sg62
g2592
sg55
(lp4255
g48
(g69
g50
NtRp4256
(dp4257
g53
(dp4258
g73
g74
ssg62
g4252
sg55
(lp4259
S'session_filename'
p4260
asbag48
(g69
g50
NtRp4261
(dp4262
g53
(dp4263
g80
g81
ssg62
g4252
sg55
(lp4264
S':'
asbag48
(g69
g50
NtRp4265
(dp4266
g53
(dp4267
sg62
g4252
sg55
(lp4268
g48
(g49
g50
NtRp4269
(dp4270
g53
(dp4271
g61
I5
ssg62
g4265
sg55
(lp4272
S'C:\\Users\\Atomico\\web2py\\applications\\Desglosar_Emails\\sessions\\127.0.0.1-78cf8050-df87-4502-afb9-ed0c3843b414'
p4273
asbasbasbag48
(g64
g50
NtRp4274
(dp4275
g53
(dp4276
sg62
g2592
sg55
(lp4277
g48
(g69
g50
NtRp4278
(dp4279
g53
(dp4280
g73
g74
ssg62
g4274
sg55
(lp4281
S'session_id'
p4282
asbag48
(g69
g50
NtRp4283
(dp4284
g53
(dp4285
g80
g81
ssg62
g4274
sg55
(lp4286
S':'
asbag48
(g69
g50
NtRp4287
(dp4288
g53
(dp4289
sg62
g4274
sg55
(lp4290
g48
(g49
g50
NtRp4291
(dp4292
g53
(dp4293
g61
I5
ssg62
g4287
sg55
(lp4294
S'127.0.0.1-78cf8050-df87-4502-afb9-ed0c3843b414'
p4295
asbasbasbag48
(g64
g50
NtRp4296
(dp4297
g53
(dp4298
sg62
g2592
sg55
(lp4299
g48
(g69
g50
NtRp4300
(dp4301
g53
(dp4302
g73
g74
ssg62
g4296
sg55
(lp4303
S'session_id_name'
p4304
asbag48
(g69
g50
NtRp4305
(dp4306
g53
(dp4307
g80
g81
ssg62
g4296
sg55
(lp4308
S':'
asbag48
(g69
g50
NtRp4309
(dp4310
g53
(dp4311
sg62
g4296
sg55
(lp4312
g48
(g49
g50
NtRp4313
(dp4314
g53
(dp4315
g61
I5
ssg62
g4309
sg55
(lp4316
g2649
asbasbasbag48
(g64
g50
NtRp4317
(dp4318
g53
(dp4319
sg62
g2592
sg55
(lp4320
g48
(g69
g50
NtRp4321
(dp4322
g53
(dp4323
g73
g74
ssg62
g4317
sg55
(lp4324
S'session_locked'
p4325
asbag48
(g69
g50
NtRp4326
(dp4327
g53
(dp4328
g80
g81
ssg62
g4317
sg55
(lp4329
S':'
asbag48
(g69
g50
NtRp4330
(dp4331
g53
(dp4332
sg62
g4317
sg55
(lp4333
g48
(g49
g50
NtRp4334
(dp4335
g53
(dp4336
g61
I5
ssg62
g4330
sg55
(lp4337
g1521
asbasbasbag48
(g64
g50
NtRp4338
(dp4339
g53
(dp4340
sg62
g2592
sg55
(lp4341
g48
(g69
g50
NtRp4342
(dp4343
g53
(dp4344
g73
g74
ssg62
g4338
sg55
(lp4345
S'session_new'
p4346
asbag48
(g69
g50
NtRp4347
(dp4348
g53
(dp4349
g80
g81
ssg62
g4338
sg55
(lp4350
S':'
asbag48
(g69
g50
NtRp4351
(dp4352
g53
(dp4353
sg62
g4338
sg55
(lp4354
g48
(g49
g50
NtRp4355
(dp4356
g53
(dp4357
g61
I5
ssg62
g4351
sg55
(lp4358
g91
asbasbasbag48
(g64
g50
NtRp4359
(dp4360
g53
(dp4361
sg62
g2592
sg55
(lp4362
g48
(g69
g50
NtRp4363
(dp4364
g53
(dp4365
g73
g74
ssg62
g4359
sg55
(lp4366
S'status'
p4367
asbag48
(g69
g50
NtRp4368
(dp4369
g53
(dp4370
g80
g81
ssg62
g4359
sg55
(lp4371
S':'
asbag48
(g69
g50
NtRp4372
(dp4373
g53
(dp4374
sg62
g4359
sg55
(lp4375
g48
(g49
g50
NtRp4376
(dp4377
g53
(dp4378
g61
I5
ssg62
g4372
sg55
(lp4379
S'200'
p4380
asbasbasbag48
(g64
g50
NtRp4381
(dp4382
g53
(dp4383
sg62
g2592
sg55
(lp4384
g48
(g69
g50
NtRp4385
(dp4386
g53
(dp4387
g73
g74
ssg62
g4381
sg55
(lp4388
S'subtitle'
p4389
asbag48
(g69
g50
NtRp4390
(dp4391
g53
(dp4392
g80
g81
ssg62
g4381
sg55
(lp4393
S':'
asbag48
(g69
g50
NtRp4394
(dp4395
g53
(dp4396
sg62
g4381
sg55
(lp4397
g48
(g49
g50
NtRp4398
(dp4399
g53
(dp4400
g61
I5
ssg62
g4394
sg55
(lp4401
g3143
(S's\t\x00\x00\x00Adaptame!'
tRp4402
asbasbasbag48
(g64
g50
NtRp4403
(dp4404
g53
(dp4405
sg62
g2592
sg55
(lp4406
g48
(g69
g50
NtRp4407
(dp4408
g53
(dp4409
g73
g74
ssg62
g4403
sg55
(lp4410
S'title'
p4411
asbag48
(g69
g50
NtRp4412
(dp4413
g53
(dp4414
g80
g81
ssg62
g4403
sg55
(lp4415
S':'
asbag48
(g69
g50
NtRp4416
(dp4417
g53
(dp4418
sg62
g4403
sg55
(lp4419
g48
(g49
g50
NtRp4420
(dp4421
g53
(dp4422
g61
I5
ssg62
g4416
sg55
(lp4423
g113
asbasbasbag48
(g64
g50
NtRp4424
(dp4425
g53
(dp4426
sg62
g2592
sg55
(lp4427
g48
(g69
g50
NtRp4428
(dp4429
g53
(dp4430
g73
g74
ssg62
g4424
sg55
(lp4431
g1845
asbag48
(g69
g50
NtRp4432
(dp4433
g53
(dp4434
g80
g81
ssg62
g4424
sg55
(lp4435
S':'
asbag48
(g69
g50
NtRp4436
(dp4437
g53
(dp4438
sg62
g4424
sg55
(lp4439
g48
(g49
g50
NtRp4440
(dp4441
g53
(dp4442
g61
I5
ssg62
g4436
sg55
(lp4443
g1858
asbasbasbag48
(g64
g50
NtRp4444
(dp4445
g53
(dp4446
sg62
g2592
sg55
(lp4447
g48
(g69
g50
NtRp4448
(dp4449
g53
(dp4450
g73
g74
ssg62
g4444
sg55
(lp4451
S'view'
p4452
asbag48
(g69
g50
NtRp4453
(dp4454
g53
(dp4455
g80
g81
ssg62
g4444
sg55
(lp4456
S':'
asbag48
(g69
g50
NtRp4457
(dp4458
g53
(dp4459
sg62
g4444
sg55
(lp4460
g48
(g49
g50
NtRp4461
(dp4462
g53
(dp4463
g61
I5
ssg62
g4457
sg55
(lp4464
S'default/entrada_mod3.html'
p4465
asbasbasbasbasbsS'locals'
p4466
(dp4467
S'self'
p4468
S"<Storage {'body': <cStringIO.StringO object at 0...x0850DFB0>, 'view': 'default/entrada_mod3.html'}>"
p4469
sS'data'
p4470
S"'el elemento que toca es: res[i] y patternemail es: '"
p4471
sS'escape'
p4472
g1521
sssS'traceback'
p4473
S'Traceback (most recent call last):\n  File "gluon/restricted.py", line 192, in restricted\n  File "C:\\Users\\Atomico\\web2py\\applications\\Desglosar_Emails\\views\\default/entrada_mod3.html", line 121, in <module>\n  File "gluon/globals.py", line 154, in write\nMemoryError: out of memory\n'
p4474
s.