(dp1
S'output'
p2
S'missing "pass" in view'
p3
sS'layer'
p4
S'ParserContainer'
p5
sS'code'
p6
S'response.write(\'<!DOCTYPE html>\\n<html lang="\', escape=False)\nresponse.write(T.accepted_language or \'en\')\nresponse.write(\'" class="no-js"><!-- no-js need it for modernzr -->\\n  <head>\\n    \\n    <meta charset="utf-8" />\\t  \\t\\n    <!-- www.phpied.com/conditional-comments-block-downloads/ -->\\n    <!--[if IE]><![endif]-->    \\n    <!-- Always force latest IE rendering engine \\n\\t (even in intranet) & Chrome Frame \\n\\t Remove this if you use the .htaccess -->\\n    <meta http-equiv="X-UA-Compatible" content="IE=edge,chrome=1">\\n    \\n    <title>\', escape=False)\nresponse.write(response.title or request.application)\nresponse.write(\'</title>\\n    \\n    <!-- http://dev.w3.org/html5/markup/meta.name.html -->\\n    <meta name="application-name" content="\', escape=False)\nresponse.write(request.application)\nresponse.write(\'" />\\t\\n    \\n    <!-- Speaking of Google, don\\\'t forget to set your site up: \\n\\t http://google.com/webmasters -->\\n    <meta name="google-site-verification" content="" />\\n    \\n    <!--  Mobile Viewport Fix\\n\\t  j.mp/mobileviewport & davidbcalhoun.com/2010/viewport-metatag \\n\\t  device-width: Occupy full width of the screen in its current orientation\\n\\t  initial-scale = 1.0 retains dimensions instead of zooming out if page height > device height\\n\\t  maximum-scale = 1.0 retains dimensions instead of zooming in if page width < device width\\n      -->\\n    <meta name="viewport" content="width=device-width, initial-scale=1.0, maximum-scale=1.0">\\n    \\n    <!-- Place favicon.ico and apple-touch-icon.png in the root of your domain and delete these references -->\\n    <link rel="shortcut icon" href="\', escape=False)\nresponse.write(URL(\'static\',\'favicon.ico\'))\nresponse.write(\'" type="image/x-icon">\\n    <link rel="apple-touch-icon" href="\', escape=False)\nresponse.write(URL(\'static\',\'favicon.png\'))\nresponse.write(\'">\\n\\n    <!-- For the less-enabled mobile browsers like Opera Mini -->\\n    <link rel="stylesheet" media="handheld" href="\', escape=False)\nresponse.write(URL(\'static\',\'css/handheld.css\'))\nresponse.write(\'">\\n    \\n    <!-- All JavaScript at the bottom, except for Modernizr which enables HTML5 elements & feature detects -->\\n    <script src="\', escape=False)\nresponse.write(URL(\'static\',\'js/modernizr-1.7.min.js\'))\nresponse.write(\'"></script>\\n    \\n    \', escape=False)\n#------  require CSS and JS files for this page (read info in base.css) ------\nresponse.write(\'\\n    \', escape=False)\nresponse.files.append(URL(\'static\',\'css/base.css\'))\nresponse.write(\'\\n    \', escape=False)\nresponse.files.append(URL(\'static\',\'css/superfish.css\'))\nresponse.write(\'\\n    \', escape=False)\nresponse.files.append(URL(\'static\',\'js/superfish.js\'))\nresponse.write(\'\\n    \', escape=False)\n#------ include web2py specific js code (jquery, calendar, form stuff) ------\nresponse.write(\'\\n    \', escape=False)\nresponse.files.insert(0,URL(\'static\',\'js/jquery.js\'))\nresponse.files.insert(1,URL(\'static\',\'css/calendar.css\'))\nresponse.files.insert(2,URL(\'static\',\'js/calendar.js\'))\nfor _item in response.meta or []:\n    response.write(\'\\n     <meta name="\', escape=False)\n    response.write(_item)\n    response.write(\'" content="\', escape=False)\n    response.write(response.meta[_item])\n    response.write(\'" />\', escape=False)\n    pass\nfor _k,_file in enumerate(response.files or []):\n    if _file in response.files[:_k]:\n        continue\n    _file0=_file.lower().split(\'?\')[0]\n    if _file0.endswith(\'.css\'):\n        response.write(\'\\n     <link href="\', escape=False)\n        response.write(_file)\n        response.write(\'" rel="stylesheet" type="text/css" />\', escape=False)\n    elif _file0.endswith(\'.js\'):\n        response.write(\'\\n     <script src="\', escape=False)\n        response.write(_file)\n        response.write(\'" type="text/javascript"></script>\', escape=False)\n        pass\n    pass\nresponse.write(\'\\n    <script type="text/javascript"><!--\\n    // These variables are used by the web2py_ajax_init function in web2py_ajax.js (which is loaded below).\\n    var w2p_ajax_confirm_message = "\', escape=False)\nresponse.write(T(\'Are you sure you want to delete this object?\'))\nresponse.write(\'";\\n    var w2p_ajax_date_format = "\', escape=False)\nresponse.write(T(\'%Y-%m-%d\'))\nresponse.write(\'";\\n    var w2p_ajax_datetime_format = "\', escape=False)\nresponse.write(T(\'%Y-%m-%d %H:%M:%S\'))\nresponse.write(\'";\\n    //--></script>\\n    <script src="\', escape=False)\nresponse.write(URL(\'static\',\'js/web2py_ajax.js\'))\nresponse.write(\'" type="text/javascript"></script>\\n\', escape=False)\nresponse.write(\'\\n\\n    \', escape=False)\n#using sidebars need to know what sidebar you want to use\n#prior of using it, because of static width size of content, you can use\n#left_sidebar, right_sidebar, both or none (False left and right)\nleft_sidebar_enabled = globals().get(\'left_sidebar_enabled\',False)\nright_sidebar_enabled = globals().get(\'right_sidebar_enabled\',False)\nif left_sidebar_enabled and right_sidebar_enabled: width_content=\'63%\'\nelif left_sidebar_enabled != right_sidebar_enabled: width_content=\'740px\'\nelse: width_content=\'100%\'\nif left_sidebar_enabled: left_sidebar_style = \'style="display: block;"\'\nelse: left_sidebar_style = \'style="display: none;"\'\nif right_sidebar_enabled: right_sidebar_style = \'style="display: block;"\'\nelse: right_sidebar_style = \'style="display: none;"\'\nstyle_content = \'style="width: %s"\' % width_content\nresponse.write(\'\\n  </head>\\n  \\n  <!-- paulirish.com/2008/conditional-stylesheets-vs-css-hacks-answer-neither/ -->\\t\\n  <!--[if lt IE 7 ]> <body class="ie6"> <![endif]-->\\n  <!--[if IE 7 ]>    <body class="ie7"> <![endif]-->\\n  <!--[if IE 8 ]>    <body class="ie8"> <![endif]-->\\n  <!--[if IE 9 ]>    <body class="ie9"> <![endif]-->\\n  <!--[if (gt IE 9)|!(IE)]><!--> <body> <!--<![endif]-->\\n    \\n    <div class="flash">\', escape=False)\nresponse.write(response.flash or \'\')\nresponse.write(\'</div> <!-- notification div -->\\n    \\n    <div id="container">\\t      \\t\\t      \\t\\n      \\n      <div id="wrapper">\\t\\t\\n\\t\\n\\t<div id="header"> <!-- header and login nav -->\\n\\t  \', escape=False)\nresponse.write(\' <!-- this is default header -->\\n\\t  \', escape=False)\ntry:\n    response.write(auth.navbar(action=URL(\'default\',\'user\')))\nexcept:pass\nresponse.write(\'\\t\\t          \\n\\t  <h1><span id="appname">\', escape=False)\nresponse.write(request.application.capitalize())\nresponse.write(\'</span>App</h1>\\n\\t  <div style="clear: both;"></div><!-- Clear the divs -->\\n\\t  \', escape=False)\nresponse.write(\'\\t\\t\\t\\t  \\t\\t\\t\\t\\t  \\n\\t</div><!-- header  -->\\n\\t\\n\\t<div id="statusbar"><!-- statusbar is menu zone -->\\n\\t  \', escape=False)\nresponse.write(\' <!-- this is default statusbar -->\\n\\t  \', escape=False)\n#------ superfish menu ------\nresponse.write(\'\\n\\t  \', escape=False)\nresponse.write(MENU(response.menu,_class=\'sf-menu\'))\nresponse.write(\'\\n\\t  <script type="text/javascript">\\n\\t    jQuery(document).ready(function(){\\n\\t    jQuery(\\\'ul.sf-menu\\\').superfish();});\\n\\t  </script>\\n\\t  <div style="clear: both;"></div><!-- Clear the divs -->\\t\\n\\t  \', escape=False)\nresponse.write(\'\\t\\t\\t\\t\\n\\t</div><!-- statusbar -->\\n\\t\\n\\t<div id="page"> <!-- Here my central body -->\\t  \\n\\n\\t  \', escape=False)\nif left_sidebar_enabled:\n    response.write(\'\\n          <div id="left_sidebar" \', escape=False)\n    response.write(XML(left_sidebar_style))\n    response.write(\' >\\n            <div style="padding: 4px;">\\n\\t      \', escape=False)\n    response.write(\'Content Left Sidebar\', escape=False)\n    response.write(\'\\t\\t  \\n            </div>\\n          </div><!-- left_sidebar -->\\n\\t  \', escape=False)\n    pass\nresponse.write(\'\\n\\n\\t  <!-- content -->\\n\\t  <div id="content" \', escape=False)\nresponse.write(XML(style_content))\nresponse.write(\' >\\n\\t    \', escape=False)\nresponse.write(\'\\r\\n<h1>default/entrada_mod2.html</h1>\\r\\n<h2>Formulario</h2>\\r\\n\', escape=False)\nresponse.write(form)\nresponse.write(\'\\r\\n\\r\\n<h3>Tratamiento darle la longitud a cada elemento</h3>\\r\\n\', escape=False)\nrows=db().select(db.persona.ALL)\nresponse.write(rows)\nresponse.write(\'\\r\\nlen(db().select(db.persona.ALL) es \', escape=False)\nresponse.write(len(db().select(db.persona.ALL)))\nresponse.write(\'\\r\\n<br/>\\r\\nM\\xc3\\xa1s cosas: \\r\\n\', escape=False)\nultimo=db(db.persona.id==len(db().select(db.persona.ALL))).select()[0]\nresponse.write(ultimo.nombre)\nresponse.write(\'\\r\\n<br/>\\r\\nVoy a seleccionar todos los que est\\xc3\\xa9n por encima del 1975: \\r\\n\', escape=False)\njovenes=db(db.persona.nombre==\'Yo2\').select()\nresponse.write(len(jovenes))\nresponse.write(\'hola\')\nfor x in range(len(jovenes)):\n    response.write(x)\n    response.write(\'\\r\\n\', escape=False)\n    response.write(\'\\t\\n\\t  </div>\\n\\t  <!-- content -->\\n\\n\\t  \', escape=False)\n    if right_sidebar_enabled:\n        response.write(\'\\n          <div id="right_sidebar" \', escape=False)\n        response.write(XML(right_sidebar_style))\n        response.write(\' >\\n            <div style="padding: 4px;">\\n              \', escape=False)\n        response.write(\'Content Right Sidebar\', escape=False)\n        response.write(\'\\n            </div>\\n\\t  </div><!-- right_sidebar -->\\n          \', escape=False)\n        pass\n    response.write(\'\\n\\n\\n\\t  <div style="clear: both;"></div><!-- Clear the divs -->\\n\\t  \\n\\t</div><!-- page -->\\t\\t\\t\\t\\t\\t\\t\\n\\t\\n\\t<div id="footer">\\n\\t  \', escape=False)\n    response.write(\' <!-- this is default footer -->\\n\\t  <a href="http://www.web2py.com/" style="float: left; padding-right: 6px;">\\n\\t    <img src="\', escape=False)\n    response.write(URL(\'static\',\'images/poweredby.png\'))\n    response.write(\'"/>\\n\\t  </a>\\n\\t  \', escape=False)\n    response.write(T(\'Copyright\'))\n    response.write(\' &#169; 2010\\t\\t\\t\\t\\n\\t  <div style="clear: both;"></div><!-- Clear the divs -->\\n\\t  \', escape=False)\n    response.write(\'\\n\\n\\t</div><!-- footer -->\\t\\t\\t\\n      </div><!-- wrapper -->\\n    </div><!-- container -->\\t\\t\\n    \\n    <!--[if lt IE 7 ]>\\n\\t<script src="\', escape=False)\n    response.write(URL(\'static\',\'js/dd_belatedpng.js\'))\n    response.write(\'"></script>\\n\\t<script> DD_belatedPNG.fix(\\\'img, .png_bg\\\'); //fix any <img> or .png_bg background-images </script>\\n\\t<![endif]-->\\n    \\n    <!-- asynchronous google analytics: mathiasbynens.be/notes/async-analytics-snippet \\n\\t change the UA-XXXXX-X to be your site\\\'s ID -->\\n    <!--   \\n\\t   <script>\\n\\t     var _gaq = [[\\\'_setAccount\\\', \\\'UA-XXXXX-X\\\'], [\\\'_trackPageview\\\']];\\n\\t     (function(d, t) {\\n\\t     var g = d.createElement(t),\\n\\t     s = d.getElementsByTagName(t)[0];\\n\\t     g.async = true;\\n\\t     g.src = \\\'//www.google-analytics.com/ga.js\\\';\\n\\t     s.parentNode.insertBefore(g, s);\\n\\t     })(document, \\\'script\\\');\\n\\t   </script>\\n\\t   -->    \\n  </body>\\n</html>\\n\', escape=False)'
p7
sS'snapshot'
p8
(dp9
S'exception'
p10
(dp11
S'__hash__'
p12
S"<method-wrapper '__hash__' of SocketTimeout object at 0x0812AAA8>"
p13
sS'__module__'
p14
S"'gluon.rocket'"
p15
sS'__reduce_ex__'
p16
S'<built-in method __reduce_ex__ of SocketTimeout object at 0x0812AAA8>'
p17
sS'__getslice__'
p18
S"<method-wrapper '__getslice__' of SocketTimeout object at 0x0812AAA8>"
p19
sS'__getitem__'
p20
S"<method-wrapper '__getitem__' of SocketTimeout object at 0x0812AAA8>"
p21
sS'__setstate__'
p22
S'<built-in method __setstate__ of SocketTimeout object at 0x0812AAA8>'
p23
sS'__reduce__'
p24
S'<built-in method __reduce__ of SocketTimeout object at 0x0812AAA8>'
p25
sS'__str__'
p26
S"<method-wrapper '__str__' of SocketTimeout object at 0x0812AAA8>"
p27
sS'args'
p28
S"('Socket timed out before request.',)"
p29
sS'__getattribute__'
p30
S"<method-wrapper '__getattribute__' of SocketTimeout object at 0x0812AAA8>"
p31
sS'__class__'
p32
S"<class 'gluon.rocket.SocketTimeout'>"
p33
sS'__delattr__'
p34
S"<method-wrapper '__delattr__' of SocketTimeout object at 0x0812AAA8>"
p35
sS'__repr__'
p36
S"<method-wrapper '__repr__' of SocketTimeout object at 0x0812AAA8>"
p37
sS'__setattr__'
p38
S"<method-wrapper '__setattr__' of SocketTimeout object at 0x0812AAA8>"
p39
sS'__dict__'
p40
S'{}'
p41
sS'__weakref__'
p42
S'None'
p43
sS'__doc__'
p44
S"'Exception for when a socket times out between requests.'"
p45
sS'__init__'
p46
S"<method-wrapper '__init__' of SocketTimeout object at 0x0812AAA8>"
p47
sS'__new__'
p48
S'<built-in method __new__ of type object at 0x1E1CCBE8>'
p49
ssS'evalue'
p50
S'Socket timed out before request.'
p51
sS'frames'
p52
(lp53
(dp54
S'file'
p55
S'C:\\Users\\Atomico\\web2py\\gluon\\rocket.py'
p56
sS'dump'
p57
(dp58
sS'lnum'
p59
I1064
sS'lines'
p60
(dp61
sS'call'
p62
S'(self=<WSGIWorker(Thread-5, started daemon)>)'
p63
sS'func'
p64
S'run'
p65
sa(dp66
g55
S'C:\\Users\\Atomico\\web2py\\gluon\\rocket.py'
p67
sg57
(dp68
sg59
I1531
sg60
(dp69
sg62
S'(self=<WSGIWorker(Thread-5, started daemon)>, conn=<gluon.rocket.Connection object at 0x076B6DB0>)'
p70
sg64
S'run_app'
p71
sa(dp72
g55
S'C:\\Users\\Atomico\\web2py\\gluon\\rocket.py'
p73
sg57
(dp74
sg59
I1363
sg60
(dp75
sg62
S'(self=<WSGIWorker(Thread-5, started daemon)>, sock_file=<socket._fileobject object at 0x075A4470>, conn=<gluon.rocket.Connection object at 0x076B6DB0>)'
p76
sg64
S'build_environ'
p77
sa(dp78
g55
S'C:\\Users\\Atomico\\web2py\\gluon\\rocket.py'
p79
sg57
(dp80
sg59
I1138
sg60
(dp81
sg62
S'(self=<WSGIWorker(Thread-5, started daemon)>, sock_file=<socket._fileobject object at 0x075A4470>)'
p82
sg64
S'read_request_line'
p83
sasS'pyver'
p84
S'Python 2.5.4: C:\\Users\\Atomico\\web2py\\web2py.exe'
p85
sS'etype'
p86
S"<class 'gluon.rocket.SocketTimeout'>"
p87
sS'date'
p88
S'Mon Sep 19 08:17:59 2011'
p89
sS'locals'
p90
(dp91
S'sock_file'
p92
S'<socket._fileobject object at 0x075A4470>'
p93
sS'self'
p94
S'<WSGIWorker(Thread-5, started daemon)>'
p95
sssS'traceback'
p96
S'Traceback (most recent call last):\n  File "gluon/rocket.py", line 1064, in run\n  File "gluon/rocket.py", line 1531, in run_app\n  File "gluon/rocket.py", line 1363, in build_environ\n  File "gluon/rocket.py", line 1138, in read_request_line\nSocketTimeout: Socket timed out before request.\n'
p97
s.