(dp1
S'output'
p2
S''
sS'layer'
p3
S'C:\\Users\\Atomico\\web2py\\applications\\Desglosar_Emails\\controllers/default.py'
p4
sS'code'
p5
S'def entrada():\n    form=SQLFORM(db.info)\n    if form.accepts(request.vars,session): pass\n\n    \n    response.write(db.info[1].texto[3])\n    response.write(\'claro\')\n    longitud=len(db.info[2].texto)\n    b=0\n    for i in range(len(db.info[1].texto)):\n        b=b+1\n    response.write(\'El total de b es: \')\n    response.write(b)\n    \n    txt=db.info[11].texto\n    c=1\n    for i in range(len(txt)): c=c+1\n    response.write(\'el total de c es \'+str(c))\n    \n    cont=0\n    import re\n    pattern=re.compile("a[0-5]")\n    for i in range(len(txt)):\n    ## encontrar el primer email\n        s[cont]=txt[i]\n        if pattern.search(s):\n            response.write(\'Se ha encontrado a1 o a2 o a3 o a4 o a5 o a0\')\n        elif i==len(txt) and not pattern.search(s):\n            response.write(\'Nanai contrai\')\n        \n     \n    \n        \n    \n    \n\n\n\n\n    return dict(form=form)\n\nresponse._vars=response._caller(entrada)\n'
p6
sS'snapshot'
p7
(dp8
S'exception'
p9
(dp10
S'__hash__'
p11
S"<method-wrapper '__hash__' of exceptions.AttributeError object at 0x07CF64B8>"
p12
sS'__setattr__'
p13
S"<method-wrapper '__setattr__' of exceptions.AttributeError object at 0x07CF64B8>"
p14
sS'__reduce_ex__'
p15
S'<built-in method __reduce_ex__ of exceptions.AttributeError object at 0x07CF64B8>'
p16
sS'__getslice__'
p17
S"<method-wrapper '__getslice__' of exceptions.AttributeError object at 0x07CF64B8>"
p18
sS'__getitem__'
p19
S"<method-wrapper '__getitem__' of exceptions.AttributeError object at 0x07CF64B8>"
p20
sS'__setstate__'
p21
S'<built-in method __setstate__ of exceptions.AttributeError object at 0x07CF64B8>'
p22
sS'__reduce__'
p23
S'<built-in method __reduce__ of exceptions.AttributeError object at 0x07CF64B8>'
p24
sS'__str__'
p25
S"<method-wrapper '__str__' of exceptions.AttributeError object at 0x07CF64B8>"
p26
sS'args'
p27
S'("\'NoneType\' object has no attribute \'texto\'",)'
p28
sS'__getattribute__'
p29
S"<method-wrapper '__getattribute__' of exceptions.AttributeError object at 0x07CF64B8>"
p30
sS'__class__'
p31
S"<type 'exceptions.AttributeError'>"
p32
sS'__delattr__'
p33
S"<method-wrapper '__delattr__' of exceptions.AttributeError object at 0x07CF64B8>"
p34
sS'__repr__'
p35
S"<method-wrapper '__repr__' of exceptions.AttributeError object at 0x07CF64B8>"
p36
sS'__dict__'
p37
S'{}'
p38
sS'__doc__'
p39
S"'Attribute not found.'"
p40
sS'__init__'
p41
S"<method-wrapper '__init__' of exceptions.AttributeError object at 0x07CF64B8>"
p42
sS'__new__'
p43
S'<built-in method __new__ of type object at 0x1E1CDA68>'
p44
ssS'evalue'
p45
S"'NoneType' object has no attribute 'texto'"
p46
sS'request'
p47
ccopy_reg
_reconstructor
p48
(cgluon.html
BEAUTIFY
p49
c__builtin__
object
p50
NtRp51
(dp52
S'attributes'
p53
(dp54
sS'components'
p55
(lp56
g48
(cgluon.html
TABLE
p57
g50
NtRp58
(dp59
g53
(dp60
S'level'
p61
I5
ssS'parent'
p62
Nsg55
(lp63
g48
(cgluon.html
TR
p64
g50
NtRp65
(dp66
g53
(dp67
sg62
g58
sg55
(lp68
g48
(cgluon.html
TD
p69
g50
NtRp70
(dp71
g53
(dp72
S'_style'
p73
S'font-weight:bold;'
p74
ssg62
g65
sg55
(lp75
S'ajax'
p76
asbag48
(g69
g50
NtRp77
(dp78
g53
(dp79
S'_valign'
p80
S'top'
p81
ssg62
g65
sg55
(lp82
S':'
asbag48
(g69
g50
NtRp83
(dp84
g53
(dp85
sg62
g65
sg55
(lp86
g48
(g49
g50
NtRp87
(dp88
g53
(dp89
g61
I5
ssg62
g83
sg55
(lp90
S'False'
p91
asbasbasbag48
(g64
g50
NtRp92
(dp93
g53
(dp94
sg62
g58
sg55
(lp95
g48
(g69
g50
NtRp96
(dp97
g53
(dp98
g73
g74
ssg62
g92
sg55
(lp99
S'application'
p100
asbag48
(g69
g50
NtRp101
(dp102
g53
(dp103
g80
g81
ssg62
g92
sg55
(lp104
S':'
asbag48
(g69
g50
NtRp105
(dp106
g53
(dp107
sg62
g92
sg55
(lp108
g48
(g49
g50
NtRp109
(dp110
g53
(dp111
g61
I5
ssg62
g105
sg55
(lp112
S'Desglosar_Emails'
p113
asbasbasbag48
(g64
g50
NtRp114
(dp115
g53
(dp116
sg62
g58
sg55
(lp117
g48
(g69
g50
NtRp118
(dp119
g53
(dp120
g73
g74
ssg62
g114
sg55
(lp121
g27
asbag48
(g69
g50
NtRp122
(dp123
g53
(dp124
g80
g81
ssg62
g114
sg55
(lp125
S':'
asbag48
(g69
g50
NtRp126
(dp127
g53
(dp128
sg62
g114
sg55
(lp129
g48
(g49
g50
NtRp130
(dp131
g53
(dp132
g61
I5
ssg62
g126
sg55
(lp133
g48
(g57
g50
NtRp134
(dp135
g53
(dp136
g61
I4
ssg62
Nsg55
(lp137
sbasbasbasbag48
(g64
g50
NtRp138
(dp139
g53
(dp140
sg62
g58
sg55
(lp141
g48
(g69
g50
NtRp142
(dp143
g53
(dp144
g73
g74
ssg62
g138
sg55
(lp145
S'body'
p146
asbag48
(g69
g50
NtRp147
(dp148
g53
(dp149
g80
g81
ssg62
g138
sg55
(lp150
S':'
asbag48
(g69
g50
NtRp151
(dp152
g53
(dp153
sg62
g138
sg55
(lp154
g48
(g49
g50
NtRp155
(dp156
g53
(dp157
g61
I5
ssg62
g151
sg55
(lp158
S'<cStringIO.StringO object at 0x076D33E0>'
p159
asbasbasbag48
(g64
g50
NtRp160
(dp161
g53
(dp162
sg62
g58
sg55
(lp163
g48
(g69
g50
NtRp164
(dp165
g53
(dp166
g73
g74
ssg62
g160
sg55
(lp167
S'client'
p168
asbag48
(g69
g50
NtRp169
(dp170
g53
(dp171
g80
g81
ssg62
g160
sg55
(lp172
S':'
asbag48
(g69
g50
NtRp173
(dp174
g53
(dp175
sg62
g160
sg55
(lp176
g48
(g49
g50
NtRp177
(dp178
g53
(dp179
g61
I5
ssg62
g173
sg55
(lp180
S'127.0.0.1'
p181
asbasbasbag48
(g64
g50
NtRp182
(dp183
g53
(dp184
sg62
g58
sg55
(lp185
g48
(g69
g50
NtRp186
(dp187
g53
(dp188
g73
g74
ssg62
g182
sg55
(lp189
S'controller'
p190
asbag48
(g69
g50
NtRp191
(dp192
g53
(dp193
g80
g81
ssg62
g182
sg55
(lp194
S':'
asbag48
(g69
g50
NtRp195
(dp196
g53
(dp197
sg62
g182
sg55
(lp198
g48
(g49
g50
NtRp199
(dp200
g53
(dp201
g61
I5
ssg62
g195
sg55
(lp202
S'default'
p203
asbasbasbag48
(g64
g50
NtRp204
(dp205
g53
(dp206
sg62
g58
sg55
(lp207
g48
(g69
g50
NtRp208
(dp209
g53
(dp210
g73
g74
ssg62
g204
sg55
(lp211
S'cookies'
p212
asbag48
(g69
g50
NtRp213
(dp214
g53
(dp215
g80
g81
ssg62
g204
sg55
(lp216
S':'
asbag48
(g69
g50
NtRp217
(dp218
g53
(dp219
sg62
g204
sg55
(lp220
g48
(g49
g50
NtRp221
(dp222
g53
(dp223
g61
I5
ssg62
g217
sg55
(lp224
g48
(g57
g50
NtRp225
(dp226
g53
(dp227
g61
I4
ssg62
Nsg55
(lp228
g48
(g64
g50
NtRp229
(dp230
g53
(dp231
sg62
g225
sg55
(lp232
g48
(g69
g50
NtRp233
(dp234
g53
(dp235
g73
g74
ssg62
g229
sg55
(lp236
S'session_id_admin'
p237
asbag48
(g69
g50
NtRp238
(dp239
g53
(dp240
g80
g81
ssg62
g229
sg55
(lp241
S':'
asbag48
(g69
g50
NtRp242
(dp243
g53
(dp244
sg62
g229
sg55
(lp245
g48
(g49
g50
NtRp246
(dp247
g53
(dp248
g61
I4
ssg62
g242
sg55
(lp249
g48
(g57
g50
NtRp250
(dp251
g53
(dp252
g61
I3
ssg62
Nsg55
(lp253
g48
(g64
g50
NtRp254
(dp255
g53
(dp256
sg62
g250
sg55
(lp257
g48
(g69
g50
NtRp258
(dp259
g53
(dp260
g73
g74
ssg62
g254
sg55
(lp261
S'comment'
p262
asbag48
(g69
g50
NtRp263
(dp264
g53
(dp265
g80
g81
ssg62
g254
sg55
(lp266
S':'
asbag48
(g69
g50
NtRp267
(dp268
g53
(dp269
sg62
g254
sg55
(lp270
g48
(g49
g50
NtRp271
(dp272
g53
(dp273
g61
I3
ssg62
g267
sg55
(lp274
S''
asbasbasbag48
(g64
g50
NtRp275
(dp276
g53
(dp277
sg62
g250
sg55
(lp278
g48
(g69
g50
NtRp279
(dp280
g53
(dp281
g73
g74
ssg62
g275
sg55
(lp282
S'domain'
p283
asbag48
(g69
g50
NtRp284
(dp285
g53
(dp286
g80
g81
ssg62
g275
sg55
(lp287
S':'
asbag48
(g69
g50
NtRp288
(dp289
g53
(dp290
sg62
g275
sg55
(lp291
g48
(g49
g50
NtRp292
(dp293
g53
(dp294
g61
I3
ssg62
g288
sg55
(lp295
S''
asbasbasbag48
(g64
g50
NtRp296
(dp297
g53
(dp298
sg62
g250
sg55
(lp299
g48
(g69
g50
NtRp300
(dp301
g53
(dp302
g73
g74
ssg62
g296
sg55
(lp303
S'expires'
p304
asbag48
(g69
g50
NtRp305
(dp306
g53
(dp307
g80
g81
ssg62
g296
sg55
(lp308
S':'
asbag48
(g69
g50
NtRp309
(dp310
g53
(dp311
sg62
g296
sg55
(lp312
g48
(g49
g50
NtRp313
(dp314
g53
(dp315
g61
I3
ssg62
g309
sg55
(lp316
S''
asbasbasbag48
(g64
g50
NtRp317
(dp318
g53
(dp319
sg62
g250
sg55
(lp320
g48
(g69
g50
NtRp321
(dp322
g53
(dp323
g73
g74
ssg62
g317
sg55
(lp324
S'max-age'
p325
asbag48
(g69
g50
NtRp326
(dp327
g53
(dp328
g80
g81
ssg62
g317
sg55
(lp329
S':'
asbag48
(g69
g50
NtRp330
(dp331
g53
(dp332
sg62
g317
sg55
(lp333
g48
(g49
g50
NtRp334
(dp335
g53
(dp336
g61
I3
ssg62
g330
sg55
(lp337
S''
asbasbasbag48
(g64
g50
NtRp338
(dp339
g53
(dp340
sg62
g250
sg55
(lp341
g48
(g69
g50
NtRp342
(dp343
g53
(dp344
g73
g74
ssg62
g338
sg55
(lp345
S'path'
p346
asbag48
(g69
g50
NtRp347
(dp348
g53
(dp349
g80
g81
ssg62
g338
sg55
(lp350
S':'
asbag48
(g69
g50
NtRp351
(dp352
g53
(dp353
sg62
g338
sg55
(lp354
g48
(g49
g50
NtRp355
(dp356
g53
(dp357
g61
I3
ssg62
g351
sg55
(lp358
S''
asbasbasbag48
(g64
g50
NtRp359
(dp360
g53
(dp361
sg62
g250
sg55
(lp362
g48
(g69
g50
NtRp363
(dp364
g53
(dp365
g73
g74
ssg62
g359
sg55
(lp366
S'secure'
p367
asbag48
(g69
g50
NtRp368
(dp369
g53
(dp370
g80
g81
ssg62
g359
sg55
(lp371
S':'
asbag48
(g69
g50
NtRp372
(dp373
g53
(dp374
sg62
g359
sg55
(lp375
g48
(g49
g50
NtRp376
(dp377
g53
(dp378
g61
I3
ssg62
g372
sg55
(lp379
S''
asbasbasbag48
(g64
g50
NtRp380
(dp381
g53
(dp382
sg62
g250
sg55
(lp383
g48
(g69
g50
NtRp384
(dp385
g53
(dp386
g73
g74
ssg62
g380
sg55
(lp387
S'version'
p388
asbag48
(g69
g50
NtRp389
(dp390
g53
(dp391
g80
g81
ssg62
g380
sg55
(lp392
S':'
asbag48
(g69
g50
NtRp393
(dp394
g53
(dp395
sg62
g380
sg55
(lp396
g48
(g49
g50
NtRp397
(dp398
g53
(dp399
g61
I3
ssg62
g393
sg55
(lp400
S''
asbasbasbasbasbasbasbag48
(g64
g50
NtRp401
(dp402
g53
(dp403
sg62
g225
sg55
(lp404
g48
(g69
g50
NtRp405
(dp406
g53
(dp407
g73
g74
ssg62
g401
sg55
(lp408
S'session_id_desglosar_emails'
p409
asbag48
(g69
g50
NtRp410
(dp411
g53
(dp412
g80
g81
ssg62
g401
sg55
(lp413
S':'
asbag48
(g69
g50
NtRp414
(dp415
g53
(dp416
sg62
g401
sg55
(lp417
g48
(g49
g50
NtRp418
(dp419
g53
(dp420
g61
I4
ssg62
g414
sg55
(lp421
g48
(g57
g50
NtRp422
(dp423
g53
(dp424
g61
I3
ssg62
Nsg55
(lp425
g48
(g64
g50
NtRp426
(dp427
g53
(dp428
sg62
g422
sg55
(lp429
g48
(g69
g50
NtRp430
(dp431
g53
(dp432
g73
g74
ssg62
g426
sg55
(lp433
g262
asbag48
(g69
g50
NtRp434
(dp435
g53
(dp436
g80
g81
ssg62
g426
sg55
(lp437
S':'
asbag48
(g69
g50
NtRp438
(dp439
g53
(dp440
sg62
g426
sg55
(lp441
g48
(g49
g50
NtRp442
(dp443
g53
(dp444
g61
I3
ssg62
g438
sg55
(lp445
S''
asbasbasbag48
(g64
g50
NtRp446
(dp447
g53
(dp448
sg62
g422
sg55
(lp449
g48
(g69
g50
NtRp450
(dp451
g53
(dp452
g73
g74
ssg62
g446
sg55
(lp453
g283
asbag48
(g69
g50
NtRp454
(dp455
g53
(dp456
g80
g81
ssg62
g446
sg55
(lp457
S':'
asbag48
(g69
g50
NtRp458
(dp459
g53
(dp460
sg62
g446
sg55
(lp461
g48
(g49
g50
NtRp462
(dp463
g53
(dp464
g61
I3
ssg62
g458
sg55
(lp465
S''
asbasbasbag48
(g64
g50
NtRp466
(dp467
g53
(dp468
sg62
g422
sg55
(lp469
g48
(g69
g50
NtRp470
(dp471
g53
(dp472
g73
g74
ssg62
g466
sg55
(lp473
g304
asbag48
(g69
g50
NtRp474
(dp475
g53
(dp476
g80
g81
ssg62
g466
sg55
(lp477
S':'
asbag48
(g69
g50
NtRp478
(dp479
g53
(dp480
sg62
g466
sg55
(lp481
g48
(g49
g50
NtRp482
(dp483
g53
(dp484
g61
I3
ssg62
g478
sg55
(lp485
S''
asbasbasbag48
(g64
g50
NtRp486
(dp487
g53
(dp488
sg62
g422
sg55
(lp489
g48
(g69
g50
NtRp490
(dp491
g53
(dp492
g73
g74
ssg62
g486
sg55
(lp493
g325
asbag48
(g69
g50
NtRp494
(dp495
g53
(dp496
g80
g81
ssg62
g486
sg55
(lp497
S':'
asbag48
(g69
g50
NtRp498
(dp499
g53
(dp500
sg62
g486
sg55
(lp501
g48
(g49
g50
NtRp502
(dp503
g53
(dp504
g61
I3
ssg62
g498
sg55
(lp505
S''
asbasbasbag48
(g64
g50
NtRp506
(dp507
g53
(dp508
sg62
g422
sg55
(lp509
g48
(g69
g50
NtRp510
(dp511
g53
(dp512
g73
g74
ssg62
g506
sg55
(lp513
g346
asbag48
(g69
g50
NtRp514
(dp515
g53
(dp516
g80
g81
ssg62
g506
sg55
(lp517
S':'
asbag48
(g69
g50
NtRp518
(dp519
g53
(dp520
sg62
g506
sg55
(lp521
g48
(g49
g50
NtRp522
(dp523
g53
(dp524
g61
I3
ssg62
g518
sg55
(lp525
S''
asbasbasbag48
(g64
g50
NtRp526
(dp527
g53
(dp528
sg62
g422
sg55
(lp529
g48
(g69
g50
NtRp530
(dp531
g53
(dp532
g73
g74
ssg62
g526
sg55
(lp533
g367
asbag48
(g69
g50
NtRp534
(dp535
g53
(dp536
g80
g81
ssg62
g526
sg55
(lp537
S':'
asbag48
(g69
g50
NtRp538
(dp539
g53
(dp540
sg62
g526
sg55
(lp541
g48
(g49
g50
NtRp542
(dp543
g53
(dp544
g61
I3
ssg62
g538
sg55
(lp545
S''
asbasbasbag48
(g64
g50
NtRp546
(dp547
g53
(dp548
sg62
g422
sg55
(lp549
g48
(g69
g50
NtRp550
(dp551
g53
(dp552
g73
g74
ssg62
g546
sg55
(lp553
g388
asbag48
(g69
g50
NtRp554
(dp555
g53
(dp556
g80
g81
ssg62
g546
sg55
(lp557
S':'
asbag48
(g69
g50
NtRp558
(dp559
g53
(dp560
sg62
g546
sg55
(lp561
g48
(g49
g50
NtRp562
(dp563
g53
(dp564
g61
I3
ssg62
g558
sg55
(lp565
S''
asbasbasbasbasbasbasbag48
(g64
g50
NtRp566
(dp567
g53
(dp568
sg62
g225
sg55
(lp569
g48
(g69
g50
NtRp570
(dp571
g53
(dp572
g73
g74
ssg62
g566
sg55
(lp573
S'session_id_listado_1'
p574
asbag48
(g69
g50
NtRp575
(dp576
g53
(dp577
g80
g81
ssg62
g566
sg55
(lp578
S':'
asbag48
(g69
g50
NtRp579
(dp580
g53
(dp581
sg62
g566
sg55
(lp582
g48
(g49
g50
NtRp583
(dp584
g53
(dp585
g61
I4
ssg62
g579
sg55
(lp586
g48
(g57
g50
NtRp587
(dp588
g53
(dp589
g61
I3
ssg62
Nsg55
(lp590
g48
(g64
g50
NtRp591
(dp592
g53
(dp593
sg62
g587
sg55
(lp594
g48
(g69
g50
NtRp595
(dp596
g53
(dp597
g73
g74
ssg62
g591
sg55
(lp598
g262
asbag48
(g69
g50
NtRp599
(dp600
g53
(dp601
g80
g81
ssg62
g591
sg55
(lp602
S':'
asbag48
(g69
g50
NtRp603
(dp604
g53
(dp605
sg62
g591
sg55
(lp606
g48
(g49
g50
NtRp607
(dp608
g53
(dp609
g61
I3
ssg62
g603
sg55
(lp610
S''
asbasbasbag48
(g64
g50
NtRp611
(dp612
g53
(dp613
sg62
g587
sg55
(lp614
g48
(g69
g50
NtRp615
(dp616
g53
(dp617
g73
g74
ssg62
g611
sg55
(lp618
g283
asbag48
(g69
g50
NtRp619
(dp620
g53
(dp621
g80
g81
ssg62
g611
sg55
(lp622
S':'
asbag48
(g69
g50
NtRp623
(dp624
g53
(dp625
sg62
g611
sg55
(lp626
g48
(g49
g50
NtRp627
(dp628
g53
(dp629
g61
I3
ssg62
g623
sg55
(lp630
S''
asbasbasbag48
(g64
g50
NtRp631
(dp632
g53
(dp633
sg62
g587
sg55
(lp634
g48
(g69
g50
NtRp635
(dp636
g53
(dp637
g73
g74
ssg62
g631
sg55
(lp638
g304
asbag48
(g69
g50
NtRp639
(dp640
g53
(dp641
g80
g81
ssg62
g631
sg55
(lp642
S':'
asbag48
(g69
g50
NtRp643
(dp644
g53
(dp645
sg62
g631
sg55
(lp646
g48
(g49
g50
NtRp647
(dp648
g53
(dp649
g61
I3
ssg62
g643
sg55
(lp650
S''
asbasbasbag48
(g64
g50
NtRp651
(dp652
g53
(dp653
sg62
g587
sg55
(lp654
g48
(g69
g50
NtRp655
(dp656
g53
(dp657
g73
g74
ssg62
g651
sg55
(lp658
g325
asbag48
(g69
g50
NtRp659
(dp660
g53
(dp661
g80
g81
ssg62
g651
sg55
(lp662
S':'
asbag48
(g69
g50
NtRp663
(dp664
g53
(dp665
sg62
g651
sg55
(lp666
g48
(g49
g50
NtRp667
(dp668
g53
(dp669
g61
I3
ssg62
g663
sg55
(lp670
S''
asbasbasbag48
(g64
g50
NtRp671
(dp672
g53
(dp673
sg62
g587
sg55
(lp674
g48
(g69
g50
NtRp675
(dp676
g53
(dp677
g73
g74
ssg62
g671
sg55
(lp678
g346
asbag48
(g69
g50
NtRp679
(dp680
g53
(dp681
g80
g81
ssg62
g671
sg55
(lp682
S':'
asbag48
(g69
g50
NtRp683
(dp684
g53
(dp685
sg62
g671
sg55
(lp686
g48
(g49
g50
NtRp687
(dp688
g53
(dp689
g61
I3
ssg62
g683
sg55
(lp690
S''
asbasbasbag48
(g64
g50
NtRp691
(dp692
g53
(dp693
sg62
g587
sg55
(lp694
g48
(g69
g50
NtRp695
(dp696
g53
(dp697
g73
g74
ssg62
g691
sg55
(lp698
g367
asbag48
(g69
g50
NtRp699
(dp700
g53
(dp701
g80
g81
ssg62
g691
sg55
(lp702
S':'
asbag48
(g69
g50
NtRp703
(dp704
g53
(dp705
sg62
g691
sg55
(lp706
g48
(g49
g50
NtRp707
(dp708
g53
(dp709
g61
I3
ssg62
g703
sg55
(lp710
S''
asbasbasbag48
(g64
g50
NtRp711
(dp712
g53
(dp713
sg62
g587
sg55
(lp714
g48
(g69
g50
NtRp715
(dp716
g53
(dp717
g73
g74
ssg62
g711
sg55
(lp718
g388
asbag48
(g69
g50
NtRp719
(dp720
g53
(dp721
g80
g81
ssg62
g711
sg55
(lp722
S':'
asbag48
(g69
g50
NtRp723
(dp724
g53
(dp725
sg62
g711
sg55
(lp726
g48
(g49
g50
NtRp727
(dp728
g53
(dp729
g61
I3
ssg62
g723
sg55
(lp730
S''
asbasbasbasbasbasbasbag48
(g64
g50
NtRp731
(dp732
g53
(dp733
sg62
g225
sg55
(lp734
g48
(g69
g50
NtRp735
(dp736
g53
(dp737
g73
g74
ssg62
g731
sg55
(lp738
S'session_id_welcome'
p739
asbag48
(g69
g50
NtRp740
(dp741
g53
(dp742
g80
g81
ssg62
g731
sg55
(lp743
S':'
asbag48
(g69
g50
NtRp744
(dp745
g53
(dp746
sg62
g731
sg55
(lp747
g48
(g49
g50
NtRp748
(dp749
g53
(dp750
g61
I4
ssg62
g744
sg55
(lp751
g48
(g57
g50
NtRp752
(dp753
g53
(dp754
g61
I3
ssg62
Nsg55
(lp755
g48
(g64
g50
NtRp756
(dp757
g53
(dp758
sg62
g752
sg55
(lp759
g48
(g69
g50
NtRp760
(dp761
g53
(dp762
g73
g74
ssg62
g756
sg55
(lp763
g262
asbag48
(g69
g50
NtRp764
(dp765
g53
(dp766
g80
g81
ssg62
g756
sg55
(lp767
S':'
asbag48
(g69
g50
NtRp768
(dp769
g53
(dp770
sg62
g756
sg55
(lp771
g48
(g49
g50
NtRp772
(dp773
g53
(dp774
g61
I3
ssg62
g768
sg55
(lp775
S''
asbasbasbag48
(g64
g50
NtRp776
(dp777
g53
(dp778
sg62
g752
sg55
(lp779
g48
(g69
g50
NtRp780
(dp781
g53
(dp782
g73
g74
ssg62
g776
sg55
(lp783
g283
asbag48
(g69
g50
NtRp784
(dp785
g53
(dp786
g80
g81
ssg62
g776
sg55
(lp787
S':'
asbag48
(g69
g50
NtRp788
(dp789
g53
(dp790
sg62
g776
sg55
(lp791
g48
(g49
g50
NtRp792
(dp793
g53
(dp794
g61
I3
ssg62
g788
sg55
(lp795
S''
asbasbasbag48
(g64
g50
NtRp796
(dp797
g53
(dp798
sg62
g752
sg55
(lp799
g48
(g69
g50
NtRp800
(dp801
g53
(dp802
g73
g74
ssg62
g796
sg55
(lp803
g304
asbag48
(g69
g50
NtRp804
(dp805
g53
(dp806
g80
g81
ssg62
g796
sg55
(lp807
S':'
asbag48
(g69
g50
NtRp808
(dp809
g53
(dp810
sg62
g796
sg55
(lp811
g48
(g49
g50
NtRp812
(dp813
g53
(dp814
g61
I3
ssg62
g808
sg55
(lp815
S''
asbasbasbag48
(g64
g50
NtRp816
(dp817
g53
(dp818
sg62
g752
sg55
(lp819
g48
(g69
g50
NtRp820
(dp821
g53
(dp822
g73
g74
ssg62
g816
sg55
(lp823
g325
asbag48
(g69
g50
NtRp824
(dp825
g53
(dp826
g80
g81
ssg62
g816
sg55
(lp827
S':'
asbag48
(g69
g50
NtRp828
(dp829
g53
(dp830
sg62
g816
sg55
(lp831
g48
(g49
g50
NtRp832
(dp833
g53
(dp834
g61
I3
ssg62
g828
sg55
(lp835
S''
asbasbasbag48
(g64
g50
NtRp836
(dp837
g53
(dp838
sg62
g752
sg55
(lp839
g48
(g69
g50
NtRp840
(dp841
g53
(dp842
g73
g74
ssg62
g836
sg55
(lp843
g346
asbag48
(g69
g50
NtRp844
(dp845
g53
(dp846
g80
g81
ssg62
g836
sg55
(lp847
S':'
asbag48
(g69
g50
NtRp848
(dp849
g53
(dp850
sg62
g836
sg55
(lp851
g48
(g49
g50
NtRp852
(dp853
g53
(dp854
g61
I3
ssg62
g848
sg55
(lp855
S''
asbasbasbag48
(g64
g50
NtRp856
(dp857
g53
(dp858
sg62
g752
sg55
(lp859
g48
(g69
g50
NtRp860
(dp861
g53
(dp862
g73
g74
ssg62
g856
sg55
(lp863
g367
asbag48
(g69
g50
NtRp864
(dp865
g53
(dp866
g80
g81
ssg62
g856
sg55
(lp867
S':'
asbag48
(g69
g50
NtRp868
(dp869
g53
(dp870
sg62
g856
sg55
(lp871
g48
(g49
g50
NtRp872
(dp873
g53
(dp874
g61
I3
ssg62
g868
sg55
(lp875
S''
asbasbasbag48
(g64
g50
NtRp876
(dp877
g53
(dp878
sg62
g752
sg55
(lp879
g48
(g69
g50
NtRp880
(dp881
g53
(dp882
g73
g74
ssg62
g876
sg55
(lp883
g388
asbag48
(g69
g50
NtRp884
(dp885
g53
(dp886
g80
g81
ssg62
g876
sg55
(lp887
S':'
asbag48
(g69
g50
NtRp888
(dp889
g53
(dp890
sg62
g876
sg55
(lp891
g48
(g49
g50
NtRp892
(dp893
g53
(dp894
g61
I3
ssg62
g888
sg55
(lp895
S''
asbasbasbasbasbasbasbasbasbasbasbag48
(g64
g50
NtRp896
(dp897
g53
(dp898
sg62
g58
sg55
(lp899
g48
(g69
g50
NtRp900
(dp901
g53
(dp902
g73
g74
ssg62
g896
sg55
(lp903
S'env'
p904
asbag48
(g69
g50
NtRp905
(dp906
g53
(dp907
g80
g81
ssg62
g896
sg55
(lp908
S':'
asbag48
(g69
g50
NtRp909
(dp910
g53
(dp911
sg62
g896
sg55
(lp912
g48
(g49
g50
NtRp913
(dp914
g53
(dp915
g61
I5
ssg62
g909
sg55
(lp916
g48
(g57
g50
NtRp917
(dp918
g53
(dp919
g61
I4
ssg62
Nsg55
(lp920
g48
(g64
g50
NtRp921
(dp922
g53
(dp923
sg62
g917
sg55
(lp924
g48
(g69
g50
NtRp925
(dp926
g53
(dp927
g73
g74
ssg62
g921
sg55
(lp928
S'app_folders'
p929
asbag48
(g69
g50
NtRp930
(dp931
g53
(dp932
g80
g81
ssg62
g921
sg55
(lp933
S':'
asbag48
(g69
g50
NtRp934
(dp935
g53
(dp936
sg62
g921
sg55
(lp937
g48
(g49
g50
NtRp938
(dp939
g53
(dp940
g61
I4
ssg62
g934
sg55
(lp941
S"set(['C:\\\\Users\\\\Atomico\\\\web2py\\\\applications\\\\welcome\\\\', 'C:\\\\Users\\\\Atomico\\\\web2py\\\\applications\\\\Desglosar_Emails\\\\', 'C:\\\\Users\\\\Atomico\\\\web2py\\\\applications\\\\listado_1\\\\', 'C:\\\\Users\\\\Atomico\\\\web2py\\\\applications\\\\admin\\\\'])"
p942
asbasbasbag48
(g64
g50
NtRp943
(dp944
g53
(dp945
sg62
g917
sg55
(lp946
g48
(g69
g50
NtRp947
(dp948
g53
(dp949
g73
g74
ssg62
g943
sg55
(lp950
S'applications_parent'
p951
asbag48
(g69
g50
NtRp952
(dp953
g53
(dp954
g80
g81
ssg62
g943
sg55
(lp955
S':'
asbag48
(g69
g50
NtRp956
(dp957
g53
(dp958
sg62
g943
sg55
(lp959
g48
(g49
g50
NtRp960
(dp961
g53
(dp962
g61
I4
ssg62
g956
sg55
(lp963
S'C:\\Users\\Atomico\\web2py'
p964
asbasbasbag48
(g64
g50
NtRp965
(dp966
g53
(dp967
sg62
g917
sg55
(lp968
g48
(g69
g50
NtRp969
(dp970
g53
(dp971
g73
g74
ssg62
g965
sg55
(lp972
S'cmd_args'
p973
asbag48
(g69
g50
NtRp974
(dp975
g53
(dp976
g80
g81
ssg62
g965
sg55
(lp977
S':'
asbag48
(g69
g50
NtRp978
(dp979
g53
(dp980
sg62
g965
sg55
(lp981
g48
(g49
g50
NtRp982
(dp983
g53
(dp984
g61
I4
ssg62
g978
sg55
(lp985
g48
(g57
g50
NtRp986
(dp987
g53
(dp988
g61
I3
ssg62
Nsg55
(lp989
sbasbasbasbag48
(g64
g50
NtRp990
(dp991
g53
(dp992
sg62
g917
sg55
(lp993
g48
(g69
g50
NtRp994
(dp995
g53
(dp996
g73
g74
ssg62
g990
sg55
(lp997
S'cmd_options'
p998
asbag48
(g69
g50
NtRp999
(dp1000
g53
(dp1001
g80
g81
ssg62
g990
sg55
(lp1002
S':'
asbag48
(g69
g50
NtRp1003
(dp1004
g53
(dp1005
sg62
g990
sg55
(lp1006
g48
(g49
g50
NtRp1007
(dp1008
g53
(dp1009
g61
I4
ssg62
g1003
sg55
(lp1010
S"<Values at 0x30fb620: {'verbose': False, 'ip': '127.0.0.1', 'shutdown_timeout': 5, 'taskbar': False, 'port': 8000, 'maxthreads': None, 'softcron': False, 'server_name': 'Swing', 'bpython': False, 'nogui': False, 'nocron': False, 'extcron': False, 'debuglevel': 30, 'test': None, 'folder': 'C:\\\\Users\\\\Atomico\\\\web2py', 'config': '', 'import_models': False, 'winservice': '', 'shell': None, 'run': '', 'log_filename': 'httpserver.log', 'args': [''], 'profiler_filename': None, 'ssl_private_key': '', 'password': '<ask>', 'request_queue_size': 5, 'ssl_certificate': '', 'cronjob': False, 'plain': False, 'quiet': False, 'interfaces': None, 'minthreads': None, 'timeout': 10, 'numthreads': None, 'nobanner': False, 'pid_filename': 'httpserver.pid'}>"
p1011
asbasbasbag48
(g64
g50
NtRp1012
(dp1013
g53
(dp1014
sg62
g917
sg55
(lp1015
g48
(g69
g50
NtRp1016
(dp1017
g53
(dp1018
g73
g74
ssg62
g1012
sg55
(lp1019
S'db_sessions'
p1020
asbag48
(g69
g50
NtRp1021
(dp1022
g53
(dp1023
g80
g81
ssg62
g1012
sg55
(lp1024
S':'
asbag48
(g69
g50
NtRp1025
(dp1026
g53
(dp1027
sg62
g1012
sg55
(lp1028
g48
(g49
g50
NtRp1029
(dp1030
g53
(dp1031
g61
I4
ssg62
g1025
sg55
(lp1032
S'set([])'
p1033
asbasbasbag48
(g64
g50
NtRp1034
(dp1035
g53
(dp1036
sg62
g917
sg55
(lp1037
g48
(g69
g50
NtRp1038
(dp1039
g53
(dp1040
g73
g74
ssg62
g1034
sg55
(lp1041
S'debugging'
p1042
asbag48
(g69
g50
NtRp1043
(dp1044
g53
(dp1045
g80
g81
ssg62
g1034
sg55
(lp1046
S':'
asbag48
(g69
g50
NtRp1047
(dp1048
g53
(dp1049
sg62
g1034
sg55
(lp1050
g48
(g49
g50
NtRp1051
(dp1052
g53
(dp1053
g61
I4
ssg62
g1047
sg55
(lp1054
g91
asbasbasbag48
(g64
g50
NtRp1055
(dp1056
g53
(dp1057
sg62
g917
sg55
(lp1058
g48
(g69
g50
NtRp1059
(dp1060
g53
(dp1061
g73
g74
ssg62
g1055
sg55
(lp1062
S'gluon_parent'
p1063
asbag48
(g69
g50
NtRp1064
(dp1065
g53
(dp1066
g80
g81
ssg62
g1055
sg55
(lp1067
S':'
asbag48
(g69
g50
NtRp1068
(dp1069
g53
(dp1070
sg62
g1055
sg55
(lp1071
g48
(g49
g50
NtRp1072
(dp1073
g53
(dp1074
g61
I4
ssg62
g1068
sg55
(lp1075
S'C:\\Users\\Atomico\\web2py'
p1076
asbasbasbag48
(g64
g50
NtRp1077
(dp1078
g53
(dp1079
sg62
g917
sg55
(lp1080
g48
(g69
g50
NtRp1081
(dp1082
g53
(dp1083
g73
g74
ssg62
g1077
sg55
(lp1084
S'http_accept'
p1085
asbag48
(g69
g50
NtRp1086
(dp1087
g53
(dp1088
g80
g81
ssg62
g1077
sg55
(lp1089
S':'
asbag48
(g69
g50
NtRp1090
(dp1091
g53
(dp1092
sg62
g1077
sg55
(lp1093
g48
(g49
g50
NtRp1094
(dp1095
g53
(dp1096
g61
I4
ssg62
g1090
sg55
(lp1097
S'text/html,application/xhtml+xml,application/xml;q=0.9,*/*;q=0.8'
p1098
asbasbasbag48
(g64
g50
NtRp1099
(dp1100
g53
(dp1101
sg62
g917
sg55
(lp1102
g48
(g69
g50
NtRp1103
(dp1104
g53
(dp1105
g73
g74
ssg62
g1099
sg55
(lp1106
S'http_accept_charset'
p1107
asbag48
(g69
g50
NtRp1108
(dp1109
g53
(dp1110
g80
g81
ssg62
g1099
sg55
(lp1111
S':'
asbag48
(g69
g50
NtRp1112
(dp1113
g53
(dp1114
sg62
g1099
sg55
(lp1115
g48
(g49
g50
NtRp1116
(dp1117
g53
(dp1118
g61
I4
ssg62
g1112
sg55
(lp1119
S'ISO-8859-1,utf-8;q=0.7,*;q=0.7'
p1120
asbasbasbag48
(g64
g50
NtRp1121
(dp1122
g53
(dp1123
sg62
g917
sg55
(lp1124
g48
(g69
g50
NtRp1125
(dp1126
g53
(dp1127
g73
g74
ssg62
g1121
sg55
(lp1128
S'http_accept_encoding'
p1129
asbag48
(g69
g50
NtRp1130
(dp1131
g53
(dp1132
g80
g81
ssg62
g1121
sg55
(lp1133
S':'
asbag48
(g69
g50
NtRp1134
(dp1135
g53
(dp1136
sg62
g1121
sg55
(lp1137
g48
(g49
g50
NtRp1138
(dp1139
g53
(dp1140
g61
I4
ssg62
g1134
sg55
(lp1141
S'gzip, deflate'
p1142
asbasbasbag48
(g64
g50
NtRp1143
(dp1144
g53
(dp1145
sg62
g917
sg55
(lp1146
g48
(g69
g50
NtRp1147
(dp1148
g53
(dp1149
g73
g74
ssg62
g1143
sg55
(lp1150
S'http_accept_language'
p1151
asbag48
(g69
g50
NtRp1152
(dp1153
g53
(dp1154
g80
g81
ssg62
g1143
sg55
(lp1155
S':'
asbag48
(g69
g50
NtRp1156
(dp1157
g53
(dp1158
sg62
g1143
sg55
(lp1159
g48
(g49
g50
NtRp1160
(dp1161
g53
(dp1162
g61
I4
ssg62
g1156
sg55
(lp1163
S'es-es,es;q=0.8,en-us;q=0.5,en;q=0.3'
p1164
asbasbasbag48
(g64
g50
NtRp1165
(dp1166
g53
(dp1167
sg62
g917
sg55
(lp1168
g48
(g69
g50
NtRp1169
(dp1170
g53
(dp1171
g73
g74
ssg62
g1165
sg55
(lp1172
S'http_connection'
p1173
asbag48
(g69
g50
NtRp1174
(dp1175
g53
(dp1176
g80
g81
ssg62
g1165
sg55
(lp1177
S':'
asbag48
(g69
g50
NtRp1178
(dp1179
g53
(dp1180
sg62
g1165
sg55
(lp1181
g48
(g49
g50
NtRp1182
(dp1183
g53
(dp1184
g61
I4
ssg62
g1178
sg55
(lp1185
S'keep-alive'
p1186
asbasbasbag48
(g64
g50
NtRp1187
(dp1188
g53
(dp1189
sg62
g917
sg55
(lp1190
g48
(g69
g50
NtRp1191
(dp1192
g53
(dp1193
g73
g74
ssg62
g1187
sg55
(lp1194
S'http_cookie'
p1195
asbag48
(g69
g50
NtRp1196
(dp1197
g53
(dp1198
g80
g81
ssg62
g1187
sg55
(lp1199
S':'
asbag48
(g69
g50
NtRp1200
(dp1201
g53
(dp1202
sg62
g1187
sg55
(lp1203
g48
(g49
g50
NtRp1204
(dp1205
g53
(dp1206
g61
I4
ssg62
g1200
sg55
(lp1207
S'session_id_welcome=127.0.0.1-082a2830-9bb6-4bfb-b2e2-4857b06c191e; session_id_admin=127.0.0.1-c7466ffc-af7a-4e04-a40d-5c71f3f606fb; session_id_listado_1=127.0.0.1-477ec098-5436-4f6e-bfee-1a0bd88f6f9e; session_id_desglosar_emails=127.0.0.1-0a11b3b2-660c-433c-b71f-fc129286f26c'
p1208
asbasbasbag48
(g64
g50
NtRp1209
(dp1210
g53
(dp1211
sg62
g917
sg55
(lp1212
g48
(g69
g50
NtRp1213
(dp1214
g53
(dp1215
g73
g74
ssg62
g1209
sg55
(lp1216
S'http_host'
p1217
asbag48
(g69
g50
NtRp1218
(dp1219
g53
(dp1220
g80
g81
ssg62
g1209
sg55
(lp1221
S':'
asbag48
(g69
g50
NtRp1222
(dp1223
g53
(dp1224
sg62
g1209
sg55
(lp1225
g48
(g49
g50
NtRp1226
(dp1227
g53
(dp1228
g61
I4
ssg62
g1222
sg55
(lp1229
S'127.0.0.1:8000'
p1230
asbasbasbag48
(g64
g50
NtRp1231
(dp1232
g53
(dp1233
sg62
g917
sg55
(lp1234
g48
(g69
g50
NtRp1235
(dp1236
g53
(dp1237
g73
g74
ssg62
g1231
sg55
(lp1238
S'http_referer'
p1239
asbag48
(g69
g50
NtRp1240
(dp1241
g53
(dp1242
g80
g81
ssg62
g1231
sg55
(lp1243
S':'
asbag48
(g69
g50
NtRp1244
(dp1245
g53
(dp1246
sg62
g1231
sg55
(lp1247
g48
(g49
g50
NtRp1248
(dp1249
g53
(dp1250
g61
I4
ssg62
g1244
sg55
(lp1251
S'http://127.0.0.1:8000/admin/default/design/Desglosar_Emails'
p1252
asbasbasbag48
(g64
g50
NtRp1253
(dp1254
g53
(dp1255
sg62
g917
sg55
(lp1256
g48
(g69
g50
NtRp1257
(dp1258
g53
(dp1259
g73
g74
ssg62
g1253
sg55
(lp1260
S'http_user_agent'
p1261
asbag48
(g69
g50
NtRp1262
(dp1263
g53
(dp1264
g80
g81
ssg62
g1253
sg55
(lp1265
S':'
asbag48
(g69
g50
NtRp1266
(dp1267
g53
(dp1268
sg62
g1253
sg55
(lp1269
g48
(g49
g50
NtRp1270
(dp1271
g53
(dp1272
g61
I4
ssg62
g1266
sg55
(lp1273
S'Mozilla/5.0 (Windows NT 6.1; WOW64; rv:6.0.2) Gecko/20100101 Firefox/6.0.2'
p1274
asbasbasbag48
(g64
g50
NtRp1275
(dp1276
g53
(dp1277
sg62
g917
sg55
(lp1278
g48
(g69
g50
NtRp1279
(dp1280
g53
(dp1281
g73
g74
ssg62
g1275
sg55
(lp1282
S'is_jython'
p1283
asbag48
(g69
g50
NtRp1284
(dp1285
g53
(dp1286
g80
g81
ssg62
g1275
sg55
(lp1287
S':'
asbag48
(g69
g50
NtRp1288
(dp1289
g53
(dp1290
sg62
g1275
sg55
(lp1291
g48
(g49
g50
NtRp1292
(dp1293
g53
(dp1294
g61
I4
ssg62
g1288
sg55
(lp1295
g91
asbasbasbag48
(g64
g50
NtRp1296
(dp1297
g53
(dp1298
sg62
g917
sg55
(lp1299
g48
(g69
g50
NtRp1300
(dp1301
g53
(dp1302
g73
g74
ssg62
g1296
sg55
(lp1303
S'path_info'
p1304
asbag48
(g69
g50
NtRp1305
(dp1306
g53
(dp1307
g80
g81
ssg62
g1296
sg55
(lp1308
S':'
asbag48
(g69
g50
NtRp1309
(dp1310
g53
(dp1311
sg62
g1296
sg55
(lp1312
g48
(g49
g50
NtRp1313
(dp1314
g53
(dp1315
g61
I4
ssg62
g1309
sg55
(lp1316
S'/Desglosar_Emails/default/entrada'
p1317
asbasbasbag48
(g64
g50
NtRp1318
(dp1319
g53
(dp1320
sg62
g917
sg55
(lp1321
g48
(g69
g50
NtRp1322
(dp1323
g53
(dp1324
g73
g74
ssg62
g1318
sg55
(lp1325
S'query_string'
p1326
asbag48
(g69
g50
NtRp1327
(dp1328
g53
(dp1329
g80
g81
ssg62
g1318
sg55
(lp1330
S':'
asbag48
(g69
g50
NtRp1331
(dp1332
g53
(dp1333
sg62
g1318
sg55
(lp1334
g48
(g49
g50
NtRp1335
(dp1336
g53
(dp1337
g61
I4
ssg62
g1331
sg55
(lp1338
S''
asbasbasbag48
(g64
g50
NtRp1339
(dp1340
g53
(dp1341
sg62
g917
sg55
(lp1342
g48
(g69
g50
NtRp1343
(dp1344
g53
(dp1345
g73
g74
ssg62
g1339
sg55
(lp1346
S'remote_addr'
p1347
asbag48
(g69
g50
NtRp1348
(dp1349
g53
(dp1350
g80
g81
ssg62
g1339
sg55
(lp1351
S':'
asbag48
(g69
g50
NtRp1352
(dp1353
g53
(dp1354
sg62
g1339
sg55
(lp1355
g48
(g49
g50
NtRp1356
(dp1357
g53
(dp1358
g61
I4
ssg62
g1352
sg55
(lp1359
g181
asbasbasbag48
(g64
g50
NtRp1360
(dp1361
g53
(dp1362
sg62
g917
sg55
(lp1363
g48
(g69
g50
NtRp1364
(dp1365
g53
(dp1366
g73
g74
ssg62
g1360
sg55
(lp1367
S'remote_port'
p1368
asbag48
(g69
g50
NtRp1369
(dp1370
g53
(dp1371
g80
g81
ssg62
g1360
sg55
(lp1372
S':'
asbag48
(g69
g50
NtRp1373
(dp1374
g53
(dp1375
sg62
g1360
sg55
(lp1376
g48
(g49
g50
NtRp1377
(dp1378
g53
(dp1379
g61
I4
ssg62
g1373
sg55
(lp1380
S'57773'
p1381
asbasbasbag48
(g64
g50
NtRp1382
(dp1383
g53
(dp1384
sg62
g917
sg55
(lp1385
g48
(g69
g50
NtRp1386
(dp1387
g53
(dp1388
g73
g74
ssg62
g1382
sg55
(lp1389
S'request_method'
p1390
asbag48
(g69
g50
NtRp1391
(dp1392
g53
(dp1393
g80
g81
ssg62
g1382
sg55
(lp1394
S':'
asbag48
(g69
g50
NtRp1395
(dp1396
g53
(dp1397
sg62
g1382
sg55
(lp1398
g48
(g49
g50
NtRp1399
(dp1400
g53
(dp1401
g61
I4
ssg62
g1395
sg55
(lp1402
S'GET'
p1403
asbasbasbag48
(g64
g50
NtRp1404
(dp1405
g53
(dp1406
sg62
g917
sg55
(lp1407
g48
(g69
g50
NtRp1408
(dp1409
g53
(dp1410
g73
g74
ssg62
g1404
sg55
(lp1411
S'script_name'
p1412
asbag48
(g69
g50
NtRp1413
(dp1414
g53
(dp1415
g80
g81
ssg62
g1404
sg55
(lp1416
S':'
asbag48
(g69
g50
NtRp1417
(dp1418
g53
(dp1419
sg62
g1404
sg55
(lp1420
g48
(g49
g50
NtRp1421
(dp1422
g53
(dp1423
g61
I4
ssg62
g1417
sg55
(lp1424
S''
asbasbasbag48
(g64
g50
NtRp1425
(dp1426
g53
(dp1427
sg62
g917
sg55
(lp1428
g48
(g69
g50
NtRp1429
(dp1430
g53
(dp1431
g73
g74
ssg62
g1425
sg55
(lp1432
S'server_name'
p1433
asbag48
(g69
g50
NtRp1434
(dp1435
g53
(dp1436
g80
g81
ssg62
g1425
sg55
(lp1437
S':'
asbag48
(g69
g50
NtRp1438
(dp1439
g53
(dp1440
sg62
g1425
sg55
(lp1441
g48
(g49
g50
NtRp1442
(dp1443
g53
(dp1444
g61
I4
ssg62
g1438
sg55
(lp1445
S'Swing'
p1446
asbasbasbag48
(g64
g50
NtRp1447
(dp1448
g53
(dp1449
sg62
g917
sg55
(lp1450
g48
(g69
g50
NtRp1451
(dp1452
g53
(dp1453
g73
g74
ssg62
g1447
sg55
(lp1454
S'server_port'
p1455
asbag48
(g69
g50
NtRp1456
(dp1457
g53
(dp1458
g80
g81
ssg62
g1447
sg55
(lp1459
S':'
asbag48
(g69
g50
NtRp1460
(dp1461
g53
(dp1462
sg62
g1447
sg55
(lp1463
g48
(g49
g50
NtRp1464
(dp1465
g53
(dp1466
g61
I4
ssg62
g1460
sg55
(lp1467
S'8000'
p1468
asbasbasbag48
(g64
g50
NtRp1469
(dp1470
g53
(dp1471
sg62
g917
sg55
(lp1472
g48
(g69
g50
NtRp1473
(dp1474
g53
(dp1475
g73
g74
ssg62
g1469
sg55
(lp1476
S'server_protocol'
p1477
asbag48
(g69
g50
NtRp1478
(dp1479
g53
(dp1480
g80
g81
ssg62
g1469
sg55
(lp1481
S':'
asbag48
(g69
g50
NtRp1482
(dp1483
g53
(dp1484
sg62
g1469
sg55
(lp1485
g48
(g49
g50
NtRp1486
(dp1487
g53
(dp1488
g61
I4
ssg62
g1482
sg55
(lp1489
S'HTTP/1.1'
p1490
asbasbasbag48
(g64
g50
NtRp1491
(dp1492
g53
(dp1493
sg62
g917
sg55
(lp1494
g48
(g69
g50
NtRp1495
(dp1496
g53
(dp1497
g73
g74
ssg62
g1491
sg55
(lp1498
S'server_software'
p1499
asbag48
(g69
g50
NtRp1500
(dp1501
g53
(dp1502
g80
g81
ssg62
g1491
sg55
(lp1503
S':'
asbag48
(g69
g50
NtRp1504
(dp1505
g53
(dp1506
sg62
g1491
sg55
(lp1507
g48
(g49
g50
NtRp1508
(dp1509
g53
(dp1510
g61
I4
ssg62
g1504
sg55
(lp1511
S'Rocket 1.2.2'
p1512
asbasbasbag48
(g64
g50
NtRp1513
(dp1514
g53
(dp1515
sg62
g917
sg55
(lp1516
g48
(g69
g50
NtRp1517
(dp1518
g53
(dp1519
g73
g74
ssg62
g1513
sg55
(lp1520
S'web2py_crontype'
p1521
asbag48
(g69
g50
NtRp1522
(dp1523
g53
(dp1524
g80
g81
ssg62
g1513
sg55
(lp1525
S':'
asbag48
(g69
g50
NtRp1526
(dp1527
g53
(dp1528
sg62
g1513
sg55
(lp1529
g48
(g49
g50
NtRp1530
(dp1531
g53
(dp1532
g61
I4
ssg62
g1526
sg55
(lp1533
S'hard'
p1534
asbasbasbag48
(g64
g50
NtRp1535
(dp1536
g53
(dp1537
sg62
g917
sg55
(lp1538
g48
(g69
g50
NtRp1539
(dp1540
g53
(dp1541
g73
g74
ssg62
g1535
sg55
(lp1542
S'web2py_path'
p1543
asbag48
(g69
g50
NtRp1544
(dp1545
g53
(dp1546
g80
g81
ssg62
g1535
sg55
(lp1547
S':'
asbag48
(g69
g50
NtRp1548
(dp1549
g53
(dp1550
sg62
g1535
sg55
(lp1551
g48
(g49
g50
NtRp1552
(dp1553
g53
(dp1554
g61
I4
ssg62
g1548
sg55
(lp1555
g964
asbasbasbag48
(g64
g50
NtRp1556
(dp1557
g53
(dp1558
sg62
g917
sg55
(lp1559
g48
(g69
g50
NtRp1560
(dp1561
g53
(dp1562
g73
g74
ssg62
g1556
sg55
(lp1563
S'web2py_version'
p1564
asbag48
(g69
g50
NtRp1565
(dp1566
g53
(dp1567
g80
g81
ssg62
g1556
sg55
(lp1568
S':'
asbag48
(g69
g50
NtRp1569
(dp1570
g53
(dp1571
sg62
g1556
sg55
(lp1572
g48
(g49
g50
NtRp1573
(dp1574
g53
(dp1575
g61
I4
ssg62
g1569
sg55
(lp1576
S'Version 1.98.2 (2011-08-04 00:47:09)\n'
p1577
asbasbasbag48
(g64
g50
NtRp1578
(dp1579
g53
(dp1580
sg62
g917
sg55
(lp1581
g48
(g69
g50
NtRp1582
(dp1583
g53
(dp1584
g73
g74
ssg62
g1578
sg55
(lp1585
S'wsgi_errors'
p1586
asbag48
(g69
g50
NtRp1587
(dp1588
g53
(dp1589
g80
g81
ssg62
g1578
sg55
(lp1590
S':'
asbag48
(g69
g50
NtRp1591
(dp1592
g53
(dp1593
sg62
g1578
sg55
(lp1594
g48
(g49
g50
NtRp1595
(dp1596
g53
(dp1597
g61
I4
ssg62
g1591
sg55
(lp1598
S"<open file '<stderr>', mode 'w' at 0x01F500B0>"
p1599
asbasbasbag48
(g64
g50
NtRp1600
(dp1601
g53
(dp1602
sg62
g917
sg55
(lp1603
g48
(g69
g50
NtRp1604
(dp1605
g53
(dp1606
g73
g74
ssg62
g1600
sg55
(lp1607
S'wsgi_file_wrapper'
p1608
asbag48
(g69
g50
NtRp1609
(dp1610
g53
(dp1611
g80
g81
ssg62
g1600
sg55
(lp1612
S':'
asbag48
(g69
g50
NtRp1613
(dp1614
g53
(dp1615
sg62
g1600
sg55
(lp1616
g48
(g49
g50
NtRp1617
(dp1618
g53
(dp1619
g61
I4
ssg62
g1613
sg55
(lp1620
S'<class gluon.rocket.FileWrapper at 0x0308C1B0>'
p1621
asbasbasbag48
(g64
g50
NtRp1622
(dp1623
g53
(dp1624
sg62
g917
sg55
(lp1625
g48
(g69
g50
NtRp1626
(dp1627
g53
(dp1628
g73
g74
ssg62
g1622
sg55
(lp1629
S'wsgi_input'
p1630
asbag48
(g69
g50
NtRp1631
(dp1632
g53
(dp1633
g80
g81
ssg62
g1622
sg55
(lp1634
S':'
asbag48
(g69
g50
NtRp1635
(dp1636
g53
(dp1637
sg62
g1622
sg55
(lp1638
g48
(g49
g50
NtRp1639
(dp1640
g53
(dp1641
g61
I4
ssg62
g1635
sg55
(lp1642
S'<socket._fileobject object at 0x078CBB70>'
p1643
asbasbasbag48
(g64
g50
NtRp1644
(dp1645
g53
(dp1646
sg62
g917
sg55
(lp1647
g48
(g69
g50
NtRp1648
(dp1649
g53
(dp1650
g73
g74
ssg62
g1644
sg55
(lp1651
S'wsgi_multiprocess'
p1652
asbag48
(g69
g50
NtRp1653
(dp1654
g53
(dp1655
g80
g81
ssg62
g1644
sg55
(lp1656
S':'
asbag48
(g69
g50
NtRp1657
(dp1658
g53
(dp1659
sg62
g1644
sg55
(lp1660
g48
(g49
g50
NtRp1661
(dp1662
g53
(dp1663
g61
I4
ssg62
g1657
sg55
(lp1664
g91
asbasbasbag48
(g64
g50
NtRp1665
(dp1666
g53
(dp1667
sg62
g917
sg55
(lp1668
g48
(g69
g50
NtRp1669
(dp1670
g53
(dp1671
g73
g74
ssg62
g1665
sg55
(lp1672
S'wsgi_multithread'
p1673
asbag48
(g69
g50
NtRp1674
(dp1675
g53
(dp1676
g80
g81
ssg62
g1665
sg55
(lp1677
S':'
asbag48
(g69
g50
NtRp1678
(dp1679
g53
(dp1680
sg62
g1665
sg55
(lp1681
g48
(g49
g50
NtRp1682
(dp1683
g53
(dp1684
g61
I4
ssg62
g1678
sg55
(lp1685
S'True'
p1686
asbasbasbag48
(g64
g50
NtRp1687
(dp1688
g53
(dp1689
sg62
g917
sg55
(lp1690
g48
(g69
g50
NtRp1691
(dp1692
g53
(dp1693
g73
g74
ssg62
g1687
sg55
(lp1694
S'wsgi_run_once'
p1695
asbag48
(g69
g50
NtRp1696
(dp1697
g53
(dp1698
g80
g81
ssg62
g1687
sg55
(lp1699
S':'
asbag48
(g69
g50
NtRp1700
(dp1701
g53
(dp1702
sg62
g1687
sg55
(lp1703
g48
(g49
g50
NtRp1704
(dp1705
g53
(dp1706
g61
I4
ssg62
g1700
sg55
(lp1707
g91
asbasbasbag48
(g64
g50
NtRp1708
(dp1709
g53
(dp1710
sg62
g917
sg55
(lp1711
g48
(g69
g50
NtRp1712
(dp1713
g53
(dp1714
g73
g74
ssg62
g1708
sg55
(lp1715
S'wsgi_url_scheme'
p1716
asbag48
(g69
g50
NtRp1717
(dp1718
g53
(dp1719
g80
g81
ssg62
g1708
sg55
(lp1720
S':'
asbag48
(g69
g50
NtRp1721
(dp1722
g53
(dp1723
sg62
g1708
sg55
(lp1724
g48
(g49
g50
NtRp1725
(dp1726
g53
(dp1727
g61
I4
ssg62
g1721
sg55
(lp1728
S'http'
p1729
asbasbasbag48
(g64
g50
NtRp1730
(dp1731
g53
(dp1732
sg62
g917
sg55
(lp1733
g48
(g69
g50
NtRp1734
(dp1735
g53
(dp1736
g73
g74
ssg62
g1730
sg55
(lp1737
S'wsgi_version'
p1738
asbag48
(g69
g50
NtRp1739
(dp1740
g53
(dp1741
g80
g81
ssg62
g1730
sg55
(lp1742
S':'
asbag48
(g69
g50
NtRp1743
(dp1744
g53
(dp1745
sg62
g1730
sg55
(lp1746
g48
(g49
g50
NtRp1747
(dp1748
g53
(dp1749
g61
I4
ssg62
g1743
sg55
(lp1750
g48
(g57
g50
NtRp1751
(dp1752
g53
(dp1753
g61
I3
ssg62
Nsg55
(lp1754
g48
(g64
g50
NtRp1755
(dp1756
g53
(dp1757
sg62
g1751
sg55
(lp1758
g48
(g69
g50
NtRp1759
(dp1760
g53
(dp1761
sg62
g1755
sg55
(lp1762
g48
(g49
g50
NtRp1763
(dp1764
g53
(dp1765
g61
I3
ssg62
g1759
sg55
(lp1766
S'1'
asbasbasbag48
(g64
g50
NtRp1767
(dp1768
g53
(dp1769
sg62
g1751
sg55
(lp1770
g48
(g69
g50
NtRp1771
(dp1772
g53
(dp1773
sg62
g1767
sg55
(lp1774
g48
(g49
g50
NtRp1775
(dp1776
g53
(dp1777
g61
I3
ssg62
g1771
sg55
(lp1778
S'0'
asbasbasbasbasbasbasbasbasbasbasbag48
(g64
g50
NtRp1779
(dp1780
g53
(dp1781
sg62
g58
sg55
(lp1782
g48
(g69
g50
NtRp1783
(dp1784
g53
(dp1785
g73
g74
ssg62
g1779
sg55
(lp1786
S'extension'
p1787
asbag48
(g69
g50
NtRp1788
(dp1789
g53
(dp1790
g80
g81
ssg62
g1779
sg55
(lp1791
S':'
asbag48
(g69
g50
NtRp1792
(dp1793
g53
(dp1794
sg62
g1779
sg55
(lp1795
g48
(g49
g50
NtRp1796
(dp1797
g53
(dp1798
g61
I5
ssg62
g1792
sg55
(lp1799
S'html'
p1800
asbasbasbag48
(g64
g50
NtRp1801
(dp1802
g53
(dp1803
sg62
g58
sg55
(lp1804
g48
(g69
g50
NtRp1805
(dp1806
g53
(dp1807
g73
g74
ssg62
g1801
sg55
(lp1808
S'folder'
p1809
asbag48
(g69
g50
NtRp1810
(dp1811
g53
(dp1812
g80
g81
ssg62
g1801
sg55
(lp1813
S':'
asbag48
(g69
g50
NtRp1814
(dp1815
g53
(dp1816
sg62
g1801
sg55
(lp1817
g48
(g49
g50
NtRp1818
(dp1819
g53
(dp1820
g61
I5
ssg62
g1814
sg55
(lp1821
S'C:\\Users\\Atomico\\web2py\\applications\\Desglosar_Emails\\'
p1822
asbasbasbag48
(g64
g50
NtRp1823
(dp1824
g53
(dp1825
sg62
g58
sg55
(lp1826
g48
(g69
g50
NtRp1827
(dp1828
g53
(dp1829
g73
g74
ssg62
g1823
sg55
(lp1830
S'function'
p1831
asbag48
(g69
g50
NtRp1832
(dp1833
g53
(dp1834
g80
g81
ssg62
g1823
sg55
(lp1835
S':'
asbag48
(g69
g50
NtRp1836
(dp1837
g53
(dp1838
sg62
g1823
sg55
(lp1839
g48
(g49
g50
NtRp1840
(dp1841
g53
(dp1842
g61
I5
ssg62
g1836
sg55
(lp1843
S'entrada'
p1844
asbasbasbag48
(g64
g50
NtRp1845
(dp1846
g53
(dp1847
sg62
g58
sg55
(lp1848
g48
(g69
g50
NtRp1849
(dp1850
g53
(dp1851
g73
g74
ssg62
g1845
sg55
(lp1852
S'get_vars'
p1853
asbag48
(g69
g50
NtRp1854
(dp1855
g53
(dp1856
g80
g81
ssg62
g1845
sg55
(lp1857
S':'
asbag48
(g69
g50
NtRp1858
(dp1859
g53
(dp1860
sg62
g1845
sg55
(lp1861
g48
(g49
g50
NtRp1862
(dp1863
g53
(dp1864
g61
I5
ssg62
g1858
sg55
(lp1865
g48
(g57
g50
NtRp1866
(dp1867
g53
(dp1868
g61
I4
ssg62
Nsg55
(lp1869
sbasbasbasbag48
(g64
g50
NtRp1870
(dp1871
g53
(dp1872
sg62
g58
sg55
(lp1873
g48
(g69
g50
NtRp1874
(dp1875
g53
(dp1876
g73
g74
ssg62
g1870
sg55
(lp1877
S'is_https'
p1878
asbag48
(g69
g50
NtRp1879
(dp1880
g53
(dp1881
g80
g81
ssg62
g1870
sg55
(lp1882
S':'
asbag48
(g69
g50
NtRp1883
(dp1884
g53
(dp1885
sg62
g1870
sg55
(lp1886
g48
(g49
g50
NtRp1887
(dp1888
g53
(dp1889
g61
I5
ssg62
g1883
sg55
(lp1890
g91
asbasbasbag48
(g64
g50
NtRp1891
(dp1892
g53
(dp1893
sg62
g58
sg55
(lp1894
g48
(g69
g50
NtRp1895
(dp1896
g53
(dp1897
g73
g74
ssg62
g1891
sg55
(lp1898
S'is_local'
p1899
asbag48
(g69
g50
NtRp1900
(dp1901
g53
(dp1902
g80
g81
ssg62
g1891
sg55
(lp1903
S':'
asbag48
(g69
g50
NtRp1904
(dp1905
g53
(dp1906
sg62
g1891
sg55
(lp1907
g48
(g49
g50
NtRp1908
(dp1909
g53
(dp1910
g61
I5
ssg62
g1904
sg55
(lp1911
g1686
asbasbasbag48
(g64
g50
NtRp1912
(dp1913
g53
(dp1914
sg62
g58
sg55
(lp1915
g48
(g69
g50
NtRp1916
(dp1917
g53
(dp1918
g73
g74
ssg62
g1912
sg55
(lp1919
S'is_restful'
p1920
asbag48
(g69
g50
NtRp1921
(dp1922
g53
(dp1923
g80
g81
ssg62
g1912
sg55
(lp1924
S':'
asbag48
(g69
g50
NtRp1925
(dp1926
g53
(dp1927
sg62
g1912
sg55
(lp1928
g48
(g49
g50
NtRp1929
(dp1930
g53
(dp1931
g61
I5
ssg62
g1925
sg55
(lp1932
g91
asbasbasbag48
(g64
g50
NtRp1933
(dp1934
g53
(dp1935
sg62
g58
sg55
(lp1936
g48
(g69
g50
NtRp1937
(dp1938
g53
(dp1939
g73
g74
ssg62
g1933
sg55
(lp1940
S'now'
p1941
asbag48
(g69
g50
NtRp1942
(dp1943
g53
(dp1944
g80
g81
ssg62
g1933
sg55
(lp1945
S':'
asbag48
(g69
g50
NtRp1946
(dp1947
g53
(dp1948
sg62
g1933
sg55
(lp1949
g48
(g49
g50
NtRp1950
(dp1951
g53
(dp1952
g61
I5
ssg62
g1946
sg55
(lp1953
S'datetime.datetime(2011, 9, 18, 10, 46, 42, 123000)'
p1954
asbasbasbag48
(g64
g50
NtRp1955
(dp1956
g53
(dp1957
sg62
g58
sg55
(lp1958
g48
(g69
g50
NtRp1959
(dp1960
g53
(dp1961
g73
g74
ssg62
g1955
sg55
(lp1962
S'post_vars'
p1963
asbag48
(g69
g50
NtRp1964
(dp1965
g53
(dp1966
g80
g81
ssg62
g1955
sg55
(lp1967
S':'
asbag48
(g69
g50
NtRp1968
(dp1969
g53
(dp1970
sg62
g1955
sg55
(lp1971
g48
(g49
g50
NtRp1972
(dp1973
g53
(dp1974
g61
I5
ssg62
g1968
sg55
(lp1975
g48
(g57
g50
NtRp1976
(dp1977
g53
(dp1978
g61
I4
ssg62
Nsg55
(lp1979
sbasbasbasbag48
(g64
g50
NtRp1980
(dp1981
g53
(dp1982
sg62
g58
sg55
(lp1983
g48
(g69
g50
NtRp1984
(dp1985
g53
(dp1986
g73
g74
ssg62
g1980
sg55
(lp1987
S'url'
p1988
asbag48
(g69
g50
NtRp1989
(dp1990
g53
(dp1991
g80
g81
ssg62
g1980
sg55
(lp1992
S':'
asbag48
(g69
g50
NtRp1993
(dp1994
g53
(dp1995
sg62
g1980
sg55
(lp1996
g48
(g49
g50
NtRp1997
(dp1998
g53
(dp1999
g61
I5
ssg62
g1993
sg55
(lp2000
S'/Desglosar_Emails/default/entrada'
p2001
asbasbasbag48
(g64
g50
NtRp2002
(dp2003
g53
(dp2004
sg62
g58
sg55
(lp2005
g48
(g69
g50
NtRp2006
(dp2007
g53
(dp2008
g73
g74
ssg62
g2002
sg55
(lp2009
S'uuid'
p2010
asbag48
(g69
g50
NtRp2011
(dp2012
g53
(dp2013
g80
g81
ssg62
g2002
sg55
(lp2014
S':'
asbag48
(g69
g50
NtRp2015
(dp2016
g53
(dp2017
sg62
g2002
sg55
(lp2018
g48
(g49
g50
NtRp2019
(dp2020
g53
(dp2021
g61
I5
ssg62
g2015
sg55
(lp2022
S'Desglosar_Emails/127.0.0.1.2011-09-18.10-46-42.56893edb-fd4c-432c-8df7-a3e7fe61b1df'
p2023
asbasbasbag48
(g64
g50
NtRp2024
(dp2025
g53
(dp2026
sg62
g58
sg55
(lp2027
g48
(g69
g50
NtRp2028
(dp2029
g53
(dp2030
g73
g74
ssg62
g2024
sg55
(lp2031
S'vars'
p2032
asbag48
(g69
g50
NtRp2033
(dp2034
g53
(dp2035
g80
g81
ssg62
g2024
sg55
(lp2036
S':'
asbag48
(g69
g50
NtRp2037
(dp2038
g53
(dp2039
sg62
g2024
sg55
(lp2040
g48
(g49
g50
NtRp2041
(dp2042
g53
(dp2043
g61
I5
ssg62
g2037
sg55
(lp2044
g48
(g57
g50
NtRp2045
(dp2046
g53
(dp2047
g61
I4
ssg62
Nsg55
(lp2048
sbasbasbasbag48
(g64
g50
NtRp2049
(dp2050
g53
(dp2051
sg62
g58
sg55
(lp2052
g48
(g69
g50
NtRp2053
(dp2054
g53
(dp2055
g73
g74
ssg62
g2049
sg55
(lp2056
S'wsgi'
p2057
asbag48
(g69
g50
NtRp2058
(dp2059
g53
(dp2060
g80
g81
ssg62
g2049
sg55
(lp2061
S':'
asbag48
(g69
g50
NtRp2062
(dp2063
g53
(dp2064
sg62
g2049
sg55
(lp2065
g48
(g49
g50
NtRp2066
(dp2067
g53
(dp2068
g61
I5
ssg62
g2062
sg55
(lp2069
g48
(g57
g50
NtRp2070
(dp2071
g53
(dp2072
g61
I4
ssg62
Nsg55
(lp2073
g48
(g64
g50
NtRp2074
(dp2075
g53
(dp2076
sg62
g2070
sg55
(lp2077
g48
(g69
g50
NtRp2078
(dp2079
g53
(dp2080
g73
g74
ssg62
g2074
sg55
(lp2081
S'environ'
p2082
asbag48
(g69
g50
NtRp2083
(dp2084
g53
(dp2085
g80
g81
ssg62
g2074
sg55
(lp2086
S':'
asbag48
(g69
g50
NtRp2087
(dp2088
g53
(dp2089
sg62
g2074
sg55
(lp2090
g48
(g49
g50
NtRp2091
(dp2092
g53
(dp2093
g61
I4
ssg62
g2087
sg55
(lp2094
g48
(g57
g50
NtRp2095
(dp2096
g53
(dp2097
g61
I3
ssg62
Nsg55
(lp2098
g48
(g64
g50
NtRp2099
(dp2100
g53
(dp2101
sg62
g2095
sg55
(lp2102
g48
(g69
g50
NtRp2103
(dp2104
g53
(dp2105
g73
g74
ssg62
g2099
sg55
(lp2106
S'HTTP_ACCEPT'
p2107
asbag48
(g69
g50
NtRp2108
(dp2109
g53
(dp2110
g80
g81
ssg62
g2099
sg55
(lp2111
S':'
asbag48
(g69
g50
NtRp2112
(dp2113
g53
(dp2114
sg62
g2099
sg55
(lp2115
g48
(g49
g50
NtRp2116
(dp2117
g53
(dp2118
g61
I3
ssg62
g2112
sg55
(lp2119
g1098
asbasbasbag48
(g64
g50
NtRp2120
(dp2121
g53
(dp2122
sg62
g2095
sg55
(lp2123
g48
(g69
g50
NtRp2124
(dp2125
g53
(dp2126
g73
g74
ssg62
g2120
sg55
(lp2127
S'HTTP_ACCEPT_CHARSET'
p2128
asbag48
(g69
g50
NtRp2129
(dp2130
g53
(dp2131
g80
g81
ssg62
g2120
sg55
(lp2132
S':'
asbag48
(g69
g50
NtRp2133
(dp2134
g53
(dp2135
sg62
g2120
sg55
(lp2136
g48
(g49
g50
NtRp2137
(dp2138
g53
(dp2139
g61
I3
ssg62
g2133
sg55
(lp2140
g1120
asbasbasbag48
(g64
g50
NtRp2141
(dp2142
g53
(dp2143
sg62
g2095
sg55
(lp2144
g48
(g69
g50
NtRp2145
(dp2146
g53
(dp2147
g73
g74
ssg62
g2141
sg55
(lp2148
S'HTTP_ACCEPT_ENCODING'
p2149
asbag48
(g69
g50
NtRp2150
(dp2151
g53
(dp2152
g80
g81
ssg62
g2141
sg55
(lp2153
S':'
asbag48
(g69
g50
NtRp2154
(dp2155
g53
(dp2156
sg62
g2141
sg55
(lp2157
g48
(g49
g50
NtRp2158
(dp2159
g53
(dp2160
g61
I3
ssg62
g2154
sg55
(lp2161
g1142
asbasbasbag48
(g64
g50
NtRp2162
(dp2163
g53
(dp2164
sg62
g2095
sg55
(lp2165
g48
(g69
g50
NtRp2166
(dp2167
g53
(dp2168
g73
g74
ssg62
g2162
sg55
(lp2169
S'HTTP_ACCEPT_LANGUAGE'
p2170
asbag48
(g69
g50
NtRp2171
(dp2172
g53
(dp2173
g80
g81
ssg62
g2162
sg55
(lp2174
S':'
asbag48
(g69
g50
NtRp2175
(dp2176
g53
(dp2177
sg62
g2162
sg55
(lp2178
g48
(g49
g50
NtRp2179
(dp2180
g53
(dp2181
g61
I3
ssg62
g2175
sg55
(lp2182
g1164
asbasbasbag48
(g64
g50
NtRp2183
(dp2184
g53
(dp2185
sg62
g2095
sg55
(lp2186
g48
(g69
g50
NtRp2187
(dp2188
g53
(dp2189
g73
g74
ssg62
g2183
sg55
(lp2190
S'HTTP_CONNECTION'
p2191
asbag48
(g69
g50
NtRp2192
(dp2193
g53
(dp2194
g80
g81
ssg62
g2183
sg55
(lp2195
S':'
asbag48
(g69
g50
NtRp2196
(dp2197
g53
(dp2198
sg62
g2183
sg55
(lp2199
g48
(g49
g50
NtRp2200
(dp2201
g53
(dp2202
g61
I3
ssg62
g2196
sg55
(lp2203
g1186
asbasbasbag48
(g64
g50
NtRp2204
(dp2205
g53
(dp2206
sg62
g2095
sg55
(lp2207
g48
(g69
g50
NtRp2208
(dp2209
g53
(dp2210
g73
g74
ssg62
g2204
sg55
(lp2211
S'HTTP_COOKIE'
p2212
asbag48
(g69
g50
NtRp2213
(dp2214
g53
(dp2215
g80
g81
ssg62
g2204
sg55
(lp2216
S':'
asbag48
(g69
g50
NtRp2217
(dp2218
g53
(dp2219
sg62
g2204
sg55
(lp2220
g48
(g49
g50
NtRp2221
(dp2222
g53
(dp2223
g61
I3
ssg62
g2217
sg55
(lp2224
g1208
asbasbasbag48
(g64
g50
NtRp2225
(dp2226
g53
(dp2227
sg62
g2095
sg55
(lp2228
g48
(g69
g50
NtRp2229
(dp2230
g53
(dp2231
g73
g74
ssg62
g2225
sg55
(lp2232
S'HTTP_HOST'
p2233
asbag48
(g69
g50
NtRp2234
(dp2235
g53
(dp2236
g80
g81
ssg62
g2225
sg55
(lp2237
S':'
asbag48
(g69
g50
NtRp2238
(dp2239
g53
(dp2240
sg62
g2225
sg55
(lp2241
g48
(g49
g50
NtRp2242
(dp2243
g53
(dp2244
g61
I3
ssg62
g2238
sg55
(lp2245
g1230
asbasbasbag48
(g64
g50
NtRp2246
(dp2247
g53
(dp2248
sg62
g2095
sg55
(lp2249
g48
(g69
g50
NtRp2250
(dp2251
g53
(dp2252
g73
g74
ssg62
g2246
sg55
(lp2253
S'HTTP_REFERER'
p2254
asbag48
(g69
g50
NtRp2255
(dp2256
g53
(dp2257
g80
g81
ssg62
g2246
sg55
(lp2258
S':'
asbag48
(g69
g50
NtRp2259
(dp2260
g53
(dp2261
sg62
g2246
sg55
(lp2262
g48
(g49
g50
NtRp2263
(dp2264
g53
(dp2265
g61
I3
ssg62
g2259
sg55
(lp2266
g1252
asbasbasbag48
(g64
g50
NtRp2267
(dp2268
g53
(dp2269
sg62
g2095
sg55
(lp2270
g48
(g69
g50
NtRp2271
(dp2272
g53
(dp2273
g73
g74
ssg62
g2267
sg55
(lp2274
S'HTTP_USER_AGENT'
p2275
asbag48
(g69
g50
NtRp2276
(dp2277
g53
(dp2278
g80
g81
ssg62
g2267
sg55
(lp2279
S':'
asbag48
(g69
g50
NtRp2280
(dp2281
g53
(dp2282
sg62
g2267
sg55
(lp2283
g48
(g49
g50
NtRp2284
(dp2285
g53
(dp2286
g61
I3
ssg62
g2280
sg55
(lp2287
g1274
asbasbasbag48
(g64
g50
NtRp2288
(dp2289
g53
(dp2290
sg62
g2095
sg55
(lp2291
g48
(g69
g50
NtRp2292
(dp2293
g53
(dp2294
g73
g74
ssg62
g2288
sg55
(lp2295
S'PATH_INFO'
p2296
asbag48
(g69
g50
NtRp2297
(dp2298
g53
(dp2299
g80
g81
ssg62
g2288
sg55
(lp2300
S':'
asbag48
(g69
g50
NtRp2301
(dp2302
g53
(dp2303
sg62
g2288
sg55
(lp2304
g48
(g49
g50
NtRp2305
(dp2306
g53
(dp2307
g61
I3
ssg62
g2301
sg55
(lp2308
g1317
asbasbasbag48
(g64
g50
NtRp2309
(dp2310
g53
(dp2311
sg62
g2095
sg55
(lp2312
g48
(g69
g50
NtRp2313
(dp2314
g53
(dp2315
g73
g74
ssg62
g2309
sg55
(lp2316
S'QUERY_STRING'
p2317
asbag48
(g69
g50
NtRp2318
(dp2319
g53
(dp2320
g80
g81
ssg62
g2309
sg55
(lp2321
S':'
asbag48
(g69
g50
NtRp2322
(dp2323
g53
(dp2324
sg62
g2309
sg55
(lp2325
g48
(g49
g50
NtRp2326
(dp2327
g53
(dp2328
g61
I3
ssg62
g2322
sg55
(lp2329
S''
asbasbasbag48
(g64
g50
NtRp2330
(dp2331
g53
(dp2332
sg62
g2095
sg55
(lp2333
g48
(g69
g50
NtRp2334
(dp2335
g53
(dp2336
g73
g74
ssg62
g2330
sg55
(lp2337
S'REMOTE_ADDR'
p2338
asbag48
(g69
g50
NtRp2339
(dp2340
g53
(dp2341
g80
g81
ssg62
g2330
sg55
(lp2342
S':'
asbag48
(g69
g50
NtRp2343
(dp2344
g53
(dp2345
sg62
g2330
sg55
(lp2346
g48
(g49
g50
NtRp2347
(dp2348
g53
(dp2349
g61
I3
ssg62
g2343
sg55
(lp2350
g181
asbasbasbag48
(g64
g50
NtRp2351
(dp2352
g53
(dp2353
sg62
g2095
sg55
(lp2354
g48
(g69
g50
NtRp2355
(dp2356
g53
(dp2357
g73
g74
ssg62
g2351
sg55
(lp2358
S'REMOTE_PORT'
p2359
asbag48
(g69
g50
NtRp2360
(dp2361
g53
(dp2362
g80
g81
ssg62
g2351
sg55
(lp2363
S':'
asbag48
(g69
g50
NtRp2364
(dp2365
g53
(dp2366
sg62
g2351
sg55
(lp2367
g48
(g49
g50
NtRp2368
(dp2369
g53
(dp2370
g61
I3
ssg62
g2364
sg55
(lp2371
g1381
asbasbasbag48
(g64
g50
NtRp2372
(dp2373
g53
(dp2374
sg62
g2095
sg55
(lp2375
g48
(g69
g50
NtRp2376
(dp2377
g53
(dp2378
g73
g74
ssg62
g2372
sg55
(lp2379
S'REQUEST_METHOD'
p2380
asbag48
(g69
g50
NtRp2381
(dp2382
g53
(dp2383
g80
g81
ssg62
g2372
sg55
(lp2384
S':'
asbag48
(g69
g50
NtRp2385
(dp2386
g53
(dp2387
sg62
g2372
sg55
(lp2388
g48
(g49
g50
NtRp2389
(dp2390
g53
(dp2391
g61
I3
ssg62
g2385
sg55
(lp2392
g1403
asbasbasbag48
(g64
g50
NtRp2393
(dp2394
g53
(dp2395
sg62
g2095
sg55
(lp2396
g48
(g69
g50
NtRp2397
(dp2398
g53
(dp2399
g73
g74
ssg62
g2393
sg55
(lp2400
S'SCRIPT_NAME'
p2401
asbag48
(g69
g50
NtRp2402
(dp2403
g53
(dp2404
g80
g81
ssg62
g2393
sg55
(lp2405
S':'
asbag48
(g69
g50
NtRp2406
(dp2407
g53
(dp2408
sg62
g2393
sg55
(lp2409
g48
(g49
g50
NtRp2410
(dp2411
g53
(dp2412
g61
I3
ssg62
g2406
sg55
(lp2413
S''
asbasbasbag48
(g64
g50
NtRp2414
(dp2415
g53
(dp2416
sg62
g2095
sg55
(lp2417
g48
(g69
g50
NtRp2418
(dp2419
g53
(dp2420
g73
g74
ssg62
g2414
sg55
(lp2421
S'SERVER_NAME'
p2422
asbag48
(g69
g50
NtRp2423
(dp2424
g53
(dp2425
g80
g81
ssg62
g2414
sg55
(lp2426
S':'
asbag48
(g69
g50
NtRp2427
(dp2428
g53
(dp2429
sg62
g2414
sg55
(lp2430
g48
(g49
g50
NtRp2431
(dp2432
g53
(dp2433
g61
I3
ssg62
g2427
sg55
(lp2434
g1446
asbasbasbag48
(g64
g50
NtRp2435
(dp2436
g53
(dp2437
sg62
g2095
sg55
(lp2438
g48
(g69
g50
NtRp2439
(dp2440
g53
(dp2441
g73
g74
ssg62
g2435
sg55
(lp2442
S'SERVER_PORT'
p2443
asbag48
(g69
g50
NtRp2444
(dp2445
g53
(dp2446
g80
g81
ssg62
g2435
sg55
(lp2447
S':'
asbag48
(g69
g50
NtRp2448
(dp2449
g53
(dp2450
sg62
g2435
sg55
(lp2451
g48
(g49
g50
NtRp2452
(dp2453
g53
(dp2454
g61
I3
ssg62
g2448
sg55
(lp2455
g1468
asbasbasbag48
(g64
g50
NtRp2456
(dp2457
g53
(dp2458
sg62
g2095
sg55
(lp2459
g48
(g69
g50
NtRp2460
(dp2461
g53
(dp2462
g73
g74
ssg62
g2456
sg55
(lp2463
S'SERVER_PROTOCOL'
p2464
asbag48
(g69
g50
NtRp2465
(dp2466
g53
(dp2467
g80
g81
ssg62
g2456
sg55
(lp2468
S':'
asbag48
(g69
g50
NtRp2469
(dp2470
g53
(dp2471
sg62
g2456
sg55
(lp2472
g48
(g49
g50
NtRp2473
(dp2474
g53
(dp2475
g61
I3
ssg62
g2469
sg55
(lp2476
g1490
asbasbasbag48
(g64
g50
NtRp2477
(dp2478
g53
(dp2479
sg62
g2095
sg55
(lp2480
g48
(g69
g50
NtRp2481
(dp2482
g53
(dp2483
g73
g74
ssg62
g2477
sg55
(lp2484
S'SERVER_SOFTWARE'
p2485
asbag48
(g69
g50
NtRp2486
(dp2487
g53
(dp2488
g80
g81
ssg62
g2477
sg55
(lp2489
S':'
asbag48
(g69
g50
NtRp2490
(dp2491
g53
(dp2492
sg62
g2477
sg55
(lp2493
g48
(g49
g50
NtRp2494
(dp2495
g53
(dp2496
g61
I3
ssg62
g2490
sg55
(lp2497
g1512
asbasbasbag48
(g64
g50
NtRp2498
(dp2499
g53
(dp2500
sg62
g2095
sg55
(lp2501
g48
(g69
g50
NtRp2502
(dp2503
g53
(dp2504
g73
g74
ssg62
g2498
sg55
(lp2505
S'wsgi.errors'
p2506
asbag48
(g69
g50
NtRp2507
(dp2508
g53
(dp2509
g80
g81
ssg62
g2498
sg55
(lp2510
S':'
asbag48
(g69
g50
NtRp2511
(dp2512
g53
(dp2513
sg62
g2498
sg55
(lp2514
g48
(g49
g50
NtRp2515
(dp2516
g53
(dp2517
g61
I3
ssg62
g2511
sg55
(lp2518
S"<open file '<stderr>', mode 'w' at 0x01F500B0>"
p2519
asbasbasbag48
(g64
g50
NtRp2520
(dp2521
g53
(dp2522
sg62
g2095
sg55
(lp2523
g48
(g69
g50
NtRp2524
(dp2525
g53
(dp2526
g73
g74
ssg62
g2520
sg55
(lp2527
S'wsgi.file_wrapper'
p2528
asbag48
(g69
g50
NtRp2529
(dp2530
g53
(dp2531
g80
g81
ssg62
g2520
sg55
(lp2532
S':'
asbag48
(g69
g50
NtRp2533
(dp2534
g53
(dp2535
sg62
g2520
sg55
(lp2536
g48
(g49
g50
NtRp2537
(dp2538
g53
(dp2539
g61
I3
ssg62
g2533
sg55
(lp2540
S'<class gluon.rocket.FileWrapper at 0x0308C1B0>'
p2541
asbasbasbag48
(g64
g50
NtRp2542
(dp2543
g53
(dp2544
sg62
g2095
sg55
(lp2545
g48
(g69
g50
NtRp2546
(dp2547
g53
(dp2548
g73
g74
ssg62
g2542
sg55
(lp2549
S'wsgi.input'
p2550
asbag48
(g69
g50
NtRp2551
(dp2552
g53
(dp2553
g80
g81
ssg62
g2542
sg55
(lp2554
S':'
asbag48
(g69
g50
NtRp2555
(dp2556
g53
(dp2557
sg62
g2542
sg55
(lp2558
g48
(g49
g50
NtRp2559
(dp2560
g53
(dp2561
g61
I3
ssg62
g2555
sg55
(lp2562
S'<cStringIO.StringO object at 0x076D33E0>'
p2563
asbasbasbag48
(g64
g50
NtRp2564
(dp2565
g53
(dp2566
sg62
g2095
sg55
(lp2567
g48
(g69
g50
NtRp2568
(dp2569
g53
(dp2570
g73
g74
ssg62
g2564
sg55
(lp2571
S'wsgi.multiprocess'
p2572
asbag48
(g69
g50
NtRp2573
(dp2574
g53
(dp2575
g80
g81
ssg62
g2564
sg55
(lp2576
S':'
asbag48
(g69
g50
NtRp2577
(dp2578
g53
(dp2579
sg62
g2564
sg55
(lp2580
g48
(g49
g50
NtRp2581
(dp2582
g53
(dp2583
g61
I3
ssg62
g2577
sg55
(lp2584
g91
asbasbasbag48
(g64
g50
NtRp2585
(dp2586
g53
(dp2587
sg62
g2095
sg55
(lp2588
g48
(g69
g50
NtRp2589
(dp2590
g53
(dp2591
g73
g74
ssg62
g2585
sg55
(lp2592
S'wsgi.multithread'
p2593
asbag48
(g69
g50
NtRp2594
(dp2595
g53
(dp2596
g80
g81
ssg62
g2585
sg55
(lp2597
S':'
asbag48
(g69
g50
NtRp2598
(dp2599
g53
(dp2600
sg62
g2585
sg55
(lp2601
g48
(g49
g50
NtRp2602
(dp2603
g53
(dp2604
g61
I3
ssg62
g2598
sg55
(lp2605
g1686
asbasbasbag48
(g64
g50
NtRp2606
(dp2607
g53
(dp2608
sg62
g2095
sg55
(lp2609
g48
(g69
g50
NtRp2610
(dp2611
g53
(dp2612
g73
g74
ssg62
g2606
sg55
(lp2613
S'wsgi.run_once'
p2614
asbag48
(g69
g50
NtRp2615
(dp2616
g53
(dp2617
g80
g81
ssg62
g2606
sg55
(lp2618
S':'
asbag48
(g69
g50
NtRp2619
(dp2620
g53
(dp2621
sg62
g2606
sg55
(lp2622
g48
(g49
g50
NtRp2623
(dp2624
g53
(dp2625
g61
I3
ssg62
g2619
sg55
(lp2626
g91
asbasbasbag48
(g64
g50
NtRp2627
(dp2628
g53
(dp2629
sg62
g2095
sg55
(lp2630
g48
(g69
g50
NtRp2631
(dp2632
g53
(dp2633
g73
g74
ssg62
g2627
sg55
(lp2634
S'wsgi.url_scheme'
p2635
asbag48
(g69
g50
NtRp2636
(dp2637
g53
(dp2638
g80
g81
ssg62
g2627
sg55
(lp2639
S':'
asbag48
(g69
g50
NtRp2640
(dp2641
g53
(dp2642
sg62
g2627
sg55
(lp2643
g48
(g49
g50
NtRp2644
(dp2645
g53
(dp2646
g61
I3
ssg62
g2640
sg55
(lp2647
g1729
asbasbasbag48
(g64
g50
NtRp2648
(dp2649
g53
(dp2650
sg62
g2095
sg55
(lp2651
g48
(g69
g50
NtRp2652
(dp2653
g53
(dp2654
g73
g74
ssg62
g2648
sg55
(lp2655
S'wsgi.version'
p2656
asbag48
(g69
g50
NtRp2657
(dp2658
g53
(dp2659
g80
g81
ssg62
g2648
sg55
(lp2660
S':'
asbag48
(g69
g50
NtRp2661
(dp2662
g53
(dp2663
sg62
g2648
sg55
(lp2664
g48
(g49
g50
NtRp2665
(dp2666
g53
(dp2667
g61
I3
ssg62
g2661
sg55
(lp2668
S'1'
asbasbasbasbasbasbasbasbasbasbasbasbasbsS'frames'
p2669
(lp2670
(dp2671
S'file'
p2672
S'C:\\Users\\Atomico\\web2py\\gluon\\restricted.py'
p2673
sS'dump'
p2674
(dp2675
sS'lnum'
p2676
I192
sS'lines'
p2677
(dp2678
sS'call'
p2679
S"(code='def entrada():\\n    form=SQLFORM(db.info)\\n    if ...=form)\\n\\nresponse._vars=response._caller(entrada)\\n', environment={'A': <class 'gluon.html.A'>, 'B': <class 'gluon.html.B'>, 'BEAUTIFY': <class 'gluon.html.BEAUTIFY'>, 'BODY': <class 'gluon.html.BODY'>, 'BR': <class 'gluon.html.BR'>, 'BUTTON': <class 'gluon.html.BUTTON'>, 'CAT': <class 'gluon.html.CAT'>, 'CENTER': <class 'gluon.html.CENTER'>, 'CLEANUP': <class 'gluon.validators.CLEANUP'>, 'CODE': <class 'gluon.html.CODE'>, ...}, layer=r'C:\\Users\\Atomico\\web2py\\applications\\Desglosar_Emails\\controllers/default.py')"
p2680
sS'func'
p2681
S'restricted'
p2682
sa(dp2683
g2672
S'C:\\Users\\Atomico\\web2py\\applications\\Desglosar_Emails\\controllers\\default.py'
p2684
sg2674
(dp2685
sg2676
I42
sg2677
(dp2686
I32
S''
sI33
S''
sI34
S''
sI35
S''
sI36
S''
sI37
S''
sI38
S''
sI39
S''
sI40
S'    return dict(form=form)'
p2687
sI31
S''
ssg2679
S'()'
p2688
sg2681
S'<module>'
p2689
sa(dp2690
g2672
S'C:\\Users\\Atomico\\web2py\\gluon\\globals.py'
p2691
sg2674
(dp2692
sg2676
I145
sg2677
(dp2693
sg2679
S'(f=<function entrada at 0x07C49930>)'
p2694
sg2681
S'<lambda>'
p2695
sa(dp2696
g2672
S'C:\\Users\\Atomico\\web2py\\applications\\Desglosar_Emails\\controllers\\default.py'
p2697
sg2674
(dp2698
sg2676
I15
sg2677
(dp2699
I10
S'    for i in range(len(db.info[1].texto)):'
p2700
sI11
S'        b=b+1'
p2701
sI12
S"    response.write('El total de b es: ')"
p2702
sI13
S'    response.write(b)'
p2703
sI14
S''
sI15
S'    txt=db.info[11].texto'
p2704
sI16
S'    c=1'
p2705
sI17
S'    for i in range(len(txt)): c=c+1'
p2706
sI18
S"    response.write('el total de c es '+str(c))"
p2707
sI19
S''
ssg2679
S'()'
p2708
sg2681
S'entrada'
p2709
sasS'pyver'
p2710
S'Python 2.5.4: C:\\Users\\Atomico\\web2py\\web2py.exe'
p2711
sS'session'
p2712
g48
(g49
g50
NtRp2713
(dp2714
g53
(dp2715
sg55
(lp2716
g48
(g57
g50
NtRp2717
(dp2718
g53
(dp2719
g61
I5
ssg62
Nsg55
(lp2720
g48
(g64
g50
NtRp2721
(dp2722
g53
(dp2723
sg62
g2717
sg55
(lp2724
g48
(g69
g50
NtRp2725
(dp2726
g53
(dp2727
g73
g74
ssg62
g2721
sg55
(lp2728
S'last_query'
p2729
asbag48
(g69
g50
NtRp2730
(dp2731
g53
(dp2732
g80
g81
ssg62
g2721
sg55
(lp2733
S':'
asbag48
(g69
g50
NtRp2734
(dp2735
g53
(dp2736
sg62
g2721
sg55
(lp2737
g48
(g49
g50
NtRp2738
(dp2739
g53
(dp2740
g61
I5
ssg62
g2734
sg55
(lp2741
S'db.info.id>0'
p2742
asbasbasbasbasbsS'etype'
p2743
S"<type 'exceptions.AttributeError'>"
p2744
sS'date'
p2745
S'Sun Sep 18 10:46:42 2011'
p2746
sS'response'
p2747
g48
(g49
g50
NtRp2748
(dp2749
g53
(dp2750
sg55
(lp2751
g48
(g57
g50
NtRp2752
(dp2753
g53
(dp2754
g61
I5
ssg62
Nsg55
(lp2755
g48
(g64
g50
NtRp2756
(dp2757
g53
(dp2758
sg62
g2752
sg55
(lp2759
g48
(g69
g50
NtRp2760
(dp2761
g53
(dp2762
g73
g74
ssg62
g2756
sg55
(lp2763
g146
asbag48
(g69
g50
NtRp2764
(dp2765
g53
(dp2766
g80
g81
ssg62
g2756
sg55
(lp2767
S':'
asbag48
(g69
g50
NtRp2768
(dp2769
g53
(dp2770
sg62
g2756
sg55
(lp2771
g48
(g49
g50
NtRp2772
(dp2773
g53
(dp2774
g61
I5
ssg62
g2768
sg55
(lp2775
S'<cStringIO.StringO object at 0x076D3DC0>'
p2776
asbasbasbag48
(g64
g50
NtRp2777
(dp2778
g53
(dp2779
sg62
g2752
sg55
(lp2780
g48
(g69
g50
NtRp2781
(dp2782
g53
(dp2783
g73
g74
ssg62
g2777
sg55
(lp2784
g212
asbag48
(g69
g50
NtRp2785
(dp2786
g53
(dp2787
g80
g81
ssg62
g2777
sg55
(lp2788
S':'
asbag48
(g69
g50
NtRp2789
(dp2790
g53
(dp2791
sg62
g2777
sg55
(lp2792
g48
(g49
g50
NtRp2793
(dp2794
g53
(dp2795
g61
I5
ssg62
g2789
sg55
(lp2796
g48
(g57
g50
NtRp2797
(dp2798
g53
(dp2799
g61
I4
ssg62
Nsg55
(lp2800
g48
(g64
g50
NtRp2801
(dp2802
g53
(dp2803
sg62
g2797
sg55
(lp2804
g48
(g69
g50
NtRp2805
(dp2806
g53
(dp2807
g73
g74
ssg62
g2801
sg55
(lp2808
S'session_id_desglosar_emails'
p2809
asbag48
(g69
g50
NtRp2810
(dp2811
g53
(dp2812
g80
g81
ssg62
g2801
sg55
(lp2813
S':'
asbag48
(g69
g50
NtRp2814
(dp2815
g53
(dp2816
sg62
g2801
sg55
(lp2817
g48
(g49
g50
NtRp2818
(dp2819
g53
(dp2820
g61
I4
ssg62
g2814
sg55
(lp2821
g48
(g57
g50
NtRp2822
(dp2823
g53
(dp2824
g61
I3
ssg62
Nsg55
(lp2825
g48
(g64
g50
NtRp2826
(dp2827
g53
(dp2828
sg62
g2822
sg55
(lp2829
g48
(g69
g50
NtRp2830
(dp2831
g53
(dp2832
g73
g74
ssg62
g2826
sg55
(lp2833
g262
asbag48
(g69
g50
NtRp2834
(dp2835
g53
(dp2836
g80
g81
ssg62
g2826
sg55
(lp2837
S':'
asbag48
(g69
g50
NtRp2838
(dp2839
g53
(dp2840
sg62
g2826
sg55
(lp2841
g48
(g49
g50
NtRp2842
(dp2843
g53
(dp2844
g61
I3
ssg62
g2838
sg55
(lp2845
S''
asbasbasbag48
(g64
g50
NtRp2846
(dp2847
g53
(dp2848
sg62
g2822
sg55
(lp2849
g48
(g69
g50
NtRp2850
(dp2851
g53
(dp2852
g73
g74
ssg62
g2846
sg55
(lp2853
g283
asbag48
(g69
g50
NtRp2854
(dp2855
g53
(dp2856
g80
g81
ssg62
g2846
sg55
(lp2857
S':'
asbag48
(g69
g50
NtRp2858
(dp2859
g53
(dp2860
sg62
g2846
sg55
(lp2861
g48
(g49
g50
NtRp2862
(dp2863
g53
(dp2864
g61
I3
ssg62
g2858
sg55
(lp2865
S''
asbasbasbag48
(g64
g50
NtRp2866
(dp2867
g53
(dp2868
sg62
g2822
sg55
(lp2869
g48
(g69
g50
NtRp2870
(dp2871
g53
(dp2872
g73
g74
ssg62
g2866
sg55
(lp2873
g304
asbag48
(g69
g50
NtRp2874
(dp2875
g53
(dp2876
g80
g81
ssg62
g2866
sg55
(lp2877
S':'
asbag48
(g69
g50
NtRp2878
(dp2879
g53
(dp2880
sg62
g2866
sg55
(lp2881
g48
(g49
g50
NtRp2882
(dp2883
g53
(dp2884
g61
I3
ssg62
g2878
sg55
(lp2885
S''
asbasbasbag48
(g64
g50
NtRp2886
(dp2887
g53
(dp2888
sg62
g2822
sg55
(lp2889
g48
(g69
g50
NtRp2890
(dp2891
g53
(dp2892
g73
g74
ssg62
g2886
sg55
(lp2893
g325
asbag48
(g69
g50
NtRp2894
(dp2895
g53
(dp2896
g80
g81
ssg62
g2886
sg55
(lp2897
S':'
asbag48
(g69
g50
NtRp2898
(dp2899
g53
(dp2900
sg62
g2886
sg55
(lp2901
g48
(g49
g50
NtRp2902
(dp2903
g53
(dp2904
g61
I3
ssg62
g2898
sg55
(lp2905
S''
asbasbasbag48
(g64
g50
NtRp2906
(dp2907
g53
(dp2908
sg62
g2822
sg55
(lp2909
g48
(g69
g50
NtRp2910
(dp2911
g53
(dp2912
g73
g74
ssg62
g2906
sg55
(lp2913
g346
asbag48
(g69
g50
NtRp2914
(dp2915
g53
(dp2916
g80
g81
ssg62
g2906
sg55
(lp2917
S':'
asbag48
(g69
g50
NtRp2918
(dp2919
g53
(dp2920
sg62
g2906
sg55
(lp2921
g48
(g49
g50
NtRp2922
(dp2923
g53
(dp2924
g61
I3
ssg62
g2918
sg55
(lp2925
S'/'
asbasbasbag48
(g64
g50
NtRp2926
(dp2927
g53
(dp2928
sg62
g2822
sg55
(lp2929
g48
(g69
g50
NtRp2930
(dp2931
g53
(dp2932
g73
g74
ssg62
g2926
sg55
(lp2933
g367
asbag48
(g69
g50
NtRp2934
(dp2935
g53
(dp2936
g80
g81
ssg62
g2926
sg55
(lp2937
S':'
asbag48
(g69
g50
NtRp2938
(dp2939
g53
(dp2940
sg62
g2926
sg55
(lp2941
g48
(g49
g50
NtRp2942
(dp2943
g53
(dp2944
g61
I3
ssg62
g2938
sg55
(lp2945
S''
asbasbasbag48
(g64
g50
NtRp2946
(dp2947
g53
(dp2948
sg62
g2822
sg55
(lp2949
g48
(g69
g50
NtRp2950
(dp2951
g53
(dp2952
g73
g74
ssg62
g2946
sg55
(lp2953
g388
asbag48
(g69
g50
NtRp2954
(dp2955
g53
(dp2956
g80
g81
ssg62
g2946
sg55
(lp2957
S':'
asbag48
(g69
g50
NtRp2958
(dp2959
g53
(dp2960
sg62
g2946
sg55
(lp2961
g48
(g49
g50
NtRp2962
(dp2963
g53
(dp2964
g61
I3
ssg62
g2958
sg55
(lp2965
S''
asbasbasbasbasbasbasbasbasbasbasbag48
(g64
g50
NtRp2966
(dp2967
g53
(dp2968
sg62
g2752
sg55
(lp2969
g48
(g69
g50
NtRp2970
(dp2971
g53
(dp2972
g73
g74
ssg62
g2966
sg55
(lp2973
S'files'
p2974
asbag48
(g69
g50
NtRp2975
(dp2976
g53
(dp2977
g80
g81
ssg62
g2966
sg55
(lp2978
S':'
asbag48
(g69
g50
NtRp2979
(dp2980
g53
(dp2981
sg62
g2966
sg55
(lp2982
g48
(g49
g50
NtRp2983
(dp2984
g53
(dp2985
g61
I5
ssg62
g2979
sg55
(lp2986
g48
(g57
g50
NtRp2987
(dp2988
g53
(dp2989
g61
I4
ssg62
Nsg55
(lp2990
sbasbasbasbag48
(g64
g50
NtRp2991
(dp2992
g53
(dp2993
sg62
g2752
sg55
(lp2994
g48
(g69
g50
NtRp2995
(dp2996
g53
(dp2997
g73
g74
ssg62
g2991
sg55
(lp2998
S'flash'
p2999
asbag48
(g69
g50
NtRp3000
(dp3001
g53
(dp3002
g80
g81
ssg62
g2991
sg55
(lp3003
S':'
asbag48
(g69
g50
NtRp3004
(dp3005
g53
(dp3006
sg62
g2991
sg55
(lp3007
g48
(g49
g50
NtRp3008
(dp3009
g53
(dp3010
g61
I5
ssg62
g3004
sg55
(lp3011
S''
asbasbasbag48
(g64
g50
NtRp3012
(dp3013
g53
(dp3014
sg62
g2752
sg55
(lp3015
g48
(g69
g50
NtRp3016
(dp3017
g53
(dp3018
g73
g74
ssg62
g3012
sg55
(lp3019
S'generic_patterns'
p3020
asbag48
(g69
g50
NtRp3021
(dp3022
g53
(dp3023
g80
g81
ssg62
g3012
sg55
(lp3024
S':'
asbag48
(g69
g50
NtRp3025
(dp3026
g53
(dp3027
sg62
g3012
sg55
(lp3028
g48
(g49
g50
NtRp3029
(dp3030
g53
(dp3031
g61
I5
ssg62
g3025
sg55
(lp3032
g48
(g57
g50
NtRp3033
(dp3034
g53
(dp3035
g61
I4
ssg62
Nsg55
(lp3036
sbasbasbasbag48
(g64
g50
NtRp3037
(dp3038
g53
(dp3039
sg62
g2752
sg55
(lp3040
g48
(g69
g50
NtRp3041
(dp3042
g53
(dp3043
g73
g74
ssg62
g3037
sg55
(lp3044
S'headers'
p3045
asbag48
(g69
g50
NtRp3046
(dp3047
g53
(dp3048
g80
g81
ssg62
g3037
sg55
(lp3049
S':'
asbag48
(g69
g50
NtRp3050
(dp3051
g53
(dp3052
sg62
g3037
sg55
(lp3053
g48
(g49
g50
NtRp3054
(dp3055
g53
(dp3056
g61
I5
ssg62
g3050
sg55
(lp3057
g48
(g57
g50
NtRp3058
(dp3059
g53
(dp3060
g61
I4
ssg62
Nsg55
(lp3061
g48
(g64
g50
NtRp3062
(dp3063
g53
(dp3064
sg62
g3058
sg55
(lp3065
g48
(g69
g50
NtRp3066
(dp3067
g53
(dp3068
g73
g74
ssg62
g3062
sg55
(lp3069
S'Cache-Control'
p3070
asbag48
(g69
g50
NtRp3071
(dp3072
g53
(dp3073
g80
g81
ssg62
g3062
sg55
(lp3074
S':'
asbag48
(g69
g50
NtRp3075
(dp3076
g53
(dp3077
sg62
g3062
sg55
(lp3078
g48
(g49
g50
NtRp3079
(dp3080
g53
(dp3081
g61
I4
ssg62
g3075
sg55
(lp3082
S'no-store, no-cache, must-revalidate, post-check=0, pre-check=0'
p3083
asbasbasbag48
(g64
g50
NtRp3084
(dp3085
g53
(dp3086
sg62
g3058
sg55
(lp3087
g48
(g69
g50
NtRp3088
(dp3089
g53
(dp3090
g73
g74
ssg62
g3084
sg55
(lp3091
S'Content-Type'
p3092
asbag48
(g69
g50
NtRp3093
(dp3094
g53
(dp3095
g80
g81
ssg62
g3084
sg55
(lp3096
S':'
asbag48
(g69
g50
NtRp3097
(dp3098
g53
(dp3099
sg62
g3084
sg55
(lp3100
g48
(g49
g50
NtRp3101
(dp3102
g53
(dp3103
g61
I4
ssg62
g3097
sg55
(lp3104
S'text/html; charset=utf-8'
p3105
asbasbasbag48
(g64
g50
NtRp3106
(dp3107
g53
(dp3108
sg62
g3058
sg55
(lp3109
g48
(g69
g50
NtRp3110
(dp3111
g53
(dp3112
g73
g74
ssg62
g3106
sg55
(lp3113
S'Expires'
p3114
asbag48
(g69
g50
NtRp3115
(dp3116
g53
(dp3117
g80
g81
ssg62
g3106
sg55
(lp3118
S':'
asbag48
(g69
g50
NtRp3119
(dp3120
g53
(dp3121
sg62
g3106
sg55
(lp3122
g48
(g49
g50
NtRp3123
(dp3124
g53
(dp3125
g61
I4
ssg62
g3119
sg55
(lp3126
S'Sun, 18 Sep 2011 08:46:42 GMT'
p3127
asbasbasbag48
(g64
g50
NtRp3128
(dp3129
g53
(dp3130
sg62
g3058
sg55
(lp3131
g48
(g69
g50
NtRp3132
(dp3133
g53
(dp3134
g73
g74
ssg62
g3128
sg55
(lp3135
S'Pragma'
p3136
asbag48
(g69
g50
NtRp3137
(dp3138
g53
(dp3139
g80
g81
ssg62
g3128
sg55
(lp3140
S':'
asbag48
(g69
g50
NtRp3141
(dp3142
g53
(dp3143
sg62
g3128
sg55
(lp3144
g48
(g49
g50
NtRp3145
(dp3146
g53
(dp3147
g61
I4
ssg62
g3141
sg55
(lp3148
S'no-cache'
p3149
asbasbasbag48
(g64
g50
NtRp3150
(dp3151
g53
(dp3152
sg62
g3058
sg55
(lp3153
g48
(g69
g50
NtRp3154
(dp3155
g53
(dp3156
g73
g74
ssg62
g3150
sg55
(lp3157
S'X-Powered-By'
p3158
asbag48
(g69
g50
NtRp3159
(dp3160
g53
(dp3161
g80
g81
ssg62
g3150
sg55
(lp3162
S':'
asbag48
(g69
g50
NtRp3163
(dp3164
g53
(dp3165
sg62
g3150
sg55
(lp3166
g48
(g49
g50
NtRp3167
(dp3168
g53
(dp3169
g61
I4
ssg62
g3163
sg55
(lp3170
S'web2py'
p3171
asbasbasbasbasbasbasbag48
(g64
g50
NtRp3172
(dp3173
g53
(dp3174
sg62
g2752
sg55
(lp3175
g48
(g69
g50
NtRp3176
(dp3177
g53
(dp3178
g73
g74
ssg62
g3172
sg55
(lp3179
S'menu'
p3180
asbag48
(g69
g50
NtRp3181
(dp3182
g53
(dp3183
g80
g81
ssg62
g3172
sg55
(lp3184
S':'
asbag48
(g69
g50
NtRp3185
(dp3186
g53
(dp3187
sg62
g3172
sg55
(lp3188
g48
(g49
g50
NtRp3189
(dp3190
g53
(dp3191
g61
I5
ssg62
g3185
sg55
(lp3192
g48
(g57
g50
NtRp3193
(dp3194
g53
(dp3195
g61
I4
ssg62
Nsg55
(lp3196
g48
(g64
g50
NtRp3197
(dp3198
g53
(dp3199
sg62
g3193
sg55
(lp3200
g48
(g69
g50
NtRp3201
(dp3202
g53
(dp3203
sg62
g3197
sg55
(lp3204
g48
(g49
g50
NtRp3205
(dp3206
g53
(dp3207
g61
I4
ssg62
g3201
sg55
(lp3208
g48
(g57
g50
NtRp3209
(dp3210
g53
(dp3211
g61
I3
ssg62
Nsg55
(lp3212
g48
(g64
g50
NtRp3213
(dp3214
g53
(dp3215
sg62
g3209
sg55
(lp3216
g48
(g69
g50
NtRp3217
(dp3218
g53
(dp3219
sg62
g3213
sg55
(lp3220
g48
(g49
g50
NtRp3221
(dp3222
g53
(dp3223
g61
I3
ssg62
g3217
sg55
(lp3224
cgluon.languages
lazyT_unpickle
p3225
(S't\x04\x00\x00\x00Home'
tRp3226
asbasbasbag48
(g64
g50
NtRp3227
(dp3228
g53
(dp3229
sg62
g3209
sg55
(lp3230
g48
(g69
g50
NtRp3231
(dp3232
g53
(dp3233
sg62
g3227
sg55
(lp3234
g48
(g49
g50
NtRp3235
(dp3236
g53
(dp3237
g61
I3
ssg62
g3231
sg55
(lp3238
g91
asbasbasbag48
(g64
g50
NtRp3239
(dp3240
g53
(dp3241
sg62
g3209
sg55
(lp3242
g48
(g69
g50
NtRp3243
(dp3244
g53
(dp3245
sg62
g3239
sg55
(lp3246
g48
(g49
g50
NtRp3247
(dp3248
g53
(dp3249
g61
I3
ssg62
g3243
sg55
(lp3250
S'/Desglosar_Emails/default/index'
p3251
asbasbasbag48
(g64
g50
NtRp3252
(dp3253
g53
(dp3254
sg62
g3209
sg55
(lp3255
g48
(g69
g50
NtRp3256
(dp3257
g53
(dp3258
sg62
g3252
sg55
(lp3259
g48
(g49
g50
NtRp3260
(dp3261
g53
(dp3262
g61
I3
ssg62
g3256
sg55
(lp3263
g48
(g57
g50
NtRp3264
(dp3265
g53
(dp3266
g61
I2
ssg62
Nsg55
(lp3267
sbasbasbasbasbasbasbasbag48
(g64
g50
NtRp3268
(dp3269
g53
(dp3270
sg62
g3193
sg55
(lp3271
g48
(g69
g50
NtRp3272
(dp3273
g53
(dp3274
sg62
g3268
sg55
(lp3275
g48
(g49
g50
NtRp3276
(dp3277
g53
(dp3278
g61
I4
ssg62
g3272
sg55
(lp3279
g48
(g57
g50
NtRp3280
(dp3281
g53
(dp3282
g61
I3
ssg62
Nsg55
(lp3283
g48
(g64
g50
NtRp3284
(dp3285
g53
(dp3286
sg62
g3280
sg55
(lp3287
g48
(g69
g50
NtRp3288
(dp3289
g53
(dp3290
sg62
g3284
sg55
(lp3291
g48
(g49
g50
NtRp3292
(dp3293
g53
(dp3294
g61
I3
ssg62
g3288
sg55
(lp3295
g3225
(S's\x08\x00\x00\x00This App'
tRp3296
asbasbasbag48
(g64
g50
NtRp3297
(dp3298
g53
(dp3299
sg62
g3280
sg55
(lp3300
g48
(g69
g50
NtRp3301
(dp3302
g53
(dp3303
sg62
g3297
sg55
(lp3304
g48
(g49
g50
NtRp3305
(dp3306
g53
(dp3307
g61
I3
ssg62
g3301
sg55
(lp3308
g91
asbasbasbag48
(g64
g50
NtRp3309
(dp3310
g53
(dp3311
sg62
g3280
sg55
(lp3312
g48
(g69
g50
NtRp3313
(dp3314
g53
(dp3315
sg62
g3309
sg55
(lp3316
g48
(g49
g50
NtRp3317
(dp3318
g53
(dp3319
g61
I3
ssg62
g3313
sg55
(lp3320
S'/admin/default/design/Desglosar_Emails'
p3321
asbasbasbag48
(g64
g50
NtRp3322
(dp3323
g53
(dp3324
sg62
g3280
sg55
(lp3325
g48
(g69
g50
NtRp3326
(dp3327
g53
(dp3328
sg62
g3322
sg55
(lp3329
g48
(g49
g50
NtRp3330
(dp3331
g53
(dp3332
g61
I3
ssg62
g3326
sg55
(lp3333
g48
(g57
g50
NtRp3334
(dp3335
g53
(dp3336
g61
I2
ssg62
Nsg55
(lp3337
g48
(g64
g50
NtRp3338
(dp3339
g53
(dp3340
sg62
g3334
sg55
(lp3341
g48
(g69
g50
NtRp3342
(dp3343
g53
(dp3344
sg62
g3338
sg55
(lp3345
g48
(g49
g50
NtRp3346
(dp3347
g53
(dp3348
g61
I2
ssg62
g3342
sg55
(lp3349
g48
(g57
g50
NtRp3350
(dp3351
g53
(dp3352
g61
I1
ssg62
Nsg55
(lp3353
g48
(g64
g50
NtRp3354
(dp3355
g53
(dp3356
sg62
g3350
sg55
(lp3357
g48
(g69
g50
NtRp3358
(dp3359
g53
(dp3360
sg62
g3354
sg55
(lp3361
g48
(g49
g50
NtRp3362
(dp3363
g53
(dp3364
g61
I1
ssg62
g3358
sg55
(lp3365
g3225
(S't\x0b\x00\x00\x00Controlador'
tRp3366
asbasbasbag48
(g64
g50
NtRp3367
(dp3368
g53
(dp3369
sg62
g3350
sg55
(lp3370
g48
(g69
g50
NtRp3371
(dp3372
g53
(dp3373
sg62
g3367
sg55
(lp3374
g48
(g49
g50
NtRp3375
(dp3376
g53
(dp3377
g61
I1
ssg62
g3371
sg55
(lp3378
I00
asbasbasbag48
(g64
g50
NtRp3379
(dp3380
g53
(dp3381
sg62
g3350
sg55
(lp3382
g48
(g69
g50
NtRp3383
(dp3384
g53
(dp3385
sg62
g3379
sg55
(lp3386
g48
(g49
g50
NtRp3387
(dp3388
g53
(dp3389
g61
I1
ssg62
g3383
sg55
(lp3390
S'/admin/default/edit/Desglosar_Emails/controllers/default.py'
p3391
asbasbasbasbasbasbasbag48
(g64
g50
NtRp3392
(dp3393
g53
(dp3394
sg62
g3334
sg55
(lp3395
g48
(g69
g50
NtRp3396
(dp3397
g53
(dp3398
sg62
g3392
sg55
(lp3399
g48
(g49
g50
NtRp3400
(dp3401
g53
(dp3402
g61
I2
ssg62
g3396
sg55
(lp3403
g48
(g57
g50
NtRp3404
(dp3405
g53
(dp3406
g61
I1
ssg62
Nsg55
(lp3407
g48
(g64
g50
NtRp3408
(dp3409
g53
(dp3410
sg62
g3404
sg55
(lp3411
g48
(g69
g50
NtRp3412
(dp3413
g53
(dp3414
sg62
g3408
sg55
(lp3415
g48
(g49
g50
NtRp3416
(dp3417
g53
(dp3418
g61
I1
ssg62
g3412
sg55
(lp3419
g3225
(S't\x05\x00\x00\x00Vista'
tRp3420
asbasbasbag48
(g64
g50
NtRp3421
(dp3422
g53
(dp3423
sg62
g3404
sg55
(lp3424
g48
(g69
g50
NtRp3425
(dp3426
g53
(dp3427
sg62
g3421
sg55
(lp3428
g48
(g49
g50
NtRp3429
(dp3430
g53
(dp3431
g61
I1
ssg62
g3425
sg55
(lp3432
I00
asbasbasbag48
(g64
g50
NtRp3433
(dp3434
g53
(dp3435
sg62
g3404
sg55
(lp3436
g48
(g69
g50
NtRp3437
(dp3438
g53
(dp3439
sg62
g3433
sg55
(lp3440
g48
(g49
g50
NtRp3441
(dp3442
g53
(dp3443
g61
I1
ssg62
g3437
sg55
(lp3444
S'/admin/default/edit/Desglosar_Emails/views/default/entrada.html'
p3445
asbasbasbasbasbasbasbag48
(g64
g50
NtRp3446
(dp3447
g53
(dp3448
sg62
g3334
sg55
(lp3449
g48
(g69
g50
NtRp3450
(dp3451
g53
(dp3452
sg62
g3446
sg55
(lp3453
g48
(g49
g50
NtRp3454
(dp3455
g53
(dp3456
g61
I2
ssg62
g3450
sg55
(lp3457
g48
(g57
g50
NtRp3458
(dp3459
g53
(dp3460
g61
I1
ssg62
Nsg55
(lp3461
g48
(g64
g50
NtRp3462
(dp3463
g53
(dp3464
sg62
g3458
sg55
(lp3465
g48
(g69
g50
NtRp3466
(dp3467
g53
(dp3468
sg62
g3462
sg55
(lp3469
g48
(g49
g50
NtRp3470
(dp3471
g53
(dp3472
g61
I1
ssg62
g3466
sg55
(lp3473
g3225
(S's\x12\x00\x00\x00Dise\xc3\xb1o de p\xc3\xa1gina'
tRp3474
asbasbasbag48
(g64
g50
NtRp3475
(dp3476
g53
(dp3477
sg62
g3458
sg55
(lp3478
g48
(g69
g50
NtRp3479
(dp3480
g53
(dp3481
sg62
g3475
sg55
(lp3482
g48
(g49
g50
NtRp3483
(dp3484
g53
(dp3485
g61
I1
ssg62
g3479
sg55
(lp3486
I00
asbasbasbag48
(g64
g50
NtRp3487
(dp3488
g53
(dp3489
sg62
g3458
sg55
(lp3490
g48
(g69
g50
NtRp3491
(dp3492
g53
(dp3493
sg62
g3487
sg55
(lp3494
g48
(g49
g50
NtRp3495
(dp3496
g53
(dp3497
g61
I1
ssg62
g3491
sg55
(lp3498
S'/admin/default/edit/Desglosar_Emails/views/layout.html'
p3499
asbasbasbasbasbasbasbag48
(g64
g50
NtRp3500
(dp3501
g53
(dp3502
sg62
g3334
sg55
(lp3503
g48
(g69
g50
NtRp3504
(dp3505
g53
(dp3506
sg62
g3500
sg55
(lp3507
g48
(g49
g50
NtRp3508
(dp3509
g53
(dp3510
g61
I2
ssg62
g3504
sg55
(lp3511
g48
(g57
g50
NtRp3512
(dp3513
g53
(dp3514
g61
I1
ssg62
Nsg55
(lp3515
g48
(g64
g50
NtRp3516
(dp3517
g53
(dp3518
sg62
g3512
sg55
(lp3519
g48
(g69
g50
NtRp3520
(dp3521
g53
(dp3522
sg62
g3516
sg55
(lp3523
g48
(g49
g50
NtRp3524
(dp3525
g53
(dp3526
g61
I1
ssg62
g3520
sg55
(lp3527
g3225
(S's\x0e\x00\x00\x00Hoja de estilo'
tRp3528
asbasbasbag48
(g64
g50
NtRp3529
(dp3530
g53
(dp3531
sg62
g3512
sg55
(lp3532
g48
(g69
g50
NtRp3533
(dp3534
g53
(dp3535
sg62
g3529
sg55
(lp3536
g48
(g49
g50
NtRp3537
(dp3538
g53
(dp3539
g61
I1
ssg62
g3533
sg55
(lp3540
I00
asbasbasbag48
(g64
g50
NtRp3541
(dp3542
g53
(dp3543
sg62
g3512
sg55
(lp3544
g48
(g69
g50
NtRp3545
(dp3546
g53
(dp3547
sg62
g3541
sg55
(lp3548
g48
(g49
g50
NtRp3549
(dp3550
g53
(dp3551
g61
I1
ssg62
g3545
sg55
(lp3552
S'/admin/default/edit/Desglosar_Emails/static/base.css'
p3553
asbasbasbasbasbasbasbag48
(g64
g50
NtRp3554
(dp3555
g53
(dp3556
sg62
g3334
sg55
(lp3557
g48
(g69
g50
NtRp3558
(dp3559
g53
(dp3560
sg62
g3554
sg55
(lp3561
g48
(g49
g50
NtRp3562
(dp3563
g53
(dp3564
g61
I2
ssg62
g3558
sg55
(lp3565
g48
(g57
g50
NtRp3566
(dp3567
g53
(dp3568
g61
I1
ssg62
Nsg55
(lp3569
g48
(g64
g50
NtRp3570
(dp3571
g53
(dp3572
sg62
g3566
sg55
(lp3573
g48
(g69
g50
NtRp3574
(dp3575
g53
(dp3576
sg62
g3570
sg55
(lp3577
g48
(g49
g50
NtRp3578
(dp3579
g53
(dp3580
g61
I1
ssg62
g3574
sg55
(lp3581
g3225
(S's\x0b\x00\x00\x00Modelo "db"'
tRp3582
asbasbasbag48
(g64
g50
NtRp3583
(dp3584
g53
(dp3585
sg62
g3566
sg55
(lp3586
g48
(g69
g50
NtRp3587
(dp3588
g53
(dp3589
sg62
g3583
sg55
(lp3590
g48
(g49
g50
NtRp3591
(dp3592
g53
(dp3593
g61
I1
ssg62
g3587
sg55
(lp3594
I00
asbasbasbag48
(g64
g50
NtRp3595
(dp3596
g53
(dp3597
sg62
g3566
sg55
(lp3598
g48
(g69
g50
NtRp3599
(dp3600
g53
(dp3601
sg62
g3595
sg55
(lp3602
g48
(g49
g50
NtRp3603
(dp3604
g53
(dp3605
g61
I1
ssg62
g3599
sg55
(lp3606
S'/admin/default/edit/Desglosar_Emails/models/db.py'
p3607
asbasbasbasbasbasbasbag48
(g64
g50
NtRp3608
(dp3609
g53
(dp3610
sg62
g3334
sg55
(lp3611
g48
(g69
g50
NtRp3612
(dp3613
g53
(dp3614
sg62
g3608
sg55
(lp3615
g48
(g49
g50
NtRp3616
(dp3617
g53
(dp3618
g61
I2
ssg62
g3612
sg55
(lp3619
g48
(g57
g50
NtRp3620
(dp3621
g53
(dp3622
g61
I1
ssg62
Nsg55
(lp3623
g48
(g64
g50
NtRp3624
(dp3625
g53
(dp3626
sg62
g3620
sg55
(lp3627
g48
(g69
g50
NtRp3628
(dp3629
g53
(dp3630
sg62
g3624
sg55
(lp3631
g48
(g49
g50
NtRp3632
(dp3633
g53
(dp3634
g61
I1
ssg62
g3628
sg55
(lp3635
g3225
(S's\r\x00\x00\x00Modelo "menu"'
tRp3636
asbasbasbag48
(g64
g50
NtRp3637
(dp3638
g53
(dp3639
sg62
g3620
sg55
(lp3640
g48
(g69
g50
NtRp3641
(dp3642
g53
(dp3643
sg62
g3637
sg55
(lp3644
g48
(g49
g50
NtRp3645
(dp3646
g53
(dp3647
g61
I1
ssg62
g3641
sg55
(lp3648
I00
asbasbasbag48
(g64
g50
NtRp3649
(dp3650
g53
(dp3651
sg62
g3620
sg55
(lp3652
g48
(g69
g50
NtRp3653
(dp3654
g53
(dp3655
sg62
g3649
sg55
(lp3656
g48
(g49
g50
NtRp3657
(dp3658
g53
(dp3659
g61
I1
ssg62
g3653
sg55
(lp3660
S'/admin/default/edit/Desglosar_Emails/models/menu.py'
p3661
asbasbasbasbasbasbasbag48
(g64
g50
NtRp3662
(dp3663
g53
(dp3664
sg62
g3334
sg55
(lp3665
g48
(g69
g50
NtRp3666
(dp3667
g53
(dp3668
sg62
g3662
sg55
(lp3669
g48
(g49
g50
NtRp3670
(dp3671
g53
(dp3672
g61
I2
ssg62
g3666
sg55
(lp3673
g48
(g57
g50
NtRp3674
(dp3675
g53
(dp3676
g61
I1
ssg62
Nsg55
(lp3677
g48
(g64
g50
NtRp3678
(dp3679
g53
(dp3680
sg62
g3674
sg55
(lp3681
g48
(g69
g50
NtRp3682
(dp3683
g53
(dp3684
sg62
g3678
sg55
(lp3685
g48
(g49
g50
NtRp3686
(dp3687
g53
(dp3688
g61
I1
ssg62
g3682
sg55
(lp3689
g3225
(S's\r\x00\x00\x00Base de datos'
tRp3690
asbasbasbag48
(g64
g50
NtRp3691
(dp3692
g53
(dp3693
sg62
g3674
sg55
(lp3694
g48
(g69
g50
NtRp3695
(dp3696
g53
(dp3697
sg62
g3691
sg55
(lp3698
g48
(g49
g50
NtRp3699
(dp3700
g53
(dp3701
g61
I1
ssg62
g3695
sg55
(lp3702
I00
asbasbasbag48
(g64
g50
NtRp3703
(dp3704
g53
(dp3705
sg62
g3674
sg55
(lp3706
g48
(g69
g50
NtRp3707
(dp3708
g53
(dp3709
sg62
g3703
sg55
(lp3710
g48
(g49
g50
NtRp3711
(dp3712
g53
(dp3713
g61
I1
ssg62
g3707
sg55
(lp3714
S'/Desglosar_Emails/appadmin/index'
p3715
asbasbasbasbasbasbasbag48
(g64
g50
NtRp3716
(dp3717
g53
(dp3718
sg62
g3334
sg55
(lp3719
g48
(g69
g50
NtRp3720
(dp3721
g53
(dp3722
sg62
g3716
sg55
(lp3723
g48
(g49
g50
NtRp3724
(dp3725
g53
(dp3726
g61
I2
ssg62
g3720
sg55
(lp3727
g48
(g57
g50
NtRp3728
(dp3729
g53
(dp3730
g61
I1
ssg62
Nsg55
(lp3731
g48
(g64
g50
NtRp3732
(dp3733
g53
(dp3734
sg62
g3728
sg55
(lp3735
g48
(g69
g50
NtRp3736
(dp3737
g53
(dp3738
sg62
g3732
sg55
(lp3739
g48
(g49
g50
NtRp3740
(dp3741
g53
(dp3742
g61
I1
ssg62
g3736
sg55
(lp3743
g3225
(S't\x06\x00\x00\x00Errors'
tRp3744
asbasbasbag48
(g64
g50
NtRp3745
(dp3746
g53
(dp3747
sg62
g3728
sg55
(lp3748
g48
(g69
g50
NtRp3749
(dp3750
g53
(dp3751
sg62
g3745
sg55
(lp3752
g48
(g49
g50
NtRp3753
(dp3754
g53
(dp3755
g61
I1
ssg62
g3749
sg55
(lp3756
I00
asbasbasbag48
(g64
g50
NtRp3757
(dp3758
g53
(dp3759
sg62
g3728
sg55
(lp3760
g48
(g69
g50
NtRp3761
(dp3762
g53
(dp3763
sg62
g3757
sg55
(lp3764
g48
(g49
g50
NtRp3765
(dp3766
g53
(dp3767
g61
I1
ssg62
g3761
sg55
(lp3768
S'/admin/default/errors/Desglosar_Emails'
p3769
asbasbasbasbasbasbasbag48
(g64
g50
NtRp3770
(dp3771
g53
(dp3772
sg62
g3334
sg55
(lp3773
g48
(g69
g50
NtRp3774
(dp3775
g53
(dp3776
sg62
g3770
sg55
(lp3777
g48
(g49
g50
NtRp3778
(dp3779
g53
(dp3780
g61
I2
ssg62
g3774
sg55
(lp3781
g48
(g57
g50
NtRp3782
(dp3783
g53
(dp3784
g61
I1
ssg62
Nsg55
(lp3785
g48
(g64
g50
NtRp3786
(dp3787
g53
(dp3788
sg62
g3782
sg55
(lp3789
g48
(g69
g50
NtRp3790
(dp3791
g53
(dp3792
sg62
g3786
sg55
(lp3793
g48
(g49
g50
NtRp3794
(dp3795
g53
(dp3796
g61
I1
ssg62
g3790
sg55
(lp3797
g3225
(S's\t\x00\x00\x00Acerca de'
tRp3798
asbasbasbag48
(g64
g50
NtRp3799
(dp3800
g53
(dp3801
sg62
g3782
sg55
(lp3802
g48
(g69
g50
NtRp3803
(dp3804
g53
(dp3805
sg62
g3799
sg55
(lp3806
g48
(g49
g50
NtRp3807
(dp3808
g53
(dp3809
g61
I1
ssg62
g3803
sg55
(lp3810
I00
asbasbasbag48
(g64
g50
NtRp3811
(dp3812
g53
(dp3813
sg62
g3782
sg55
(lp3814
g48
(g69
g50
NtRp3815
(dp3816
g53
(dp3817
sg62
g3811
sg55
(lp3818
g48
(g49
g50
NtRp3819
(dp3820
g53
(dp3821
g61
I1
ssg62
g3815
sg55
(lp3822
S'/admin/default/about/Desglosar_Emails'
p3823
asbasbasbasbasbasbasbasbasbasbasbasbasbasbasbag48
(g64
g50
NtRp3824
(dp3825
g53
(dp3826
sg62
g3193
sg55
(lp3827
g48
(g69
g50
NtRp3828
(dp3829
g53
(dp3830
sg62
g3824
sg55
(lp3831
g48
(g49
g50
NtRp3832
(dp3833
g53
(dp3834
g61
I4
ssg62
g3828
sg55
(lp3835
g48
(g57
g50
NtRp3836
(dp3837
g53
(dp3838
g61
I3
ssg62
Nsg55
(lp3839
g48
(g64
g50
NtRp3840
(dp3841
g53
(dp3842
sg62
g3836
sg55
(lp3843
g48
(g69
g50
NtRp3844
(dp3845
g53
(dp3846
sg62
g3840
sg55
(lp3847
g48
(g49
g50
NtRp3848
(dp3849
g53
(dp3850
g61
I3
ssg62
g3844
sg55
(lp3851
g3225
(S't\t\x00\x00\x00Resources'
tRp3852
asbasbasbag48
(g64
g50
NtRp3853
(dp3854
g53
(dp3855
sg62
g3836
sg55
(lp3856
g48
(g69
g50
NtRp3857
(dp3858
g53
(dp3859
sg62
g3853
sg55
(lp3860
g48
(g49
g50
NtRp3861
(dp3862
g53
(dp3863
g61
I3
ssg62
g3857
sg55
(lp3864
g91
asbasbasbag48
(g64
g50
NtRp3865
(dp3866
g53
(dp3867
sg62
g3836
sg55
(lp3868
g48
(g69
g50
NtRp3869
(dp3870
g53
(dp3871
sg62
g3865
sg55
(lp3872
g48
(g49
g50
NtRp3873
(dp3874
g53
(dp3875
g61
I3
ssg62
g3869
sg55
(lp3876
S'None'
p3877
asbasbasbag48
(g64
g50
NtRp3878
(dp3879
g53
(dp3880
sg62
g3836
sg55
(lp3881
g48
(g69
g50
NtRp3882
(dp3883
g53
(dp3884
sg62
g3878
sg55
(lp3885
g48
(g49
g50
NtRp3886
(dp3887
g53
(dp3888
g61
I3
ssg62
g3882
sg55
(lp3889
g48
(g57
g50
NtRp3890
(dp3891
g53
(dp3892
g61
I2
ssg62
Nsg55
(lp3893
g48
(g64
g50
NtRp3894
(dp3895
g53
(dp3896
sg62
g3890
sg55
(lp3897
g48
(g69
g50
NtRp3898
(dp3899
g53
(dp3900
sg62
g3894
sg55
(lp3901
g48
(g49
g50
NtRp3902
(dp3903
g53
(dp3904
g61
I2
ssg62
g3898
sg55
(lp3905
g48
(g57
g50
NtRp3906
(dp3907
g53
(dp3908
g61
I1
ssg62
Nsg55
(lp3909
g48
(g64
g50
NtRp3910
(dp3911
g53
(dp3912
sg62
g3906
sg55
(lp3913
g48
(g69
g50
NtRp3914
(dp3915
g53
(dp3916
sg62
g3910
sg55
(lp3917
g48
(g49
g50
NtRp3918
(dp3919
g53
(dp3920
g61
I1
ssg62
g3914
sg55
(lp3921
g3225
(S's\x0e\x00\x00\x00Documentaci\xc3\xb3n'
tRp3922
asbasbasbag48
(g64
g50
NtRp3923
(dp3924
g53
(dp3925
sg62
g3906
sg55
(lp3926
g48
(g69
g50
NtRp3927
(dp3928
g53
(dp3929
sg62
g3923
sg55
(lp3930
g48
(g49
g50
NtRp3931
(dp3932
g53
(dp3933
g61
I1
ssg62
g3927
sg55
(lp3934
I00
asbasbasbag48
(g64
g50
NtRp3935
(dp3936
g53
(dp3937
sg62
g3906
sg55
(lp3938
g48
(g69
g50
NtRp3939
(dp3940
g53
(dp3941
sg62
g3935
sg55
(lp3942
g48
(g49
g50
NtRp3943
(dp3944
g53
(dp3945
g61
I1
ssg62
g3939
sg55
(lp3946
S'http://www.web2py.com/book'
p3947
asbasbasbag48
(g64
g50
NtRp3948
(dp3949
g53
(dp3950
sg62
g3906
sg55
(lp3951
g48
(g69
g50
NtRp3952
(dp3953
g53
(dp3954
sg62
g3948
sg55
(lp3955
g48
(g49
g50
NtRp3956
(dp3957
g53
(dp3958
g61
I1
ssg62
g3952
sg55
(lp3959
(lp3960
(g3225
(S't\x07\x00\x00\x00Preface'
tRp3961
I00
S'http://www.web2py.com/book/default/chapter/00'
tp3962
a(g3225
(S't\x0c\x00\x00\x00Introduction'
tRp3963
I00
S'http://www.web2py.com/book/default/chapter/01'
tp3964
a(g3225
(S't\x06\x00\x00\x00Python'
tRp3965
I00
S'http://www.web2py.com/book/default/chapter/02'
tp3966
a(g3225
(S't\x08\x00\x00\x00Overview'
tRp3967
I00
S'http://www.web2py.com/book/default/chapter/03'
tp3968
a(g3225
(S's\x08\x00\x00\x00The Core'
tRp3969
I00
S'http://www.web2py.com/book/default/chapter/04'
tp3970
a(g3225
(S's\t\x00\x00\x00The Views'
tRp3971
I00
S'http://www.web2py.com/book/default/chapter/05'
tp3972
a(g3225
(S's\r\x00\x00\x00Base de datos'
tRp3973
I00
S'http://www.web2py.com/book/default/chapter/06'
tp3974
a(g3225
(S's\x14\x00\x00\x00Forms and Validators'
tRp3975
I00
S'http://www.web2py.com/book/default/chapter/07'
tp3976
a(g3225
(S's\x0e\x00\x00\x00Access Control'
tRp3977
I00
S'http://www.web2py.com/book/default/chapter/08'
tp3978
a(g3225
(S't\x08\x00\x00\x00Services'
tRp3979
I00
S'http://www.web2py.com/book/default/chapter/09'
tp3980
a(g3225
(S's\x0c\x00\x00\x00Ajax Recipes'
tRp3981
I00
S'http://www.web2py.com/book/default/chapter/10'
tp3982
a(g3225
(S's\x12\x00\x00\x00Deployment Recipes'
tRp3983
I00
S'http://www.web2py.com/book/default/chapter/11'
tp3984
a(g3225
(S's\r\x00\x00\x00Other Recipes'
tRp3985
I00
S'http://www.web2py.com/book/default/chapter/12'
tp3986
a(g3225
(S's\r\x00\x00\x00Buy this book'
tRp3987
I00
S'http://stores.lulu.com/web2py'
tp3988
aasbasbasbasbasbasbasbag48
(g64
g50
NtRp3989
(dp3990
g53
(dp3991
sg62
g3890
sg55
(lp3992
g48
(g69
g50
NtRp3993
(dp3994
g53
(dp3995
sg62
g3989
sg55
(lp3996
g48
(g49
g50
NtRp3997
(dp3998
g53
(dp3999
g61
I2
ssg62
g3993
sg55
(lp4000
g48
(g57
g50
NtRp4001
(dp4002
g53
(dp4003
g61
I1
ssg62
Nsg55
(lp4004
g48
(g64
g50
NtRp4005
(dp4006
g53
(dp4007
sg62
g4001
sg55
(lp4008
g48
(g69
g50
NtRp4009
(dp4010
g53
(dp4011
sg62
g4005
sg55
(lp4012
g48
(g49
g50
NtRp4013
(dp4014
g53
(dp4015
g61
I1
ssg62
g4009
sg55
(lp4016
g3225
(S't\t\x00\x00\x00Community'
tRp4017
asbasbasbag48
(g64
g50
NtRp4018
(dp4019
g53
(dp4020
sg62
g4001
sg55
(lp4021
g48
(g69
g50
NtRp4022
(dp4023
g53
(dp4024
sg62
g4018
sg55
(lp4025
g48
(g49
g50
NtRp4026
(dp4027
g53
(dp4028
g61
I1
ssg62
g4022
sg55
(lp4029
I00
asbasbasbag48
(g64
g50
NtRp4030
(dp4031
g53
(dp4032
sg62
g4001
sg55
(lp4033
g48
(g69
g50
NtRp4034
(dp4035
g53
(dp4036
sg62
g4030
sg55
(lp4037
g48
(g49
g50
NtRp4038
(dp4039
g53
(dp4040
g61
I1
ssg62
g4034
sg55
(lp4041
Nasbasbasbag48
(g64
g50
NtRp4042
(dp4043
g53
(dp4044
sg62
g4001
sg55
(lp4045
g48
(g69
g50
NtRp4046
(dp4047
g53
(dp4048
sg62
g4042
sg55
(lp4049
g48
(g49
g50
NtRp4050
(dp4051
g53
(dp4052
g61
I1
ssg62
g4046
sg55
(lp4053
(lp4054
(g3225
(S't\x06\x00\x00\x00Groups'
tRp4055
I00
S'http://www.web2py.com/examples/default/usergroups'
tp4056
a(g3225
(S't\x07\x00\x00\x00Twitter'
tRp4057
I00
S'http://twitter.com/web2py'
tp4058
a(g3225
(S's\t\x00\x00\x00Live chat'
tRp4059
I00
S'http://mibbit.com/?channel=%23web2py&server=irc.mibbit.net'
tp4060
a(g3225
(S's\n\x00\x00\x00User Voice'
tRp4061
I00
S'http://web2py.uservoice.com/'
tp4062
aasbasbasbasbasbasbasbag48
(g64
g50
NtRp4063
(dp4064
g53
(dp4065
sg62
g3890
sg55
(lp4066
g48
(g69
g50
NtRp4067
(dp4068
g53
(dp4069
sg62
g4063
sg55
(lp4070
g48
(g49
g50
NtRp4071
(dp4072
g53
(dp4073
g61
I2
ssg62
g4067
sg55
(lp4074
g48
(g57
g50
NtRp4075
(dp4076
g53
(dp4077
g61
I1
ssg62
Nsg55
(lp4078
g48
(g64
g50
NtRp4079
(dp4080
g53
(dp4081
sg62
g4075
sg55
(lp4082
g48
(g69
g50
NtRp4083
(dp4084
g53
(dp4085
sg62
g4079
sg55
(lp4086
g48
(g49
g50
NtRp4087
(dp4088
g53
(dp4089
g61
I1
ssg62
g4083
sg55
(lp4090
g3225
(S't\x06\x00\x00\x00Web2py'
tRp4091
asbasbasbag48
(g64
g50
NtRp4092
(dp4093
g53
(dp4094
sg62
g4075
sg55
(lp4095
g48
(g69
g50
NtRp4096
(dp4097
g53
(dp4098
sg62
g4092
sg55
(lp4099
g48
(g49
g50
NtRp4100
(dp4101
g53
(dp4102
g61
I1
ssg62
g4096
sg55
(lp4103
I00
asbasbasbag48
(g64
g50
NtRp4104
(dp4105
g53
(dp4106
sg62
g4075
sg55
(lp4107
g48
(g69
g50
NtRp4108
(dp4109
g53
(dp4110
sg62
g4104
sg55
(lp4111
g48
(g49
g50
NtRp4112
(dp4113
g53
(dp4114
g61
I1
ssg62
g4108
sg55
(lp4115
S'http://www.web2py.com'
p4116
asbasbasbag48
(g64
g50
NtRp4117
(dp4118
g53
(dp4119
sg62
g4075
sg55
(lp4120
g48
(g69
g50
NtRp4121
(dp4122
g53
(dp4123
sg62
g4117
sg55
(lp4124
g48
(g49
g50
NtRp4125
(dp4126
g53
(dp4127
g61
I1
ssg62
g4121
sg55
(lp4128
(lp4129
(g3225
(S't\x08\x00\x00\x00Download'
tRp4130
I00
S'http://www.web2py.com/examples/default/download'
tp4131
a(g3225
(S't\x07\x00\x00\x00Support'
tRp4132
I00
S'http://www.web2py.com/examples/default/support'
tp4133
a(g3225
(S's\x0e\x00\x00\x00Quick Examples'
tRp4134
I00
S'http://web2py.com/examples/default/examples'
tp4135
a(g3225
(S't\x03\x00\x00\x00FAQ'
tRp4136
I00
S'http://web2py.com/AlterEgo'
tp4137
a(g3225
(S's\x11\x00\x00\x00Free Applications'
tRp4138
I00
S'http://web2py.com/appliances'
tp4139
a(g3225
(S't\x07\x00\x00\x00Plugins'
tRp4140
I00
S'http://web2py.com/plugins'
tp4141
a(g3225
(S't\x07\x00\x00\x00Recipes'
tRp4142
I00
S'http://web2pyslices.com/'
tp4143
a(g3225
(S't\x04\x00\x00\x00Demo'
tRp4144
I00
S'http://web2py.com/demo_admin'
tp4145
a(g3225
(S't\x08\x00\x00\x00Semantic'
tRp4146
I00
S'http://web2py.com/semantic'
tp4147
a(g3225
(S't\x07\x00\x00\x00Layouts'
tRp4148
I00
S'http://web2py.com/layouts'
tp4149
a(g3225
(S't\x06\x00\x00\x00Videos'
tRp4150
I00
S'http://www.web2py.com/examples/default/videos/'
tp4151
aasbasbasbasbasbasbasbasbasbasbasbasbasbasbasbasbasbasbasbag48
(g64
g50
NtRp4152
(dp4153
g53
(dp4154
sg62
g2752
sg55
(lp4155
g48
(g69
g50
NtRp4156
(dp4157
g53
(dp4158
g73
g74
ssg62
g4152
sg55
(lp4159
S'meta'
p4160
asbag48
(g69
g50
NtRp4161
(dp4162
g53
(dp4163
g80
g81
ssg62
g4152
sg55
(lp4164
S':'
asbag48
(g69
g50
NtRp4165
(dp4166
g53
(dp4167
sg62
g4152
sg55
(lp4168
g48
(g49
g50
NtRp4169
(dp4170
g53
(dp4171
g61
I5
ssg62
g4165
sg55
(lp4172
g48
(g57
g50
NtRp4173
(dp4174
g53
(dp4175
g61
I4
ssg62
Nsg55
(lp4176
g48
(g64
g50
NtRp4177
(dp4178
g53
(dp4179
sg62
g4173
sg55
(lp4180
g48
(g69
g50
NtRp4181
(dp4182
g53
(dp4183
g73
g74
ssg62
g4177
sg55
(lp4184
S'author'
p4185
asbag48
(g69
g50
NtRp4186
(dp4187
g53
(dp4188
g80
g81
ssg62
g4177
sg55
(lp4189
S':'
asbag48
(g69
g50
NtRp4190
(dp4191
g53
(dp4192
sg62
g4177
sg55
(lp4193
g48
(g49
g50
NtRp4194
(dp4195
g53
(dp4196
g61
I4
ssg62
g4190
sg55
(lp4197
S'you'
p4198
asbasbasbag48
(g64
g50
NtRp4199
(dp4200
g53
(dp4201
sg62
g4173
sg55
(lp4202
g48
(g69
g50
NtRp4203
(dp4204
g53
(dp4205
g73
g74
ssg62
g4199
sg55
(lp4206
S'copyright'
p4207
asbag48
(g69
g50
NtRp4208
(dp4209
g53
(dp4210
g80
g81
ssg62
g4199
sg55
(lp4211
S':'
asbag48
(g69
g50
NtRp4212
(dp4213
g53
(dp4214
sg62
g4199
sg55
(lp4215
g48
(g49
g50
NtRp4216
(dp4217
g53
(dp4218
g61
I4
ssg62
g4212
sg55
(lp4219
S'Copyright 2007-2010'
p4220
asbasbasbag48
(g64
g50
NtRp4221
(dp4222
g53
(dp4223
sg62
g4173
sg55
(lp4224
g48
(g69
g50
NtRp4225
(dp4226
g53
(dp4227
g73
g74
ssg62
g4221
sg55
(lp4228
S'description'
p4229
asbag48
(g69
g50
NtRp4230
(dp4231
g53
(dp4232
g80
g81
ssg62
g4221
sg55
(lp4233
S':'
asbag48
(g69
g50
NtRp4234
(dp4235
g53
(dp4236
sg62
g4221
sg55
(lp4237
g48
(g49
g50
NtRp4238
(dp4239
g53
(dp4240
g61
I4
ssg62
g4234
sg55
(lp4241
S'Free and open source full-stack enterprise framework for agile development of fast, scalable, secure and portable database-driven web-based applications. Written and programmable in Python'
p4242
asbasbasbag48
(g64
g50
NtRp4243
(dp4244
g53
(dp4245
sg62
g4173
sg55
(lp4246
g48
(g69
g50
NtRp4247
(dp4248
g53
(dp4249
g73
g74
ssg62
g4243
sg55
(lp4250
S'generator'
p4251
asbag48
(g69
g50
NtRp4252
(dp4253
g53
(dp4254
g80
g81
ssg62
g4243
sg55
(lp4255
S':'
asbag48
(g69
g50
NtRp4256
(dp4257
g53
(dp4258
sg62
g4243
sg55
(lp4259
g48
(g49
g50
NtRp4260
(dp4261
g53
(dp4262
g61
I4
ssg62
g4256
sg55
(lp4263
S'Web2py Enterprise Framework'
p4264
asbasbasbag48
(g64
g50
NtRp4265
(dp4266
g53
(dp4267
sg62
g4173
sg55
(lp4268
g48
(g69
g50
NtRp4269
(dp4270
g53
(dp4271
g73
g74
ssg62
g4265
sg55
(lp4272
S'keywords'
p4273
asbag48
(g69
g50
NtRp4274
(dp4275
g53
(dp4276
g80
g81
ssg62
g4265
sg55
(lp4277
S':'
asbag48
(g69
g50
NtRp4278
(dp4279
g53
(dp4280
sg62
g4265
sg55
(lp4281
g48
(g49
g50
NtRp4282
(dp4283
g53
(dp4284
g61
I4
ssg62
g4278
sg55
(lp4285
S'web2py, python, framework'
p4286
asbasbasbasbasbasbasbag48
(g64
g50
NtRp4287
(dp4288
g53
(dp4289
sg62
g2752
sg55
(lp4290
g48
(g69
g50
NtRp4291
(dp4292
g53
(dp4293
g73
g74
ssg62
g4287
sg55
(lp4294
S'postprocessing'
p4295
asbag48
(g69
g50
NtRp4296
(dp4297
g53
(dp4298
g80
g81
ssg62
g4287
sg55
(lp4299
S':'
asbag48
(g69
g50
NtRp4300
(dp4301
g53
(dp4302
sg62
g4287
sg55
(lp4303
g48
(g49
g50
NtRp4304
(dp4305
g53
(dp4306
g61
I5
ssg62
g4300
sg55
(lp4307
g48
(g57
g50
NtRp4308
(dp4309
g53
(dp4310
g61
I4
ssg62
Nsg55
(lp4311
sbasbasbasbag48
(g64
g50
NtRp4312
(dp4313
g53
(dp4314
sg62
g2752
sg55
(lp4315
g48
(g69
g50
NtRp4316
(dp4317
g53
(dp4318
g73
g74
ssg62
g4312
sg55
(lp4319
S'session_file'
p4320
asbag48
(g69
g50
NtRp4321
(dp4322
g53
(dp4323
g80
g81
ssg62
g4312
sg55
(lp4324
S':'
asbag48
(g69
g50
NtRp4325
(dp4326
g53
(dp4327
sg62
g4312
sg55
(lp4328
g48
(g49
g50
NtRp4329
(dp4330
g53
(dp4331
g61
I5
ssg62
g4325
sg55
(lp4332
S"<open file 'C:\\Users\\Atomico\\web2py\\applications\\Desglosar_Emails\\sessions\\127.0.0.1-0a11b3b2-660c-433c-b71f-fc129286f26c', mode 'rb+' at 0x07DF80B0>"
p4333
asbasbasbag48
(g64
g50
NtRp4334
(dp4335
g53
(dp4336
sg62
g2752
sg55
(lp4337
g48
(g69
g50
NtRp4338
(dp4339
g53
(dp4340
g73
g74
ssg62
g4334
sg55
(lp4341
S'session_filename'
p4342
asbag48
(g69
g50
NtRp4343
(dp4344
g53
(dp4345
g80
g81
ssg62
g4334
sg55
(lp4346
S':'
asbag48
(g69
g50
NtRp4347
(dp4348
g53
(dp4349
sg62
g4334
sg55
(lp4350
g48
(g49
g50
NtRp4351
(dp4352
g53
(dp4353
g61
I5
ssg62
g4347
sg55
(lp4354
S'C:\\Users\\Atomico\\web2py\\applications\\Desglosar_Emails\\sessions\\127.0.0.1-0a11b3b2-660c-433c-b71f-fc129286f26c'
p4355
asbasbasbag48
(g64
g50
NtRp4356
(dp4357
g53
(dp4358
sg62
g2752
sg55
(lp4359
g48
(g69
g50
NtRp4360
(dp4361
g53
(dp4362
g73
g74
ssg62
g4356
sg55
(lp4363
S'session_id'
p4364
asbag48
(g69
g50
NtRp4365
(dp4366
g53
(dp4367
g80
g81
ssg62
g4356
sg55
(lp4368
S':'
asbag48
(g69
g50
NtRp4369
(dp4370
g53
(dp4371
sg62
g4356
sg55
(lp4372
g48
(g49
g50
NtRp4373
(dp4374
g53
(dp4375
g61
I5
ssg62
g4369
sg55
(lp4376
S'127.0.0.1-0a11b3b2-660c-433c-b71f-fc129286f26c'
p4377
asbasbasbag48
(g64
g50
NtRp4378
(dp4379
g53
(dp4380
sg62
g2752
sg55
(lp4381
g48
(g69
g50
NtRp4382
(dp4383
g53
(dp4384
g73
g74
ssg62
g4378
sg55
(lp4385
S'session_id_name'
p4386
asbag48
(g69
g50
NtRp4387
(dp4388
g53
(dp4389
g80
g81
ssg62
g4378
sg55
(lp4390
S':'
asbag48
(g69
g50
NtRp4391
(dp4392
g53
(dp4393
sg62
g4378
sg55
(lp4394
g48
(g49
g50
NtRp4395
(dp4396
g53
(dp4397
g61
I5
ssg62
g4391
sg55
(lp4398
g2809
asbasbasbag48
(g64
g50
NtRp4399
(dp4400
g53
(dp4401
sg62
g2752
sg55
(lp4402
g48
(g69
g50
NtRp4403
(dp4404
g53
(dp4405
g73
g74
ssg62
g4399
sg55
(lp4406
S'session_locked'
p4407
asbag48
(g69
g50
NtRp4408
(dp4409
g53
(dp4410
g80
g81
ssg62
g4399
sg55
(lp4411
S':'
asbag48
(g69
g50
NtRp4412
(dp4413
g53
(dp4414
sg62
g4399
sg55
(lp4415
g48
(g49
g50
NtRp4416
(dp4417
g53
(dp4418
g61
I5
ssg62
g4412
sg55
(lp4419
g1686
asbasbasbag48
(g64
g50
NtRp4420
(dp4421
g53
(dp4422
sg62
g2752
sg55
(lp4423
g48
(g69
g50
NtRp4424
(dp4425
g53
(dp4426
g73
g74
ssg62
g4420
sg55
(lp4427
S'session_new'
p4428
asbag48
(g69
g50
NtRp4429
(dp4430
g53
(dp4431
g80
g81
ssg62
g4420
sg55
(lp4432
S':'
asbag48
(g69
g50
NtRp4433
(dp4434
g53
(dp4435
sg62
g4420
sg55
(lp4436
g48
(g49
g50
NtRp4437
(dp4438
g53
(dp4439
g61
I5
ssg62
g4433
sg55
(lp4440
g91
asbasbasbag48
(g64
g50
NtRp4441
(dp4442
g53
(dp4443
sg62
g2752
sg55
(lp4444
g48
(g69
g50
NtRp4445
(dp4446
g53
(dp4447
g73
g74
ssg62
g4441
sg55
(lp4448
S'status'
p4449
asbag48
(g69
g50
NtRp4450
(dp4451
g53
(dp4452
g80
g81
ssg62
g4441
sg55
(lp4453
S':'
asbag48
(g69
g50
NtRp4454
(dp4455
g53
(dp4456
sg62
g4441
sg55
(lp4457
g48
(g49
g50
NtRp4458
(dp4459
g53
(dp4460
g61
I5
ssg62
g4454
sg55
(lp4461
S'200'
p4462
asbasbasbag48
(g64
g50
NtRp4463
(dp4464
g53
(dp4465
sg62
g2752
sg55
(lp4466
g48
(g69
g50
NtRp4467
(dp4468
g53
(dp4469
g73
g74
ssg62
g4463
sg55
(lp4470
S'subtitle'
p4471
asbag48
(g69
g50
NtRp4472
(dp4473
g53
(dp4474
g80
g81
ssg62
g4463
sg55
(lp4475
S':'
asbag48
(g69
g50
NtRp4476
(dp4477
g53
(dp4478
sg62
g4463
sg55
(lp4479
g48
(g49
g50
NtRp4480
(dp4481
g53
(dp4482
g61
I5
ssg62
g4476
sg55
(lp4483
g3225
(S's\t\x00\x00\x00Adaptame!'
tRp4484
asbasbasbag48
(g64
g50
NtRp4485
(dp4486
g53
(dp4487
sg62
g2752
sg55
(lp4488
g48
(g69
g50
NtRp4489
(dp4490
g53
(dp4491
g73
g74
ssg62
g4485
sg55
(lp4492
S'title'
p4493
asbag48
(g69
g50
NtRp4494
(dp4495
g53
(dp4496
g80
g81
ssg62
g4485
sg55
(lp4497
S':'
asbag48
(g69
g50
NtRp4498
(dp4499
g53
(dp4500
sg62
g4485
sg55
(lp4501
g48
(g49
g50
NtRp4502
(dp4503
g53
(dp4504
g61
I5
ssg62
g4498
sg55
(lp4505
g113
asbasbasbag48
(g64
g50
NtRp4506
(dp4507
g53
(dp4508
sg62
g2752
sg55
(lp4509
g48
(g69
g50
NtRp4510
(dp4511
g53
(dp4512
g73
g74
ssg62
g4506
sg55
(lp4513
g2010
asbag48
(g69
g50
NtRp4514
(dp4515
g53
(dp4516
g80
g81
ssg62
g4506
sg55
(lp4517
S':'
asbag48
(g69
g50
NtRp4518
(dp4519
g53
(dp4520
sg62
g4506
sg55
(lp4521
g48
(g49
g50
NtRp4522
(dp4523
g53
(dp4524
g61
I5
ssg62
g4518
sg55
(lp4525
g2023
asbasbasbag48
(g64
g50
NtRp4526
(dp4527
g53
(dp4528
sg62
g2752
sg55
(lp4529
g48
(g69
g50
NtRp4530
(dp4531
g53
(dp4532
g73
g74
ssg62
g4526
sg55
(lp4533
S'view'
p4534
asbag48
(g69
g50
NtRp4535
(dp4536
g53
(dp4537
g80
g81
ssg62
g4526
sg55
(lp4538
S':'
asbag48
(g69
g50
NtRp4539
(dp4540
g53
(dp4541
sg62
g4526
sg55
(lp4542
g48
(g49
g50
NtRp4543
(dp4544
g53
(dp4545
g61
I5
ssg62
g4539
sg55
(lp4546
S'default/entrada.html'
p4547
asbasbasbasbasbsS'locals'
p4548
(dp4549
S'i'
S'1533'
p4550
sS'b'
S'1534'
p4551
sS'longitud'
p4552
S'26'
p4553
sS'form'
p4554
S'<gluon.sqlhtml.SQLFORM object at 0x085A3610>'
p4555
sssS'traceback'
p4556
S'Traceback (most recent call last):\n  File "gluon/restricted.py", line 192, in restricted\n  File "C:\\Users\\Atomico\\web2py\\applications\\Desglosar_Emails\\controllers/default.py", line 42, in <module>\n  File "gluon/globals.py", line 145, in <lambda>\n  File "C:\\Users\\Atomico\\web2py\\applications\\Desglosar_Emails\\controllers/default.py", line 15, in entrada\nAttributeError: \'NoneType\' object has no attribute \'texto\'\n'
p4557
s.