(dp1
S'output'
p2
S''
sS'layer'
p3
S'C:\\Users\\Atomico\\web2py\\applications\\Desglosar_Emails\\views\\default/entrada_mod3.html'
p4
sS'code'
p5
S'response.write(\'<!DOCTYPE html>\\n<html lang="\', escape=False)\nresponse.write(T.accepted_language or \'en\')\nresponse.write(\'" class="no-js"><!-- no-js need it for modernzr -->\\n  <head>\\n    \\n    <meta charset="utf-8" />\\t  \\t\\n    <!-- www.phpied.com/conditional-comments-block-downloads/ -->\\n    <!--[if IE]><![endif]-->    \\n    <!-- Always force latest IE rendering engine \\n\\t (even in intranet) & Chrome Frame \\n\\t Remove this if you use the .htaccess -->\\n    <meta http-equiv="X-UA-Compatible" content="IE=edge,chrome=1">\\n    \\n    <title>\', escape=False)\nresponse.write(response.title or request.application)\nresponse.write(\'</title>\\n    \\n    <!-- http://dev.w3.org/html5/markup/meta.name.html -->\\n    <meta name="application-name" content="\', escape=False)\nresponse.write(request.application)\nresponse.write(\'" />\\t\\n    \\n    <!-- Speaking of Google, don\\\'t forget to set your site up: \\n\\t http://google.com/webmasters -->\\n    <meta name="google-site-verification" content="" />\\n    \\n    <!--  Mobile Viewport Fix\\n\\t  j.mp/mobileviewport & davidbcalhoun.com/2010/viewport-metatag \\n\\t  device-width: Occupy full width of the screen in its current orientation\\n\\t  initial-scale = 1.0 retains dimensions instead of zooming out if page height > device height\\n\\t  maximum-scale = 1.0 retains dimensions instead of zooming in if page width < device width\\n      -->\\n    <meta name="viewport" content="width=device-width, initial-scale=1.0, maximum-scale=1.0">\\n    \\n    <!-- Place favicon.ico and apple-touch-icon.png in the root of your domain and delete these references -->\\n    <link rel="shortcut icon" href="\', escape=False)\nresponse.write(URL(\'static\',\'favicon.ico\'))\nresponse.write(\'" type="image/x-icon">\\n    <link rel="apple-touch-icon" href="\', escape=False)\nresponse.write(URL(\'static\',\'favicon.png\'))\nresponse.write(\'">\\n\\n    <!-- For the less-enabled mobile browsers like Opera Mini -->\\n    <link rel="stylesheet" media="handheld" href="\', escape=False)\nresponse.write(URL(\'static\',\'css/handheld.css\'))\nresponse.write(\'">\\n    \\n    <!-- All JavaScript at the bottom, except for Modernizr which enables HTML5 elements & feature detects -->\\n    <script src="\', escape=False)\nresponse.write(URL(\'static\',\'js/modernizr-1.7.min.js\'))\nresponse.write(\'"></script>\\n    \\n    \', escape=False)\n#------  require CSS and JS files for this page (read info in base.css) ------\nresponse.write(\'\\n    \', escape=False)\nresponse.files.append(URL(\'static\',\'css/base.css\'))\nresponse.write(\'\\n    \', escape=False)\nresponse.files.append(URL(\'static\',\'css/superfish.css\'))\nresponse.write(\'\\n    \', escape=False)\nresponse.files.append(URL(\'static\',\'js/superfish.js\'))\nresponse.write(\'\\n    \', escape=False)\n#------ include web2py specific js code (jquery, calendar, form stuff) ------\nresponse.write(\'\\n    \', escape=False)\nresponse.files.insert(0,URL(\'static\',\'js/jquery.js\'))\nresponse.files.insert(1,URL(\'static\',\'css/calendar.css\'))\nresponse.files.insert(2,URL(\'static\',\'js/calendar.js\'))\nfor _item in response.meta or []:\n    response.write(\'\\n     <meta name="\', escape=False)\n    response.write(_item)\n    response.write(\'" content="\', escape=False)\n    response.write(response.meta[_item])\n    response.write(\'" />\', escape=False)\n    pass\nfor _k,_file in enumerate(response.files or []):\n    if _file in response.files[:_k]:\n        continue\n    _file0=_file.lower().split(\'?\')[0]\n    if _file0.endswith(\'.css\'):\n        response.write(\'\\n     <link href="\', escape=False)\n        response.write(_file)\n        response.write(\'" rel="stylesheet" type="text/css" />\', escape=False)\n    elif _file0.endswith(\'.js\'):\n        response.write(\'\\n     <script src="\', escape=False)\n        response.write(_file)\n        response.write(\'" type="text/javascript"></script>\', escape=False)\n        pass\n    pass\nresponse.write(\'\\n    <script type="text/javascript"><!--\\n    // These variables are used by the web2py_ajax_init function in web2py_ajax.js (which is loaded below).\\n    var w2p_ajax_confirm_message = "\', escape=False)\nresponse.write(T(\'Are you sure you want to delete this object?\'))\nresponse.write(\'";\\n    var w2p_ajax_date_format = "\', escape=False)\nresponse.write(T(\'%Y-%m-%d\'))\nresponse.write(\'";\\n    var w2p_ajax_datetime_format = "\', escape=False)\nresponse.write(T(\'%Y-%m-%d %H:%M:%S\'))\nresponse.write(\'";\\n    //--></script>\\n    <script src="\', escape=False)\nresponse.write(URL(\'static\',\'js/web2py_ajax.js\'))\nresponse.write(\'" type="text/javascript"></script>\\n\', escape=False)\nresponse.write(\'\\n\\n    \', escape=False)\n#using sidebars need to know what sidebar you want to use\n#prior of using it, because of static width size of content, you can use\n#left_sidebar, right_sidebar, both or none (False left and right)\nleft_sidebar_enabled = globals().get(\'left_sidebar_enabled\',False)\nright_sidebar_enabled = globals().get(\'right_sidebar_enabled\',False)\nif left_sidebar_enabled and right_sidebar_enabled: width_content=\'63%\'\nelif left_sidebar_enabled != right_sidebar_enabled: width_content=\'740px\'\nelse: width_content=\'100%\'\nif left_sidebar_enabled: left_sidebar_style = \'style="display: block;"\'\nelse: left_sidebar_style = \'style="display: none;"\'\nif right_sidebar_enabled: right_sidebar_style = \'style="display: block;"\'\nelse: right_sidebar_style = \'style="display: none;"\'\nstyle_content = \'style="width: %s"\' % width_content\nresponse.write(\'\\n  </head>\\n  \\n  <!-- paulirish.com/2008/conditional-stylesheets-vs-css-hacks-answer-neither/ -->\\t\\n  <!--[if lt IE 7 ]> <body class="ie6"> <![endif]-->\\n  <!--[if IE 7 ]>    <body class="ie7"> <![endif]-->\\n  <!--[if IE 8 ]>    <body class="ie8"> <![endif]-->\\n  <!--[if IE 9 ]>    <body class="ie9"> <![endif]-->\\n  <!--[if (gt IE 9)|!(IE)]><!--> <body> <!--<![endif]-->\\n    \\n    <div class="flash">\', escape=False)\nresponse.write(response.flash or \'\')\nresponse.write(\'</div> <!-- notification div -->\\n    \\n    <div id="container">\\t      \\t\\t      \\t\\n      \\n      <div id="wrapper">\\t\\t\\n\\t\\n\\t<div id="header"> <!-- header and login nav -->\\n\\t  \', escape=False)\nresponse.write(\' <!-- this is default header -->\\n\\t  \', escape=False)\ntry:\n    response.write(auth.navbar(action=URL(\'default\',\'user\')))\nexcept:pass\nresponse.write(\'\\t\\t          \\n\\t  <h1><span id="appname">\', escape=False)\nresponse.write(request.application.capitalize())\nresponse.write(\'</span>App</h1>\\n\\t  <div style="clear: both;"></div><!-- Clear the divs -->\\n\\t  \', escape=False)\nresponse.write(\'\\t\\t\\t\\t  \\t\\t\\t\\t\\t  \\n\\t</div><!-- header  -->\\n\\t\\n\\t<div id="statusbar"><!-- statusbar is menu zone -->\\n\\t  \', escape=False)\nresponse.write(\' <!-- this is default statusbar -->\\n\\t  \', escape=False)\n#------ superfish menu ------\nresponse.write(\'\\n\\t  \', escape=False)\nresponse.write(MENU(response.menu,_class=\'sf-menu\'))\nresponse.write(\'\\n\\t  <script type="text/javascript">\\n\\t    jQuery(document).ready(function(){\\n\\t    jQuery(\\\'ul.sf-menu\\\').superfish();});\\n\\t  </script>\\n\\t  <div style="clear: both;"></div><!-- Clear the divs -->\\t\\n\\t  \', escape=False)\nresponse.write(\'\\t\\t\\t\\t\\n\\t</div><!-- statusbar -->\\n\\t\\n\\t<div id="page"> <!-- Here my central body -->\\t  \\n\\n\\t  \', escape=False)\nif left_sidebar_enabled:\n    response.write(\'\\n          <div id="left_sidebar" \', escape=False)\n    response.write(XML(left_sidebar_style))\n    response.write(\' >\\n            <div style="padding: 4px;">\\n\\t      \', escape=False)\n    response.write(\'Content Left Sidebar\', escape=False)\n    response.write(\'\\t\\t  \\n            </div>\\n          </div><!-- left_sidebar -->\\n\\t  \', escape=False)\n    pass\nresponse.write(\'\\n\\n\\t  <!-- content -->\\n\\t  <div id="content" \', escape=False)\nresponse.write(XML(style_content))\nresponse.write(\' >\\n\\t    \', escape=False)\nresponse.write(\'\\r\\n<h1>Esta es la plantilla default/entrada_mod3.html</h1>\\r\\n<h2>Formulario</h2>\\r\\n\', escape=False)\nresponse.write(form)\nresponse.write(\'\\r\\n<br/>\\r\\n<h3>Tratamientos</h3>\\r\\n\', escape=False)\ntextual=db(db.info4.id==1).select()[0]\ntxt=textual.texto\nresponse.write(len(txt))\nresponse.write(\'\\r\\n es la longitud del texto.\\r\\n<br/> Claro: \\r\\n\\r\\n\', escape=False)\nimport re\npattern=re.compile("[\\w|\xc3\xb1|\xc3\x91]+.\\w+.\\w+")\npatternemail=re.compile("@\\w+[.]\\w+")\nclavos=[\'(\',\')\',\',\',\';\',\' \']\nres=pattern.findall(txt)\nresponse.write(len(res))\nfor i in res: response.write(i+\'    \',escape=False)\nres2=patternemail.findall(txt)\nresponse.write(len(res2))\nfor i in res2: response.write(i)\nresponse.write(\'\\r\\n<br/>\\r\\n\', escape=False)\ni=0\nwhile i<len(res):\n    if patternemail.search(res[i])==False:\n        db.contactos.insert(nombre=res[i],email=res[i+1])\n        i=i+2\n    elif patternemail.search(res[i]):\n        db.contactos.insert(email=res[i])\n        i=i+1\n    else: response.write(\'Aqu\xc3\xad hay un problema\')\n    pass\nresponse.write(\'\\r\\n<br/> s\\xc3\\xb3c el peU.\\r\\n\', escape=False)\nresponse.write(\'\\t\\n\\t  </div>\\n\\t  <!-- content -->\\n\\n\\t  \', escape=False)\nif right_sidebar_enabled:\n    response.write(\'\\n          <div id="right_sidebar" \', escape=False)\n    response.write(XML(right_sidebar_style))\n    response.write(\' >\\n            <div style="padding: 4px;">\\n              \', escape=False)\n    response.write(\'Content Right Sidebar\', escape=False)\n    response.write(\'\\n            </div>\\n\\t  </div><!-- right_sidebar -->\\n          \', escape=False)\n    pass\nresponse.write(\'\\n\\n\\n\\t  <div style="clear: both;"></div><!-- Clear the divs -->\\n\\t  \\n\\t</div><!-- page -->\\t\\t\\t\\t\\t\\t\\t\\n\\t\\n\\t<div id="footer">\\n\\t  \', escape=False)\nresponse.write(\' <!-- this is default footer -->\\n\\t  <a href="http://www.web2py.com/" style="float: left; padding-right: 6px;">\\n\\t    <img src="\', escape=False)\nresponse.write(URL(\'static\',\'images/poweredby.png\'))\nresponse.write(\'"/>\\n\\t  </a>\\n\\t  \', escape=False)\nresponse.write(T(\'Copyright\'))\nresponse.write(\' &#169; 2010\\t\\t\\t\\t\\n\\t  <div style="clear: both;"></div><!-- Clear the divs -->\\n\\t  \', escape=False)\nresponse.write(\'\\n\\n\\t</div><!-- footer -->\\t\\t\\t\\n      </div><!-- wrapper -->\\n    </div><!-- container -->\\t\\t\\n    \\n    <!--[if lt IE 7 ]>\\n\\t<script src="\', escape=False)\nresponse.write(URL(\'static\',\'js/dd_belatedpng.js\'))\nresponse.write(\'"></script>\\n\\t<script> DD_belatedPNG.fix(\\\'img, .png_bg\\\'); //fix any <img> or .png_bg background-images </script>\\n\\t<![endif]-->\\n    \\n    <!-- asynchronous google analytics: mathiasbynens.be/notes/async-analytics-snippet \\n\\t change the UA-XXXXX-X to be your site\\\'s ID -->\\n    <!--   \\n\\t   <script>\\n\\t     var _gaq = [[\\\'_setAccount\\\', \\\'UA-XXXXX-X\\\'], [\\\'_trackPageview\\\']];\\n\\t     (function(d, t) {\\n\\t     var g = d.createElement(t),\\n\\t     s = d.getElementsByTagName(t)[0];\\n\\t     g.async = true;\\n\\t     g.src = \\\'//www.google-analytics.com/ga.js\\\';\\n\\t     s.parentNode.insertBefore(g, s);\\n\\t     })(document, \\\'script\\\');\\n\\t   </script>\\n\\t   -->    \\n  </body>\\n</html>\\n\', escape=False)'
p6
sS'snapshot'
p7
(dp8
S'exception'
p9
(dp10
S'__hash__'
p11
S"<method-wrapper '__hash__' of exceptions.MemoryError object at 0x07AE3648>"
p12
sS'__setattr__'
p13
S"<method-wrapper '__setattr__' of exceptions.MemoryError object at 0x07AE3648>"
p14
sS'__reduce_ex__'
p15
S'<built-in method __reduce_ex__ of exceptions.MemoryError object at 0x07AE3648>'
p16
sS'__getslice__'
p17
S"<method-wrapper '__getslice__' of exceptions.MemoryError object at 0x07AE3648>"
p18
sS'__getitem__'
p19
S"<method-wrapper '__getitem__' of exceptions.MemoryError object at 0x07AE3648>"
p20
sS'__setstate__'
p21
S'<built-in method __setstate__ of exceptions.MemoryError object at 0x07AE3648>'
p22
sS'__reduce__'
p23
S'<built-in method __reduce__ of exceptions.MemoryError object at 0x07AE3648>'
p24
sS'__str__'
p25
S"<method-wrapper '__str__' of exceptions.MemoryError object at 0x07AE3648>"
p26
sS'args'
p27
S"('out of memory',)"
p28
sS'__getattribute__'
p29
S"<method-wrapper '__getattribute__' of exceptions.MemoryError object at 0x07AE3648>"
p30
sS'__class__'
p31
S"<type 'exceptions.MemoryError'>"
p32
sS'__delattr__'
p33
S"<method-wrapper '__delattr__' of exceptions.MemoryError object at 0x07AE3648>"
p34
sS'__repr__'
p35
S"<method-wrapper '__repr__' of exceptions.MemoryError object at 0x07AE3648>"
p36
sS'__dict__'
p37
S'{}'
p38
sS'__doc__'
p39
S"'Out of memory.'"
p40
sS'__init__'
p41
S"<method-wrapper '__init__' of exceptions.MemoryError object at 0x07AE3648>"
p42
sS'__new__'
p43
S'<built-in method __new__ of type object at 0x1E1CEA70>'
p44
ssS'evalue'
p45
S'out of memory'
p46
sS'request'
p47
ccopy_reg
_reconstructor
p48
(cgluon.html
BEAUTIFY
p49
c__builtin__
object
p50
NtRp51
(dp52
S'attributes'
p53
(dp54
sS'components'
p55
(lp56
g48
(cgluon.html
TABLE
p57
g50
NtRp58
(dp59
g53
(dp60
S'level'
p61
I5
ssS'parent'
p62
Nsg55
(lp63
g48
(cgluon.html
TR
p64
g50
NtRp65
(dp66
g53
(dp67
sg62
g58
sg55
(lp68
g48
(cgluon.html
TD
p69
g50
NtRp70
(dp71
g53
(dp72
S'_style'
p73
S'font-weight:bold;'
p74
ssg62
g65
sg55
(lp75
S'ajax'
p76
asbag48
(g69
g50
NtRp77
(dp78
g53
(dp79
S'_valign'
p80
S'top'
p81
ssg62
g65
sg55
(lp82
S':'
asbag48
(g69
g50
NtRp83
(dp84
g53
(dp85
sg62
g65
sg55
(lp86
g48
(g49
g50
NtRp87
(dp88
g53
(dp89
g61
I5
ssg62
g83
sg55
(lp90
S'False'
p91
asbasbasbag48
(g64
g50
NtRp92
(dp93
g53
(dp94
sg62
g58
sg55
(lp95
g48
(g69
g50
NtRp96
(dp97
g53
(dp98
g73
g74
ssg62
g92
sg55
(lp99
S'application'
p100
asbag48
(g69
g50
NtRp101
(dp102
g53
(dp103
g80
g81
ssg62
g92
sg55
(lp104
S':'
asbag48
(g69
g50
NtRp105
(dp106
g53
(dp107
sg62
g92
sg55
(lp108
g48
(g49
g50
NtRp109
(dp110
g53
(dp111
g61
I5
ssg62
g105
sg55
(lp112
S'Desglosar_Emails'
p113
asbasbasbag48
(g64
g50
NtRp114
(dp115
g53
(dp116
sg62
g58
sg55
(lp117
g48
(g69
g50
NtRp118
(dp119
g53
(dp120
g73
g74
ssg62
g114
sg55
(lp121
g27
asbag48
(g69
g50
NtRp122
(dp123
g53
(dp124
g80
g81
ssg62
g114
sg55
(lp125
S':'
asbag48
(g69
g50
NtRp126
(dp127
g53
(dp128
sg62
g114
sg55
(lp129
g48
(g49
g50
NtRp130
(dp131
g53
(dp132
g61
I5
ssg62
g126
sg55
(lp133
g48
(g57
g50
NtRp134
(dp135
g53
(dp136
g61
I4
ssg62
Nsg55
(lp137
sbasbasbasbag48
(g64
g50
NtRp138
(dp139
g53
(dp140
sg62
g58
sg55
(lp141
g48
(g69
g50
NtRp142
(dp143
g53
(dp144
g73
g74
ssg62
g138
sg55
(lp145
S'body'
p146
asbag48
(g69
g50
NtRp147
(dp148
g53
(dp149
g80
g81
ssg62
g138
sg55
(lp150
S':'
asbag48
(g69
g50
NtRp151
(dp152
g53
(dp153
sg62
g138
sg55
(lp154
g48
(g49
g50
NtRp155
(dp156
g53
(dp157
g61
I5
ssg62
g151
sg55
(lp158
S'<cStringIO.StringO object at 0x07BA8BC0>'
p159
asbasbasbag48
(g64
g50
NtRp160
(dp161
g53
(dp162
sg62
g58
sg55
(lp163
g48
(g69
g50
NtRp164
(dp165
g53
(dp166
g73
g74
ssg62
g160
sg55
(lp167
S'client'
p168
asbag48
(g69
g50
NtRp169
(dp170
g53
(dp171
g80
g81
ssg62
g160
sg55
(lp172
S':'
asbag48
(g69
g50
NtRp173
(dp174
g53
(dp175
sg62
g160
sg55
(lp176
g48
(g49
g50
NtRp177
(dp178
g53
(dp179
g61
I5
ssg62
g173
sg55
(lp180
S'127.0.0.1'
p181
asbasbasbag48
(g64
g50
NtRp182
(dp183
g53
(dp184
sg62
g58
sg55
(lp185
g48
(g69
g50
NtRp186
(dp187
g53
(dp188
g73
g74
ssg62
g182
sg55
(lp189
S'controller'
p190
asbag48
(g69
g50
NtRp191
(dp192
g53
(dp193
g80
g81
ssg62
g182
sg55
(lp194
S':'
asbag48
(g69
g50
NtRp195
(dp196
g53
(dp197
sg62
g182
sg55
(lp198
g48
(g49
g50
NtRp199
(dp200
g53
(dp201
g61
I5
ssg62
g195
sg55
(lp202
S'default'
p203
asbasbasbag48
(g64
g50
NtRp204
(dp205
g53
(dp206
sg62
g58
sg55
(lp207
g48
(g69
g50
NtRp208
(dp209
g53
(dp210
g73
g74
ssg62
g204
sg55
(lp211
S'cookies'
p212
asbag48
(g69
g50
NtRp213
(dp214
g53
(dp215
g80
g81
ssg62
g204
sg55
(lp216
S':'
asbag48
(g69
g50
NtRp217
(dp218
g53
(dp219
sg62
g204
sg55
(lp220
g48
(g49
g50
NtRp221
(dp222
g53
(dp223
g61
I5
ssg62
g217
sg55
(lp224
g48
(g57
g50
NtRp225
(dp226
g53
(dp227
g61
I4
ssg62
Nsg55
(lp228
g48
(g64
g50
NtRp229
(dp230
g53
(dp231
sg62
g225
sg55
(lp232
g48
(g69
g50
NtRp233
(dp234
g53
(dp235
g73
g74
ssg62
g229
sg55
(lp236
S'session_id_admin'
p237
asbag48
(g69
g50
NtRp238
(dp239
g53
(dp240
g80
g81
ssg62
g229
sg55
(lp241
S':'
asbag48
(g69
g50
NtRp242
(dp243
g53
(dp244
sg62
g229
sg55
(lp245
g48
(g49
g50
NtRp246
(dp247
g53
(dp248
g61
I4
ssg62
g242
sg55
(lp249
g48
(g57
g50
NtRp250
(dp251
g53
(dp252
g61
I3
ssg62
Nsg55
(lp253
g48
(g64
g50
NtRp254
(dp255
g53
(dp256
sg62
g250
sg55
(lp257
g48
(g69
g50
NtRp258
(dp259
g53
(dp260
g73
g74
ssg62
g254
sg55
(lp261
S'comment'
p262
asbag48
(g69
g50
NtRp263
(dp264
g53
(dp265
g80
g81
ssg62
g254
sg55
(lp266
S':'
asbag48
(g69
g50
NtRp267
(dp268
g53
(dp269
sg62
g254
sg55
(lp270
g48
(g49
g50
NtRp271
(dp272
g53
(dp273
g61
I3
ssg62
g267
sg55
(lp274
S''
asbasbasbag48
(g64
g50
NtRp275
(dp276
g53
(dp277
sg62
g250
sg55
(lp278
g48
(g69
g50
NtRp279
(dp280
g53
(dp281
g73
g74
ssg62
g275
sg55
(lp282
S'domain'
p283
asbag48
(g69
g50
NtRp284
(dp285
g53
(dp286
g80
g81
ssg62
g275
sg55
(lp287
S':'
asbag48
(g69
g50
NtRp288
(dp289
g53
(dp290
sg62
g275
sg55
(lp291
g48
(g49
g50
NtRp292
(dp293
g53
(dp294
g61
I3
ssg62
g288
sg55
(lp295
S''
asbasbasbag48
(g64
g50
NtRp296
(dp297
g53
(dp298
sg62
g250
sg55
(lp299
g48
(g69
g50
NtRp300
(dp301
g53
(dp302
g73
g74
ssg62
g296
sg55
(lp303
S'expires'
p304
asbag48
(g69
g50
NtRp305
(dp306
g53
(dp307
g80
g81
ssg62
g296
sg55
(lp308
S':'
asbag48
(g69
g50
NtRp309
(dp310
g53
(dp311
sg62
g296
sg55
(lp312
g48
(g49
g50
NtRp313
(dp314
g53
(dp315
g61
I3
ssg62
g309
sg55
(lp316
S''
asbasbasbag48
(g64
g50
NtRp317
(dp318
g53
(dp319
sg62
g250
sg55
(lp320
g48
(g69
g50
NtRp321
(dp322
g53
(dp323
g73
g74
ssg62
g317
sg55
(lp324
S'max-age'
p325
asbag48
(g69
g50
NtRp326
(dp327
g53
(dp328
g80
g81
ssg62
g317
sg55
(lp329
S':'
asbag48
(g69
g50
NtRp330
(dp331
g53
(dp332
sg62
g317
sg55
(lp333
g48
(g49
g50
NtRp334
(dp335
g53
(dp336
g61
I3
ssg62
g330
sg55
(lp337
S''
asbasbasbag48
(g64
g50
NtRp338
(dp339
g53
(dp340
sg62
g250
sg55
(lp341
g48
(g69
g50
NtRp342
(dp343
g53
(dp344
g73
g74
ssg62
g338
sg55
(lp345
S'path'
p346
asbag48
(g69
g50
NtRp347
(dp348
g53
(dp349
g80
g81
ssg62
g338
sg55
(lp350
S':'
asbag48
(g69
g50
NtRp351
(dp352
g53
(dp353
sg62
g338
sg55
(lp354
g48
(g49
g50
NtRp355
(dp356
g53
(dp357
g61
I3
ssg62
g351
sg55
(lp358
S''
asbasbasbag48
(g64
g50
NtRp359
(dp360
g53
(dp361
sg62
g250
sg55
(lp362
g48
(g69
g50
NtRp363
(dp364
g53
(dp365
g73
g74
ssg62
g359
sg55
(lp366
S'secure'
p367
asbag48
(g69
g50
NtRp368
(dp369
g53
(dp370
g80
g81
ssg62
g359
sg55
(lp371
S':'
asbag48
(g69
g50
NtRp372
(dp373
g53
(dp374
sg62
g359
sg55
(lp375
g48
(g49
g50
NtRp376
(dp377
g53
(dp378
g61
I3
ssg62
g372
sg55
(lp379
S''
asbasbasbag48
(g64
g50
NtRp380
(dp381
g53
(dp382
sg62
g250
sg55
(lp383
g48
(g69
g50
NtRp384
(dp385
g53
(dp386
g73
g74
ssg62
g380
sg55
(lp387
S'version'
p388
asbag48
(g69
g50
NtRp389
(dp390
g53
(dp391
g80
g81
ssg62
g380
sg55
(lp392
S':'
asbag48
(g69
g50
NtRp393
(dp394
g53
(dp395
sg62
g380
sg55
(lp396
g48
(g49
g50
NtRp397
(dp398
g53
(dp399
g61
I3
ssg62
g393
sg55
(lp400
S''
asbasbasbasbasbasbasbag48
(g64
g50
NtRp401
(dp402
g53
(dp403
sg62
g225
sg55
(lp404
g48
(g69
g50
NtRp405
(dp406
g53
(dp407
g73
g74
ssg62
g401
sg55
(lp408
S'session_id_welcome'
p409
asbag48
(g69
g50
NtRp410
(dp411
g53
(dp412
g80
g81
ssg62
g401
sg55
(lp413
S':'
asbag48
(g69
g50
NtRp414
(dp415
g53
(dp416
sg62
g401
sg55
(lp417
g48
(g49
g50
NtRp418
(dp419
g53
(dp420
g61
I4
ssg62
g414
sg55
(lp421
g48
(g57
g50
NtRp422
(dp423
g53
(dp424
g61
I3
ssg62
Nsg55
(lp425
g48
(g64
g50
NtRp426
(dp427
g53
(dp428
sg62
g422
sg55
(lp429
g48
(g69
g50
NtRp430
(dp431
g53
(dp432
g73
g74
ssg62
g426
sg55
(lp433
g262
asbag48
(g69
g50
NtRp434
(dp435
g53
(dp436
g80
g81
ssg62
g426
sg55
(lp437
S':'
asbag48
(g69
g50
NtRp438
(dp439
g53
(dp440
sg62
g426
sg55
(lp441
g48
(g49
g50
NtRp442
(dp443
g53
(dp444
g61
I3
ssg62
g438
sg55
(lp445
S''
asbasbasbag48
(g64
g50
NtRp446
(dp447
g53
(dp448
sg62
g422
sg55
(lp449
g48
(g69
g50
NtRp450
(dp451
g53
(dp452
g73
g74
ssg62
g446
sg55
(lp453
g283
asbag48
(g69
g50
NtRp454
(dp455
g53
(dp456
g80
g81
ssg62
g446
sg55
(lp457
S':'
asbag48
(g69
g50
NtRp458
(dp459
g53
(dp460
sg62
g446
sg55
(lp461
g48
(g49
g50
NtRp462
(dp463
g53
(dp464
g61
I3
ssg62
g458
sg55
(lp465
S''
asbasbasbag48
(g64
g50
NtRp466
(dp467
g53
(dp468
sg62
g422
sg55
(lp469
g48
(g69
g50
NtRp470
(dp471
g53
(dp472
g73
g74
ssg62
g466
sg55
(lp473
g304
asbag48
(g69
g50
NtRp474
(dp475
g53
(dp476
g80
g81
ssg62
g466
sg55
(lp477
S':'
asbag48
(g69
g50
NtRp478
(dp479
g53
(dp480
sg62
g466
sg55
(lp481
g48
(g49
g50
NtRp482
(dp483
g53
(dp484
g61
I3
ssg62
g478
sg55
(lp485
S''
asbasbasbag48
(g64
g50
NtRp486
(dp487
g53
(dp488
sg62
g422
sg55
(lp489
g48
(g69
g50
NtRp490
(dp491
g53
(dp492
g73
g74
ssg62
g486
sg55
(lp493
g325
asbag48
(g69
g50
NtRp494
(dp495
g53
(dp496
g80
g81
ssg62
g486
sg55
(lp497
S':'
asbag48
(g69
g50
NtRp498
(dp499
g53
(dp500
sg62
g486
sg55
(lp501
g48
(g49
g50
NtRp502
(dp503
g53
(dp504
g61
I3
ssg62
g498
sg55
(lp505
S''
asbasbasbag48
(g64
g50
NtRp506
(dp507
g53
(dp508
sg62
g422
sg55
(lp509
g48
(g69
g50
NtRp510
(dp511
g53
(dp512
g73
g74
ssg62
g506
sg55
(lp513
g346
asbag48
(g69
g50
NtRp514
(dp515
g53
(dp516
g80
g81
ssg62
g506
sg55
(lp517
S':'
asbag48
(g69
g50
NtRp518
(dp519
g53
(dp520
sg62
g506
sg55
(lp521
g48
(g49
g50
NtRp522
(dp523
g53
(dp524
g61
I3
ssg62
g518
sg55
(lp525
S''
asbasbasbag48
(g64
g50
NtRp526
(dp527
g53
(dp528
sg62
g422
sg55
(lp529
g48
(g69
g50
NtRp530
(dp531
g53
(dp532
g73
g74
ssg62
g526
sg55
(lp533
g367
asbag48
(g69
g50
NtRp534
(dp535
g53
(dp536
g80
g81
ssg62
g526
sg55
(lp537
S':'
asbag48
(g69
g50
NtRp538
(dp539
g53
(dp540
sg62
g526
sg55
(lp541
g48
(g49
g50
NtRp542
(dp543
g53
(dp544
g61
I3
ssg62
g538
sg55
(lp545
S''
asbasbasbag48
(g64
g50
NtRp546
(dp547
g53
(dp548
sg62
g422
sg55
(lp549
g48
(g69
g50
NtRp550
(dp551
g53
(dp552
g73
g74
ssg62
g546
sg55
(lp553
g388
asbag48
(g69
g50
NtRp554
(dp555
g53
(dp556
g80
g81
ssg62
g546
sg55
(lp557
S':'
asbag48
(g69
g50
NtRp558
(dp559
g53
(dp560
sg62
g546
sg55
(lp561
g48
(g49
g50
NtRp562
(dp563
g53
(dp564
g61
I3
ssg62
g558
sg55
(lp565
S''
asbasbasbasbasbasbasbasbasbasbasbag48
(g64
g50
NtRp566
(dp567
g53
(dp568
sg62
g58
sg55
(lp569
g48
(g69
g50
NtRp570
(dp571
g53
(dp572
g73
g74
ssg62
g566
sg55
(lp573
S'env'
p574
asbag48
(g69
g50
NtRp575
(dp576
g53
(dp577
g80
g81
ssg62
g566
sg55
(lp578
S':'
asbag48
(g69
g50
NtRp579
(dp580
g53
(dp581
sg62
g566
sg55
(lp582
g48
(g49
g50
NtRp583
(dp584
g53
(dp585
g61
I5
ssg62
g579
sg55
(lp586
g48
(g57
g50
NtRp587
(dp588
g53
(dp589
g61
I4
ssg62
Nsg55
(lp590
g48
(g64
g50
NtRp591
(dp592
g53
(dp593
sg62
g587
sg55
(lp594
g48
(g69
g50
NtRp595
(dp596
g53
(dp597
g73
g74
ssg62
g591
sg55
(lp598
S'app_folders'
p599
asbag48
(g69
g50
NtRp600
(dp601
g53
(dp602
g80
g81
ssg62
g591
sg55
(lp603
S':'
asbag48
(g69
g50
NtRp604
(dp605
g53
(dp606
sg62
g591
sg55
(lp607
g48
(g49
g50
NtRp608
(dp609
g53
(dp610
g61
I4
ssg62
g604
sg55
(lp611
S"set(['C:\\\\Users\\\\Atomico\\\\web2py\\\\applications\\\\welcome\\\\', 'C:\\\\Users\\\\Atomico\\\\web2py\\\\applications\\\\Desglosar_Emails\\\\', 'C:\\\\Users\\\\Atomico\\\\web2py\\\\applications\\\\admin\\\\'])"
p612
asbasbasbag48
(g64
g50
NtRp613
(dp614
g53
(dp615
sg62
g587
sg55
(lp616
g48
(g69
g50
NtRp617
(dp618
g53
(dp619
g73
g74
ssg62
g613
sg55
(lp620
S'applications_parent'
p621
asbag48
(g69
g50
NtRp622
(dp623
g53
(dp624
g80
g81
ssg62
g613
sg55
(lp625
S':'
asbag48
(g69
g50
NtRp626
(dp627
g53
(dp628
sg62
g613
sg55
(lp629
g48
(g49
g50
NtRp630
(dp631
g53
(dp632
g61
I4
ssg62
g626
sg55
(lp633
S'C:\\Users\\Atomico\\web2py'
p634
asbasbasbag48
(g64
g50
NtRp635
(dp636
g53
(dp637
sg62
g587
sg55
(lp638
g48
(g69
g50
NtRp639
(dp640
g53
(dp641
g73
g74
ssg62
g635
sg55
(lp642
S'cmd_args'
p643
asbag48
(g69
g50
NtRp644
(dp645
g53
(dp646
g80
g81
ssg62
g635
sg55
(lp647
S':'
asbag48
(g69
g50
NtRp648
(dp649
g53
(dp650
sg62
g635
sg55
(lp651
g48
(g49
g50
NtRp652
(dp653
g53
(dp654
g61
I4
ssg62
g648
sg55
(lp655
g48
(g57
g50
NtRp656
(dp657
g53
(dp658
g61
I3
ssg62
Nsg55
(lp659
sbasbasbasbag48
(g64
g50
NtRp660
(dp661
g53
(dp662
sg62
g587
sg55
(lp663
g48
(g69
g50
NtRp664
(dp665
g53
(dp666
g73
g74
ssg62
g660
sg55
(lp667
S'cmd_options'
p668
asbag48
(g69
g50
NtRp669
(dp670
g53
(dp671
g80
g81
ssg62
g660
sg55
(lp672
S':'
asbag48
(g69
g50
NtRp673
(dp674
g53
(dp675
sg62
g660
sg55
(lp676
g48
(g49
g50
NtRp677
(dp678
g53
(dp679
g61
I4
ssg62
g673
sg55
(lp680
S"<Values at 0x30f55d0: {'verbose': False, 'ip': '127.0.0.1', 'shutdown_timeout': 5, 'taskbar': False, 'port': 8000, 'maxthreads': None, 'softcron': False, 'server_name': 'Swing', 'bpython': False, 'nogui': False, 'nocron': False, 'extcron': False, 'debuglevel': 30, 'test': None, 'folder': 'C:\\\\Users\\\\Atomico\\\\web2py', 'config': '', 'import_models': False, 'winservice': '', 'shell': None, 'run': '', 'log_filename': 'httpserver.log', 'args': [''], 'profiler_filename': None, 'ssl_private_key': '', 'password': '<ask>', 'request_queue_size': 5, 'ssl_certificate': '', 'cronjob': False, 'plain': False, 'quiet': False, 'interfaces': None, 'minthreads': None, 'timeout': 10, 'numthreads': None, 'nobanner': False, 'pid_filename': 'httpserver.pid'}>"
p681
asbasbasbag48
(g64
g50
NtRp682
(dp683
g53
(dp684
sg62
g587
sg55
(lp685
g48
(g69
g50
NtRp686
(dp687
g53
(dp688
g73
g74
ssg62
g682
sg55
(lp689
S'db_sessions'
p690
asbag48
(g69
g50
NtRp691
(dp692
g53
(dp693
g80
g81
ssg62
g682
sg55
(lp694
S':'
asbag48
(g69
g50
NtRp695
(dp696
g53
(dp697
sg62
g682
sg55
(lp698
g48
(g49
g50
NtRp699
(dp700
g53
(dp701
g61
I4
ssg62
g695
sg55
(lp702
S'set([])'
p703
asbasbasbag48
(g64
g50
NtRp704
(dp705
g53
(dp706
sg62
g587
sg55
(lp707
g48
(g69
g50
NtRp708
(dp709
g53
(dp710
g73
g74
ssg62
g704
sg55
(lp711
S'debugging'
p712
asbag48
(g69
g50
NtRp713
(dp714
g53
(dp715
g80
g81
ssg62
g704
sg55
(lp716
S':'
asbag48
(g69
g50
NtRp717
(dp718
g53
(dp719
sg62
g704
sg55
(lp720
g48
(g49
g50
NtRp721
(dp722
g53
(dp723
g61
I4
ssg62
g717
sg55
(lp724
g91
asbasbasbag48
(g64
g50
NtRp725
(dp726
g53
(dp727
sg62
g587
sg55
(lp728
g48
(g69
g50
NtRp729
(dp730
g53
(dp731
g73
g74
ssg62
g725
sg55
(lp732
S'gluon_parent'
p733
asbag48
(g69
g50
NtRp734
(dp735
g53
(dp736
g80
g81
ssg62
g725
sg55
(lp737
S':'
asbag48
(g69
g50
NtRp738
(dp739
g53
(dp740
sg62
g725
sg55
(lp741
g48
(g49
g50
NtRp742
(dp743
g53
(dp744
g61
I4
ssg62
g738
sg55
(lp745
S'C:\\Users\\Atomico\\web2py'
p746
asbasbasbag48
(g64
g50
NtRp747
(dp748
g53
(dp749
sg62
g587
sg55
(lp750
g48
(g69
g50
NtRp751
(dp752
g53
(dp753
g73
g74
ssg62
g747
sg55
(lp754
S'http_accept'
p755
asbag48
(g69
g50
NtRp756
(dp757
g53
(dp758
g80
g81
ssg62
g747
sg55
(lp759
S':'
asbag48
(g69
g50
NtRp760
(dp761
g53
(dp762
sg62
g747
sg55
(lp763
g48
(g49
g50
NtRp764
(dp765
g53
(dp766
g61
I4
ssg62
g760
sg55
(lp767
S'text/html,application/xhtml+xml,application/xml;q=0.9,*/*;q=0.8'
p768
asbasbasbag48
(g64
g50
NtRp769
(dp770
g53
(dp771
sg62
g587
sg55
(lp772
g48
(g69
g50
NtRp773
(dp774
g53
(dp775
g73
g74
ssg62
g769
sg55
(lp776
S'http_accept_charset'
p777
asbag48
(g69
g50
NtRp778
(dp779
g53
(dp780
g80
g81
ssg62
g769
sg55
(lp781
S':'
asbag48
(g69
g50
NtRp782
(dp783
g53
(dp784
sg62
g769
sg55
(lp785
g48
(g49
g50
NtRp786
(dp787
g53
(dp788
g61
I4
ssg62
g782
sg55
(lp789
S'ISO-8859-1,utf-8;q=0.7,*;q=0.7'
p790
asbasbasbag48
(g64
g50
NtRp791
(dp792
g53
(dp793
sg62
g587
sg55
(lp794
g48
(g69
g50
NtRp795
(dp796
g53
(dp797
g73
g74
ssg62
g791
sg55
(lp798
S'http_accept_encoding'
p799
asbag48
(g69
g50
NtRp800
(dp801
g53
(dp802
g80
g81
ssg62
g791
sg55
(lp803
S':'
asbag48
(g69
g50
NtRp804
(dp805
g53
(dp806
sg62
g791
sg55
(lp807
g48
(g49
g50
NtRp808
(dp809
g53
(dp810
g61
I4
ssg62
g804
sg55
(lp811
S'gzip, deflate'
p812
asbasbasbag48
(g64
g50
NtRp813
(dp814
g53
(dp815
sg62
g587
sg55
(lp816
g48
(g69
g50
NtRp817
(dp818
g53
(dp819
g73
g74
ssg62
g813
sg55
(lp820
S'http_accept_language'
p821
asbag48
(g69
g50
NtRp822
(dp823
g53
(dp824
g80
g81
ssg62
g813
sg55
(lp825
S':'
asbag48
(g69
g50
NtRp826
(dp827
g53
(dp828
sg62
g813
sg55
(lp829
g48
(g49
g50
NtRp830
(dp831
g53
(dp832
g61
I4
ssg62
g826
sg55
(lp833
S'es-es,es;q=0.8,en-us;q=0.5,en;q=0.3'
p834
asbasbasbag48
(g64
g50
NtRp835
(dp836
g53
(dp837
sg62
g587
sg55
(lp838
g48
(g69
g50
NtRp839
(dp840
g53
(dp841
g73
g74
ssg62
g835
sg55
(lp842
S'http_connection'
p843
asbag48
(g69
g50
NtRp844
(dp845
g53
(dp846
g80
g81
ssg62
g835
sg55
(lp847
S':'
asbag48
(g69
g50
NtRp848
(dp849
g53
(dp850
sg62
g835
sg55
(lp851
g48
(g49
g50
NtRp852
(dp853
g53
(dp854
g61
I4
ssg62
g848
sg55
(lp855
S'keep-alive'
p856
asbasbasbag48
(g64
g50
NtRp857
(dp858
g53
(dp859
sg62
g587
sg55
(lp860
g48
(g69
g50
NtRp861
(dp862
g53
(dp863
g73
g74
ssg62
g857
sg55
(lp864
S'http_cookie'
p865
asbag48
(g69
g50
NtRp866
(dp867
g53
(dp868
g80
g81
ssg62
g857
sg55
(lp869
S':'
asbag48
(g69
g50
NtRp870
(dp871
g53
(dp872
sg62
g857
sg55
(lp873
g48
(g49
g50
NtRp874
(dp875
g53
(dp876
g61
I4
ssg62
g870
sg55
(lp877
S'session_id_welcome=127.0.0.1-376eb8b3-82de-4ca4-962a-cf914386adb5; session_id_admin=127.0.0.1-ab41072a-78d8-41d9-b0f6-43c9e78f0c91'
p878
asbasbasbag48
(g64
g50
NtRp879
(dp880
g53
(dp881
sg62
g587
sg55
(lp882
g48
(g69
g50
NtRp883
(dp884
g53
(dp885
g73
g74
ssg62
g879
sg55
(lp886
S'http_host'
p887
asbag48
(g69
g50
NtRp888
(dp889
g53
(dp890
g80
g81
ssg62
g879
sg55
(lp891
S':'
asbag48
(g69
g50
NtRp892
(dp893
g53
(dp894
sg62
g879
sg55
(lp895
g48
(g49
g50
NtRp896
(dp897
g53
(dp898
g61
I4
ssg62
g892
sg55
(lp899
S'127.0.0.1:8000'
p900
asbasbasbag48
(g64
g50
NtRp901
(dp902
g53
(dp903
sg62
g587
sg55
(lp904
g48
(g69
g50
NtRp905
(dp906
g53
(dp907
g73
g74
ssg62
g901
sg55
(lp908
S'http_referer'
p909
asbag48
(g69
g50
NtRp910
(dp911
g53
(dp912
g80
g81
ssg62
g901
sg55
(lp913
S':'
asbag48
(g69
g50
NtRp914
(dp915
g53
(dp916
sg62
g901
sg55
(lp917
g48
(g49
g50
NtRp918
(dp919
g53
(dp920
g61
I4
ssg62
g914
sg55
(lp921
S'http://127.0.0.1:8000/admin/default/design/Desglosar_Emails'
p922
asbasbasbag48
(g64
g50
NtRp923
(dp924
g53
(dp925
sg62
g587
sg55
(lp926
g48
(g69
g50
NtRp927
(dp928
g53
(dp929
g73
g74
ssg62
g923
sg55
(lp930
S'http_user_agent'
p931
asbag48
(g69
g50
NtRp932
(dp933
g53
(dp934
g80
g81
ssg62
g923
sg55
(lp935
S':'
asbag48
(g69
g50
NtRp936
(dp937
g53
(dp938
sg62
g923
sg55
(lp939
g48
(g49
g50
NtRp940
(dp941
g53
(dp942
g61
I4
ssg62
g936
sg55
(lp943
S'Mozilla/5.0 (Windows NT 6.1; WOW64; rv:6.0.2) Gecko/20100101 Firefox/6.0.2'
p944
asbasbasbag48
(g64
g50
NtRp945
(dp946
g53
(dp947
sg62
g587
sg55
(lp948
g48
(g69
g50
NtRp949
(dp950
g53
(dp951
g73
g74
ssg62
g945
sg55
(lp952
S'is_jython'
p953
asbag48
(g69
g50
NtRp954
(dp955
g53
(dp956
g80
g81
ssg62
g945
sg55
(lp957
S':'
asbag48
(g69
g50
NtRp958
(dp959
g53
(dp960
sg62
g945
sg55
(lp961
g48
(g49
g50
NtRp962
(dp963
g53
(dp964
g61
I4
ssg62
g958
sg55
(lp965
g91
asbasbasbag48
(g64
g50
NtRp966
(dp967
g53
(dp968
sg62
g587
sg55
(lp969
g48
(g69
g50
NtRp970
(dp971
g53
(dp972
g73
g74
ssg62
g966
sg55
(lp973
S'path_info'
p974
asbag48
(g69
g50
NtRp975
(dp976
g53
(dp977
g80
g81
ssg62
g966
sg55
(lp978
S':'
asbag48
(g69
g50
NtRp979
(dp980
g53
(dp981
sg62
g966
sg55
(lp982
g48
(g49
g50
NtRp983
(dp984
g53
(dp985
g61
I4
ssg62
g979
sg55
(lp986
S'/Desglosar_Emails/default/entrada_mod3'
p987
asbasbasbag48
(g64
g50
NtRp988
(dp989
g53
(dp990
sg62
g587
sg55
(lp991
g48
(g69
g50
NtRp992
(dp993
g53
(dp994
g73
g74
ssg62
g988
sg55
(lp995
S'query_string'
p996
asbag48
(g69
g50
NtRp997
(dp998
g53
(dp999
g80
g81
ssg62
g988
sg55
(lp1000
S':'
asbag48
(g69
g50
NtRp1001
(dp1002
g53
(dp1003
sg62
g988
sg55
(lp1004
g48
(g49
g50
NtRp1005
(dp1006
g53
(dp1007
g61
I4
ssg62
g1001
sg55
(lp1008
S''
asbasbasbag48
(g64
g50
NtRp1009
(dp1010
g53
(dp1011
sg62
g587
sg55
(lp1012
g48
(g69
g50
NtRp1013
(dp1014
g53
(dp1015
g73
g74
ssg62
g1009
sg55
(lp1016
S'remote_addr'
p1017
asbag48
(g69
g50
NtRp1018
(dp1019
g53
(dp1020
g80
g81
ssg62
g1009
sg55
(lp1021
S':'
asbag48
(g69
g50
NtRp1022
(dp1023
g53
(dp1024
sg62
g1009
sg55
(lp1025
g48
(g49
g50
NtRp1026
(dp1027
g53
(dp1028
g61
I4
ssg62
g1022
sg55
(lp1029
g181
asbasbasbag48
(g64
g50
NtRp1030
(dp1031
g53
(dp1032
sg62
g587
sg55
(lp1033
g48
(g69
g50
NtRp1034
(dp1035
g53
(dp1036
g73
g74
ssg62
g1030
sg55
(lp1037
S'remote_port'
p1038
asbag48
(g69
g50
NtRp1039
(dp1040
g53
(dp1041
g80
g81
ssg62
g1030
sg55
(lp1042
S':'
asbag48
(g69
g50
NtRp1043
(dp1044
g53
(dp1045
sg62
g1030
sg55
(lp1046
g48
(g49
g50
NtRp1047
(dp1048
g53
(dp1049
g61
I4
ssg62
g1043
sg55
(lp1050
S'64384'
p1051
asbasbasbag48
(g64
g50
NtRp1052
(dp1053
g53
(dp1054
sg62
g587
sg55
(lp1055
g48
(g69
g50
NtRp1056
(dp1057
g53
(dp1058
g73
g74
ssg62
g1052
sg55
(lp1059
S'request_method'
p1060
asbag48
(g69
g50
NtRp1061
(dp1062
g53
(dp1063
g80
g81
ssg62
g1052
sg55
(lp1064
S':'
asbag48
(g69
g50
NtRp1065
(dp1066
g53
(dp1067
sg62
g1052
sg55
(lp1068
g48
(g49
g50
NtRp1069
(dp1070
g53
(dp1071
g61
I4
ssg62
g1065
sg55
(lp1072
S'GET'
p1073
asbasbasbag48
(g64
g50
NtRp1074
(dp1075
g53
(dp1076
sg62
g587
sg55
(lp1077
g48
(g69
g50
NtRp1078
(dp1079
g53
(dp1080
g73
g74
ssg62
g1074
sg55
(lp1081
S'script_name'
p1082
asbag48
(g69
g50
NtRp1083
(dp1084
g53
(dp1085
g80
g81
ssg62
g1074
sg55
(lp1086
S':'
asbag48
(g69
g50
NtRp1087
(dp1088
g53
(dp1089
sg62
g1074
sg55
(lp1090
g48
(g49
g50
NtRp1091
(dp1092
g53
(dp1093
g61
I4
ssg62
g1087
sg55
(lp1094
S''
asbasbasbag48
(g64
g50
NtRp1095
(dp1096
g53
(dp1097
sg62
g587
sg55
(lp1098
g48
(g69
g50
NtRp1099
(dp1100
g53
(dp1101
g73
g74
ssg62
g1095
sg55
(lp1102
S'server_name'
p1103
asbag48
(g69
g50
NtRp1104
(dp1105
g53
(dp1106
g80
g81
ssg62
g1095
sg55
(lp1107
S':'
asbag48
(g69
g50
NtRp1108
(dp1109
g53
(dp1110
sg62
g1095
sg55
(lp1111
g48
(g49
g50
NtRp1112
(dp1113
g53
(dp1114
g61
I4
ssg62
g1108
sg55
(lp1115
S'Swing'
p1116
asbasbasbag48
(g64
g50
NtRp1117
(dp1118
g53
(dp1119
sg62
g587
sg55
(lp1120
g48
(g69
g50
NtRp1121
(dp1122
g53
(dp1123
g73
g74
ssg62
g1117
sg55
(lp1124
S'server_port'
p1125
asbag48
(g69
g50
NtRp1126
(dp1127
g53
(dp1128
g80
g81
ssg62
g1117
sg55
(lp1129
S':'
asbag48
(g69
g50
NtRp1130
(dp1131
g53
(dp1132
sg62
g1117
sg55
(lp1133
g48
(g49
g50
NtRp1134
(dp1135
g53
(dp1136
g61
I4
ssg62
g1130
sg55
(lp1137
S'8000'
p1138
asbasbasbag48
(g64
g50
NtRp1139
(dp1140
g53
(dp1141
sg62
g587
sg55
(lp1142
g48
(g69
g50
NtRp1143
(dp1144
g53
(dp1145
g73
g74
ssg62
g1139
sg55
(lp1146
S'server_protocol'
p1147
asbag48
(g69
g50
NtRp1148
(dp1149
g53
(dp1150
g80
g81
ssg62
g1139
sg55
(lp1151
S':'
asbag48
(g69
g50
NtRp1152
(dp1153
g53
(dp1154
sg62
g1139
sg55
(lp1155
g48
(g49
g50
NtRp1156
(dp1157
g53
(dp1158
g61
I4
ssg62
g1152
sg55
(lp1159
S'HTTP/1.1'
p1160
asbasbasbag48
(g64
g50
NtRp1161
(dp1162
g53
(dp1163
sg62
g587
sg55
(lp1164
g48
(g69
g50
NtRp1165
(dp1166
g53
(dp1167
g73
g74
ssg62
g1161
sg55
(lp1168
S'server_software'
p1169
asbag48
(g69
g50
NtRp1170
(dp1171
g53
(dp1172
g80
g81
ssg62
g1161
sg55
(lp1173
S':'
asbag48
(g69
g50
NtRp1174
(dp1175
g53
(dp1176
sg62
g1161
sg55
(lp1177
g48
(g49
g50
NtRp1178
(dp1179
g53
(dp1180
g61
I4
ssg62
g1174
sg55
(lp1181
S'Rocket 1.2.2'
p1182
asbasbasbag48
(g64
g50
NtRp1183
(dp1184
g53
(dp1185
sg62
g587
sg55
(lp1186
g48
(g69
g50
NtRp1187
(dp1188
g53
(dp1189
g73
g74
ssg62
g1183
sg55
(lp1190
S'web2py_crontype'
p1191
asbag48
(g69
g50
NtRp1192
(dp1193
g53
(dp1194
g80
g81
ssg62
g1183
sg55
(lp1195
S':'
asbag48
(g69
g50
NtRp1196
(dp1197
g53
(dp1198
sg62
g1183
sg55
(lp1199
g48
(g49
g50
NtRp1200
(dp1201
g53
(dp1202
g61
I4
ssg62
g1196
sg55
(lp1203
S'hard'
p1204
asbasbasbag48
(g64
g50
NtRp1205
(dp1206
g53
(dp1207
sg62
g587
sg55
(lp1208
g48
(g69
g50
NtRp1209
(dp1210
g53
(dp1211
g73
g74
ssg62
g1205
sg55
(lp1212
S'web2py_path'
p1213
asbag48
(g69
g50
NtRp1214
(dp1215
g53
(dp1216
g80
g81
ssg62
g1205
sg55
(lp1217
S':'
asbag48
(g69
g50
NtRp1218
(dp1219
g53
(dp1220
sg62
g1205
sg55
(lp1221
g48
(g49
g50
NtRp1222
(dp1223
g53
(dp1224
g61
I4
ssg62
g1218
sg55
(lp1225
g634
asbasbasbag48
(g64
g50
NtRp1226
(dp1227
g53
(dp1228
sg62
g587
sg55
(lp1229
g48
(g69
g50
NtRp1230
(dp1231
g53
(dp1232
g73
g74
ssg62
g1226
sg55
(lp1233
S'web2py_version'
p1234
asbag48
(g69
g50
NtRp1235
(dp1236
g53
(dp1237
g80
g81
ssg62
g1226
sg55
(lp1238
S':'
asbag48
(g69
g50
NtRp1239
(dp1240
g53
(dp1241
sg62
g1226
sg55
(lp1242
g48
(g49
g50
NtRp1243
(dp1244
g53
(dp1245
g61
I4
ssg62
g1239
sg55
(lp1246
S'Version 1.98.2 (2011-08-04 00:47:09)\n'
p1247
asbasbasbag48
(g64
g50
NtRp1248
(dp1249
g53
(dp1250
sg62
g587
sg55
(lp1251
g48
(g69
g50
NtRp1252
(dp1253
g53
(dp1254
g73
g74
ssg62
g1248
sg55
(lp1255
S'wsgi_errors'
p1256
asbag48
(g69
g50
NtRp1257
(dp1258
g53
(dp1259
g80
g81
ssg62
g1248
sg55
(lp1260
S':'
asbag48
(g69
g50
NtRp1261
(dp1262
g53
(dp1263
sg62
g1248
sg55
(lp1264
g48
(g49
g50
NtRp1265
(dp1266
g53
(dp1267
g61
I4
ssg62
g1261
sg55
(lp1268
S"<open file '<stderr>', mode 'w' at 0x01F200B0>"
p1269
asbasbasbag48
(g64
g50
NtRp1270
(dp1271
g53
(dp1272
sg62
g587
sg55
(lp1273
g48
(g69
g50
NtRp1274
(dp1275
g53
(dp1276
g73
g74
ssg62
g1270
sg55
(lp1277
S'wsgi_file_wrapper'
p1278
asbag48
(g69
g50
NtRp1279
(dp1280
g53
(dp1281
g80
g81
ssg62
g1270
sg55
(lp1282
S':'
asbag48
(g69
g50
NtRp1283
(dp1284
g53
(dp1285
sg62
g1270
sg55
(lp1286
g48
(g49
g50
NtRp1287
(dp1288
g53
(dp1289
g61
I4
ssg62
g1283
sg55
(lp1290
S'<class gluon.rocket.FileWrapper at 0x0307F1B0>'
p1291
asbasbasbag48
(g64
g50
NtRp1292
(dp1293
g53
(dp1294
sg62
g587
sg55
(lp1295
g48
(g69
g50
NtRp1296
(dp1297
g53
(dp1298
g73
g74
ssg62
g1292
sg55
(lp1299
S'wsgi_input'
p1300
asbag48
(g69
g50
NtRp1301
(dp1302
g53
(dp1303
g80
g81
ssg62
g1292
sg55
(lp1304
S':'
asbag48
(g69
g50
NtRp1305
(dp1306
g53
(dp1307
sg62
g1292
sg55
(lp1308
g48
(g49
g50
NtRp1309
(dp1310
g53
(dp1311
g61
I4
ssg62
g1305
sg55
(lp1312
S'<socket._fileobject object at 0x03308430>'
p1313
asbasbasbag48
(g64
g50
NtRp1314
(dp1315
g53
(dp1316
sg62
g587
sg55
(lp1317
g48
(g69
g50
NtRp1318
(dp1319
g53
(dp1320
g73
g74
ssg62
g1314
sg55
(lp1321
S'wsgi_multiprocess'
p1322
asbag48
(g69
g50
NtRp1323
(dp1324
g53
(dp1325
g80
g81
ssg62
g1314
sg55
(lp1326
S':'
asbag48
(g69
g50
NtRp1327
(dp1328
g53
(dp1329
sg62
g1314
sg55
(lp1330
g48
(g49
g50
NtRp1331
(dp1332
g53
(dp1333
g61
I4
ssg62
g1327
sg55
(lp1334
g91
asbasbasbag48
(g64
g50
NtRp1335
(dp1336
g53
(dp1337
sg62
g587
sg55
(lp1338
g48
(g69
g50
NtRp1339
(dp1340
g53
(dp1341
g73
g74
ssg62
g1335
sg55
(lp1342
S'wsgi_multithread'
p1343
asbag48
(g69
g50
NtRp1344
(dp1345
g53
(dp1346
g80
g81
ssg62
g1335
sg55
(lp1347
S':'
asbag48
(g69
g50
NtRp1348
(dp1349
g53
(dp1350
sg62
g1335
sg55
(lp1351
g48
(g49
g50
NtRp1352
(dp1353
g53
(dp1354
g61
I4
ssg62
g1348
sg55
(lp1355
S'True'
p1356
asbasbasbag48
(g64
g50
NtRp1357
(dp1358
g53
(dp1359
sg62
g587
sg55
(lp1360
g48
(g69
g50
NtRp1361
(dp1362
g53
(dp1363
g73
g74
ssg62
g1357
sg55
(lp1364
S'wsgi_run_once'
p1365
asbag48
(g69
g50
NtRp1366
(dp1367
g53
(dp1368
g80
g81
ssg62
g1357
sg55
(lp1369
S':'
asbag48
(g69
g50
NtRp1370
(dp1371
g53
(dp1372
sg62
g1357
sg55
(lp1373
g48
(g49
g50
NtRp1374
(dp1375
g53
(dp1376
g61
I4
ssg62
g1370
sg55
(lp1377
g91
asbasbasbag48
(g64
g50
NtRp1378
(dp1379
g53
(dp1380
sg62
g587
sg55
(lp1381
g48
(g69
g50
NtRp1382
(dp1383
g53
(dp1384
g73
g74
ssg62
g1378
sg55
(lp1385
S'wsgi_url_scheme'
p1386
asbag48
(g69
g50
NtRp1387
(dp1388
g53
(dp1389
g80
g81
ssg62
g1378
sg55
(lp1390
S':'
asbag48
(g69
g50
NtRp1391
(dp1392
g53
(dp1393
sg62
g1378
sg55
(lp1394
g48
(g49
g50
NtRp1395
(dp1396
g53
(dp1397
g61
I4
ssg62
g1391
sg55
(lp1398
S'http'
p1399
asbasbasbag48
(g64
g50
NtRp1400
(dp1401
g53
(dp1402
sg62
g587
sg55
(lp1403
g48
(g69
g50
NtRp1404
(dp1405
g53
(dp1406
g73
g74
ssg62
g1400
sg55
(lp1407
S'wsgi_version'
p1408
asbag48
(g69
g50
NtRp1409
(dp1410
g53
(dp1411
g80
g81
ssg62
g1400
sg55
(lp1412
S':'
asbag48
(g69
g50
NtRp1413
(dp1414
g53
(dp1415
sg62
g1400
sg55
(lp1416
g48
(g49
g50
NtRp1417
(dp1418
g53
(dp1419
g61
I4
ssg62
g1413
sg55
(lp1420
g48
(g57
g50
NtRp1421
(dp1422
g53
(dp1423
g61
I3
ssg62
Nsg55
(lp1424
g48
(g64
g50
NtRp1425
(dp1426
g53
(dp1427
sg62
g1421
sg55
(lp1428
g48
(g69
g50
NtRp1429
(dp1430
g53
(dp1431
sg62
g1425
sg55
(lp1432
g48
(g49
g50
NtRp1433
(dp1434
g53
(dp1435
g61
I3
ssg62
g1429
sg55
(lp1436
S'1'
asbasbasbag48
(g64
g50
NtRp1437
(dp1438
g53
(dp1439
sg62
g1421
sg55
(lp1440
g48
(g69
g50
NtRp1441
(dp1442
g53
(dp1443
sg62
g1437
sg55
(lp1444
g48
(g49
g50
NtRp1445
(dp1446
g53
(dp1447
g61
I3
ssg62
g1441
sg55
(lp1448
S'0'
asbasbasbasbasbasbasbasbasbasbasbag48
(g64
g50
NtRp1449
(dp1450
g53
(dp1451
sg62
g58
sg55
(lp1452
g48
(g69
g50
NtRp1453
(dp1454
g53
(dp1455
g73
g74
ssg62
g1449
sg55
(lp1456
S'extension'
p1457
asbag48
(g69
g50
NtRp1458
(dp1459
g53
(dp1460
g80
g81
ssg62
g1449
sg55
(lp1461
S':'
asbag48
(g69
g50
NtRp1462
(dp1463
g53
(dp1464
sg62
g1449
sg55
(lp1465
g48
(g49
g50
NtRp1466
(dp1467
g53
(dp1468
g61
I5
ssg62
g1462
sg55
(lp1469
S'html'
p1470
asbasbasbag48
(g64
g50
NtRp1471
(dp1472
g53
(dp1473
sg62
g58
sg55
(lp1474
g48
(g69
g50
NtRp1475
(dp1476
g53
(dp1477
g73
g74
ssg62
g1471
sg55
(lp1478
S'folder'
p1479
asbag48
(g69
g50
NtRp1480
(dp1481
g53
(dp1482
g80
g81
ssg62
g1471
sg55
(lp1483
S':'
asbag48
(g69
g50
NtRp1484
(dp1485
g53
(dp1486
sg62
g1471
sg55
(lp1487
g48
(g49
g50
NtRp1488
(dp1489
g53
(dp1490
g61
I5
ssg62
g1484
sg55
(lp1491
S'C:\\Users\\Atomico\\web2py\\applications\\Desglosar_Emails\\'
p1492
asbasbasbag48
(g64
g50
NtRp1493
(dp1494
g53
(dp1495
sg62
g58
sg55
(lp1496
g48
(g69
g50
NtRp1497
(dp1498
g53
(dp1499
g73
g74
ssg62
g1493
sg55
(lp1500
S'function'
p1501
asbag48
(g69
g50
NtRp1502
(dp1503
g53
(dp1504
g80
g81
ssg62
g1493
sg55
(lp1505
S':'
asbag48
(g69
g50
NtRp1506
(dp1507
g53
(dp1508
sg62
g1493
sg55
(lp1509
g48
(g49
g50
NtRp1510
(dp1511
g53
(dp1512
g61
I5
ssg62
g1506
sg55
(lp1513
S'entrada_mod3'
p1514
asbasbasbag48
(g64
g50
NtRp1515
(dp1516
g53
(dp1517
sg62
g58
sg55
(lp1518
g48
(g69
g50
NtRp1519
(dp1520
g53
(dp1521
g73
g74
ssg62
g1515
sg55
(lp1522
S'get_vars'
p1523
asbag48
(g69
g50
NtRp1524
(dp1525
g53
(dp1526
g80
g81
ssg62
g1515
sg55
(lp1527
S':'
asbag48
(g69
g50
NtRp1528
(dp1529
g53
(dp1530
sg62
g1515
sg55
(lp1531
g48
(g49
g50
NtRp1532
(dp1533
g53
(dp1534
g61
I5
ssg62
g1528
sg55
(lp1535
g48
(g57
g50
NtRp1536
(dp1537
g53
(dp1538
g61
I4
ssg62
Nsg55
(lp1539
sbasbasbasbag48
(g64
g50
NtRp1540
(dp1541
g53
(dp1542
sg62
g58
sg55
(lp1543
g48
(g69
g50
NtRp1544
(dp1545
g53
(dp1546
g73
g74
ssg62
g1540
sg55
(lp1547
S'is_https'
p1548
asbag48
(g69
g50
NtRp1549
(dp1550
g53
(dp1551
g80
g81
ssg62
g1540
sg55
(lp1552
S':'
asbag48
(g69
g50
NtRp1553
(dp1554
g53
(dp1555
sg62
g1540
sg55
(lp1556
g48
(g49
g50
NtRp1557
(dp1558
g53
(dp1559
g61
I5
ssg62
g1553
sg55
(lp1560
g91
asbasbasbag48
(g64
g50
NtRp1561
(dp1562
g53
(dp1563
sg62
g58
sg55
(lp1564
g48
(g69
g50
NtRp1565
(dp1566
g53
(dp1567
g73
g74
ssg62
g1561
sg55
(lp1568
S'is_local'
p1569
asbag48
(g69
g50
NtRp1570
(dp1571
g53
(dp1572
g80
g81
ssg62
g1561
sg55
(lp1573
S':'
asbag48
(g69
g50
NtRp1574
(dp1575
g53
(dp1576
sg62
g1561
sg55
(lp1577
g48
(g49
g50
NtRp1578
(dp1579
g53
(dp1580
g61
I5
ssg62
g1574
sg55
(lp1581
g1356
asbasbasbag48
(g64
g50
NtRp1582
(dp1583
g53
(dp1584
sg62
g58
sg55
(lp1585
g48
(g69
g50
NtRp1586
(dp1587
g53
(dp1588
g73
g74
ssg62
g1582
sg55
(lp1589
S'is_restful'
p1590
asbag48
(g69
g50
NtRp1591
(dp1592
g53
(dp1593
g80
g81
ssg62
g1582
sg55
(lp1594
S':'
asbag48
(g69
g50
NtRp1595
(dp1596
g53
(dp1597
sg62
g1582
sg55
(lp1598
g48
(g49
g50
NtRp1599
(dp1600
g53
(dp1601
g61
I5
ssg62
g1595
sg55
(lp1602
g91
asbasbasbag48
(g64
g50
NtRp1603
(dp1604
g53
(dp1605
sg62
g58
sg55
(lp1606
g48
(g69
g50
NtRp1607
(dp1608
g53
(dp1609
g73
g74
ssg62
g1603
sg55
(lp1610
S'now'
p1611
asbag48
(g69
g50
NtRp1612
(dp1613
g53
(dp1614
g80
g81
ssg62
g1603
sg55
(lp1615
S':'
asbag48
(g69
g50
NtRp1616
(dp1617
g53
(dp1618
sg62
g1603
sg55
(lp1619
g48
(g49
g50
NtRp1620
(dp1621
g53
(dp1622
g61
I5
ssg62
g1616
sg55
(lp1623
S'datetime.datetime(2011, 9, 20, 9, 3, 24, 761000)'
p1624
asbasbasbag48
(g64
g50
NtRp1625
(dp1626
g53
(dp1627
sg62
g58
sg55
(lp1628
g48
(g69
g50
NtRp1629
(dp1630
g53
(dp1631
g73
g74
ssg62
g1625
sg55
(lp1632
S'post_vars'
p1633
asbag48
(g69
g50
NtRp1634
(dp1635
g53
(dp1636
g80
g81
ssg62
g1625
sg55
(lp1637
S':'
asbag48
(g69
g50
NtRp1638
(dp1639
g53
(dp1640
sg62
g1625
sg55
(lp1641
g48
(g49
g50
NtRp1642
(dp1643
g53
(dp1644
g61
I5
ssg62
g1638
sg55
(lp1645
g48
(g57
g50
NtRp1646
(dp1647
g53
(dp1648
g61
I4
ssg62
Nsg55
(lp1649
sbasbasbasbag48
(g64
g50
NtRp1650
(dp1651
g53
(dp1652
sg62
g58
sg55
(lp1653
g48
(g69
g50
NtRp1654
(dp1655
g53
(dp1656
g73
g74
ssg62
g1650
sg55
(lp1657
S'url'
p1658
asbag48
(g69
g50
NtRp1659
(dp1660
g53
(dp1661
g80
g81
ssg62
g1650
sg55
(lp1662
S':'
asbag48
(g69
g50
NtRp1663
(dp1664
g53
(dp1665
sg62
g1650
sg55
(lp1666
g48
(g49
g50
NtRp1667
(dp1668
g53
(dp1669
g61
I5
ssg62
g1663
sg55
(lp1670
S'/Desglosar_Emails/default/entrada_mod3'
p1671
asbasbasbag48
(g64
g50
NtRp1672
(dp1673
g53
(dp1674
sg62
g58
sg55
(lp1675
g48
(g69
g50
NtRp1676
(dp1677
g53
(dp1678
g73
g74
ssg62
g1672
sg55
(lp1679
S'uuid'
p1680
asbag48
(g69
g50
NtRp1681
(dp1682
g53
(dp1683
g80
g81
ssg62
g1672
sg55
(lp1684
S':'
asbag48
(g69
g50
NtRp1685
(dp1686
g53
(dp1687
sg62
g1672
sg55
(lp1688
g48
(g49
g50
NtRp1689
(dp1690
g53
(dp1691
g61
I5
ssg62
g1685
sg55
(lp1692
S'Desglosar_Emails/127.0.0.1.2011-09-20.09-03-24.9044fbad-2d34-41cc-81a2-f6b7bcdd4367'
p1693
asbasbasbag48
(g64
g50
NtRp1694
(dp1695
g53
(dp1696
sg62
g58
sg55
(lp1697
g48
(g69
g50
NtRp1698
(dp1699
g53
(dp1700
g73
g74
ssg62
g1694
sg55
(lp1701
S'vars'
p1702
asbag48
(g69
g50
NtRp1703
(dp1704
g53
(dp1705
g80
g81
ssg62
g1694
sg55
(lp1706
S':'
asbag48
(g69
g50
NtRp1707
(dp1708
g53
(dp1709
sg62
g1694
sg55
(lp1710
g48
(g49
g50
NtRp1711
(dp1712
g53
(dp1713
g61
I5
ssg62
g1707
sg55
(lp1714
g48
(g57
g50
NtRp1715
(dp1716
g53
(dp1717
g61
I4
ssg62
Nsg55
(lp1718
sbasbasbasbag48
(g64
g50
NtRp1719
(dp1720
g53
(dp1721
sg62
g58
sg55
(lp1722
g48
(g69
g50
NtRp1723
(dp1724
g53
(dp1725
g73
g74
ssg62
g1719
sg55
(lp1726
S'wsgi'
p1727
asbag48
(g69
g50
NtRp1728
(dp1729
g53
(dp1730
g80
g81
ssg62
g1719
sg55
(lp1731
S':'
asbag48
(g69
g50
NtRp1732
(dp1733
g53
(dp1734
sg62
g1719
sg55
(lp1735
g48
(g49
g50
NtRp1736
(dp1737
g53
(dp1738
g61
I5
ssg62
g1732
sg55
(lp1739
g48
(g57
g50
NtRp1740
(dp1741
g53
(dp1742
g61
I4
ssg62
Nsg55
(lp1743
g48
(g64
g50
NtRp1744
(dp1745
g53
(dp1746
sg62
g1740
sg55
(lp1747
g48
(g69
g50
NtRp1748
(dp1749
g53
(dp1750
g73
g74
ssg62
g1744
sg55
(lp1751
S'environ'
p1752
asbag48
(g69
g50
NtRp1753
(dp1754
g53
(dp1755
g80
g81
ssg62
g1744
sg55
(lp1756
S':'
asbag48
(g69
g50
NtRp1757
(dp1758
g53
(dp1759
sg62
g1744
sg55
(lp1760
g48
(g49
g50
NtRp1761
(dp1762
g53
(dp1763
g61
I4
ssg62
g1757
sg55
(lp1764
g48
(g57
g50
NtRp1765
(dp1766
g53
(dp1767
g61
I3
ssg62
Nsg55
(lp1768
g48
(g64
g50
NtRp1769
(dp1770
g53
(dp1771
sg62
g1765
sg55
(lp1772
g48
(g69
g50
NtRp1773
(dp1774
g53
(dp1775
g73
g74
ssg62
g1769
sg55
(lp1776
S'HTTP_ACCEPT'
p1777
asbag48
(g69
g50
NtRp1778
(dp1779
g53
(dp1780
g80
g81
ssg62
g1769
sg55
(lp1781
S':'
asbag48
(g69
g50
NtRp1782
(dp1783
g53
(dp1784
sg62
g1769
sg55
(lp1785
g48
(g49
g50
NtRp1786
(dp1787
g53
(dp1788
g61
I3
ssg62
g1782
sg55
(lp1789
g768
asbasbasbag48
(g64
g50
NtRp1790
(dp1791
g53
(dp1792
sg62
g1765
sg55
(lp1793
g48
(g69
g50
NtRp1794
(dp1795
g53
(dp1796
g73
g74
ssg62
g1790
sg55
(lp1797
S'HTTP_ACCEPT_CHARSET'
p1798
asbag48
(g69
g50
NtRp1799
(dp1800
g53
(dp1801
g80
g81
ssg62
g1790
sg55
(lp1802
S':'
asbag48
(g69
g50
NtRp1803
(dp1804
g53
(dp1805
sg62
g1790
sg55
(lp1806
g48
(g49
g50
NtRp1807
(dp1808
g53
(dp1809
g61
I3
ssg62
g1803
sg55
(lp1810
g790
asbasbasbag48
(g64
g50
NtRp1811
(dp1812
g53
(dp1813
sg62
g1765
sg55
(lp1814
g48
(g69
g50
NtRp1815
(dp1816
g53
(dp1817
g73
g74
ssg62
g1811
sg55
(lp1818
S'HTTP_ACCEPT_ENCODING'
p1819
asbag48
(g69
g50
NtRp1820
(dp1821
g53
(dp1822
g80
g81
ssg62
g1811
sg55
(lp1823
S':'
asbag48
(g69
g50
NtRp1824
(dp1825
g53
(dp1826
sg62
g1811
sg55
(lp1827
g48
(g49
g50
NtRp1828
(dp1829
g53
(dp1830
g61
I3
ssg62
g1824
sg55
(lp1831
g812
asbasbasbag48
(g64
g50
NtRp1832
(dp1833
g53
(dp1834
sg62
g1765
sg55
(lp1835
g48
(g69
g50
NtRp1836
(dp1837
g53
(dp1838
g73
g74
ssg62
g1832
sg55
(lp1839
S'HTTP_ACCEPT_LANGUAGE'
p1840
asbag48
(g69
g50
NtRp1841
(dp1842
g53
(dp1843
g80
g81
ssg62
g1832
sg55
(lp1844
S':'
asbag48
(g69
g50
NtRp1845
(dp1846
g53
(dp1847
sg62
g1832
sg55
(lp1848
g48
(g49
g50
NtRp1849
(dp1850
g53
(dp1851
g61
I3
ssg62
g1845
sg55
(lp1852
g834
asbasbasbag48
(g64
g50
NtRp1853
(dp1854
g53
(dp1855
sg62
g1765
sg55
(lp1856
g48
(g69
g50
NtRp1857
(dp1858
g53
(dp1859
g73
g74
ssg62
g1853
sg55
(lp1860
S'HTTP_CONNECTION'
p1861
asbag48
(g69
g50
NtRp1862
(dp1863
g53
(dp1864
g80
g81
ssg62
g1853
sg55
(lp1865
S':'
asbag48
(g69
g50
NtRp1866
(dp1867
g53
(dp1868
sg62
g1853
sg55
(lp1869
g48
(g49
g50
NtRp1870
(dp1871
g53
(dp1872
g61
I3
ssg62
g1866
sg55
(lp1873
g856
asbasbasbag48
(g64
g50
NtRp1874
(dp1875
g53
(dp1876
sg62
g1765
sg55
(lp1877
g48
(g69
g50
NtRp1878
(dp1879
g53
(dp1880
g73
g74
ssg62
g1874
sg55
(lp1881
S'HTTP_COOKIE'
p1882
asbag48
(g69
g50
NtRp1883
(dp1884
g53
(dp1885
g80
g81
ssg62
g1874
sg55
(lp1886
S':'
asbag48
(g69
g50
NtRp1887
(dp1888
g53
(dp1889
sg62
g1874
sg55
(lp1890
g48
(g49
g50
NtRp1891
(dp1892
g53
(dp1893
g61
I3
ssg62
g1887
sg55
(lp1894
g878
asbasbasbag48
(g64
g50
NtRp1895
(dp1896
g53
(dp1897
sg62
g1765
sg55
(lp1898
g48
(g69
g50
NtRp1899
(dp1900
g53
(dp1901
g73
g74
ssg62
g1895
sg55
(lp1902
S'HTTP_HOST'
p1903
asbag48
(g69
g50
NtRp1904
(dp1905
g53
(dp1906
g80
g81
ssg62
g1895
sg55
(lp1907
S':'
asbag48
(g69
g50
NtRp1908
(dp1909
g53
(dp1910
sg62
g1895
sg55
(lp1911
g48
(g49
g50
NtRp1912
(dp1913
g53
(dp1914
g61
I3
ssg62
g1908
sg55
(lp1915
g900
asbasbasbag48
(g64
g50
NtRp1916
(dp1917
g53
(dp1918
sg62
g1765
sg55
(lp1919
g48
(g69
g50
NtRp1920
(dp1921
g53
(dp1922
g73
g74
ssg62
g1916
sg55
(lp1923
S'HTTP_REFERER'
p1924
asbag48
(g69
g50
NtRp1925
(dp1926
g53
(dp1927
g80
g81
ssg62
g1916
sg55
(lp1928
S':'
asbag48
(g69
g50
NtRp1929
(dp1930
g53
(dp1931
sg62
g1916
sg55
(lp1932
g48
(g49
g50
NtRp1933
(dp1934
g53
(dp1935
g61
I3
ssg62
g1929
sg55
(lp1936
g922
asbasbasbag48
(g64
g50
NtRp1937
(dp1938
g53
(dp1939
sg62
g1765
sg55
(lp1940
g48
(g69
g50
NtRp1941
(dp1942
g53
(dp1943
g73
g74
ssg62
g1937
sg55
(lp1944
S'HTTP_USER_AGENT'
p1945
asbag48
(g69
g50
NtRp1946
(dp1947
g53
(dp1948
g80
g81
ssg62
g1937
sg55
(lp1949
S':'
asbag48
(g69
g50
NtRp1950
(dp1951
g53
(dp1952
sg62
g1937
sg55
(lp1953
g48
(g49
g50
NtRp1954
(dp1955
g53
(dp1956
g61
I3
ssg62
g1950
sg55
(lp1957
g944
asbasbasbag48
(g64
g50
NtRp1958
(dp1959
g53
(dp1960
sg62
g1765
sg55
(lp1961
g48
(g69
g50
NtRp1962
(dp1963
g53
(dp1964
g73
g74
ssg62
g1958
sg55
(lp1965
S'PATH_INFO'
p1966
asbag48
(g69
g50
NtRp1967
(dp1968
g53
(dp1969
g80
g81
ssg62
g1958
sg55
(lp1970
S':'
asbag48
(g69
g50
NtRp1971
(dp1972
g53
(dp1973
sg62
g1958
sg55
(lp1974
g48
(g49
g50
NtRp1975
(dp1976
g53
(dp1977
g61
I3
ssg62
g1971
sg55
(lp1978
g987
asbasbasbag48
(g64
g50
NtRp1979
(dp1980
g53
(dp1981
sg62
g1765
sg55
(lp1982
g48
(g69
g50
NtRp1983
(dp1984
g53
(dp1985
g73
g74
ssg62
g1979
sg55
(lp1986
S'QUERY_STRING'
p1987
asbag48
(g69
g50
NtRp1988
(dp1989
g53
(dp1990
g80
g81
ssg62
g1979
sg55
(lp1991
S':'
asbag48
(g69
g50
NtRp1992
(dp1993
g53
(dp1994
sg62
g1979
sg55
(lp1995
g48
(g49
g50
NtRp1996
(dp1997
g53
(dp1998
g61
I3
ssg62
g1992
sg55
(lp1999
S''
asbasbasbag48
(g64
g50
NtRp2000
(dp2001
g53
(dp2002
sg62
g1765
sg55
(lp2003
g48
(g69
g50
NtRp2004
(dp2005
g53
(dp2006
g73
g74
ssg62
g2000
sg55
(lp2007
S'REMOTE_ADDR'
p2008
asbag48
(g69
g50
NtRp2009
(dp2010
g53
(dp2011
g80
g81
ssg62
g2000
sg55
(lp2012
S':'
asbag48
(g69
g50
NtRp2013
(dp2014
g53
(dp2015
sg62
g2000
sg55
(lp2016
g48
(g49
g50
NtRp2017
(dp2018
g53
(dp2019
g61
I3
ssg62
g2013
sg55
(lp2020
g181
asbasbasbag48
(g64
g50
NtRp2021
(dp2022
g53
(dp2023
sg62
g1765
sg55
(lp2024
g48
(g69
g50
NtRp2025
(dp2026
g53
(dp2027
g73
g74
ssg62
g2021
sg55
(lp2028
S'REMOTE_PORT'
p2029
asbag48
(g69
g50
NtRp2030
(dp2031
g53
(dp2032
g80
g81
ssg62
g2021
sg55
(lp2033
S':'
asbag48
(g69
g50
NtRp2034
(dp2035
g53
(dp2036
sg62
g2021
sg55
(lp2037
g48
(g49
g50
NtRp2038
(dp2039
g53
(dp2040
g61
I3
ssg62
g2034
sg55
(lp2041
g1051
asbasbasbag48
(g64
g50
NtRp2042
(dp2043
g53
(dp2044
sg62
g1765
sg55
(lp2045
g48
(g69
g50
NtRp2046
(dp2047
g53
(dp2048
g73
g74
ssg62
g2042
sg55
(lp2049
S'REQUEST_METHOD'
p2050
asbag48
(g69
g50
NtRp2051
(dp2052
g53
(dp2053
g80
g81
ssg62
g2042
sg55
(lp2054
S':'
asbag48
(g69
g50
NtRp2055
(dp2056
g53
(dp2057
sg62
g2042
sg55
(lp2058
g48
(g49
g50
NtRp2059
(dp2060
g53
(dp2061
g61
I3
ssg62
g2055
sg55
(lp2062
g1073
asbasbasbag48
(g64
g50
NtRp2063
(dp2064
g53
(dp2065
sg62
g1765
sg55
(lp2066
g48
(g69
g50
NtRp2067
(dp2068
g53
(dp2069
g73
g74
ssg62
g2063
sg55
(lp2070
S'SCRIPT_NAME'
p2071
asbag48
(g69
g50
NtRp2072
(dp2073
g53
(dp2074
g80
g81
ssg62
g2063
sg55
(lp2075
S':'
asbag48
(g69
g50
NtRp2076
(dp2077
g53
(dp2078
sg62
g2063
sg55
(lp2079
g48
(g49
g50
NtRp2080
(dp2081
g53
(dp2082
g61
I3
ssg62
g2076
sg55
(lp2083
S''
asbasbasbag48
(g64
g50
NtRp2084
(dp2085
g53
(dp2086
sg62
g1765
sg55
(lp2087
g48
(g69
g50
NtRp2088
(dp2089
g53
(dp2090
g73
g74
ssg62
g2084
sg55
(lp2091
S'SERVER_NAME'
p2092
asbag48
(g69
g50
NtRp2093
(dp2094
g53
(dp2095
g80
g81
ssg62
g2084
sg55
(lp2096
S':'
asbag48
(g69
g50
NtRp2097
(dp2098
g53
(dp2099
sg62
g2084
sg55
(lp2100
g48
(g49
g50
NtRp2101
(dp2102
g53
(dp2103
g61
I3
ssg62
g2097
sg55
(lp2104
g1116
asbasbasbag48
(g64
g50
NtRp2105
(dp2106
g53
(dp2107
sg62
g1765
sg55
(lp2108
g48
(g69
g50
NtRp2109
(dp2110
g53
(dp2111
g73
g74
ssg62
g2105
sg55
(lp2112
S'SERVER_PORT'
p2113
asbag48
(g69
g50
NtRp2114
(dp2115
g53
(dp2116
g80
g81
ssg62
g2105
sg55
(lp2117
S':'
asbag48
(g69
g50
NtRp2118
(dp2119
g53
(dp2120
sg62
g2105
sg55
(lp2121
g48
(g49
g50
NtRp2122
(dp2123
g53
(dp2124
g61
I3
ssg62
g2118
sg55
(lp2125
g1138
asbasbasbag48
(g64
g50
NtRp2126
(dp2127
g53
(dp2128
sg62
g1765
sg55
(lp2129
g48
(g69
g50
NtRp2130
(dp2131
g53
(dp2132
g73
g74
ssg62
g2126
sg55
(lp2133
S'SERVER_PROTOCOL'
p2134
asbag48
(g69
g50
NtRp2135
(dp2136
g53
(dp2137
g80
g81
ssg62
g2126
sg55
(lp2138
S':'
asbag48
(g69
g50
NtRp2139
(dp2140
g53
(dp2141
sg62
g2126
sg55
(lp2142
g48
(g49
g50
NtRp2143
(dp2144
g53
(dp2145
g61
I3
ssg62
g2139
sg55
(lp2146
g1160
asbasbasbag48
(g64
g50
NtRp2147
(dp2148
g53
(dp2149
sg62
g1765
sg55
(lp2150
g48
(g69
g50
NtRp2151
(dp2152
g53
(dp2153
g73
g74
ssg62
g2147
sg55
(lp2154
S'SERVER_SOFTWARE'
p2155
asbag48
(g69
g50
NtRp2156
(dp2157
g53
(dp2158
g80
g81
ssg62
g2147
sg55
(lp2159
S':'
asbag48
(g69
g50
NtRp2160
(dp2161
g53
(dp2162
sg62
g2147
sg55
(lp2163
g48
(g49
g50
NtRp2164
(dp2165
g53
(dp2166
g61
I3
ssg62
g2160
sg55
(lp2167
g1182
asbasbasbag48
(g64
g50
NtRp2168
(dp2169
g53
(dp2170
sg62
g1765
sg55
(lp2171
g48
(g69
g50
NtRp2172
(dp2173
g53
(dp2174
g73
g74
ssg62
g2168
sg55
(lp2175
S'wsgi.errors'
p2176
asbag48
(g69
g50
NtRp2177
(dp2178
g53
(dp2179
g80
g81
ssg62
g2168
sg55
(lp2180
S':'
asbag48
(g69
g50
NtRp2181
(dp2182
g53
(dp2183
sg62
g2168
sg55
(lp2184
g48
(g49
g50
NtRp2185
(dp2186
g53
(dp2187
g61
I3
ssg62
g2181
sg55
(lp2188
S"<open file '<stderr>', mode 'w' at 0x01F200B0>"
p2189
asbasbasbag48
(g64
g50
NtRp2190
(dp2191
g53
(dp2192
sg62
g1765
sg55
(lp2193
g48
(g69
g50
NtRp2194
(dp2195
g53
(dp2196
g73
g74
ssg62
g2190
sg55
(lp2197
S'wsgi.file_wrapper'
p2198
asbag48
(g69
g50
NtRp2199
(dp2200
g53
(dp2201
g80
g81
ssg62
g2190
sg55
(lp2202
S':'
asbag48
(g69
g50
NtRp2203
(dp2204
g53
(dp2205
sg62
g2190
sg55
(lp2206
g48
(g49
g50
NtRp2207
(dp2208
g53
(dp2209
g61
I3
ssg62
g2203
sg55
(lp2210
S'<class gluon.rocket.FileWrapper at 0x0307F1B0>'
p2211
asbasbasbag48
(g64
g50
NtRp2212
(dp2213
g53
(dp2214
sg62
g1765
sg55
(lp2215
g48
(g69
g50
NtRp2216
(dp2217
g53
(dp2218
g73
g74
ssg62
g2212
sg55
(lp2219
S'wsgi.input'
p2220
asbag48
(g69
g50
NtRp2221
(dp2222
g53
(dp2223
g80
g81
ssg62
g2212
sg55
(lp2224
S':'
asbag48
(g69
g50
NtRp2225
(dp2226
g53
(dp2227
sg62
g2212
sg55
(lp2228
g48
(g49
g50
NtRp2229
(dp2230
g53
(dp2231
g61
I3
ssg62
g2225
sg55
(lp2232
S'<cStringIO.StringO object at 0x07BA8BC0>'
p2233
asbasbasbag48
(g64
g50
NtRp2234
(dp2235
g53
(dp2236
sg62
g1765
sg55
(lp2237
g48
(g69
g50
NtRp2238
(dp2239
g53
(dp2240
g73
g74
ssg62
g2234
sg55
(lp2241
S'wsgi.multiprocess'
p2242
asbag48
(g69
g50
NtRp2243
(dp2244
g53
(dp2245
g80
g81
ssg62
g2234
sg55
(lp2246
S':'
asbag48
(g69
g50
NtRp2247
(dp2248
g53
(dp2249
sg62
g2234
sg55
(lp2250
g48
(g49
g50
NtRp2251
(dp2252
g53
(dp2253
g61
I3
ssg62
g2247
sg55
(lp2254
g91
asbasbasbag48
(g64
g50
NtRp2255
(dp2256
g53
(dp2257
sg62
g1765
sg55
(lp2258
g48
(g69
g50
NtRp2259
(dp2260
g53
(dp2261
g73
g74
ssg62
g2255
sg55
(lp2262
S'wsgi.multithread'
p2263
asbag48
(g69
g50
NtRp2264
(dp2265
g53
(dp2266
g80
g81
ssg62
g2255
sg55
(lp2267
S':'
asbag48
(g69
g50
NtRp2268
(dp2269
g53
(dp2270
sg62
g2255
sg55
(lp2271
g48
(g49
g50
NtRp2272
(dp2273
g53
(dp2274
g61
I3
ssg62
g2268
sg55
(lp2275
g1356
asbasbasbag48
(g64
g50
NtRp2276
(dp2277
g53
(dp2278
sg62
g1765
sg55
(lp2279
g48
(g69
g50
NtRp2280
(dp2281
g53
(dp2282
g73
g74
ssg62
g2276
sg55
(lp2283
S'wsgi.run_once'
p2284
asbag48
(g69
g50
NtRp2285
(dp2286
g53
(dp2287
g80
g81
ssg62
g2276
sg55
(lp2288
S':'
asbag48
(g69
g50
NtRp2289
(dp2290
g53
(dp2291
sg62
g2276
sg55
(lp2292
g48
(g49
g50
NtRp2293
(dp2294
g53
(dp2295
g61
I3
ssg62
g2289
sg55
(lp2296
g91
asbasbasbag48
(g64
g50
NtRp2297
(dp2298
g53
(dp2299
sg62
g1765
sg55
(lp2300
g48
(g69
g50
NtRp2301
(dp2302
g53
(dp2303
g73
g74
ssg62
g2297
sg55
(lp2304
S'wsgi.url_scheme'
p2305
asbag48
(g69
g50
NtRp2306
(dp2307
g53
(dp2308
g80
g81
ssg62
g2297
sg55
(lp2309
S':'
asbag48
(g69
g50
NtRp2310
(dp2311
g53
(dp2312
sg62
g2297
sg55
(lp2313
g48
(g49
g50
NtRp2314
(dp2315
g53
(dp2316
g61
I3
ssg62
g2310
sg55
(lp2317
g1399
asbasbasbag48
(g64
g50
NtRp2318
(dp2319
g53
(dp2320
sg62
g1765
sg55
(lp2321
g48
(g69
g50
NtRp2322
(dp2323
g53
(dp2324
g73
g74
ssg62
g2318
sg55
(lp2325
S'wsgi.version'
p2326
asbag48
(g69
g50
NtRp2327
(dp2328
g53
(dp2329
g80
g81
ssg62
g2318
sg55
(lp2330
S':'
asbag48
(g69
g50
NtRp2331
(dp2332
g53
(dp2333
sg62
g2318
sg55
(lp2334
g48
(g49
g50
NtRp2335
(dp2336
g53
(dp2337
g61
I3
ssg62
g2331
sg55
(lp2338
S'1'
asbasbasbasbasbasbasbasbasbasbasbasbasbsS'frames'
p2339
(lp2340
(dp2341
S'file'
p2342
S'C:\\Users\\Atomico\\web2py\\gluon\\restricted.py'
p2343
sS'dump'
p2344
(dp2345
sS'lnum'
p2346
I192
sS'lines'
p2347
(dp2348
sS'call'
p2349
S'(code=\'response.write(\\\'<!DOCTYPE html>\\\\n<html lang="\\\', ...t   -->    \\\\n  </body>\\\\n</html>\\\\n\\\', escape=False)\', environment={\'A\': <class \'gluon.html.A\'>, \'B\': <class \'gluon.html.B\'>, \'BEAUTIFY\': <class \'gluon.html.BEAUTIFY\'>, \'BODY\': <class \'gluon.html.BODY\'>, \'BR\': <class \'gluon.html.BR\'>, \'BUTTON\': <class \'gluon.html.BUTTON\'>, \'CAT\': <class \'gluon.html.CAT\'>, \'CENTER\': <class \'gluon.html.CENTER\'>, \'CLEANUP\': <class \'gluon.validators.CLEANUP\'>, \'CODE\': <class \'gluon.html.CODE\'>, ...}, layer=r\'C:\\Users\\Atomico\\web2py\\applications\\Desglosar_Emails\\views\\default/entrada_mod3.html\')'
p2350
sS'func'
p2351
S'restricted'
p2352
sa(dp2353
g2342
S'C:\\Users\\Atomico\\web2py\\applications\\Desglosar_Emails\\views\\default\\entrada_mod3.html'
p2354
sg2344
(dp2355
sg2346
I126
sg2347
(dp2356
I128
S"response.write('\\r\\n<br/> s\\xc3\\xb3c el peU.\\r\\n', escape=False)"
p2357
sI129
S"response.write('\\t\\n\\t  </div>\\n\\t  <!-- content -->\\n\\n\\t  ', escape=False)"
p2358
sI130
S'if right_sidebar_enabled:'
p2359
sI131
S'    response.write(\'\\n          <div id="right_sidebar" \', escape=False)'
p2360
sI132
S'    response.write(XML(right_sidebar_style))'
p2361
sI133
S'    response.write(\' >\\n            <div style="padding: 4px;">\\n              \', escape=False)'
p2362
sI134
S"    response.write('Content Right Sidebar', escape=False)"
p2363
sI135
S"    response.write('\\n            </div>\\n\\t  </div><!-- right_sidebar -->\\n          ', escape=False)"
p2364
sI136
S'    pass'
p2365
sI117
S"response.write('\\r\\n<br/>\\r\\n', escape=False)"
p2366
sI118
S'i=0'
p2367
sI119
S'while i<len(res):'
p2368
sI120
S'    if patternemail.search(res[i])==False:'
p2369
sI121
S'        db.contactos.insert(nombre=res[i],email=res[i+1])'
p2370
sI122
S'        i=i+2'
p2371
sI123
S'    elif patternemail.search(res[i]):'
p2372
sI124
S'        db.contactos.insert(email=res[i])'
p2373
sI125
S'        i=i+1'
p2374
sI126
S"    else: response.write('Aqu\xc3\xad hay un problema')"
p2375
sI127
S'    pass'
p2376
ssg2349
S'()'
p2377
sg2351
S'<module>'
p2378
sa(dp2379
g2342
S'C:\\Users\\Atomico\\web2py\\gluon\\globals.py'
p2380
sg2344
(dp2381
sg2346
I154
sg2347
(dp2382
sg2349
S"(self=<Storage {'status': 200, 'body': <cStringIO.Stri...rfish.js'], 'view': 'default/entrada_mod3.html'}>, data='Aqu\\xc3\\xad hay un problema', escape=True)"
p2383
sg2351
S'write'
p2384
sasS'pyver'
p2385
S'Python 2.5.4: C:\\Users\\Atomico\\web2py\\web2py.exe'
p2386
sS'session'
p2387
g48
(g49
g50
NtRp2388
(dp2389
g53
(dp2390
sg55
(lp2391
g48
(g57
g50
NtRp2392
(dp2393
g53
(dp2394
g61
I5
ssg62
Nsg55
(lp2395
sbasbsS'etype'
p2396
S"<type 'exceptions.MemoryError'>"
p2397
sS'date'
p2398
S'Tue Sep 20 09:09:08 2011'
p2399
sS'response'
p2400
g48
(g49
g50
NtRp2401
(dp2402
g53
(dp2403
sg55
(lp2404
g48
(g57
g50
NtRp2405
(dp2406
g53
(dp2407
g61
I5
ssg62
Nsg55
(lp2408
g48
(g64
g50
NtRp2409
(dp2410
g53
(dp2411
sg62
g2405
sg55
(lp2412
g48
(g69
g50
NtRp2413
(dp2414
g53
(dp2415
g73
g74
ssg62
g2409
sg55
(lp2416
g146
asbag48
(g69
g50
NtRp2417
(dp2418
g53
(dp2419
g80
g81
ssg62
g2409
sg55
(lp2420
S':'
asbag48
(g69
g50
NtRp2421
(dp2422
g53
(dp2423
sg62
g2409
sg55
(lp2424
g48
(g49
g50
NtRp2425
(dp2426
g53
(dp2427
g61
I5
ssg62
g2421
sg55
(lp2428
S'<cStringIO.StringO object at 0x07BA85C0>'
p2429
asbasbasbag48
(g64
g50
NtRp2430
(dp2431
g53
(dp2432
sg62
g2405
sg55
(lp2433
g48
(g69
g50
NtRp2434
(dp2435
g53
(dp2436
g73
g74
ssg62
g2430
sg55
(lp2437
g212
asbag48
(g69
g50
NtRp2438
(dp2439
g53
(dp2440
g80
g81
ssg62
g2430
sg55
(lp2441
S':'
asbag48
(g69
g50
NtRp2442
(dp2443
g53
(dp2444
sg62
g2430
sg55
(lp2445
g48
(g49
g50
NtRp2446
(dp2447
g53
(dp2448
g61
I5
ssg62
g2442
sg55
(lp2449
g48
(g57
g50
NtRp2450
(dp2451
g53
(dp2452
g61
I4
ssg62
Nsg55
(lp2453
g48
(g64
g50
NtRp2454
(dp2455
g53
(dp2456
sg62
g2450
sg55
(lp2457
g48
(g69
g50
NtRp2458
(dp2459
g53
(dp2460
g73
g74
ssg62
g2454
sg55
(lp2461
S'session_id_desglosar_emails'
p2462
asbag48
(g69
g50
NtRp2463
(dp2464
g53
(dp2465
g80
g81
ssg62
g2454
sg55
(lp2466
S':'
asbag48
(g69
g50
NtRp2467
(dp2468
g53
(dp2469
sg62
g2454
sg55
(lp2470
g48
(g49
g50
NtRp2471
(dp2472
g53
(dp2473
g61
I4
ssg62
g2467
sg55
(lp2474
g48
(g57
g50
NtRp2475
(dp2476
g53
(dp2477
g61
I3
ssg62
Nsg55
(lp2478
g48
(g64
g50
NtRp2479
(dp2480
g53
(dp2481
sg62
g2475
sg55
(lp2482
g48
(g69
g50
NtRp2483
(dp2484
g53
(dp2485
g73
g74
ssg62
g2479
sg55
(lp2486
g262
asbag48
(g69
g50
NtRp2487
(dp2488
g53
(dp2489
g80
g81
ssg62
g2479
sg55
(lp2490
S':'
asbag48
(g69
g50
NtRp2491
(dp2492
g53
(dp2493
sg62
g2479
sg55
(lp2494
g48
(g49
g50
NtRp2495
(dp2496
g53
(dp2497
g61
I3
ssg62
g2491
sg55
(lp2498
S''
asbasbasbag48
(g64
g50
NtRp2499
(dp2500
g53
(dp2501
sg62
g2475
sg55
(lp2502
g48
(g69
g50
NtRp2503
(dp2504
g53
(dp2505
g73
g74
ssg62
g2499
sg55
(lp2506
g283
asbag48
(g69
g50
NtRp2507
(dp2508
g53
(dp2509
g80
g81
ssg62
g2499
sg55
(lp2510
S':'
asbag48
(g69
g50
NtRp2511
(dp2512
g53
(dp2513
sg62
g2499
sg55
(lp2514
g48
(g49
g50
NtRp2515
(dp2516
g53
(dp2517
g61
I3
ssg62
g2511
sg55
(lp2518
S''
asbasbasbag48
(g64
g50
NtRp2519
(dp2520
g53
(dp2521
sg62
g2475
sg55
(lp2522
g48
(g69
g50
NtRp2523
(dp2524
g53
(dp2525
g73
g74
ssg62
g2519
sg55
(lp2526
g304
asbag48
(g69
g50
NtRp2527
(dp2528
g53
(dp2529
g80
g81
ssg62
g2519
sg55
(lp2530
S':'
asbag48
(g69
g50
NtRp2531
(dp2532
g53
(dp2533
sg62
g2519
sg55
(lp2534
g48
(g49
g50
NtRp2535
(dp2536
g53
(dp2537
g61
I3
ssg62
g2531
sg55
(lp2538
S''
asbasbasbag48
(g64
g50
NtRp2539
(dp2540
g53
(dp2541
sg62
g2475
sg55
(lp2542
g48
(g69
g50
NtRp2543
(dp2544
g53
(dp2545
g73
g74
ssg62
g2539
sg55
(lp2546
g325
asbag48
(g69
g50
NtRp2547
(dp2548
g53
(dp2549
g80
g81
ssg62
g2539
sg55
(lp2550
S':'
asbag48
(g69
g50
NtRp2551
(dp2552
g53
(dp2553
sg62
g2539
sg55
(lp2554
g48
(g49
g50
NtRp2555
(dp2556
g53
(dp2557
g61
I3
ssg62
g2551
sg55
(lp2558
S''
asbasbasbag48
(g64
g50
NtRp2559
(dp2560
g53
(dp2561
sg62
g2475
sg55
(lp2562
g48
(g69
g50
NtRp2563
(dp2564
g53
(dp2565
g73
g74
ssg62
g2559
sg55
(lp2566
g346
asbag48
(g69
g50
NtRp2567
(dp2568
g53
(dp2569
g80
g81
ssg62
g2559
sg55
(lp2570
S':'
asbag48
(g69
g50
NtRp2571
(dp2572
g53
(dp2573
sg62
g2559
sg55
(lp2574
g48
(g49
g50
NtRp2575
(dp2576
g53
(dp2577
g61
I3
ssg62
g2571
sg55
(lp2578
S'/'
asbasbasbag48
(g64
g50
NtRp2579
(dp2580
g53
(dp2581
sg62
g2475
sg55
(lp2582
g48
(g69
g50
NtRp2583
(dp2584
g53
(dp2585
g73
g74
ssg62
g2579
sg55
(lp2586
g367
asbag48
(g69
g50
NtRp2587
(dp2588
g53
(dp2589
g80
g81
ssg62
g2579
sg55
(lp2590
S':'
asbag48
(g69
g50
NtRp2591
(dp2592
g53
(dp2593
sg62
g2579
sg55
(lp2594
g48
(g49
g50
NtRp2595
(dp2596
g53
(dp2597
g61
I3
ssg62
g2591
sg55
(lp2598
S''
asbasbasbag48
(g64
g50
NtRp2599
(dp2600
g53
(dp2601
sg62
g2475
sg55
(lp2602
g48
(g69
g50
NtRp2603
(dp2604
g53
(dp2605
g73
g74
ssg62
g2599
sg55
(lp2606
g388
asbag48
(g69
g50
NtRp2607
(dp2608
g53
(dp2609
g80
g81
ssg62
g2599
sg55
(lp2610
S':'
asbag48
(g69
g50
NtRp2611
(dp2612
g53
(dp2613
sg62
g2599
sg55
(lp2614
g48
(g49
g50
NtRp2615
(dp2616
g53
(dp2617
g61
I3
ssg62
g2611
sg55
(lp2618
S''
asbasbasbasbasbasbasbasbasbasbasbag48
(g64
g50
NtRp2619
(dp2620
g53
(dp2621
sg62
g2405
sg55
(lp2622
g48
(g69
g50
NtRp2623
(dp2624
g53
(dp2625
g73
g74
ssg62
g2619
sg55
(lp2626
S'files'
p2627
asbag48
(g69
g50
NtRp2628
(dp2629
g53
(dp2630
g80
g81
ssg62
g2619
sg55
(lp2631
S':'
asbag48
(g69
g50
NtRp2632
(dp2633
g53
(dp2634
sg62
g2619
sg55
(lp2635
g48
(g49
g50
NtRp2636
(dp2637
g53
(dp2638
g61
I5
ssg62
g2632
sg55
(lp2639
g48
(g57
g50
NtRp2640
(dp2641
g53
(dp2642
g61
I4
ssg62
Nsg55
(lp2643
g48
(g64
g50
NtRp2644
(dp2645
g53
(dp2646
sg62
g2640
sg55
(lp2647
g48
(g69
g50
NtRp2648
(dp2649
g53
(dp2650
sg62
g2644
sg55
(lp2651
g48
(g49
g50
NtRp2652
(dp2653
g53
(dp2654
g61
I4
ssg62
g2648
sg55
(lp2655
S'/Desglosar_Emails/static/js/jquery.js'
p2656
asbasbasbag48
(g64
g50
NtRp2657
(dp2658
g53
(dp2659
sg62
g2640
sg55
(lp2660
g48
(g69
g50
NtRp2661
(dp2662
g53
(dp2663
sg62
g2657
sg55
(lp2664
g48
(g49
g50
NtRp2665
(dp2666
g53
(dp2667
g61
I4
ssg62
g2661
sg55
(lp2668
S'/Desglosar_Emails/static/css/calendar.css'
p2669
asbasbasbag48
(g64
g50
NtRp2670
(dp2671
g53
(dp2672
sg62
g2640
sg55
(lp2673
g48
(g69
g50
NtRp2674
(dp2675
g53
(dp2676
sg62
g2670
sg55
(lp2677
g48
(g49
g50
NtRp2678
(dp2679
g53
(dp2680
g61
I4
ssg62
g2674
sg55
(lp2681
S'/Desglosar_Emails/static/js/calendar.js'
p2682
asbasbasbag48
(g64
g50
NtRp2683
(dp2684
g53
(dp2685
sg62
g2640
sg55
(lp2686
g48
(g69
g50
NtRp2687
(dp2688
g53
(dp2689
sg62
g2683
sg55
(lp2690
g48
(g49
g50
NtRp2691
(dp2692
g53
(dp2693
g61
I4
ssg62
g2687
sg55
(lp2694
S'/Desglosar_Emails/static/css/base.css'
p2695
asbasbasbag48
(g64
g50
NtRp2696
(dp2697
g53
(dp2698
sg62
g2640
sg55
(lp2699
g48
(g69
g50
NtRp2700
(dp2701
g53
(dp2702
sg62
g2696
sg55
(lp2703
g48
(g49
g50
NtRp2704
(dp2705
g53
(dp2706
g61
I4
ssg62
g2700
sg55
(lp2707
S'/Desglosar_Emails/static/css/superfish.css'
p2708
asbasbasbag48
(g64
g50
NtRp2709
(dp2710
g53
(dp2711
sg62
g2640
sg55
(lp2712
g48
(g69
g50
NtRp2713
(dp2714
g53
(dp2715
sg62
g2709
sg55
(lp2716
g48
(g49
g50
NtRp2717
(dp2718
g53
(dp2719
g61
I4
ssg62
g2713
sg55
(lp2720
S'/Desglosar_Emails/static/js/superfish.js'
p2721
asbasbasbasbasbasbasbag48
(g64
g50
NtRp2722
(dp2723
g53
(dp2724
sg62
g2405
sg55
(lp2725
g48
(g69
g50
NtRp2726
(dp2727
g53
(dp2728
g73
g74
ssg62
g2722
sg55
(lp2729
S'flash'
p2730
asbag48
(g69
g50
NtRp2731
(dp2732
g53
(dp2733
g80
g81
ssg62
g2722
sg55
(lp2734
S':'
asbag48
(g69
g50
NtRp2735
(dp2736
g53
(dp2737
sg62
g2722
sg55
(lp2738
g48
(g49
g50
NtRp2739
(dp2740
g53
(dp2741
g61
I5
ssg62
g2735
sg55
(lp2742
S''
asbasbasbag48
(g64
g50
NtRp2743
(dp2744
g53
(dp2745
sg62
g2405
sg55
(lp2746
g48
(g69
g50
NtRp2747
(dp2748
g53
(dp2749
g73
g74
ssg62
g2743
sg55
(lp2750
S'generic_patterns'
p2751
asbag48
(g69
g50
NtRp2752
(dp2753
g53
(dp2754
g80
g81
ssg62
g2743
sg55
(lp2755
S':'
asbag48
(g69
g50
NtRp2756
(dp2757
g53
(dp2758
sg62
g2743
sg55
(lp2759
g48
(g49
g50
NtRp2760
(dp2761
g53
(dp2762
g61
I5
ssg62
g2756
sg55
(lp2763
g48
(g57
g50
NtRp2764
(dp2765
g53
(dp2766
g61
I4
ssg62
Nsg55
(lp2767
sbasbasbasbag48
(g64
g50
NtRp2768
(dp2769
g53
(dp2770
sg62
g2405
sg55
(lp2771
g48
(g69
g50
NtRp2772
(dp2773
g53
(dp2774
g73
g74
ssg62
g2768
sg55
(lp2775
S'headers'
p2776
asbag48
(g69
g50
NtRp2777
(dp2778
g53
(dp2779
g80
g81
ssg62
g2768
sg55
(lp2780
S':'
asbag48
(g69
g50
NtRp2781
(dp2782
g53
(dp2783
sg62
g2768
sg55
(lp2784
g48
(g49
g50
NtRp2785
(dp2786
g53
(dp2787
g61
I5
ssg62
g2781
sg55
(lp2788
g48
(g57
g50
NtRp2789
(dp2790
g53
(dp2791
g61
I4
ssg62
Nsg55
(lp2792
g48
(g64
g50
NtRp2793
(dp2794
g53
(dp2795
sg62
g2789
sg55
(lp2796
g48
(g69
g50
NtRp2797
(dp2798
g53
(dp2799
g73
g74
ssg62
g2793
sg55
(lp2800
S'Cache-Control'
p2801
asbag48
(g69
g50
NtRp2802
(dp2803
g53
(dp2804
g80
g81
ssg62
g2793
sg55
(lp2805
S':'
asbag48
(g69
g50
NtRp2806
(dp2807
g53
(dp2808
sg62
g2793
sg55
(lp2809
g48
(g49
g50
NtRp2810
(dp2811
g53
(dp2812
g61
I4
ssg62
g2806
sg55
(lp2813
S'no-store, no-cache, must-revalidate, post-check=0, pre-check=0'
p2814
asbasbasbag48
(g64
g50
NtRp2815
(dp2816
g53
(dp2817
sg62
g2789
sg55
(lp2818
g48
(g69
g50
NtRp2819
(dp2820
g53
(dp2821
g73
g74
ssg62
g2815
sg55
(lp2822
S'Content-Type'
p2823
asbag48
(g69
g50
NtRp2824
(dp2825
g53
(dp2826
g80
g81
ssg62
g2815
sg55
(lp2827
S':'
asbag48
(g69
g50
NtRp2828
(dp2829
g53
(dp2830
sg62
g2815
sg55
(lp2831
g48
(g49
g50
NtRp2832
(dp2833
g53
(dp2834
g61
I4
ssg62
g2828
sg55
(lp2835
S'text/html; charset=utf-8'
p2836
asbasbasbag48
(g64
g50
NtRp2837
(dp2838
g53
(dp2839
sg62
g2789
sg55
(lp2840
g48
(g69
g50
NtRp2841
(dp2842
g53
(dp2843
g73
g74
ssg62
g2837
sg55
(lp2844
S'Expires'
p2845
asbag48
(g69
g50
NtRp2846
(dp2847
g53
(dp2848
g80
g81
ssg62
g2837
sg55
(lp2849
S':'
asbag48
(g69
g50
NtRp2850
(dp2851
g53
(dp2852
sg62
g2837
sg55
(lp2853
g48
(g49
g50
NtRp2854
(dp2855
g53
(dp2856
g61
I4
ssg62
g2850
sg55
(lp2857
S'Tue, 20 Sep 2011 07:03:24 GMT'
p2858
asbasbasbag48
(g64
g50
NtRp2859
(dp2860
g53
(dp2861
sg62
g2789
sg55
(lp2862
g48
(g69
g50
NtRp2863
(dp2864
g53
(dp2865
g73
g74
ssg62
g2859
sg55
(lp2866
S'Pragma'
p2867
asbag48
(g69
g50
NtRp2868
(dp2869
g53
(dp2870
g80
g81
ssg62
g2859
sg55
(lp2871
S':'
asbag48
(g69
g50
NtRp2872
(dp2873
g53
(dp2874
sg62
g2859
sg55
(lp2875
g48
(g49
g50
NtRp2876
(dp2877
g53
(dp2878
g61
I4
ssg62
g2872
sg55
(lp2879
S'no-cache'
p2880
asbasbasbag48
(g64
g50
NtRp2881
(dp2882
g53
(dp2883
sg62
g2789
sg55
(lp2884
g48
(g69
g50
NtRp2885
(dp2886
g53
(dp2887
g73
g74
ssg62
g2881
sg55
(lp2888
S'X-Powered-By'
p2889
asbag48
(g69
g50
NtRp2890
(dp2891
g53
(dp2892
g80
g81
ssg62
g2881
sg55
(lp2893
S':'
asbag48
(g69
g50
NtRp2894
(dp2895
g53
(dp2896
sg62
g2881
sg55
(lp2897
g48
(g49
g50
NtRp2898
(dp2899
g53
(dp2900
g61
I4
ssg62
g2894
sg55
(lp2901
S'web2py'
p2902
asbasbasbasbasbasbasbag48
(g64
g50
NtRp2903
(dp2904
g53
(dp2905
sg62
g2405
sg55
(lp2906
g48
(g69
g50
NtRp2907
(dp2908
g53
(dp2909
g73
g74
ssg62
g2903
sg55
(lp2910
S'menu'
p2911
asbag48
(g69
g50
NtRp2912
(dp2913
g53
(dp2914
g80
g81
ssg62
g2903
sg55
(lp2915
S':'
asbag48
(g69
g50
NtRp2916
(dp2917
g53
(dp2918
sg62
g2903
sg55
(lp2919
g48
(g49
g50
NtRp2920
(dp2921
g53
(dp2922
g61
I5
ssg62
g2916
sg55
(lp2923
g48
(g57
g50
NtRp2924
(dp2925
g53
(dp2926
g61
I4
ssg62
Nsg55
(lp2927
g48
(g64
g50
NtRp2928
(dp2929
g53
(dp2930
sg62
g2924
sg55
(lp2931
g48
(g69
g50
NtRp2932
(dp2933
g53
(dp2934
sg62
g2928
sg55
(lp2935
g48
(g49
g50
NtRp2936
(dp2937
g53
(dp2938
g61
I4
ssg62
g2932
sg55
(lp2939
g48
(g57
g50
NtRp2940
(dp2941
g53
(dp2942
g61
I3
ssg62
Nsg55
(lp2943
g48
(g64
g50
NtRp2944
(dp2945
g53
(dp2946
sg62
g2940
sg55
(lp2947
g48
(g69
g50
NtRp2948
(dp2949
g53
(dp2950
sg62
g2944
sg55
(lp2951
g48
(g49
g50
NtRp2952
(dp2953
g53
(dp2954
g61
I3
ssg62
g2948
sg55
(lp2955
cgluon.languages
lazyT_unpickle
p2956
(S't\x04\x00\x00\x00Home'
tRp2957
asbasbasbag48
(g64
g50
NtRp2958
(dp2959
g53
(dp2960
sg62
g2940
sg55
(lp2961
g48
(g69
g50
NtRp2962
(dp2963
g53
(dp2964
sg62
g2958
sg55
(lp2965
g48
(g49
g50
NtRp2966
(dp2967
g53
(dp2968
g61
I3
ssg62
g2962
sg55
(lp2969
g91
asbasbasbag48
(g64
g50
NtRp2970
(dp2971
g53
(dp2972
sg62
g2940
sg55
(lp2973
g48
(g69
g50
NtRp2974
(dp2975
g53
(dp2976
sg62
g2970
sg55
(lp2977
g48
(g49
g50
NtRp2978
(dp2979
g53
(dp2980
g61
I3
ssg62
g2974
sg55
(lp2981
S'/Desglosar_Emails/default/index'
p2982
asbasbasbag48
(g64
g50
NtRp2983
(dp2984
g53
(dp2985
sg62
g2940
sg55
(lp2986
g48
(g69
g50
NtRp2987
(dp2988
g53
(dp2989
sg62
g2983
sg55
(lp2990
g48
(g49
g50
NtRp2991
(dp2992
g53
(dp2993
g61
I3
ssg62
g2987
sg55
(lp2994
g48
(g57
g50
NtRp2995
(dp2996
g53
(dp2997
g61
I2
ssg62
Nsg55
(lp2998
sbasbasbasbasbasbasbasbag48
(g64
g50
NtRp2999
(dp3000
g53
(dp3001
sg62
g2924
sg55
(lp3002
g48
(g69
g50
NtRp3003
(dp3004
g53
(dp3005
sg62
g2999
sg55
(lp3006
g48
(g49
g50
NtRp3007
(dp3008
g53
(dp3009
g61
I4
ssg62
g3003
sg55
(lp3010
g48
(g57
g50
NtRp3011
(dp3012
g53
(dp3013
g61
I3
ssg62
Nsg55
(lp3014
g48
(g64
g50
NtRp3015
(dp3016
g53
(dp3017
sg62
g3011
sg55
(lp3018
g48
(g69
g50
NtRp3019
(dp3020
g53
(dp3021
sg62
g3015
sg55
(lp3022
g48
(g49
g50
NtRp3023
(dp3024
g53
(dp3025
g61
I3
ssg62
g3019
sg55
(lp3026
g2956
(S's\x08\x00\x00\x00This App'
tRp3027
asbasbasbag48
(g64
g50
NtRp3028
(dp3029
g53
(dp3030
sg62
g3011
sg55
(lp3031
g48
(g69
g50
NtRp3032
(dp3033
g53
(dp3034
sg62
g3028
sg55
(lp3035
g48
(g49
g50
NtRp3036
(dp3037
g53
(dp3038
g61
I3
ssg62
g3032
sg55
(lp3039
g91
asbasbasbag48
(g64
g50
NtRp3040
(dp3041
g53
(dp3042
sg62
g3011
sg55
(lp3043
g48
(g69
g50
NtRp3044
(dp3045
g53
(dp3046
sg62
g3040
sg55
(lp3047
g48
(g49
g50
NtRp3048
(dp3049
g53
(dp3050
g61
I3
ssg62
g3044
sg55
(lp3051
S'/admin/default/design/Desglosar_Emails'
p3052
asbasbasbag48
(g64
g50
NtRp3053
(dp3054
g53
(dp3055
sg62
g3011
sg55
(lp3056
g48
(g69
g50
NtRp3057
(dp3058
g53
(dp3059
sg62
g3053
sg55
(lp3060
g48
(g49
g50
NtRp3061
(dp3062
g53
(dp3063
g61
I3
ssg62
g3057
sg55
(lp3064
g48
(g57
g50
NtRp3065
(dp3066
g53
(dp3067
g61
I2
ssg62
Nsg55
(lp3068
g48
(g64
g50
NtRp3069
(dp3070
g53
(dp3071
sg62
g3065
sg55
(lp3072
g48
(g69
g50
NtRp3073
(dp3074
g53
(dp3075
sg62
g3069
sg55
(lp3076
g48
(g49
g50
NtRp3077
(dp3078
g53
(dp3079
g61
I2
ssg62
g3073
sg55
(lp3080
g48
(g57
g50
NtRp3081
(dp3082
g53
(dp3083
g61
I1
ssg62
Nsg55
(lp3084
g48
(g64
g50
NtRp3085
(dp3086
g53
(dp3087
sg62
g3081
sg55
(lp3088
g48
(g69
g50
NtRp3089
(dp3090
g53
(dp3091
sg62
g3085
sg55
(lp3092
g48
(g49
g50
NtRp3093
(dp3094
g53
(dp3095
g61
I1
ssg62
g3089
sg55
(lp3096
g2956
(S't\x0b\x00\x00\x00Controlador'
tRp3097
asbasbasbag48
(g64
g50
NtRp3098
(dp3099
g53
(dp3100
sg62
g3081
sg55
(lp3101
g48
(g69
g50
NtRp3102
(dp3103
g53
(dp3104
sg62
g3098
sg55
(lp3105
g48
(g49
g50
NtRp3106
(dp3107
g53
(dp3108
g61
I1
ssg62
g3102
sg55
(lp3109
I00
asbasbasbag48
(g64
g50
NtRp3110
(dp3111
g53
(dp3112
sg62
g3081
sg55
(lp3113
g48
(g69
g50
NtRp3114
(dp3115
g53
(dp3116
sg62
g3110
sg55
(lp3117
g48
(g49
g50
NtRp3118
(dp3119
g53
(dp3120
g61
I1
ssg62
g3114
sg55
(lp3121
S'/admin/default/edit/Desglosar_Emails/controllers/default.py'
p3122
asbasbasbasbasbasbasbag48
(g64
g50
NtRp3123
(dp3124
g53
(dp3125
sg62
g3065
sg55
(lp3126
g48
(g69
g50
NtRp3127
(dp3128
g53
(dp3129
sg62
g3123
sg55
(lp3130
g48
(g49
g50
NtRp3131
(dp3132
g53
(dp3133
g61
I2
ssg62
g3127
sg55
(lp3134
g48
(g57
g50
NtRp3135
(dp3136
g53
(dp3137
g61
I1
ssg62
Nsg55
(lp3138
g48
(g64
g50
NtRp3139
(dp3140
g53
(dp3141
sg62
g3135
sg55
(lp3142
g48
(g69
g50
NtRp3143
(dp3144
g53
(dp3145
sg62
g3139
sg55
(lp3146
g48
(g49
g50
NtRp3147
(dp3148
g53
(dp3149
g61
I1
ssg62
g3143
sg55
(lp3150
g2956
(S't\x05\x00\x00\x00Vista'
tRp3151
asbasbasbag48
(g64
g50
NtRp3152
(dp3153
g53
(dp3154
sg62
g3135
sg55
(lp3155
g48
(g69
g50
NtRp3156
(dp3157
g53
(dp3158
sg62
g3152
sg55
(lp3159
g48
(g49
g50
NtRp3160
(dp3161
g53
(dp3162
g61
I1
ssg62
g3156
sg55
(lp3163
I00
asbasbasbag48
(g64
g50
NtRp3164
(dp3165
g53
(dp3166
sg62
g3135
sg55
(lp3167
g48
(g69
g50
NtRp3168
(dp3169
g53
(dp3170
sg62
g3164
sg55
(lp3171
g48
(g49
g50
NtRp3172
(dp3173
g53
(dp3174
g61
I1
ssg62
g3168
sg55
(lp3175
S'/admin/default/edit/Desglosar_Emails/views/default/entrada_mod3.html'
p3176
asbasbasbasbasbasbasbag48
(g64
g50
NtRp3177
(dp3178
g53
(dp3179
sg62
g3065
sg55
(lp3180
g48
(g69
g50
NtRp3181
(dp3182
g53
(dp3183
sg62
g3177
sg55
(lp3184
g48
(g49
g50
NtRp3185
(dp3186
g53
(dp3187
g61
I2
ssg62
g3181
sg55
(lp3188
g48
(g57
g50
NtRp3189
(dp3190
g53
(dp3191
g61
I1
ssg62
Nsg55
(lp3192
g48
(g64
g50
NtRp3193
(dp3194
g53
(dp3195
sg62
g3189
sg55
(lp3196
g48
(g69
g50
NtRp3197
(dp3198
g53
(dp3199
sg62
g3193
sg55
(lp3200
g48
(g49
g50
NtRp3201
(dp3202
g53
(dp3203
g61
I1
ssg62
g3197
sg55
(lp3204
g2956
(S's\x12\x00\x00\x00Dise\xc3\xb1o de p\xc3\xa1gina'
tRp3205
asbasbasbag48
(g64
g50
NtRp3206
(dp3207
g53
(dp3208
sg62
g3189
sg55
(lp3209
g48
(g69
g50
NtRp3210
(dp3211
g53
(dp3212
sg62
g3206
sg55
(lp3213
g48
(g49
g50
NtRp3214
(dp3215
g53
(dp3216
g61
I1
ssg62
g3210
sg55
(lp3217
I00
asbasbasbag48
(g64
g50
NtRp3218
(dp3219
g53
(dp3220
sg62
g3189
sg55
(lp3221
g48
(g69
g50
NtRp3222
(dp3223
g53
(dp3224
sg62
g3218
sg55
(lp3225
g48
(g49
g50
NtRp3226
(dp3227
g53
(dp3228
g61
I1
ssg62
g3222
sg55
(lp3229
S'/admin/default/edit/Desglosar_Emails/views/layout.html'
p3230
asbasbasbasbasbasbasbag48
(g64
g50
NtRp3231
(dp3232
g53
(dp3233
sg62
g3065
sg55
(lp3234
g48
(g69
g50
NtRp3235
(dp3236
g53
(dp3237
sg62
g3231
sg55
(lp3238
g48
(g49
g50
NtRp3239
(dp3240
g53
(dp3241
g61
I2
ssg62
g3235
sg55
(lp3242
g48
(g57
g50
NtRp3243
(dp3244
g53
(dp3245
g61
I1
ssg62
Nsg55
(lp3246
g48
(g64
g50
NtRp3247
(dp3248
g53
(dp3249
sg62
g3243
sg55
(lp3250
g48
(g69
g50
NtRp3251
(dp3252
g53
(dp3253
sg62
g3247
sg55
(lp3254
g48
(g49
g50
NtRp3255
(dp3256
g53
(dp3257
g61
I1
ssg62
g3251
sg55
(lp3258
g2956
(S's\x0e\x00\x00\x00Hoja de estilo'
tRp3259
asbasbasbag48
(g64
g50
NtRp3260
(dp3261
g53
(dp3262
sg62
g3243
sg55
(lp3263
g48
(g69
g50
NtRp3264
(dp3265
g53
(dp3266
sg62
g3260
sg55
(lp3267
g48
(g49
g50
NtRp3268
(dp3269
g53
(dp3270
g61
I1
ssg62
g3264
sg55
(lp3271
I00
asbasbasbag48
(g64
g50
NtRp3272
(dp3273
g53
(dp3274
sg62
g3243
sg55
(lp3275
g48
(g69
g50
NtRp3276
(dp3277
g53
(dp3278
sg62
g3272
sg55
(lp3279
g48
(g49
g50
NtRp3280
(dp3281
g53
(dp3282
g61
I1
ssg62
g3276
sg55
(lp3283
S'/admin/default/edit/Desglosar_Emails/static/base.css'
p3284
asbasbasbasbasbasbasbag48
(g64
g50
NtRp3285
(dp3286
g53
(dp3287
sg62
g3065
sg55
(lp3288
g48
(g69
g50
NtRp3289
(dp3290
g53
(dp3291
sg62
g3285
sg55
(lp3292
g48
(g49
g50
NtRp3293
(dp3294
g53
(dp3295
g61
I2
ssg62
g3289
sg55
(lp3296
g48
(g57
g50
NtRp3297
(dp3298
g53
(dp3299
g61
I1
ssg62
Nsg55
(lp3300
g48
(g64
g50
NtRp3301
(dp3302
g53
(dp3303
sg62
g3297
sg55
(lp3304
g48
(g69
g50
NtRp3305
(dp3306
g53
(dp3307
sg62
g3301
sg55
(lp3308
g48
(g49
g50
NtRp3309
(dp3310
g53
(dp3311
g61
I1
ssg62
g3305
sg55
(lp3312
g2956
(S's\x0b\x00\x00\x00Modelo "db"'
tRp3313
asbasbasbag48
(g64
g50
NtRp3314
(dp3315
g53
(dp3316
sg62
g3297
sg55
(lp3317
g48
(g69
g50
NtRp3318
(dp3319
g53
(dp3320
sg62
g3314
sg55
(lp3321
g48
(g49
g50
NtRp3322
(dp3323
g53
(dp3324
g61
I1
ssg62
g3318
sg55
(lp3325
I00
asbasbasbag48
(g64
g50
NtRp3326
(dp3327
g53
(dp3328
sg62
g3297
sg55
(lp3329
g48
(g69
g50
NtRp3330
(dp3331
g53
(dp3332
sg62
g3326
sg55
(lp3333
g48
(g49
g50
NtRp3334
(dp3335
g53
(dp3336
g61
I1
ssg62
g3330
sg55
(lp3337
S'/admin/default/edit/Desglosar_Emails/models/db.py'
p3338
asbasbasbasbasbasbasbag48
(g64
g50
NtRp3339
(dp3340
g53
(dp3341
sg62
g3065
sg55
(lp3342
g48
(g69
g50
NtRp3343
(dp3344
g53
(dp3345
sg62
g3339
sg55
(lp3346
g48
(g49
g50
NtRp3347
(dp3348
g53
(dp3349
g61
I2
ssg62
g3343
sg55
(lp3350
g48
(g57
g50
NtRp3351
(dp3352
g53
(dp3353
g61
I1
ssg62
Nsg55
(lp3354
g48
(g64
g50
NtRp3355
(dp3356
g53
(dp3357
sg62
g3351
sg55
(lp3358
g48
(g69
g50
NtRp3359
(dp3360
g53
(dp3361
sg62
g3355
sg55
(lp3362
g48
(g49
g50
NtRp3363
(dp3364
g53
(dp3365
g61
I1
ssg62
g3359
sg55
(lp3366
g2956
(S's\r\x00\x00\x00Modelo "menu"'
tRp3367
asbasbasbag48
(g64
g50
NtRp3368
(dp3369
g53
(dp3370
sg62
g3351
sg55
(lp3371
g48
(g69
g50
NtRp3372
(dp3373
g53
(dp3374
sg62
g3368
sg55
(lp3375
g48
(g49
g50
NtRp3376
(dp3377
g53
(dp3378
g61
I1
ssg62
g3372
sg55
(lp3379
I00
asbasbasbag48
(g64
g50
NtRp3380
(dp3381
g53
(dp3382
sg62
g3351
sg55
(lp3383
g48
(g69
g50
NtRp3384
(dp3385
g53
(dp3386
sg62
g3380
sg55
(lp3387
g48
(g49
g50
NtRp3388
(dp3389
g53
(dp3390
g61
I1
ssg62
g3384
sg55
(lp3391
S'/admin/default/edit/Desglosar_Emails/models/menu.py'
p3392
asbasbasbasbasbasbasbag48
(g64
g50
NtRp3393
(dp3394
g53
(dp3395
sg62
g3065
sg55
(lp3396
g48
(g69
g50
NtRp3397
(dp3398
g53
(dp3399
sg62
g3393
sg55
(lp3400
g48
(g49
g50
NtRp3401
(dp3402
g53
(dp3403
g61
I2
ssg62
g3397
sg55
(lp3404
g48
(g57
g50
NtRp3405
(dp3406
g53
(dp3407
g61
I1
ssg62
Nsg55
(lp3408
g48
(g64
g50
NtRp3409
(dp3410
g53
(dp3411
sg62
g3405
sg55
(lp3412
g48
(g69
g50
NtRp3413
(dp3414
g53
(dp3415
sg62
g3409
sg55
(lp3416
g48
(g49
g50
NtRp3417
(dp3418
g53
(dp3419
g61
I1
ssg62
g3413
sg55
(lp3420
g2956
(S's\r\x00\x00\x00Base de datos'
tRp3421
asbasbasbag48
(g64
g50
NtRp3422
(dp3423
g53
(dp3424
sg62
g3405
sg55
(lp3425
g48
(g69
g50
NtRp3426
(dp3427
g53
(dp3428
sg62
g3422
sg55
(lp3429
g48
(g49
g50
NtRp3430
(dp3431
g53
(dp3432
g61
I1
ssg62
g3426
sg55
(lp3433
I00
asbasbasbag48
(g64
g50
NtRp3434
(dp3435
g53
(dp3436
sg62
g3405
sg55
(lp3437
g48
(g69
g50
NtRp3438
(dp3439
g53
(dp3440
sg62
g3434
sg55
(lp3441
g48
(g49
g50
NtRp3442
(dp3443
g53
(dp3444
g61
I1
ssg62
g3438
sg55
(lp3445
S'/Desglosar_Emails/appadmin/index'
p3446
asbasbasbasbasbasbasbag48
(g64
g50
NtRp3447
(dp3448
g53
(dp3449
sg62
g3065
sg55
(lp3450
g48
(g69
g50
NtRp3451
(dp3452
g53
(dp3453
sg62
g3447
sg55
(lp3454
g48
(g49
g50
NtRp3455
(dp3456
g53
(dp3457
g61
I2
ssg62
g3451
sg55
(lp3458
g48
(g57
g50
NtRp3459
(dp3460
g53
(dp3461
g61
I1
ssg62
Nsg55
(lp3462
g48
(g64
g50
NtRp3463
(dp3464
g53
(dp3465
sg62
g3459
sg55
(lp3466
g48
(g69
g50
NtRp3467
(dp3468
g53
(dp3469
sg62
g3463
sg55
(lp3470
g48
(g49
g50
NtRp3471
(dp3472
g53
(dp3473
g61
I1
ssg62
g3467
sg55
(lp3474
g2956
(S't\x06\x00\x00\x00Errors'
tRp3475
asbasbasbag48
(g64
g50
NtRp3476
(dp3477
g53
(dp3478
sg62
g3459
sg55
(lp3479
g48
(g69
g50
NtRp3480
(dp3481
g53
(dp3482
sg62
g3476
sg55
(lp3483
g48
(g49
g50
NtRp3484
(dp3485
g53
(dp3486
g61
I1
ssg62
g3480
sg55
(lp3487
I00
asbasbasbag48
(g64
g50
NtRp3488
(dp3489
g53
(dp3490
sg62
g3459
sg55
(lp3491
g48
(g69
g50
NtRp3492
(dp3493
g53
(dp3494
sg62
g3488
sg55
(lp3495
g48
(g49
g50
NtRp3496
(dp3497
g53
(dp3498
g61
I1
ssg62
g3492
sg55
(lp3499
S'/admin/default/errors/Desglosar_Emails'
p3500
asbasbasbasbasbasbasbag48
(g64
g50
NtRp3501
(dp3502
g53
(dp3503
sg62
g3065
sg55
(lp3504
g48
(g69
g50
NtRp3505
(dp3506
g53
(dp3507
sg62
g3501
sg55
(lp3508
g48
(g49
g50
NtRp3509
(dp3510
g53
(dp3511
g61
I2
ssg62
g3505
sg55
(lp3512
g48
(g57
g50
NtRp3513
(dp3514
g53
(dp3515
g61
I1
ssg62
Nsg55
(lp3516
g48
(g64
g50
NtRp3517
(dp3518
g53
(dp3519
sg62
g3513
sg55
(lp3520
g48
(g69
g50
NtRp3521
(dp3522
g53
(dp3523
sg62
g3517
sg55
(lp3524
g48
(g49
g50
NtRp3525
(dp3526
g53
(dp3527
g61
I1
ssg62
g3521
sg55
(lp3528
g2956
(S's\t\x00\x00\x00Acerca de'
tRp3529
asbasbasbag48
(g64
g50
NtRp3530
(dp3531
g53
(dp3532
sg62
g3513
sg55
(lp3533
g48
(g69
g50
NtRp3534
(dp3535
g53
(dp3536
sg62
g3530
sg55
(lp3537
g48
(g49
g50
NtRp3538
(dp3539
g53
(dp3540
g61
I1
ssg62
g3534
sg55
(lp3541
I00
asbasbasbag48
(g64
g50
NtRp3542
(dp3543
g53
(dp3544
sg62
g3513
sg55
(lp3545
g48
(g69
g50
NtRp3546
(dp3547
g53
(dp3548
sg62
g3542
sg55
(lp3549
g48
(g49
g50
NtRp3550
(dp3551
g53
(dp3552
g61
I1
ssg62
g3546
sg55
(lp3553
S'/admin/default/about/Desglosar_Emails'
p3554
asbasbasbasbasbasbasbasbasbasbasbasbasbasbasbag48
(g64
g50
NtRp3555
(dp3556
g53
(dp3557
sg62
g2924
sg55
(lp3558
g48
(g69
g50
NtRp3559
(dp3560
g53
(dp3561
sg62
g3555
sg55
(lp3562
g48
(g49
g50
NtRp3563
(dp3564
g53
(dp3565
g61
I4
ssg62
g3559
sg55
(lp3566
g48
(g57
g50
NtRp3567
(dp3568
g53
(dp3569
g61
I3
ssg62
Nsg55
(lp3570
g48
(g64
g50
NtRp3571
(dp3572
g53
(dp3573
sg62
g3567
sg55
(lp3574
g48
(g69
g50
NtRp3575
(dp3576
g53
(dp3577
sg62
g3571
sg55
(lp3578
g48
(g49
g50
NtRp3579
(dp3580
g53
(dp3581
g61
I3
ssg62
g3575
sg55
(lp3582
g2956
(S't\t\x00\x00\x00Resources'
tRp3583
asbasbasbag48
(g64
g50
NtRp3584
(dp3585
g53
(dp3586
sg62
g3567
sg55
(lp3587
g48
(g69
g50
NtRp3588
(dp3589
g53
(dp3590
sg62
g3584
sg55
(lp3591
g48
(g49
g50
NtRp3592
(dp3593
g53
(dp3594
g61
I3
ssg62
g3588
sg55
(lp3595
g91
asbasbasbag48
(g64
g50
NtRp3596
(dp3597
g53
(dp3598
sg62
g3567
sg55
(lp3599
g48
(g69
g50
NtRp3600
(dp3601
g53
(dp3602
sg62
g3596
sg55
(lp3603
g48
(g49
g50
NtRp3604
(dp3605
g53
(dp3606
g61
I3
ssg62
g3600
sg55
(lp3607
S'None'
p3608
asbasbasbag48
(g64
g50
NtRp3609
(dp3610
g53
(dp3611
sg62
g3567
sg55
(lp3612
g48
(g69
g50
NtRp3613
(dp3614
g53
(dp3615
sg62
g3609
sg55
(lp3616
g48
(g49
g50
NtRp3617
(dp3618
g53
(dp3619
g61
I3
ssg62
g3613
sg55
(lp3620
g48
(g57
g50
NtRp3621
(dp3622
g53
(dp3623
g61
I2
ssg62
Nsg55
(lp3624
g48
(g64
g50
NtRp3625
(dp3626
g53
(dp3627
sg62
g3621
sg55
(lp3628
g48
(g69
g50
NtRp3629
(dp3630
g53
(dp3631
sg62
g3625
sg55
(lp3632
g48
(g49
g50
NtRp3633
(dp3634
g53
(dp3635
g61
I2
ssg62
g3629
sg55
(lp3636
g48
(g57
g50
NtRp3637
(dp3638
g53
(dp3639
g61
I1
ssg62
Nsg55
(lp3640
g48
(g64
g50
NtRp3641
(dp3642
g53
(dp3643
sg62
g3637
sg55
(lp3644
g48
(g69
g50
NtRp3645
(dp3646
g53
(dp3647
sg62
g3641
sg55
(lp3648
g48
(g49
g50
NtRp3649
(dp3650
g53
(dp3651
g61
I1
ssg62
g3645
sg55
(lp3652
g2956
(S's\x0e\x00\x00\x00Documentaci\xc3\xb3n'
tRp3653
asbasbasbag48
(g64
g50
NtRp3654
(dp3655
g53
(dp3656
sg62
g3637
sg55
(lp3657
g48
(g69
g50
NtRp3658
(dp3659
g53
(dp3660
sg62
g3654
sg55
(lp3661
g48
(g49
g50
NtRp3662
(dp3663
g53
(dp3664
g61
I1
ssg62
g3658
sg55
(lp3665
I00
asbasbasbag48
(g64
g50
NtRp3666
(dp3667
g53
(dp3668
sg62
g3637
sg55
(lp3669
g48
(g69
g50
NtRp3670
(dp3671
g53
(dp3672
sg62
g3666
sg55
(lp3673
g48
(g49
g50
NtRp3674
(dp3675
g53
(dp3676
g61
I1
ssg62
g3670
sg55
(lp3677
S'http://www.web2py.com/book'
p3678
asbasbasbag48
(g64
g50
NtRp3679
(dp3680
g53
(dp3681
sg62
g3637
sg55
(lp3682
g48
(g69
g50
NtRp3683
(dp3684
g53
(dp3685
sg62
g3679
sg55
(lp3686
g48
(g49
g50
NtRp3687
(dp3688
g53
(dp3689
g61
I1
ssg62
g3683
sg55
(lp3690
(lp3691
(g2956
(S't\x07\x00\x00\x00Preface'
tRp3692
I00
S'http://www.web2py.com/book/default/chapter/00'
tp3693
a(g2956
(S't\x0c\x00\x00\x00Introduction'
tRp3694
I00
S'http://www.web2py.com/book/default/chapter/01'
tp3695
a(g2956
(S't\x06\x00\x00\x00Python'
tRp3696
I00
S'http://www.web2py.com/book/default/chapter/02'
tp3697
a(g2956
(S't\x08\x00\x00\x00Overview'
tRp3698
I00
S'http://www.web2py.com/book/default/chapter/03'
tp3699
a(g2956
(S's\x08\x00\x00\x00The Core'
tRp3700
I00
S'http://www.web2py.com/book/default/chapter/04'
tp3701
a(g2956
(S's\t\x00\x00\x00The Views'
tRp3702
I00
S'http://www.web2py.com/book/default/chapter/05'
tp3703
a(g2956
(S's\r\x00\x00\x00Base de datos'
tRp3704
I00
S'http://www.web2py.com/book/default/chapter/06'
tp3705
a(g2956
(S's\x14\x00\x00\x00Forms and Validators'
tRp3706
I00
S'http://www.web2py.com/book/default/chapter/07'
tp3707
a(g2956
(S's\x0e\x00\x00\x00Access Control'
tRp3708
I00
S'http://www.web2py.com/book/default/chapter/08'
tp3709
a(g2956
(S't\x08\x00\x00\x00Services'
tRp3710
I00
S'http://www.web2py.com/book/default/chapter/09'
tp3711
a(g2956
(S's\x0c\x00\x00\x00Ajax Recipes'
tRp3712
I00
S'http://www.web2py.com/book/default/chapter/10'
tp3713
a(g2956
(S's\x12\x00\x00\x00Deployment Recipes'
tRp3714
I00
S'http://www.web2py.com/book/default/chapter/11'
tp3715
a(g2956
(S's\r\x00\x00\x00Other Recipes'
tRp3716
I00
S'http://www.web2py.com/book/default/chapter/12'
tp3717
a(g2956
(S's\r\x00\x00\x00Buy this book'
tRp3718
I00
S'http://stores.lulu.com/web2py'
tp3719
aasbasbasbasbasbasbasbag48
(g64
g50
NtRp3720
(dp3721
g53
(dp3722
sg62
g3621
sg55
(lp3723
g48
(g69
g50
NtRp3724
(dp3725
g53
(dp3726
sg62
g3720
sg55
(lp3727
g48
(g49
g50
NtRp3728
(dp3729
g53
(dp3730
g61
I2
ssg62
g3724
sg55
(lp3731
g48
(g57
g50
NtRp3732
(dp3733
g53
(dp3734
g61
I1
ssg62
Nsg55
(lp3735
g48
(g64
g50
NtRp3736
(dp3737
g53
(dp3738
sg62
g3732
sg55
(lp3739
g48
(g69
g50
NtRp3740
(dp3741
g53
(dp3742
sg62
g3736
sg55
(lp3743
g48
(g49
g50
NtRp3744
(dp3745
g53
(dp3746
g61
I1
ssg62
g3740
sg55
(lp3747
g2956
(S't\t\x00\x00\x00Community'
tRp3748
asbasbasbag48
(g64
g50
NtRp3749
(dp3750
g53
(dp3751
sg62
g3732
sg55
(lp3752
g48
(g69
g50
NtRp3753
(dp3754
g53
(dp3755
sg62
g3749
sg55
(lp3756
g48
(g49
g50
NtRp3757
(dp3758
g53
(dp3759
g61
I1
ssg62
g3753
sg55
(lp3760
I00
asbasbasbag48
(g64
g50
NtRp3761
(dp3762
g53
(dp3763
sg62
g3732
sg55
(lp3764
g48
(g69
g50
NtRp3765
(dp3766
g53
(dp3767
sg62
g3761
sg55
(lp3768
g48
(g49
g50
NtRp3769
(dp3770
g53
(dp3771
g61
I1
ssg62
g3765
sg55
(lp3772
Nasbasbasbag48
(g64
g50
NtRp3773
(dp3774
g53
(dp3775
sg62
g3732
sg55
(lp3776
g48
(g69
g50
NtRp3777
(dp3778
g53
(dp3779
sg62
g3773
sg55
(lp3780
g48
(g49
g50
NtRp3781
(dp3782
g53
(dp3783
g61
I1
ssg62
g3777
sg55
(lp3784
(lp3785
(g2956
(S't\x06\x00\x00\x00Groups'
tRp3786
I00
S'http://www.web2py.com/examples/default/usergroups'
tp3787
a(g2956
(S't\x07\x00\x00\x00Twitter'
tRp3788
I00
S'http://twitter.com/web2py'
tp3789
a(g2956
(S's\t\x00\x00\x00Live chat'
tRp3790
I00
S'http://mibbit.com/?channel=%23web2py&server=irc.mibbit.net'
tp3791
a(g2956
(S's\n\x00\x00\x00User Voice'
tRp3792
I00
S'http://web2py.uservoice.com/'
tp3793
aasbasbasbasbasbasbasbag48
(g64
g50
NtRp3794
(dp3795
g53
(dp3796
sg62
g3621
sg55
(lp3797
g48
(g69
g50
NtRp3798
(dp3799
g53
(dp3800
sg62
g3794
sg55
(lp3801
g48
(g49
g50
NtRp3802
(dp3803
g53
(dp3804
g61
I2
ssg62
g3798
sg55
(lp3805
g48
(g57
g50
NtRp3806
(dp3807
g53
(dp3808
g61
I1
ssg62
Nsg55
(lp3809
g48
(g64
g50
NtRp3810
(dp3811
g53
(dp3812
sg62
g3806
sg55
(lp3813
g48
(g69
g50
NtRp3814
(dp3815
g53
(dp3816
sg62
g3810
sg55
(lp3817
g48
(g49
g50
NtRp3818
(dp3819
g53
(dp3820
g61
I1
ssg62
g3814
sg55
(lp3821
g2956
(S't\x06\x00\x00\x00Web2py'
tRp3822
asbasbasbag48
(g64
g50
NtRp3823
(dp3824
g53
(dp3825
sg62
g3806
sg55
(lp3826
g48
(g69
g50
NtRp3827
(dp3828
g53
(dp3829
sg62
g3823
sg55
(lp3830
g48
(g49
g50
NtRp3831
(dp3832
g53
(dp3833
g61
I1
ssg62
g3827
sg55
(lp3834
I00
asbasbasbag48
(g64
g50
NtRp3835
(dp3836
g53
(dp3837
sg62
g3806
sg55
(lp3838
g48
(g69
g50
NtRp3839
(dp3840
g53
(dp3841
sg62
g3835
sg55
(lp3842
g48
(g49
g50
NtRp3843
(dp3844
g53
(dp3845
g61
I1
ssg62
g3839
sg55
(lp3846
S'http://www.web2py.com'
p3847
asbasbasbag48
(g64
g50
NtRp3848
(dp3849
g53
(dp3850
sg62
g3806
sg55
(lp3851
g48
(g69
g50
NtRp3852
(dp3853
g53
(dp3854
sg62
g3848
sg55
(lp3855
g48
(g49
g50
NtRp3856
(dp3857
g53
(dp3858
g61
I1
ssg62
g3852
sg55
(lp3859
(lp3860
(g2956
(S't\x08\x00\x00\x00Download'
tRp3861
I00
S'http://www.web2py.com/examples/default/download'
tp3862
a(g2956
(S't\x07\x00\x00\x00Support'
tRp3863
I00
S'http://www.web2py.com/examples/default/support'
tp3864
a(g2956
(S's\x0e\x00\x00\x00Quick Examples'
tRp3865
I00
S'http://web2py.com/examples/default/examples'
tp3866
a(g2956
(S't\x03\x00\x00\x00FAQ'
tRp3867
I00
S'http://web2py.com/AlterEgo'
tp3868
a(g2956
(S's\x11\x00\x00\x00Free Applications'
tRp3869
I00
S'http://web2py.com/appliances'
tp3870
a(g2956
(S't\x07\x00\x00\x00Plugins'
tRp3871
I00
S'http://web2py.com/plugins'
tp3872
a(g2956
(S't\x07\x00\x00\x00Recipes'
tRp3873
I00
S'http://web2pyslices.com/'
tp3874
a(g2956
(S't\x04\x00\x00\x00Demo'
tRp3875
I00
S'http://web2py.com/demo_admin'
tp3876
a(g2956
(S't\x08\x00\x00\x00Semantic'
tRp3877
I00
S'http://web2py.com/semantic'
tp3878
a(g2956
(S't\x07\x00\x00\x00Layouts'
tRp3879
I00
S'http://web2py.com/layouts'
tp3880
a(g2956
(S't\x06\x00\x00\x00Videos'
tRp3881
I00
S'http://www.web2py.com/examples/default/videos/'
tp3882
aasbasbasbasbasbasbasbasbasbasbasbasbasbasbasbasbasbasbasbag48
(g64
g50
NtRp3883
(dp3884
g53
(dp3885
sg62
g2405
sg55
(lp3886
g48
(g69
g50
NtRp3887
(dp3888
g53
(dp3889
g73
g74
ssg62
g3883
sg55
(lp3890
S'meta'
p3891
asbag48
(g69
g50
NtRp3892
(dp3893
g53
(dp3894
g80
g81
ssg62
g3883
sg55
(lp3895
S':'
asbag48
(g69
g50
NtRp3896
(dp3897
g53
(dp3898
sg62
g3883
sg55
(lp3899
g48
(g49
g50
NtRp3900
(dp3901
g53
(dp3902
g61
I5
ssg62
g3896
sg55
(lp3903
g48
(g57
g50
NtRp3904
(dp3905
g53
(dp3906
g61
I4
ssg62
Nsg55
(lp3907
g48
(g64
g50
NtRp3908
(dp3909
g53
(dp3910
sg62
g3904
sg55
(lp3911
g48
(g69
g50
NtRp3912
(dp3913
g53
(dp3914
g73
g74
ssg62
g3908
sg55
(lp3915
S'author'
p3916
asbag48
(g69
g50
NtRp3917
(dp3918
g53
(dp3919
g80
g81
ssg62
g3908
sg55
(lp3920
S':'
asbag48
(g69
g50
NtRp3921
(dp3922
g53
(dp3923
sg62
g3908
sg55
(lp3924
g48
(g49
g50
NtRp3925
(dp3926
g53
(dp3927
g61
I4
ssg62
g3921
sg55
(lp3928
S'you'
p3929
asbasbasbag48
(g64
g50
NtRp3930
(dp3931
g53
(dp3932
sg62
g3904
sg55
(lp3933
g48
(g69
g50
NtRp3934
(dp3935
g53
(dp3936
g73
g74
ssg62
g3930
sg55
(lp3937
S'copyright'
p3938
asbag48
(g69
g50
NtRp3939
(dp3940
g53
(dp3941
g80
g81
ssg62
g3930
sg55
(lp3942
S':'
asbag48
(g69
g50
NtRp3943
(dp3944
g53
(dp3945
sg62
g3930
sg55
(lp3946
g48
(g49
g50
NtRp3947
(dp3948
g53
(dp3949
g61
I4
ssg62
g3943
sg55
(lp3950
S'Copyright 2007-2010'
p3951
asbasbasbag48
(g64
g50
NtRp3952
(dp3953
g53
(dp3954
sg62
g3904
sg55
(lp3955
g48
(g69
g50
NtRp3956
(dp3957
g53
(dp3958
g73
g74
ssg62
g3952
sg55
(lp3959
S'description'
p3960
asbag48
(g69
g50
NtRp3961
(dp3962
g53
(dp3963
g80
g81
ssg62
g3952
sg55
(lp3964
S':'
asbag48
(g69
g50
NtRp3965
(dp3966
g53
(dp3967
sg62
g3952
sg55
(lp3968
g48
(g49
g50
NtRp3969
(dp3970
g53
(dp3971
g61
I4
ssg62
g3965
sg55
(lp3972
S'Free and open source full-stack enterprise framework for agile development of fast, scalable, secure and portable database-driven web-based applications. Written and programmable in Python'
p3973
asbasbasbag48
(g64
g50
NtRp3974
(dp3975
g53
(dp3976
sg62
g3904
sg55
(lp3977
g48
(g69
g50
NtRp3978
(dp3979
g53
(dp3980
g73
g74
ssg62
g3974
sg55
(lp3981
S'generator'
p3982
asbag48
(g69
g50
NtRp3983
(dp3984
g53
(dp3985
g80
g81
ssg62
g3974
sg55
(lp3986
S':'
asbag48
(g69
g50
NtRp3987
(dp3988
g53
(dp3989
sg62
g3974
sg55
(lp3990
g48
(g49
g50
NtRp3991
(dp3992
g53
(dp3993
g61
I4
ssg62
g3987
sg55
(lp3994
S'Web2py Enterprise Framework'
p3995
asbasbasbag48
(g64
g50
NtRp3996
(dp3997
g53
(dp3998
sg62
g3904
sg55
(lp3999
g48
(g69
g50
NtRp4000
(dp4001
g53
(dp4002
g73
g74
ssg62
g3996
sg55
(lp4003
S'keywords'
p4004
asbag48
(g69
g50
NtRp4005
(dp4006
g53
(dp4007
g80
g81
ssg62
g3996
sg55
(lp4008
S':'
asbag48
(g69
g50
NtRp4009
(dp4010
g53
(dp4011
sg62
g3996
sg55
(lp4012
g48
(g49
g50
NtRp4013
(dp4014
g53
(dp4015
g61
I4
ssg62
g4009
sg55
(lp4016
S'web2py, python, framework'
p4017
asbasbasbasbasbasbasbag48
(g64
g50
NtRp4018
(dp4019
g53
(dp4020
sg62
g2405
sg55
(lp4021
g48
(g69
g50
NtRp4022
(dp4023
g53
(dp4024
g73
g74
ssg62
g4018
sg55
(lp4025
S'postprocessing'
p4026
asbag48
(g69
g50
NtRp4027
(dp4028
g53
(dp4029
g80
g81
ssg62
g4018
sg55
(lp4030
S':'
asbag48
(g69
g50
NtRp4031
(dp4032
g53
(dp4033
sg62
g4018
sg55
(lp4034
g48
(g49
g50
NtRp4035
(dp4036
g53
(dp4037
g61
I5
ssg62
g4031
sg55
(lp4038
g48
(g57
g50
NtRp4039
(dp4040
g53
(dp4041
g61
I4
ssg62
Nsg55
(lp4042
sbasbasbasbag48
(g64
g50
NtRp4043
(dp4044
g53
(dp4045
sg62
g2405
sg55
(lp4046
g48
(g69
g50
NtRp4047
(dp4048
g53
(dp4049
g73
g74
ssg62
g4043
sg55
(lp4050
S'session_filename'
p4051
asbag48
(g69
g50
NtRp4052
(dp4053
g53
(dp4054
g80
g81
ssg62
g4043
sg55
(lp4055
S':'
asbag48
(g69
g50
NtRp4056
(dp4057
g53
(dp4058
sg62
g4043
sg55
(lp4059
g48
(g49
g50
NtRp4060
(dp4061
g53
(dp4062
g61
I5
ssg62
g4056
sg55
(lp4063
S'C:\\Users\\Atomico\\web2py\\applications\\Desglosar_Emails\\sessions\\127.0.0.1-f43ac956-680a-43e2-b099-f18851219e85'
p4064
asbasbasbag48
(g64
g50
NtRp4065
(dp4066
g53
(dp4067
sg62
g2405
sg55
(lp4068
g48
(g69
g50
NtRp4069
(dp4070
g53
(dp4071
g73
g74
ssg62
g4065
sg55
(lp4072
S'session_id'
p4073
asbag48
(g69
g50
NtRp4074
(dp4075
g53
(dp4076
g80
g81
ssg62
g4065
sg55
(lp4077
S':'
asbag48
(g69
g50
NtRp4078
(dp4079
g53
(dp4080
sg62
g4065
sg55
(lp4081
g48
(g49
g50
NtRp4082
(dp4083
g53
(dp4084
g61
I5
ssg62
g4078
sg55
(lp4085
S'127.0.0.1-f43ac956-680a-43e2-b099-f18851219e85'
p4086
asbasbasbag48
(g64
g50
NtRp4087
(dp4088
g53
(dp4089
sg62
g2405
sg55
(lp4090
g48
(g69
g50
NtRp4091
(dp4092
g53
(dp4093
g73
g74
ssg62
g4087
sg55
(lp4094
S'session_id_name'
p4095
asbag48
(g69
g50
NtRp4096
(dp4097
g53
(dp4098
g80
g81
ssg62
g4087
sg55
(lp4099
S':'
asbag48
(g69
g50
NtRp4100
(dp4101
g53
(dp4102
sg62
g4087
sg55
(lp4103
g48
(g49
g50
NtRp4104
(dp4105
g53
(dp4106
g61
I5
ssg62
g4100
sg55
(lp4107
g2462
asbasbasbag48
(g64
g50
NtRp4108
(dp4109
g53
(dp4110
sg62
g2405
sg55
(lp4111
g48
(g69
g50
NtRp4112
(dp4113
g53
(dp4114
g73
g74
ssg62
g4108
sg55
(lp4115
S'session_new'
p4116
asbag48
(g69
g50
NtRp4117
(dp4118
g53
(dp4119
g80
g81
ssg62
g4108
sg55
(lp4120
S':'
asbag48
(g69
g50
NtRp4121
(dp4122
g53
(dp4123
sg62
g4108
sg55
(lp4124
g48
(g49
g50
NtRp4125
(dp4126
g53
(dp4127
g61
I5
ssg62
g4121
sg55
(lp4128
g1356
asbasbasbag48
(g64
g50
NtRp4129
(dp4130
g53
(dp4131
sg62
g2405
sg55
(lp4132
g48
(g69
g50
NtRp4133
(dp4134
g53
(dp4135
g73
g74
ssg62
g4129
sg55
(lp4136
S'status'
p4137
asbag48
(g69
g50
NtRp4138
(dp4139
g53
(dp4140
g80
g81
ssg62
g4129
sg55
(lp4141
S':'
asbag48
(g69
g50
NtRp4142
(dp4143
g53
(dp4144
sg62
g4129
sg55
(lp4145
g48
(g49
g50
NtRp4146
(dp4147
g53
(dp4148
g61
I5
ssg62
g4142
sg55
(lp4149
S'200'
p4150
asbasbasbag48
(g64
g50
NtRp4151
(dp4152
g53
(dp4153
sg62
g2405
sg55
(lp4154
g48
(g69
g50
NtRp4155
(dp4156
g53
(dp4157
g73
g74
ssg62
g4151
sg55
(lp4158
S'subtitle'
p4159
asbag48
(g69
g50
NtRp4160
(dp4161
g53
(dp4162
g80
g81
ssg62
g4151
sg55
(lp4163
S':'
asbag48
(g69
g50
NtRp4164
(dp4165
g53
(dp4166
sg62
g4151
sg55
(lp4167
g48
(g49
g50
NtRp4168
(dp4169
g53
(dp4170
g61
I5
ssg62
g4164
sg55
(lp4171
g2956
(S's\t\x00\x00\x00Adaptame!'
tRp4172
asbasbasbag48
(g64
g50
NtRp4173
(dp4174
g53
(dp4175
sg62
g2405
sg55
(lp4176
g48
(g69
g50
NtRp4177
(dp4178
g53
(dp4179
g73
g74
ssg62
g4173
sg55
(lp4180
S'title'
p4181
asbag48
(g69
g50
NtRp4182
(dp4183
g53
(dp4184
g80
g81
ssg62
g4173
sg55
(lp4185
S':'
asbag48
(g69
g50
NtRp4186
(dp4187
g53
(dp4188
sg62
g4173
sg55
(lp4189
g48
(g49
g50
NtRp4190
(dp4191
g53
(dp4192
g61
I5
ssg62
g4186
sg55
(lp4193
g113
asbasbasbag48
(g64
g50
NtRp4194
(dp4195
g53
(dp4196
sg62
g2405
sg55
(lp4197
g48
(g69
g50
NtRp4198
(dp4199
g53
(dp4200
g73
g74
ssg62
g4194
sg55
(lp4201
g1680
asbag48
(g69
g50
NtRp4202
(dp4203
g53
(dp4204
g80
g81
ssg62
g4194
sg55
(lp4205
S':'
asbag48
(g69
g50
NtRp4206
(dp4207
g53
(dp4208
sg62
g4194
sg55
(lp4209
g48
(g49
g50
NtRp4210
(dp4211
g53
(dp4212
g61
I5
ssg62
g4206
sg55
(lp4213
g1693
asbasbasbag48
(g64
g50
NtRp4214
(dp4215
g53
(dp4216
sg62
g2405
sg55
(lp4217
g48
(g69
g50
NtRp4218
(dp4219
g53
(dp4220
g73
g74
ssg62
g4214
sg55
(lp4221
S'view'
p4222
asbag48
(g69
g50
NtRp4223
(dp4224
g53
(dp4225
g80
g81
ssg62
g4214
sg55
(lp4226
S':'
asbag48
(g69
g50
NtRp4227
(dp4228
g53
(dp4229
sg62
g4214
sg55
(lp4230
g48
(g49
g50
NtRp4231
(dp4232
g53
(dp4233
g61
I5
ssg62
g4227
sg55
(lp4234
S'default/entrada_mod3.html'
p4235
asbasbasbasbasbsS'locals'
p4236
(dp4237
S'self'
p4238
S"<Storage {'status': 200, 'body': <cStringIO.Stri...rfish.js'], 'view': 'default/entrada_mod3.html'}>"
p4239
sS'data'
p4240
S"'Aqu\\xc3\\xad hay un problema'"
p4241
sS'escape'
p4242
g1356
sssS'traceback'
p4243
S'Traceback (most recent call last):\n  File "gluon/restricted.py", line 192, in restricted\n  File "C:\\Users\\Atomico\\web2py\\applications\\Desglosar_Emails\\views\\default/entrada_mod3.html", line 126, in <module>\n  File "gluon/globals.py", line 154, in write\nMemoryError: out of memory\n'
p4244
s.