(dp1
S'output'
p2
S''
sS'layer'
p3
S'C:\\Users\\Atomico\\web2py\\applications\\Desglosar_Emails\\views\\default/entrada_mod2.html'
p4
sS'code'
p5
S'response.write(\'<!DOCTYPE html>\\n<html lang="\', escape=False)\nresponse.write(T.accepted_language or \'en\')\nresponse.write(\'" class="no-js"><!-- no-js need it for modernzr -->\\n  <head>\\n    \\n    <meta charset="utf-8" />\\t  \\t\\n    <!-- www.phpied.com/conditional-comments-block-downloads/ -->\\n    <!--[if IE]><![endif]-->    \\n    <!-- Always force latest IE rendering engine \\n\\t (even in intranet) & Chrome Frame \\n\\t Remove this if you use the .htaccess -->\\n    <meta http-equiv="X-UA-Compatible" content="IE=edge,chrome=1">\\n    \\n    <title>\', escape=False)\nresponse.write(response.title or request.application)\nresponse.write(\'</title>\\n    \\n    <!-- http://dev.w3.org/html5/markup/meta.name.html -->\\n    <meta name="application-name" content="\', escape=False)\nresponse.write(request.application)\nresponse.write(\'" />\\t\\n    \\n    <!-- Speaking of Google, don\\\'t forget to set your site up: \\n\\t http://google.com/webmasters -->\\n    <meta name="google-site-verification" content="" />\\n    \\n    <!--  Mobile Viewport Fix\\n\\t  j.mp/mobileviewport & davidbcalhoun.com/2010/viewport-metatag \\n\\t  device-width: Occupy full width of the screen in its current orientation\\n\\t  initial-scale = 1.0 retains dimensions instead of zooming out if page height > device height\\n\\t  maximum-scale = 1.0 retains dimensions instead of zooming in if page width < device width\\n      -->\\n    <meta name="viewport" content="width=device-width, initial-scale=1.0, maximum-scale=1.0">\\n    \\n    <!-- Place favicon.ico and apple-touch-icon.png in the root of your domain and delete these references -->\\n    <link rel="shortcut icon" href="\', escape=False)\nresponse.write(URL(\'static\',\'favicon.ico\'))\nresponse.write(\'" type="image/x-icon">\\n    <link rel="apple-touch-icon" href="\', escape=False)\nresponse.write(URL(\'static\',\'favicon.png\'))\nresponse.write(\'">\\n\\n    <!-- For the less-enabled mobile browsers like Opera Mini -->\\n    <link rel="stylesheet" media="handheld" href="\', escape=False)\nresponse.write(URL(\'static\',\'css/handheld.css\'))\nresponse.write(\'">\\n    \\n    <!-- All JavaScript at the bottom, except for Modernizr which enables HTML5 elements & feature detects -->\\n    <script src="\', escape=False)\nresponse.write(URL(\'static\',\'js/modernizr-1.7.min.js\'))\nresponse.write(\'"></script>\\n    \\n    \', escape=False)\n#------  require CSS and JS files for this page (read info in base.css) ------\nresponse.write(\'\\n    \', escape=False)\nresponse.files.append(URL(\'static\',\'css/base.css\'))\nresponse.write(\'\\n    \', escape=False)\nresponse.files.append(URL(\'static\',\'css/superfish.css\'))\nresponse.write(\'\\n    \', escape=False)\nresponse.files.append(URL(\'static\',\'js/superfish.js\'))\nresponse.write(\'\\n    \', escape=False)\n#------ include web2py specific js code (jquery, calendar, form stuff) ------\nresponse.write(\'\\n    \', escape=False)\nresponse.files.insert(0,URL(\'static\',\'js/jquery.js\'))\nresponse.files.insert(1,URL(\'static\',\'css/calendar.css\'))\nresponse.files.insert(2,URL(\'static\',\'js/calendar.js\'))\nfor _item in response.meta or []:\n    response.write(\'\\n     <meta name="\', escape=False)\n    response.write(_item)\n    response.write(\'" content="\', escape=False)\n    response.write(response.meta[_item])\n    response.write(\'" />\', escape=False)\n    pass\nfor _k,_file in enumerate(response.files or []):\n    if _file in response.files[:_k]:\n        continue\n    _file0=_file.lower().split(\'?\')[0]\n    if _file0.endswith(\'.css\'):\n        response.write(\'\\n     <link href="\', escape=False)\n        response.write(_file)\n        response.write(\'" rel="stylesheet" type="text/css" />\', escape=False)\n    elif _file0.endswith(\'.js\'):\n        response.write(\'\\n     <script src="\', escape=False)\n        response.write(_file)\n        response.write(\'" type="text/javascript"></script>\', escape=False)\n        pass\n    pass\nresponse.write(\'\\n    <script type="text/javascript"><!--\\n    // These variables are used by the web2py_ajax_init function in web2py_ajax.js (which is loaded below).\\n    var w2p_ajax_confirm_message = "\', escape=False)\nresponse.write(T(\'Are you sure you want to delete this object?\'))\nresponse.write(\'";\\n    var w2p_ajax_date_format = "\', escape=False)\nresponse.write(T(\'%Y-%m-%d\'))\nresponse.write(\'";\\n    var w2p_ajax_datetime_format = "\', escape=False)\nresponse.write(T(\'%Y-%m-%d %H:%M:%S\'))\nresponse.write(\'";\\n    //--></script>\\n    <script src="\', escape=False)\nresponse.write(URL(\'static\',\'js/web2py_ajax.js\'))\nresponse.write(\'" type="text/javascript"></script>\\n\', escape=False)\nresponse.write(\'\\n\\n    \', escape=False)\n#using sidebars need to know what sidebar you want to use\n#prior of using it, because of static width size of content, you can use\n#left_sidebar, right_sidebar, both or none (False left and right)\nleft_sidebar_enabled = globals().get(\'left_sidebar_enabled\',False)\nright_sidebar_enabled = globals().get(\'right_sidebar_enabled\',False)\nif left_sidebar_enabled and right_sidebar_enabled: width_content=\'63%\'\nelif left_sidebar_enabled != right_sidebar_enabled: width_content=\'740px\'\nelse: width_content=\'100%\'\nif left_sidebar_enabled: left_sidebar_style = \'style="display: block;"\'\nelse: left_sidebar_style = \'style="display: none;"\'\nif right_sidebar_enabled: right_sidebar_style = \'style="display: block;"\'\nelse: right_sidebar_style = \'style="display: none;"\'\nstyle_content = \'style="width: %s"\' % width_content\nresponse.write(\'\\n  </head>\\n  \\n  <!-- paulirish.com/2008/conditional-stylesheets-vs-css-hacks-answer-neither/ -->\\t\\n  <!--[if lt IE 7 ]> <body class="ie6"> <![endif]-->\\n  <!--[if IE 7 ]>    <body class="ie7"> <![endif]-->\\n  <!--[if IE 8 ]>    <body class="ie8"> <![endif]-->\\n  <!--[if IE 9 ]>    <body class="ie9"> <![endif]-->\\n  <!--[if (gt IE 9)|!(IE)]><!--> <body> <!--<![endif]-->\\n    \\n    <div class="flash">\', escape=False)\nresponse.write(response.flash or \'\')\nresponse.write(\'</div> <!-- notification div -->\\n    \\n    <div id="container">\\t      \\t\\t      \\t\\n      \\n      <div id="wrapper">\\t\\t\\n\\t\\n\\t<div id="header"> <!-- header and login nav -->\\n\\t  \', escape=False)\nresponse.write(\' <!-- this is default header -->\\n\\t  \', escape=False)\ntry:\n    response.write(auth.navbar(action=URL(\'default\',\'user\')))\nexcept:pass\nresponse.write(\'\\t\\t          \\n\\t  <h1><span id="appname">\', escape=False)\nresponse.write(request.application.capitalize())\nresponse.write(\'</span>App</h1>\\n\\t  <div style="clear: both;"></div><!-- Clear the divs -->\\n\\t  \', escape=False)\nresponse.write(\'\\t\\t\\t\\t  \\t\\t\\t\\t\\t  \\n\\t</div><!-- header  -->\\n\\t\\n\\t<div id="statusbar"><!-- statusbar is menu zone -->\\n\\t  \', escape=False)\nresponse.write(\' <!-- this is default statusbar -->\\n\\t  \', escape=False)\n#------ superfish menu ------\nresponse.write(\'\\n\\t  \', escape=False)\nresponse.write(MENU(response.menu,_class=\'sf-menu\'))\nresponse.write(\'\\n\\t  <script type="text/javascript">\\n\\t    jQuery(document).ready(function(){\\n\\t    jQuery(\\\'ul.sf-menu\\\').superfish();});\\n\\t  </script>\\n\\t  <div style="clear: both;"></div><!-- Clear the divs -->\\t\\n\\t  \', escape=False)\nresponse.write(\'\\t\\t\\t\\t\\n\\t</div><!-- statusbar -->\\n\\t\\n\\t<div id="page"> <!-- Here my central body -->\\t  \\n\\n\\t  \', escape=False)\nif left_sidebar_enabled:\n    response.write(\'\\n          <div id="left_sidebar" \', escape=False)\n    response.write(XML(left_sidebar_style))\n    response.write(\' >\\n            <div style="padding: 4px;">\\n\\t      \', escape=False)\n    response.write(\'Content Left Sidebar\', escape=False)\n    response.write(\'\\t\\t  \\n            </div>\\n          </div><!-- left_sidebar -->\\n\\t  \', escape=False)\n    pass\nresponse.write(\'\\n\\n\\t  <!-- content -->\\n\\t  <div id="content" \', escape=False)\nresponse.write(XML(style_content))\nresponse.write(\' >\\n\\t    \', escape=False)\nresponse.write(\'\\r\\n<h1>default/entrada_mod2.html</h1>\\r\\n<h2>Formulario</h2>\\r\\n\', escape=False)\nresponse.write(form)\nresponse.write(\'\\r\\n\', escape=False)\nresponse.write(form2)\nresponse.write(\'\\r\\n\\r\\n<h3>Tratamiento darle la longitud a cada elemento</h3>\\r\\n\', escape=False)\nrows=db().select(db.persona.ALL)\nresponse.write(rows)\nresponse.write(\'\\r\\nlen(db().select(db.persona.ALL) es \', escape=False)\nresponse.write(len(db().select(db.persona.ALL)))\nresponse.write(\'\\r\\n<br/>\\r\\nM\\xc3\\xa1s cosas: \\r\\n\', escape=False)\nultimo=db(db.persona.id==len(db().select(db.persona.ALL))).select()[0]\nresponse.write(ultimo.nombre)\nresponse.write(\'\\r\\n<br/>Aqu\\xc3\\xad el perro. \\r\\n\\r\\n<br/>\\r\\n\', escape=False)\nrows2=db().select(db.perro.ALL)\nresponse.write(rows2)\nresponse.write(len(db(db.perro.amo_id==db.persona.id).select()))\nconjuntillo=db(db.perro.amo_id==db.persona.id).select()\nresponse.write(\'\\r\\n<br/>\\r\\n\', escape=False)\nresponse.write(conjuntillo)\nresponse.write(\'\\r\\n\', escape=False)\nresponse.write(\'\\t\\n\\t  </div>\\n\\t  <!-- content -->\\n\\n\\t  \', escape=False)\nif right_sidebar_enabled:\n    response.write(\'\\n          <div id="right_sidebar" \', escape=False)\n    response.write(XML(right_sidebar_style))\n    response.write(\' >\\n            <div style="padding: 4px;">\\n              \', escape=False)\n    response.write(\'Content Right Sidebar\', escape=False)\n    response.write(\'\\n            </div>\\n\\t  </div><!-- right_sidebar -->\\n          \', escape=False)\n    pass\nresponse.write(\'\\n\\n\\n\\t  <div style="clear: both;"></div><!-- Clear the divs -->\\n\\t  \\n\\t</div><!-- page -->\\t\\t\\t\\t\\t\\t\\t\\n\\t\\n\\t<div id="footer">\\n\\t  \', escape=False)\nresponse.write(\' <!-- this is default footer -->\\n\\t  <a href="http://www.web2py.com/" style="float: left; padding-right: 6px;">\\n\\t    <img src="\', escape=False)\nresponse.write(URL(\'static\',\'images/poweredby.png\'))\nresponse.write(\'"/>\\n\\t  </a>\\n\\t  \', escape=False)\nresponse.write(T(\'Copyright\'))\nresponse.write(\' &#169; 2010\\t\\t\\t\\t\\n\\t  <div style="clear: both;"></div><!-- Clear the divs -->\\n\\t  \', escape=False)\nresponse.write(\'\\n\\n\\t</div><!-- footer -->\\t\\t\\t\\n      </div><!-- wrapper -->\\n    </div><!-- container -->\\t\\t\\n    \\n    <!--[if lt IE 7 ]>\\n\\t<script src="\', escape=False)\nresponse.write(URL(\'static\',\'js/dd_belatedpng.js\'))\nresponse.write(\'"></script>\\n\\t<script> DD_belatedPNG.fix(\\\'img, .png_bg\\\'); //fix any <img> or .png_bg background-images </script>\\n\\t<![endif]-->\\n    \\n    <!-- asynchronous google analytics: mathiasbynens.be/notes/async-analytics-snippet \\n\\t change the UA-XXXXX-X to be your site\\\'s ID -->\\n    <!--   \\n\\t   <script>\\n\\t     var _gaq = [[\\\'_setAccount\\\', \\\'UA-XXXXX-X\\\'], [\\\'_trackPageview\\\']];\\n\\t     (function(d, t) {\\n\\t     var g = d.createElement(t),\\n\\t     s = d.getElementsByTagName(t)[0];\\n\\t     g.async = true;\\n\\t     g.src = \\\'//www.google-analytics.com/ga.js\\\';\\n\\t     s.parentNode.insertBefore(g, s);\\n\\t     })(document, \\\'script\\\');\\n\\t   </script>\\n\\t   -->    \\n  </body>\\n</html>\\n\', escape=False)'
p6
sS'snapshot'
p7
(dp8
S'exception'
p9
(dp10
S'__hash__'
p11
S"<method-wrapper '__hash__' of exceptions.IndexError object at 0x08D78FA8>"
p12
sS'__setattr__'
p13
S"<method-wrapper '__setattr__' of exceptions.IndexError object at 0x08D78FA8>"
p14
sS'__reduce_ex__'
p15
S'<built-in method __reduce_ex__ of exceptions.IndexError object at 0x08D78FA8>'
p16
sS'__getslice__'
p17
S"<method-wrapper '__getslice__' of exceptions.IndexError object at 0x08D78FA8>"
p18
sS'__getitem__'
p19
S"<method-wrapper '__getitem__' of exceptions.IndexError object at 0x08D78FA8>"
p20
sS'__setstate__'
p21
S'<built-in method __setstate__ of exceptions.IndexError object at 0x08D78FA8>'
p22
sS'__reduce__'
p23
S'<built-in method __reduce__ of exceptions.IndexError object at 0x08D78FA8>'
p24
sS'__str__'
p25
S"<method-wrapper '__str__' of exceptions.IndexError object at 0x08D78FA8>"
p26
sS'args'
p27
S"('list index out of range',)"
p28
sS'__getattribute__'
p29
S"<method-wrapper '__getattribute__' of exceptions.IndexError object at 0x08D78FA8>"
p30
sS'__class__'
p31
S"<type 'exceptions.IndexError'>"
p32
sS'__delattr__'
p33
S"<method-wrapper '__delattr__' of exceptions.IndexError object at 0x08D78FA8>"
p34
sS'__repr__'
p35
S"<method-wrapper '__repr__' of exceptions.IndexError object at 0x08D78FA8>"
p36
sS'__dict__'
p37
S'{}'
p38
sS'__doc__'
p39
S"'Sequence index out of range.'"
p40
sS'__init__'
p41
S"<method-wrapper '__init__' of exceptions.IndexError object at 0x08D78FA8>"
p42
sS'__new__'
p43
S'<built-in method __new__ of type object at 0x1E1CDEF0>'
p44
ssS'evalue'
p45
S'list index out of range'
p46
sS'request'
p47
ccopy_reg
_reconstructor
p48
(cgluon.html
BEAUTIFY
p49
c__builtin__
object
p50
NtRp51
(dp52
S'attributes'
p53
(dp54
sS'components'
p55
(lp56
g48
(cgluon.html
TABLE
p57
g50
NtRp58
(dp59
g53
(dp60
S'level'
p61
I5
ssS'parent'
p62
Nsg55
(lp63
g48
(cgluon.html
TR
p64
g50
NtRp65
(dp66
g53
(dp67
sg62
g58
sg55
(lp68
g48
(cgluon.html
TD
p69
g50
NtRp70
(dp71
g53
(dp72
S'_style'
p73
S'font-weight:bold;'
p74
ssg62
g65
sg55
(lp75
S'ajax'
p76
asbag48
(g69
g50
NtRp77
(dp78
g53
(dp79
S'_valign'
p80
S'top'
p81
ssg62
g65
sg55
(lp82
S':'
asbag48
(g69
g50
NtRp83
(dp84
g53
(dp85
sg62
g65
sg55
(lp86
g48
(g49
g50
NtRp87
(dp88
g53
(dp89
g61
I5
ssg62
g83
sg55
(lp90
S'False'
p91
asbasbasbag48
(g64
g50
NtRp92
(dp93
g53
(dp94
sg62
g58
sg55
(lp95
g48
(g69
g50
NtRp96
(dp97
g53
(dp98
g73
g74
ssg62
g92
sg55
(lp99
S'application'
p100
asbag48
(g69
g50
NtRp101
(dp102
g53
(dp103
g80
g81
ssg62
g92
sg55
(lp104
S':'
asbag48
(g69
g50
NtRp105
(dp106
g53
(dp107
sg62
g92
sg55
(lp108
g48
(g49
g50
NtRp109
(dp110
g53
(dp111
g61
I5
ssg62
g105
sg55
(lp112
S'Desglosar_Emails'
p113
asbasbasbag48
(g64
g50
NtRp114
(dp115
g53
(dp116
sg62
g58
sg55
(lp117
g48
(g69
g50
NtRp118
(dp119
g53
(dp120
g73
g74
ssg62
g114
sg55
(lp121
g27
asbag48
(g69
g50
NtRp122
(dp123
g53
(dp124
g80
g81
ssg62
g114
sg55
(lp125
S':'
asbag48
(g69
g50
NtRp126
(dp127
g53
(dp128
sg62
g114
sg55
(lp129
g48
(g49
g50
NtRp130
(dp131
g53
(dp132
g61
I5
ssg62
g126
sg55
(lp133
g48
(g57
g50
NtRp134
(dp135
g53
(dp136
g61
I4
ssg62
Nsg55
(lp137
sbasbasbasbag48
(g64
g50
NtRp138
(dp139
g53
(dp140
sg62
g58
sg55
(lp141
g48
(g69
g50
NtRp142
(dp143
g53
(dp144
g73
g74
ssg62
g138
sg55
(lp145
S'body'
p146
asbag48
(g69
g50
NtRp147
(dp148
g53
(dp149
g80
g81
ssg62
g138
sg55
(lp150
S':'
asbag48
(g69
g50
NtRp151
(dp152
g53
(dp153
sg62
g138
sg55
(lp154
g48
(g49
g50
NtRp155
(dp156
g53
(dp157
g61
I5
ssg62
g151
sg55
(lp158
S'<cStringIO.StringO object at 0x09244200>'
p159
asbasbasbag48
(g64
g50
NtRp160
(dp161
g53
(dp162
sg62
g58
sg55
(lp163
g48
(g69
g50
NtRp164
(dp165
g53
(dp166
g73
g74
ssg62
g160
sg55
(lp167
S'client'
p168
asbag48
(g69
g50
NtRp169
(dp170
g53
(dp171
g80
g81
ssg62
g160
sg55
(lp172
S':'
asbag48
(g69
g50
NtRp173
(dp174
g53
(dp175
sg62
g160
sg55
(lp176
g48
(g49
g50
NtRp177
(dp178
g53
(dp179
g61
I5
ssg62
g173
sg55
(lp180
S'127.0.0.1'
p181
asbasbasbag48
(g64
g50
NtRp182
(dp183
g53
(dp184
sg62
g58
sg55
(lp185
g48
(g69
g50
NtRp186
(dp187
g53
(dp188
g73
g74
ssg62
g182
sg55
(lp189
S'controller'
p190
asbag48
(g69
g50
NtRp191
(dp192
g53
(dp193
g80
g81
ssg62
g182
sg55
(lp194
S':'
asbag48
(g69
g50
NtRp195
(dp196
g53
(dp197
sg62
g182
sg55
(lp198
g48
(g49
g50
NtRp199
(dp200
g53
(dp201
g61
I5
ssg62
g195
sg55
(lp202
S'default'
p203
asbasbasbag48
(g64
g50
NtRp204
(dp205
g53
(dp206
sg62
g58
sg55
(lp207
g48
(g69
g50
NtRp208
(dp209
g53
(dp210
g73
g74
ssg62
g204
sg55
(lp211
S'cookies'
p212
asbag48
(g69
g50
NtRp213
(dp214
g53
(dp215
g80
g81
ssg62
g204
sg55
(lp216
S':'
asbag48
(g69
g50
NtRp217
(dp218
g53
(dp219
sg62
g204
sg55
(lp220
g48
(g49
g50
NtRp221
(dp222
g53
(dp223
g61
I5
ssg62
g217
sg55
(lp224
g48
(g57
g50
NtRp225
(dp226
g53
(dp227
g61
I4
ssg62
Nsg55
(lp228
g48
(g64
g50
NtRp229
(dp230
g53
(dp231
sg62
g225
sg55
(lp232
g48
(g69
g50
NtRp233
(dp234
g53
(dp235
g73
g74
ssg62
g229
sg55
(lp236
S'session_id_admin'
p237
asbag48
(g69
g50
NtRp238
(dp239
g53
(dp240
g80
g81
ssg62
g229
sg55
(lp241
S':'
asbag48
(g69
g50
NtRp242
(dp243
g53
(dp244
sg62
g229
sg55
(lp245
g48
(g49
g50
NtRp246
(dp247
g53
(dp248
g61
I4
ssg62
g242
sg55
(lp249
g48
(g57
g50
NtRp250
(dp251
g53
(dp252
g61
I3
ssg62
Nsg55
(lp253
g48
(g64
g50
NtRp254
(dp255
g53
(dp256
sg62
g250
sg55
(lp257
g48
(g69
g50
NtRp258
(dp259
g53
(dp260
g73
g74
ssg62
g254
sg55
(lp261
S'comment'
p262
asbag48
(g69
g50
NtRp263
(dp264
g53
(dp265
g80
g81
ssg62
g254
sg55
(lp266
S':'
asbag48
(g69
g50
NtRp267
(dp268
g53
(dp269
sg62
g254
sg55
(lp270
g48
(g49
g50
NtRp271
(dp272
g53
(dp273
g61
I3
ssg62
g267
sg55
(lp274
S''
asbasbasbag48
(g64
g50
NtRp275
(dp276
g53
(dp277
sg62
g250
sg55
(lp278
g48
(g69
g50
NtRp279
(dp280
g53
(dp281
g73
g74
ssg62
g275
sg55
(lp282
S'domain'
p283
asbag48
(g69
g50
NtRp284
(dp285
g53
(dp286
g80
g81
ssg62
g275
sg55
(lp287
S':'
asbag48
(g69
g50
NtRp288
(dp289
g53
(dp290
sg62
g275
sg55
(lp291
g48
(g49
g50
NtRp292
(dp293
g53
(dp294
g61
I3
ssg62
g288
sg55
(lp295
S''
asbasbasbag48
(g64
g50
NtRp296
(dp297
g53
(dp298
sg62
g250
sg55
(lp299
g48
(g69
g50
NtRp300
(dp301
g53
(dp302
g73
g74
ssg62
g296
sg55
(lp303
S'expires'
p304
asbag48
(g69
g50
NtRp305
(dp306
g53
(dp307
g80
g81
ssg62
g296
sg55
(lp308
S':'
asbag48
(g69
g50
NtRp309
(dp310
g53
(dp311
sg62
g296
sg55
(lp312
g48
(g49
g50
NtRp313
(dp314
g53
(dp315
g61
I3
ssg62
g309
sg55
(lp316
S''
asbasbasbag48
(g64
g50
NtRp317
(dp318
g53
(dp319
sg62
g250
sg55
(lp320
g48
(g69
g50
NtRp321
(dp322
g53
(dp323
g73
g74
ssg62
g317
sg55
(lp324
S'max-age'
p325
asbag48
(g69
g50
NtRp326
(dp327
g53
(dp328
g80
g81
ssg62
g317
sg55
(lp329
S':'
asbag48
(g69
g50
NtRp330
(dp331
g53
(dp332
sg62
g317
sg55
(lp333
g48
(g49
g50
NtRp334
(dp335
g53
(dp336
g61
I3
ssg62
g330
sg55
(lp337
S''
asbasbasbag48
(g64
g50
NtRp338
(dp339
g53
(dp340
sg62
g250
sg55
(lp341
g48
(g69
g50
NtRp342
(dp343
g53
(dp344
g73
g74
ssg62
g338
sg55
(lp345
S'path'
p346
asbag48
(g69
g50
NtRp347
(dp348
g53
(dp349
g80
g81
ssg62
g338
sg55
(lp350
S':'
asbag48
(g69
g50
NtRp351
(dp352
g53
(dp353
sg62
g338
sg55
(lp354
g48
(g49
g50
NtRp355
(dp356
g53
(dp357
g61
I3
ssg62
g351
sg55
(lp358
S''
asbasbasbag48
(g64
g50
NtRp359
(dp360
g53
(dp361
sg62
g250
sg55
(lp362
g48
(g69
g50
NtRp363
(dp364
g53
(dp365
g73
g74
ssg62
g359
sg55
(lp366
S'secure'
p367
asbag48
(g69
g50
NtRp368
(dp369
g53
(dp370
g80
g81
ssg62
g359
sg55
(lp371
S':'
asbag48
(g69
g50
NtRp372
(dp373
g53
(dp374
sg62
g359
sg55
(lp375
g48
(g49
g50
NtRp376
(dp377
g53
(dp378
g61
I3
ssg62
g372
sg55
(lp379
S''
asbasbasbag48
(g64
g50
NtRp380
(dp381
g53
(dp382
sg62
g250
sg55
(lp383
g48
(g69
g50
NtRp384
(dp385
g53
(dp386
g73
g74
ssg62
g380
sg55
(lp387
S'version'
p388
asbag48
(g69
g50
NtRp389
(dp390
g53
(dp391
g80
g81
ssg62
g380
sg55
(lp392
S':'
asbag48
(g69
g50
NtRp393
(dp394
g53
(dp395
sg62
g380
sg55
(lp396
g48
(g49
g50
NtRp397
(dp398
g53
(dp399
g61
I3
ssg62
g393
sg55
(lp400
S''
asbasbasbasbasbasbasbag48
(g64
g50
NtRp401
(dp402
g53
(dp403
sg62
g225
sg55
(lp404
g48
(g69
g50
NtRp405
(dp406
g53
(dp407
g73
g74
ssg62
g401
sg55
(lp408
S'session_id_cual_es_tu_nombre'
p409
asbag48
(g69
g50
NtRp410
(dp411
g53
(dp412
g80
g81
ssg62
g401
sg55
(lp413
S':'
asbag48
(g69
g50
NtRp414
(dp415
g53
(dp416
sg62
g401
sg55
(lp417
g48
(g49
g50
NtRp418
(dp419
g53
(dp420
g61
I4
ssg62
g414
sg55
(lp421
g48
(g57
g50
NtRp422
(dp423
g53
(dp424
g61
I3
ssg62
Nsg55
(lp425
g48
(g64
g50
NtRp426
(dp427
g53
(dp428
sg62
g422
sg55
(lp429
g48
(g69
g50
NtRp430
(dp431
g53
(dp432
g73
g74
ssg62
g426
sg55
(lp433
g262
asbag48
(g69
g50
NtRp434
(dp435
g53
(dp436
g80
g81
ssg62
g426
sg55
(lp437
S':'
asbag48
(g69
g50
NtRp438
(dp439
g53
(dp440
sg62
g426
sg55
(lp441
g48
(g49
g50
NtRp442
(dp443
g53
(dp444
g61
I3
ssg62
g438
sg55
(lp445
S''
asbasbasbag48
(g64
g50
NtRp446
(dp447
g53
(dp448
sg62
g422
sg55
(lp449
g48
(g69
g50
NtRp450
(dp451
g53
(dp452
g73
g74
ssg62
g446
sg55
(lp453
g283
asbag48
(g69
g50
NtRp454
(dp455
g53
(dp456
g80
g81
ssg62
g446
sg55
(lp457
S':'
asbag48
(g69
g50
NtRp458
(dp459
g53
(dp460
sg62
g446
sg55
(lp461
g48
(g49
g50
NtRp462
(dp463
g53
(dp464
g61
I3
ssg62
g458
sg55
(lp465
S''
asbasbasbag48
(g64
g50
NtRp466
(dp467
g53
(dp468
sg62
g422
sg55
(lp469
g48
(g69
g50
NtRp470
(dp471
g53
(dp472
g73
g74
ssg62
g466
sg55
(lp473
g304
asbag48
(g69
g50
NtRp474
(dp475
g53
(dp476
g80
g81
ssg62
g466
sg55
(lp477
S':'
asbag48
(g69
g50
NtRp478
(dp479
g53
(dp480
sg62
g466
sg55
(lp481
g48
(g49
g50
NtRp482
(dp483
g53
(dp484
g61
I3
ssg62
g478
sg55
(lp485
S''
asbasbasbag48
(g64
g50
NtRp486
(dp487
g53
(dp488
sg62
g422
sg55
(lp489
g48
(g69
g50
NtRp490
(dp491
g53
(dp492
g73
g74
ssg62
g486
sg55
(lp493
g325
asbag48
(g69
g50
NtRp494
(dp495
g53
(dp496
g80
g81
ssg62
g486
sg55
(lp497
S':'
asbag48
(g69
g50
NtRp498
(dp499
g53
(dp500
sg62
g486
sg55
(lp501
g48
(g49
g50
NtRp502
(dp503
g53
(dp504
g61
I3
ssg62
g498
sg55
(lp505
S''
asbasbasbag48
(g64
g50
NtRp506
(dp507
g53
(dp508
sg62
g422
sg55
(lp509
g48
(g69
g50
NtRp510
(dp511
g53
(dp512
g73
g74
ssg62
g506
sg55
(lp513
g346
asbag48
(g69
g50
NtRp514
(dp515
g53
(dp516
g80
g81
ssg62
g506
sg55
(lp517
S':'
asbag48
(g69
g50
NtRp518
(dp519
g53
(dp520
sg62
g506
sg55
(lp521
g48
(g49
g50
NtRp522
(dp523
g53
(dp524
g61
I3
ssg62
g518
sg55
(lp525
S''
asbasbasbag48
(g64
g50
NtRp526
(dp527
g53
(dp528
sg62
g422
sg55
(lp529
g48
(g69
g50
NtRp530
(dp531
g53
(dp532
g73
g74
ssg62
g526
sg55
(lp533
g367
asbag48
(g69
g50
NtRp534
(dp535
g53
(dp536
g80
g81
ssg62
g526
sg55
(lp537
S':'
asbag48
(g69
g50
NtRp538
(dp539
g53
(dp540
sg62
g526
sg55
(lp541
g48
(g49
g50
NtRp542
(dp543
g53
(dp544
g61
I3
ssg62
g538
sg55
(lp545
S''
asbasbasbag48
(g64
g50
NtRp546
(dp547
g53
(dp548
sg62
g422
sg55
(lp549
g48
(g69
g50
NtRp550
(dp551
g53
(dp552
g73
g74
ssg62
g546
sg55
(lp553
g388
asbag48
(g69
g50
NtRp554
(dp555
g53
(dp556
g80
g81
ssg62
g546
sg55
(lp557
S':'
asbag48
(g69
g50
NtRp558
(dp559
g53
(dp560
sg62
g546
sg55
(lp561
g48
(g49
g50
NtRp562
(dp563
g53
(dp564
g61
I3
ssg62
g558
sg55
(lp565
S''
asbasbasbasbasbasbasbag48
(g64
g50
NtRp566
(dp567
g53
(dp568
sg62
g225
sg55
(lp569
g48
(g69
g50
NtRp570
(dp571
g53
(dp572
g73
g74
ssg62
g566
sg55
(lp573
S'session_id_desglosar_emails'
p574
asbag48
(g69
g50
NtRp575
(dp576
g53
(dp577
g80
g81
ssg62
g566
sg55
(lp578
S':'
asbag48
(g69
g50
NtRp579
(dp580
g53
(dp581
sg62
g566
sg55
(lp582
g48
(g49
g50
NtRp583
(dp584
g53
(dp585
g61
I4
ssg62
g579
sg55
(lp586
g48
(g57
g50
NtRp587
(dp588
g53
(dp589
g61
I3
ssg62
Nsg55
(lp590
g48
(g64
g50
NtRp591
(dp592
g53
(dp593
sg62
g587
sg55
(lp594
g48
(g69
g50
NtRp595
(dp596
g53
(dp597
g73
g74
ssg62
g591
sg55
(lp598
g262
asbag48
(g69
g50
NtRp599
(dp600
g53
(dp601
g80
g81
ssg62
g591
sg55
(lp602
S':'
asbag48
(g69
g50
NtRp603
(dp604
g53
(dp605
sg62
g591
sg55
(lp606
g48
(g49
g50
NtRp607
(dp608
g53
(dp609
g61
I3
ssg62
g603
sg55
(lp610
S''
asbasbasbag48
(g64
g50
NtRp611
(dp612
g53
(dp613
sg62
g587
sg55
(lp614
g48
(g69
g50
NtRp615
(dp616
g53
(dp617
g73
g74
ssg62
g611
sg55
(lp618
g283
asbag48
(g69
g50
NtRp619
(dp620
g53
(dp621
g80
g81
ssg62
g611
sg55
(lp622
S':'
asbag48
(g69
g50
NtRp623
(dp624
g53
(dp625
sg62
g611
sg55
(lp626
g48
(g49
g50
NtRp627
(dp628
g53
(dp629
g61
I3
ssg62
g623
sg55
(lp630
S''
asbasbasbag48
(g64
g50
NtRp631
(dp632
g53
(dp633
sg62
g587
sg55
(lp634
g48
(g69
g50
NtRp635
(dp636
g53
(dp637
g73
g74
ssg62
g631
sg55
(lp638
g304
asbag48
(g69
g50
NtRp639
(dp640
g53
(dp641
g80
g81
ssg62
g631
sg55
(lp642
S':'
asbag48
(g69
g50
NtRp643
(dp644
g53
(dp645
sg62
g631
sg55
(lp646
g48
(g49
g50
NtRp647
(dp648
g53
(dp649
g61
I3
ssg62
g643
sg55
(lp650
S''
asbasbasbag48
(g64
g50
NtRp651
(dp652
g53
(dp653
sg62
g587
sg55
(lp654
g48
(g69
g50
NtRp655
(dp656
g53
(dp657
g73
g74
ssg62
g651
sg55
(lp658
g325
asbag48
(g69
g50
NtRp659
(dp660
g53
(dp661
g80
g81
ssg62
g651
sg55
(lp662
S':'
asbag48
(g69
g50
NtRp663
(dp664
g53
(dp665
sg62
g651
sg55
(lp666
g48
(g49
g50
NtRp667
(dp668
g53
(dp669
g61
I3
ssg62
g663
sg55
(lp670
S''
asbasbasbag48
(g64
g50
NtRp671
(dp672
g53
(dp673
sg62
g587
sg55
(lp674
g48
(g69
g50
NtRp675
(dp676
g53
(dp677
g73
g74
ssg62
g671
sg55
(lp678
g346
asbag48
(g69
g50
NtRp679
(dp680
g53
(dp681
g80
g81
ssg62
g671
sg55
(lp682
S':'
asbag48
(g69
g50
NtRp683
(dp684
g53
(dp685
sg62
g671
sg55
(lp686
g48
(g49
g50
NtRp687
(dp688
g53
(dp689
g61
I3
ssg62
g683
sg55
(lp690
S''
asbasbasbag48
(g64
g50
NtRp691
(dp692
g53
(dp693
sg62
g587
sg55
(lp694
g48
(g69
g50
NtRp695
(dp696
g53
(dp697
g73
g74
ssg62
g691
sg55
(lp698
g367
asbag48
(g69
g50
NtRp699
(dp700
g53
(dp701
g80
g81
ssg62
g691
sg55
(lp702
S':'
asbag48
(g69
g50
NtRp703
(dp704
g53
(dp705
sg62
g691
sg55
(lp706
g48
(g49
g50
NtRp707
(dp708
g53
(dp709
g61
I3
ssg62
g703
sg55
(lp710
S''
asbasbasbag48
(g64
g50
NtRp711
(dp712
g53
(dp713
sg62
g587
sg55
(lp714
g48
(g69
g50
NtRp715
(dp716
g53
(dp717
g73
g74
ssg62
g711
sg55
(lp718
g388
asbag48
(g69
g50
NtRp719
(dp720
g53
(dp721
g80
g81
ssg62
g711
sg55
(lp722
S':'
asbag48
(g69
g50
NtRp723
(dp724
g53
(dp725
sg62
g711
sg55
(lp726
g48
(g49
g50
NtRp727
(dp728
g53
(dp729
g61
I3
ssg62
g723
sg55
(lp730
S''
asbasbasbasbasbasbasbag48
(g64
g50
NtRp731
(dp732
g53
(dp733
sg62
g225
sg55
(lp734
g48
(g69
g50
NtRp735
(dp736
g53
(dp737
g73
g74
ssg62
g731
sg55
(lp738
S'session_id_hemoal'
p739
asbag48
(g69
g50
NtRp740
(dp741
g53
(dp742
g80
g81
ssg62
g731
sg55
(lp743
S':'
asbag48
(g69
g50
NtRp744
(dp745
g53
(dp746
sg62
g731
sg55
(lp747
g48
(g49
g50
NtRp748
(dp749
g53
(dp750
g61
I4
ssg62
g744
sg55
(lp751
g48
(g57
g50
NtRp752
(dp753
g53
(dp754
g61
I3
ssg62
Nsg55
(lp755
g48
(g64
g50
NtRp756
(dp757
g53
(dp758
sg62
g752
sg55
(lp759
g48
(g69
g50
NtRp760
(dp761
g53
(dp762
g73
g74
ssg62
g756
sg55
(lp763
g262
asbag48
(g69
g50
NtRp764
(dp765
g53
(dp766
g80
g81
ssg62
g756
sg55
(lp767
S':'
asbag48
(g69
g50
NtRp768
(dp769
g53
(dp770
sg62
g756
sg55
(lp771
g48
(g49
g50
NtRp772
(dp773
g53
(dp774
g61
I3
ssg62
g768
sg55
(lp775
S''
asbasbasbag48
(g64
g50
NtRp776
(dp777
g53
(dp778
sg62
g752
sg55
(lp779
g48
(g69
g50
NtRp780
(dp781
g53
(dp782
g73
g74
ssg62
g776
sg55
(lp783
g283
asbag48
(g69
g50
NtRp784
(dp785
g53
(dp786
g80
g81
ssg62
g776
sg55
(lp787
S':'
asbag48
(g69
g50
NtRp788
(dp789
g53
(dp790
sg62
g776
sg55
(lp791
g48
(g49
g50
NtRp792
(dp793
g53
(dp794
g61
I3
ssg62
g788
sg55
(lp795
S''
asbasbasbag48
(g64
g50
NtRp796
(dp797
g53
(dp798
sg62
g752
sg55
(lp799
g48
(g69
g50
NtRp800
(dp801
g53
(dp802
g73
g74
ssg62
g796
sg55
(lp803
g304
asbag48
(g69
g50
NtRp804
(dp805
g53
(dp806
g80
g81
ssg62
g796
sg55
(lp807
S':'
asbag48
(g69
g50
NtRp808
(dp809
g53
(dp810
sg62
g796
sg55
(lp811
g48
(g49
g50
NtRp812
(dp813
g53
(dp814
g61
I3
ssg62
g808
sg55
(lp815
S''
asbasbasbag48
(g64
g50
NtRp816
(dp817
g53
(dp818
sg62
g752
sg55
(lp819
g48
(g69
g50
NtRp820
(dp821
g53
(dp822
g73
g74
ssg62
g816
sg55
(lp823
g325
asbag48
(g69
g50
NtRp824
(dp825
g53
(dp826
g80
g81
ssg62
g816
sg55
(lp827
S':'
asbag48
(g69
g50
NtRp828
(dp829
g53
(dp830
sg62
g816
sg55
(lp831
g48
(g49
g50
NtRp832
(dp833
g53
(dp834
g61
I3
ssg62
g828
sg55
(lp835
S''
asbasbasbag48
(g64
g50
NtRp836
(dp837
g53
(dp838
sg62
g752
sg55
(lp839
g48
(g69
g50
NtRp840
(dp841
g53
(dp842
g73
g74
ssg62
g836
sg55
(lp843
g346
asbag48
(g69
g50
NtRp844
(dp845
g53
(dp846
g80
g81
ssg62
g836
sg55
(lp847
S':'
asbag48
(g69
g50
NtRp848
(dp849
g53
(dp850
sg62
g836
sg55
(lp851
g48
(g49
g50
NtRp852
(dp853
g53
(dp854
g61
I3
ssg62
g848
sg55
(lp855
S''
asbasbasbag48
(g64
g50
NtRp856
(dp857
g53
(dp858
sg62
g752
sg55
(lp859
g48
(g69
g50
NtRp860
(dp861
g53
(dp862
g73
g74
ssg62
g856
sg55
(lp863
g367
asbag48
(g69
g50
NtRp864
(dp865
g53
(dp866
g80
g81
ssg62
g856
sg55
(lp867
S':'
asbag48
(g69
g50
NtRp868
(dp869
g53
(dp870
sg62
g856
sg55
(lp871
g48
(g49
g50
NtRp872
(dp873
g53
(dp874
g61
I3
ssg62
g868
sg55
(lp875
S''
asbasbasbag48
(g64
g50
NtRp876
(dp877
g53
(dp878
sg62
g752
sg55
(lp879
g48
(g69
g50
NtRp880
(dp881
g53
(dp882
g73
g74
ssg62
g876
sg55
(lp883
g388
asbag48
(g69
g50
NtRp884
(dp885
g53
(dp886
g80
g81
ssg62
g876
sg55
(lp887
S':'
asbag48
(g69
g50
NtRp888
(dp889
g53
(dp890
sg62
g876
sg55
(lp891
g48
(g49
g50
NtRp892
(dp893
g53
(dp894
g61
I3
ssg62
g888
sg55
(lp895
S''
asbasbasbasbasbasbasbag48
(g64
g50
NtRp896
(dp897
g53
(dp898
sg62
g225
sg55
(lp899
g48
(g69
g50
NtRp900
(dp901
g53
(dp902
g73
g74
ssg62
g896
sg55
(lp903
S'session_id_listado_1'
p904
asbag48
(g69
g50
NtRp905
(dp906
g53
(dp907
g80
g81
ssg62
g896
sg55
(lp908
S':'
asbag48
(g69
g50
NtRp909
(dp910
g53
(dp911
sg62
g896
sg55
(lp912
g48
(g49
g50
NtRp913
(dp914
g53
(dp915
g61
I4
ssg62
g909
sg55
(lp916
g48
(g57
g50
NtRp917
(dp918
g53
(dp919
g61
I3
ssg62
Nsg55
(lp920
g48
(g64
g50
NtRp921
(dp922
g53
(dp923
sg62
g917
sg55
(lp924
g48
(g69
g50
NtRp925
(dp926
g53
(dp927
g73
g74
ssg62
g921
sg55
(lp928
g262
asbag48
(g69
g50
NtRp929
(dp930
g53
(dp931
g80
g81
ssg62
g921
sg55
(lp932
S':'
asbag48
(g69
g50
NtRp933
(dp934
g53
(dp935
sg62
g921
sg55
(lp936
g48
(g49
g50
NtRp937
(dp938
g53
(dp939
g61
I3
ssg62
g933
sg55
(lp940
S''
asbasbasbag48
(g64
g50
NtRp941
(dp942
g53
(dp943
sg62
g917
sg55
(lp944
g48
(g69
g50
NtRp945
(dp946
g53
(dp947
g73
g74
ssg62
g941
sg55
(lp948
g283
asbag48
(g69
g50
NtRp949
(dp950
g53
(dp951
g80
g81
ssg62
g941
sg55
(lp952
S':'
asbag48
(g69
g50
NtRp953
(dp954
g53
(dp955
sg62
g941
sg55
(lp956
g48
(g49
g50
NtRp957
(dp958
g53
(dp959
g61
I3
ssg62
g953
sg55
(lp960
S''
asbasbasbag48
(g64
g50
NtRp961
(dp962
g53
(dp963
sg62
g917
sg55
(lp964
g48
(g69
g50
NtRp965
(dp966
g53
(dp967
g73
g74
ssg62
g961
sg55
(lp968
g304
asbag48
(g69
g50
NtRp969
(dp970
g53
(dp971
g80
g81
ssg62
g961
sg55
(lp972
S':'
asbag48
(g69
g50
NtRp973
(dp974
g53
(dp975
sg62
g961
sg55
(lp976
g48
(g49
g50
NtRp977
(dp978
g53
(dp979
g61
I3
ssg62
g973
sg55
(lp980
S''
asbasbasbag48
(g64
g50
NtRp981
(dp982
g53
(dp983
sg62
g917
sg55
(lp984
g48
(g69
g50
NtRp985
(dp986
g53
(dp987
g73
g74
ssg62
g981
sg55
(lp988
g325
asbag48
(g69
g50
NtRp989
(dp990
g53
(dp991
g80
g81
ssg62
g981
sg55
(lp992
S':'
asbag48
(g69
g50
NtRp993
(dp994
g53
(dp995
sg62
g981
sg55
(lp996
g48
(g49
g50
NtRp997
(dp998
g53
(dp999
g61
I3
ssg62
g993
sg55
(lp1000
S''
asbasbasbag48
(g64
g50
NtRp1001
(dp1002
g53
(dp1003
sg62
g917
sg55
(lp1004
g48
(g69
g50
NtRp1005
(dp1006
g53
(dp1007
g73
g74
ssg62
g1001
sg55
(lp1008
g346
asbag48
(g69
g50
NtRp1009
(dp1010
g53
(dp1011
g80
g81
ssg62
g1001
sg55
(lp1012
S':'
asbag48
(g69
g50
NtRp1013
(dp1014
g53
(dp1015
sg62
g1001
sg55
(lp1016
g48
(g49
g50
NtRp1017
(dp1018
g53
(dp1019
g61
I3
ssg62
g1013
sg55
(lp1020
S''
asbasbasbag48
(g64
g50
NtRp1021
(dp1022
g53
(dp1023
sg62
g917
sg55
(lp1024
g48
(g69
g50
NtRp1025
(dp1026
g53
(dp1027
g73
g74
ssg62
g1021
sg55
(lp1028
g367
asbag48
(g69
g50
NtRp1029
(dp1030
g53
(dp1031
g80
g81
ssg62
g1021
sg55
(lp1032
S':'
asbag48
(g69
g50
NtRp1033
(dp1034
g53
(dp1035
sg62
g1021
sg55
(lp1036
g48
(g49
g50
NtRp1037
(dp1038
g53
(dp1039
g61
I3
ssg62
g1033
sg55
(lp1040
S''
asbasbasbag48
(g64
g50
NtRp1041
(dp1042
g53
(dp1043
sg62
g917
sg55
(lp1044
g48
(g69
g50
NtRp1045
(dp1046
g53
(dp1047
g73
g74
ssg62
g1041
sg55
(lp1048
g388
asbag48
(g69
g50
NtRp1049
(dp1050
g53
(dp1051
g80
g81
ssg62
g1041
sg55
(lp1052
S':'
asbag48
(g69
g50
NtRp1053
(dp1054
g53
(dp1055
sg62
g1041
sg55
(lp1056
g48
(g49
g50
NtRp1057
(dp1058
g53
(dp1059
g61
I3
ssg62
g1053
sg55
(lp1060
S''
asbasbasbasbasbasbasbag48
(g64
g50
NtRp1061
(dp1062
g53
(dp1063
sg62
g225
sg55
(lp1064
g48
(g69
g50
NtRp1065
(dp1066
g53
(dp1067
g73
g74
ssg62
g1061
sg55
(lp1068
S'session_id_myappjav'
p1069
asbag48
(g69
g50
NtRp1070
(dp1071
g53
(dp1072
g80
g81
ssg62
g1061
sg55
(lp1073
S':'
asbag48
(g69
g50
NtRp1074
(dp1075
g53
(dp1076
sg62
g1061
sg55
(lp1077
g48
(g49
g50
NtRp1078
(dp1079
g53
(dp1080
g61
I4
ssg62
g1074
sg55
(lp1081
g48
(g57
g50
NtRp1082
(dp1083
g53
(dp1084
g61
I3
ssg62
Nsg55
(lp1085
g48
(g64
g50
NtRp1086
(dp1087
g53
(dp1088
sg62
g1082
sg55
(lp1089
g48
(g69
g50
NtRp1090
(dp1091
g53
(dp1092
g73
g74
ssg62
g1086
sg55
(lp1093
g262
asbag48
(g69
g50
NtRp1094
(dp1095
g53
(dp1096
g80
g81
ssg62
g1086
sg55
(lp1097
S':'
asbag48
(g69
g50
NtRp1098
(dp1099
g53
(dp1100
sg62
g1086
sg55
(lp1101
g48
(g49
g50
NtRp1102
(dp1103
g53
(dp1104
g61
I3
ssg62
g1098
sg55
(lp1105
S''
asbasbasbag48
(g64
g50
NtRp1106
(dp1107
g53
(dp1108
sg62
g1082
sg55
(lp1109
g48
(g69
g50
NtRp1110
(dp1111
g53
(dp1112
g73
g74
ssg62
g1106
sg55
(lp1113
g283
asbag48
(g69
g50
NtRp1114
(dp1115
g53
(dp1116
g80
g81
ssg62
g1106
sg55
(lp1117
S':'
asbag48
(g69
g50
NtRp1118
(dp1119
g53
(dp1120
sg62
g1106
sg55
(lp1121
g48
(g49
g50
NtRp1122
(dp1123
g53
(dp1124
g61
I3
ssg62
g1118
sg55
(lp1125
S''
asbasbasbag48
(g64
g50
NtRp1126
(dp1127
g53
(dp1128
sg62
g1082
sg55
(lp1129
g48
(g69
g50
NtRp1130
(dp1131
g53
(dp1132
g73
g74
ssg62
g1126
sg55
(lp1133
g304
asbag48
(g69
g50
NtRp1134
(dp1135
g53
(dp1136
g80
g81
ssg62
g1126
sg55
(lp1137
S':'
asbag48
(g69
g50
NtRp1138
(dp1139
g53
(dp1140
sg62
g1126
sg55
(lp1141
g48
(g49
g50
NtRp1142
(dp1143
g53
(dp1144
g61
I3
ssg62
g1138
sg55
(lp1145
S''
asbasbasbag48
(g64
g50
NtRp1146
(dp1147
g53
(dp1148
sg62
g1082
sg55
(lp1149
g48
(g69
g50
NtRp1150
(dp1151
g53
(dp1152
g73
g74
ssg62
g1146
sg55
(lp1153
g325
asbag48
(g69
g50
NtRp1154
(dp1155
g53
(dp1156
g80
g81
ssg62
g1146
sg55
(lp1157
S':'
asbag48
(g69
g50
NtRp1158
(dp1159
g53
(dp1160
sg62
g1146
sg55
(lp1161
g48
(g49
g50
NtRp1162
(dp1163
g53
(dp1164
g61
I3
ssg62
g1158
sg55
(lp1165
S''
asbasbasbag48
(g64
g50
NtRp1166
(dp1167
g53
(dp1168
sg62
g1082
sg55
(lp1169
g48
(g69
g50
NtRp1170
(dp1171
g53
(dp1172
g73
g74
ssg62
g1166
sg55
(lp1173
g346
asbag48
(g69
g50
NtRp1174
(dp1175
g53
(dp1176
g80
g81
ssg62
g1166
sg55
(lp1177
S':'
asbag48
(g69
g50
NtRp1178
(dp1179
g53
(dp1180
sg62
g1166
sg55
(lp1181
g48
(g49
g50
NtRp1182
(dp1183
g53
(dp1184
g61
I3
ssg62
g1178
sg55
(lp1185
S''
asbasbasbag48
(g64
g50
NtRp1186
(dp1187
g53
(dp1188
sg62
g1082
sg55
(lp1189
g48
(g69
g50
NtRp1190
(dp1191
g53
(dp1192
g73
g74
ssg62
g1186
sg55
(lp1193
g367
asbag48
(g69
g50
NtRp1194
(dp1195
g53
(dp1196
g80
g81
ssg62
g1186
sg55
(lp1197
S':'
asbag48
(g69
g50
NtRp1198
(dp1199
g53
(dp1200
sg62
g1186
sg55
(lp1201
g48
(g49
g50
NtRp1202
(dp1203
g53
(dp1204
g61
I3
ssg62
g1198
sg55
(lp1205
S''
asbasbasbag48
(g64
g50
NtRp1206
(dp1207
g53
(dp1208
sg62
g1082
sg55
(lp1209
g48
(g69
g50
NtRp1210
(dp1211
g53
(dp1212
g73
g74
ssg62
g1206
sg55
(lp1213
g388
asbag48
(g69
g50
NtRp1214
(dp1215
g53
(dp1216
g80
g81
ssg62
g1206
sg55
(lp1217
S':'
asbag48
(g69
g50
NtRp1218
(dp1219
g53
(dp1220
sg62
g1206
sg55
(lp1221
g48
(g49
g50
NtRp1222
(dp1223
g53
(dp1224
g61
I3
ssg62
g1218
sg55
(lp1225
S''
asbasbasbasbasbasbasbag48
(g64
g50
NtRp1226
(dp1227
g53
(dp1228
sg62
g225
sg55
(lp1229
g48
(g69
g50
NtRp1230
(dp1231
g53
(dp1232
g73
g74
ssg62
g1226
sg55
(lp1233
S'session_id_welcome'
p1234
asbag48
(g69
g50
NtRp1235
(dp1236
g53
(dp1237
g80
g81
ssg62
g1226
sg55
(lp1238
S':'
asbag48
(g69
g50
NtRp1239
(dp1240
g53
(dp1241
sg62
g1226
sg55
(lp1242
g48
(g49
g50
NtRp1243
(dp1244
g53
(dp1245
g61
I4
ssg62
g1239
sg55
(lp1246
g48
(g57
g50
NtRp1247
(dp1248
g53
(dp1249
g61
I3
ssg62
Nsg55
(lp1250
g48
(g64
g50
NtRp1251
(dp1252
g53
(dp1253
sg62
g1247
sg55
(lp1254
g48
(g69
g50
NtRp1255
(dp1256
g53
(dp1257
g73
g74
ssg62
g1251
sg55
(lp1258
g262
asbag48
(g69
g50
NtRp1259
(dp1260
g53
(dp1261
g80
g81
ssg62
g1251
sg55
(lp1262
S':'
asbag48
(g69
g50
NtRp1263
(dp1264
g53
(dp1265
sg62
g1251
sg55
(lp1266
g48
(g49
g50
NtRp1267
(dp1268
g53
(dp1269
g61
I3
ssg62
g1263
sg55
(lp1270
S''
asbasbasbag48
(g64
g50
NtRp1271
(dp1272
g53
(dp1273
sg62
g1247
sg55
(lp1274
g48
(g69
g50
NtRp1275
(dp1276
g53
(dp1277
g73
g74
ssg62
g1271
sg55
(lp1278
g283
asbag48
(g69
g50
NtRp1279
(dp1280
g53
(dp1281
g80
g81
ssg62
g1271
sg55
(lp1282
S':'
asbag48
(g69
g50
NtRp1283
(dp1284
g53
(dp1285
sg62
g1271
sg55
(lp1286
g48
(g49
g50
NtRp1287
(dp1288
g53
(dp1289
g61
I3
ssg62
g1283
sg55
(lp1290
S''
asbasbasbag48
(g64
g50
NtRp1291
(dp1292
g53
(dp1293
sg62
g1247
sg55
(lp1294
g48
(g69
g50
NtRp1295
(dp1296
g53
(dp1297
g73
g74
ssg62
g1291
sg55
(lp1298
g304
asbag48
(g69
g50
NtRp1299
(dp1300
g53
(dp1301
g80
g81
ssg62
g1291
sg55
(lp1302
S':'
asbag48
(g69
g50
NtRp1303
(dp1304
g53
(dp1305
sg62
g1291
sg55
(lp1306
g48
(g49
g50
NtRp1307
(dp1308
g53
(dp1309
g61
I3
ssg62
g1303
sg55
(lp1310
S''
asbasbasbag48
(g64
g50
NtRp1311
(dp1312
g53
(dp1313
sg62
g1247
sg55
(lp1314
g48
(g69
g50
NtRp1315
(dp1316
g53
(dp1317
g73
g74
ssg62
g1311
sg55
(lp1318
g325
asbag48
(g69
g50
NtRp1319
(dp1320
g53
(dp1321
g80
g81
ssg62
g1311
sg55
(lp1322
S':'
asbag48
(g69
g50
NtRp1323
(dp1324
g53
(dp1325
sg62
g1311
sg55
(lp1326
g48
(g49
g50
NtRp1327
(dp1328
g53
(dp1329
g61
I3
ssg62
g1323
sg55
(lp1330
S''
asbasbasbag48
(g64
g50
NtRp1331
(dp1332
g53
(dp1333
sg62
g1247
sg55
(lp1334
g48
(g69
g50
NtRp1335
(dp1336
g53
(dp1337
g73
g74
ssg62
g1331
sg55
(lp1338
g346
asbag48
(g69
g50
NtRp1339
(dp1340
g53
(dp1341
g80
g81
ssg62
g1331
sg55
(lp1342
S':'
asbag48
(g69
g50
NtRp1343
(dp1344
g53
(dp1345
sg62
g1331
sg55
(lp1346
g48
(g49
g50
NtRp1347
(dp1348
g53
(dp1349
g61
I3
ssg62
g1343
sg55
(lp1350
S''
asbasbasbag48
(g64
g50
NtRp1351
(dp1352
g53
(dp1353
sg62
g1247
sg55
(lp1354
g48
(g69
g50
NtRp1355
(dp1356
g53
(dp1357
g73
g74
ssg62
g1351
sg55
(lp1358
g367
asbag48
(g69
g50
NtRp1359
(dp1360
g53
(dp1361
g80
g81
ssg62
g1351
sg55
(lp1362
S':'
asbag48
(g69
g50
NtRp1363
(dp1364
g53
(dp1365
sg62
g1351
sg55
(lp1366
g48
(g49
g50
NtRp1367
(dp1368
g53
(dp1369
g61
I3
ssg62
g1363
sg55
(lp1370
S''
asbasbasbag48
(g64
g50
NtRp1371
(dp1372
g53
(dp1373
sg62
g1247
sg55
(lp1374
g48
(g69
g50
NtRp1375
(dp1376
g53
(dp1377
g73
g74
ssg62
g1371
sg55
(lp1378
g388
asbag48
(g69
g50
NtRp1379
(dp1380
g53
(dp1381
g80
g81
ssg62
g1371
sg55
(lp1382
S':'
asbag48
(g69
g50
NtRp1383
(dp1384
g53
(dp1385
sg62
g1371
sg55
(lp1386
g48
(g49
g50
NtRp1387
(dp1388
g53
(dp1389
g61
I3
ssg62
g1383
sg55
(lp1390
S''
asbasbasbasbasbasbasbasbasbasbasbag48
(g64
g50
NtRp1391
(dp1392
g53
(dp1393
sg62
g58
sg55
(lp1394
g48
(g69
g50
NtRp1395
(dp1396
g53
(dp1397
g73
g74
ssg62
g1391
sg55
(lp1398
S'env'
p1399
asbag48
(g69
g50
NtRp1400
(dp1401
g53
(dp1402
g80
g81
ssg62
g1391
sg55
(lp1403
S':'
asbag48
(g69
g50
NtRp1404
(dp1405
g53
(dp1406
sg62
g1391
sg55
(lp1407
g48
(g49
g50
NtRp1408
(dp1409
g53
(dp1410
g61
I5
ssg62
g1404
sg55
(lp1411
g48
(g57
g50
NtRp1412
(dp1413
g53
(dp1414
g61
I4
ssg62
Nsg55
(lp1415
g48
(g64
g50
NtRp1416
(dp1417
g53
(dp1418
sg62
g1412
sg55
(lp1419
g48
(g69
g50
NtRp1420
(dp1421
g53
(dp1422
g73
g74
ssg62
g1416
sg55
(lp1423
S'app_folders'
p1424
asbag48
(g69
g50
NtRp1425
(dp1426
g53
(dp1427
g80
g81
ssg62
g1416
sg55
(lp1428
S':'
asbag48
(g69
g50
NtRp1429
(dp1430
g53
(dp1431
sg62
g1416
sg55
(lp1432
g48
(g49
g50
NtRp1433
(dp1434
g53
(dp1435
g61
I4
ssg62
g1429
sg55
(lp1436
S"set(['C:\\\\Users\\\\Atomico\\\\web2py\\\\applications\\\\Desglosar_Emails\\\\', 'C:\\\\Users\\\\Atomico\\\\web2py\\\\applications\\\\Cual_es_tu_nombre\\\\', 'C:\\\\Users\\\\Atomico\\\\web2py\\\\applications\\\\admin\\\\', 'C:\\\\Users\\\\Atomico\\\\web2py\\\\applications\\\\hemoal\\\\', 'C:\\\\Users\\\\Atomico\\\\web2py\\\\applications\\\\myAppJav\\\\', 'C:\\\\Users\\\\Atomico\\\\web2py\\\\applications\\\\welcome\\\\', 'C:\\\\Users\\\\Atomico\\\\web2py\\\\applications\\\\examples\\\\'])"
p1437
asbasbasbag48
(g64
g50
NtRp1438
(dp1439
g53
(dp1440
sg62
g1412
sg55
(lp1441
g48
(g69
g50
NtRp1442
(dp1443
g53
(dp1444
g73
g74
ssg62
g1438
sg55
(lp1445
S'applications_parent'
p1446
asbag48
(g69
g50
NtRp1447
(dp1448
g53
(dp1449
g80
g81
ssg62
g1438
sg55
(lp1450
S':'
asbag48
(g69
g50
NtRp1451
(dp1452
g53
(dp1453
sg62
g1438
sg55
(lp1454
g48
(g49
g50
NtRp1455
(dp1456
g53
(dp1457
g61
I4
ssg62
g1451
sg55
(lp1458
S'C:\\Users\\Atomico\\web2py'
p1459
asbasbasbag48
(g64
g50
NtRp1460
(dp1461
g53
(dp1462
sg62
g1412
sg55
(lp1463
g48
(g69
g50
NtRp1464
(dp1465
g53
(dp1466
g73
g74
ssg62
g1460
sg55
(lp1467
S'cmd_args'
p1468
asbag48
(g69
g50
NtRp1469
(dp1470
g53
(dp1471
g80
g81
ssg62
g1460
sg55
(lp1472
S':'
asbag48
(g69
g50
NtRp1473
(dp1474
g53
(dp1475
sg62
g1460
sg55
(lp1476
g48
(g49
g50
NtRp1477
(dp1478
g53
(dp1479
g61
I4
ssg62
g1473
sg55
(lp1480
g48
(g57
g50
NtRp1481
(dp1482
g53
(dp1483
g61
I3
ssg62
Nsg55
(lp1484
sbasbasbasbag48
(g64
g50
NtRp1485
(dp1486
g53
(dp1487
sg62
g1412
sg55
(lp1488
g48
(g69
g50
NtRp1489
(dp1490
g53
(dp1491
g73
g74
ssg62
g1485
sg55
(lp1492
S'cmd_options'
p1493
asbag48
(g69
g50
NtRp1494
(dp1495
g53
(dp1496
g80
g81
ssg62
g1485
sg55
(lp1497
S':'
asbag48
(g69
g50
NtRp1498
(dp1499
g53
(dp1500
sg62
g1485
sg55
(lp1501
g48
(g49
g50
NtRp1502
(dp1503
g53
(dp1504
g61
I4
ssg62
g1498
sg55
(lp1505
S"<Values at 0x306b620: {'verbose': False, 'ip': '127.0.0.1', 'shutdown_timeout': 5, 'taskbar': False, 'port': 8000, 'maxthreads': None, 'softcron': False, 'server_name': 'Swing', 'bpython': False, 'nogui': False, 'nocron': False, 'extcron': False, 'debuglevel': 30, 'test': None, 'folder': 'C:\\\\Users\\\\Atomico\\\\web2py', 'config': '', 'import_models': False, 'winservice': '', 'shell': None, 'run': '', 'log_filename': 'httpserver.log', 'args': [''], 'profiler_filename': None, 'ssl_private_key': '', 'password': '<ask>', 'request_queue_size': 5, 'ssl_certificate': '', 'cronjob': False, 'plain': False, 'quiet': False, 'interfaces': None, 'minthreads': None, 'timeout': 10, 'numthreads': None, 'nobanner': False, 'pid_filename': 'httpserver.pid'}>"
p1506
asbasbasbag48
(g64
g50
NtRp1507
(dp1508
g53
(dp1509
sg62
g1412
sg55
(lp1510
g48
(g69
g50
NtRp1511
(dp1512
g53
(dp1513
g73
g74
ssg62
g1507
sg55
(lp1514
S'db_sessions'
p1515
asbag48
(g69
g50
NtRp1516
(dp1517
g53
(dp1518
g80
g81
ssg62
g1507
sg55
(lp1519
S':'
asbag48
(g69
g50
NtRp1520
(dp1521
g53
(dp1522
sg62
g1507
sg55
(lp1523
g48
(g49
g50
NtRp1524
(dp1525
g53
(dp1526
g61
I4
ssg62
g1520
sg55
(lp1527
S'set([])'
p1528
asbasbasbag48
(g64
g50
NtRp1529
(dp1530
g53
(dp1531
sg62
g1412
sg55
(lp1532
g48
(g69
g50
NtRp1533
(dp1534
g53
(dp1535
g73
g74
ssg62
g1529
sg55
(lp1536
S'debugging'
p1537
asbag48
(g69
g50
NtRp1538
(dp1539
g53
(dp1540
g80
g81
ssg62
g1529
sg55
(lp1541
S':'
asbag48
(g69
g50
NtRp1542
(dp1543
g53
(dp1544
sg62
g1529
sg55
(lp1545
g48
(g49
g50
NtRp1546
(dp1547
g53
(dp1548
g61
I4
ssg62
g1542
sg55
(lp1549
g91
asbasbasbag48
(g64
g50
NtRp1550
(dp1551
g53
(dp1552
sg62
g1412
sg55
(lp1553
g48
(g69
g50
NtRp1554
(dp1555
g53
(dp1556
g73
g74
ssg62
g1550
sg55
(lp1557
S'gluon_parent'
p1558
asbag48
(g69
g50
NtRp1559
(dp1560
g53
(dp1561
g80
g81
ssg62
g1550
sg55
(lp1562
S':'
asbag48
(g69
g50
NtRp1563
(dp1564
g53
(dp1565
sg62
g1550
sg55
(lp1566
g48
(g49
g50
NtRp1567
(dp1568
g53
(dp1569
g61
I4
ssg62
g1563
sg55
(lp1570
S'C:\\Users\\Atomico\\web2py'
p1571
asbasbasbag48
(g64
g50
NtRp1572
(dp1573
g53
(dp1574
sg62
g1412
sg55
(lp1575
g48
(g69
g50
NtRp1576
(dp1577
g53
(dp1578
g73
g74
ssg62
g1572
sg55
(lp1579
S'http_accept'
p1580
asbag48
(g69
g50
NtRp1581
(dp1582
g53
(dp1583
g80
g81
ssg62
g1572
sg55
(lp1584
S':'
asbag48
(g69
g50
NtRp1585
(dp1586
g53
(dp1587
sg62
g1572
sg55
(lp1588
g48
(g49
g50
NtRp1589
(dp1590
g53
(dp1591
g61
I4
ssg62
g1585
sg55
(lp1592
S'text/html,application/xhtml+xml,application/xml;q=0.9,*/*;q=0.8'
p1593
asbasbasbag48
(g64
g50
NtRp1594
(dp1595
g53
(dp1596
sg62
g1412
sg55
(lp1597
g48
(g69
g50
NtRp1598
(dp1599
g53
(dp1600
g73
g74
ssg62
g1594
sg55
(lp1601
S'http_accept_charset'
p1602
asbag48
(g69
g50
NtRp1603
(dp1604
g53
(dp1605
g80
g81
ssg62
g1594
sg55
(lp1606
S':'
asbag48
(g69
g50
NtRp1607
(dp1608
g53
(dp1609
sg62
g1594
sg55
(lp1610
g48
(g49
g50
NtRp1611
(dp1612
g53
(dp1613
g61
I4
ssg62
g1607
sg55
(lp1614
S'ISO-8859-1,utf-8;q=0.7,*;q=0.7'
p1615
asbasbasbag48
(g64
g50
NtRp1616
(dp1617
g53
(dp1618
sg62
g1412
sg55
(lp1619
g48
(g69
g50
NtRp1620
(dp1621
g53
(dp1622
g73
g74
ssg62
g1616
sg55
(lp1623
S'http_accept_encoding'
p1624
asbag48
(g69
g50
NtRp1625
(dp1626
g53
(dp1627
g80
g81
ssg62
g1616
sg55
(lp1628
S':'
asbag48
(g69
g50
NtRp1629
(dp1630
g53
(dp1631
sg62
g1616
sg55
(lp1632
g48
(g49
g50
NtRp1633
(dp1634
g53
(dp1635
g61
I4
ssg62
g1629
sg55
(lp1636
S'gzip, deflate'
p1637
asbasbasbag48
(g64
g50
NtRp1638
(dp1639
g53
(dp1640
sg62
g1412
sg55
(lp1641
g48
(g69
g50
NtRp1642
(dp1643
g53
(dp1644
g73
g74
ssg62
g1638
sg55
(lp1645
S'http_accept_language'
p1646
asbag48
(g69
g50
NtRp1647
(dp1648
g53
(dp1649
g80
g81
ssg62
g1638
sg55
(lp1650
S':'
asbag48
(g69
g50
NtRp1651
(dp1652
g53
(dp1653
sg62
g1638
sg55
(lp1654
g48
(g49
g50
NtRp1655
(dp1656
g53
(dp1657
g61
I4
ssg62
g1651
sg55
(lp1658
S'es-es,es;q=0.8,en-us;q=0.5,en;q=0.3'
p1659
asbasbasbag48
(g64
g50
NtRp1660
(dp1661
g53
(dp1662
sg62
g1412
sg55
(lp1663
g48
(g69
g50
NtRp1664
(dp1665
g53
(dp1666
g73
g74
ssg62
g1660
sg55
(lp1667
S'http_cache_control'
p1668
asbag48
(g69
g50
NtRp1669
(dp1670
g53
(dp1671
g80
g81
ssg62
g1660
sg55
(lp1672
S':'
asbag48
(g69
g50
NtRp1673
(dp1674
g53
(dp1675
sg62
g1660
sg55
(lp1676
g48
(g49
g50
NtRp1677
(dp1678
g53
(dp1679
g61
I4
ssg62
g1673
sg55
(lp1680
S'max-age=0'
p1681
asbasbasbag48
(g64
g50
NtRp1682
(dp1683
g53
(dp1684
sg62
g1412
sg55
(lp1685
g48
(g69
g50
NtRp1686
(dp1687
g53
(dp1688
g73
g74
ssg62
g1682
sg55
(lp1689
S'http_connection'
p1690
asbag48
(g69
g50
NtRp1691
(dp1692
g53
(dp1693
g80
g81
ssg62
g1682
sg55
(lp1694
S':'
asbag48
(g69
g50
NtRp1695
(dp1696
g53
(dp1697
sg62
g1682
sg55
(lp1698
g48
(g49
g50
NtRp1699
(dp1700
g53
(dp1701
g61
I4
ssg62
g1695
sg55
(lp1702
S'keep-alive'
p1703
asbasbasbag48
(g64
g50
NtRp1704
(dp1705
g53
(dp1706
sg62
g1412
sg55
(lp1707
g48
(g69
g50
NtRp1708
(dp1709
g53
(dp1710
g73
g74
ssg62
g1704
sg55
(lp1711
S'http_cookie'
p1712
asbag48
(g69
g50
NtRp1713
(dp1714
g53
(dp1715
g80
g81
ssg62
g1704
sg55
(lp1716
S':'
asbag48
(g69
g50
NtRp1717
(dp1718
g53
(dp1719
sg62
g1704
sg55
(lp1720
g48
(g49
g50
NtRp1721
(dp1722
g53
(dp1723
g61
I4
ssg62
g1717
sg55
(lp1724
S'session_id_welcome=127.0.0.1-082a2830-9bb6-4bfb-b2e2-4857b06c191e; session_id_admin=127.0.0.1-a96e0cfe-5117-4d37-8e25-f7dd128ab504; session_id_listado_1=127.0.0.1-477ec098-5436-4f6e-bfee-1a0bd88f6f9e; session_id_desglosar_emails=127.0.0.1-0a11b3b2-660c-433c-b71f-fc129286f26c; session_id_hemoal=127.0.0.1-442afb36-a73d-4692-979c-372017ada9e5; session_id_myappjav=127.0.0.1-b6da3776-a7b2-40a7-ab82-4eca2d3263a1; session_id_cual_es_tu_nombre=127.0.0.1-5e59e375-704d-4241-8b9c-5fd9f8c15773'
p1725
asbasbasbag48
(g64
g50
NtRp1726
(dp1727
g53
(dp1728
sg62
g1412
sg55
(lp1729
g48
(g69
g50
NtRp1730
(dp1731
g53
(dp1732
g73
g74
ssg62
g1726
sg55
(lp1733
S'http_host'
p1734
asbag48
(g69
g50
NtRp1735
(dp1736
g53
(dp1737
g80
g81
ssg62
g1726
sg55
(lp1738
S':'
asbag48
(g69
g50
NtRp1739
(dp1740
g53
(dp1741
sg62
g1726
sg55
(lp1742
g48
(g49
g50
NtRp1743
(dp1744
g53
(dp1745
g61
I4
ssg62
g1739
sg55
(lp1746
S'127.0.0.1:8000'
p1747
asbasbasbag48
(g64
g50
NtRp1748
(dp1749
g53
(dp1750
sg62
g1412
sg55
(lp1751
g48
(g69
g50
NtRp1752
(dp1753
g53
(dp1754
g73
g74
ssg62
g1748
sg55
(lp1755
S'http_user_agent'
p1756
asbag48
(g69
g50
NtRp1757
(dp1758
g53
(dp1759
g80
g81
ssg62
g1748
sg55
(lp1760
S':'
asbag48
(g69
g50
NtRp1761
(dp1762
g53
(dp1763
sg62
g1748
sg55
(lp1764
g48
(g49
g50
NtRp1765
(dp1766
g53
(dp1767
g61
I4
ssg62
g1761
sg55
(lp1768
S'Mozilla/5.0 (Windows NT 6.1; WOW64; rv:6.0.2) Gecko/20100101 Firefox/6.0.2'
p1769
asbasbasbag48
(g64
g50
NtRp1770
(dp1771
g53
(dp1772
sg62
g1412
sg55
(lp1773
g48
(g69
g50
NtRp1774
(dp1775
g53
(dp1776
g73
g74
ssg62
g1770
sg55
(lp1777
S'is_jython'
p1778
asbag48
(g69
g50
NtRp1779
(dp1780
g53
(dp1781
g80
g81
ssg62
g1770
sg55
(lp1782
S':'
asbag48
(g69
g50
NtRp1783
(dp1784
g53
(dp1785
sg62
g1770
sg55
(lp1786
g48
(g49
g50
NtRp1787
(dp1788
g53
(dp1789
g61
I4
ssg62
g1783
sg55
(lp1790
g91
asbasbasbag48
(g64
g50
NtRp1791
(dp1792
g53
(dp1793
sg62
g1412
sg55
(lp1794
g48
(g69
g50
NtRp1795
(dp1796
g53
(dp1797
g73
g74
ssg62
g1791
sg55
(lp1798
S'path_info'
p1799
asbag48
(g69
g50
NtRp1800
(dp1801
g53
(dp1802
g80
g81
ssg62
g1791
sg55
(lp1803
S':'
asbag48
(g69
g50
NtRp1804
(dp1805
g53
(dp1806
sg62
g1791
sg55
(lp1807
g48
(g49
g50
NtRp1808
(dp1809
g53
(dp1810
g61
I4
ssg62
g1804
sg55
(lp1811
S'/Desglosar_Emails/default/entrada_mod2'
p1812
asbasbasbag48
(g64
g50
NtRp1813
(dp1814
g53
(dp1815
sg62
g1412
sg55
(lp1816
g48
(g69
g50
NtRp1817
(dp1818
g53
(dp1819
g73
g74
ssg62
g1813
sg55
(lp1820
S'query_string'
p1821
asbag48
(g69
g50
NtRp1822
(dp1823
g53
(dp1824
g80
g81
ssg62
g1813
sg55
(lp1825
S':'
asbag48
(g69
g50
NtRp1826
(dp1827
g53
(dp1828
sg62
g1813
sg55
(lp1829
g48
(g49
g50
NtRp1830
(dp1831
g53
(dp1832
g61
I4
ssg62
g1826
sg55
(lp1833
S''
asbasbasbag48
(g64
g50
NtRp1834
(dp1835
g53
(dp1836
sg62
g1412
sg55
(lp1837
g48
(g69
g50
NtRp1838
(dp1839
g53
(dp1840
g73
g74
ssg62
g1834
sg55
(lp1841
S'remote_addr'
p1842
asbag48
(g69
g50
NtRp1843
(dp1844
g53
(dp1845
g80
g81
ssg62
g1834
sg55
(lp1846
S':'
asbag48
(g69
g50
NtRp1847
(dp1848
g53
(dp1849
sg62
g1834
sg55
(lp1850
g48
(g49
g50
NtRp1851
(dp1852
g53
(dp1853
g61
I4
ssg62
g1847
sg55
(lp1854
g181
asbasbasbag48
(g64
g50
NtRp1855
(dp1856
g53
(dp1857
sg62
g1412
sg55
(lp1858
g48
(g69
g50
NtRp1859
(dp1860
g53
(dp1861
g73
g74
ssg62
g1855
sg55
(lp1862
S'remote_port'
p1863
asbag48
(g69
g50
NtRp1864
(dp1865
g53
(dp1866
g80
g81
ssg62
g1855
sg55
(lp1867
S':'
asbag48
(g69
g50
NtRp1868
(dp1869
g53
(dp1870
sg62
g1855
sg55
(lp1871
g48
(g49
g50
NtRp1872
(dp1873
g53
(dp1874
g61
I4
ssg62
g1868
sg55
(lp1875
S'56466'
p1876
asbasbasbag48
(g64
g50
NtRp1877
(dp1878
g53
(dp1879
sg62
g1412
sg55
(lp1880
g48
(g69
g50
NtRp1881
(dp1882
g53
(dp1883
g73
g74
ssg62
g1877
sg55
(lp1884
S'request_method'
p1885
asbag48
(g69
g50
NtRp1886
(dp1887
g53
(dp1888
g80
g81
ssg62
g1877
sg55
(lp1889
S':'
asbag48
(g69
g50
NtRp1890
(dp1891
g53
(dp1892
sg62
g1877
sg55
(lp1893
g48
(g49
g50
NtRp1894
(dp1895
g53
(dp1896
g61
I4
ssg62
g1890
sg55
(lp1897
S'GET'
p1898
asbasbasbag48
(g64
g50
NtRp1899
(dp1900
g53
(dp1901
sg62
g1412
sg55
(lp1902
g48
(g69
g50
NtRp1903
(dp1904
g53
(dp1905
g73
g74
ssg62
g1899
sg55
(lp1906
S'script_name'
p1907
asbag48
(g69
g50
NtRp1908
(dp1909
g53
(dp1910
g80
g81
ssg62
g1899
sg55
(lp1911
S':'
asbag48
(g69
g50
NtRp1912
(dp1913
g53
(dp1914
sg62
g1899
sg55
(lp1915
g48
(g49
g50
NtRp1916
(dp1917
g53
(dp1918
g61
I4
ssg62
g1912
sg55
(lp1919
S''
asbasbasbag48
(g64
g50
NtRp1920
(dp1921
g53
(dp1922
sg62
g1412
sg55
(lp1923
g48
(g69
g50
NtRp1924
(dp1925
g53
(dp1926
g73
g74
ssg62
g1920
sg55
(lp1927
S'server_name'
p1928
asbag48
(g69
g50
NtRp1929
(dp1930
g53
(dp1931
g80
g81
ssg62
g1920
sg55
(lp1932
S':'
asbag48
(g69
g50
NtRp1933
(dp1934
g53
(dp1935
sg62
g1920
sg55
(lp1936
g48
(g49
g50
NtRp1937
(dp1938
g53
(dp1939
g61
I4
ssg62
g1933
sg55
(lp1940
S'Swing'
p1941
asbasbasbag48
(g64
g50
NtRp1942
(dp1943
g53
(dp1944
sg62
g1412
sg55
(lp1945
g48
(g69
g50
NtRp1946
(dp1947
g53
(dp1948
g73
g74
ssg62
g1942
sg55
(lp1949
S'server_port'
p1950
asbag48
(g69
g50
NtRp1951
(dp1952
g53
(dp1953
g80
g81
ssg62
g1942
sg55
(lp1954
S':'
asbag48
(g69
g50
NtRp1955
(dp1956
g53
(dp1957
sg62
g1942
sg55
(lp1958
g48
(g49
g50
NtRp1959
(dp1960
g53
(dp1961
g61
I4
ssg62
g1955
sg55
(lp1962
S'8000'
p1963
asbasbasbag48
(g64
g50
NtRp1964
(dp1965
g53
(dp1966
sg62
g1412
sg55
(lp1967
g48
(g69
g50
NtRp1968
(dp1969
g53
(dp1970
g73
g74
ssg62
g1964
sg55
(lp1971
S'server_protocol'
p1972
asbag48
(g69
g50
NtRp1973
(dp1974
g53
(dp1975
g80
g81
ssg62
g1964
sg55
(lp1976
S':'
asbag48
(g69
g50
NtRp1977
(dp1978
g53
(dp1979
sg62
g1964
sg55
(lp1980
g48
(g49
g50
NtRp1981
(dp1982
g53
(dp1983
g61
I4
ssg62
g1977
sg55
(lp1984
S'HTTP/1.1'
p1985
asbasbasbag48
(g64
g50
NtRp1986
(dp1987
g53
(dp1988
sg62
g1412
sg55
(lp1989
g48
(g69
g50
NtRp1990
(dp1991
g53
(dp1992
g73
g74
ssg62
g1986
sg55
(lp1993
S'server_software'
p1994
asbag48
(g69
g50
NtRp1995
(dp1996
g53
(dp1997
g80
g81
ssg62
g1986
sg55
(lp1998
S':'
asbag48
(g69
g50
NtRp1999
(dp2000
g53
(dp2001
sg62
g1986
sg55
(lp2002
g48
(g49
g50
NtRp2003
(dp2004
g53
(dp2005
g61
I4
ssg62
g1999
sg55
(lp2006
S'Rocket 1.2.2'
p2007
asbasbasbag48
(g64
g50
NtRp2008
(dp2009
g53
(dp2010
sg62
g1412
sg55
(lp2011
g48
(g69
g50
NtRp2012
(dp2013
g53
(dp2014
g73
g74
ssg62
g2008
sg55
(lp2015
S'web2py_crontype'
p2016
asbag48
(g69
g50
NtRp2017
(dp2018
g53
(dp2019
g80
g81
ssg62
g2008
sg55
(lp2020
S':'
asbag48
(g69
g50
NtRp2021
(dp2022
g53
(dp2023
sg62
g2008
sg55
(lp2024
g48
(g49
g50
NtRp2025
(dp2026
g53
(dp2027
g61
I4
ssg62
g2021
sg55
(lp2028
S'hard'
p2029
asbasbasbag48
(g64
g50
NtRp2030
(dp2031
g53
(dp2032
sg62
g1412
sg55
(lp2033
g48
(g69
g50
NtRp2034
(dp2035
g53
(dp2036
g73
g74
ssg62
g2030
sg55
(lp2037
S'web2py_path'
p2038
asbag48
(g69
g50
NtRp2039
(dp2040
g53
(dp2041
g80
g81
ssg62
g2030
sg55
(lp2042
S':'
asbag48
(g69
g50
NtRp2043
(dp2044
g53
(dp2045
sg62
g2030
sg55
(lp2046
g48
(g49
g50
NtRp2047
(dp2048
g53
(dp2049
g61
I4
ssg62
g2043
sg55
(lp2050
g1459
asbasbasbag48
(g64
g50
NtRp2051
(dp2052
g53
(dp2053
sg62
g1412
sg55
(lp2054
g48
(g69
g50
NtRp2055
(dp2056
g53
(dp2057
g73
g74
ssg62
g2051
sg55
(lp2058
S'web2py_version'
p2059
asbag48
(g69
g50
NtRp2060
(dp2061
g53
(dp2062
g80
g81
ssg62
g2051
sg55
(lp2063
S':'
asbag48
(g69
g50
NtRp2064
(dp2065
g53
(dp2066
sg62
g2051
sg55
(lp2067
g48
(g49
g50
NtRp2068
(dp2069
g53
(dp2070
g61
I4
ssg62
g2064
sg55
(lp2071
S'Version 1.98.2 (2011-08-04 00:47:09)\n'
p2072
asbasbasbag48
(g64
g50
NtRp2073
(dp2074
g53
(dp2075
sg62
g1412
sg55
(lp2076
g48
(g69
g50
NtRp2077
(dp2078
g53
(dp2079
g73
g74
ssg62
g2073
sg55
(lp2080
S'wsgi_errors'
p2081
asbag48
(g69
g50
NtRp2082
(dp2083
g53
(dp2084
g80
g81
ssg62
g2073
sg55
(lp2085
S':'
asbag48
(g69
g50
NtRp2086
(dp2087
g53
(dp2088
sg62
g2073
sg55
(lp2089
g48
(g49
g50
NtRp2090
(dp2091
g53
(dp2092
g61
I4
ssg62
g2086
sg55
(lp2093
S"<open file '<stderr>', mode 'w' at 0x003100B0>"
p2094
asbasbasbag48
(g64
g50
NtRp2095
(dp2096
g53
(dp2097
sg62
g1412
sg55
(lp2098
g48
(g69
g50
NtRp2099
(dp2100
g53
(dp2101
g73
g74
ssg62
g2095
sg55
(lp2102
S'wsgi_file_wrapper'
p2103
asbag48
(g69
g50
NtRp2104
(dp2105
g53
(dp2106
g80
g81
ssg62
g2095
sg55
(lp2107
S':'
asbag48
(g69
g50
NtRp2108
(dp2109
g53
(dp2110
sg62
g2095
sg55
(lp2111
g48
(g49
g50
NtRp2112
(dp2113
g53
(dp2114
g61
I4
ssg62
g2108
sg55
(lp2115
S'<class gluon.rocket.FileWrapper at 0x02FFC1B0>'
p2116
asbasbasbag48
(g64
g50
NtRp2117
(dp2118
g53
(dp2119
sg62
g1412
sg55
(lp2120
g48
(g69
g50
NtRp2121
(dp2122
g53
(dp2123
g73
g74
ssg62
g2117
sg55
(lp2124
S'wsgi_input'
p2125
asbag48
(g69
g50
NtRp2126
(dp2127
g53
(dp2128
g80
g81
ssg62
g2117
sg55
(lp2129
S':'
asbag48
(g69
g50
NtRp2130
(dp2131
g53
(dp2132
sg62
g2117
sg55
(lp2133
g48
(g49
g50
NtRp2134
(dp2135
g53
(dp2136
g61
I4
ssg62
g2130
sg55
(lp2137
S'<socket._fileobject object at 0x07B10930>'
p2138
asbasbasbag48
(g64
g50
NtRp2139
(dp2140
g53
(dp2141
sg62
g1412
sg55
(lp2142
g48
(g69
g50
NtRp2143
(dp2144
g53
(dp2145
g73
g74
ssg62
g2139
sg55
(lp2146
S'wsgi_multiprocess'
p2147
asbag48
(g69
g50
NtRp2148
(dp2149
g53
(dp2150
g80
g81
ssg62
g2139
sg55
(lp2151
S':'
asbag48
(g69
g50
NtRp2152
(dp2153
g53
(dp2154
sg62
g2139
sg55
(lp2155
g48
(g49
g50
NtRp2156
(dp2157
g53
(dp2158
g61
I4
ssg62
g2152
sg55
(lp2159
g91
asbasbasbag48
(g64
g50
NtRp2160
(dp2161
g53
(dp2162
sg62
g1412
sg55
(lp2163
g48
(g69
g50
NtRp2164
(dp2165
g53
(dp2166
g73
g74
ssg62
g2160
sg55
(lp2167
S'wsgi_multithread'
p2168
asbag48
(g69
g50
NtRp2169
(dp2170
g53
(dp2171
g80
g81
ssg62
g2160
sg55
(lp2172
S':'
asbag48
(g69
g50
NtRp2173
(dp2174
g53
(dp2175
sg62
g2160
sg55
(lp2176
g48
(g49
g50
NtRp2177
(dp2178
g53
(dp2179
g61
I4
ssg62
g2173
sg55
(lp2180
S'True'
p2181
asbasbasbag48
(g64
g50
NtRp2182
(dp2183
g53
(dp2184
sg62
g1412
sg55
(lp2185
g48
(g69
g50
NtRp2186
(dp2187
g53
(dp2188
g73
g74
ssg62
g2182
sg55
(lp2189
S'wsgi_run_once'
p2190
asbag48
(g69
g50
NtRp2191
(dp2192
g53
(dp2193
g80
g81
ssg62
g2182
sg55
(lp2194
S':'
asbag48
(g69
g50
NtRp2195
(dp2196
g53
(dp2197
sg62
g2182
sg55
(lp2198
g48
(g49
g50
NtRp2199
(dp2200
g53
(dp2201
g61
I4
ssg62
g2195
sg55
(lp2202
g91
asbasbasbag48
(g64
g50
NtRp2203
(dp2204
g53
(dp2205
sg62
g1412
sg55
(lp2206
g48
(g69
g50
NtRp2207
(dp2208
g53
(dp2209
g73
g74
ssg62
g2203
sg55
(lp2210
S'wsgi_url_scheme'
p2211
asbag48
(g69
g50
NtRp2212
(dp2213
g53
(dp2214
g80
g81
ssg62
g2203
sg55
(lp2215
S':'
asbag48
(g69
g50
NtRp2216
(dp2217
g53
(dp2218
sg62
g2203
sg55
(lp2219
g48
(g49
g50
NtRp2220
(dp2221
g53
(dp2222
g61
I4
ssg62
g2216
sg55
(lp2223
S'http'
p2224
asbasbasbag48
(g64
g50
NtRp2225
(dp2226
g53
(dp2227
sg62
g1412
sg55
(lp2228
g48
(g69
g50
NtRp2229
(dp2230
g53
(dp2231
g73
g74
ssg62
g2225
sg55
(lp2232
S'wsgi_version'
p2233
asbag48
(g69
g50
NtRp2234
(dp2235
g53
(dp2236
g80
g81
ssg62
g2225
sg55
(lp2237
S':'
asbag48
(g69
g50
NtRp2238
(dp2239
g53
(dp2240
sg62
g2225
sg55
(lp2241
g48
(g49
g50
NtRp2242
(dp2243
g53
(dp2244
g61
I4
ssg62
g2238
sg55
(lp2245
g48
(g57
g50
NtRp2246
(dp2247
g53
(dp2248
g61
I3
ssg62
Nsg55
(lp2249
g48
(g64
g50
NtRp2250
(dp2251
g53
(dp2252
sg62
g2246
sg55
(lp2253
g48
(g69
g50
NtRp2254
(dp2255
g53
(dp2256
sg62
g2250
sg55
(lp2257
g48
(g49
g50
NtRp2258
(dp2259
g53
(dp2260
g61
I3
ssg62
g2254
sg55
(lp2261
S'1'
asbasbasbag48
(g64
g50
NtRp2262
(dp2263
g53
(dp2264
sg62
g2246
sg55
(lp2265
g48
(g69
g50
NtRp2266
(dp2267
g53
(dp2268
sg62
g2262
sg55
(lp2269
g48
(g49
g50
NtRp2270
(dp2271
g53
(dp2272
g61
I3
ssg62
g2266
sg55
(lp2273
S'0'
asbasbasbasbasbasbasbasbasbasbasbag48
(g64
g50
NtRp2274
(dp2275
g53
(dp2276
sg62
g58
sg55
(lp2277
g48
(g69
g50
NtRp2278
(dp2279
g53
(dp2280
g73
g74
ssg62
g2274
sg55
(lp2281
S'extension'
p2282
asbag48
(g69
g50
NtRp2283
(dp2284
g53
(dp2285
g80
g81
ssg62
g2274
sg55
(lp2286
S':'
asbag48
(g69
g50
NtRp2287
(dp2288
g53
(dp2289
sg62
g2274
sg55
(lp2290
g48
(g49
g50
NtRp2291
(dp2292
g53
(dp2293
g61
I5
ssg62
g2287
sg55
(lp2294
S'html'
p2295
asbasbasbag48
(g64
g50
NtRp2296
(dp2297
g53
(dp2298
sg62
g58
sg55
(lp2299
g48
(g69
g50
NtRp2300
(dp2301
g53
(dp2302
g73
g74
ssg62
g2296
sg55
(lp2303
S'folder'
p2304
asbag48
(g69
g50
NtRp2305
(dp2306
g53
(dp2307
g80
g81
ssg62
g2296
sg55
(lp2308
S':'
asbag48
(g69
g50
NtRp2309
(dp2310
g53
(dp2311
sg62
g2296
sg55
(lp2312
g48
(g49
g50
NtRp2313
(dp2314
g53
(dp2315
g61
I5
ssg62
g2309
sg55
(lp2316
S'C:\\Users\\Atomico\\web2py\\applications\\Desglosar_Emails\\'
p2317
asbasbasbag48
(g64
g50
NtRp2318
(dp2319
g53
(dp2320
sg62
g58
sg55
(lp2321
g48
(g69
g50
NtRp2322
(dp2323
g53
(dp2324
g73
g74
ssg62
g2318
sg55
(lp2325
S'function'
p2326
asbag48
(g69
g50
NtRp2327
(dp2328
g53
(dp2329
g80
g81
ssg62
g2318
sg55
(lp2330
S':'
asbag48
(g69
g50
NtRp2331
(dp2332
g53
(dp2333
sg62
g2318
sg55
(lp2334
g48
(g49
g50
NtRp2335
(dp2336
g53
(dp2337
g61
I5
ssg62
g2331
sg55
(lp2338
S'entrada_mod2'
p2339
asbasbasbag48
(g64
g50
NtRp2340
(dp2341
g53
(dp2342
sg62
g58
sg55
(lp2343
g48
(g69
g50
NtRp2344
(dp2345
g53
(dp2346
g73
g74
ssg62
g2340
sg55
(lp2347
S'get_vars'
p2348
asbag48
(g69
g50
NtRp2349
(dp2350
g53
(dp2351
g80
g81
ssg62
g2340
sg55
(lp2352
S':'
asbag48
(g69
g50
NtRp2353
(dp2354
g53
(dp2355
sg62
g2340
sg55
(lp2356
g48
(g49
g50
NtRp2357
(dp2358
g53
(dp2359
g61
I5
ssg62
g2353
sg55
(lp2360
g48
(g57
g50
NtRp2361
(dp2362
g53
(dp2363
g61
I4
ssg62
Nsg55
(lp2364
sbasbasbasbag48
(g64
g50
NtRp2365
(dp2366
g53
(dp2367
sg62
g58
sg55
(lp2368
g48
(g69
g50
NtRp2369
(dp2370
g53
(dp2371
g73
g74
ssg62
g2365
sg55
(lp2372
S'is_https'
p2373
asbag48
(g69
g50
NtRp2374
(dp2375
g53
(dp2376
g80
g81
ssg62
g2365
sg55
(lp2377
S':'
asbag48
(g69
g50
NtRp2378
(dp2379
g53
(dp2380
sg62
g2365
sg55
(lp2381
g48
(g49
g50
NtRp2382
(dp2383
g53
(dp2384
g61
I5
ssg62
g2378
sg55
(lp2385
g91
asbasbasbag48
(g64
g50
NtRp2386
(dp2387
g53
(dp2388
sg62
g58
sg55
(lp2389
g48
(g69
g50
NtRp2390
(dp2391
g53
(dp2392
g73
g74
ssg62
g2386
sg55
(lp2393
S'is_local'
p2394
asbag48
(g69
g50
NtRp2395
(dp2396
g53
(dp2397
g80
g81
ssg62
g2386
sg55
(lp2398
S':'
asbag48
(g69
g50
NtRp2399
(dp2400
g53
(dp2401
sg62
g2386
sg55
(lp2402
g48
(g49
g50
NtRp2403
(dp2404
g53
(dp2405
g61
I5
ssg62
g2399
sg55
(lp2406
g2181
asbasbasbag48
(g64
g50
NtRp2407
(dp2408
g53
(dp2409
sg62
g58
sg55
(lp2410
g48
(g69
g50
NtRp2411
(dp2412
g53
(dp2413
g73
g74
ssg62
g2407
sg55
(lp2414
S'is_restful'
p2415
asbag48
(g69
g50
NtRp2416
(dp2417
g53
(dp2418
g80
g81
ssg62
g2407
sg55
(lp2419
S':'
asbag48
(g69
g50
NtRp2420
(dp2421
g53
(dp2422
sg62
g2407
sg55
(lp2423
g48
(g49
g50
NtRp2424
(dp2425
g53
(dp2426
g61
I5
ssg62
g2420
sg55
(lp2427
g91
asbasbasbag48
(g64
g50
NtRp2428
(dp2429
g53
(dp2430
sg62
g58
sg55
(lp2431
g48
(g69
g50
NtRp2432
(dp2433
g53
(dp2434
g73
g74
ssg62
g2428
sg55
(lp2435
S'now'
p2436
asbag48
(g69
g50
NtRp2437
(dp2438
g53
(dp2439
g80
g81
ssg62
g2428
sg55
(lp2440
S':'
asbag48
(g69
g50
NtRp2441
(dp2442
g53
(dp2443
sg62
g2428
sg55
(lp2444
g48
(g49
g50
NtRp2445
(dp2446
g53
(dp2447
g61
I5
ssg62
g2441
sg55
(lp2448
S'datetime.datetime(2011, 9, 19, 12, 11, 17, 462000)'
p2449
asbasbasbag48
(g64
g50
NtRp2450
(dp2451
g53
(dp2452
sg62
g58
sg55
(lp2453
g48
(g69
g50
NtRp2454
(dp2455
g53
(dp2456
g73
g74
ssg62
g2450
sg55
(lp2457
S'post_vars'
p2458
asbag48
(g69
g50
NtRp2459
(dp2460
g53
(dp2461
g80
g81
ssg62
g2450
sg55
(lp2462
S':'
asbag48
(g69
g50
NtRp2463
(dp2464
g53
(dp2465
sg62
g2450
sg55
(lp2466
g48
(g49
g50
NtRp2467
(dp2468
g53
(dp2469
g61
I5
ssg62
g2463
sg55
(lp2470
g48
(g57
g50
NtRp2471
(dp2472
g53
(dp2473
g61
I4
ssg62
Nsg55
(lp2474
sbasbasbasbag48
(g64
g50
NtRp2475
(dp2476
g53
(dp2477
sg62
g58
sg55
(lp2478
g48
(g69
g50
NtRp2479
(dp2480
g53
(dp2481
g73
g74
ssg62
g2475
sg55
(lp2482
S'url'
p2483
asbag48
(g69
g50
NtRp2484
(dp2485
g53
(dp2486
g80
g81
ssg62
g2475
sg55
(lp2487
S':'
asbag48
(g69
g50
NtRp2488
(dp2489
g53
(dp2490
sg62
g2475
sg55
(lp2491
g48
(g49
g50
NtRp2492
(dp2493
g53
(dp2494
g61
I5
ssg62
g2488
sg55
(lp2495
S'/Desglosar_Emails/default/entrada_mod2'
p2496
asbasbasbag48
(g64
g50
NtRp2497
(dp2498
g53
(dp2499
sg62
g58
sg55
(lp2500
g48
(g69
g50
NtRp2501
(dp2502
g53
(dp2503
g73
g74
ssg62
g2497
sg55
(lp2504
S'uuid'
p2505
asbag48
(g69
g50
NtRp2506
(dp2507
g53
(dp2508
g80
g81
ssg62
g2497
sg55
(lp2509
S':'
asbag48
(g69
g50
NtRp2510
(dp2511
g53
(dp2512
sg62
g2497
sg55
(lp2513
g48
(g49
g50
NtRp2514
(dp2515
g53
(dp2516
g61
I5
ssg62
g2510
sg55
(lp2517
S'Desglosar_Emails/127.0.0.1.2011-09-19.12-11-17.7ddf2f49-ba04-4785-b35d-293deaac7ecb'
p2518
asbasbasbag48
(g64
g50
NtRp2519
(dp2520
g53
(dp2521
sg62
g58
sg55
(lp2522
g48
(g69
g50
NtRp2523
(dp2524
g53
(dp2525
g73
g74
ssg62
g2519
sg55
(lp2526
S'vars'
p2527
asbag48
(g69
g50
NtRp2528
(dp2529
g53
(dp2530
g80
g81
ssg62
g2519
sg55
(lp2531
S':'
asbag48
(g69
g50
NtRp2532
(dp2533
g53
(dp2534
sg62
g2519
sg55
(lp2535
g48
(g49
g50
NtRp2536
(dp2537
g53
(dp2538
g61
I5
ssg62
g2532
sg55
(lp2539
g48
(g57
g50
NtRp2540
(dp2541
g53
(dp2542
g61
I4
ssg62
Nsg55
(lp2543
sbasbasbasbag48
(g64
g50
NtRp2544
(dp2545
g53
(dp2546
sg62
g58
sg55
(lp2547
g48
(g69
g50
NtRp2548
(dp2549
g53
(dp2550
g73
g74
ssg62
g2544
sg55
(lp2551
S'wsgi'
p2552
asbag48
(g69
g50
NtRp2553
(dp2554
g53
(dp2555
g80
g81
ssg62
g2544
sg55
(lp2556
S':'
asbag48
(g69
g50
NtRp2557
(dp2558
g53
(dp2559
sg62
g2544
sg55
(lp2560
g48
(g49
g50
NtRp2561
(dp2562
g53
(dp2563
g61
I5
ssg62
g2557
sg55
(lp2564
g48
(g57
g50
NtRp2565
(dp2566
g53
(dp2567
g61
I4
ssg62
Nsg55
(lp2568
g48
(g64
g50
NtRp2569
(dp2570
g53
(dp2571
sg62
g2565
sg55
(lp2572
g48
(g69
g50
NtRp2573
(dp2574
g53
(dp2575
g73
g74
ssg62
g2569
sg55
(lp2576
S'environ'
p2577
asbag48
(g69
g50
NtRp2578
(dp2579
g53
(dp2580
g80
g81
ssg62
g2569
sg55
(lp2581
S':'
asbag48
(g69
g50
NtRp2582
(dp2583
g53
(dp2584
sg62
g2569
sg55
(lp2585
g48
(g49
g50
NtRp2586
(dp2587
g53
(dp2588
g61
I4
ssg62
g2582
sg55
(lp2589
g48
(g57
g50
NtRp2590
(dp2591
g53
(dp2592
g61
I3
ssg62
Nsg55
(lp2593
g48
(g64
g50
NtRp2594
(dp2595
g53
(dp2596
sg62
g2590
sg55
(lp2597
g48
(g69
g50
NtRp2598
(dp2599
g53
(dp2600
g73
g74
ssg62
g2594
sg55
(lp2601
S'HTTP_ACCEPT'
p2602
asbag48
(g69
g50
NtRp2603
(dp2604
g53
(dp2605
g80
g81
ssg62
g2594
sg55
(lp2606
S':'
asbag48
(g69
g50
NtRp2607
(dp2608
g53
(dp2609
sg62
g2594
sg55
(lp2610
g48
(g49
g50
NtRp2611
(dp2612
g53
(dp2613
g61
I3
ssg62
g2607
sg55
(lp2614
g1593
asbasbasbag48
(g64
g50
NtRp2615
(dp2616
g53
(dp2617
sg62
g2590
sg55
(lp2618
g48
(g69
g50
NtRp2619
(dp2620
g53
(dp2621
g73
g74
ssg62
g2615
sg55
(lp2622
S'HTTP_ACCEPT_CHARSET'
p2623
asbag48
(g69
g50
NtRp2624
(dp2625
g53
(dp2626
g80
g81
ssg62
g2615
sg55
(lp2627
S':'
asbag48
(g69
g50
NtRp2628
(dp2629
g53
(dp2630
sg62
g2615
sg55
(lp2631
g48
(g49
g50
NtRp2632
(dp2633
g53
(dp2634
g61
I3
ssg62
g2628
sg55
(lp2635
g1615
asbasbasbag48
(g64
g50
NtRp2636
(dp2637
g53
(dp2638
sg62
g2590
sg55
(lp2639
g48
(g69
g50
NtRp2640
(dp2641
g53
(dp2642
g73
g74
ssg62
g2636
sg55
(lp2643
S'HTTP_ACCEPT_ENCODING'
p2644
asbag48
(g69
g50
NtRp2645
(dp2646
g53
(dp2647
g80
g81
ssg62
g2636
sg55
(lp2648
S':'
asbag48
(g69
g50
NtRp2649
(dp2650
g53
(dp2651
sg62
g2636
sg55
(lp2652
g48
(g49
g50
NtRp2653
(dp2654
g53
(dp2655
g61
I3
ssg62
g2649
sg55
(lp2656
g1637
asbasbasbag48
(g64
g50
NtRp2657
(dp2658
g53
(dp2659
sg62
g2590
sg55
(lp2660
g48
(g69
g50
NtRp2661
(dp2662
g53
(dp2663
g73
g74
ssg62
g2657
sg55
(lp2664
S'HTTP_ACCEPT_LANGUAGE'
p2665
asbag48
(g69
g50
NtRp2666
(dp2667
g53
(dp2668
g80
g81
ssg62
g2657
sg55
(lp2669
S':'
asbag48
(g69
g50
NtRp2670
(dp2671
g53
(dp2672
sg62
g2657
sg55
(lp2673
g48
(g49
g50
NtRp2674
(dp2675
g53
(dp2676
g61
I3
ssg62
g2670
sg55
(lp2677
g1659
asbasbasbag48
(g64
g50
NtRp2678
(dp2679
g53
(dp2680
sg62
g2590
sg55
(lp2681
g48
(g69
g50
NtRp2682
(dp2683
g53
(dp2684
g73
g74
ssg62
g2678
sg55
(lp2685
S'HTTP_CACHE_CONTROL'
p2686
asbag48
(g69
g50
NtRp2687
(dp2688
g53
(dp2689
g80
g81
ssg62
g2678
sg55
(lp2690
S':'
asbag48
(g69
g50
NtRp2691
(dp2692
g53
(dp2693
sg62
g2678
sg55
(lp2694
g48
(g49
g50
NtRp2695
(dp2696
g53
(dp2697
g61
I3
ssg62
g2691
sg55
(lp2698
g1681
asbasbasbag48
(g64
g50
NtRp2699
(dp2700
g53
(dp2701
sg62
g2590
sg55
(lp2702
g48
(g69
g50
NtRp2703
(dp2704
g53
(dp2705
g73
g74
ssg62
g2699
sg55
(lp2706
S'HTTP_CONNECTION'
p2707
asbag48
(g69
g50
NtRp2708
(dp2709
g53
(dp2710
g80
g81
ssg62
g2699
sg55
(lp2711
S':'
asbag48
(g69
g50
NtRp2712
(dp2713
g53
(dp2714
sg62
g2699
sg55
(lp2715
g48
(g49
g50
NtRp2716
(dp2717
g53
(dp2718
g61
I3
ssg62
g2712
sg55
(lp2719
g1703
asbasbasbag48
(g64
g50
NtRp2720
(dp2721
g53
(dp2722
sg62
g2590
sg55
(lp2723
g48
(g69
g50
NtRp2724
(dp2725
g53
(dp2726
g73
g74
ssg62
g2720
sg55
(lp2727
S'HTTP_COOKIE'
p2728
asbag48
(g69
g50
NtRp2729
(dp2730
g53
(dp2731
g80
g81
ssg62
g2720
sg55
(lp2732
S':'
asbag48
(g69
g50
NtRp2733
(dp2734
g53
(dp2735
sg62
g2720
sg55
(lp2736
g48
(g49
g50
NtRp2737
(dp2738
g53
(dp2739
g61
I3
ssg62
g2733
sg55
(lp2740
g1725
asbasbasbag48
(g64
g50
NtRp2741
(dp2742
g53
(dp2743
sg62
g2590
sg55
(lp2744
g48
(g69
g50
NtRp2745
(dp2746
g53
(dp2747
g73
g74
ssg62
g2741
sg55
(lp2748
S'HTTP_HOST'
p2749
asbag48
(g69
g50
NtRp2750
(dp2751
g53
(dp2752
g80
g81
ssg62
g2741
sg55
(lp2753
S':'
asbag48
(g69
g50
NtRp2754
(dp2755
g53
(dp2756
sg62
g2741
sg55
(lp2757
g48
(g49
g50
NtRp2758
(dp2759
g53
(dp2760
g61
I3
ssg62
g2754
sg55
(lp2761
g1747
asbasbasbag48
(g64
g50
NtRp2762
(dp2763
g53
(dp2764
sg62
g2590
sg55
(lp2765
g48
(g69
g50
NtRp2766
(dp2767
g53
(dp2768
g73
g74
ssg62
g2762
sg55
(lp2769
S'HTTP_USER_AGENT'
p2770
asbag48
(g69
g50
NtRp2771
(dp2772
g53
(dp2773
g80
g81
ssg62
g2762
sg55
(lp2774
S':'
asbag48
(g69
g50
NtRp2775
(dp2776
g53
(dp2777
sg62
g2762
sg55
(lp2778
g48
(g49
g50
NtRp2779
(dp2780
g53
(dp2781
g61
I3
ssg62
g2775
sg55
(lp2782
g1769
asbasbasbag48
(g64
g50
NtRp2783
(dp2784
g53
(dp2785
sg62
g2590
sg55
(lp2786
g48
(g69
g50
NtRp2787
(dp2788
g53
(dp2789
g73
g74
ssg62
g2783
sg55
(lp2790
S'PATH_INFO'
p2791
asbag48
(g69
g50
NtRp2792
(dp2793
g53
(dp2794
g80
g81
ssg62
g2783
sg55
(lp2795
S':'
asbag48
(g69
g50
NtRp2796
(dp2797
g53
(dp2798
sg62
g2783
sg55
(lp2799
g48
(g49
g50
NtRp2800
(dp2801
g53
(dp2802
g61
I3
ssg62
g2796
sg55
(lp2803
g1812
asbasbasbag48
(g64
g50
NtRp2804
(dp2805
g53
(dp2806
sg62
g2590
sg55
(lp2807
g48
(g69
g50
NtRp2808
(dp2809
g53
(dp2810
g73
g74
ssg62
g2804
sg55
(lp2811
S'QUERY_STRING'
p2812
asbag48
(g69
g50
NtRp2813
(dp2814
g53
(dp2815
g80
g81
ssg62
g2804
sg55
(lp2816
S':'
asbag48
(g69
g50
NtRp2817
(dp2818
g53
(dp2819
sg62
g2804
sg55
(lp2820
g48
(g49
g50
NtRp2821
(dp2822
g53
(dp2823
g61
I3
ssg62
g2817
sg55
(lp2824
S''
asbasbasbag48
(g64
g50
NtRp2825
(dp2826
g53
(dp2827
sg62
g2590
sg55
(lp2828
g48
(g69
g50
NtRp2829
(dp2830
g53
(dp2831
g73
g74
ssg62
g2825
sg55
(lp2832
S'REMOTE_ADDR'
p2833
asbag48
(g69
g50
NtRp2834
(dp2835
g53
(dp2836
g80
g81
ssg62
g2825
sg55
(lp2837
S':'
asbag48
(g69
g50
NtRp2838
(dp2839
g53
(dp2840
sg62
g2825
sg55
(lp2841
g48
(g49
g50
NtRp2842
(dp2843
g53
(dp2844
g61
I3
ssg62
g2838
sg55
(lp2845
g181
asbasbasbag48
(g64
g50
NtRp2846
(dp2847
g53
(dp2848
sg62
g2590
sg55
(lp2849
g48
(g69
g50
NtRp2850
(dp2851
g53
(dp2852
g73
g74
ssg62
g2846
sg55
(lp2853
S'REMOTE_PORT'
p2854
asbag48
(g69
g50
NtRp2855
(dp2856
g53
(dp2857
g80
g81
ssg62
g2846
sg55
(lp2858
S':'
asbag48
(g69
g50
NtRp2859
(dp2860
g53
(dp2861
sg62
g2846
sg55
(lp2862
g48
(g49
g50
NtRp2863
(dp2864
g53
(dp2865
g61
I3
ssg62
g2859
sg55
(lp2866
g1876
asbasbasbag48
(g64
g50
NtRp2867
(dp2868
g53
(dp2869
sg62
g2590
sg55
(lp2870
g48
(g69
g50
NtRp2871
(dp2872
g53
(dp2873
g73
g74
ssg62
g2867
sg55
(lp2874
S'REQUEST_METHOD'
p2875
asbag48
(g69
g50
NtRp2876
(dp2877
g53
(dp2878
g80
g81
ssg62
g2867
sg55
(lp2879
S':'
asbag48
(g69
g50
NtRp2880
(dp2881
g53
(dp2882
sg62
g2867
sg55
(lp2883
g48
(g49
g50
NtRp2884
(dp2885
g53
(dp2886
g61
I3
ssg62
g2880
sg55
(lp2887
g1898
asbasbasbag48
(g64
g50
NtRp2888
(dp2889
g53
(dp2890
sg62
g2590
sg55
(lp2891
g48
(g69
g50
NtRp2892
(dp2893
g53
(dp2894
g73
g74
ssg62
g2888
sg55
(lp2895
S'SCRIPT_NAME'
p2896
asbag48
(g69
g50
NtRp2897
(dp2898
g53
(dp2899
g80
g81
ssg62
g2888
sg55
(lp2900
S':'
asbag48
(g69
g50
NtRp2901
(dp2902
g53
(dp2903
sg62
g2888
sg55
(lp2904
g48
(g49
g50
NtRp2905
(dp2906
g53
(dp2907
g61
I3
ssg62
g2901
sg55
(lp2908
S''
asbasbasbag48
(g64
g50
NtRp2909
(dp2910
g53
(dp2911
sg62
g2590
sg55
(lp2912
g48
(g69
g50
NtRp2913
(dp2914
g53
(dp2915
g73
g74
ssg62
g2909
sg55
(lp2916
S'SERVER_NAME'
p2917
asbag48
(g69
g50
NtRp2918
(dp2919
g53
(dp2920
g80
g81
ssg62
g2909
sg55
(lp2921
S':'
asbag48
(g69
g50
NtRp2922
(dp2923
g53
(dp2924
sg62
g2909
sg55
(lp2925
g48
(g49
g50
NtRp2926
(dp2927
g53
(dp2928
g61
I3
ssg62
g2922
sg55
(lp2929
g1941
asbasbasbag48
(g64
g50
NtRp2930
(dp2931
g53
(dp2932
sg62
g2590
sg55
(lp2933
g48
(g69
g50
NtRp2934
(dp2935
g53
(dp2936
g73
g74
ssg62
g2930
sg55
(lp2937
S'SERVER_PORT'
p2938
asbag48
(g69
g50
NtRp2939
(dp2940
g53
(dp2941
g80
g81
ssg62
g2930
sg55
(lp2942
S':'
asbag48
(g69
g50
NtRp2943
(dp2944
g53
(dp2945
sg62
g2930
sg55
(lp2946
g48
(g49
g50
NtRp2947
(dp2948
g53
(dp2949
g61
I3
ssg62
g2943
sg55
(lp2950
g1963
asbasbasbag48
(g64
g50
NtRp2951
(dp2952
g53
(dp2953
sg62
g2590
sg55
(lp2954
g48
(g69
g50
NtRp2955
(dp2956
g53
(dp2957
g73
g74
ssg62
g2951
sg55
(lp2958
S'SERVER_PROTOCOL'
p2959
asbag48
(g69
g50
NtRp2960
(dp2961
g53
(dp2962
g80
g81
ssg62
g2951
sg55
(lp2963
S':'
asbag48
(g69
g50
NtRp2964
(dp2965
g53
(dp2966
sg62
g2951
sg55
(lp2967
g48
(g49
g50
NtRp2968
(dp2969
g53
(dp2970
g61
I3
ssg62
g2964
sg55
(lp2971
g1985
asbasbasbag48
(g64
g50
NtRp2972
(dp2973
g53
(dp2974
sg62
g2590
sg55
(lp2975
g48
(g69
g50
NtRp2976
(dp2977
g53
(dp2978
g73
g74
ssg62
g2972
sg55
(lp2979
S'SERVER_SOFTWARE'
p2980
asbag48
(g69
g50
NtRp2981
(dp2982
g53
(dp2983
g80
g81
ssg62
g2972
sg55
(lp2984
S':'
asbag48
(g69
g50
NtRp2985
(dp2986
g53
(dp2987
sg62
g2972
sg55
(lp2988
g48
(g49
g50
NtRp2989
(dp2990
g53
(dp2991
g61
I3
ssg62
g2985
sg55
(lp2992
g2007
asbasbasbag48
(g64
g50
NtRp2993
(dp2994
g53
(dp2995
sg62
g2590
sg55
(lp2996
g48
(g69
g50
NtRp2997
(dp2998
g53
(dp2999
g73
g74
ssg62
g2993
sg55
(lp3000
S'wsgi.errors'
p3001
asbag48
(g69
g50
NtRp3002
(dp3003
g53
(dp3004
g80
g81
ssg62
g2993
sg55
(lp3005
S':'
asbag48
(g69
g50
NtRp3006
(dp3007
g53
(dp3008
sg62
g2993
sg55
(lp3009
g48
(g49
g50
NtRp3010
(dp3011
g53
(dp3012
g61
I3
ssg62
g3006
sg55
(lp3013
S"<open file '<stderr>', mode 'w' at 0x003100B0>"
p3014
asbasbasbag48
(g64
g50
NtRp3015
(dp3016
g53
(dp3017
sg62
g2590
sg55
(lp3018
g48
(g69
g50
NtRp3019
(dp3020
g53
(dp3021
g73
g74
ssg62
g3015
sg55
(lp3022
S'wsgi.file_wrapper'
p3023
asbag48
(g69
g50
NtRp3024
(dp3025
g53
(dp3026
g80
g81
ssg62
g3015
sg55
(lp3027
S':'
asbag48
(g69
g50
NtRp3028
(dp3029
g53
(dp3030
sg62
g3015
sg55
(lp3031
g48
(g49
g50
NtRp3032
(dp3033
g53
(dp3034
g61
I3
ssg62
g3028
sg55
(lp3035
S'<class gluon.rocket.FileWrapper at 0x02FFC1B0>'
p3036
asbasbasbag48
(g64
g50
NtRp3037
(dp3038
g53
(dp3039
sg62
g2590
sg55
(lp3040
g48
(g69
g50
NtRp3041
(dp3042
g53
(dp3043
g73
g74
ssg62
g3037
sg55
(lp3044
S'wsgi.input'
p3045
asbag48
(g69
g50
NtRp3046
(dp3047
g53
(dp3048
g80
g81
ssg62
g3037
sg55
(lp3049
S':'
asbag48
(g69
g50
NtRp3050
(dp3051
g53
(dp3052
sg62
g3037
sg55
(lp3053
g48
(g49
g50
NtRp3054
(dp3055
g53
(dp3056
g61
I3
ssg62
g3050
sg55
(lp3057
S'<cStringIO.StringO object at 0x09244200>'
p3058
asbasbasbag48
(g64
g50
NtRp3059
(dp3060
g53
(dp3061
sg62
g2590
sg55
(lp3062
g48
(g69
g50
NtRp3063
(dp3064
g53
(dp3065
g73
g74
ssg62
g3059
sg55
(lp3066
S'wsgi.multiprocess'
p3067
asbag48
(g69
g50
NtRp3068
(dp3069
g53
(dp3070
g80
g81
ssg62
g3059
sg55
(lp3071
S':'
asbag48
(g69
g50
NtRp3072
(dp3073
g53
(dp3074
sg62
g3059
sg55
(lp3075
g48
(g49
g50
NtRp3076
(dp3077
g53
(dp3078
g61
I3
ssg62
g3072
sg55
(lp3079
g91
asbasbasbag48
(g64
g50
NtRp3080
(dp3081
g53
(dp3082
sg62
g2590
sg55
(lp3083
g48
(g69
g50
NtRp3084
(dp3085
g53
(dp3086
g73
g74
ssg62
g3080
sg55
(lp3087
S'wsgi.multithread'
p3088
asbag48
(g69
g50
NtRp3089
(dp3090
g53
(dp3091
g80
g81
ssg62
g3080
sg55
(lp3092
S':'
asbag48
(g69
g50
NtRp3093
(dp3094
g53
(dp3095
sg62
g3080
sg55
(lp3096
g48
(g49
g50
NtRp3097
(dp3098
g53
(dp3099
g61
I3
ssg62
g3093
sg55
(lp3100
g2181
asbasbasbag48
(g64
g50
NtRp3101
(dp3102
g53
(dp3103
sg62
g2590
sg55
(lp3104
g48
(g69
g50
NtRp3105
(dp3106
g53
(dp3107
g73
g74
ssg62
g3101
sg55
(lp3108
S'wsgi.run_once'
p3109
asbag48
(g69
g50
NtRp3110
(dp3111
g53
(dp3112
g80
g81
ssg62
g3101
sg55
(lp3113
S':'
asbag48
(g69
g50
NtRp3114
(dp3115
g53
(dp3116
sg62
g3101
sg55
(lp3117
g48
(g49
g50
NtRp3118
(dp3119
g53
(dp3120
g61
I3
ssg62
g3114
sg55
(lp3121
g91
asbasbasbag48
(g64
g50
NtRp3122
(dp3123
g53
(dp3124
sg62
g2590
sg55
(lp3125
g48
(g69
g50
NtRp3126
(dp3127
g53
(dp3128
g73
g74
ssg62
g3122
sg55
(lp3129
S'wsgi.url_scheme'
p3130
asbag48
(g69
g50
NtRp3131
(dp3132
g53
(dp3133
g80
g81
ssg62
g3122
sg55
(lp3134
S':'
asbag48
(g69
g50
NtRp3135
(dp3136
g53
(dp3137
sg62
g3122
sg55
(lp3138
g48
(g49
g50
NtRp3139
(dp3140
g53
(dp3141
g61
I3
ssg62
g3135
sg55
(lp3142
g2224
asbasbasbag48
(g64
g50
NtRp3143
(dp3144
g53
(dp3145
sg62
g2590
sg55
(lp3146
g48
(g69
g50
NtRp3147
(dp3148
g53
(dp3149
g73
g74
ssg62
g3143
sg55
(lp3150
S'wsgi.version'
p3151
asbag48
(g69
g50
NtRp3152
(dp3153
g53
(dp3154
g80
g81
ssg62
g3143
sg55
(lp3155
S':'
asbag48
(g69
g50
NtRp3156
(dp3157
g53
(dp3158
sg62
g3143
sg55
(lp3159
g48
(g49
g50
NtRp3160
(dp3161
g53
(dp3162
g61
I3
ssg62
g3156
sg55
(lp3163
S'1'
asbasbasbasbasbasbasbasbasbasbasbasbasbsS'frames'
p3164
(lp3165
(dp3166
S'file'
p3167
S'C:\\Users\\Atomico\\web2py\\gluon\\restricted.py'
p3168
sS'dump'
p3169
(dp3170
sS'lnum'
p3171
I192
sS'lines'
p3172
(dp3173
sS'call'
p3174
S'(code=\'response.write(\\\'<!DOCTYPE html>\\\\n<html lang="\\\', ...t   -->    \\\\n  </body>\\\\n</html>\\\\n\\\', escape=False)\', environment={\'A\': <class \'gluon.html.A\'>, \'B\': <class \'gluon.html.B\'>, \'BEAUTIFY\': <class \'gluon.html.BEAUTIFY\'>, \'BODY\': <class \'gluon.html.BODY\'>, \'BR\': <class \'gluon.html.BR\'>, \'BUTTON\': <class \'gluon.html.BUTTON\'>, \'CAT\': <class \'gluon.html.CAT\'>, \'CENTER\': <class \'gluon.html.CENTER\'>, \'CLEANUP\': <class \'gluon.validators.CLEANUP\'>, \'CODE\': <class \'gluon.html.CODE\'>, ...}, layer=r\'C:\\Users\\Atomico\\web2py\\applications\\Desglosar_Emails\\views\\default/entrada_mod2.html\')'
p3175
sS'func'
p3176
S'restricted'
p3177
sa(dp3178
g3167
S'C:\\Users\\Atomico\\web2py\\applications\\Desglosar_Emails\\views\\default\\entrada_mod2.html'
p3179
sg3169
(dp3180
sg3171
I110
sg3172
(dp3181
I101
S'response.write(form)'
p3182
sI102
S"response.write('\\r\\n', escape=False)"
p3183
sI103
S'response.write(form2)'
p3184
sI104
S"response.write('\\r\\n\\r\\n<h3>Tratamiento darle la longitud a cada elemento</h3>\\r\\n', escape=False)"
p3185
sI105
S'rows=db().select(db.persona.ALL)'
p3186
sI106
S'response.write(rows)'
p3187
sI107
S"response.write('\\r\\nlen(db().select(db.persona.ALL) es ', escape=False)"
p3188
sI108
S'response.write(len(db().select(db.persona.ALL)))'
p3189
sI109
S"response.write('\\r\\n<br/>\\r\\nM\\xc3\\xa1s cosas: \\r\\n', escape=False)"
p3190
sI110
S'ultimo=db(db.persona.id==len(db().select(db.persona.ALL))).select()[0]'
p3191
sI111
S'response.write(ultimo.nombre)'
p3192
sI112
S"response.write('\\r\\n<br/>Aqu\\xc3\\xad el perro. \\r\\n\\r\\n<br/>\\r\\n', escape=False)"
p3193
sI113
S'rows2=db().select(db.perro.ALL)'
p3194
sI114
S'response.write(rows2)'
p3195
sI115
S'response.write(len(db(db.perro.amo_id==db.persona.id).select()))'
p3196
sI116
S'conjuntillo=db(db.perro.amo_id==db.persona.id).select()'
p3197
sI117
S"response.write('\\r\\n<br/>\\r\\n', escape=False)"
p3198
sI118
S'response.write(conjuntillo)'
p3199
sI119
S"response.write('\\r\\n', escape=False)"
p3200
sI120
S"response.write('\\t\\n\\t  </div>\\n\\t  <!-- content -->\\n\\n\\t  ', escape=False)"
p3201
ssg3174
S'()'
p3202
sg3176
S'<module>'
p3203
sa(dp3204
g3167
S'C:\\Users\\Atomico\\web2py\\gluon\\dal.py'
p3205
sg3169
(dp3206
sg3171
I5619
sg3172
(dp3207
sg3174
S'(self=<gluon.dal.Rows object at 0x08FB7F30>, i=0)'
p3208
sg3176
g19
sasS'pyver'
p3209
S'Python 2.5.4: C:\\Users\\Atomico\\web2py\\web2py.exe'
p3210
sS'session'
p3211
g48
(g49
g50
NtRp3212
(dp3213
g53
(dp3214
sg55
(lp3215
g48
(g57
g50
NtRp3216
(dp3217
g53
(dp3218
g61
I5
ssg62
Nsg55
(lp3219
g48
(g64
g50
NtRp3220
(dp3221
g53
(dp3222
sg62
g3216
sg55
(lp3223
g48
(g69
g50
NtRp3224
(dp3225
g53
(dp3226
g73
g74
ssg62
g3220
sg55
(lp3227
S'last_query'
p3228
asbag48
(g69
g50
NtRp3229
(dp3230
g53
(dp3231
g80
g81
ssg62
g3220
sg55
(lp3232
S':'
asbag48
(g69
g50
NtRp3233
(dp3234
g53
(dp3235
sg62
g3220
sg55
(lp3236
g48
(g49
g50
NtRp3237
(dp3238
g53
(dp3239
g61
I5
ssg62
g3233
sg55
(lp3240
S'db.persona.id>0'
p3241
asbasbasbasbasbsS'etype'
p3242
S"<type 'exceptions.IndexError'>"
p3243
sS'date'
p3244
S'Mon Sep 19 12:11:17 2011'
p3245
sS'response'
p3246
g48
(g49
g50
NtRp3247
(dp3248
g53
(dp3249
sg55
(lp3250
g48
(g57
g50
NtRp3251
(dp3252
g53
(dp3253
g61
I5
ssg62
Nsg55
(lp3254
g48
(g64
g50
NtRp3255
(dp3256
g53
(dp3257
sg62
g3251
sg55
(lp3258
g48
(g69
g50
NtRp3259
(dp3260
g53
(dp3261
g73
g74
ssg62
g3255
sg55
(lp3262
g146
asbag48
(g69
g50
NtRp3263
(dp3264
g53
(dp3265
g80
g81
ssg62
g3255
sg55
(lp3266
S':'
asbag48
(g69
g50
NtRp3267
(dp3268
g53
(dp3269
sg62
g3255
sg55
(lp3270
g48
(g49
g50
NtRp3271
(dp3272
g53
(dp3273
g61
I5
ssg62
g3267
sg55
(lp3274
S'<cStringIO.StringO object at 0x09244BC0>'
p3275
asbasbasbag48
(g64
g50
NtRp3276
(dp3277
g53
(dp3278
sg62
g3251
sg55
(lp3279
g48
(g69
g50
NtRp3280
(dp3281
g53
(dp3282
g73
g74
ssg62
g3276
sg55
(lp3283
g212
asbag48
(g69
g50
NtRp3284
(dp3285
g53
(dp3286
g80
g81
ssg62
g3276
sg55
(lp3287
S':'
asbag48
(g69
g50
NtRp3288
(dp3289
g53
(dp3290
sg62
g3276
sg55
(lp3291
g48
(g49
g50
NtRp3292
(dp3293
g53
(dp3294
g61
I5
ssg62
g3288
sg55
(lp3295
g48
(g57
g50
NtRp3296
(dp3297
g53
(dp3298
g61
I4
ssg62
Nsg55
(lp3299
g48
(g64
g50
NtRp3300
(dp3301
g53
(dp3302
sg62
g3296
sg55
(lp3303
g48
(g69
g50
NtRp3304
(dp3305
g53
(dp3306
g73
g74
ssg62
g3300
sg55
(lp3307
S'session_id_desglosar_emails'
p3308
asbag48
(g69
g50
NtRp3309
(dp3310
g53
(dp3311
g80
g81
ssg62
g3300
sg55
(lp3312
S':'
asbag48
(g69
g50
NtRp3313
(dp3314
g53
(dp3315
sg62
g3300
sg55
(lp3316
g48
(g49
g50
NtRp3317
(dp3318
g53
(dp3319
g61
I4
ssg62
g3313
sg55
(lp3320
g48
(g57
g50
NtRp3321
(dp3322
g53
(dp3323
g61
I3
ssg62
Nsg55
(lp3324
g48
(g64
g50
NtRp3325
(dp3326
g53
(dp3327
sg62
g3321
sg55
(lp3328
g48
(g69
g50
NtRp3329
(dp3330
g53
(dp3331
g73
g74
ssg62
g3325
sg55
(lp3332
g262
asbag48
(g69
g50
NtRp3333
(dp3334
g53
(dp3335
g80
g81
ssg62
g3325
sg55
(lp3336
S':'
asbag48
(g69
g50
NtRp3337
(dp3338
g53
(dp3339
sg62
g3325
sg55
(lp3340
g48
(g49
g50
NtRp3341
(dp3342
g53
(dp3343
g61
I3
ssg62
g3337
sg55
(lp3344
S''
asbasbasbag48
(g64
g50
NtRp3345
(dp3346
g53
(dp3347
sg62
g3321
sg55
(lp3348
g48
(g69
g50
NtRp3349
(dp3350
g53
(dp3351
g73
g74
ssg62
g3345
sg55
(lp3352
g283
asbag48
(g69
g50
NtRp3353
(dp3354
g53
(dp3355
g80
g81
ssg62
g3345
sg55
(lp3356
S':'
asbag48
(g69
g50
NtRp3357
(dp3358
g53
(dp3359
sg62
g3345
sg55
(lp3360
g48
(g49
g50
NtRp3361
(dp3362
g53
(dp3363
g61
I3
ssg62
g3357
sg55
(lp3364
S''
asbasbasbag48
(g64
g50
NtRp3365
(dp3366
g53
(dp3367
sg62
g3321
sg55
(lp3368
g48
(g69
g50
NtRp3369
(dp3370
g53
(dp3371
g73
g74
ssg62
g3365
sg55
(lp3372
g304
asbag48
(g69
g50
NtRp3373
(dp3374
g53
(dp3375
g80
g81
ssg62
g3365
sg55
(lp3376
S':'
asbag48
(g69
g50
NtRp3377
(dp3378
g53
(dp3379
sg62
g3365
sg55
(lp3380
g48
(g49
g50
NtRp3381
(dp3382
g53
(dp3383
g61
I3
ssg62
g3377
sg55
(lp3384
S''
asbasbasbag48
(g64
g50
NtRp3385
(dp3386
g53
(dp3387
sg62
g3321
sg55
(lp3388
g48
(g69
g50
NtRp3389
(dp3390
g53
(dp3391
g73
g74
ssg62
g3385
sg55
(lp3392
g325
asbag48
(g69
g50
NtRp3393
(dp3394
g53
(dp3395
g80
g81
ssg62
g3385
sg55
(lp3396
S':'
asbag48
(g69
g50
NtRp3397
(dp3398
g53
(dp3399
sg62
g3385
sg55
(lp3400
g48
(g49
g50
NtRp3401
(dp3402
g53
(dp3403
g61
I3
ssg62
g3397
sg55
(lp3404
S''
asbasbasbag48
(g64
g50
NtRp3405
(dp3406
g53
(dp3407
sg62
g3321
sg55
(lp3408
g48
(g69
g50
NtRp3409
(dp3410
g53
(dp3411
g73
g74
ssg62
g3405
sg55
(lp3412
g346
asbag48
(g69
g50
NtRp3413
(dp3414
g53
(dp3415
g80
g81
ssg62
g3405
sg55
(lp3416
S':'
asbag48
(g69
g50
NtRp3417
(dp3418
g53
(dp3419
sg62
g3405
sg55
(lp3420
g48
(g49
g50
NtRp3421
(dp3422
g53
(dp3423
g61
I3
ssg62
g3417
sg55
(lp3424
S'/'
asbasbasbag48
(g64
g50
NtRp3425
(dp3426
g53
(dp3427
sg62
g3321
sg55
(lp3428
g48
(g69
g50
NtRp3429
(dp3430
g53
(dp3431
g73
g74
ssg62
g3425
sg55
(lp3432
g367
asbag48
(g69
g50
NtRp3433
(dp3434
g53
(dp3435
g80
g81
ssg62
g3425
sg55
(lp3436
S':'
asbag48
(g69
g50
NtRp3437
(dp3438
g53
(dp3439
sg62
g3425
sg55
(lp3440
g48
(g49
g50
NtRp3441
(dp3442
g53
(dp3443
g61
I3
ssg62
g3437
sg55
(lp3444
S''
asbasbasbag48
(g64
g50
NtRp3445
(dp3446
g53
(dp3447
sg62
g3321
sg55
(lp3448
g48
(g69
g50
NtRp3449
(dp3450
g53
(dp3451
g73
g74
ssg62
g3445
sg55
(lp3452
g388
asbag48
(g69
g50
NtRp3453
(dp3454
g53
(dp3455
g80
g81
ssg62
g3445
sg55
(lp3456
S':'
asbag48
(g69
g50
NtRp3457
(dp3458
g53
(dp3459
sg62
g3445
sg55
(lp3460
g48
(g49
g50
NtRp3461
(dp3462
g53
(dp3463
g61
I3
ssg62
g3457
sg55
(lp3464
S''
asbasbasbasbasbasbasbasbasbasbasbag48
(g64
g50
NtRp3465
(dp3466
g53
(dp3467
sg62
g3251
sg55
(lp3468
g48
(g69
g50
NtRp3469
(dp3470
g53
(dp3471
g73
g74
ssg62
g3465
sg55
(lp3472
S'files'
p3473
asbag48
(g69
g50
NtRp3474
(dp3475
g53
(dp3476
g80
g81
ssg62
g3465
sg55
(lp3477
S':'
asbag48
(g69
g50
NtRp3478
(dp3479
g53
(dp3480
sg62
g3465
sg55
(lp3481
g48
(g49
g50
NtRp3482
(dp3483
g53
(dp3484
g61
I5
ssg62
g3478
sg55
(lp3485
g48
(g57
g50
NtRp3486
(dp3487
g53
(dp3488
g61
I4
ssg62
Nsg55
(lp3489
g48
(g64
g50
NtRp3490
(dp3491
g53
(dp3492
sg62
g3486
sg55
(lp3493
g48
(g69
g50
NtRp3494
(dp3495
g53
(dp3496
sg62
g3490
sg55
(lp3497
g48
(g49
g50
NtRp3498
(dp3499
g53
(dp3500
g61
I4
ssg62
g3494
sg55
(lp3501
S'/Desglosar_Emails/static/js/jquery.js'
p3502
asbasbasbag48
(g64
g50
NtRp3503
(dp3504
g53
(dp3505
sg62
g3486
sg55
(lp3506
g48
(g69
g50
NtRp3507
(dp3508
g53
(dp3509
sg62
g3503
sg55
(lp3510
g48
(g49
g50
NtRp3511
(dp3512
g53
(dp3513
g61
I4
ssg62
g3507
sg55
(lp3514
S'/Desglosar_Emails/static/css/calendar.css'
p3515
asbasbasbag48
(g64
g50
NtRp3516
(dp3517
g53
(dp3518
sg62
g3486
sg55
(lp3519
g48
(g69
g50
NtRp3520
(dp3521
g53
(dp3522
sg62
g3516
sg55
(lp3523
g48
(g49
g50
NtRp3524
(dp3525
g53
(dp3526
g61
I4
ssg62
g3520
sg55
(lp3527
S'/Desglosar_Emails/static/js/calendar.js'
p3528
asbasbasbag48
(g64
g50
NtRp3529
(dp3530
g53
(dp3531
sg62
g3486
sg55
(lp3532
g48
(g69
g50
NtRp3533
(dp3534
g53
(dp3535
sg62
g3529
sg55
(lp3536
g48
(g49
g50
NtRp3537
(dp3538
g53
(dp3539
g61
I4
ssg62
g3533
sg55
(lp3540
S'/Desglosar_Emails/static/css/base.css'
p3541
asbasbasbag48
(g64
g50
NtRp3542
(dp3543
g53
(dp3544
sg62
g3486
sg55
(lp3545
g48
(g69
g50
NtRp3546
(dp3547
g53
(dp3548
sg62
g3542
sg55
(lp3549
g48
(g49
g50
NtRp3550
(dp3551
g53
(dp3552
g61
I4
ssg62
g3546
sg55
(lp3553
S'/Desglosar_Emails/static/css/superfish.css'
p3554
asbasbasbag48
(g64
g50
NtRp3555
(dp3556
g53
(dp3557
sg62
g3486
sg55
(lp3558
g48
(g69
g50
NtRp3559
(dp3560
g53
(dp3561
sg62
g3555
sg55
(lp3562
g48
(g49
g50
NtRp3563
(dp3564
g53
(dp3565
g61
I4
ssg62
g3559
sg55
(lp3566
S'/Desglosar_Emails/static/js/superfish.js'
p3567
asbasbasbasbasbasbasbag48
(g64
g50
NtRp3568
(dp3569
g53
(dp3570
sg62
g3251
sg55
(lp3571
g48
(g69
g50
NtRp3572
(dp3573
g53
(dp3574
g73
g74
ssg62
g3568
sg55
(lp3575
S'flash'
p3576
asbag48
(g69
g50
NtRp3577
(dp3578
g53
(dp3579
g80
g81
ssg62
g3568
sg55
(lp3580
S':'
asbag48
(g69
g50
NtRp3581
(dp3582
g53
(dp3583
sg62
g3568
sg55
(lp3584
g48
(g49
g50
NtRp3585
(dp3586
g53
(dp3587
g61
I5
ssg62
g3581
sg55
(lp3588
S''
asbasbasbag48
(g64
g50
NtRp3589
(dp3590
g53
(dp3591
sg62
g3251
sg55
(lp3592
g48
(g69
g50
NtRp3593
(dp3594
g53
(dp3595
g73
g74
ssg62
g3589
sg55
(lp3596
S'generic_patterns'
p3597
asbag48
(g69
g50
NtRp3598
(dp3599
g53
(dp3600
g80
g81
ssg62
g3589
sg55
(lp3601
S':'
asbag48
(g69
g50
NtRp3602
(dp3603
g53
(dp3604
sg62
g3589
sg55
(lp3605
g48
(g49
g50
NtRp3606
(dp3607
g53
(dp3608
g61
I5
ssg62
g3602
sg55
(lp3609
g48
(g57
g50
NtRp3610
(dp3611
g53
(dp3612
g61
I4
ssg62
Nsg55
(lp3613
sbasbasbasbag48
(g64
g50
NtRp3614
(dp3615
g53
(dp3616
sg62
g3251
sg55
(lp3617
g48
(g69
g50
NtRp3618
(dp3619
g53
(dp3620
g73
g74
ssg62
g3614
sg55
(lp3621
S'headers'
p3622
asbag48
(g69
g50
NtRp3623
(dp3624
g53
(dp3625
g80
g81
ssg62
g3614
sg55
(lp3626
S':'
asbag48
(g69
g50
NtRp3627
(dp3628
g53
(dp3629
sg62
g3614
sg55
(lp3630
g48
(g49
g50
NtRp3631
(dp3632
g53
(dp3633
g61
I5
ssg62
g3627
sg55
(lp3634
g48
(g57
g50
NtRp3635
(dp3636
g53
(dp3637
g61
I4
ssg62
Nsg55
(lp3638
g48
(g64
g50
NtRp3639
(dp3640
g53
(dp3641
sg62
g3635
sg55
(lp3642
g48
(g69
g50
NtRp3643
(dp3644
g53
(dp3645
g73
g74
ssg62
g3639
sg55
(lp3646
S'Cache-Control'
p3647
asbag48
(g69
g50
NtRp3648
(dp3649
g53
(dp3650
g80
g81
ssg62
g3639
sg55
(lp3651
S':'
asbag48
(g69
g50
NtRp3652
(dp3653
g53
(dp3654
sg62
g3639
sg55
(lp3655
g48
(g49
g50
NtRp3656
(dp3657
g53
(dp3658
g61
I4
ssg62
g3652
sg55
(lp3659
S'no-store, no-cache, must-revalidate, post-check=0, pre-check=0'
p3660
asbasbasbag48
(g64
g50
NtRp3661
(dp3662
g53
(dp3663
sg62
g3635
sg55
(lp3664
g48
(g69
g50
NtRp3665
(dp3666
g53
(dp3667
g73
g74
ssg62
g3661
sg55
(lp3668
S'Content-Type'
p3669
asbag48
(g69
g50
NtRp3670
(dp3671
g53
(dp3672
g80
g81
ssg62
g3661
sg55
(lp3673
S':'
asbag48
(g69
g50
NtRp3674
(dp3675
g53
(dp3676
sg62
g3661
sg55
(lp3677
g48
(g49
g50
NtRp3678
(dp3679
g53
(dp3680
g61
I4
ssg62
g3674
sg55
(lp3681
S'text/html; charset=utf-8'
p3682
asbasbasbag48
(g64
g50
NtRp3683
(dp3684
g53
(dp3685
sg62
g3635
sg55
(lp3686
g48
(g69
g50
NtRp3687
(dp3688
g53
(dp3689
g73
g74
ssg62
g3683
sg55
(lp3690
S'Expires'
p3691
asbag48
(g69
g50
NtRp3692
(dp3693
g53
(dp3694
g80
g81
ssg62
g3683
sg55
(lp3695
S':'
asbag48
(g69
g50
NtRp3696
(dp3697
g53
(dp3698
sg62
g3683
sg55
(lp3699
g48
(g49
g50
NtRp3700
(dp3701
g53
(dp3702
g61
I4
ssg62
g3696
sg55
(lp3703
S'Mon, 19 Sep 2011 10:11:17 GMT'
p3704
asbasbasbag48
(g64
g50
NtRp3705
(dp3706
g53
(dp3707
sg62
g3635
sg55
(lp3708
g48
(g69
g50
NtRp3709
(dp3710
g53
(dp3711
g73
g74
ssg62
g3705
sg55
(lp3712
S'Pragma'
p3713
asbag48
(g69
g50
NtRp3714
(dp3715
g53
(dp3716
g80
g81
ssg62
g3705
sg55
(lp3717
S':'
asbag48
(g69
g50
NtRp3718
(dp3719
g53
(dp3720
sg62
g3705
sg55
(lp3721
g48
(g49
g50
NtRp3722
(dp3723
g53
(dp3724
g61
I4
ssg62
g3718
sg55
(lp3725
S'no-cache'
p3726
asbasbasbag48
(g64
g50
NtRp3727
(dp3728
g53
(dp3729
sg62
g3635
sg55
(lp3730
g48
(g69
g50
NtRp3731
(dp3732
g53
(dp3733
g73
g74
ssg62
g3727
sg55
(lp3734
S'X-Powered-By'
p3735
asbag48
(g69
g50
NtRp3736
(dp3737
g53
(dp3738
g80
g81
ssg62
g3727
sg55
(lp3739
S':'
asbag48
(g69
g50
NtRp3740
(dp3741
g53
(dp3742
sg62
g3727
sg55
(lp3743
g48
(g49
g50
NtRp3744
(dp3745
g53
(dp3746
g61
I4
ssg62
g3740
sg55
(lp3747
S'web2py'
p3748
asbasbasbasbasbasbasbag48
(g64
g50
NtRp3749
(dp3750
g53
(dp3751
sg62
g3251
sg55
(lp3752
g48
(g69
g50
NtRp3753
(dp3754
g53
(dp3755
g73
g74
ssg62
g3749
sg55
(lp3756
S'menu'
p3757
asbag48
(g69
g50
NtRp3758
(dp3759
g53
(dp3760
g80
g81
ssg62
g3749
sg55
(lp3761
S':'
asbag48
(g69
g50
NtRp3762
(dp3763
g53
(dp3764
sg62
g3749
sg55
(lp3765
g48
(g49
g50
NtRp3766
(dp3767
g53
(dp3768
g61
I5
ssg62
g3762
sg55
(lp3769
g48
(g57
g50
NtRp3770
(dp3771
g53
(dp3772
g61
I4
ssg62
Nsg55
(lp3773
g48
(g64
g50
NtRp3774
(dp3775
g53
(dp3776
sg62
g3770
sg55
(lp3777
g48
(g69
g50
NtRp3778
(dp3779
g53
(dp3780
sg62
g3774
sg55
(lp3781
g48
(g49
g50
NtRp3782
(dp3783
g53
(dp3784
g61
I4
ssg62
g3778
sg55
(lp3785
g48
(g57
g50
NtRp3786
(dp3787
g53
(dp3788
g61
I3
ssg62
Nsg55
(lp3789
g48
(g64
g50
NtRp3790
(dp3791
g53
(dp3792
sg62
g3786
sg55
(lp3793
g48
(g69
g50
NtRp3794
(dp3795
g53
(dp3796
sg62
g3790
sg55
(lp3797
g48
(g49
g50
NtRp3798
(dp3799
g53
(dp3800
g61
I3
ssg62
g3794
sg55
(lp3801
cgluon.languages
lazyT_unpickle
p3802
(S't\x04\x00\x00\x00Home'
tRp3803
asbasbasbag48
(g64
g50
NtRp3804
(dp3805
g53
(dp3806
sg62
g3786
sg55
(lp3807
g48
(g69
g50
NtRp3808
(dp3809
g53
(dp3810
sg62
g3804
sg55
(lp3811
g48
(g49
g50
NtRp3812
(dp3813
g53
(dp3814
g61
I3
ssg62
g3808
sg55
(lp3815
g91
asbasbasbag48
(g64
g50
NtRp3816
(dp3817
g53
(dp3818
sg62
g3786
sg55
(lp3819
g48
(g69
g50
NtRp3820
(dp3821
g53
(dp3822
sg62
g3816
sg55
(lp3823
g48
(g49
g50
NtRp3824
(dp3825
g53
(dp3826
g61
I3
ssg62
g3820
sg55
(lp3827
S'/Desglosar_Emails/default/index'
p3828
asbasbasbag48
(g64
g50
NtRp3829
(dp3830
g53
(dp3831
sg62
g3786
sg55
(lp3832
g48
(g69
g50
NtRp3833
(dp3834
g53
(dp3835
sg62
g3829
sg55
(lp3836
g48
(g49
g50
NtRp3837
(dp3838
g53
(dp3839
g61
I3
ssg62
g3833
sg55
(lp3840
g48
(g57
g50
NtRp3841
(dp3842
g53
(dp3843
g61
I2
ssg62
Nsg55
(lp3844
sbasbasbasbasbasbasbasbag48
(g64
g50
NtRp3845
(dp3846
g53
(dp3847
sg62
g3770
sg55
(lp3848
g48
(g69
g50
NtRp3849
(dp3850
g53
(dp3851
sg62
g3845
sg55
(lp3852
g48
(g49
g50
NtRp3853
(dp3854
g53
(dp3855
g61
I4
ssg62
g3849
sg55
(lp3856
g48
(g57
g50
NtRp3857
(dp3858
g53
(dp3859
g61
I3
ssg62
Nsg55
(lp3860
g48
(g64
g50
NtRp3861
(dp3862
g53
(dp3863
sg62
g3857
sg55
(lp3864
g48
(g69
g50
NtRp3865
(dp3866
g53
(dp3867
sg62
g3861
sg55
(lp3868
g48
(g49
g50
NtRp3869
(dp3870
g53
(dp3871
g61
I3
ssg62
g3865
sg55
(lp3872
g3802
(S's\x08\x00\x00\x00This App'
tRp3873
asbasbasbag48
(g64
g50
NtRp3874
(dp3875
g53
(dp3876
sg62
g3857
sg55
(lp3877
g48
(g69
g50
NtRp3878
(dp3879
g53
(dp3880
sg62
g3874
sg55
(lp3881
g48
(g49
g50
NtRp3882
(dp3883
g53
(dp3884
g61
I3
ssg62
g3878
sg55
(lp3885
g91
asbasbasbag48
(g64
g50
NtRp3886
(dp3887
g53
(dp3888
sg62
g3857
sg55
(lp3889
g48
(g69
g50
NtRp3890
(dp3891
g53
(dp3892
sg62
g3886
sg55
(lp3893
g48
(g49
g50
NtRp3894
(dp3895
g53
(dp3896
g61
I3
ssg62
g3890
sg55
(lp3897
S'/admin/default/design/Desglosar_Emails'
p3898
asbasbasbag48
(g64
g50
NtRp3899
(dp3900
g53
(dp3901
sg62
g3857
sg55
(lp3902
g48
(g69
g50
NtRp3903
(dp3904
g53
(dp3905
sg62
g3899
sg55
(lp3906
g48
(g49
g50
NtRp3907
(dp3908
g53
(dp3909
g61
I3
ssg62
g3903
sg55
(lp3910
g48
(g57
g50
NtRp3911
(dp3912
g53
(dp3913
g61
I2
ssg62
Nsg55
(lp3914
g48
(g64
g50
NtRp3915
(dp3916
g53
(dp3917
sg62
g3911
sg55
(lp3918
g48
(g69
g50
NtRp3919
(dp3920
g53
(dp3921
sg62
g3915
sg55
(lp3922
g48
(g49
g50
NtRp3923
(dp3924
g53
(dp3925
g61
I2
ssg62
g3919
sg55
(lp3926
g48
(g57
g50
NtRp3927
(dp3928
g53
(dp3929
g61
I1
ssg62
Nsg55
(lp3930
g48
(g64
g50
NtRp3931
(dp3932
g53
(dp3933
sg62
g3927
sg55
(lp3934
g48
(g69
g50
NtRp3935
(dp3936
g53
(dp3937
sg62
g3931
sg55
(lp3938
g48
(g49
g50
NtRp3939
(dp3940
g53
(dp3941
g61
I1
ssg62
g3935
sg55
(lp3942
g3802
(S't\x0b\x00\x00\x00Controlador'
tRp3943
asbasbasbag48
(g64
g50
NtRp3944
(dp3945
g53
(dp3946
sg62
g3927
sg55
(lp3947
g48
(g69
g50
NtRp3948
(dp3949
g53
(dp3950
sg62
g3944
sg55
(lp3951
g48
(g49
g50
NtRp3952
(dp3953
g53
(dp3954
g61
I1
ssg62
g3948
sg55
(lp3955
I00
asbasbasbag48
(g64
g50
NtRp3956
(dp3957
g53
(dp3958
sg62
g3927
sg55
(lp3959
g48
(g69
g50
NtRp3960
(dp3961
g53
(dp3962
sg62
g3956
sg55
(lp3963
g48
(g49
g50
NtRp3964
(dp3965
g53
(dp3966
g61
I1
ssg62
g3960
sg55
(lp3967
S'/admin/default/edit/Desglosar_Emails/controllers/default.py'
p3968
asbasbasbasbasbasbasbag48
(g64
g50
NtRp3969
(dp3970
g53
(dp3971
sg62
g3911
sg55
(lp3972
g48
(g69
g50
NtRp3973
(dp3974
g53
(dp3975
sg62
g3969
sg55
(lp3976
g48
(g49
g50
NtRp3977
(dp3978
g53
(dp3979
g61
I2
ssg62
g3973
sg55
(lp3980
g48
(g57
g50
NtRp3981
(dp3982
g53
(dp3983
g61
I1
ssg62
Nsg55
(lp3984
g48
(g64
g50
NtRp3985
(dp3986
g53
(dp3987
sg62
g3981
sg55
(lp3988
g48
(g69
g50
NtRp3989
(dp3990
g53
(dp3991
sg62
g3985
sg55
(lp3992
g48
(g49
g50
NtRp3993
(dp3994
g53
(dp3995
g61
I1
ssg62
g3989
sg55
(lp3996
g3802
(S't\x05\x00\x00\x00Vista'
tRp3997
asbasbasbag48
(g64
g50
NtRp3998
(dp3999
g53
(dp4000
sg62
g3981
sg55
(lp4001
g48
(g69
g50
NtRp4002
(dp4003
g53
(dp4004
sg62
g3998
sg55
(lp4005
g48
(g49
g50
NtRp4006
(dp4007
g53
(dp4008
g61
I1
ssg62
g4002
sg55
(lp4009
I00
asbasbasbag48
(g64
g50
NtRp4010
(dp4011
g53
(dp4012
sg62
g3981
sg55
(lp4013
g48
(g69
g50
NtRp4014
(dp4015
g53
(dp4016
sg62
g4010
sg55
(lp4017
g48
(g49
g50
NtRp4018
(dp4019
g53
(dp4020
g61
I1
ssg62
g4014
sg55
(lp4021
S'/admin/default/edit/Desglosar_Emails/views/default/entrada_mod2.html'
p4022
asbasbasbasbasbasbasbag48
(g64
g50
NtRp4023
(dp4024
g53
(dp4025
sg62
g3911
sg55
(lp4026
g48
(g69
g50
NtRp4027
(dp4028
g53
(dp4029
sg62
g4023
sg55
(lp4030
g48
(g49
g50
NtRp4031
(dp4032
g53
(dp4033
g61
I2
ssg62
g4027
sg55
(lp4034
g48
(g57
g50
NtRp4035
(dp4036
g53
(dp4037
g61
I1
ssg62
Nsg55
(lp4038
g48
(g64
g50
NtRp4039
(dp4040
g53
(dp4041
sg62
g4035
sg55
(lp4042
g48
(g69
g50
NtRp4043
(dp4044
g53
(dp4045
sg62
g4039
sg55
(lp4046
g48
(g49
g50
NtRp4047
(dp4048
g53
(dp4049
g61
I1
ssg62
g4043
sg55
(lp4050
g3802
(S's\x12\x00\x00\x00Dise\xc3\xb1o de p\xc3\xa1gina'
tRp4051
asbasbasbag48
(g64
g50
NtRp4052
(dp4053
g53
(dp4054
sg62
g4035
sg55
(lp4055
g48
(g69
g50
NtRp4056
(dp4057
g53
(dp4058
sg62
g4052
sg55
(lp4059
g48
(g49
g50
NtRp4060
(dp4061
g53
(dp4062
g61
I1
ssg62
g4056
sg55
(lp4063
I00
asbasbasbag48
(g64
g50
NtRp4064
(dp4065
g53
(dp4066
sg62
g4035
sg55
(lp4067
g48
(g69
g50
NtRp4068
(dp4069
g53
(dp4070
sg62
g4064
sg55
(lp4071
g48
(g49
g50
NtRp4072
(dp4073
g53
(dp4074
g61
I1
ssg62
g4068
sg55
(lp4075
S'/admin/default/edit/Desglosar_Emails/views/layout.html'
p4076
asbasbasbasbasbasbasbag48
(g64
g50
NtRp4077
(dp4078
g53
(dp4079
sg62
g3911
sg55
(lp4080
g48
(g69
g50
NtRp4081
(dp4082
g53
(dp4083
sg62
g4077
sg55
(lp4084
g48
(g49
g50
NtRp4085
(dp4086
g53
(dp4087
g61
I2
ssg62
g4081
sg55
(lp4088
g48
(g57
g50
NtRp4089
(dp4090
g53
(dp4091
g61
I1
ssg62
Nsg55
(lp4092
g48
(g64
g50
NtRp4093
(dp4094
g53
(dp4095
sg62
g4089
sg55
(lp4096
g48
(g69
g50
NtRp4097
(dp4098
g53
(dp4099
sg62
g4093
sg55
(lp4100
g48
(g49
g50
NtRp4101
(dp4102
g53
(dp4103
g61
I1
ssg62
g4097
sg55
(lp4104
g3802
(S's\x0e\x00\x00\x00Hoja de estilo'
tRp4105
asbasbasbag48
(g64
g50
NtRp4106
(dp4107
g53
(dp4108
sg62
g4089
sg55
(lp4109
g48
(g69
g50
NtRp4110
(dp4111
g53
(dp4112
sg62
g4106
sg55
(lp4113
g48
(g49
g50
NtRp4114
(dp4115
g53
(dp4116
g61
I1
ssg62
g4110
sg55
(lp4117
I00
asbasbasbag48
(g64
g50
NtRp4118
(dp4119
g53
(dp4120
sg62
g4089
sg55
(lp4121
g48
(g69
g50
NtRp4122
(dp4123
g53
(dp4124
sg62
g4118
sg55
(lp4125
g48
(g49
g50
NtRp4126
(dp4127
g53
(dp4128
g61
I1
ssg62
g4122
sg55
(lp4129
S'/admin/default/edit/Desglosar_Emails/static/base.css'
p4130
asbasbasbasbasbasbasbag48
(g64
g50
NtRp4131
(dp4132
g53
(dp4133
sg62
g3911
sg55
(lp4134
g48
(g69
g50
NtRp4135
(dp4136
g53
(dp4137
sg62
g4131
sg55
(lp4138
g48
(g49
g50
NtRp4139
(dp4140
g53
(dp4141
g61
I2
ssg62
g4135
sg55
(lp4142
g48
(g57
g50
NtRp4143
(dp4144
g53
(dp4145
g61
I1
ssg62
Nsg55
(lp4146
g48
(g64
g50
NtRp4147
(dp4148
g53
(dp4149
sg62
g4143
sg55
(lp4150
g48
(g69
g50
NtRp4151
(dp4152
g53
(dp4153
sg62
g4147
sg55
(lp4154
g48
(g49
g50
NtRp4155
(dp4156
g53
(dp4157
g61
I1
ssg62
g4151
sg55
(lp4158
g3802
(S's\x0b\x00\x00\x00Modelo "db"'
tRp4159
asbasbasbag48
(g64
g50
NtRp4160
(dp4161
g53
(dp4162
sg62
g4143
sg55
(lp4163
g48
(g69
g50
NtRp4164
(dp4165
g53
(dp4166
sg62
g4160
sg55
(lp4167
g48
(g49
g50
NtRp4168
(dp4169
g53
(dp4170
g61
I1
ssg62
g4164
sg55
(lp4171
I00
asbasbasbag48
(g64
g50
NtRp4172
(dp4173
g53
(dp4174
sg62
g4143
sg55
(lp4175
g48
(g69
g50
NtRp4176
(dp4177
g53
(dp4178
sg62
g4172
sg55
(lp4179
g48
(g49
g50
NtRp4180
(dp4181
g53
(dp4182
g61
I1
ssg62
g4176
sg55
(lp4183
S'/admin/default/edit/Desglosar_Emails/models/db.py'
p4184
asbasbasbasbasbasbasbag48
(g64
g50
NtRp4185
(dp4186
g53
(dp4187
sg62
g3911
sg55
(lp4188
g48
(g69
g50
NtRp4189
(dp4190
g53
(dp4191
sg62
g4185
sg55
(lp4192
g48
(g49
g50
NtRp4193
(dp4194
g53
(dp4195
g61
I2
ssg62
g4189
sg55
(lp4196
g48
(g57
g50
NtRp4197
(dp4198
g53
(dp4199
g61
I1
ssg62
Nsg55
(lp4200
g48
(g64
g50
NtRp4201
(dp4202
g53
(dp4203
sg62
g4197
sg55
(lp4204
g48
(g69
g50
NtRp4205
(dp4206
g53
(dp4207
sg62
g4201
sg55
(lp4208
g48
(g49
g50
NtRp4209
(dp4210
g53
(dp4211
g61
I1
ssg62
g4205
sg55
(lp4212
g3802
(S's\r\x00\x00\x00Modelo "menu"'
tRp4213
asbasbasbag48
(g64
g50
NtRp4214
(dp4215
g53
(dp4216
sg62
g4197
sg55
(lp4217
g48
(g69
g50
NtRp4218
(dp4219
g53
(dp4220
sg62
g4214
sg55
(lp4221
g48
(g49
g50
NtRp4222
(dp4223
g53
(dp4224
g61
I1
ssg62
g4218
sg55
(lp4225
I00
asbasbasbag48
(g64
g50
NtRp4226
(dp4227
g53
(dp4228
sg62
g4197
sg55
(lp4229
g48
(g69
g50
NtRp4230
(dp4231
g53
(dp4232
sg62
g4226
sg55
(lp4233
g48
(g49
g50
NtRp4234
(dp4235
g53
(dp4236
g61
I1
ssg62
g4230
sg55
(lp4237
S'/admin/default/edit/Desglosar_Emails/models/menu.py'
p4238
asbasbasbasbasbasbasbag48
(g64
g50
NtRp4239
(dp4240
g53
(dp4241
sg62
g3911
sg55
(lp4242
g48
(g69
g50
NtRp4243
(dp4244
g53
(dp4245
sg62
g4239
sg55
(lp4246
g48
(g49
g50
NtRp4247
(dp4248
g53
(dp4249
g61
I2
ssg62
g4243
sg55
(lp4250
g48
(g57
g50
NtRp4251
(dp4252
g53
(dp4253
g61
I1
ssg62
Nsg55
(lp4254
g48
(g64
g50
NtRp4255
(dp4256
g53
(dp4257
sg62
g4251
sg55
(lp4258
g48
(g69
g50
NtRp4259
(dp4260
g53
(dp4261
sg62
g4255
sg55
(lp4262
g48
(g49
g50
NtRp4263
(dp4264
g53
(dp4265
g61
I1
ssg62
g4259
sg55
(lp4266
g3802
(S's\r\x00\x00\x00Base de datos'
tRp4267
asbasbasbag48
(g64
g50
NtRp4268
(dp4269
g53
(dp4270
sg62
g4251
sg55
(lp4271
g48
(g69
g50
NtRp4272
(dp4273
g53
(dp4274
sg62
g4268
sg55
(lp4275
g48
(g49
g50
NtRp4276
(dp4277
g53
(dp4278
g61
I1
ssg62
g4272
sg55
(lp4279
I00
asbasbasbag48
(g64
g50
NtRp4280
(dp4281
g53
(dp4282
sg62
g4251
sg55
(lp4283
g48
(g69
g50
NtRp4284
(dp4285
g53
(dp4286
sg62
g4280
sg55
(lp4287
g48
(g49
g50
NtRp4288
(dp4289
g53
(dp4290
g61
I1
ssg62
g4284
sg55
(lp4291
S'/Desglosar_Emails/appadmin/index'
p4292
asbasbasbasbasbasbasbag48
(g64
g50
NtRp4293
(dp4294
g53
(dp4295
sg62
g3911
sg55
(lp4296
g48
(g69
g50
NtRp4297
(dp4298
g53
(dp4299
sg62
g4293
sg55
(lp4300
g48
(g49
g50
NtRp4301
(dp4302
g53
(dp4303
g61
I2
ssg62
g4297
sg55
(lp4304
g48
(g57
g50
NtRp4305
(dp4306
g53
(dp4307
g61
I1
ssg62
Nsg55
(lp4308
g48
(g64
g50
NtRp4309
(dp4310
g53
(dp4311
sg62
g4305
sg55
(lp4312
g48
(g69
g50
NtRp4313
(dp4314
g53
(dp4315
sg62
g4309
sg55
(lp4316
g48
(g49
g50
NtRp4317
(dp4318
g53
(dp4319
g61
I1
ssg62
g4313
sg55
(lp4320
g3802
(S't\x06\x00\x00\x00Errors'
tRp4321
asbasbasbag48
(g64
g50
NtRp4322
(dp4323
g53
(dp4324
sg62
g4305
sg55
(lp4325
g48
(g69
g50
NtRp4326
(dp4327
g53
(dp4328
sg62
g4322
sg55
(lp4329
g48
(g49
g50
NtRp4330
(dp4331
g53
(dp4332
g61
I1
ssg62
g4326
sg55
(lp4333
I00
asbasbasbag48
(g64
g50
NtRp4334
(dp4335
g53
(dp4336
sg62
g4305
sg55
(lp4337
g48
(g69
g50
NtRp4338
(dp4339
g53
(dp4340
sg62
g4334
sg55
(lp4341
g48
(g49
g50
NtRp4342
(dp4343
g53
(dp4344
g61
I1
ssg62
g4338
sg55
(lp4345
S'/admin/default/errors/Desglosar_Emails'
p4346
asbasbasbasbasbasbasbag48
(g64
g50
NtRp4347
(dp4348
g53
(dp4349
sg62
g3911
sg55
(lp4350
g48
(g69
g50
NtRp4351
(dp4352
g53
(dp4353
sg62
g4347
sg55
(lp4354
g48
(g49
g50
NtRp4355
(dp4356
g53
(dp4357
g61
I2
ssg62
g4351
sg55
(lp4358
g48
(g57
g50
NtRp4359
(dp4360
g53
(dp4361
g61
I1
ssg62
Nsg55
(lp4362
g48
(g64
g50
NtRp4363
(dp4364
g53
(dp4365
sg62
g4359
sg55
(lp4366
g48
(g69
g50
NtRp4367
(dp4368
g53
(dp4369
sg62
g4363
sg55
(lp4370
g48
(g49
g50
NtRp4371
(dp4372
g53
(dp4373
g61
I1
ssg62
g4367
sg55
(lp4374
g3802
(S's\t\x00\x00\x00Acerca de'
tRp4375
asbasbasbag48
(g64
g50
NtRp4376
(dp4377
g53
(dp4378
sg62
g4359
sg55
(lp4379
g48
(g69
g50
NtRp4380
(dp4381
g53
(dp4382
sg62
g4376
sg55
(lp4383
g48
(g49
g50
NtRp4384
(dp4385
g53
(dp4386
g61
I1
ssg62
g4380
sg55
(lp4387
I00
asbasbasbag48
(g64
g50
NtRp4388
(dp4389
g53
(dp4390
sg62
g4359
sg55
(lp4391
g48
(g69
g50
NtRp4392
(dp4393
g53
(dp4394
sg62
g4388
sg55
(lp4395
g48
(g49
g50
NtRp4396
(dp4397
g53
(dp4398
g61
I1
ssg62
g4392
sg55
(lp4399
S'/admin/default/about/Desglosar_Emails'
p4400
asbasbasbasbasbasbasbasbasbasbasbasbasbasbasbag48
(g64
g50
NtRp4401
(dp4402
g53
(dp4403
sg62
g3770
sg55
(lp4404
g48
(g69
g50
NtRp4405
(dp4406
g53
(dp4407
sg62
g4401
sg55
(lp4408
g48
(g49
g50
NtRp4409
(dp4410
g53
(dp4411
g61
I4
ssg62
g4405
sg55
(lp4412
g48
(g57
g50
NtRp4413
(dp4414
g53
(dp4415
g61
I3
ssg62
Nsg55
(lp4416
g48
(g64
g50
NtRp4417
(dp4418
g53
(dp4419
sg62
g4413
sg55
(lp4420
g48
(g69
g50
NtRp4421
(dp4422
g53
(dp4423
sg62
g4417
sg55
(lp4424
g48
(g49
g50
NtRp4425
(dp4426
g53
(dp4427
g61
I3
ssg62
g4421
sg55
(lp4428
g3802
(S't\t\x00\x00\x00Resources'
tRp4429
asbasbasbag48
(g64
g50
NtRp4430
(dp4431
g53
(dp4432
sg62
g4413
sg55
(lp4433
g48
(g69
g50
NtRp4434
(dp4435
g53
(dp4436
sg62
g4430
sg55
(lp4437
g48
(g49
g50
NtRp4438
(dp4439
g53
(dp4440
g61
I3
ssg62
g4434
sg55
(lp4441
g91
asbasbasbag48
(g64
g50
NtRp4442
(dp4443
g53
(dp4444
sg62
g4413
sg55
(lp4445
g48
(g69
g50
NtRp4446
(dp4447
g53
(dp4448
sg62
g4442
sg55
(lp4449
g48
(g49
g50
NtRp4450
(dp4451
g53
(dp4452
g61
I3
ssg62
g4446
sg55
(lp4453
S'None'
p4454
asbasbasbag48
(g64
g50
NtRp4455
(dp4456
g53
(dp4457
sg62
g4413
sg55
(lp4458
g48
(g69
g50
NtRp4459
(dp4460
g53
(dp4461
sg62
g4455
sg55
(lp4462
g48
(g49
g50
NtRp4463
(dp4464
g53
(dp4465
g61
I3
ssg62
g4459
sg55
(lp4466
g48
(g57
g50
NtRp4467
(dp4468
g53
(dp4469
g61
I2
ssg62
Nsg55
(lp4470
g48
(g64
g50
NtRp4471
(dp4472
g53
(dp4473
sg62
g4467
sg55
(lp4474
g48
(g69
g50
NtRp4475
(dp4476
g53
(dp4477
sg62
g4471
sg55
(lp4478
g48
(g49
g50
NtRp4479
(dp4480
g53
(dp4481
g61
I2
ssg62
g4475
sg55
(lp4482
g48
(g57
g50
NtRp4483
(dp4484
g53
(dp4485
g61
I1
ssg62
Nsg55
(lp4486
g48
(g64
g50
NtRp4487
(dp4488
g53
(dp4489
sg62
g4483
sg55
(lp4490
g48
(g69
g50
NtRp4491
(dp4492
g53
(dp4493
sg62
g4487
sg55
(lp4494
g48
(g49
g50
NtRp4495
(dp4496
g53
(dp4497
g61
I1
ssg62
g4491
sg55
(lp4498
g3802
(S's\x0e\x00\x00\x00Documentaci\xc3\xb3n'
tRp4499
asbasbasbag48
(g64
g50
NtRp4500
(dp4501
g53
(dp4502
sg62
g4483
sg55
(lp4503
g48
(g69
g50
NtRp4504
(dp4505
g53
(dp4506
sg62
g4500
sg55
(lp4507
g48
(g49
g50
NtRp4508
(dp4509
g53
(dp4510
g61
I1
ssg62
g4504
sg55
(lp4511
I00
asbasbasbag48
(g64
g50
NtRp4512
(dp4513
g53
(dp4514
sg62
g4483
sg55
(lp4515
g48
(g69
g50
NtRp4516
(dp4517
g53
(dp4518
sg62
g4512
sg55
(lp4519
g48
(g49
g50
NtRp4520
(dp4521
g53
(dp4522
g61
I1
ssg62
g4516
sg55
(lp4523
S'http://www.web2py.com/book'
p4524
asbasbasbag48
(g64
g50
NtRp4525
(dp4526
g53
(dp4527
sg62
g4483
sg55
(lp4528
g48
(g69
g50
NtRp4529
(dp4530
g53
(dp4531
sg62
g4525
sg55
(lp4532
g48
(g49
g50
NtRp4533
(dp4534
g53
(dp4535
g61
I1
ssg62
g4529
sg55
(lp4536
(lp4537
(g3802
(S't\x07\x00\x00\x00Preface'
tRp4538
I00
S'http://www.web2py.com/book/default/chapter/00'
tp4539
a(g3802
(S't\x0c\x00\x00\x00Introduction'
tRp4540
I00
S'http://www.web2py.com/book/default/chapter/01'
tp4541
a(g3802
(S't\x06\x00\x00\x00Python'
tRp4542
I00
S'http://www.web2py.com/book/default/chapter/02'
tp4543
a(g3802
(S't\x08\x00\x00\x00Overview'
tRp4544
I00
S'http://www.web2py.com/book/default/chapter/03'
tp4545
a(g3802
(S's\x08\x00\x00\x00The Core'
tRp4546
I00
S'http://www.web2py.com/book/default/chapter/04'
tp4547
a(g3802
(S's\t\x00\x00\x00The Views'
tRp4548
I00
S'http://www.web2py.com/book/default/chapter/05'
tp4549
a(g3802
(S's\r\x00\x00\x00Base de datos'
tRp4550
I00
S'http://www.web2py.com/book/default/chapter/06'
tp4551
a(g3802
(S's\x14\x00\x00\x00Forms and Validators'
tRp4552
I00
S'http://www.web2py.com/book/default/chapter/07'
tp4553
a(g3802
(S's\x0e\x00\x00\x00Access Control'
tRp4554
I00
S'http://www.web2py.com/book/default/chapter/08'
tp4555
a(g3802
(S't\x08\x00\x00\x00Services'
tRp4556
I00
S'http://www.web2py.com/book/default/chapter/09'
tp4557
a(g3802
(S's\x0c\x00\x00\x00Ajax Recipes'
tRp4558
I00
S'http://www.web2py.com/book/default/chapter/10'
tp4559
a(g3802
(S's\x12\x00\x00\x00Deployment Recipes'
tRp4560
I00
S'http://www.web2py.com/book/default/chapter/11'
tp4561
a(g3802
(S's\r\x00\x00\x00Other Recipes'
tRp4562
I00
S'http://www.web2py.com/book/default/chapter/12'
tp4563
a(g3802
(S's\r\x00\x00\x00Buy this book'
tRp4564
I00
S'http://stores.lulu.com/web2py'
tp4565
aasbasbasbasbasbasbasbag48
(g64
g50
NtRp4566
(dp4567
g53
(dp4568
sg62
g4467
sg55
(lp4569
g48
(g69
g50
NtRp4570
(dp4571
g53
(dp4572
sg62
g4566
sg55
(lp4573
g48
(g49
g50
NtRp4574
(dp4575
g53
(dp4576
g61
I2
ssg62
g4570
sg55
(lp4577
g48
(g57
g50
NtRp4578
(dp4579
g53
(dp4580
g61
I1
ssg62
Nsg55
(lp4581
g48
(g64
g50
NtRp4582
(dp4583
g53
(dp4584
sg62
g4578
sg55
(lp4585
g48
(g69
g50
NtRp4586
(dp4587
g53
(dp4588
sg62
g4582
sg55
(lp4589
g48
(g49
g50
NtRp4590
(dp4591
g53
(dp4592
g61
I1
ssg62
g4586
sg55
(lp4593
g3802
(S't\t\x00\x00\x00Community'
tRp4594
asbasbasbag48
(g64
g50
NtRp4595
(dp4596
g53
(dp4597
sg62
g4578
sg55
(lp4598
g48
(g69
g50
NtRp4599
(dp4600
g53
(dp4601
sg62
g4595
sg55
(lp4602
g48
(g49
g50
NtRp4603
(dp4604
g53
(dp4605
g61
I1
ssg62
g4599
sg55
(lp4606
I00
asbasbasbag48
(g64
g50
NtRp4607
(dp4608
g53
(dp4609
sg62
g4578
sg55
(lp4610
g48
(g69
g50
NtRp4611
(dp4612
g53
(dp4613
sg62
g4607
sg55
(lp4614
g48
(g49
g50
NtRp4615
(dp4616
g53
(dp4617
g61
I1
ssg62
g4611
sg55
(lp4618
Nasbasbasbag48
(g64
g50
NtRp4619
(dp4620
g53
(dp4621
sg62
g4578
sg55
(lp4622
g48
(g69
g50
NtRp4623
(dp4624
g53
(dp4625
sg62
g4619
sg55
(lp4626
g48
(g49
g50
NtRp4627
(dp4628
g53
(dp4629
g61
I1
ssg62
g4623
sg55
(lp4630
(lp4631
(g3802
(S't\x06\x00\x00\x00Groups'
tRp4632
I00
S'http://www.web2py.com/examples/default/usergroups'
tp4633
a(g3802
(S't\x07\x00\x00\x00Twitter'
tRp4634
I00
S'http://twitter.com/web2py'
tp4635
a(g3802
(S's\t\x00\x00\x00Live chat'
tRp4636
I00
S'http://mibbit.com/?channel=%23web2py&server=irc.mibbit.net'
tp4637
a(g3802
(S's\n\x00\x00\x00User Voice'
tRp4638
I00
S'http://web2py.uservoice.com/'
tp4639
aasbasbasbasbasbasbasbag48
(g64
g50
NtRp4640
(dp4641
g53
(dp4642
sg62
g4467
sg55
(lp4643
g48
(g69
g50
NtRp4644
(dp4645
g53
(dp4646
sg62
g4640
sg55
(lp4647
g48
(g49
g50
NtRp4648
(dp4649
g53
(dp4650
g61
I2
ssg62
g4644
sg55
(lp4651
g48
(g57
g50
NtRp4652
(dp4653
g53
(dp4654
g61
I1
ssg62
Nsg55
(lp4655
g48
(g64
g50
NtRp4656
(dp4657
g53
(dp4658
sg62
g4652
sg55
(lp4659
g48
(g69
g50
NtRp4660
(dp4661
g53
(dp4662
sg62
g4656
sg55
(lp4663
g48
(g49
g50
NtRp4664
(dp4665
g53
(dp4666
g61
I1
ssg62
g4660
sg55
(lp4667
g3802
(S't\x06\x00\x00\x00Web2py'
tRp4668
asbasbasbag48
(g64
g50
NtRp4669
(dp4670
g53
(dp4671
sg62
g4652
sg55
(lp4672
g48
(g69
g50
NtRp4673
(dp4674
g53
(dp4675
sg62
g4669
sg55
(lp4676
g48
(g49
g50
NtRp4677
(dp4678
g53
(dp4679
g61
I1
ssg62
g4673
sg55
(lp4680
I00
asbasbasbag48
(g64
g50
NtRp4681
(dp4682
g53
(dp4683
sg62
g4652
sg55
(lp4684
g48
(g69
g50
NtRp4685
(dp4686
g53
(dp4687
sg62
g4681
sg55
(lp4688
g48
(g49
g50
NtRp4689
(dp4690
g53
(dp4691
g61
I1
ssg62
g4685
sg55
(lp4692
S'http://www.web2py.com'
p4693
asbasbasbag48
(g64
g50
NtRp4694
(dp4695
g53
(dp4696
sg62
g4652
sg55
(lp4697
g48
(g69
g50
NtRp4698
(dp4699
g53
(dp4700
sg62
g4694
sg55
(lp4701
g48
(g49
g50
NtRp4702
(dp4703
g53
(dp4704
g61
I1
ssg62
g4698
sg55
(lp4705
(lp4706
(g3802
(S't\x08\x00\x00\x00Download'
tRp4707
I00
S'http://www.web2py.com/examples/default/download'
tp4708
a(g3802
(S't\x07\x00\x00\x00Support'
tRp4709
I00
S'http://www.web2py.com/examples/default/support'
tp4710
a(g3802
(S's\x0e\x00\x00\x00Quick Examples'
tRp4711
I00
S'http://web2py.com/examples/default/examples'
tp4712
a(g3802
(S't\x03\x00\x00\x00FAQ'
tRp4713
I00
S'http://web2py.com/AlterEgo'
tp4714
a(g3802
(S's\x11\x00\x00\x00Free Applications'
tRp4715
I00
S'http://web2py.com/appliances'
tp4716
a(g3802
(S't\x07\x00\x00\x00Plugins'
tRp4717
I00
S'http://web2py.com/plugins'
tp4718
a(g3802
(S't\x07\x00\x00\x00Recipes'
tRp4719
I00
S'http://web2pyslices.com/'
tp4720
a(g3802
(S't\x04\x00\x00\x00Demo'
tRp4721
I00
S'http://web2py.com/demo_admin'
tp4722
a(g3802
(S't\x08\x00\x00\x00Semantic'
tRp4723
I00
S'http://web2py.com/semantic'
tp4724
a(g3802
(S't\x07\x00\x00\x00Layouts'
tRp4725
I00
S'http://web2py.com/layouts'
tp4726
a(g3802
(S't\x06\x00\x00\x00Videos'
tRp4727
I00
S'http://www.web2py.com/examples/default/videos/'
tp4728
aasbasbasbasbasbasbasbasbasbasbasbasbasbasbasbasbasbasbasbag48
(g64
g50
NtRp4729
(dp4730
g53
(dp4731
sg62
g3251
sg55
(lp4732
g48
(g69
g50
NtRp4733
(dp4734
g53
(dp4735
g73
g74
ssg62
g4729
sg55
(lp4736
S'meta'
p4737
asbag48
(g69
g50
NtRp4738
(dp4739
g53
(dp4740
g80
g81
ssg62
g4729
sg55
(lp4741
S':'
asbag48
(g69
g50
NtRp4742
(dp4743
g53
(dp4744
sg62
g4729
sg55
(lp4745
g48
(g49
g50
NtRp4746
(dp4747
g53
(dp4748
g61
I5
ssg62
g4742
sg55
(lp4749
g48
(g57
g50
NtRp4750
(dp4751
g53
(dp4752
g61
I4
ssg62
Nsg55
(lp4753
g48
(g64
g50
NtRp4754
(dp4755
g53
(dp4756
sg62
g4750
sg55
(lp4757
g48
(g69
g50
NtRp4758
(dp4759
g53
(dp4760
g73
g74
ssg62
g4754
sg55
(lp4761
S'author'
p4762
asbag48
(g69
g50
NtRp4763
(dp4764
g53
(dp4765
g80
g81
ssg62
g4754
sg55
(lp4766
S':'
asbag48
(g69
g50
NtRp4767
(dp4768
g53
(dp4769
sg62
g4754
sg55
(lp4770
g48
(g49
g50
NtRp4771
(dp4772
g53
(dp4773
g61
I4
ssg62
g4767
sg55
(lp4774
S'you'
p4775
asbasbasbag48
(g64
g50
NtRp4776
(dp4777
g53
(dp4778
sg62
g4750
sg55
(lp4779
g48
(g69
g50
NtRp4780
(dp4781
g53
(dp4782
g73
g74
ssg62
g4776
sg55
(lp4783
S'copyright'
p4784
asbag48
(g69
g50
NtRp4785
(dp4786
g53
(dp4787
g80
g81
ssg62
g4776
sg55
(lp4788
S':'
asbag48
(g69
g50
NtRp4789
(dp4790
g53
(dp4791
sg62
g4776
sg55
(lp4792
g48
(g49
g50
NtRp4793
(dp4794
g53
(dp4795
g61
I4
ssg62
g4789
sg55
(lp4796
S'Copyright 2007-2010'
p4797
asbasbasbag48
(g64
g50
NtRp4798
(dp4799
g53
(dp4800
sg62
g4750
sg55
(lp4801
g48
(g69
g50
NtRp4802
(dp4803
g53
(dp4804
g73
g74
ssg62
g4798
sg55
(lp4805
S'description'
p4806
asbag48
(g69
g50
NtRp4807
(dp4808
g53
(dp4809
g80
g81
ssg62
g4798
sg55
(lp4810
S':'
asbag48
(g69
g50
NtRp4811
(dp4812
g53
(dp4813
sg62
g4798
sg55
(lp4814
g48
(g49
g50
NtRp4815
(dp4816
g53
(dp4817
g61
I4
ssg62
g4811
sg55
(lp4818
S'Free and open source full-stack enterprise framework for agile development of fast, scalable, secure and portable database-driven web-based applications. Written and programmable in Python'
p4819
asbasbasbag48
(g64
g50
NtRp4820
(dp4821
g53
(dp4822
sg62
g4750
sg55
(lp4823
g48
(g69
g50
NtRp4824
(dp4825
g53
(dp4826
g73
g74
ssg62
g4820
sg55
(lp4827
S'generator'
p4828
asbag48
(g69
g50
NtRp4829
(dp4830
g53
(dp4831
g80
g81
ssg62
g4820
sg55
(lp4832
S':'
asbag48
(g69
g50
NtRp4833
(dp4834
g53
(dp4835
sg62
g4820
sg55
(lp4836
g48
(g49
g50
NtRp4837
(dp4838
g53
(dp4839
g61
I4
ssg62
g4833
sg55
(lp4840
S'Web2py Enterprise Framework'
p4841
asbasbasbag48
(g64
g50
NtRp4842
(dp4843
g53
(dp4844
sg62
g4750
sg55
(lp4845
g48
(g69
g50
NtRp4846
(dp4847
g53
(dp4848
g73
g74
ssg62
g4842
sg55
(lp4849
S'keywords'
p4850
asbag48
(g69
g50
NtRp4851
(dp4852
g53
(dp4853
g80
g81
ssg62
g4842
sg55
(lp4854
S':'
asbag48
(g69
g50
NtRp4855
(dp4856
g53
(dp4857
sg62
g4842
sg55
(lp4858
g48
(g49
g50
NtRp4859
(dp4860
g53
(dp4861
g61
I4
ssg62
g4855
sg55
(lp4862
S'web2py, python, framework'
p4863
asbasbasbasbasbasbasbag48
(g64
g50
NtRp4864
(dp4865
g53
(dp4866
sg62
g3251
sg55
(lp4867
g48
(g69
g50
NtRp4868
(dp4869
g53
(dp4870
g73
g74
ssg62
g4864
sg55
(lp4871
S'postprocessing'
p4872
asbag48
(g69
g50
NtRp4873
(dp4874
g53
(dp4875
g80
g81
ssg62
g4864
sg55
(lp4876
S':'
asbag48
(g69
g50
NtRp4877
(dp4878
g53
(dp4879
sg62
g4864
sg55
(lp4880
g48
(g49
g50
NtRp4881
(dp4882
g53
(dp4883
g61
I5
ssg62
g4877
sg55
(lp4884
g48
(g57
g50
NtRp4885
(dp4886
g53
(dp4887
g61
I4
ssg62
Nsg55
(lp4888
sbasbasbasbag48
(g64
g50
NtRp4889
(dp4890
g53
(dp4891
sg62
g3251
sg55
(lp4892
g48
(g69
g50
NtRp4893
(dp4894
g53
(dp4895
g73
g74
ssg62
g4889
sg55
(lp4896
S'session_file'
p4897
asbag48
(g69
g50
NtRp4898
(dp4899
g53
(dp4900
g80
g81
ssg62
g4889
sg55
(lp4901
S':'
asbag48
(g69
g50
NtRp4902
(dp4903
g53
(dp4904
sg62
g4889
sg55
(lp4905
g48
(g49
g50
NtRp4906
(dp4907
g53
(dp4908
g61
I5
ssg62
g4902
sg55
(lp4909
S"<open file 'C:\\Users\\Atomico\\web2py\\applications\\Desglosar_Emails\\sessions\\127.0.0.1-0a11b3b2-660c-433c-b71f-fc129286f26c', mode 'rb+' at 0x08736800>"
p4910
asbasbasbag48
(g64
g50
NtRp4911
(dp4912
g53
(dp4913
sg62
g3251
sg55
(lp4914
g48
(g69
g50
NtRp4915
(dp4916
g53
(dp4917
g73
g74
ssg62
g4911
sg55
(lp4918
S'session_filename'
p4919
asbag48
(g69
g50
NtRp4920
(dp4921
g53
(dp4922
g80
g81
ssg62
g4911
sg55
(lp4923
S':'
asbag48
(g69
g50
NtRp4924
(dp4925
g53
(dp4926
sg62
g4911
sg55
(lp4927
g48
(g49
g50
NtRp4928
(dp4929
g53
(dp4930
g61
I5
ssg62
g4924
sg55
(lp4931
S'C:\\Users\\Atomico\\web2py\\applications\\Desglosar_Emails\\sessions\\127.0.0.1-0a11b3b2-660c-433c-b71f-fc129286f26c'
p4932
asbasbasbag48
(g64
g50
NtRp4933
(dp4934
g53
(dp4935
sg62
g3251
sg55
(lp4936
g48
(g69
g50
NtRp4937
(dp4938
g53
(dp4939
g73
g74
ssg62
g4933
sg55
(lp4940
S'session_id'
p4941
asbag48
(g69
g50
NtRp4942
(dp4943
g53
(dp4944
g80
g81
ssg62
g4933
sg55
(lp4945
S':'
asbag48
(g69
g50
NtRp4946
(dp4947
g53
(dp4948
sg62
g4933
sg55
(lp4949
g48
(g49
g50
NtRp4950
(dp4951
g53
(dp4952
g61
I5
ssg62
g4946
sg55
(lp4953
S'127.0.0.1-0a11b3b2-660c-433c-b71f-fc129286f26c'
p4954
asbasbasbag48
(g64
g50
NtRp4955
(dp4956
g53
(dp4957
sg62
g3251
sg55
(lp4958
g48
(g69
g50
NtRp4959
(dp4960
g53
(dp4961
g73
g74
ssg62
g4955
sg55
(lp4962
S'session_id_name'
p4963
asbag48
(g69
g50
NtRp4964
(dp4965
g53
(dp4966
g80
g81
ssg62
g4955
sg55
(lp4967
S':'
asbag48
(g69
g50
NtRp4968
(dp4969
g53
(dp4970
sg62
g4955
sg55
(lp4971
g48
(g49
g50
NtRp4972
(dp4973
g53
(dp4974
g61
I5
ssg62
g4968
sg55
(lp4975
g3308
asbasbasbag48
(g64
g50
NtRp4976
(dp4977
g53
(dp4978
sg62
g3251
sg55
(lp4979
g48
(g69
g50
NtRp4980
(dp4981
g53
(dp4982
g73
g74
ssg62
g4976
sg55
(lp4983
S'session_locked'
p4984
asbag48
(g69
g50
NtRp4985
(dp4986
g53
(dp4987
g80
g81
ssg62
g4976
sg55
(lp4988
S':'
asbag48
(g69
g50
NtRp4989
(dp4990
g53
(dp4991
sg62
g4976
sg55
(lp4992
g48
(g49
g50
NtRp4993
(dp4994
g53
(dp4995
g61
I5
ssg62
g4989
sg55
(lp4996
g2181
asbasbasbag48
(g64
g50
NtRp4997
(dp4998
g53
(dp4999
sg62
g3251
sg55
(lp5000
g48
(g69
g50
NtRp5001
(dp5002
g53
(dp5003
g73
g74
ssg62
g4997
sg55
(lp5004
S'session_new'
p5005
asbag48
(g69
g50
NtRp5006
(dp5007
g53
(dp5008
g80
g81
ssg62
g4997
sg55
(lp5009
S':'
asbag48
(g69
g50
NtRp5010
(dp5011
g53
(dp5012
sg62
g4997
sg55
(lp5013
g48
(g49
g50
NtRp5014
(dp5015
g53
(dp5016
g61
I5
ssg62
g5010
sg55
(lp5017
g91
asbasbasbag48
(g64
g50
NtRp5018
(dp5019
g53
(dp5020
sg62
g3251
sg55
(lp5021
g48
(g69
g50
NtRp5022
(dp5023
g53
(dp5024
g73
g74
ssg62
g5018
sg55
(lp5025
S'status'
p5026
asbag48
(g69
g50
NtRp5027
(dp5028
g53
(dp5029
g80
g81
ssg62
g5018
sg55
(lp5030
S':'
asbag48
(g69
g50
NtRp5031
(dp5032
g53
(dp5033
sg62
g5018
sg55
(lp5034
g48
(g49
g50
NtRp5035
(dp5036
g53
(dp5037
g61
I5
ssg62
g5031
sg55
(lp5038
S'200'
p5039
asbasbasbag48
(g64
g50
NtRp5040
(dp5041
g53
(dp5042
sg62
g3251
sg55
(lp5043
g48
(g69
g50
NtRp5044
(dp5045
g53
(dp5046
g73
g74
ssg62
g5040
sg55
(lp5047
S'subtitle'
p5048
asbag48
(g69
g50
NtRp5049
(dp5050
g53
(dp5051
g80
g81
ssg62
g5040
sg55
(lp5052
S':'
asbag48
(g69
g50
NtRp5053
(dp5054
g53
(dp5055
sg62
g5040
sg55
(lp5056
g48
(g49
g50
NtRp5057
(dp5058
g53
(dp5059
g61
I5
ssg62
g5053
sg55
(lp5060
g3802
(S's\t\x00\x00\x00Adaptame!'
tRp5061
asbasbasbag48
(g64
g50
NtRp5062
(dp5063
g53
(dp5064
sg62
g3251
sg55
(lp5065
g48
(g69
g50
NtRp5066
(dp5067
g53
(dp5068
g73
g74
ssg62
g5062
sg55
(lp5069
S'title'
p5070
asbag48
(g69
g50
NtRp5071
(dp5072
g53
(dp5073
g80
g81
ssg62
g5062
sg55
(lp5074
S':'
asbag48
(g69
g50
NtRp5075
(dp5076
g53
(dp5077
sg62
g5062
sg55
(lp5078
g48
(g49
g50
NtRp5079
(dp5080
g53
(dp5081
g61
I5
ssg62
g5075
sg55
(lp5082
g113
asbasbasbag48
(g64
g50
NtRp5083
(dp5084
g53
(dp5085
sg62
g3251
sg55
(lp5086
g48
(g69
g50
NtRp5087
(dp5088
g53
(dp5089
g73
g74
ssg62
g5083
sg55
(lp5090
g2505
asbag48
(g69
g50
NtRp5091
(dp5092
g53
(dp5093
g80
g81
ssg62
g5083
sg55
(lp5094
S':'
asbag48
(g69
g50
NtRp5095
(dp5096
g53
(dp5097
sg62
g5083
sg55
(lp5098
g48
(g49
g50
NtRp5099
(dp5100
g53
(dp5101
g61
I5
ssg62
g5095
sg55
(lp5102
g2518
asbasbasbag48
(g64
g50
NtRp5103
(dp5104
g53
(dp5105
sg62
g3251
sg55
(lp5106
g48
(g69
g50
NtRp5107
(dp5108
g53
(dp5109
g73
g74
ssg62
g5103
sg55
(lp5110
S'view'
p5111
asbag48
(g69
g50
NtRp5112
(dp5113
g53
(dp5114
g80
g81
ssg62
g5103
sg55
(lp5115
S':'
asbag48
(g69
g50
NtRp5116
(dp5117
g53
(dp5118
sg62
g5103
sg55
(lp5119
g48
(g49
g50
NtRp5120
(dp5121
g53
(dp5122
g61
I5
ssg62
g5116
sg55
(lp5123
S'default/entrada_mod2.html'
p5124
asbasbasbasbasbsS'locals'
p5125
(dp5126
S'i'
S'0'
sS'self'
p5127
S'<gluon.dal.Rows object at 0x08FB7F30>'
p5128
sssS'traceback'
p5129
S'Traceback (most recent call last):\n  File "gluon/restricted.py", line 192, in restricted\n  File "C:\\Users\\Atomico\\web2py\\applications\\Desglosar_Emails\\views\\default/entrada_mod2.html", line 110, in <module>\n  File "gluon/dal.py", line 5619, in __getitem__\nIndexError: list index out of range\n'
p5130
s.