(dp1
S'output'
p2
S''
sS'layer'
p3
S'C:\\Users\\Atomico\\web2py\\applications\\Desglosar_Emails\\models\\db.py'
p4
sS'code'
p5
S"db=SQLDB('sqlite://mydb.db')\n\ndb.define_table('remitentes',\n    SQLField('nombre','string',length=50))\n    \ndb.define_table('contactos',\n    SQLField('nombre','string',length=50),\n    SQLField('email','string',length=50),\n    SQLField('remitentesant',db.remitentes))\n\ndb.define_table('info',\n    SQLField('texto','string',length=10000,notnull=True),\n    SQLField('selector','integer'))\n    \ndb.define_table('info2',\n    SQLField('texto','string',length=30000,notnull=True),\n    SQLField('longitud'))\n    \ndb.define_table('persona',\n    SQLField('nombre'),\n    SQLField('cumplea\xc3\xb1os','date'))\n"
p6
sS'snapshot'
p7
(dp8
S'exception'
p9
(dp10
S'__getslice__'
p11
S"<method-wrapper '__getslice__' of exceptions.SyntaxError object at 0x08730030>"
p12
sS'text'
p13
S'None'
p14
sS'__str__'
p15
S"<method-wrapper '__str__' of exceptions.SyntaxError object at 0x08730030>"
p16
sS'__reduce__'
p17
S'<built-in method __reduce__ of exceptions.SyntaxError object at 0x08730030>'
p18
sS'__dict__'
p19
S'{}'
p20
sS'__init__'
p21
S"<method-wrapper '__init__' of exceptions.SyntaxError object at 0x08730030>"
p22
sS'__setattr__'
p23
S"<method-wrapper '__setattr__' of exceptions.SyntaxError object at 0x08730030>"
p24
sS'__reduce_ex__'
p25
S'<built-in method __reduce_ex__ of exceptions.SyntaxError object at 0x08730030>'
p26
sS'__new__'
p27
S'<built-in method __new__ of type object at 0x1E1CDBD0>'
p28
sS'__class__'
p29
S"<type 'exceptions.SyntaxError'>"
p30
sS'filename'
p31
S'None'
p32
sS'lineno'
p33
S'None'
p34
sS'msg'
p35
S"'only [0-9a-zA-Z_] allowed in table and field names, received cumplea\\xc3\\xb1os'"
p36
sS'__doc__'
p37
S"'Invalid syntax.'"
p38
sS'__getitem__'
p39
S"<method-wrapper '__getitem__' of exceptions.SyntaxError object at 0x08730030>"
p40
sS'__setstate__'
p41
S'<built-in method __setstate__ of exceptions.SyntaxError object at 0x08730030>'
p42
sS'__getattribute__'
p43
S"<method-wrapper '__getattribute__' of exceptions.SyntaxError object at 0x08730030>"
p44
sS'print_file_and_line'
p45
S'None'
p46
sS'args'
p47
S"('only [0-9a-zA-Z_] allowed in table and field names, received cumplea\\xc3\\xb1os',)"
p48
sS'offset'
p49
S'None'
p50
sS'__delattr__'
p51
S"<method-wrapper '__delattr__' of exceptions.SyntaxError object at 0x08730030>"
p52
sS'__repr__'
p53
S"<method-wrapper '__repr__' of exceptions.SyntaxError object at 0x08730030>"
p54
sS'__hash__'
p55
S"<method-wrapper '__hash__' of exceptions.SyntaxError object at 0x08730030>"
p56
ssS'evalue'
p57
S'only [0-9a-zA-Z_] allowed in table and field names, received cumplea\xc3\xb1os'
p58
sS'request'
p59
ccopy_reg
_reconstructor
p60
(cgluon.html
BEAUTIFY
p61
c__builtin__
object
p62
NtRp63
(dp64
S'attributes'
p65
(dp66
sS'components'
p67
(lp68
g60
(cgluon.html
TABLE
p69
g62
NtRp70
(dp71
g65
(dp72
S'level'
p73
I5
ssS'parent'
p74
Nsg67
(lp75
g60
(cgluon.html
TR
p76
g62
NtRp77
(dp78
g65
(dp79
sg74
g70
sg67
(lp80
g60
(cgluon.html
TD
p81
g62
NtRp82
(dp83
g65
(dp84
S'_style'
p85
S'font-weight:bold;'
p86
ssg74
g77
sg67
(lp87
S'ajax'
p88
asbag60
(g81
g62
NtRp89
(dp90
g65
(dp91
S'_valign'
p92
S'top'
p93
ssg74
g77
sg67
(lp94
S':'
asbag60
(g81
g62
NtRp95
(dp96
g65
(dp97
sg74
g77
sg67
(lp98
g60
(g61
g62
NtRp99
(dp100
g65
(dp101
g73
I5
ssg74
g95
sg67
(lp102
S'False'
p103
asbasbasbag60
(g76
g62
NtRp104
(dp105
g65
(dp106
sg74
g70
sg67
(lp107
g60
(g81
g62
NtRp108
(dp109
g65
(dp110
g85
g86
ssg74
g104
sg67
(lp111
S'application'
p112
asbag60
(g81
g62
NtRp113
(dp114
g65
(dp115
g92
g93
ssg74
g104
sg67
(lp116
S':'
asbag60
(g81
g62
NtRp117
(dp118
g65
(dp119
sg74
g104
sg67
(lp120
g60
(g61
g62
NtRp121
(dp122
g65
(dp123
g73
I5
ssg74
g117
sg67
(lp124
S'Desglosar_Emails'
p125
asbasbasbag60
(g76
g62
NtRp126
(dp127
g65
(dp128
sg74
g70
sg67
(lp129
g60
(g81
g62
NtRp130
(dp131
g65
(dp132
g85
g86
ssg74
g126
sg67
(lp133
g47
asbag60
(g81
g62
NtRp134
(dp135
g65
(dp136
g92
g93
ssg74
g126
sg67
(lp137
S':'
asbag60
(g81
g62
NtRp138
(dp139
g65
(dp140
sg74
g126
sg67
(lp141
g60
(g61
g62
NtRp142
(dp143
g65
(dp144
g73
I5
ssg74
g138
sg67
(lp145
g60
(g69
g62
NtRp146
(dp147
g65
(dp148
g73
I4
ssg74
Nsg67
(lp149
sbasbasbasbag60
(g76
g62
NtRp150
(dp151
g65
(dp152
sg74
g70
sg67
(lp153
g60
(g81
g62
NtRp154
(dp155
g65
(dp156
g85
g86
ssg74
g150
sg67
(lp157
S'body'
p158
asbag60
(g81
g62
NtRp159
(dp160
g65
(dp161
g92
g93
ssg74
g150
sg67
(lp162
S':'
asbag60
(g81
g62
NtRp163
(dp164
g65
(dp165
sg74
g150
sg67
(lp166
g60
(g61
g62
NtRp167
(dp168
g65
(dp169
g73
I5
ssg74
g163
sg67
(lp170
S'<cStringIO.StringO object at 0x087AE700>'
p171
asbasbasbag60
(g76
g62
NtRp172
(dp173
g65
(dp174
sg74
g70
sg67
(lp175
g60
(g81
g62
NtRp176
(dp177
g65
(dp178
g85
g86
ssg74
g172
sg67
(lp179
S'client'
p180
asbag60
(g81
g62
NtRp181
(dp182
g65
(dp183
g92
g93
ssg74
g172
sg67
(lp184
S':'
asbag60
(g81
g62
NtRp185
(dp186
g65
(dp187
sg74
g172
sg67
(lp188
g60
(g61
g62
NtRp189
(dp190
g65
(dp191
g73
I5
ssg74
g185
sg67
(lp192
S'127.0.0.1'
p193
asbasbasbag60
(g76
g62
NtRp194
(dp195
g65
(dp196
sg74
g70
sg67
(lp197
g60
(g81
g62
NtRp198
(dp199
g65
(dp200
g85
g86
ssg74
g194
sg67
(lp201
S'controller'
p202
asbag60
(g81
g62
NtRp203
(dp204
g65
(dp205
g92
g93
ssg74
g194
sg67
(lp206
S':'
asbag60
(g81
g62
NtRp207
(dp208
g65
(dp209
sg74
g194
sg67
(lp210
g60
(g61
g62
NtRp211
(dp212
g65
(dp213
g73
I5
ssg74
g207
sg67
(lp214
S'default'
p215
asbasbasbag60
(g76
g62
NtRp216
(dp217
g65
(dp218
sg74
g70
sg67
(lp219
g60
(g81
g62
NtRp220
(dp221
g65
(dp222
g85
g86
ssg74
g216
sg67
(lp223
S'cookies'
p224
asbag60
(g81
g62
NtRp225
(dp226
g65
(dp227
g92
g93
ssg74
g216
sg67
(lp228
S':'
asbag60
(g81
g62
NtRp229
(dp230
g65
(dp231
sg74
g216
sg67
(lp232
g60
(g61
g62
NtRp233
(dp234
g65
(dp235
g73
I5
ssg74
g229
sg67
(lp236
g60
(g69
g62
NtRp237
(dp238
g65
(dp239
g73
I4
ssg74
Nsg67
(lp240
g60
(g76
g62
NtRp241
(dp242
g65
(dp243
sg74
g237
sg67
(lp244
g60
(g81
g62
NtRp245
(dp246
g65
(dp247
g85
g86
ssg74
g241
sg67
(lp248
S'session_id_admin'
p249
asbag60
(g81
g62
NtRp250
(dp251
g65
(dp252
g92
g93
ssg74
g241
sg67
(lp253
S':'
asbag60
(g81
g62
NtRp254
(dp255
g65
(dp256
sg74
g241
sg67
(lp257
g60
(g61
g62
NtRp258
(dp259
g65
(dp260
g73
I4
ssg74
g254
sg67
(lp261
g60
(g69
g62
NtRp262
(dp263
g65
(dp264
g73
I3
ssg74
Nsg67
(lp265
g60
(g76
g62
NtRp266
(dp267
g65
(dp268
sg74
g262
sg67
(lp269
g60
(g81
g62
NtRp270
(dp271
g65
(dp272
g85
g86
ssg74
g266
sg67
(lp273
S'comment'
p274
asbag60
(g81
g62
NtRp275
(dp276
g65
(dp277
g92
g93
ssg74
g266
sg67
(lp278
S':'
asbag60
(g81
g62
NtRp279
(dp280
g65
(dp281
sg74
g266
sg67
(lp282
g60
(g61
g62
NtRp283
(dp284
g65
(dp285
g73
I3
ssg74
g279
sg67
(lp286
S''
asbasbasbag60
(g76
g62
NtRp287
(dp288
g65
(dp289
sg74
g262
sg67
(lp290
g60
(g81
g62
NtRp291
(dp292
g65
(dp293
g85
g86
ssg74
g287
sg67
(lp294
S'domain'
p295
asbag60
(g81
g62
NtRp296
(dp297
g65
(dp298
g92
g93
ssg74
g287
sg67
(lp299
S':'
asbag60
(g81
g62
NtRp300
(dp301
g65
(dp302
sg74
g287
sg67
(lp303
g60
(g61
g62
NtRp304
(dp305
g65
(dp306
g73
I3
ssg74
g300
sg67
(lp307
S''
asbasbasbag60
(g76
g62
NtRp308
(dp309
g65
(dp310
sg74
g262
sg67
(lp311
g60
(g81
g62
NtRp312
(dp313
g65
(dp314
g85
g86
ssg74
g308
sg67
(lp315
S'expires'
p316
asbag60
(g81
g62
NtRp317
(dp318
g65
(dp319
g92
g93
ssg74
g308
sg67
(lp320
S':'
asbag60
(g81
g62
NtRp321
(dp322
g65
(dp323
sg74
g308
sg67
(lp324
g60
(g61
g62
NtRp325
(dp326
g65
(dp327
g73
I3
ssg74
g321
sg67
(lp328
S''
asbasbasbag60
(g76
g62
NtRp329
(dp330
g65
(dp331
sg74
g262
sg67
(lp332
g60
(g81
g62
NtRp333
(dp334
g65
(dp335
g85
g86
ssg74
g329
sg67
(lp336
S'max-age'
p337
asbag60
(g81
g62
NtRp338
(dp339
g65
(dp340
g92
g93
ssg74
g329
sg67
(lp341
S':'
asbag60
(g81
g62
NtRp342
(dp343
g65
(dp344
sg74
g329
sg67
(lp345
g60
(g61
g62
NtRp346
(dp347
g65
(dp348
g73
I3
ssg74
g342
sg67
(lp349
S''
asbasbasbag60
(g76
g62
NtRp350
(dp351
g65
(dp352
sg74
g262
sg67
(lp353
g60
(g81
g62
NtRp354
(dp355
g65
(dp356
g85
g86
ssg74
g350
sg67
(lp357
S'path'
p358
asbag60
(g81
g62
NtRp359
(dp360
g65
(dp361
g92
g93
ssg74
g350
sg67
(lp362
S':'
asbag60
(g81
g62
NtRp363
(dp364
g65
(dp365
sg74
g350
sg67
(lp366
g60
(g61
g62
NtRp367
(dp368
g65
(dp369
g73
I3
ssg74
g363
sg67
(lp370
S''
asbasbasbag60
(g76
g62
NtRp371
(dp372
g65
(dp373
sg74
g262
sg67
(lp374
g60
(g81
g62
NtRp375
(dp376
g65
(dp377
g85
g86
ssg74
g371
sg67
(lp378
S'secure'
p379
asbag60
(g81
g62
NtRp380
(dp381
g65
(dp382
g92
g93
ssg74
g371
sg67
(lp383
S':'
asbag60
(g81
g62
NtRp384
(dp385
g65
(dp386
sg74
g371
sg67
(lp387
g60
(g61
g62
NtRp388
(dp389
g65
(dp390
g73
I3
ssg74
g384
sg67
(lp391
S''
asbasbasbag60
(g76
g62
NtRp392
(dp393
g65
(dp394
sg74
g262
sg67
(lp395
g60
(g81
g62
NtRp396
(dp397
g65
(dp398
g85
g86
ssg74
g392
sg67
(lp399
S'version'
p400
asbag60
(g81
g62
NtRp401
(dp402
g65
(dp403
g92
g93
ssg74
g392
sg67
(lp404
S':'
asbag60
(g81
g62
NtRp405
(dp406
g65
(dp407
sg74
g392
sg67
(lp408
g60
(g61
g62
NtRp409
(dp410
g65
(dp411
g73
I3
ssg74
g405
sg67
(lp412
S''
asbasbasbasbasbasbasbag60
(g76
g62
NtRp413
(dp414
g65
(dp415
sg74
g237
sg67
(lp416
g60
(g81
g62
NtRp417
(dp418
g65
(dp419
g85
g86
ssg74
g413
sg67
(lp420
S'session_id_cual_es_tu_nombre'
p421
asbag60
(g81
g62
NtRp422
(dp423
g65
(dp424
g92
g93
ssg74
g413
sg67
(lp425
S':'
asbag60
(g81
g62
NtRp426
(dp427
g65
(dp428
sg74
g413
sg67
(lp429
g60
(g61
g62
NtRp430
(dp431
g65
(dp432
g73
I4
ssg74
g426
sg67
(lp433
g60
(g69
g62
NtRp434
(dp435
g65
(dp436
g73
I3
ssg74
Nsg67
(lp437
g60
(g76
g62
NtRp438
(dp439
g65
(dp440
sg74
g434
sg67
(lp441
g60
(g81
g62
NtRp442
(dp443
g65
(dp444
g85
g86
ssg74
g438
sg67
(lp445
g274
asbag60
(g81
g62
NtRp446
(dp447
g65
(dp448
g92
g93
ssg74
g438
sg67
(lp449
S':'
asbag60
(g81
g62
NtRp450
(dp451
g65
(dp452
sg74
g438
sg67
(lp453
g60
(g61
g62
NtRp454
(dp455
g65
(dp456
g73
I3
ssg74
g450
sg67
(lp457
S''
asbasbasbag60
(g76
g62
NtRp458
(dp459
g65
(dp460
sg74
g434
sg67
(lp461
g60
(g81
g62
NtRp462
(dp463
g65
(dp464
g85
g86
ssg74
g458
sg67
(lp465
g295
asbag60
(g81
g62
NtRp466
(dp467
g65
(dp468
g92
g93
ssg74
g458
sg67
(lp469
S':'
asbag60
(g81
g62
NtRp470
(dp471
g65
(dp472
sg74
g458
sg67
(lp473
g60
(g61
g62
NtRp474
(dp475
g65
(dp476
g73
I3
ssg74
g470
sg67
(lp477
S''
asbasbasbag60
(g76
g62
NtRp478
(dp479
g65
(dp480
sg74
g434
sg67
(lp481
g60
(g81
g62
NtRp482
(dp483
g65
(dp484
g85
g86
ssg74
g478
sg67
(lp485
g316
asbag60
(g81
g62
NtRp486
(dp487
g65
(dp488
g92
g93
ssg74
g478
sg67
(lp489
S':'
asbag60
(g81
g62
NtRp490
(dp491
g65
(dp492
sg74
g478
sg67
(lp493
g60
(g61
g62
NtRp494
(dp495
g65
(dp496
g73
I3
ssg74
g490
sg67
(lp497
S''
asbasbasbag60
(g76
g62
NtRp498
(dp499
g65
(dp500
sg74
g434
sg67
(lp501
g60
(g81
g62
NtRp502
(dp503
g65
(dp504
g85
g86
ssg74
g498
sg67
(lp505
g337
asbag60
(g81
g62
NtRp506
(dp507
g65
(dp508
g92
g93
ssg74
g498
sg67
(lp509
S':'
asbag60
(g81
g62
NtRp510
(dp511
g65
(dp512
sg74
g498
sg67
(lp513
g60
(g61
g62
NtRp514
(dp515
g65
(dp516
g73
I3
ssg74
g510
sg67
(lp517
S''
asbasbasbag60
(g76
g62
NtRp518
(dp519
g65
(dp520
sg74
g434
sg67
(lp521
g60
(g81
g62
NtRp522
(dp523
g65
(dp524
g85
g86
ssg74
g518
sg67
(lp525
g358
asbag60
(g81
g62
NtRp526
(dp527
g65
(dp528
g92
g93
ssg74
g518
sg67
(lp529
S':'
asbag60
(g81
g62
NtRp530
(dp531
g65
(dp532
sg74
g518
sg67
(lp533
g60
(g61
g62
NtRp534
(dp535
g65
(dp536
g73
I3
ssg74
g530
sg67
(lp537
S''
asbasbasbag60
(g76
g62
NtRp538
(dp539
g65
(dp540
sg74
g434
sg67
(lp541
g60
(g81
g62
NtRp542
(dp543
g65
(dp544
g85
g86
ssg74
g538
sg67
(lp545
g379
asbag60
(g81
g62
NtRp546
(dp547
g65
(dp548
g92
g93
ssg74
g538
sg67
(lp549
S':'
asbag60
(g81
g62
NtRp550
(dp551
g65
(dp552
sg74
g538
sg67
(lp553
g60
(g61
g62
NtRp554
(dp555
g65
(dp556
g73
I3
ssg74
g550
sg67
(lp557
S''
asbasbasbag60
(g76
g62
NtRp558
(dp559
g65
(dp560
sg74
g434
sg67
(lp561
g60
(g81
g62
NtRp562
(dp563
g65
(dp564
g85
g86
ssg74
g558
sg67
(lp565
g400
asbag60
(g81
g62
NtRp566
(dp567
g65
(dp568
g92
g93
ssg74
g558
sg67
(lp569
S':'
asbag60
(g81
g62
NtRp570
(dp571
g65
(dp572
sg74
g558
sg67
(lp573
g60
(g61
g62
NtRp574
(dp575
g65
(dp576
g73
I3
ssg74
g570
sg67
(lp577
S''
asbasbasbasbasbasbasbag60
(g76
g62
NtRp578
(dp579
g65
(dp580
sg74
g237
sg67
(lp581
g60
(g81
g62
NtRp582
(dp583
g65
(dp584
g85
g86
ssg74
g578
sg67
(lp585
S'session_id_desglosar_emails'
p586
asbag60
(g81
g62
NtRp587
(dp588
g65
(dp589
g92
g93
ssg74
g578
sg67
(lp590
S':'
asbag60
(g81
g62
NtRp591
(dp592
g65
(dp593
sg74
g578
sg67
(lp594
g60
(g61
g62
NtRp595
(dp596
g65
(dp597
g73
I4
ssg74
g591
sg67
(lp598
g60
(g69
g62
NtRp599
(dp600
g65
(dp601
g73
I3
ssg74
Nsg67
(lp602
g60
(g76
g62
NtRp603
(dp604
g65
(dp605
sg74
g599
sg67
(lp606
g60
(g81
g62
NtRp607
(dp608
g65
(dp609
g85
g86
ssg74
g603
sg67
(lp610
g274
asbag60
(g81
g62
NtRp611
(dp612
g65
(dp613
g92
g93
ssg74
g603
sg67
(lp614
S':'
asbag60
(g81
g62
NtRp615
(dp616
g65
(dp617
sg74
g603
sg67
(lp618
g60
(g61
g62
NtRp619
(dp620
g65
(dp621
g73
I3
ssg74
g615
sg67
(lp622
S''
asbasbasbag60
(g76
g62
NtRp623
(dp624
g65
(dp625
sg74
g599
sg67
(lp626
g60
(g81
g62
NtRp627
(dp628
g65
(dp629
g85
g86
ssg74
g623
sg67
(lp630
g295
asbag60
(g81
g62
NtRp631
(dp632
g65
(dp633
g92
g93
ssg74
g623
sg67
(lp634
S':'
asbag60
(g81
g62
NtRp635
(dp636
g65
(dp637
sg74
g623
sg67
(lp638
g60
(g61
g62
NtRp639
(dp640
g65
(dp641
g73
I3
ssg74
g635
sg67
(lp642
S''
asbasbasbag60
(g76
g62
NtRp643
(dp644
g65
(dp645
sg74
g599
sg67
(lp646
g60
(g81
g62
NtRp647
(dp648
g65
(dp649
g85
g86
ssg74
g643
sg67
(lp650
g316
asbag60
(g81
g62
NtRp651
(dp652
g65
(dp653
g92
g93
ssg74
g643
sg67
(lp654
S':'
asbag60
(g81
g62
NtRp655
(dp656
g65
(dp657
sg74
g643
sg67
(lp658
g60
(g61
g62
NtRp659
(dp660
g65
(dp661
g73
I3
ssg74
g655
sg67
(lp662
S''
asbasbasbag60
(g76
g62
NtRp663
(dp664
g65
(dp665
sg74
g599
sg67
(lp666
g60
(g81
g62
NtRp667
(dp668
g65
(dp669
g85
g86
ssg74
g663
sg67
(lp670
g337
asbag60
(g81
g62
NtRp671
(dp672
g65
(dp673
g92
g93
ssg74
g663
sg67
(lp674
S':'
asbag60
(g81
g62
NtRp675
(dp676
g65
(dp677
sg74
g663
sg67
(lp678
g60
(g61
g62
NtRp679
(dp680
g65
(dp681
g73
I3
ssg74
g675
sg67
(lp682
S''
asbasbasbag60
(g76
g62
NtRp683
(dp684
g65
(dp685
sg74
g599
sg67
(lp686
g60
(g81
g62
NtRp687
(dp688
g65
(dp689
g85
g86
ssg74
g683
sg67
(lp690
g358
asbag60
(g81
g62
NtRp691
(dp692
g65
(dp693
g92
g93
ssg74
g683
sg67
(lp694
S':'
asbag60
(g81
g62
NtRp695
(dp696
g65
(dp697
sg74
g683
sg67
(lp698
g60
(g61
g62
NtRp699
(dp700
g65
(dp701
g73
I3
ssg74
g695
sg67
(lp702
S''
asbasbasbag60
(g76
g62
NtRp703
(dp704
g65
(dp705
sg74
g599
sg67
(lp706
g60
(g81
g62
NtRp707
(dp708
g65
(dp709
g85
g86
ssg74
g703
sg67
(lp710
g379
asbag60
(g81
g62
NtRp711
(dp712
g65
(dp713
g92
g93
ssg74
g703
sg67
(lp714
S':'
asbag60
(g81
g62
NtRp715
(dp716
g65
(dp717
sg74
g703
sg67
(lp718
g60
(g61
g62
NtRp719
(dp720
g65
(dp721
g73
I3
ssg74
g715
sg67
(lp722
S''
asbasbasbag60
(g76
g62
NtRp723
(dp724
g65
(dp725
sg74
g599
sg67
(lp726
g60
(g81
g62
NtRp727
(dp728
g65
(dp729
g85
g86
ssg74
g723
sg67
(lp730
g400
asbag60
(g81
g62
NtRp731
(dp732
g65
(dp733
g92
g93
ssg74
g723
sg67
(lp734
S':'
asbag60
(g81
g62
NtRp735
(dp736
g65
(dp737
sg74
g723
sg67
(lp738
g60
(g61
g62
NtRp739
(dp740
g65
(dp741
g73
I3
ssg74
g735
sg67
(lp742
S''
asbasbasbasbasbasbasbag60
(g76
g62
NtRp743
(dp744
g65
(dp745
sg74
g237
sg67
(lp746
g60
(g81
g62
NtRp747
(dp748
g65
(dp749
g85
g86
ssg74
g743
sg67
(lp750
S'session_id_hemoal'
p751
asbag60
(g81
g62
NtRp752
(dp753
g65
(dp754
g92
g93
ssg74
g743
sg67
(lp755
S':'
asbag60
(g81
g62
NtRp756
(dp757
g65
(dp758
sg74
g743
sg67
(lp759
g60
(g61
g62
NtRp760
(dp761
g65
(dp762
g73
I4
ssg74
g756
sg67
(lp763
g60
(g69
g62
NtRp764
(dp765
g65
(dp766
g73
I3
ssg74
Nsg67
(lp767
g60
(g76
g62
NtRp768
(dp769
g65
(dp770
sg74
g764
sg67
(lp771
g60
(g81
g62
NtRp772
(dp773
g65
(dp774
g85
g86
ssg74
g768
sg67
(lp775
g274
asbag60
(g81
g62
NtRp776
(dp777
g65
(dp778
g92
g93
ssg74
g768
sg67
(lp779
S':'
asbag60
(g81
g62
NtRp780
(dp781
g65
(dp782
sg74
g768
sg67
(lp783
g60
(g61
g62
NtRp784
(dp785
g65
(dp786
g73
I3
ssg74
g780
sg67
(lp787
S''
asbasbasbag60
(g76
g62
NtRp788
(dp789
g65
(dp790
sg74
g764
sg67
(lp791
g60
(g81
g62
NtRp792
(dp793
g65
(dp794
g85
g86
ssg74
g788
sg67
(lp795
g295
asbag60
(g81
g62
NtRp796
(dp797
g65
(dp798
g92
g93
ssg74
g788
sg67
(lp799
S':'
asbag60
(g81
g62
NtRp800
(dp801
g65
(dp802
sg74
g788
sg67
(lp803
g60
(g61
g62
NtRp804
(dp805
g65
(dp806
g73
I3
ssg74
g800
sg67
(lp807
S''
asbasbasbag60
(g76
g62
NtRp808
(dp809
g65
(dp810
sg74
g764
sg67
(lp811
g60
(g81
g62
NtRp812
(dp813
g65
(dp814
g85
g86
ssg74
g808
sg67
(lp815
g316
asbag60
(g81
g62
NtRp816
(dp817
g65
(dp818
g92
g93
ssg74
g808
sg67
(lp819
S':'
asbag60
(g81
g62
NtRp820
(dp821
g65
(dp822
sg74
g808
sg67
(lp823
g60
(g61
g62
NtRp824
(dp825
g65
(dp826
g73
I3
ssg74
g820
sg67
(lp827
S''
asbasbasbag60
(g76
g62
NtRp828
(dp829
g65
(dp830
sg74
g764
sg67
(lp831
g60
(g81
g62
NtRp832
(dp833
g65
(dp834
g85
g86
ssg74
g828
sg67
(lp835
g337
asbag60
(g81
g62
NtRp836
(dp837
g65
(dp838
g92
g93
ssg74
g828
sg67
(lp839
S':'
asbag60
(g81
g62
NtRp840
(dp841
g65
(dp842
sg74
g828
sg67
(lp843
g60
(g61
g62
NtRp844
(dp845
g65
(dp846
g73
I3
ssg74
g840
sg67
(lp847
S''
asbasbasbag60
(g76
g62
NtRp848
(dp849
g65
(dp850
sg74
g764
sg67
(lp851
g60
(g81
g62
NtRp852
(dp853
g65
(dp854
g85
g86
ssg74
g848
sg67
(lp855
g358
asbag60
(g81
g62
NtRp856
(dp857
g65
(dp858
g92
g93
ssg74
g848
sg67
(lp859
S':'
asbag60
(g81
g62
NtRp860
(dp861
g65
(dp862
sg74
g848
sg67
(lp863
g60
(g61
g62
NtRp864
(dp865
g65
(dp866
g73
I3
ssg74
g860
sg67
(lp867
S''
asbasbasbag60
(g76
g62
NtRp868
(dp869
g65
(dp870
sg74
g764
sg67
(lp871
g60
(g81
g62
NtRp872
(dp873
g65
(dp874
g85
g86
ssg74
g868
sg67
(lp875
g379
asbag60
(g81
g62
NtRp876
(dp877
g65
(dp878
g92
g93
ssg74
g868
sg67
(lp879
S':'
asbag60
(g81
g62
NtRp880
(dp881
g65
(dp882
sg74
g868
sg67
(lp883
g60
(g61
g62
NtRp884
(dp885
g65
(dp886
g73
I3
ssg74
g880
sg67
(lp887
S''
asbasbasbag60
(g76
g62
NtRp888
(dp889
g65
(dp890
sg74
g764
sg67
(lp891
g60
(g81
g62
NtRp892
(dp893
g65
(dp894
g85
g86
ssg74
g888
sg67
(lp895
g400
asbag60
(g81
g62
NtRp896
(dp897
g65
(dp898
g92
g93
ssg74
g888
sg67
(lp899
S':'
asbag60
(g81
g62
NtRp900
(dp901
g65
(dp902
sg74
g888
sg67
(lp903
g60
(g61
g62
NtRp904
(dp905
g65
(dp906
g73
I3
ssg74
g900
sg67
(lp907
S''
asbasbasbasbasbasbasbag60
(g76
g62
NtRp908
(dp909
g65
(dp910
sg74
g237
sg67
(lp911
g60
(g81
g62
NtRp912
(dp913
g65
(dp914
g85
g86
ssg74
g908
sg67
(lp915
S'session_id_listado_1'
p916
asbag60
(g81
g62
NtRp917
(dp918
g65
(dp919
g92
g93
ssg74
g908
sg67
(lp920
S':'
asbag60
(g81
g62
NtRp921
(dp922
g65
(dp923
sg74
g908
sg67
(lp924
g60
(g61
g62
NtRp925
(dp926
g65
(dp927
g73
I4
ssg74
g921
sg67
(lp928
g60
(g69
g62
NtRp929
(dp930
g65
(dp931
g73
I3
ssg74
Nsg67
(lp932
g60
(g76
g62
NtRp933
(dp934
g65
(dp935
sg74
g929
sg67
(lp936
g60
(g81
g62
NtRp937
(dp938
g65
(dp939
g85
g86
ssg74
g933
sg67
(lp940
g274
asbag60
(g81
g62
NtRp941
(dp942
g65
(dp943
g92
g93
ssg74
g933
sg67
(lp944
S':'
asbag60
(g81
g62
NtRp945
(dp946
g65
(dp947
sg74
g933
sg67
(lp948
g60
(g61
g62
NtRp949
(dp950
g65
(dp951
g73
I3
ssg74
g945
sg67
(lp952
S''
asbasbasbag60
(g76
g62
NtRp953
(dp954
g65
(dp955
sg74
g929
sg67
(lp956
g60
(g81
g62
NtRp957
(dp958
g65
(dp959
g85
g86
ssg74
g953
sg67
(lp960
g295
asbag60
(g81
g62
NtRp961
(dp962
g65
(dp963
g92
g93
ssg74
g953
sg67
(lp964
S':'
asbag60
(g81
g62
NtRp965
(dp966
g65
(dp967
sg74
g953
sg67
(lp968
g60
(g61
g62
NtRp969
(dp970
g65
(dp971
g73
I3
ssg74
g965
sg67
(lp972
S''
asbasbasbag60
(g76
g62
NtRp973
(dp974
g65
(dp975
sg74
g929
sg67
(lp976
g60
(g81
g62
NtRp977
(dp978
g65
(dp979
g85
g86
ssg74
g973
sg67
(lp980
g316
asbag60
(g81
g62
NtRp981
(dp982
g65
(dp983
g92
g93
ssg74
g973
sg67
(lp984
S':'
asbag60
(g81
g62
NtRp985
(dp986
g65
(dp987
sg74
g973
sg67
(lp988
g60
(g61
g62
NtRp989
(dp990
g65
(dp991
g73
I3
ssg74
g985
sg67
(lp992
S''
asbasbasbag60
(g76
g62
NtRp993
(dp994
g65
(dp995
sg74
g929
sg67
(lp996
g60
(g81
g62
NtRp997
(dp998
g65
(dp999
g85
g86
ssg74
g993
sg67
(lp1000
g337
asbag60
(g81
g62
NtRp1001
(dp1002
g65
(dp1003
g92
g93
ssg74
g993
sg67
(lp1004
S':'
asbag60
(g81
g62
NtRp1005
(dp1006
g65
(dp1007
sg74
g993
sg67
(lp1008
g60
(g61
g62
NtRp1009
(dp1010
g65
(dp1011
g73
I3
ssg74
g1005
sg67
(lp1012
S''
asbasbasbag60
(g76
g62
NtRp1013
(dp1014
g65
(dp1015
sg74
g929
sg67
(lp1016
g60
(g81
g62
NtRp1017
(dp1018
g65
(dp1019
g85
g86
ssg74
g1013
sg67
(lp1020
g358
asbag60
(g81
g62
NtRp1021
(dp1022
g65
(dp1023
g92
g93
ssg74
g1013
sg67
(lp1024
S':'
asbag60
(g81
g62
NtRp1025
(dp1026
g65
(dp1027
sg74
g1013
sg67
(lp1028
g60
(g61
g62
NtRp1029
(dp1030
g65
(dp1031
g73
I3
ssg74
g1025
sg67
(lp1032
S''
asbasbasbag60
(g76
g62
NtRp1033
(dp1034
g65
(dp1035
sg74
g929
sg67
(lp1036
g60
(g81
g62
NtRp1037
(dp1038
g65
(dp1039
g85
g86
ssg74
g1033
sg67
(lp1040
g379
asbag60
(g81
g62
NtRp1041
(dp1042
g65
(dp1043
g92
g93
ssg74
g1033
sg67
(lp1044
S':'
asbag60
(g81
g62
NtRp1045
(dp1046
g65
(dp1047
sg74
g1033
sg67
(lp1048
g60
(g61
g62
NtRp1049
(dp1050
g65
(dp1051
g73
I3
ssg74
g1045
sg67
(lp1052
S''
asbasbasbag60
(g76
g62
NtRp1053
(dp1054
g65
(dp1055
sg74
g929
sg67
(lp1056
g60
(g81
g62
NtRp1057
(dp1058
g65
(dp1059
g85
g86
ssg74
g1053
sg67
(lp1060
g400
asbag60
(g81
g62
NtRp1061
(dp1062
g65
(dp1063
g92
g93
ssg74
g1053
sg67
(lp1064
S':'
asbag60
(g81
g62
NtRp1065
(dp1066
g65
(dp1067
sg74
g1053
sg67
(lp1068
g60
(g61
g62
NtRp1069
(dp1070
g65
(dp1071
g73
I3
ssg74
g1065
sg67
(lp1072
S''
asbasbasbasbasbasbasbag60
(g76
g62
NtRp1073
(dp1074
g65
(dp1075
sg74
g237
sg67
(lp1076
g60
(g81
g62
NtRp1077
(dp1078
g65
(dp1079
g85
g86
ssg74
g1073
sg67
(lp1080
S'session_id_myappjav'
p1081
asbag60
(g81
g62
NtRp1082
(dp1083
g65
(dp1084
g92
g93
ssg74
g1073
sg67
(lp1085
S':'
asbag60
(g81
g62
NtRp1086
(dp1087
g65
(dp1088
sg74
g1073
sg67
(lp1089
g60
(g61
g62
NtRp1090
(dp1091
g65
(dp1092
g73
I4
ssg74
g1086
sg67
(lp1093
g60
(g69
g62
NtRp1094
(dp1095
g65
(dp1096
g73
I3
ssg74
Nsg67
(lp1097
g60
(g76
g62
NtRp1098
(dp1099
g65
(dp1100
sg74
g1094
sg67
(lp1101
g60
(g81
g62
NtRp1102
(dp1103
g65
(dp1104
g85
g86
ssg74
g1098
sg67
(lp1105
g274
asbag60
(g81
g62
NtRp1106
(dp1107
g65
(dp1108
g92
g93
ssg74
g1098
sg67
(lp1109
S':'
asbag60
(g81
g62
NtRp1110
(dp1111
g65
(dp1112
sg74
g1098
sg67
(lp1113
g60
(g61
g62
NtRp1114
(dp1115
g65
(dp1116
g73
I3
ssg74
g1110
sg67
(lp1117
S''
asbasbasbag60
(g76
g62
NtRp1118
(dp1119
g65
(dp1120
sg74
g1094
sg67
(lp1121
g60
(g81
g62
NtRp1122
(dp1123
g65
(dp1124
g85
g86
ssg74
g1118
sg67
(lp1125
g295
asbag60
(g81
g62
NtRp1126
(dp1127
g65
(dp1128
g92
g93
ssg74
g1118
sg67
(lp1129
S':'
asbag60
(g81
g62
NtRp1130
(dp1131
g65
(dp1132
sg74
g1118
sg67
(lp1133
g60
(g61
g62
NtRp1134
(dp1135
g65
(dp1136
g73
I3
ssg74
g1130
sg67
(lp1137
S''
asbasbasbag60
(g76
g62
NtRp1138
(dp1139
g65
(dp1140
sg74
g1094
sg67
(lp1141
g60
(g81
g62
NtRp1142
(dp1143
g65
(dp1144
g85
g86
ssg74
g1138
sg67
(lp1145
g316
asbag60
(g81
g62
NtRp1146
(dp1147
g65
(dp1148
g92
g93
ssg74
g1138
sg67
(lp1149
S':'
asbag60
(g81
g62
NtRp1150
(dp1151
g65
(dp1152
sg74
g1138
sg67
(lp1153
g60
(g61
g62
NtRp1154
(dp1155
g65
(dp1156
g73
I3
ssg74
g1150
sg67
(lp1157
S''
asbasbasbag60
(g76
g62
NtRp1158
(dp1159
g65
(dp1160
sg74
g1094
sg67
(lp1161
g60
(g81
g62
NtRp1162
(dp1163
g65
(dp1164
g85
g86
ssg74
g1158
sg67
(lp1165
g337
asbag60
(g81
g62
NtRp1166
(dp1167
g65
(dp1168
g92
g93
ssg74
g1158
sg67
(lp1169
S':'
asbag60
(g81
g62
NtRp1170
(dp1171
g65
(dp1172
sg74
g1158
sg67
(lp1173
g60
(g61
g62
NtRp1174
(dp1175
g65
(dp1176
g73
I3
ssg74
g1170
sg67
(lp1177
S''
asbasbasbag60
(g76
g62
NtRp1178
(dp1179
g65
(dp1180
sg74
g1094
sg67
(lp1181
g60
(g81
g62
NtRp1182
(dp1183
g65
(dp1184
g85
g86
ssg74
g1178
sg67
(lp1185
g358
asbag60
(g81
g62
NtRp1186
(dp1187
g65
(dp1188
g92
g93
ssg74
g1178
sg67
(lp1189
S':'
asbag60
(g81
g62
NtRp1190
(dp1191
g65
(dp1192
sg74
g1178
sg67
(lp1193
g60
(g61
g62
NtRp1194
(dp1195
g65
(dp1196
g73
I3
ssg74
g1190
sg67
(lp1197
S''
asbasbasbag60
(g76
g62
NtRp1198
(dp1199
g65
(dp1200
sg74
g1094
sg67
(lp1201
g60
(g81
g62
NtRp1202
(dp1203
g65
(dp1204
g85
g86
ssg74
g1198
sg67
(lp1205
g379
asbag60
(g81
g62
NtRp1206
(dp1207
g65
(dp1208
g92
g93
ssg74
g1198
sg67
(lp1209
S':'
asbag60
(g81
g62
NtRp1210
(dp1211
g65
(dp1212
sg74
g1198
sg67
(lp1213
g60
(g61
g62
NtRp1214
(dp1215
g65
(dp1216
g73
I3
ssg74
g1210
sg67
(lp1217
S''
asbasbasbag60
(g76
g62
NtRp1218
(dp1219
g65
(dp1220
sg74
g1094
sg67
(lp1221
g60
(g81
g62
NtRp1222
(dp1223
g65
(dp1224
g85
g86
ssg74
g1218
sg67
(lp1225
g400
asbag60
(g81
g62
NtRp1226
(dp1227
g65
(dp1228
g92
g93
ssg74
g1218
sg67
(lp1229
S':'
asbag60
(g81
g62
NtRp1230
(dp1231
g65
(dp1232
sg74
g1218
sg67
(lp1233
g60
(g61
g62
NtRp1234
(dp1235
g65
(dp1236
g73
I3
ssg74
g1230
sg67
(lp1237
S''
asbasbasbasbasbasbasbag60
(g76
g62
NtRp1238
(dp1239
g65
(dp1240
sg74
g237
sg67
(lp1241
g60
(g81
g62
NtRp1242
(dp1243
g65
(dp1244
g85
g86
ssg74
g1238
sg67
(lp1245
S'session_id_welcome'
p1246
asbag60
(g81
g62
NtRp1247
(dp1248
g65
(dp1249
g92
g93
ssg74
g1238
sg67
(lp1250
S':'
asbag60
(g81
g62
NtRp1251
(dp1252
g65
(dp1253
sg74
g1238
sg67
(lp1254
g60
(g61
g62
NtRp1255
(dp1256
g65
(dp1257
g73
I4
ssg74
g1251
sg67
(lp1258
g60
(g69
g62
NtRp1259
(dp1260
g65
(dp1261
g73
I3
ssg74
Nsg67
(lp1262
g60
(g76
g62
NtRp1263
(dp1264
g65
(dp1265
sg74
g1259
sg67
(lp1266
g60
(g81
g62
NtRp1267
(dp1268
g65
(dp1269
g85
g86
ssg74
g1263
sg67
(lp1270
g274
asbag60
(g81
g62
NtRp1271
(dp1272
g65
(dp1273
g92
g93
ssg74
g1263
sg67
(lp1274
S':'
asbag60
(g81
g62
NtRp1275
(dp1276
g65
(dp1277
sg74
g1263
sg67
(lp1278
g60
(g61
g62
NtRp1279
(dp1280
g65
(dp1281
g73
I3
ssg74
g1275
sg67
(lp1282
S''
asbasbasbag60
(g76
g62
NtRp1283
(dp1284
g65
(dp1285
sg74
g1259
sg67
(lp1286
g60
(g81
g62
NtRp1287
(dp1288
g65
(dp1289
g85
g86
ssg74
g1283
sg67
(lp1290
g295
asbag60
(g81
g62
NtRp1291
(dp1292
g65
(dp1293
g92
g93
ssg74
g1283
sg67
(lp1294
S':'
asbag60
(g81
g62
NtRp1295
(dp1296
g65
(dp1297
sg74
g1283
sg67
(lp1298
g60
(g61
g62
NtRp1299
(dp1300
g65
(dp1301
g73
I3
ssg74
g1295
sg67
(lp1302
S''
asbasbasbag60
(g76
g62
NtRp1303
(dp1304
g65
(dp1305
sg74
g1259
sg67
(lp1306
g60
(g81
g62
NtRp1307
(dp1308
g65
(dp1309
g85
g86
ssg74
g1303
sg67
(lp1310
g316
asbag60
(g81
g62
NtRp1311
(dp1312
g65
(dp1313
g92
g93
ssg74
g1303
sg67
(lp1314
S':'
asbag60
(g81
g62
NtRp1315
(dp1316
g65
(dp1317
sg74
g1303
sg67
(lp1318
g60
(g61
g62
NtRp1319
(dp1320
g65
(dp1321
g73
I3
ssg74
g1315
sg67
(lp1322
S''
asbasbasbag60
(g76
g62
NtRp1323
(dp1324
g65
(dp1325
sg74
g1259
sg67
(lp1326
g60
(g81
g62
NtRp1327
(dp1328
g65
(dp1329
g85
g86
ssg74
g1323
sg67
(lp1330
g337
asbag60
(g81
g62
NtRp1331
(dp1332
g65
(dp1333
g92
g93
ssg74
g1323
sg67
(lp1334
S':'
asbag60
(g81
g62
NtRp1335
(dp1336
g65
(dp1337
sg74
g1323
sg67
(lp1338
g60
(g61
g62
NtRp1339
(dp1340
g65
(dp1341
g73
I3
ssg74
g1335
sg67
(lp1342
S''
asbasbasbag60
(g76
g62
NtRp1343
(dp1344
g65
(dp1345
sg74
g1259
sg67
(lp1346
g60
(g81
g62
NtRp1347
(dp1348
g65
(dp1349
g85
g86
ssg74
g1343
sg67
(lp1350
g358
asbag60
(g81
g62
NtRp1351
(dp1352
g65
(dp1353
g92
g93
ssg74
g1343
sg67
(lp1354
S':'
asbag60
(g81
g62
NtRp1355
(dp1356
g65
(dp1357
sg74
g1343
sg67
(lp1358
g60
(g61
g62
NtRp1359
(dp1360
g65
(dp1361
g73
I3
ssg74
g1355
sg67
(lp1362
S''
asbasbasbag60
(g76
g62
NtRp1363
(dp1364
g65
(dp1365
sg74
g1259
sg67
(lp1366
g60
(g81
g62
NtRp1367
(dp1368
g65
(dp1369
g85
g86
ssg74
g1363
sg67
(lp1370
g379
asbag60
(g81
g62
NtRp1371
(dp1372
g65
(dp1373
g92
g93
ssg74
g1363
sg67
(lp1374
S':'
asbag60
(g81
g62
NtRp1375
(dp1376
g65
(dp1377
sg74
g1363
sg67
(lp1378
g60
(g61
g62
NtRp1379
(dp1380
g65
(dp1381
g73
I3
ssg74
g1375
sg67
(lp1382
S''
asbasbasbag60
(g76
g62
NtRp1383
(dp1384
g65
(dp1385
sg74
g1259
sg67
(lp1386
g60
(g81
g62
NtRp1387
(dp1388
g65
(dp1389
g85
g86
ssg74
g1383
sg67
(lp1390
g400
asbag60
(g81
g62
NtRp1391
(dp1392
g65
(dp1393
g92
g93
ssg74
g1383
sg67
(lp1394
S':'
asbag60
(g81
g62
NtRp1395
(dp1396
g65
(dp1397
sg74
g1383
sg67
(lp1398
g60
(g61
g62
NtRp1399
(dp1400
g65
(dp1401
g73
I3
ssg74
g1395
sg67
(lp1402
S''
asbasbasbasbasbasbasbasbasbasbasbag60
(g76
g62
NtRp1403
(dp1404
g65
(dp1405
sg74
g70
sg67
(lp1406
g60
(g81
g62
NtRp1407
(dp1408
g65
(dp1409
g85
g86
ssg74
g1403
sg67
(lp1410
S'env'
p1411
asbag60
(g81
g62
NtRp1412
(dp1413
g65
(dp1414
g92
g93
ssg74
g1403
sg67
(lp1415
S':'
asbag60
(g81
g62
NtRp1416
(dp1417
g65
(dp1418
sg74
g1403
sg67
(lp1419
g60
(g61
g62
NtRp1420
(dp1421
g65
(dp1422
g73
I5
ssg74
g1416
sg67
(lp1423
g60
(g69
g62
NtRp1424
(dp1425
g65
(dp1426
g73
I4
ssg74
Nsg67
(lp1427
g60
(g76
g62
NtRp1428
(dp1429
g65
(dp1430
sg74
g1424
sg67
(lp1431
g60
(g81
g62
NtRp1432
(dp1433
g65
(dp1434
g85
g86
ssg74
g1428
sg67
(lp1435
S'app_folders'
p1436
asbag60
(g81
g62
NtRp1437
(dp1438
g65
(dp1439
g92
g93
ssg74
g1428
sg67
(lp1440
S':'
asbag60
(g81
g62
NtRp1441
(dp1442
g65
(dp1443
sg74
g1428
sg67
(lp1444
g60
(g61
g62
NtRp1445
(dp1446
g65
(dp1447
g73
I4
ssg74
g1441
sg67
(lp1448
S"set(['C:\\\\Users\\\\Atomico\\\\web2py\\\\applications\\\\Desglosar_Emails\\\\', 'C:\\\\Users\\\\Atomico\\\\web2py\\\\applications\\\\Cual_es_tu_nombre\\\\', 'C:\\\\Users\\\\Atomico\\\\web2py\\\\applications\\\\admin\\\\', 'C:\\\\Users\\\\Atomico\\\\web2py\\\\applications\\\\hemoal\\\\', 'C:\\\\Users\\\\Atomico\\\\web2py\\\\applications\\\\myAppJav\\\\', 'C:\\\\Users\\\\Atomico\\\\web2py\\\\applications\\\\welcome\\\\', 'C:\\\\Users\\\\Atomico\\\\web2py\\\\applications\\\\examples\\\\'])"
p1449
asbasbasbag60
(g76
g62
NtRp1450
(dp1451
g65
(dp1452
sg74
g1424
sg67
(lp1453
g60
(g81
g62
NtRp1454
(dp1455
g65
(dp1456
g85
g86
ssg74
g1450
sg67
(lp1457
S'applications_parent'
p1458
asbag60
(g81
g62
NtRp1459
(dp1460
g65
(dp1461
g92
g93
ssg74
g1450
sg67
(lp1462
S':'
asbag60
(g81
g62
NtRp1463
(dp1464
g65
(dp1465
sg74
g1450
sg67
(lp1466
g60
(g61
g62
NtRp1467
(dp1468
g65
(dp1469
g73
I4
ssg74
g1463
sg67
(lp1470
S'C:\\Users\\Atomico\\web2py'
p1471
asbasbasbag60
(g76
g62
NtRp1472
(dp1473
g65
(dp1474
sg74
g1424
sg67
(lp1475
g60
(g81
g62
NtRp1476
(dp1477
g65
(dp1478
g85
g86
ssg74
g1472
sg67
(lp1479
S'cmd_args'
p1480
asbag60
(g81
g62
NtRp1481
(dp1482
g65
(dp1483
g92
g93
ssg74
g1472
sg67
(lp1484
S':'
asbag60
(g81
g62
NtRp1485
(dp1486
g65
(dp1487
sg74
g1472
sg67
(lp1488
g60
(g61
g62
NtRp1489
(dp1490
g65
(dp1491
g73
I4
ssg74
g1485
sg67
(lp1492
g60
(g69
g62
NtRp1493
(dp1494
g65
(dp1495
g73
I3
ssg74
Nsg67
(lp1496
sbasbasbasbag60
(g76
g62
NtRp1497
(dp1498
g65
(dp1499
sg74
g1424
sg67
(lp1500
g60
(g81
g62
NtRp1501
(dp1502
g65
(dp1503
g85
g86
ssg74
g1497
sg67
(lp1504
S'cmd_options'
p1505
asbag60
(g81
g62
NtRp1506
(dp1507
g65
(dp1508
g92
g93
ssg74
g1497
sg67
(lp1509
S':'
asbag60
(g81
g62
NtRp1510
(dp1511
g65
(dp1512
sg74
g1497
sg67
(lp1513
g60
(g61
g62
NtRp1514
(dp1515
g65
(dp1516
g73
I4
ssg74
g1510
sg67
(lp1517
S"<Values at 0x306b620: {'verbose': False, 'ip': '127.0.0.1', 'shutdown_timeout': 5, 'taskbar': False, 'port': 8000, 'maxthreads': None, 'softcron': False, 'server_name': 'Swing', 'bpython': False, 'nogui': False, 'nocron': False, 'extcron': False, 'debuglevel': 30, 'test': None, 'folder': 'C:\\\\Users\\\\Atomico\\\\web2py', 'config': '', 'import_models': False, 'winservice': '', 'shell': None, 'run': '', 'log_filename': 'httpserver.log', 'args': [''], 'profiler_filename': None, 'ssl_private_key': '', 'password': '<ask>', 'request_queue_size': 5, 'ssl_certificate': '', 'cronjob': False, 'plain': False, 'quiet': False, 'interfaces': None, 'minthreads': None, 'timeout': 10, 'numthreads': None, 'nobanner': False, 'pid_filename': 'httpserver.pid'}>"
p1518
asbasbasbag60
(g76
g62
NtRp1519
(dp1520
g65
(dp1521
sg74
g1424
sg67
(lp1522
g60
(g81
g62
NtRp1523
(dp1524
g65
(dp1525
g85
g86
ssg74
g1519
sg67
(lp1526
S'db_sessions'
p1527
asbag60
(g81
g62
NtRp1528
(dp1529
g65
(dp1530
g92
g93
ssg74
g1519
sg67
(lp1531
S':'
asbag60
(g81
g62
NtRp1532
(dp1533
g65
(dp1534
sg74
g1519
sg67
(lp1535
g60
(g61
g62
NtRp1536
(dp1537
g65
(dp1538
g73
I4
ssg74
g1532
sg67
(lp1539
S'set([])'
p1540
asbasbasbag60
(g76
g62
NtRp1541
(dp1542
g65
(dp1543
sg74
g1424
sg67
(lp1544
g60
(g81
g62
NtRp1545
(dp1546
g65
(dp1547
g85
g86
ssg74
g1541
sg67
(lp1548
S'debugging'
p1549
asbag60
(g81
g62
NtRp1550
(dp1551
g65
(dp1552
g92
g93
ssg74
g1541
sg67
(lp1553
S':'
asbag60
(g81
g62
NtRp1554
(dp1555
g65
(dp1556
sg74
g1541
sg67
(lp1557
g60
(g61
g62
NtRp1558
(dp1559
g65
(dp1560
g73
I4
ssg74
g1554
sg67
(lp1561
g103
asbasbasbag60
(g76
g62
NtRp1562
(dp1563
g65
(dp1564
sg74
g1424
sg67
(lp1565
g60
(g81
g62
NtRp1566
(dp1567
g65
(dp1568
g85
g86
ssg74
g1562
sg67
(lp1569
S'gluon_parent'
p1570
asbag60
(g81
g62
NtRp1571
(dp1572
g65
(dp1573
g92
g93
ssg74
g1562
sg67
(lp1574
S':'
asbag60
(g81
g62
NtRp1575
(dp1576
g65
(dp1577
sg74
g1562
sg67
(lp1578
g60
(g61
g62
NtRp1579
(dp1580
g65
(dp1581
g73
I4
ssg74
g1575
sg67
(lp1582
S'C:\\Users\\Atomico\\web2py'
p1583
asbasbasbag60
(g76
g62
NtRp1584
(dp1585
g65
(dp1586
sg74
g1424
sg67
(lp1587
g60
(g81
g62
NtRp1588
(dp1589
g65
(dp1590
g85
g86
ssg74
g1584
sg67
(lp1591
S'http_accept'
p1592
asbag60
(g81
g62
NtRp1593
(dp1594
g65
(dp1595
g92
g93
ssg74
g1584
sg67
(lp1596
S':'
asbag60
(g81
g62
NtRp1597
(dp1598
g65
(dp1599
sg74
g1584
sg67
(lp1600
g60
(g61
g62
NtRp1601
(dp1602
g65
(dp1603
g73
I4
ssg74
g1597
sg67
(lp1604
S'text/html,application/xhtml+xml,application/xml;q=0.9,*/*;q=0.8'
p1605
asbasbasbag60
(g76
g62
NtRp1606
(dp1607
g65
(dp1608
sg74
g1424
sg67
(lp1609
g60
(g81
g62
NtRp1610
(dp1611
g65
(dp1612
g85
g86
ssg74
g1606
sg67
(lp1613
S'http_accept_charset'
p1614
asbag60
(g81
g62
NtRp1615
(dp1616
g65
(dp1617
g92
g93
ssg74
g1606
sg67
(lp1618
S':'
asbag60
(g81
g62
NtRp1619
(dp1620
g65
(dp1621
sg74
g1606
sg67
(lp1622
g60
(g61
g62
NtRp1623
(dp1624
g65
(dp1625
g73
I4
ssg74
g1619
sg67
(lp1626
S'ISO-8859-1,utf-8;q=0.7,*;q=0.7'
p1627
asbasbasbag60
(g76
g62
NtRp1628
(dp1629
g65
(dp1630
sg74
g1424
sg67
(lp1631
g60
(g81
g62
NtRp1632
(dp1633
g65
(dp1634
g85
g86
ssg74
g1628
sg67
(lp1635
S'http_accept_encoding'
p1636
asbag60
(g81
g62
NtRp1637
(dp1638
g65
(dp1639
g92
g93
ssg74
g1628
sg67
(lp1640
S':'
asbag60
(g81
g62
NtRp1641
(dp1642
g65
(dp1643
sg74
g1628
sg67
(lp1644
g60
(g61
g62
NtRp1645
(dp1646
g65
(dp1647
g73
I4
ssg74
g1641
sg67
(lp1648
S'gzip, deflate'
p1649
asbasbasbag60
(g76
g62
NtRp1650
(dp1651
g65
(dp1652
sg74
g1424
sg67
(lp1653
g60
(g81
g62
NtRp1654
(dp1655
g65
(dp1656
g85
g86
ssg74
g1650
sg67
(lp1657
S'http_accept_language'
p1658
asbag60
(g81
g62
NtRp1659
(dp1660
g65
(dp1661
g92
g93
ssg74
g1650
sg67
(lp1662
S':'
asbag60
(g81
g62
NtRp1663
(dp1664
g65
(dp1665
sg74
g1650
sg67
(lp1666
g60
(g61
g62
NtRp1667
(dp1668
g65
(dp1669
g73
I4
ssg74
g1663
sg67
(lp1670
S'es-es,es;q=0.8,en-us;q=0.5,en;q=0.3'
p1671
asbasbasbag60
(g76
g62
NtRp1672
(dp1673
g65
(dp1674
sg74
g1424
sg67
(lp1675
g60
(g81
g62
NtRp1676
(dp1677
g65
(dp1678
g85
g86
ssg74
g1672
sg67
(lp1679
S'http_connection'
p1680
asbag60
(g81
g62
NtRp1681
(dp1682
g65
(dp1683
g92
g93
ssg74
g1672
sg67
(lp1684
S':'
asbag60
(g81
g62
NtRp1685
(dp1686
g65
(dp1687
sg74
g1672
sg67
(lp1688
g60
(g61
g62
NtRp1689
(dp1690
g65
(dp1691
g73
I4
ssg74
g1685
sg67
(lp1692
S'keep-alive'
p1693
asbasbasbag60
(g76
g62
NtRp1694
(dp1695
g65
(dp1696
sg74
g1424
sg67
(lp1697
g60
(g81
g62
NtRp1698
(dp1699
g65
(dp1700
g85
g86
ssg74
g1694
sg67
(lp1701
S'http_cookie'
p1702
asbag60
(g81
g62
NtRp1703
(dp1704
g65
(dp1705
g92
g93
ssg74
g1694
sg67
(lp1706
S':'
asbag60
(g81
g62
NtRp1707
(dp1708
g65
(dp1709
sg74
g1694
sg67
(lp1710
g60
(g61
g62
NtRp1711
(dp1712
g65
(dp1713
g73
I4
ssg74
g1707
sg67
(lp1714
S'session_id_welcome=127.0.0.1-082a2830-9bb6-4bfb-b2e2-4857b06c191e; session_id_admin=127.0.0.1-a96e0cfe-5117-4d37-8e25-f7dd128ab504; session_id_listado_1=127.0.0.1-477ec098-5436-4f6e-bfee-1a0bd88f6f9e; session_id_desglosar_emails=127.0.0.1-0a11b3b2-660c-433c-b71f-fc129286f26c; session_id_hemoal=127.0.0.1-442afb36-a73d-4692-979c-372017ada9e5; session_id_myappjav=127.0.0.1-b6da3776-a7b2-40a7-ab82-4eca2d3263a1; session_id_cual_es_tu_nombre=127.0.0.1-5e59e375-704d-4241-8b9c-5fd9f8c15773'
p1715
asbasbasbag60
(g76
g62
NtRp1716
(dp1717
g65
(dp1718
sg74
g1424
sg67
(lp1719
g60
(g81
g62
NtRp1720
(dp1721
g65
(dp1722
g85
g86
ssg74
g1716
sg67
(lp1723
S'http_host'
p1724
asbag60
(g81
g62
NtRp1725
(dp1726
g65
(dp1727
g92
g93
ssg74
g1716
sg67
(lp1728
S':'
asbag60
(g81
g62
NtRp1729
(dp1730
g65
(dp1731
sg74
g1716
sg67
(lp1732
g60
(g61
g62
NtRp1733
(dp1734
g65
(dp1735
g73
I4
ssg74
g1729
sg67
(lp1736
S'127.0.0.1:8000'
p1737
asbasbasbag60
(g76
g62
NtRp1738
(dp1739
g65
(dp1740
sg74
g1424
sg67
(lp1741
g60
(g81
g62
NtRp1742
(dp1743
g65
(dp1744
g85
g86
ssg74
g1738
sg67
(lp1745
S'http_referer'
p1746
asbag60
(g81
g62
NtRp1747
(dp1748
g65
(dp1749
g92
g93
ssg74
g1738
sg67
(lp1750
S':'
asbag60
(g81
g62
NtRp1751
(dp1752
g65
(dp1753
sg74
g1738
sg67
(lp1754
g60
(g61
g62
NtRp1755
(dp1756
g65
(dp1757
g73
I4
ssg74
g1751
sg67
(lp1758
S'http://127.0.0.1:8000/admin/default/design/Desglosar_Emails'
p1759
asbasbasbag60
(g76
g62
NtRp1760
(dp1761
g65
(dp1762
sg74
g1424
sg67
(lp1763
g60
(g81
g62
NtRp1764
(dp1765
g65
(dp1766
g85
g86
ssg74
g1760
sg67
(lp1767
S'http_user_agent'
p1768
asbag60
(g81
g62
NtRp1769
(dp1770
g65
(dp1771
g92
g93
ssg74
g1760
sg67
(lp1772
S':'
asbag60
(g81
g62
NtRp1773
(dp1774
g65
(dp1775
sg74
g1760
sg67
(lp1776
g60
(g61
g62
NtRp1777
(dp1778
g65
(dp1779
g73
I4
ssg74
g1773
sg67
(lp1780
S'Mozilla/5.0 (Windows NT 6.1; WOW64; rv:6.0.2) Gecko/20100101 Firefox/6.0.2'
p1781
asbasbasbag60
(g76
g62
NtRp1782
(dp1783
g65
(dp1784
sg74
g1424
sg67
(lp1785
g60
(g81
g62
NtRp1786
(dp1787
g65
(dp1788
g85
g86
ssg74
g1782
sg67
(lp1789
S'is_jython'
p1790
asbag60
(g81
g62
NtRp1791
(dp1792
g65
(dp1793
g92
g93
ssg74
g1782
sg67
(lp1794
S':'
asbag60
(g81
g62
NtRp1795
(dp1796
g65
(dp1797
sg74
g1782
sg67
(lp1798
g60
(g61
g62
NtRp1799
(dp1800
g65
(dp1801
g73
I4
ssg74
g1795
sg67
(lp1802
g103
asbasbasbag60
(g76
g62
NtRp1803
(dp1804
g65
(dp1805
sg74
g1424
sg67
(lp1806
g60
(g81
g62
NtRp1807
(dp1808
g65
(dp1809
g85
g86
ssg74
g1803
sg67
(lp1810
S'path_info'
p1811
asbag60
(g81
g62
NtRp1812
(dp1813
g65
(dp1814
g92
g93
ssg74
g1803
sg67
(lp1815
S':'
asbag60
(g81
g62
NtRp1816
(dp1817
g65
(dp1818
sg74
g1803
sg67
(lp1819
g60
(g61
g62
NtRp1820
(dp1821
g65
(dp1822
g73
I4
ssg74
g1816
sg67
(lp1823
S'/Desglosar_Emails/default/index'
p1824
asbasbasbag60
(g76
g62
NtRp1825
(dp1826
g65
(dp1827
sg74
g1424
sg67
(lp1828
g60
(g81
g62
NtRp1829
(dp1830
g65
(dp1831
g85
g86
ssg74
g1825
sg67
(lp1832
S'query_string'
p1833
asbag60
(g81
g62
NtRp1834
(dp1835
g65
(dp1836
g92
g93
ssg74
g1825
sg67
(lp1837
S':'
asbag60
(g81
g62
NtRp1838
(dp1839
g65
(dp1840
sg74
g1825
sg67
(lp1841
g60
(g61
g62
NtRp1842
(dp1843
g65
(dp1844
g73
I4
ssg74
g1838
sg67
(lp1845
S''
asbasbasbag60
(g76
g62
NtRp1846
(dp1847
g65
(dp1848
sg74
g1424
sg67
(lp1849
g60
(g81
g62
NtRp1850
(dp1851
g65
(dp1852
g85
g86
ssg74
g1846
sg67
(lp1853
S'remote_addr'
p1854
asbag60
(g81
g62
NtRp1855
(dp1856
g65
(dp1857
g92
g93
ssg74
g1846
sg67
(lp1858
S':'
asbag60
(g81
g62
NtRp1859
(dp1860
g65
(dp1861
sg74
g1846
sg67
(lp1862
g60
(g61
g62
NtRp1863
(dp1864
g65
(dp1865
g73
I4
ssg74
g1859
sg67
(lp1866
g193
asbasbasbag60
(g76
g62
NtRp1867
(dp1868
g65
(dp1869
sg74
g1424
sg67
(lp1870
g60
(g81
g62
NtRp1871
(dp1872
g65
(dp1873
g85
g86
ssg74
g1867
sg67
(lp1874
S'remote_port'
p1875
asbag60
(g81
g62
NtRp1876
(dp1877
g65
(dp1878
g92
g93
ssg74
g1867
sg67
(lp1879
S':'
asbag60
(g81
g62
NtRp1880
(dp1881
g65
(dp1882
sg74
g1867
sg67
(lp1883
g60
(g61
g62
NtRp1884
(dp1885
g65
(dp1886
g73
I4
ssg74
g1880
sg67
(lp1887
S'52589'
p1888
asbasbasbag60
(g76
g62
NtRp1889
(dp1890
g65
(dp1891
sg74
g1424
sg67
(lp1892
g60
(g81
g62
NtRp1893
(dp1894
g65
(dp1895
g85
g86
ssg74
g1889
sg67
(lp1896
S'request_method'
p1897
asbag60
(g81
g62
NtRp1898
(dp1899
g65
(dp1900
g92
g93
ssg74
g1889
sg67
(lp1901
S':'
asbag60
(g81
g62
NtRp1902
(dp1903
g65
(dp1904
sg74
g1889
sg67
(lp1905
g60
(g61
g62
NtRp1906
(dp1907
g65
(dp1908
g73
I4
ssg74
g1902
sg67
(lp1909
S'GET'
p1910
asbasbasbag60
(g76
g62
NtRp1911
(dp1912
g65
(dp1913
sg74
g1424
sg67
(lp1914
g60
(g81
g62
NtRp1915
(dp1916
g65
(dp1917
g85
g86
ssg74
g1911
sg67
(lp1918
S'script_name'
p1919
asbag60
(g81
g62
NtRp1920
(dp1921
g65
(dp1922
g92
g93
ssg74
g1911
sg67
(lp1923
S':'
asbag60
(g81
g62
NtRp1924
(dp1925
g65
(dp1926
sg74
g1911
sg67
(lp1927
g60
(g61
g62
NtRp1928
(dp1929
g65
(dp1930
g73
I4
ssg74
g1924
sg67
(lp1931
S''
asbasbasbag60
(g76
g62
NtRp1932
(dp1933
g65
(dp1934
sg74
g1424
sg67
(lp1935
g60
(g81
g62
NtRp1936
(dp1937
g65
(dp1938
g85
g86
ssg74
g1932
sg67
(lp1939
S'server_name'
p1940
asbag60
(g81
g62
NtRp1941
(dp1942
g65
(dp1943
g92
g93
ssg74
g1932
sg67
(lp1944
S':'
asbag60
(g81
g62
NtRp1945
(dp1946
g65
(dp1947
sg74
g1932
sg67
(lp1948
g60
(g61
g62
NtRp1949
(dp1950
g65
(dp1951
g73
I4
ssg74
g1945
sg67
(lp1952
S'Swing'
p1953
asbasbasbag60
(g76
g62
NtRp1954
(dp1955
g65
(dp1956
sg74
g1424
sg67
(lp1957
g60
(g81
g62
NtRp1958
(dp1959
g65
(dp1960
g85
g86
ssg74
g1954
sg67
(lp1961
S'server_port'
p1962
asbag60
(g81
g62
NtRp1963
(dp1964
g65
(dp1965
g92
g93
ssg74
g1954
sg67
(lp1966
S':'
asbag60
(g81
g62
NtRp1967
(dp1968
g65
(dp1969
sg74
g1954
sg67
(lp1970
g60
(g61
g62
NtRp1971
(dp1972
g65
(dp1973
g73
I4
ssg74
g1967
sg67
(lp1974
S'8000'
p1975
asbasbasbag60
(g76
g62
NtRp1976
(dp1977
g65
(dp1978
sg74
g1424
sg67
(lp1979
g60
(g81
g62
NtRp1980
(dp1981
g65
(dp1982
g85
g86
ssg74
g1976
sg67
(lp1983
S'server_protocol'
p1984
asbag60
(g81
g62
NtRp1985
(dp1986
g65
(dp1987
g92
g93
ssg74
g1976
sg67
(lp1988
S':'
asbag60
(g81
g62
NtRp1989
(dp1990
g65
(dp1991
sg74
g1976
sg67
(lp1992
g60
(g61
g62
NtRp1993
(dp1994
g65
(dp1995
g73
I4
ssg74
g1989
sg67
(lp1996
S'HTTP/1.1'
p1997
asbasbasbag60
(g76
g62
NtRp1998
(dp1999
g65
(dp2000
sg74
g1424
sg67
(lp2001
g60
(g81
g62
NtRp2002
(dp2003
g65
(dp2004
g85
g86
ssg74
g1998
sg67
(lp2005
S'server_software'
p2006
asbag60
(g81
g62
NtRp2007
(dp2008
g65
(dp2009
g92
g93
ssg74
g1998
sg67
(lp2010
S':'
asbag60
(g81
g62
NtRp2011
(dp2012
g65
(dp2013
sg74
g1998
sg67
(lp2014
g60
(g61
g62
NtRp2015
(dp2016
g65
(dp2017
g73
I4
ssg74
g2011
sg67
(lp2018
S'Rocket 1.2.2'
p2019
asbasbasbag60
(g76
g62
NtRp2020
(dp2021
g65
(dp2022
sg74
g1424
sg67
(lp2023
g60
(g81
g62
NtRp2024
(dp2025
g65
(dp2026
g85
g86
ssg74
g2020
sg67
(lp2027
S'web2py_crontype'
p2028
asbag60
(g81
g62
NtRp2029
(dp2030
g65
(dp2031
g92
g93
ssg74
g2020
sg67
(lp2032
S':'
asbag60
(g81
g62
NtRp2033
(dp2034
g65
(dp2035
sg74
g2020
sg67
(lp2036
g60
(g61
g62
NtRp2037
(dp2038
g65
(dp2039
g73
I4
ssg74
g2033
sg67
(lp2040
S'hard'
p2041
asbasbasbag60
(g76
g62
NtRp2042
(dp2043
g65
(dp2044
sg74
g1424
sg67
(lp2045
g60
(g81
g62
NtRp2046
(dp2047
g65
(dp2048
g85
g86
ssg74
g2042
sg67
(lp2049
S'web2py_path'
p2050
asbag60
(g81
g62
NtRp2051
(dp2052
g65
(dp2053
g92
g93
ssg74
g2042
sg67
(lp2054
S':'
asbag60
(g81
g62
NtRp2055
(dp2056
g65
(dp2057
sg74
g2042
sg67
(lp2058
g60
(g61
g62
NtRp2059
(dp2060
g65
(dp2061
g73
I4
ssg74
g2055
sg67
(lp2062
g1471
asbasbasbag60
(g76
g62
NtRp2063
(dp2064
g65
(dp2065
sg74
g1424
sg67
(lp2066
g60
(g81
g62
NtRp2067
(dp2068
g65
(dp2069
g85
g86
ssg74
g2063
sg67
(lp2070
S'web2py_version'
p2071
asbag60
(g81
g62
NtRp2072
(dp2073
g65
(dp2074
g92
g93
ssg74
g2063
sg67
(lp2075
S':'
asbag60
(g81
g62
NtRp2076
(dp2077
g65
(dp2078
sg74
g2063
sg67
(lp2079
g60
(g61
g62
NtRp2080
(dp2081
g65
(dp2082
g73
I4
ssg74
g2076
sg67
(lp2083
S'Version 1.98.2 (2011-08-04 00:47:09)\n'
p2084
asbasbasbag60
(g76
g62
NtRp2085
(dp2086
g65
(dp2087
sg74
g1424
sg67
(lp2088
g60
(g81
g62
NtRp2089
(dp2090
g65
(dp2091
g85
g86
ssg74
g2085
sg67
(lp2092
S'wsgi_errors'
p2093
asbag60
(g81
g62
NtRp2094
(dp2095
g65
(dp2096
g92
g93
ssg74
g2085
sg67
(lp2097
S':'
asbag60
(g81
g62
NtRp2098
(dp2099
g65
(dp2100
sg74
g2085
sg67
(lp2101
g60
(g61
g62
NtRp2102
(dp2103
g65
(dp2104
g73
I4
ssg74
g2098
sg67
(lp2105
S"<open file '<stderr>', mode 'w' at 0x003100B0>"
p2106
asbasbasbag60
(g76
g62
NtRp2107
(dp2108
g65
(dp2109
sg74
g1424
sg67
(lp2110
g60
(g81
g62
NtRp2111
(dp2112
g65
(dp2113
g85
g86
ssg74
g2107
sg67
(lp2114
S'wsgi_file_wrapper'
p2115
asbag60
(g81
g62
NtRp2116
(dp2117
g65
(dp2118
g92
g93
ssg74
g2107
sg67
(lp2119
S':'
asbag60
(g81
g62
NtRp2120
(dp2121
g65
(dp2122
sg74
g2107
sg67
(lp2123
g60
(g61
g62
NtRp2124
(dp2125
g65
(dp2126
g73
I4
ssg74
g2120
sg67
(lp2127
S'<class gluon.rocket.FileWrapper at 0x02FFC1B0>'
p2128
asbasbasbag60
(g76
g62
NtRp2129
(dp2130
g65
(dp2131
sg74
g1424
sg67
(lp2132
g60
(g81
g62
NtRp2133
(dp2134
g65
(dp2135
g85
g86
ssg74
g2129
sg67
(lp2136
S'wsgi_input'
p2137
asbag60
(g81
g62
NtRp2138
(dp2139
g65
(dp2140
g92
g93
ssg74
g2129
sg67
(lp2141
S':'
asbag60
(g81
g62
NtRp2142
(dp2143
g65
(dp2144
sg74
g2129
sg67
(lp2145
g60
(g61
g62
NtRp2146
(dp2147
g65
(dp2148
g73
I4
ssg74
g2142
sg67
(lp2149
S'<socket._fileobject object at 0x032DDA70>'
p2150
asbasbasbag60
(g76
g62
NtRp2151
(dp2152
g65
(dp2153
sg74
g1424
sg67
(lp2154
g60
(g81
g62
NtRp2155
(dp2156
g65
(dp2157
g85
g86
ssg74
g2151
sg67
(lp2158
S'wsgi_multiprocess'
p2159
asbag60
(g81
g62
NtRp2160
(dp2161
g65
(dp2162
g92
g93
ssg74
g2151
sg67
(lp2163
S':'
asbag60
(g81
g62
NtRp2164
(dp2165
g65
(dp2166
sg74
g2151
sg67
(lp2167
g60
(g61
g62
NtRp2168
(dp2169
g65
(dp2170
g73
I4
ssg74
g2164
sg67
(lp2171
g103
asbasbasbag60
(g76
g62
NtRp2172
(dp2173
g65
(dp2174
sg74
g1424
sg67
(lp2175
g60
(g81
g62
NtRp2176
(dp2177
g65
(dp2178
g85
g86
ssg74
g2172
sg67
(lp2179
S'wsgi_multithread'
p2180
asbag60
(g81
g62
NtRp2181
(dp2182
g65
(dp2183
g92
g93
ssg74
g2172
sg67
(lp2184
S':'
asbag60
(g81
g62
NtRp2185
(dp2186
g65
(dp2187
sg74
g2172
sg67
(lp2188
g60
(g61
g62
NtRp2189
(dp2190
g65
(dp2191
g73
I4
ssg74
g2185
sg67
(lp2192
S'True'
p2193
asbasbasbag60
(g76
g62
NtRp2194
(dp2195
g65
(dp2196
sg74
g1424
sg67
(lp2197
g60
(g81
g62
NtRp2198
(dp2199
g65
(dp2200
g85
g86
ssg74
g2194
sg67
(lp2201
S'wsgi_run_once'
p2202
asbag60
(g81
g62
NtRp2203
(dp2204
g65
(dp2205
g92
g93
ssg74
g2194
sg67
(lp2206
S':'
asbag60
(g81
g62
NtRp2207
(dp2208
g65
(dp2209
sg74
g2194
sg67
(lp2210
g60
(g61
g62
NtRp2211
(dp2212
g65
(dp2213
g73
I4
ssg74
g2207
sg67
(lp2214
g103
asbasbasbag60
(g76
g62
NtRp2215
(dp2216
g65
(dp2217
sg74
g1424
sg67
(lp2218
g60
(g81
g62
NtRp2219
(dp2220
g65
(dp2221
g85
g86
ssg74
g2215
sg67
(lp2222
S'wsgi_url_scheme'
p2223
asbag60
(g81
g62
NtRp2224
(dp2225
g65
(dp2226
g92
g93
ssg74
g2215
sg67
(lp2227
S':'
asbag60
(g81
g62
NtRp2228
(dp2229
g65
(dp2230
sg74
g2215
sg67
(lp2231
g60
(g61
g62
NtRp2232
(dp2233
g65
(dp2234
g73
I4
ssg74
g2228
sg67
(lp2235
S'http'
p2236
asbasbasbag60
(g76
g62
NtRp2237
(dp2238
g65
(dp2239
sg74
g1424
sg67
(lp2240
g60
(g81
g62
NtRp2241
(dp2242
g65
(dp2243
g85
g86
ssg74
g2237
sg67
(lp2244
S'wsgi_version'
p2245
asbag60
(g81
g62
NtRp2246
(dp2247
g65
(dp2248
g92
g93
ssg74
g2237
sg67
(lp2249
S':'
asbag60
(g81
g62
NtRp2250
(dp2251
g65
(dp2252
sg74
g2237
sg67
(lp2253
g60
(g61
g62
NtRp2254
(dp2255
g65
(dp2256
g73
I4
ssg74
g2250
sg67
(lp2257
g60
(g69
g62
NtRp2258
(dp2259
g65
(dp2260
g73
I3
ssg74
Nsg67
(lp2261
g60
(g76
g62
NtRp2262
(dp2263
g65
(dp2264
sg74
g2258
sg67
(lp2265
g60
(g81
g62
NtRp2266
(dp2267
g65
(dp2268
sg74
g2262
sg67
(lp2269
g60
(g61
g62
NtRp2270
(dp2271
g65
(dp2272
g73
I3
ssg74
g2266
sg67
(lp2273
S'1'
asbasbasbag60
(g76
g62
NtRp2274
(dp2275
g65
(dp2276
sg74
g2258
sg67
(lp2277
g60
(g81
g62
NtRp2278
(dp2279
g65
(dp2280
sg74
g2274
sg67
(lp2281
g60
(g61
g62
NtRp2282
(dp2283
g65
(dp2284
g73
I3
ssg74
g2278
sg67
(lp2285
S'0'
asbasbasbasbasbasbasbasbasbasbasbag60
(g76
g62
NtRp2286
(dp2287
g65
(dp2288
sg74
g70
sg67
(lp2289
g60
(g81
g62
NtRp2290
(dp2291
g65
(dp2292
g85
g86
ssg74
g2286
sg67
(lp2293
S'extension'
p2294
asbag60
(g81
g62
NtRp2295
(dp2296
g65
(dp2297
g92
g93
ssg74
g2286
sg67
(lp2298
S':'
asbag60
(g81
g62
NtRp2299
(dp2300
g65
(dp2301
sg74
g2286
sg67
(lp2302
g60
(g61
g62
NtRp2303
(dp2304
g65
(dp2305
g73
I5
ssg74
g2299
sg67
(lp2306
S'html'
p2307
asbasbasbag60
(g76
g62
NtRp2308
(dp2309
g65
(dp2310
sg74
g70
sg67
(lp2311
g60
(g81
g62
NtRp2312
(dp2313
g65
(dp2314
g85
g86
ssg74
g2308
sg67
(lp2315
S'folder'
p2316
asbag60
(g81
g62
NtRp2317
(dp2318
g65
(dp2319
g92
g93
ssg74
g2308
sg67
(lp2320
S':'
asbag60
(g81
g62
NtRp2321
(dp2322
g65
(dp2323
sg74
g2308
sg67
(lp2324
g60
(g61
g62
NtRp2325
(dp2326
g65
(dp2327
g73
I5
ssg74
g2321
sg67
(lp2328
S'C:\\Users\\Atomico\\web2py\\applications\\Desglosar_Emails\\'
p2329
asbasbasbag60
(g76
g62
NtRp2330
(dp2331
g65
(dp2332
sg74
g70
sg67
(lp2333
g60
(g81
g62
NtRp2334
(dp2335
g65
(dp2336
g85
g86
ssg74
g2330
sg67
(lp2337
S'function'
p2338
asbag60
(g81
g62
NtRp2339
(dp2340
g65
(dp2341
g92
g93
ssg74
g2330
sg67
(lp2342
S':'
asbag60
(g81
g62
NtRp2343
(dp2344
g65
(dp2345
sg74
g2330
sg67
(lp2346
g60
(g61
g62
NtRp2347
(dp2348
g65
(dp2349
g73
I5
ssg74
g2343
sg67
(lp2350
S'index'
p2351
asbasbasbag60
(g76
g62
NtRp2352
(dp2353
g65
(dp2354
sg74
g70
sg67
(lp2355
g60
(g81
g62
NtRp2356
(dp2357
g65
(dp2358
g85
g86
ssg74
g2352
sg67
(lp2359
S'get_vars'
p2360
asbag60
(g81
g62
NtRp2361
(dp2362
g65
(dp2363
g92
g93
ssg74
g2352
sg67
(lp2364
S':'
asbag60
(g81
g62
NtRp2365
(dp2366
g65
(dp2367
sg74
g2352
sg67
(lp2368
g60
(g61
g62
NtRp2369
(dp2370
g65
(dp2371
g73
I5
ssg74
g2365
sg67
(lp2372
g60
(g69
g62
NtRp2373
(dp2374
g65
(dp2375
g73
I4
ssg74
Nsg67
(lp2376
sbasbasbasbag60
(g76
g62
NtRp2377
(dp2378
g65
(dp2379
sg74
g70
sg67
(lp2380
g60
(g81
g62
NtRp2381
(dp2382
g65
(dp2383
g85
g86
ssg74
g2377
sg67
(lp2384
S'is_https'
p2385
asbag60
(g81
g62
NtRp2386
(dp2387
g65
(dp2388
g92
g93
ssg74
g2377
sg67
(lp2389
S':'
asbag60
(g81
g62
NtRp2390
(dp2391
g65
(dp2392
sg74
g2377
sg67
(lp2393
g60
(g61
g62
NtRp2394
(dp2395
g65
(dp2396
g73
I5
ssg74
g2390
sg67
(lp2397
g103
asbasbasbag60
(g76
g62
NtRp2398
(dp2399
g65
(dp2400
sg74
g70
sg67
(lp2401
g60
(g81
g62
NtRp2402
(dp2403
g65
(dp2404
g85
g86
ssg74
g2398
sg67
(lp2405
S'is_local'
p2406
asbag60
(g81
g62
NtRp2407
(dp2408
g65
(dp2409
g92
g93
ssg74
g2398
sg67
(lp2410
S':'
asbag60
(g81
g62
NtRp2411
(dp2412
g65
(dp2413
sg74
g2398
sg67
(lp2414
g60
(g61
g62
NtRp2415
(dp2416
g65
(dp2417
g73
I5
ssg74
g2411
sg67
(lp2418
g2193
asbasbasbag60
(g76
g62
NtRp2419
(dp2420
g65
(dp2421
sg74
g70
sg67
(lp2422
g60
(g81
g62
NtRp2423
(dp2424
g65
(dp2425
g85
g86
ssg74
g2419
sg67
(lp2426
S'is_restful'
p2427
asbag60
(g81
g62
NtRp2428
(dp2429
g65
(dp2430
g92
g93
ssg74
g2419
sg67
(lp2431
S':'
asbag60
(g81
g62
NtRp2432
(dp2433
g65
(dp2434
sg74
g2419
sg67
(lp2435
g60
(g61
g62
NtRp2436
(dp2437
g65
(dp2438
g73
I5
ssg74
g2432
sg67
(lp2439
g103
asbasbasbag60
(g76
g62
NtRp2440
(dp2441
g65
(dp2442
sg74
g70
sg67
(lp2443
g60
(g81
g62
NtRp2444
(dp2445
g65
(dp2446
g85
g86
ssg74
g2440
sg67
(lp2447
S'now'
p2448
asbag60
(g81
g62
NtRp2449
(dp2450
g65
(dp2451
g92
g93
ssg74
g2440
sg67
(lp2452
S':'
asbag60
(g81
g62
NtRp2453
(dp2454
g65
(dp2455
sg74
g2440
sg67
(lp2456
g60
(g61
g62
NtRp2457
(dp2458
g65
(dp2459
g73
I5
ssg74
g2453
sg67
(lp2460
S'datetime.datetime(2011, 9, 19, 6, 32, 33, 910000)'
p2461
asbasbasbag60
(g76
g62
NtRp2462
(dp2463
g65
(dp2464
sg74
g70
sg67
(lp2465
g60
(g81
g62
NtRp2466
(dp2467
g65
(dp2468
g85
g86
ssg74
g2462
sg67
(lp2469
S'post_vars'
p2470
asbag60
(g81
g62
NtRp2471
(dp2472
g65
(dp2473
g92
g93
ssg74
g2462
sg67
(lp2474
S':'
asbag60
(g81
g62
NtRp2475
(dp2476
g65
(dp2477
sg74
g2462
sg67
(lp2478
g60
(g61
g62
NtRp2479
(dp2480
g65
(dp2481
g73
I5
ssg74
g2475
sg67
(lp2482
g60
(g69
g62
NtRp2483
(dp2484
g65
(dp2485
g73
I4
ssg74
Nsg67
(lp2486
sbasbasbasbag60
(g76
g62
NtRp2487
(dp2488
g65
(dp2489
sg74
g70
sg67
(lp2490
g60
(g81
g62
NtRp2491
(dp2492
g65
(dp2493
g85
g86
ssg74
g2487
sg67
(lp2494
S'url'
p2495
asbag60
(g81
g62
NtRp2496
(dp2497
g65
(dp2498
g92
g93
ssg74
g2487
sg67
(lp2499
S':'
asbag60
(g81
g62
NtRp2500
(dp2501
g65
(dp2502
sg74
g2487
sg67
(lp2503
g60
(g61
g62
NtRp2504
(dp2505
g65
(dp2506
g73
I5
ssg74
g2500
sg67
(lp2507
S'/Desglosar_Emails/default/index'
p2508
asbasbasbag60
(g76
g62
NtRp2509
(dp2510
g65
(dp2511
sg74
g70
sg67
(lp2512
g60
(g81
g62
NtRp2513
(dp2514
g65
(dp2515
g85
g86
ssg74
g2509
sg67
(lp2516
S'uuid'
p2517
asbag60
(g81
g62
NtRp2518
(dp2519
g65
(dp2520
g92
g93
ssg74
g2509
sg67
(lp2521
S':'
asbag60
(g81
g62
NtRp2522
(dp2523
g65
(dp2524
sg74
g2509
sg67
(lp2525
g60
(g61
g62
NtRp2526
(dp2527
g65
(dp2528
g73
I5
ssg74
g2522
sg67
(lp2529
S'Desglosar_Emails/127.0.0.1.2011-09-19.06-32-33.bf3e8456-a95c-466f-bd3c-b6252bf788f3'
p2530
asbasbasbag60
(g76
g62
NtRp2531
(dp2532
g65
(dp2533
sg74
g70
sg67
(lp2534
g60
(g81
g62
NtRp2535
(dp2536
g65
(dp2537
g85
g86
ssg74
g2531
sg67
(lp2538
S'vars'
p2539
asbag60
(g81
g62
NtRp2540
(dp2541
g65
(dp2542
g92
g93
ssg74
g2531
sg67
(lp2543
S':'
asbag60
(g81
g62
NtRp2544
(dp2545
g65
(dp2546
sg74
g2531
sg67
(lp2547
g60
(g61
g62
NtRp2548
(dp2549
g65
(dp2550
g73
I5
ssg74
g2544
sg67
(lp2551
g60
(g69
g62
NtRp2552
(dp2553
g65
(dp2554
g73
I4
ssg74
Nsg67
(lp2555
sbasbasbasbag60
(g76
g62
NtRp2556
(dp2557
g65
(dp2558
sg74
g70
sg67
(lp2559
g60
(g81
g62
NtRp2560
(dp2561
g65
(dp2562
g85
g86
ssg74
g2556
sg67
(lp2563
S'wsgi'
p2564
asbag60
(g81
g62
NtRp2565
(dp2566
g65
(dp2567
g92
g93
ssg74
g2556
sg67
(lp2568
S':'
asbag60
(g81
g62
NtRp2569
(dp2570
g65
(dp2571
sg74
g2556
sg67
(lp2572
g60
(g61
g62
NtRp2573
(dp2574
g65
(dp2575
g73
I5
ssg74
g2569
sg67
(lp2576
g60
(g69
g62
NtRp2577
(dp2578
g65
(dp2579
g73
I4
ssg74
Nsg67
(lp2580
g60
(g76
g62
NtRp2581
(dp2582
g65
(dp2583
sg74
g2577
sg67
(lp2584
g60
(g81
g62
NtRp2585
(dp2586
g65
(dp2587
g85
g86
ssg74
g2581
sg67
(lp2588
S'environ'
p2589
asbag60
(g81
g62
NtRp2590
(dp2591
g65
(dp2592
g92
g93
ssg74
g2581
sg67
(lp2593
S':'
asbag60
(g81
g62
NtRp2594
(dp2595
g65
(dp2596
sg74
g2581
sg67
(lp2597
g60
(g61
g62
NtRp2598
(dp2599
g65
(dp2600
g73
I4
ssg74
g2594
sg67
(lp2601
g60
(g69
g62
NtRp2602
(dp2603
g65
(dp2604
g73
I3
ssg74
Nsg67
(lp2605
g60
(g76
g62
NtRp2606
(dp2607
g65
(dp2608
sg74
g2602
sg67
(lp2609
g60
(g81
g62
NtRp2610
(dp2611
g65
(dp2612
g85
g86
ssg74
g2606
sg67
(lp2613
S'HTTP_ACCEPT'
p2614
asbag60
(g81
g62
NtRp2615
(dp2616
g65
(dp2617
g92
g93
ssg74
g2606
sg67
(lp2618
S':'
asbag60
(g81
g62
NtRp2619
(dp2620
g65
(dp2621
sg74
g2606
sg67
(lp2622
g60
(g61
g62
NtRp2623
(dp2624
g65
(dp2625
g73
I3
ssg74
g2619
sg67
(lp2626
g1605
asbasbasbag60
(g76
g62
NtRp2627
(dp2628
g65
(dp2629
sg74
g2602
sg67
(lp2630
g60
(g81
g62
NtRp2631
(dp2632
g65
(dp2633
g85
g86
ssg74
g2627
sg67
(lp2634
S'HTTP_ACCEPT_CHARSET'
p2635
asbag60
(g81
g62
NtRp2636
(dp2637
g65
(dp2638
g92
g93
ssg74
g2627
sg67
(lp2639
S':'
asbag60
(g81
g62
NtRp2640
(dp2641
g65
(dp2642
sg74
g2627
sg67
(lp2643
g60
(g61
g62
NtRp2644
(dp2645
g65
(dp2646
g73
I3
ssg74
g2640
sg67
(lp2647
g1627
asbasbasbag60
(g76
g62
NtRp2648
(dp2649
g65
(dp2650
sg74
g2602
sg67
(lp2651
g60
(g81
g62
NtRp2652
(dp2653
g65
(dp2654
g85
g86
ssg74
g2648
sg67
(lp2655
S'HTTP_ACCEPT_ENCODING'
p2656
asbag60
(g81
g62
NtRp2657
(dp2658
g65
(dp2659
g92
g93
ssg74
g2648
sg67
(lp2660
S':'
asbag60
(g81
g62
NtRp2661
(dp2662
g65
(dp2663
sg74
g2648
sg67
(lp2664
g60
(g61
g62
NtRp2665
(dp2666
g65
(dp2667
g73
I3
ssg74
g2661
sg67
(lp2668
g1649
asbasbasbag60
(g76
g62
NtRp2669
(dp2670
g65
(dp2671
sg74
g2602
sg67
(lp2672
g60
(g81
g62
NtRp2673
(dp2674
g65
(dp2675
g85
g86
ssg74
g2669
sg67
(lp2676
S'HTTP_ACCEPT_LANGUAGE'
p2677
asbag60
(g81
g62
NtRp2678
(dp2679
g65
(dp2680
g92
g93
ssg74
g2669
sg67
(lp2681
S':'
asbag60
(g81
g62
NtRp2682
(dp2683
g65
(dp2684
sg74
g2669
sg67
(lp2685
g60
(g61
g62
NtRp2686
(dp2687
g65
(dp2688
g73
I3
ssg74
g2682
sg67
(lp2689
g1671
asbasbasbag60
(g76
g62
NtRp2690
(dp2691
g65
(dp2692
sg74
g2602
sg67
(lp2693
g60
(g81
g62
NtRp2694
(dp2695
g65
(dp2696
g85
g86
ssg74
g2690
sg67
(lp2697
S'HTTP_CONNECTION'
p2698
asbag60
(g81
g62
NtRp2699
(dp2700
g65
(dp2701
g92
g93
ssg74
g2690
sg67
(lp2702
S':'
asbag60
(g81
g62
NtRp2703
(dp2704
g65
(dp2705
sg74
g2690
sg67
(lp2706
g60
(g61
g62
NtRp2707
(dp2708
g65
(dp2709
g73
I3
ssg74
g2703
sg67
(lp2710
g1693
asbasbasbag60
(g76
g62
NtRp2711
(dp2712
g65
(dp2713
sg74
g2602
sg67
(lp2714
g60
(g81
g62
NtRp2715
(dp2716
g65
(dp2717
g85
g86
ssg74
g2711
sg67
(lp2718
S'HTTP_COOKIE'
p2719
asbag60
(g81
g62
NtRp2720
(dp2721
g65
(dp2722
g92
g93
ssg74
g2711
sg67
(lp2723
S':'
asbag60
(g81
g62
NtRp2724
(dp2725
g65
(dp2726
sg74
g2711
sg67
(lp2727
g60
(g61
g62
NtRp2728
(dp2729
g65
(dp2730
g73
I3
ssg74
g2724
sg67
(lp2731
g1715
asbasbasbag60
(g76
g62
NtRp2732
(dp2733
g65
(dp2734
sg74
g2602
sg67
(lp2735
g60
(g81
g62
NtRp2736
(dp2737
g65
(dp2738
g85
g86
ssg74
g2732
sg67
(lp2739
S'HTTP_HOST'
p2740
asbag60
(g81
g62
NtRp2741
(dp2742
g65
(dp2743
g92
g93
ssg74
g2732
sg67
(lp2744
S':'
asbag60
(g81
g62
NtRp2745
(dp2746
g65
(dp2747
sg74
g2732
sg67
(lp2748
g60
(g61
g62
NtRp2749
(dp2750
g65
(dp2751
g73
I3
ssg74
g2745
sg67
(lp2752
g1737
asbasbasbag60
(g76
g62
NtRp2753
(dp2754
g65
(dp2755
sg74
g2602
sg67
(lp2756
g60
(g81
g62
NtRp2757
(dp2758
g65
(dp2759
g85
g86
ssg74
g2753
sg67
(lp2760
S'HTTP_REFERER'
p2761
asbag60
(g81
g62
NtRp2762
(dp2763
g65
(dp2764
g92
g93
ssg74
g2753
sg67
(lp2765
S':'
asbag60
(g81
g62
NtRp2766
(dp2767
g65
(dp2768
sg74
g2753
sg67
(lp2769
g60
(g61
g62
NtRp2770
(dp2771
g65
(dp2772
g73
I3
ssg74
g2766
sg67
(lp2773
g1759
asbasbasbag60
(g76
g62
NtRp2774
(dp2775
g65
(dp2776
sg74
g2602
sg67
(lp2777
g60
(g81
g62
NtRp2778
(dp2779
g65
(dp2780
g85
g86
ssg74
g2774
sg67
(lp2781
S'HTTP_USER_AGENT'
p2782
asbag60
(g81
g62
NtRp2783
(dp2784
g65
(dp2785
g92
g93
ssg74
g2774
sg67
(lp2786
S':'
asbag60
(g81
g62
NtRp2787
(dp2788
g65
(dp2789
sg74
g2774
sg67
(lp2790
g60
(g61
g62
NtRp2791
(dp2792
g65
(dp2793
g73
I3
ssg74
g2787
sg67
(lp2794
g1781
asbasbasbag60
(g76
g62
NtRp2795
(dp2796
g65
(dp2797
sg74
g2602
sg67
(lp2798
g60
(g81
g62
NtRp2799
(dp2800
g65
(dp2801
g85
g86
ssg74
g2795
sg67
(lp2802
S'PATH_INFO'
p2803
asbag60
(g81
g62
NtRp2804
(dp2805
g65
(dp2806
g92
g93
ssg74
g2795
sg67
(lp2807
S':'
asbag60
(g81
g62
NtRp2808
(dp2809
g65
(dp2810
sg74
g2795
sg67
(lp2811
g60
(g61
g62
NtRp2812
(dp2813
g65
(dp2814
g73
I3
ssg74
g2808
sg67
(lp2815
g1824
asbasbasbag60
(g76
g62
NtRp2816
(dp2817
g65
(dp2818
sg74
g2602
sg67
(lp2819
g60
(g81
g62
NtRp2820
(dp2821
g65
(dp2822
g85
g86
ssg74
g2816
sg67
(lp2823
S'QUERY_STRING'
p2824
asbag60
(g81
g62
NtRp2825
(dp2826
g65
(dp2827
g92
g93
ssg74
g2816
sg67
(lp2828
S':'
asbag60
(g81
g62
NtRp2829
(dp2830
g65
(dp2831
sg74
g2816
sg67
(lp2832
g60
(g61
g62
NtRp2833
(dp2834
g65
(dp2835
g73
I3
ssg74
g2829
sg67
(lp2836
S''
asbasbasbag60
(g76
g62
NtRp2837
(dp2838
g65
(dp2839
sg74
g2602
sg67
(lp2840
g60
(g81
g62
NtRp2841
(dp2842
g65
(dp2843
g85
g86
ssg74
g2837
sg67
(lp2844
S'REMOTE_ADDR'
p2845
asbag60
(g81
g62
NtRp2846
(dp2847
g65
(dp2848
g92
g93
ssg74
g2837
sg67
(lp2849
S':'
asbag60
(g81
g62
NtRp2850
(dp2851
g65
(dp2852
sg74
g2837
sg67
(lp2853
g60
(g61
g62
NtRp2854
(dp2855
g65
(dp2856
g73
I3
ssg74
g2850
sg67
(lp2857
g193
asbasbasbag60
(g76
g62
NtRp2858
(dp2859
g65
(dp2860
sg74
g2602
sg67
(lp2861
g60
(g81
g62
NtRp2862
(dp2863
g65
(dp2864
g85
g86
ssg74
g2858
sg67
(lp2865
S'REMOTE_PORT'
p2866
asbag60
(g81
g62
NtRp2867
(dp2868
g65
(dp2869
g92
g93
ssg74
g2858
sg67
(lp2870
S':'
asbag60
(g81
g62
NtRp2871
(dp2872
g65
(dp2873
sg74
g2858
sg67
(lp2874
g60
(g61
g62
NtRp2875
(dp2876
g65
(dp2877
g73
I3
ssg74
g2871
sg67
(lp2878
g1888
asbasbasbag60
(g76
g62
NtRp2879
(dp2880
g65
(dp2881
sg74
g2602
sg67
(lp2882
g60
(g81
g62
NtRp2883
(dp2884
g65
(dp2885
g85
g86
ssg74
g2879
sg67
(lp2886
S'REQUEST_METHOD'
p2887
asbag60
(g81
g62
NtRp2888
(dp2889
g65
(dp2890
g92
g93
ssg74
g2879
sg67
(lp2891
S':'
asbag60
(g81
g62
NtRp2892
(dp2893
g65
(dp2894
sg74
g2879
sg67
(lp2895
g60
(g61
g62
NtRp2896
(dp2897
g65
(dp2898
g73
I3
ssg74
g2892
sg67
(lp2899
g1910
asbasbasbag60
(g76
g62
NtRp2900
(dp2901
g65
(dp2902
sg74
g2602
sg67
(lp2903
g60
(g81
g62
NtRp2904
(dp2905
g65
(dp2906
g85
g86
ssg74
g2900
sg67
(lp2907
S'SCRIPT_NAME'
p2908
asbag60
(g81
g62
NtRp2909
(dp2910
g65
(dp2911
g92
g93
ssg74
g2900
sg67
(lp2912
S':'
asbag60
(g81
g62
NtRp2913
(dp2914
g65
(dp2915
sg74
g2900
sg67
(lp2916
g60
(g61
g62
NtRp2917
(dp2918
g65
(dp2919
g73
I3
ssg74
g2913
sg67
(lp2920
S''
asbasbasbag60
(g76
g62
NtRp2921
(dp2922
g65
(dp2923
sg74
g2602
sg67
(lp2924
g60
(g81
g62
NtRp2925
(dp2926
g65
(dp2927
g85
g86
ssg74
g2921
sg67
(lp2928
S'SERVER_NAME'
p2929
asbag60
(g81
g62
NtRp2930
(dp2931
g65
(dp2932
g92
g93
ssg74
g2921
sg67
(lp2933
S':'
asbag60
(g81
g62
NtRp2934
(dp2935
g65
(dp2936
sg74
g2921
sg67
(lp2937
g60
(g61
g62
NtRp2938
(dp2939
g65
(dp2940
g73
I3
ssg74
g2934
sg67
(lp2941
g1953
asbasbasbag60
(g76
g62
NtRp2942
(dp2943
g65
(dp2944
sg74
g2602
sg67
(lp2945
g60
(g81
g62
NtRp2946
(dp2947
g65
(dp2948
g85
g86
ssg74
g2942
sg67
(lp2949
S'SERVER_PORT'
p2950
asbag60
(g81
g62
NtRp2951
(dp2952
g65
(dp2953
g92
g93
ssg74
g2942
sg67
(lp2954
S':'
asbag60
(g81
g62
NtRp2955
(dp2956
g65
(dp2957
sg74
g2942
sg67
(lp2958
g60
(g61
g62
NtRp2959
(dp2960
g65
(dp2961
g73
I3
ssg74
g2955
sg67
(lp2962
g1975
asbasbasbag60
(g76
g62
NtRp2963
(dp2964
g65
(dp2965
sg74
g2602
sg67
(lp2966
g60
(g81
g62
NtRp2967
(dp2968
g65
(dp2969
g85
g86
ssg74
g2963
sg67
(lp2970
S'SERVER_PROTOCOL'
p2971
asbag60
(g81
g62
NtRp2972
(dp2973
g65
(dp2974
g92
g93
ssg74
g2963
sg67
(lp2975
S':'
asbag60
(g81
g62
NtRp2976
(dp2977
g65
(dp2978
sg74
g2963
sg67
(lp2979
g60
(g61
g62
NtRp2980
(dp2981
g65
(dp2982
g73
I3
ssg74
g2976
sg67
(lp2983
g1997
asbasbasbag60
(g76
g62
NtRp2984
(dp2985
g65
(dp2986
sg74
g2602
sg67
(lp2987
g60
(g81
g62
NtRp2988
(dp2989
g65
(dp2990
g85
g86
ssg74
g2984
sg67
(lp2991
S'SERVER_SOFTWARE'
p2992
asbag60
(g81
g62
NtRp2993
(dp2994
g65
(dp2995
g92
g93
ssg74
g2984
sg67
(lp2996
S':'
asbag60
(g81
g62
NtRp2997
(dp2998
g65
(dp2999
sg74
g2984
sg67
(lp3000
g60
(g61
g62
NtRp3001
(dp3002
g65
(dp3003
g73
I3
ssg74
g2997
sg67
(lp3004
g2019
asbasbasbag60
(g76
g62
NtRp3005
(dp3006
g65
(dp3007
sg74
g2602
sg67
(lp3008
g60
(g81
g62
NtRp3009
(dp3010
g65
(dp3011
g85
g86
ssg74
g3005
sg67
(lp3012
S'wsgi.errors'
p3013
asbag60
(g81
g62
NtRp3014
(dp3015
g65
(dp3016
g92
g93
ssg74
g3005
sg67
(lp3017
S':'
asbag60
(g81
g62
NtRp3018
(dp3019
g65
(dp3020
sg74
g3005
sg67
(lp3021
g60
(g61
g62
NtRp3022
(dp3023
g65
(dp3024
g73
I3
ssg74
g3018
sg67
(lp3025
S"<open file '<stderr>', mode 'w' at 0x003100B0>"
p3026
asbasbasbag60
(g76
g62
NtRp3027
(dp3028
g65
(dp3029
sg74
g2602
sg67
(lp3030
g60
(g81
g62
NtRp3031
(dp3032
g65
(dp3033
g85
g86
ssg74
g3027
sg67
(lp3034
S'wsgi.file_wrapper'
p3035
asbag60
(g81
g62
NtRp3036
(dp3037
g65
(dp3038
g92
g93
ssg74
g3027
sg67
(lp3039
S':'
asbag60
(g81
g62
NtRp3040
(dp3041
g65
(dp3042
sg74
g3027
sg67
(lp3043
g60
(g61
g62
NtRp3044
(dp3045
g65
(dp3046
g73
I3
ssg74
g3040
sg67
(lp3047
S'<class gluon.rocket.FileWrapper at 0x02FFC1B0>'
p3048
asbasbasbag60
(g76
g62
NtRp3049
(dp3050
g65
(dp3051
sg74
g2602
sg67
(lp3052
g60
(g81
g62
NtRp3053
(dp3054
g65
(dp3055
g85
g86
ssg74
g3049
sg67
(lp3056
S'wsgi.input'
p3057
asbag60
(g81
g62
NtRp3058
(dp3059
g65
(dp3060
g92
g93
ssg74
g3049
sg67
(lp3061
S':'
asbag60
(g81
g62
NtRp3062
(dp3063
g65
(dp3064
sg74
g3049
sg67
(lp3065
g60
(g61
g62
NtRp3066
(dp3067
g65
(dp3068
g73
I3
ssg74
g3062
sg67
(lp3069
S'<cStringIO.StringO object at 0x087AE700>'
p3070
asbasbasbag60
(g76
g62
NtRp3071
(dp3072
g65
(dp3073
sg74
g2602
sg67
(lp3074
g60
(g81
g62
NtRp3075
(dp3076
g65
(dp3077
g85
g86
ssg74
g3071
sg67
(lp3078
S'wsgi.multiprocess'
p3079
asbag60
(g81
g62
NtRp3080
(dp3081
g65
(dp3082
g92
g93
ssg74
g3071
sg67
(lp3083
S':'
asbag60
(g81
g62
NtRp3084
(dp3085
g65
(dp3086
sg74
g3071
sg67
(lp3087
g60
(g61
g62
NtRp3088
(dp3089
g65
(dp3090
g73
I3
ssg74
g3084
sg67
(lp3091
g103
asbasbasbag60
(g76
g62
NtRp3092
(dp3093
g65
(dp3094
sg74
g2602
sg67
(lp3095
g60
(g81
g62
NtRp3096
(dp3097
g65
(dp3098
g85
g86
ssg74
g3092
sg67
(lp3099
S'wsgi.multithread'
p3100
asbag60
(g81
g62
NtRp3101
(dp3102
g65
(dp3103
g92
g93
ssg74
g3092
sg67
(lp3104
S':'
asbag60
(g81
g62
NtRp3105
(dp3106
g65
(dp3107
sg74
g3092
sg67
(lp3108
g60
(g61
g62
NtRp3109
(dp3110
g65
(dp3111
g73
I3
ssg74
g3105
sg67
(lp3112
g2193
asbasbasbag60
(g76
g62
NtRp3113
(dp3114
g65
(dp3115
sg74
g2602
sg67
(lp3116
g60
(g81
g62
NtRp3117
(dp3118
g65
(dp3119
g85
g86
ssg74
g3113
sg67
(lp3120
S'wsgi.run_once'
p3121
asbag60
(g81
g62
NtRp3122
(dp3123
g65
(dp3124
g92
g93
ssg74
g3113
sg67
(lp3125
S':'
asbag60
(g81
g62
NtRp3126
(dp3127
g65
(dp3128
sg74
g3113
sg67
(lp3129
g60
(g61
g62
NtRp3130
(dp3131
g65
(dp3132
g73
I3
ssg74
g3126
sg67
(lp3133
g103
asbasbasbag60
(g76
g62
NtRp3134
(dp3135
g65
(dp3136
sg74
g2602
sg67
(lp3137
g60
(g81
g62
NtRp3138
(dp3139
g65
(dp3140
g85
g86
ssg74
g3134
sg67
(lp3141
S'wsgi.url_scheme'
p3142
asbag60
(g81
g62
NtRp3143
(dp3144
g65
(dp3145
g92
g93
ssg74
g3134
sg67
(lp3146
S':'
asbag60
(g81
g62
NtRp3147
(dp3148
g65
(dp3149
sg74
g3134
sg67
(lp3150
g60
(g61
g62
NtRp3151
(dp3152
g65
(dp3153
g73
I3
ssg74
g3147
sg67
(lp3154
g2236
asbasbasbag60
(g76
g62
NtRp3155
(dp3156
g65
(dp3157
sg74
g2602
sg67
(lp3158
g60
(g81
g62
NtRp3159
(dp3160
g65
(dp3161
g85
g86
ssg74
g3155
sg67
(lp3162
S'wsgi.version'
p3163
asbag60
(g81
g62
NtRp3164
(dp3165
g65
(dp3166
g92
g93
ssg74
g3155
sg67
(lp3167
S':'
asbag60
(g81
g62
NtRp3168
(dp3169
g65
(dp3170
sg74
g3155
sg67
(lp3171
g60
(g61
g62
NtRp3172
(dp3173
g65
(dp3174
g73
I3
ssg74
g3168
sg67
(lp3175
S'1'
asbasbasbasbasbasbasbasbasbasbasbasbasbsS'frames'
p3176
(lp3177
(dp3178
S'file'
p3179
S'C:\\Users\\Atomico\\web2py\\gluon\\restricted.py'
p3180
sS'dump'
p3181
(dp3182
sS'lnum'
p3183
I192
sS'lines'
p3184
(dp3185
sS'call'
p3186
S'(code="db=SQLDB(\'sqlite://mydb.db\')\\n\\ndb.define_table(\'r...d(\'nombre\'),\\n    SQLField(\'cumplea\\xc3\\xb1os\',\'date\'))\\n", environment={\'A\': <class \'gluon.html.A\'>, \'B\': <class \'gluon.html.B\'>, \'BEAUTIFY\': <class \'gluon.html.BEAUTIFY\'>, \'BODY\': <class \'gluon.html.BODY\'>, \'BR\': <class \'gluon.html.BR\'>, \'BUTTON\': <class \'gluon.html.BUTTON\'>, \'CAT\': <class \'gluon.html.CAT\'>, \'CENTER\': <class \'gluon.html.CENTER\'>, \'CLEANUP\': <class \'gluon.validators.CLEANUP\'>, \'CODE\': <class \'gluon.html.CODE\'>, ...}, layer=r\'C:\\Users\\Atomico\\web2py\\applications\\Desglosar_Emails\\models\\db.py\')'
p3187
sS'func'
p3188
S'restricted'
p3189
sa(dp3190
g3179
S'C:\\Users\\Atomico\\web2py\\applications\\Desglosar_Emails\\models\\db.py'
p3191
sg3181
(dp3192
sg3183
I21
sg3184
(dp3193
I12
S"    SQLField('texto','string',length=10000,notnull=True),"
p3194
sI13
S"    SQLField('selector','integer'))"
p3195
sI14
S''
sI15
S"db.define_table('info2',"
p3196
sI16
S"    SQLField('texto','string',length=30000,notnull=True),"
p3197
sI17
S"    SQLField('longitud'))"
p3198
sI18
S''
sI19
S"db.define_table('persona',"
p3199
sI20
S"    SQLField('nombre'),"
p3200
sI21
S"    SQLField('cumplea\xc3\xb1os','date'))"
p3201
ssg3186
S'()'
p3202
sg3188
S'<module>'
p3203
sa(dp3204
g3179
S'C:\\Users\\Atomico\\web2py\\gluon\\dal.py'
p3205
sg3181
(dp3206
sg3183
I5211
sg3184
(dp3207
sg3186
S"(self=<gluon.dal.Field object at 0x08B98770>, fieldname='cumplea\\xc3\\xb1os', type='date', length=None, default=<function <lambda> at 0x028D6470>, required=False, requires=<function <lambda> at 0x028D6470>, ondelete='CASCADE', notnull=False, unique=False, uploadfield=True, widget=None, label=None, comment=None, writable=True, readable=True, update=None, authorize=None, autodelete=False, represent=None, uploadfolder=None, uploadseparate=False, compute=None, custom_store=None, custom_retrieve=None, custom_delete=None)"
p3208
sg3188
g21
sa(dp3209
g3179
S'C:\\Users\\Atomico\\web2py\\gluon\\dal.py'
p3210
sg3181
(dp3211
sg3183
I3557
sg3184
(dp3212
sg3186
S"(text='cumplea\\xc3\\xb1os')"
p3213
sg3188
S'cleanup'
p3214
sasS'pyver'
p3215
S'Python 2.5.4: C:\\Users\\Atomico\\web2py\\web2py.exe'
p3216
sS'session'
p3217
g60
(g61
g62
NtRp3218
(dp3219
g65
(dp3220
sg67
(lp3221
g60
(g69
g62
NtRp3222
(dp3223
g65
(dp3224
g73
I5
ssg74
Nsg67
(lp3225
g60
(g76
g62
NtRp3226
(dp3227
g65
(dp3228
sg74
g3222
sg67
(lp3229
g60
(g81
g62
NtRp3230
(dp3231
g65
(dp3232
g85
g86
ssg74
g3226
sg67
(lp3233
S'last_query'
p3234
asbag60
(g81
g62
NtRp3235
(dp3236
g65
(dp3237
g92
g93
ssg74
g3226
sg67
(lp3238
S':'
asbag60
(g81
g62
NtRp3239
(dp3240
g65
(dp3241
sg74
g3226
sg67
(lp3242
g60
(g61
g62
NtRp3243
(dp3244
g65
(dp3245
g73
I5
ssg74
g3239
sg67
(lp3246
S'db.info2.id>0'
p3247
asbasbasbasbasbsS'etype'
p3248
S"<type 'exceptions.SyntaxError'>"
p3249
sS'date'
p3250
S'Mon Sep 19 06:32:33 2011'
p3251
sS'response'
p3252
g60
(g61
g62
NtRp3253
(dp3254
g65
(dp3255
sg67
(lp3256
g60
(g69
g62
NtRp3257
(dp3258
g65
(dp3259
g73
I5
ssg74
Nsg67
(lp3260
g60
(g76
g62
NtRp3261
(dp3262
g65
(dp3263
sg74
g3257
sg67
(lp3264
g60
(g81
g62
NtRp3265
(dp3266
g65
(dp3267
g85
g86
ssg74
g3261
sg67
(lp3268
g158
asbag60
(g81
g62
NtRp3269
(dp3270
g65
(dp3271
g92
g93
ssg74
g3261
sg67
(lp3272
S':'
asbag60
(g81
g62
NtRp3273
(dp3274
g65
(dp3275
sg74
g3261
sg67
(lp3276
g60
(g61
g62
NtRp3277
(dp3278
g65
(dp3279
g73
I5
ssg74
g3273
sg67
(lp3280
S'<cStringIO.StringO object at 0x08FA67A0>'
p3281
asbasbasbag60
(g76
g62
NtRp3282
(dp3283
g65
(dp3284
sg74
g3257
sg67
(lp3285
g60
(g81
g62
NtRp3286
(dp3287
g65
(dp3288
g85
g86
ssg74
g3282
sg67
(lp3289
g224
asbag60
(g81
g62
NtRp3290
(dp3291
g65
(dp3292
g92
g93
ssg74
g3282
sg67
(lp3293
S':'
asbag60
(g81
g62
NtRp3294
(dp3295
g65
(dp3296
sg74
g3282
sg67
(lp3297
g60
(g61
g62
NtRp3298
(dp3299
g65
(dp3300
g73
I5
ssg74
g3294
sg67
(lp3301
g60
(g69
g62
NtRp3302
(dp3303
g65
(dp3304
g73
I4
ssg74
Nsg67
(lp3305
g60
(g76
g62
NtRp3306
(dp3307
g65
(dp3308
sg74
g3302
sg67
(lp3309
g60
(g81
g62
NtRp3310
(dp3311
g65
(dp3312
g85
g86
ssg74
g3306
sg67
(lp3313
S'session_id_desglosar_emails'
p3314
asbag60
(g81
g62
NtRp3315
(dp3316
g65
(dp3317
g92
g93
ssg74
g3306
sg67
(lp3318
S':'
asbag60
(g81
g62
NtRp3319
(dp3320
g65
(dp3321
sg74
g3306
sg67
(lp3322
g60
(g61
g62
NtRp3323
(dp3324
g65
(dp3325
g73
I4
ssg74
g3319
sg67
(lp3326
g60
(g69
g62
NtRp3327
(dp3328
g65
(dp3329
g73
I3
ssg74
Nsg67
(lp3330
g60
(g76
g62
NtRp3331
(dp3332
g65
(dp3333
sg74
g3327
sg67
(lp3334
g60
(g81
g62
NtRp3335
(dp3336
g65
(dp3337
g85
g86
ssg74
g3331
sg67
(lp3338
g274
asbag60
(g81
g62
NtRp3339
(dp3340
g65
(dp3341
g92
g93
ssg74
g3331
sg67
(lp3342
S':'
asbag60
(g81
g62
NtRp3343
(dp3344
g65
(dp3345
sg74
g3331
sg67
(lp3346
g60
(g61
g62
NtRp3347
(dp3348
g65
(dp3349
g73
I3
ssg74
g3343
sg67
(lp3350
S''
asbasbasbag60
(g76
g62
NtRp3351
(dp3352
g65
(dp3353
sg74
g3327
sg67
(lp3354
g60
(g81
g62
NtRp3355
(dp3356
g65
(dp3357
g85
g86
ssg74
g3351
sg67
(lp3358
g295
asbag60
(g81
g62
NtRp3359
(dp3360
g65
(dp3361
g92
g93
ssg74
g3351
sg67
(lp3362
S':'
asbag60
(g81
g62
NtRp3363
(dp3364
g65
(dp3365
sg74
g3351
sg67
(lp3366
g60
(g61
g62
NtRp3367
(dp3368
g65
(dp3369
g73
I3
ssg74
g3363
sg67
(lp3370
S''
asbasbasbag60
(g76
g62
NtRp3371
(dp3372
g65
(dp3373
sg74
g3327
sg67
(lp3374
g60
(g81
g62
NtRp3375
(dp3376
g65
(dp3377
g85
g86
ssg74
g3371
sg67
(lp3378
g316
asbag60
(g81
g62
NtRp3379
(dp3380
g65
(dp3381
g92
g93
ssg74
g3371
sg67
(lp3382
S':'
asbag60
(g81
g62
NtRp3383
(dp3384
g65
(dp3385
sg74
g3371
sg67
(lp3386
g60
(g61
g62
NtRp3387
(dp3388
g65
(dp3389
g73
I3
ssg74
g3383
sg67
(lp3390
S''
asbasbasbag60
(g76
g62
NtRp3391
(dp3392
g65
(dp3393
sg74
g3327
sg67
(lp3394
g60
(g81
g62
NtRp3395
(dp3396
g65
(dp3397
g85
g86
ssg74
g3391
sg67
(lp3398
g337
asbag60
(g81
g62
NtRp3399
(dp3400
g65
(dp3401
g92
g93
ssg74
g3391
sg67
(lp3402
S':'
asbag60
(g81
g62
NtRp3403
(dp3404
g65
(dp3405
sg74
g3391
sg67
(lp3406
g60
(g61
g62
NtRp3407
(dp3408
g65
(dp3409
g73
I3
ssg74
g3403
sg67
(lp3410
S''
asbasbasbag60
(g76
g62
NtRp3411
(dp3412
g65
(dp3413
sg74
g3327
sg67
(lp3414
g60
(g81
g62
NtRp3415
(dp3416
g65
(dp3417
g85
g86
ssg74
g3411
sg67
(lp3418
g358
asbag60
(g81
g62
NtRp3419
(dp3420
g65
(dp3421
g92
g93
ssg74
g3411
sg67
(lp3422
S':'
asbag60
(g81
g62
NtRp3423
(dp3424
g65
(dp3425
sg74
g3411
sg67
(lp3426
g60
(g61
g62
NtRp3427
(dp3428
g65
(dp3429
g73
I3
ssg74
g3423
sg67
(lp3430
S'/'
asbasbasbag60
(g76
g62
NtRp3431
(dp3432
g65
(dp3433
sg74
g3327
sg67
(lp3434
g60
(g81
g62
NtRp3435
(dp3436
g65
(dp3437
g85
g86
ssg74
g3431
sg67
(lp3438
g379
asbag60
(g81
g62
NtRp3439
(dp3440
g65
(dp3441
g92
g93
ssg74
g3431
sg67
(lp3442
S':'
asbag60
(g81
g62
NtRp3443
(dp3444
g65
(dp3445
sg74
g3431
sg67
(lp3446
g60
(g61
g62
NtRp3447
(dp3448
g65
(dp3449
g73
I3
ssg74
g3443
sg67
(lp3450
S''
asbasbasbag60
(g76
g62
NtRp3451
(dp3452
g65
(dp3453
sg74
g3327
sg67
(lp3454
g60
(g81
g62
NtRp3455
(dp3456
g65
(dp3457
g85
g86
ssg74
g3451
sg67
(lp3458
g400
asbag60
(g81
g62
NtRp3459
(dp3460
g65
(dp3461
g92
g93
ssg74
g3451
sg67
(lp3462
S':'
asbag60
(g81
g62
NtRp3463
(dp3464
g65
(dp3465
sg74
g3451
sg67
(lp3466
g60
(g61
g62
NtRp3467
(dp3468
g65
(dp3469
g73
I3
ssg74
g3463
sg67
(lp3470
S''
asbasbasbasbasbasbasbasbasbasbasbag60
(g76
g62
NtRp3471
(dp3472
g65
(dp3473
sg74
g3257
sg67
(lp3474
g60
(g81
g62
NtRp3475
(dp3476
g65
(dp3477
g85
g86
ssg74
g3471
sg67
(lp3478
S'files'
p3479
asbag60
(g81
g62
NtRp3480
(dp3481
g65
(dp3482
g92
g93
ssg74
g3471
sg67
(lp3483
S':'
asbag60
(g81
g62
NtRp3484
(dp3485
g65
(dp3486
sg74
g3471
sg67
(lp3487
g60
(g61
g62
NtRp3488
(dp3489
g65
(dp3490
g73
I5
ssg74
g3484
sg67
(lp3491
g60
(g69
g62
NtRp3492
(dp3493
g65
(dp3494
g73
I4
ssg74
Nsg67
(lp3495
sbasbasbasbag60
(g76
g62
NtRp3496
(dp3497
g65
(dp3498
sg74
g3257
sg67
(lp3499
g60
(g81
g62
NtRp3500
(dp3501
g65
(dp3502
g85
g86
ssg74
g3496
sg67
(lp3503
S'flash'
p3504
asbag60
(g81
g62
NtRp3505
(dp3506
g65
(dp3507
g92
g93
ssg74
g3496
sg67
(lp3508
S':'
asbag60
(g81
g62
NtRp3509
(dp3510
g65
(dp3511
sg74
g3496
sg67
(lp3512
g60
(g61
g62
NtRp3513
(dp3514
g65
(dp3515
g73
I5
ssg74
g3509
sg67
(lp3516
S''
asbasbasbag60
(g76
g62
NtRp3517
(dp3518
g65
(dp3519
sg74
g3257
sg67
(lp3520
g60
(g81
g62
NtRp3521
(dp3522
g65
(dp3523
g85
g86
ssg74
g3517
sg67
(lp3524
S'generic_patterns'
p3525
asbag60
(g81
g62
NtRp3526
(dp3527
g65
(dp3528
g92
g93
ssg74
g3517
sg67
(lp3529
S':'
asbag60
(g81
g62
NtRp3530
(dp3531
g65
(dp3532
sg74
g3517
sg67
(lp3533
g60
(g61
g62
NtRp3534
(dp3535
g65
(dp3536
g73
I5
ssg74
g3530
sg67
(lp3537
g60
(g69
g62
NtRp3538
(dp3539
g65
(dp3540
g73
I4
ssg74
Nsg67
(lp3541
sbasbasbasbag60
(g76
g62
NtRp3542
(dp3543
g65
(dp3544
sg74
g3257
sg67
(lp3545
g60
(g81
g62
NtRp3546
(dp3547
g65
(dp3548
g85
g86
ssg74
g3542
sg67
(lp3549
S'headers'
p3550
asbag60
(g81
g62
NtRp3551
(dp3552
g65
(dp3553
g92
g93
ssg74
g3542
sg67
(lp3554
S':'
asbag60
(g81
g62
NtRp3555
(dp3556
g65
(dp3557
sg74
g3542
sg67
(lp3558
g60
(g61
g62
NtRp3559
(dp3560
g65
(dp3561
g73
I5
ssg74
g3555
sg67
(lp3562
g60
(g69
g62
NtRp3563
(dp3564
g65
(dp3565
g73
I4
ssg74
Nsg67
(lp3566
g60
(g76
g62
NtRp3567
(dp3568
g65
(dp3569
sg74
g3563
sg67
(lp3570
g60
(g81
g62
NtRp3571
(dp3572
g65
(dp3573
g85
g86
ssg74
g3567
sg67
(lp3574
S'Cache-Control'
p3575
asbag60
(g81
g62
NtRp3576
(dp3577
g65
(dp3578
g92
g93
ssg74
g3567
sg67
(lp3579
S':'
asbag60
(g81
g62
NtRp3580
(dp3581
g65
(dp3582
sg74
g3567
sg67
(lp3583
g60
(g61
g62
NtRp3584
(dp3585
g65
(dp3586
g73
I4
ssg74
g3580
sg67
(lp3587
S'no-store, no-cache, must-revalidate, post-check=0, pre-check=0'
p3588
asbasbasbag60
(g76
g62
NtRp3589
(dp3590
g65
(dp3591
sg74
g3563
sg67
(lp3592
g60
(g81
g62
NtRp3593
(dp3594
g65
(dp3595
g85
g86
ssg74
g3589
sg67
(lp3596
S'Content-Type'
p3597
asbag60
(g81
g62
NtRp3598
(dp3599
g65
(dp3600
g92
g93
ssg74
g3589
sg67
(lp3601
S':'
asbag60
(g81
g62
NtRp3602
(dp3603
g65
(dp3604
sg74
g3589
sg67
(lp3605
g60
(g61
g62
NtRp3606
(dp3607
g65
(dp3608
g73
I4
ssg74
g3602
sg67
(lp3609
S'text/html; charset=utf-8'
p3610
asbasbasbag60
(g76
g62
NtRp3611
(dp3612
g65
(dp3613
sg74
g3563
sg67
(lp3614
g60
(g81
g62
NtRp3615
(dp3616
g65
(dp3617
g85
g86
ssg74
g3611
sg67
(lp3618
S'Expires'
p3619
asbag60
(g81
g62
NtRp3620
(dp3621
g65
(dp3622
g92
g93
ssg74
g3611
sg67
(lp3623
S':'
asbag60
(g81
g62
NtRp3624
(dp3625
g65
(dp3626
sg74
g3611
sg67
(lp3627
g60
(g61
g62
NtRp3628
(dp3629
g65
(dp3630
g73
I4
ssg74
g3624
sg67
(lp3631
S'Mon, 19 Sep 2011 04:32:33 GMT'
p3632
asbasbasbag60
(g76
g62
NtRp3633
(dp3634
g65
(dp3635
sg74
g3563
sg67
(lp3636
g60
(g81
g62
NtRp3637
(dp3638
g65
(dp3639
g85
g86
ssg74
g3633
sg67
(lp3640
S'Pragma'
p3641
asbag60
(g81
g62
NtRp3642
(dp3643
g65
(dp3644
g92
g93
ssg74
g3633
sg67
(lp3645
S':'
asbag60
(g81
g62
NtRp3646
(dp3647
g65
(dp3648
sg74
g3633
sg67
(lp3649
g60
(g61
g62
NtRp3650
(dp3651
g65
(dp3652
g73
I4
ssg74
g3646
sg67
(lp3653
S'no-cache'
p3654
asbasbasbag60
(g76
g62
NtRp3655
(dp3656
g65
(dp3657
sg74
g3563
sg67
(lp3658
g60
(g81
g62
NtRp3659
(dp3660
g65
(dp3661
g85
g86
ssg74
g3655
sg67
(lp3662
S'X-Powered-By'
p3663
asbag60
(g81
g62
NtRp3664
(dp3665
g65
(dp3666
g92
g93
ssg74
g3655
sg67
(lp3667
S':'
asbag60
(g81
g62
NtRp3668
(dp3669
g65
(dp3670
sg74
g3655
sg67
(lp3671
g60
(g61
g62
NtRp3672
(dp3673
g65
(dp3674
g73
I4
ssg74
g3668
sg67
(lp3675
S'web2py'
p3676
asbasbasbasbasbasbasbag60
(g76
g62
NtRp3677
(dp3678
g65
(dp3679
sg74
g3257
sg67
(lp3680
g60
(g81
g62
NtRp3681
(dp3682
g65
(dp3683
g85
g86
ssg74
g3677
sg67
(lp3684
S'menu'
p3685
asbag60
(g81
g62
NtRp3686
(dp3687
g65
(dp3688
g92
g93
ssg74
g3677
sg67
(lp3689
S':'
asbag60
(g81
g62
NtRp3690
(dp3691
g65
(dp3692
sg74
g3677
sg67
(lp3693
g60
(g61
g62
NtRp3694
(dp3695
g65
(dp3696
g73
I5
ssg74
g3690
sg67
(lp3697
g60
(g69
g62
NtRp3698
(dp3699
g65
(dp3700
g73
I4
ssg74
Nsg67
(lp3701
sbasbasbasbag60
(g76
g62
NtRp3702
(dp3703
g65
(dp3704
sg74
g3257
sg67
(lp3705
g60
(g81
g62
NtRp3706
(dp3707
g65
(dp3708
g85
g86
ssg74
g3702
sg67
(lp3709
S'meta'
p3710
asbag60
(g81
g62
NtRp3711
(dp3712
g65
(dp3713
g92
g93
ssg74
g3702
sg67
(lp3714
S':'
asbag60
(g81
g62
NtRp3715
(dp3716
g65
(dp3717
sg74
g3702
sg67
(lp3718
g60
(g61
g62
NtRp3719
(dp3720
g65
(dp3721
g73
I5
ssg74
g3715
sg67
(lp3722
g60
(g69
g62
NtRp3723
(dp3724
g65
(dp3725
g73
I4
ssg74
Nsg67
(lp3726
sbasbasbasbag60
(g76
g62
NtRp3727
(dp3728
g65
(dp3729
sg74
g3257
sg67
(lp3730
g60
(g81
g62
NtRp3731
(dp3732
g65
(dp3733
g85
g86
ssg74
g3727
sg67
(lp3734
S'postprocessing'
p3735
asbag60
(g81
g62
NtRp3736
(dp3737
g65
(dp3738
g92
g93
ssg74
g3727
sg67
(lp3739
S':'
asbag60
(g81
g62
NtRp3740
(dp3741
g65
(dp3742
sg74
g3727
sg67
(lp3743
g60
(g61
g62
NtRp3744
(dp3745
g65
(dp3746
g73
I5
ssg74
g3740
sg67
(lp3747
g60
(g69
g62
NtRp3748
(dp3749
g65
(dp3750
g73
I4
ssg74
Nsg67
(lp3751
sbasbasbasbag60
(g76
g62
NtRp3752
(dp3753
g65
(dp3754
sg74
g3257
sg67
(lp3755
g60
(g81
g62
NtRp3756
(dp3757
g65
(dp3758
g85
g86
ssg74
g3752
sg67
(lp3759
S'session_file'
p3760
asbag60
(g81
g62
NtRp3761
(dp3762
g65
(dp3763
g92
g93
ssg74
g3752
sg67
(lp3764
S':'
asbag60
(g81
g62
NtRp3765
(dp3766
g65
(dp3767
sg74
g3752
sg67
(lp3768
g60
(g61
g62
NtRp3769
(dp3770
g65
(dp3771
g73
I5
ssg74
g3765
sg67
(lp3772
S"<open file 'C:\\Users\\Atomico\\web2py\\applications\\Desglosar_Emails\\sessions\\127.0.0.1-0a11b3b2-660c-433c-b71f-fc129286f26c', mode 'rb+' at 0x076C3EC0>"
p3773
asbasbasbag60
(g76
g62
NtRp3774
(dp3775
g65
(dp3776
sg74
g3257
sg67
(lp3777
g60
(g81
g62
NtRp3778
(dp3779
g65
(dp3780
g85
g86
ssg74
g3774
sg67
(lp3781
S'session_filename'
p3782
asbag60
(g81
g62
NtRp3783
(dp3784
g65
(dp3785
g92
g93
ssg74
g3774
sg67
(lp3786
S':'
asbag60
(g81
g62
NtRp3787
(dp3788
g65
(dp3789
sg74
g3774
sg67
(lp3790
g60
(g61
g62
NtRp3791
(dp3792
g65
(dp3793
g73
I5
ssg74
g3787
sg67
(lp3794
S'C:\\Users\\Atomico\\web2py\\applications\\Desglosar_Emails\\sessions\\127.0.0.1-0a11b3b2-660c-433c-b71f-fc129286f26c'
p3795
asbasbasbag60
(g76
g62
NtRp3796
(dp3797
g65
(dp3798
sg74
g3257
sg67
(lp3799
g60
(g81
g62
NtRp3800
(dp3801
g65
(dp3802
g85
g86
ssg74
g3796
sg67
(lp3803
S'session_id'
p3804
asbag60
(g81
g62
NtRp3805
(dp3806
g65
(dp3807
g92
g93
ssg74
g3796
sg67
(lp3808
S':'
asbag60
(g81
g62
NtRp3809
(dp3810
g65
(dp3811
sg74
g3796
sg67
(lp3812
g60
(g61
g62
NtRp3813
(dp3814
g65
(dp3815
g73
I5
ssg74
g3809
sg67
(lp3816
S'127.0.0.1-0a11b3b2-660c-433c-b71f-fc129286f26c'
p3817
asbasbasbag60
(g76
g62
NtRp3818
(dp3819
g65
(dp3820
sg74
g3257
sg67
(lp3821
g60
(g81
g62
NtRp3822
(dp3823
g65
(dp3824
g85
g86
ssg74
g3818
sg67
(lp3825
S'session_id_name'
p3826
asbag60
(g81
g62
NtRp3827
(dp3828
g65
(dp3829
g92
g93
ssg74
g3818
sg67
(lp3830
S':'
asbag60
(g81
g62
NtRp3831
(dp3832
g65
(dp3833
sg74
g3818
sg67
(lp3834
g60
(g61
g62
NtRp3835
(dp3836
g65
(dp3837
g73
I5
ssg74
g3831
sg67
(lp3838
g3314
asbasbasbag60
(g76
g62
NtRp3839
(dp3840
g65
(dp3841
sg74
g3257
sg67
(lp3842
g60
(g81
g62
NtRp3843
(dp3844
g65
(dp3845
g85
g86
ssg74
g3839
sg67
(lp3846
S'session_locked'
p3847
asbag60
(g81
g62
NtRp3848
(dp3849
g65
(dp3850
g92
g93
ssg74
g3839
sg67
(lp3851
S':'
asbag60
(g81
g62
NtRp3852
(dp3853
g65
(dp3854
sg74
g3839
sg67
(lp3855
g60
(g61
g62
NtRp3856
(dp3857
g65
(dp3858
g73
I5
ssg74
g3852
sg67
(lp3859
g2193
asbasbasbag60
(g76
g62
NtRp3860
(dp3861
g65
(dp3862
sg74
g3257
sg67
(lp3863
g60
(g81
g62
NtRp3864
(dp3865
g65
(dp3866
g85
g86
ssg74
g3860
sg67
(lp3867
S'session_new'
p3868
asbag60
(g81
g62
NtRp3869
(dp3870
g65
(dp3871
g92
g93
ssg74
g3860
sg67
(lp3872
S':'
asbag60
(g81
g62
NtRp3873
(dp3874
g65
(dp3875
sg74
g3860
sg67
(lp3876
g60
(g61
g62
NtRp3877
(dp3878
g65
(dp3879
g73
I5
ssg74
g3873
sg67
(lp3880
g103
asbasbasbag60
(g76
g62
NtRp3881
(dp3882
g65
(dp3883
sg74
g3257
sg67
(lp3884
g60
(g81
g62
NtRp3885
(dp3886
g65
(dp3887
g85
g86
ssg74
g3881
sg67
(lp3888
S'status'
p3889
asbag60
(g81
g62
NtRp3890
(dp3891
g65
(dp3892
g92
g93
ssg74
g3881
sg67
(lp3893
S':'
asbag60
(g81
g62
NtRp3894
(dp3895
g65
(dp3896
sg74
g3881
sg67
(lp3897
g60
(g61
g62
NtRp3898
(dp3899
g65
(dp3900
g73
I5
ssg74
g3894
sg67
(lp3901
S'200'
p3902
asbasbasbag60
(g76
g62
NtRp3903
(dp3904
g65
(dp3905
sg74
g3257
sg67
(lp3906
g60
(g81
g62
NtRp3907
(dp3908
g65
(dp3909
g85
g86
ssg74
g3903
sg67
(lp3910
g2517
asbag60
(g81
g62
NtRp3911
(dp3912
g65
(dp3913
g92
g93
ssg74
g3903
sg67
(lp3914
S':'
asbag60
(g81
g62
NtRp3915
(dp3916
g65
(dp3917
sg74
g3903
sg67
(lp3918
g60
(g61
g62
NtRp3919
(dp3920
g65
(dp3921
g73
I5
ssg74
g3915
sg67
(lp3922
g2530
asbasbasbag60
(g76
g62
NtRp3923
(dp3924
g65
(dp3925
sg74
g3257
sg67
(lp3926
g60
(g81
g62
NtRp3927
(dp3928
g65
(dp3929
g85
g86
ssg74
g3923
sg67
(lp3930
S'view'
p3931
asbag60
(g81
g62
NtRp3932
(dp3933
g65
(dp3934
g92
g93
ssg74
g3923
sg67
(lp3935
S':'
asbag60
(g81
g62
NtRp3936
(dp3937
g65
(dp3938
sg74
g3923
sg67
(lp3939
g60
(g61
g62
NtRp3940
(dp3941
g65
(dp3942
g73
I5
ssg74
g3936
sg67
(lp3943
S'default/index.html'
p3944
asbasbasbasbasbsS'locals'
p3945
(dp3946
g13
S"'cumplea\\xc3\\xb1os'"
p3947
sssS'traceback'
p3948
S'Traceback (most recent call last):\n  File "gluon/restricted.py", line 192, in restricted\n  File "C:\\Users\\Atomico\\web2py\\applications\\Desglosar_Emails\\models\\db.py", line 21, in <module>\n  File "gluon/dal.py", line 5211, in __init__\n  File "gluon/dal.py", line 3557, in cleanup\nSyntaxError: only [0-9a-zA-Z_] allowed in table and field names, received cumplea\xc3\xb1os\n'
p3949
s.