(dp1
S'output'
p2
S''
sS'layer'
p3
S'C:\\Users\\Atomico\\web2py\\applications\\Desglosar_Emails\\views\\default/entrada_mod3.html'
p4
sS'code'
p5
S'response.write(\'<!DOCTYPE html>\\n<html lang="\', escape=False)\nresponse.write(T.accepted_language or \'en\')\nresponse.write(\'" class="no-js"><!-- no-js need it for modernzr -->\\n  <head>\\n    \\n    <meta charset="utf-8" />\\t  \\t\\n    <!-- www.phpied.com/conditional-comments-block-downloads/ -->\\n    <!--[if IE]><![endif]-->    \\n    <!-- Always force latest IE rendering engine \\n\\t (even in intranet) & Chrome Frame \\n\\t Remove this if you use the .htaccess -->\\n    <meta http-equiv="X-UA-Compatible" content="IE=edge,chrome=1">\\n    \\n    <title>\', escape=False)\nresponse.write(response.title or request.application)\nresponse.write(\'</title>\\n    \\n    <!-- http://dev.w3.org/html5/markup/meta.name.html -->\\n    <meta name="application-name" content="\', escape=False)\nresponse.write(request.application)\nresponse.write(\'" />\\t\\n    \\n    <!-- Speaking of Google, don\\\'t forget to set your site up: \\n\\t http://google.com/webmasters -->\\n    <meta name="google-site-verification" content="" />\\n    \\n    <!--  Mobile Viewport Fix\\n\\t  j.mp/mobileviewport & davidbcalhoun.com/2010/viewport-metatag \\n\\t  device-width: Occupy full width of the screen in its current orientation\\n\\t  initial-scale = 1.0 retains dimensions instead of zooming out if page height > device height\\n\\t  maximum-scale = 1.0 retains dimensions instead of zooming in if page width < device width\\n      -->\\n    <meta name="viewport" content="width=device-width, initial-scale=1.0, maximum-scale=1.0">\\n    \\n    <!-- Place favicon.ico and apple-touch-icon.png in the root of your domain and delete these references -->\\n    <link rel="shortcut icon" href="\', escape=False)\nresponse.write(URL(\'static\',\'favicon.ico\'))\nresponse.write(\'" type="image/x-icon">\\n    <link rel="apple-touch-icon" href="\', escape=False)\nresponse.write(URL(\'static\',\'favicon.png\'))\nresponse.write(\'">\\n\\n    <!-- For the less-enabled mobile browsers like Opera Mini -->\\n    <link rel="stylesheet" media="handheld" href="\', escape=False)\nresponse.write(URL(\'static\',\'css/handheld.css\'))\nresponse.write(\'">\\n    \\n    <!-- All JavaScript at the bottom, except for Modernizr which enables HTML5 elements & feature detects -->\\n    <script src="\', escape=False)\nresponse.write(URL(\'static\',\'js/modernizr-1.7.min.js\'))\nresponse.write(\'"></script>\\n    \\n    \', escape=False)\n#------  require CSS and JS files for this page (read info in base.css) ------\nresponse.write(\'\\n    \', escape=False)\nresponse.files.append(URL(\'static\',\'css/base.css\'))\nresponse.write(\'\\n    \', escape=False)\nresponse.files.append(URL(\'static\',\'css/superfish.css\'))\nresponse.write(\'\\n    \', escape=False)\nresponse.files.append(URL(\'static\',\'js/superfish.js\'))\nresponse.write(\'\\n    \', escape=False)\n#------ include web2py specific js code (jquery, calendar, form stuff) ------\nresponse.write(\'\\n    \', escape=False)\nresponse.files.insert(0,URL(\'static\',\'js/jquery.js\'))\nresponse.files.insert(1,URL(\'static\',\'css/calendar.css\'))\nresponse.files.insert(2,URL(\'static\',\'js/calendar.js\'))\nfor _item in response.meta or []:\n    response.write(\'\\n     <meta name="\', escape=False)\n    response.write(_item)\n    response.write(\'" content="\', escape=False)\n    response.write(response.meta[_item])\n    response.write(\'" />\', escape=False)\n    pass\nfor _k,_file in enumerate(response.files or []):\n    if _file in response.files[:_k]:\n        continue\n    _file0=_file.lower().split(\'?\')[0]\n    if _file0.endswith(\'.css\'):\n        response.write(\'\\n     <link href="\', escape=False)\n        response.write(_file)\n        response.write(\'" rel="stylesheet" type="text/css" />\', escape=False)\n    elif _file0.endswith(\'.js\'):\n        response.write(\'\\n     <script src="\', escape=False)\n        response.write(_file)\n        response.write(\'" type="text/javascript"></script>\', escape=False)\n        pass\n    pass\nresponse.write(\'\\n    <script type="text/javascript"><!--\\n    // These variables are used by the web2py_ajax_init function in web2py_ajax.js (which is loaded below).\\n    var w2p_ajax_confirm_message = "\', escape=False)\nresponse.write(T(\'Are you sure you want to delete this object?\'))\nresponse.write(\'";\\n    var w2p_ajax_date_format = "\', escape=False)\nresponse.write(T(\'%Y-%m-%d\'))\nresponse.write(\'";\\n    var w2p_ajax_datetime_format = "\', escape=False)\nresponse.write(T(\'%Y-%m-%d %H:%M:%S\'))\nresponse.write(\'";\\n    //--></script>\\n    <script src="\', escape=False)\nresponse.write(URL(\'static\',\'js/web2py_ajax.js\'))\nresponse.write(\'" type="text/javascript"></script>\\n\', escape=False)\nresponse.write(\'\\n\\n    \', escape=False)\n#using sidebars need to know what sidebar you want to use\n#prior of using it, because of static width size of content, you can use\n#left_sidebar, right_sidebar, both or none (False left and right)\nleft_sidebar_enabled = globals().get(\'left_sidebar_enabled\',False)\nright_sidebar_enabled = globals().get(\'right_sidebar_enabled\',False)\nif left_sidebar_enabled and right_sidebar_enabled: width_content=\'63%\'\nelif left_sidebar_enabled != right_sidebar_enabled: width_content=\'740px\'\nelse: width_content=\'100%\'\nif left_sidebar_enabled: left_sidebar_style = \'style="display: block;"\'\nelse: left_sidebar_style = \'style="display: none;"\'\nif right_sidebar_enabled: right_sidebar_style = \'style="display: block;"\'\nelse: right_sidebar_style = \'style="display: none;"\'\nstyle_content = \'style="width: %s"\' % width_content\nresponse.write(\'\\n  </head>\\n  \\n  <!-- paulirish.com/2008/conditional-stylesheets-vs-css-hacks-answer-neither/ -->\\t\\n  <!--[if lt IE 7 ]> <body class="ie6"> <![endif]-->\\n  <!--[if IE 7 ]>    <body class="ie7"> <![endif]-->\\n  <!--[if IE 8 ]>    <body class="ie8"> <![endif]-->\\n  <!--[if IE 9 ]>    <body class="ie9"> <![endif]-->\\n  <!--[if (gt IE 9)|!(IE)]><!--> <body> <!--<![endif]-->\\n    \\n    <div class="flash">\', escape=False)\nresponse.write(response.flash or \'\')\nresponse.write(\'</div> <!-- notification div -->\\n    \\n    <div id="container">\\t      \\t\\t      \\t\\n      \\n      <div id="wrapper">\\t\\t\\n\\t\\n\\t<div id="header"> <!-- header and login nav -->\\n\\t  \', escape=False)\nresponse.write(\' <!-- this is default header -->\\n\\t  \', escape=False)\ntry:\n    response.write(auth.navbar(action=URL(\'default\',\'user\')))\nexcept:pass\nresponse.write(\'\\t\\t          \\n\\t  <h1><span id="appname">\', escape=False)\nresponse.write(request.application.capitalize())\nresponse.write(\'</span>App</h1>\\n\\t  <div style="clear: both;"></div><!-- Clear the divs -->\\n\\t  \', escape=False)\nresponse.write(\'\\t\\t\\t\\t  \\t\\t\\t\\t\\t  \\n\\t</div><!-- header  -->\\n\\t\\n\\t<div id="statusbar"><!-- statusbar is menu zone -->\\n\\t  \', escape=False)\nresponse.write(\' <!-- this is default statusbar -->\\n\\t  \', escape=False)\n#------ superfish menu ------\nresponse.write(\'\\n\\t  \', escape=False)\nresponse.write(MENU(response.menu,_class=\'sf-menu\'))\nresponse.write(\'\\n\\t  <script type="text/javascript">\\n\\t    jQuery(document).ready(function(){\\n\\t    jQuery(\\\'ul.sf-menu\\\').superfish();});\\n\\t  </script>\\n\\t  <div style="clear: both;"></div><!-- Clear the divs -->\\t\\n\\t  \', escape=False)\nresponse.write(\'\\t\\t\\t\\t\\n\\t</div><!-- statusbar -->\\n\\t\\n\\t<div id="page"> <!-- Here my central body -->\\t  \\n\\n\\t  \', escape=False)\nif left_sidebar_enabled:\n    response.write(\'\\n          <div id="left_sidebar" \', escape=False)\n    response.write(XML(left_sidebar_style))\n    response.write(\' >\\n            <div style="padding: 4px;">\\n\\t      \', escape=False)\n    response.write(\'Content Left Sidebar\', escape=False)\n    response.write(\'\\t\\t  \\n            </div>\\n          </div><!-- left_sidebar -->\\n\\t  \', escape=False)\n    pass\nresponse.write(\'\\n\\n\\t  <!-- content -->\\n\\t  <div id="content" \', escape=False)\nresponse.write(XML(style_content))\nresponse.write(\' >\\n\\t    \', escape=False)\nresponse.write(\'\\r\\n<h1>Esta es la plantilla default/entrada_mod3.html</h1>\\r\\n<h2>Formulario</h2>\\r\\n\', escape=False)\nresponse.write(form)\nresponse.write(\'\\r\\n<br/>\\r\\n<h3>Tratamientos</h3>\\r\\n\', escape=False)\ntextual=db(db.info4.id==1).select()[0]\ntxt=textual.texto\nimport re\npattern=re.compile("\\w+.\\w+.\\w+.\\w.")\npatternemail=re.compile("@\\w+[.]\\w+.\\w+")\nres=pattern.findall(txt)\nres2=patternemail.findall(txt)\nfor i in res: response.write (i+\'    \')\nresponse.write(\'En total son \', escape=False)\nresponse.write(len(res))\nresponse.write(\' nombres sueltos <br/> \', escape=False)\nfor i in res2: response.write(i+\'    \')\nresponse.write(\'En total son \', escape=False)\nresponse.write(len(res2))\nresponse.write(\' conf de emails sueltos <br/> \', escape=False)\ni=0\nwhile i<len(res):\n    if patternemail.search(res[i]):\n        bol=\'True\'\n    else:\n        bol=\'False\'\n        pass\n    response.write(\'<br> i es: \'+str(i)+\' y patternemail para la palabra \'+res[i]+\' es \'+bol ,escape=False)\n    if not patternemail.search(res[i]):\n        cadena=\'\'\n        while not patternemail.search(res[i]):\n            cadena=cadena+res[i]\n            i=i+1\n            pass\n        db.contactos.insert(nombre=cadena,email=res[i])\n        i=i+1\n    else:\n        db.contactos.insert(email=res[i])\n        i=i+1\n        pass\n    pass\nresponse.write(\'\\r\\n\', escape=False)\nlista=db().select(db.contactos.ALL)\nresponse.write(lista)\nresponse.write(\'\\r\\n\', escape=False)\nresponse.write(\'\\t\\n\\t  </div>\\n\\t  <!-- content -->\\n\\n\\t  \', escape=False)\nif right_sidebar_enabled:\n    response.write(\'\\n          <div id="right_sidebar" \', escape=False)\n    response.write(XML(right_sidebar_style))\n    response.write(\' >\\n            <div style="padding: 4px;">\\n              \', escape=False)\n    response.write(\'Content Right Sidebar\', escape=False)\n    response.write(\'\\n            </div>\\n\\t  </div><!-- right_sidebar -->\\n          \', escape=False)\n    pass\nresponse.write(\'\\n\\n\\n\\t  <div style="clear: both;"></div><!-- Clear the divs -->\\n\\t  \\n\\t</div><!-- page -->\\t\\t\\t\\t\\t\\t\\t\\n\\t\\n\\t<div id="footer">\\n\\t  \', escape=False)\nresponse.write(\' <!-- this is default footer -->\\n\\t  <a href="http://www.web2py.com/" style="float: left; padding-right: 6px;">\\n\\t    <img src="\', escape=False)\nresponse.write(URL(\'static\',\'images/poweredby.png\'))\nresponse.write(\'"/>\\n\\t  </a>\\n\\t  \', escape=False)\nresponse.write(T(\'Copyright\'))\nresponse.write(\' &#169; 2010\\t\\t\\t\\t\\n\\t  <div style="clear: both;"></div><!-- Clear the divs -->\\n\\t  \', escape=False)\nresponse.write(\'\\n\\n\\t</div><!-- footer -->\\t\\t\\t\\n      </div><!-- wrapper -->\\n    </div><!-- container -->\\t\\t\\n    \\n    <!--[if lt IE 7 ]>\\n\\t<script src="\', escape=False)\nresponse.write(URL(\'static\',\'js/dd_belatedpng.js\'))\nresponse.write(\'"></script>\\n\\t<script> DD_belatedPNG.fix(\\\'img, .png_bg\\\'); //fix any <img> or .png_bg background-images </script>\\n\\t<![endif]-->\\n    \\n    <!-- asynchronous google analytics: mathiasbynens.be/notes/async-analytics-snippet \\n\\t change the UA-XXXXX-X to be your site\\\'s ID -->\\n    <!--   \\n\\t   <script>\\n\\t     var _gaq = [[\\\'_setAccount\\\', \\\'UA-XXXXX-X\\\'], [\\\'_trackPageview\\\']];\\n\\t     (function(d, t) {\\n\\t     var g = d.createElement(t),\\n\\t     s = d.getElementsByTagName(t)[0];\\n\\t     g.async = true;\\n\\t     g.src = \\\'//www.google-analytics.com/ga.js\\\';\\n\\t     s.parentNode.insertBefore(g, s);\\n\\t     })(document, \\\'script\\\');\\n\\t   </script>\\n\\t   -->    \\n  </body>\\n</html>\\n\', escape=False)'
p6
sS'snapshot'
p7
(dp8
S'exception'
p9
(dp10
S'__hash__'
p11
S"<method-wrapper '__hash__' of exceptions.IndexError object at 0x07C4A2D8>"
p12
sS'__setattr__'
p13
S"<method-wrapper '__setattr__' of exceptions.IndexError object at 0x07C4A2D8>"
p14
sS'__reduce_ex__'
p15
S'<built-in method __reduce_ex__ of exceptions.IndexError object at 0x07C4A2D8>'
p16
sS'__getslice__'
p17
S"<method-wrapper '__getslice__' of exceptions.IndexError object at 0x07C4A2D8>"
p18
sS'__getitem__'
p19
S"<method-wrapper '__getitem__' of exceptions.IndexError object at 0x07C4A2D8>"
p20
sS'__setstate__'
p21
S'<built-in method __setstate__ of exceptions.IndexError object at 0x07C4A2D8>'
p22
sS'__reduce__'
p23
S'<built-in method __reduce__ of exceptions.IndexError object at 0x07C4A2D8>'
p24
sS'__str__'
p25
S"<method-wrapper '__str__' of exceptions.IndexError object at 0x07C4A2D8>"
p26
sS'args'
p27
S"('list index out of range',)"
p28
sS'__getattribute__'
p29
S"<method-wrapper '__getattribute__' of exceptions.IndexError object at 0x07C4A2D8>"
p30
sS'__class__'
p31
S"<type 'exceptions.IndexError'>"
p32
sS'__delattr__'
p33
S"<method-wrapper '__delattr__' of exceptions.IndexError object at 0x07C4A2D8>"
p34
sS'__repr__'
p35
S"<method-wrapper '__repr__' of exceptions.IndexError object at 0x07C4A2D8>"
p36
sS'__dict__'
p37
S'{}'
p38
sS'__doc__'
p39
S"'Sequence index out of range.'"
p40
sS'__init__'
p41
S"<method-wrapper '__init__' of exceptions.IndexError object at 0x07C4A2D8>"
p42
sS'__new__'
p43
S'<built-in method __new__ of type object at 0x1E1CDEF0>'
p44
ssS'evalue'
p45
S'list index out of range'
p46
sS'request'
p47
ccopy_reg
_reconstructor
p48
(cgluon.html
BEAUTIFY
p49
c__builtin__
object
p50
NtRp51
(dp52
S'attributes'
p53
(dp54
sS'components'
p55
(lp56
g48
(cgluon.html
TABLE
p57
g50
NtRp58
(dp59
g53
(dp60
S'level'
p61
I5
ssS'parent'
p62
Nsg55
(lp63
g48
(cgluon.html
TR
p64
g50
NtRp65
(dp66
g53
(dp67
sg62
g58
sg55
(lp68
g48
(cgluon.html
TD
p69
g50
NtRp70
(dp71
g53
(dp72
S'_style'
p73
S'font-weight:bold;'
p74
ssg62
g65
sg55
(lp75
S'ajax'
p76
asbag48
(g69
g50
NtRp77
(dp78
g53
(dp79
S'_valign'
p80
S'top'
p81
ssg62
g65
sg55
(lp82
S':'
asbag48
(g69
g50
NtRp83
(dp84
g53
(dp85
sg62
g65
sg55
(lp86
g48
(g49
g50
NtRp87
(dp88
g53
(dp89
g61
I5
ssg62
g83
sg55
(lp90
S'False'
p91
asbasbasbag48
(g64
g50
NtRp92
(dp93
g53
(dp94
sg62
g58
sg55
(lp95
g48
(g69
g50
NtRp96
(dp97
g53
(dp98
g73
g74
ssg62
g92
sg55
(lp99
S'application'
p100
asbag48
(g69
g50
NtRp101
(dp102
g53
(dp103
g80
g81
ssg62
g92
sg55
(lp104
S':'
asbag48
(g69
g50
NtRp105
(dp106
g53
(dp107
sg62
g92
sg55
(lp108
g48
(g49
g50
NtRp109
(dp110
g53
(dp111
g61
I5
ssg62
g105
sg55
(lp112
S'Desglosar_Emails'
p113
asbasbasbag48
(g64
g50
NtRp114
(dp115
g53
(dp116
sg62
g58
sg55
(lp117
g48
(g69
g50
NtRp118
(dp119
g53
(dp120
g73
g74
ssg62
g114
sg55
(lp121
g27
asbag48
(g69
g50
NtRp122
(dp123
g53
(dp124
g80
g81
ssg62
g114
sg55
(lp125
S':'
asbag48
(g69
g50
NtRp126
(dp127
g53
(dp128
sg62
g114
sg55
(lp129
g48
(g49
g50
NtRp130
(dp131
g53
(dp132
g61
I5
ssg62
g126
sg55
(lp133
g48
(g57
g50
NtRp134
(dp135
g53
(dp136
g61
I4
ssg62
Nsg55
(lp137
sbasbasbasbag48
(g64
g50
NtRp138
(dp139
g53
(dp140
sg62
g58
sg55
(lp141
g48
(g69
g50
NtRp142
(dp143
g53
(dp144
g73
g74
ssg62
g138
sg55
(lp145
S'body'
p146
asbag48
(g69
g50
NtRp147
(dp148
g53
(dp149
g80
g81
ssg62
g138
sg55
(lp150
S':'
asbag48
(g69
g50
NtRp151
(dp152
g53
(dp153
sg62
g138
sg55
(lp154
g48
(g49
g50
NtRp155
(dp156
g53
(dp157
g61
I5
ssg62
g151
sg55
(lp158
S'<cStringIO.StringO object at 0x0764ACE0>'
p159
asbasbasbag48
(g64
g50
NtRp160
(dp161
g53
(dp162
sg62
g58
sg55
(lp163
g48
(g69
g50
NtRp164
(dp165
g53
(dp166
g73
g74
ssg62
g160
sg55
(lp167
S'client'
p168
asbag48
(g69
g50
NtRp169
(dp170
g53
(dp171
g80
g81
ssg62
g160
sg55
(lp172
S':'
asbag48
(g69
g50
NtRp173
(dp174
g53
(dp175
sg62
g160
sg55
(lp176
g48
(g49
g50
NtRp177
(dp178
g53
(dp179
g61
I5
ssg62
g173
sg55
(lp180
S'127.0.0.1'
p181
asbasbasbag48
(g64
g50
NtRp182
(dp183
g53
(dp184
sg62
g58
sg55
(lp185
g48
(g69
g50
NtRp186
(dp187
g53
(dp188
g73
g74
ssg62
g182
sg55
(lp189
S'controller'
p190
asbag48
(g69
g50
NtRp191
(dp192
g53
(dp193
g80
g81
ssg62
g182
sg55
(lp194
S':'
asbag48
(g69
g50
NtRp195
(dp196
g53
(dp197
sg62
g182
sg55
(lp198
g48
(g49
g50
NtRp199
(dp200
g53
(dp201
g61
I5
ssg62
g195
sg55
(lp202
S'default'
p203
asbasbasbag48
(g64
g50
NtRp204
(dp205
g53
(dp206
sg62
g58
sg55
(lp207
g48
(g69
g50
NtRp208
(dp209
g53
(dp210
g73
g74
ssg62
g204
sg55
(lp211
S'cookies'
p212
asbag48
(g69
g50
NtRp213
(dp214
g53
(dp215
g80
g81
ssg62
g204
sg55
(lp216
S':'
asbag48
(g69
g50
NtRp217
(dp218
g53
(dp219
sg62
g204
sg55
(lp220
g48
(g49
g50
NtRp221
(dp222
g53
(dp223
g61
I5
ssg62
g217
sg55
(lp224
g48
(g57
g50
NtRp225
(dp226
g53
(dp227
g61
I4
ssg62
Nsg55
(lp228
g48
(g64
g50
NtRp229
(dp230
g53
(dp231
sg62
g225
sg55
(lp232
g48
(g69
g50
NtRp233
(dp234
g53
(dp235
g73
g74
ssg62
g229
sg55
(lp236
S'session_id_admin'
p237
asbag48
(g69
g50
NtRp238
(dp239
g53
(dp240
g80
g81
ssg62
g229
sg55
(lp241
S':'
asbag48
(g69
g50
NtRp242
(dp243
g53
(dp244
sg62
g229
sg55
(lp245
g48
(g49
g50
NtRp246
(dp247
g53
(dp248
g61
I4
ssg62
g242
sg55
(lp249
g48
(g57
g50
NtRp250
(dp251
g53
(dp252
g61
I3
ssg62
Nsg55
(lp253
g48
(g64
g50
NtRp254
(dp255
g53
(dp256
sg62
g250
sg55
(lp257
g48
(g69
g50
NtRp258
(dp259
g53
(dp260
g73
g74
ssg62
g254
sg55
(lp261
S'comment'
p262
asbag48
(g69
g50
NtRp263
(dp264
g53
(dp265
g80
g81
ssg62
g254
sg55
(lp266
S':'
asbag48
(g69
g50
NtRp267
(dp268
g53
(dp269
sg62
g254
sg55
(lp270
g48
(g49
g50
NtRp271
(dp272
g53
(dp273
g61
I3
ssg62
g267
sg55
(lp274
S''
asbasbasbag48
(g64
g50
NtRp275
(dp276
g53
(dp277
sg62
g250
sg55
(lp278
g48
(g69
g50
NtRp279
(dp280
g53
(dp281
g73
g74
ssg62
g275
sg55
(lp282
S'domain'
p283
asbag48
(g69
g50
NtRp284
(dp285
g53
(dp286
g80
g81
ssg62
g275
sg55
(lp287
S':'
asbag48
(g69
g50
NtRp288
(dp289
g53
(dp290
sg62
g275
sg55
(lp291
g48
(g49
g50
NtRp292
(dp293
g53
(dp294
g61
I3
ssg62
g288
sg55
(lp295
S''
asbasbasbag48
(g64
g50
NtRp296
(dp297
g53
(dp298
sg62
g250
sg55
(lp299
g48
(g69
g50
NtRp300
(dp301
g53
(dp302
g73
g74
ssg62
g296
sg55
(lp303
S'expires'
p304
asbag48
(g69
g50
NtRp305
(dp306
g53
(dp307
g80
g81
ssg62
g296
sg55
(lp308
S':'
asbag48
(g69
g50
NtRp309
(dp310
g53
(dp311
sg62
g296
sg55
(lp312
g48
(g49
g50
NtRp313
(dp314
g53
(dp315
g61
I3
ssg62
g309
sg55
(lp316
S''
asbasbasbag48
(g64
g50
NtRp317
(dp318
g53
(dp319
sg62
g250
sg55
(lp320
g48
(g69
g50
NtRp321
(dp322
g53
(dp323
g73
g74
ssg62
g317
sg55
(lp324
S'max-age'
p325
asbag48
(g69
g50
NtRp326
(dp327
g53
(dp328
g80
g81
ssg62
g317
sg55
(lp329
S':'
asbag48
(g69
g50
NtRp330
(dp331
g53
(dp332
sg62
g317
sg55
(lp333
g48
(g49
g50
NtRp334
(dp335
g53
(dp336
g61
I3
ssg62
g330
sg55
(lp337
S''
asbasbasbag48
(g64
g50
NtRp338
(dp339
g53
(dp340
sg62
g250
sg55
(lp341
g48
(g69
g50
NtRp342
(dp343
g53
(dp344
g73
g74
ssg62
g338
sg55
(lp345
S'path'
p346
asbag48
(g69
g50
NtRp347
(dp348
g53
(dp349
g80
g81
ssg62
g338
sg55
(lp350
S':'
asbag48
(g69
g50
NtRp351
(dp352
g53
(dp353
sg62
g338
sg55
(lp354
g48
(g49
g50
NtRp355
(dp356
g53
(dp357
g61
I3
ssg62
g351
sg55
(lp358
S''
asbasbasbag48
(g64
g50
NtRp359
(dp360
g53
(dp361
sg62
g250
sg55
(lp362
g48
(g69
g50
NtRp363
(dp364
g53
(dp365
g73
g74
ssg62
g359
sg55
(lp366
S'secure'
p367
asbag48
(g69
g50
NtRp368
(dp369
g53
(dp370
g80
g81
ssg62
g359
sg55
(lp371
S':'
asbag48
(g69
g50
NtRp372
(dp373
g53
(dp374
sg62
g359
sg55
(lp375
g48
(g49
g50
NtRp376
(dp377
g53
(dp378
g61
I3
ssg62
g372
sg55
(lp379
S''
asbasbasbag48
(g64
g50
NtRp380
(dp381
g53
(dp382
sg62
g250
sg55
(lp383
g48
(g69
g50
NtRp384
(dp385
g53
(dp386
g73
g74
ssg62
g380
sg55
(lp387
S'version'
p388
asbag48
(g69
g50
NtRp389
(dp390
g53
(dp391
g80
g81
ssg62
g380
sg55
(lp392
S':'
asbag48
(g69
g50
NtRp393
(dp394
g53
(dp395
sg62
g380
sg55
(lp396
g48
(g49
g50
NtRp397
(dp398
g53
(dp399
g61
I3
ssg62
g393
sg55
(lp400
S''
asbasbasbasbasbasbasbag48
(g64
g50
NtRp401
(dp402
g53
(dp403
sg62
g225
sg55
(lp404
g48
(g69
g50
NtRp405
(dp406
g53
(dp407
g73
g74
ssg62
g401
sg55
(lp408
S'session_id_borrar2'
p409
asbag48
(g69
g50
NtRp410
(dp411
g53
(dp412
g80
g81
ssg62
g401
sg55
(lp413
S':'
asbag48
(g69
g50
NtRp414
(dp415
g53
(dp416
sg62
g401
sg55
(lp417
g48
(g49
g50
NtRp418
(dp419
g53
(dp420
g61
I4
ssg62
g414
sg55
(lp421
g48
(g57
g50
NtRp422
(dp423
g53
(dp424
g61
I3
ssg62
Nsg55
(lp425
g48
(g64
g50
NtRp426
(dp427
g53
(dp428
sg62
g422
sg55
(lp429
g48
(g69
g50
NtRp430
(dp431
g53
(dp432
g73
g74
ssg62
g426
sg55
(lp433
g262
asbag48
(g69
g50
NtRp434
(dp435
g53
(dp436
g80
g81
ssg62
g426
sg55
(lp437
S':'
asbag48
(g69
g50
NtRp438
(dp439
g53
(dp440
sg62
g426
sg55
(lp441
g48
(g49
g50
NtRp442
(dp443
g53
(dp444
g61
I3
ssg62
g438
sg55
(lp445
S''
asbasbasbag48
(g64
g50
NtRp446
(dp447
g53
(dp448
sg62
g422
sg55
(lp449
g48
(g69
g50
NtRp450
(dp451
g53
(dp452
g73
g74
ssg62
g446
sg55
(lp453
g283
asbag48
(g69
g50
NtRp454
(dp455
g53
(dp456
g80
g81
ssg62
g446
sg55
(lp457
S':'
asbag48
(g69
g50
NtRp458
(dp459
g53
(dp460
sg62
g446
sg55
(lp461
g48
(g49
g50
NtRp462
(dp463
g53
(dp464
g61
I3
ssg62
g458
sg55
(lp465
S''
asbasbasbag48
(g64
g50
NtRp466
(dp467
g53
(dp468
sg62
g422
sg55
(lp469
g48
(g69
g50
NtRp470
(dp471
g53
(dp472
g73
g74
ssg62
g466
sg55
(lp473
g304
asbag48
(g69
g50
NtRp474
(dp475
g53
(dp476
g80
g81
ssg62
g466
sg55
(lp477
S':'
asbag48
(g69
g50
NtRp478
(dp479
g53
(dp480
sg62
g466
sg55
(lp481
g48
(g49
g50
NtRp482
(dp483
g53
(dp484
g61
I3
ssg62
g478
sg55
(lp485
S''
asbasbasbag48
(g64
g50
NtRp486
(dp487
g53
(dp488
sg62
g422
sg55
(lp489
g48
(g69
g50
NtRp490
(dp491
g53
(dp492
g73
g74
ssg62
g486
sg55
(lp493
g325
asbag48
(g69
g50
NtRp494
(dp495
g53
(dp496
g80
g81
ssg62
g486
sg55
(lp497
S':'
asbag48
(g69
g50
NtRp498
(dp499
g53
(dp500
sg62
g486
sg55
(lp501
g48
(g49
g50
NtRp502
(dp503
g53
(dp504
g61
I3
ssg62
g498
sg55
(lp505
S''
asbasbasbag48
(g64
g50
NtRp506
(dp507
g53
(dp508
sg62
g422
sg55
(lp509
g48
(g69
g50
NtRp510
(dp511
g53
(dp512
g73
g74
ssg62
g506
sg55
(lp513
g346
asbag48
(g69
g50
NtRp514
(dp515
g53
(dp516
g80
g81
ssg62
g506
sg55
(lp517
S':'
asbag48
(g69
g50
NtRp518
(dp519
g53
(dp520
sg62
g506
sg55
(lp521
g48
(g49
g50
NtRp522
(dp523
g53
(dp524
g61
I3
ssg62
g518
sg55
(lp525
S''
asbasbasbag48
(g64
g50
NtRp526
(dp527
g53
(dp528
sg62
g422
sg55
(lp529
g48
(g69
g50
NtRp530
(dp531
g53
(dp532
g73
g74
ssg62
g526
sg55
(lp533
g367
asbag48
(g69
g50
NtRp534
(dp535
g53
(dp536
g80
g81
ssg62
g526
sg55
(lp537
S':'
asbag48
(g69
g50
NtRp538
(dp539
g53
(dp540
sg62
g526
sg55
(lp541
g48
(g49
g50
NtRp542
(dp543
g53
(dp544
g61
I3
ssg62
g538
sg55
(lp545
S''
asbasbasbag48
(g64
g50
NtRp546
(dp547
g53
(dp548
sg62
g422
sg55
(lp549
g48
(g69
g50
NtRp550
(dp551
g53
(dp552
g73
g74
ssg62
g546
sg55
(lp553
g388
asbag48
(g69
g50
NtRp554
(dp555
g53
(dp556
g80
g81
ssg62
g546
sg55
(lp557
S':'
asbag48
(g69
g50
NtRp558
(dp559
g53
(dp560
sg62
g546
sg55
(lp561
g48
(g49
g50
NtRp562
(dp563
g53
(dp564
g61
I3
ssg62
g558
sg55
(lp565
S''
asbasbasbasbasbasbasbag48
(g64
g50
NtRp566
(dp567
g53
(dp568
sg62
g225
sg55
(lp569
g48
(g69
g50
NtRp570
(dp571
g53
(dp572
g73
g74
ssg62
g566
sg55
(lp573
S'session_id_desglosar_emails'
p574
asbag48
(g69
g50
NtRp575
(dp576
g53
(dp577
g80
g81
ssg62
g566
sg55
(lp578
S':'
asbag48
(g69
g50
NtRp579
(dp580
g53
(dp581
sg62
g566
sg55
(lp582
g48
(g49
g50
NtRp583
(dp584
g53
(dp585
g61
I4
ssg62
g579
sg55
(lp586
g48
(g57
g50
NtRp587
(dp588
g53
(dp589
g61
I3
ssg62
Nsg55
(lp590
g48
(g64
g50
NtRp591
(dp592
g53
(dp593
sg62
g587
sg55
(lp594
g48
(g69
g50
NtRp595
(dp596
g53
(dp597
g73
g74
ssg62
g591
sg55
(lp598
g262
asbag48
(g69
g50
NtRp599
(dp600
g53
(dp601
g80
g81
ssg62
g591
sg55
(lp602
S':'
asbag48
(g69
g50
NtRp603
(dp604
g53
(dp605
sg62
g591
sg55
(lp606
g48
(g49
g50
NtRp607
(dp608
g53
(dp609
g61
I3
ssg62
g603
sg55
(lp610
S''
asbasbasbag48
(g64
g50
NtRp611
(dp612
g53
(dp613
sg62
g587
sg55
(lp614
g48
(g69
g50
NtRp615
(dp616
g53
(dp617
g73
g74
ssg62
g611
sg55
(lp618
g283
asbag48
(g69
g50
NtRp619
(dp620
g53
(dp621
g80
g81
ssg62
g611
sg55
(lp622
S':'
asbag48
(g69
g50
NtRp623
(dp624
g53
(dp625
sg62
g611
sg55
(lp626
g48
(g49
g50
NtRp627
(dp628
g53
(dp629
g61
I3
ssg62
g623
sg55
(lp630
S''
asbasbasbag48
(g64
g50
NtRp631
(dp632
g53
(dp633
sg62
g587
sg55
(lp634
g48
(g69
g50
NtRp635
(dp636
g53
(dp637
g73
g74
ssg62
g631
sg55
(lp638
g304
asbag48
(g69
g50
NtRp639
(dp640
g53
(dp641
g80
g81
ssg62
g631
sg55
(lp642
S':'
asbag48
(g69
g50
NtRp643
(dp644
g53
(dp645
sg62
g631
sg55
(lp646
g48
(g49
g50
NtRp647
(dp648
g53
(dp649
g61
I3
ssg62
g643
sg55
(lp650
S''
asbasbasbag48
(g64
g50
NtRp651
(dp652
g53
(dp653
sg62
g587
sg55
(lp654
g48
(g69
g50
NtRp655
(dp656
g53
(dp657
g73
g74
ssg62
g651
sg55
(lp658
g325
asbag48
(g69
g50
NtRp659
(dp660
g53
(dp661
g80
g81
ssg62
g651
sg55
(lp662
S':'
asbag48
(g69
g50
NtRp663
(dp664
g53
(dp665
sg62
g651
sg55
(lp666
g48
(g49
g50
NtRp667
(dp668
g53
(dp669
g61
I3
ssg62
g663
sg55
(lp670
S''
asbasbasbag48
(g64
g50
NtRp671
(dp672
g53
(dp673
sg62
g587
sg55
(lp674
g48
(g69
g50
NtRp675
(dp676
g53
(dp677
g73
g74
ssg62
g671
sg55
(lp678
g346
asbag48
(g69
g50
NtRp679
(dp680
g53
(dp681
g80
g81
ssg62
g671
sg55
(lp682
S':'
asbag48
(g69
g50
NtRp683
(dp684
g53
(dp685
sg62
g671
sg55
(lp686
g48
(g49
g50
NtRp687
(dp688
g53
(dp689
g61
I3
ssg62
g683
sg55
(lp690
S''
asbasbasbag48
(g64
g50
NtRp691
(dp692
g53
(dp693
sg62
g587
sg55
(lp694
g48
(g69
g50
NtRp695
(dp696
g53
(dp697
g73
g74
ssg62
g691
sg55
(lp698
g367
asbag48
(g69
g50
NtRp699
(dp700
g53
(dp701
g80
g81
ssg62
g691
sg55
(lp702
S':'
asbag48
(g69
g50
NtRp703
(dp704
g53
(dp705
sg62
g691
sg55
(lp706
g48
(g49
g50
NtRp707
(dp708
g53
(dp709
g61
I3
ssg62
g703
sg55
(lp710
S''
asbasbasbag48
(g64
g50
NtRp711
(dp712
g53
(dp713
sg62
g587
sg55
(lp714
g48
(g69
g50
NtRp715
(dp716
g53
(dp717
g73
g74
ssg62
g711
sg55
(lp718
g388
asbag48
(g69
g50
NtRp719
(dp720
g53
(dp721
g80
g81
ssg62
g711
sg55
(lp722
S':'
asbag48
(g69
g50
NtRp723
(dp724
g53
(dp725
sg62
g711
sg55
(lp726
g48
(g49
g50
NtRp727
(dp728
g53
(dp729
g61
I3
ssg62
g723
sg55
(lp730
S''
asbasbasbasbasbasbasbag48
(g64
g50
NtRp731
(dp732
g53
(dp733
sg62
g225
sg55
(lp734
g48
(g69
g50
NtRp735
(dp736
g53
(dp737
g73
g74
ssg62
g731
sg55
(lp738
S'session_id_myappjav'
p739
asbag48
(g69
g50
NtRp740
(dp741
g53
(dp742
g80
g81
ssg62
g731
sg55
(lp743
S':'
asbag48
(g69
g50
NtRp744
(dp745
g53
(dp746
sg62
g731
sg55
(lp747
g48
(g49
g50
NtRp748
(dp749
g53
(dp750
g61
I4
ssg62
g744
sg55
(lp751
g48
(g57
g50
NtRp752
(dp753
g53
(dp754
g61
I3
ssg62
Nsg55
(lp755
g48
(g64
g50
NtRp756
(dp757
g53
(dp758
sg62
g752
sg55
(lp759
g48
(g69
g50
NtRp760
(dp761
g53
(dp762
g73
g74
ssg62
g756
sg55
(lp763
g262
asbag48
(g69
g50
NtRp764
(dp765
g53
(dp766
g80
g81
ssg62
g756
sg55
(lp767
S':'
asbag48
(g69
g50
NtRp768
(dp769
g53
(dp770
sg62
g756
sg55
(lp771
g48
(g49
g50
NtRp772
(dp773
g53
(dp774
g61
I3
ssg62
g768
sg55
(lp775
S''
asbasbasbag48
(g64
g50
NtRp776
(dp777
g53
(dp778
sg62
g752
sg55
(lp779
g48
(g69
g50
NtRp780
(dp781
g53
(dp782
g73
g74
ssg62
g776
sg55
(lp783
g283
asbag48
(g69
g50
NtRp784
(dp785
g53
(dp786
g80
g81
ssg62
g776
sg55
(lp787
S':'
asbag48
(g69
g50
NtRp788
(dp789
g53
(dp790
sg62
g776
sg55
(lp791
g48
(g49
g50
NtRp792
(dp793
g53
(dp794
g61
I3
ssg62
g788
sg55
(lp795
S''
asbasbasbag48
(g64
g50
NtRp796
(dp797
g53
(dp798
sg62
g752
sg55
(lp799
g48
(g69
g50
NtRp800
(dp801
g53
(dp802
g73
g74
ssg62
g796
sg55
(lp803
g304
asbag48
(g69
g50
NtRp804
(dp805
g53
(dp806
g80
g81
ssg62
g796
sg55
(lp807
S':'
asbag48
(g69
g50
NtRp808
(dp809
g53
(dp810
sg62
g796
sg55
(lp811
g48
(g49
g50
NtRp812
(dp813
g53
(dp814
g61
I3
ssg62
g808
sg55
(lp815
S''
asbasbasbag48
(g64
g50
NtRp816
(dp817
g53
(dp818
sg62
g752
sg55
(lp819
g48
(g69
g50
NtRp820
(dp821
g53
(dp822
g73
g74
ssg62
g816
sg55
(lp823
g325
asbag48
(g69
g50
NtRp824
(dp825
g53
(dp826
g80
g81
ssg62
g816
sg55
(lp827
S':'
asbag48
(g69
g50
NtRp828
(dp829
g53
(dp830
sg62
g816
sg55
(lp831
g48
(g49
g50
NtRp832
(dp833
g53
(dp834
g61
I3
ssg62
g828
sg55
(lp835
S''
asbasbasbag48
(g64
g50
NtRp836
(dp837
g53
(dp838
sg62
g752
sg55
(lp839
g48
(g69
g50
NtRp840
(dp841
g53
(dp842
g73
g74
ssg62
g836
sg55
(lp843
g346
asbag48
(g69
g50
NtRp844
(dp845
g53
(dp846
g80
g81
ssg62
g836
sg55
(lp847
S':'
asbag48
(g69
g50
NtRp848
(dp849
g53
(dp850
sg62
g836
sg55
(lp851
g48
(g49
g50
NtRp852
(dp853
g53
(dp854
g61
I3
ssg62
g848
sg55
(lp855
S''
asbasbasbag48
(g64
g50
NtRp856
(dp857
g53
(dp858
sg62
g752
sg55
(lp859
g48
(g69
g50
NtRp860
(dp861
g53
(dp862
g73
g74
ssg62
g856
sg55
(lp863
g367
asbag48
(g69
g50
NtRp864
(dp865
g53
(dp866
g80
g81
ssg62
g856
sg55
(lp867
S':'
asbag48
(g69
g50
NtRp868
(dp869
g53
(dp870
sg62
g856
sg55
(lp871
g48
(g49
g50
NtRp872
(dp873
g53
(dp874
g61
I3
ssg62
g868
sg55
(lp875
S''
asbasbasbag48
(g64
g50
NtRp876
(dp877
g53
(dp878
sg62
g752
sg55
(lp879
g48
(g69
g50
NtRp880
(dp881
g53
(dp882
g73
g74
ssg62
g876
sg55
(lp883
g388
asbag48
(g69
g50
NtRp884
(dp885
g53
(dp886
g80
g81
ssg62
g876
sg55
(lp887
S':'
asbag48
(g69
g50
NtRp888
(dp889
g53
(dp890
sg62
g876
sg55
(lp891
g48
(g49
g50
NtRp892
(dp893
g53
(dp894
g61
I3
ssg62
g888
sg55
(lp895
S''
asbasbasbasbasbasbasbag48
(g64
g50
NtRp896
(dp897
g53
(dp898
sg62
g225
sg55
(lp899
g48
(g69
g50
NtRp900
(dp901
g53
(dp902
g73
g74
ssg62
g896
sg55
(lp903
S'session_id_welcome'
p904
asbag48
(g69
g50
NtRp905
(dp906
g53
(dp907
g80
g81
ssg62
g896
sg55
(lp908
S':'
asbag48
(g69
g50
NtRp909
(dp910
g53
(dp911
sg62
g896
sg55
(lp912
g48
(g49
g50
NtRp913
(dp914
g53
(dp915
g61
I4
ssg62
g909
sg55
(lp916
g48
(g57
g50
NtRp917
(dp918
g53
(dp919
g61
I3
ssg62
Nsg55
(lp920
g48
(g64
g50
NtRp921
(dp922
g53
(dp923
sg62
g917
sg55
(lp924
g48
(g69
g50
NtRp925
(dp926
g53
(dp927
g73
g74
ssg62
g921
sg55
(lp928
g262
asbag48
(g69
g50
NtRp929
(dp930
g53
(dp931
g80
g81
ssg62
g921
sg55
(lp932
S':'
asbag48
(g69
g50
NtRp933
(dp934
g53
(dp935
sg62
g921
sg55
(lp936
g48
(g49
g50
NtRp937
(dp938
g53
(dp939
g61
I3
ssg62
g933
sg55
(lp940
S''
asbasbasbag48
(g64
g50
NtRp941
(dp942
g53
(dp943
sg62
g917
sg55
(lp944
g48
(g69
g50
NtRp945
(dp946
g53
(dp947
g73
g74
ssg62
g941
sg55
(lp948
g283
asbag48
(g69
g50
NtRp949
(dp950
g53
(dp951
g80
g81
ssg62
g941
sg55
(lp952
S':'
asbag48
(g69
g50
NtRp953
(dp954
g53
(dp955
sg62
g941
sg55
(lp956
g48
(g49
g50
NtRp957
(dp958
g53
(dp959
g61
I3
ssg62
g953
sg55
(lp960
S''
asbasbasbag48
(g64
g50
NtRp961
(dp962
g53
(dp963
sg62
g917
sg55
(lp964
g48
(g69
g50
NtRp965
(dp966
g53
(dp967
g73
g74
ssg62
g961
sg55
(lp968
g304
asbag48
(g69
g50
NtRp969
(dp970
g53
(dp971
g80
g81
ssg62
g961
sg55
(lp972
S':'
asbag48
(g69
g50
NtRp973
(dp974
g53
(dp975
sg62
g961
sg55
(lp976
g48
(g49
g50
NtRp977
(dp978
g53
(dp979
g61
I3
ssg62
g973
sg55
(lp980
S''
asbasbasbag48
(g64
g50
NtRp981
(dp982
g53
(dp983
sg62
g917
sg55
(lp984
g48
(g69
g50
NtRp985
(dp986
g53
(dp987
g73
g74
ssg62
g981
sg55
(lp988
g325
asbag48
(g69
g50
NtRp989
(dp990
g53
(dp991
g80
g81
ssg62
g981
sg55
(lp992
S':'
asbag48
(g69
g50
NtRp993
(dp994
g53
(dp995
sg62
g981
sg55
(lp996
g48
(g49
g50
NtRp997
(dp998
g53
(dp999
g61
I3
ssg62
g993
sg55
(lp1000
S''
asbasbasbag48
(g64
g50
NtRp1001
(dp1002
g53
(dp1003
sg62
g917
sg55
(lp1004
g48
(g69
g50
NtRp1005
(dp1006
g53
(dp1007
g73
g74
ssg62
g1001
sg55
(lp1008
g346
asbag48
(g69
g50
NtRp1009
(dp1010
g53
(dp1011
g80
g81
ssg62
g1001
sg55
(lp1012
S':'
asbag48
(g69
g50
NtRp1013
(dp1014
g53
(dp1015
sg62
g1001
sg55
(lp1016
g48
(g49
g50
NtRp1017
(dp1018
g53
(dp1019
g61
I3
ssg62
g1013
sg55
(lp1020
S''
asbasbasbag48
(g64
g50
NtRp1021
(dp1022
g53
(dp1023
sg62
g917
sg55
(lp1024
g48
(g69
g50
NtRp1025
(dp1026
g53
(dp1027
g73
g74
ssg62
g1021
sg55
(lp1028
g367
asbag48
(g69
g50
NtRp1029
(dp1030
g53
(dp1031
g80
g81
ssg62
g1021
sg55
(lp1032
S':'
asbag48
(g69
g50
NtRp1033
(dp1034
g53
(dp1035
sg62
g1021
sg55
(lp1036
g48
(g49
g50
NtRp1037
(dp1038
g53
(dp1039
g61
I3
ssg62
g1033
sg55
(lp1040
S''
asbasbasbag48
(g64
g50
NtRp1041
(dp1042
g53
(dp1043
sg62
g917
sg55
(lp1044
g48
(g69
g50
NtRp1045
(dp1046
g53
(dp1047
g73
g74
ssg62
g1041
sg55
(lp1048
g388
asbag48
(g69
g50
NtRp1049
(dp1050
g53
(dp1051
g80
g81
ssg62
g1041
sg55
(lp1052
S':'
asbag48
(g69
g50
NtRp1053
(dp1054
g53
(dp1055
sg62
g1041
sg55
(lp1056
g48
(g49
g50
NtRp1057
(dp1058
g53
(dp1059
g61
I3
ssg62
g1053
sg55
(lp1060
S''
asbasbasbasbasbasbasbasbasbasbasbag48
(g64
g50
NtRp1061
(dp1062
g53
(dp1063
sg62
g58
sg55
(lp1064
g48
(g69
g50
NtRp1065
(dp1066
g53
(dp1067
g73
g74
ssg62
g1061
sg55
(lp1068
S'env'
p1069
asbag48
(g69
g50
NtRp1070
(dp1071
g53
(dp1072
g80
g81
ssg62
g1061
sg55
(lp1073
S':'
asbag48
(g69
g50
NtRp1074
(dp1075
g53
(dp1076
sg62
g1061
sg55
(lp1077
g48
(g49
g50
NtRp1078
(dp1079
g53
(dp1080
g61
I5
ssg62
g1074
sg55
(lp1081
g48
(g57
g50
NtRp1082
(dp1083
g53
(dp1084
g61
I4
ssg62
Nsg55
(lp1085
g48
(g64
g50
NtRp1086
(dp1087
g53
(dp1088
sg62
g1082
sg55
(lp1089
g48
(g69
g50
NtRp1090
(dp1091
g53
(dp1092
g73
g74
ssg62
g1086
sg55
(lp1093
S'app_folders'
p1094
asbag48
(g69
g50
NtRp1095
(dp1096
g53
(dp1097
g80
g81
ssg62
g1086
sg55
(lp1098
S':'
asbag48
(g69
g50
NtRp1099
(dp1100
g53
(dp1101
sg62
g1086
sg55
(lp1102
g48
(g49
g50
NtRp1103
(dp1104
g53
(dp1105
g61
I4
ssg62
g1099
sg55
(lp1106
S"set(['C:\\\\Users\\\\Atomico\\\\web2py\\\\applications\\\\welcome\\\\', 'C:\\\\Users\\\\Atomico\\\\web2py\\\\applications\\\\Desglosar_Emails\\\\', 'C:\\\\Users\\\\Atomico\\\\web2py\\\\applications\\\\myAppJav\\\\', 'C:\\\\Users\\\\Atomico\\\\web2py\\\\applications\\\\admin\\\\'])"
p1107
asbasbasbag48
(g64
g50
NtRp1108
(dp1109
g53
(dp1110
sg62
g1082
sg55
(lp1111
g48
(g69
g50
NtRp1112
(dp1113
g53
(dp1114
g73
g74
ssg62
g1108
sg55
(lp1115
S'applications_parent'
p1116
asbag48
(g69
g50
NtRp1117
(dp1118
g53
(dp1119
g80
g81
ssg62
g1108
sg55
(lp1120
S':'
asbag48
(g69
g50
NtRp1121
(dp1122
g53
(dp1123
sg62
g1108
sg55
(lp1124
g48
(g49
g50
NtRp1125
(dp1126
g53
(dp1127
g61
I4
ssg62
g1121
sg55
(lp1128
S'C:\\Users\\Atomico\\web2py'
p1129
asbasbasbag48
(g64
g50
NtRp1130
(dp1131
g53
(dp1132
sg62
g1082
sg55
(lp1133
g48
(g69
g50
NtRp1134
(dp1135
g53
(dp1136
g73
g74
ssg62
g1130
sg55
(lp1137
S'cmd_args'
p1138
asbag48
(g69
g50
NtRp1139
(dp1140
g53
(dp1141
g80
g81
ssg62
g1130
sg55
(lp1142
S':'
asbag48
(g69
g50
NtRp1143
(dp1144
g53
(dp1145
sg62
g1130
sg55
(lp1146
g48
(g49
g50
NtRp1147
(dp1148
g53
(dp1149
g61
I4
ssg62
g1143
sg55
(lp1150
g48
(g57
g50
NtRp1151
(dp1152
g53
(dp1153
g61
I3
ssg62
Nsg55
(lp1154
sbasbasbasbag48
(g64
g50
NtRp1155
(dp1156
g53
(dp1157
sg62
g1082
sg55
(lp1158
g48
(g69
g50
NtRp1159
(dp1160
g53
(dp1161
g73
g74
ssg62
g1155
sg55
(lp1162
S'cmd_options'
p1163
asbag48
(g69
g50
NtRp1164
(dp1165
g53
(dp1166
g80
g81
ssg62
g1155
sg55
(lp1167
S':'
asbag48
(g69
g50
NtRp1168
(dp1169
g53
(dp1170
sg62
g1155
sg55
(lp1171
g48
(g49
g50
NtRp1172
(dp1173
g53
(dp1174
g61
I4
ssg62
g1168
sg55
(lp1175
S"<Values at 0x311e5d0: {'verbose': False, 'ip': '127.0.0.1', 'shutdown_timeout': 5, 'taskbar': False, 'port': 8000, 'maxthreads': None, 'softcron': False, 'server_name': 'Swing', 'bpython': False, 'nogui': False, 'nocron': False, 'extcron': False, 'debuglevel': 30, 'test': None, 'folder': 'C:\\\\Users\\\\Atomico\\\\web2py', 'config': '', 'import_models': False, 'winservice': '', 'shell': None, 'run': '', 'log_filename': 'httpserver.log', 'args': [''], 'profiler_filename': None, 'ssl_private_key': '', 'password': '<ask>', 'request_queue_size': 5, 'ssl_certificate': '', 'cronjob': False, 'plain': False, 'quiet': False, 'interfaces': None, 'minthreads': None, 'timeout': 10, 'numthreads': None, 'nobanner': False, 'pid_filename': 'httpserver.pid'}>"
p1176
asbasbasbag48
(g64
g50
NtRp1177
(dp1178
g53
(dp1179
sg62
g1082
sg55
(lp1180
g48
(g69
g50
NtRp1181
(dp1182
g53
(dp1183
g73
g74
ssg62
g1177
sg55
(lp1184
S'db_sessions'
p1185
asbag48
(g69
g50
NtRp1186
(dp1187
g53
(dp1188
g80
g81
ssg62
g1177
sg55
(lp1189
S':'
asbag48
(g69
g50
NtRp1190
(dp1191
g53
(dp1192
sg62
g1177
sg55
(lp1193
g48
(g49
g50
NtRp1194
(dp1195
g53
(dp1196
g61
I4
ssg62
g1190
sg55
(lp1197
S'set([])'
p1198
asbasbasbag48
(g64
g50
NtRp1199
(dp1200
g53
(dp1201
sg62
g1082
sg55
(lp1202
g48
(g69
g50
NtRp1203
(dp1204
g53
(dp1205
g73
g74
ssg62
g1199
sg55
(lp1206
S'debugging'
p1207
asbag48
(g69
g50
NtRp1208
(dp1209
g53
(dp1210
g80
g81
ssg62
g1199
sg55
(lp1211
S':'
asbag48
(g69
g50
NtRp1212
(dp1213
g53
(dp1214
sg62
g1199
sg55
(lp1215
g48
(g49
g50
NtRp1216
(dp1217
g53
(dp1218
g61
I4
ssg62
g1212
sg55
(lp1219
g91
asbasbasbag48
(g64
g50
NtRp1220
(dp1221
g53
(dp1222
sg62
g1082
sg55
(lp1223
g48
(g69
g50
NtRp1224
(dp1225
g53
(dp1226
g73
g74
ssg62
g1220
sg55
(lp1227
S'gluon_parent'
p1228
asbag48
(g69
g50
NtRp1229
(dp1230
g53
(dp1231
g80
g81
ssg62
g1220
sg55
(lp1232
S':'
asbag48
(g69
g50
NtRp1233
(dp1234
g53
(dp1235
sg62
g1220
sg55
(lp1236
g48
(g49
g50
NtRp1237
(dp1238
g53
(dp1239
g61
I4
ssg62
g1233
sg55
(lp1240
S'C:\\Users\\Atomico\\web2py'
p1241
asbasbasbag48
(g64
g50
NtRp1242
(dp1243
g53
(dp1244
sg62
g1082
sg55
(lp1245
g48
(g69
g50
NtRp1246
(dp1247
g53
(dp1248
g73
g74
ssg62
g1242
sg55
(lp1249
S'http_accept'
p1250
asbag48
(g69
g50
NtRp1251
(dp1252
g53
(dp1253
g80
g81
ssg62
g1242
sg55
(lp1254
S':'
asbag48
(g69
g50
NtRp1255
(dp1256
g53
(dp1257
sg62
g1242
sg55
(lp1258
g48
(g49
g50
NtRp1259
(dp1260
g53
(dp1261
g61
I4
ssg62
g1255
sg55
(lp1262
S'text/html,application/xhtml+xml,application/xml;q=0.9,*/*;q=0.8'
p1263
asbasbasbag48
(g64
g50
NtRp1264
(dp1265
g53
(dp1266
sg62
g1082
sg55
(lp1267
g48
(g69
g50
NtRp1268
(dp1269
g53
(dp1270
g73
g74
ssg62
g1264
sg55
(lp1271
S'http_accept_charset'
p1272
asbag48
(g69
g50
NtRp1273
(dp1274
g53
(dp1275
g80
g81
ssg62
g1264
sg55
(lp1276
S':'
asbag48
(g69
g50
NtRp1277
(dp1278
g53
(dp1279
sg62
g1264
sg55
(lp1280
g48
(g49
g50
NtRp1281
(dp1282
g53
(dp1283
g61
I4
ssg62
g1277
sg55
(lp1284
S'ISO-8859-1,utf-8;q=0.7,*;q=0.7'
p1285
asbasbasbag48
(g64
g50
NtRp1286
(dp1287
g53
(dp1288
sg62
g1082
sg55
(lp1289
g48
(g69
g50
NtRp1290
(dp1291
g53
(dp1292
g73
g74
ssg62
g1286
sg55
(lp1293
S'http_accept_encoding'
p1294
asbag48
(g69
g50
NtRp1295
(dp1296
g53
(dp1297
g80
g81
ssg62
g1286
sg55
(lp1298
S':'
asbag48
(g69
g50
NtRp1299
(dp1300
g53
(dp1301
sg62
g1286
sg55
(lp1302
g48
(g49
g50
NtRp1303
(dp1304
g53
(dp1305
g61
I4
ssg62
g1299
sg55
(lp1306
S'gzip, deflate'
p1307
asbasbasbag48
(g64
g50
NtRp1308
(dp1309
g53
(dp1310
sg62
g1082
sg55
(lp1311
g48
(g69
g50
NtRp1312
(dp1313
g53
(dp1314
g73
g74
ssg62
g1308
sg55
(lp1315
S'http_accept_language'
p1316
asbag48
(g69
g50
NtRp1317
(dp1318
g53
(dp1319
g80
g81
ssg62
g1308
sg55
(lp1320
S':'
asbag48
(g69
g50
NtRp1321
(dp1322
g53
(dp1323
sg62
g1308
sg55
(lp1324
g48
(g49
g50
NtRp1325
(dp1326
g53
(dp1327
g61
I4
ssg62
g1321
sg55
(lp1328
S'es-es,es;q=0.8,en-us;q=0.5,en;q=0.3'
p1329
asbasbasbag48
(g64
g50
NtRp1330
(dp1331
g53
(dp1332
sg62
g1082
sg55
(lp1333
g48
(g69
g50
NtRp1334
(dp1335
g53
(dp1336
g73
g74
ssg62
g1330
sg55
(lp1337
S'http_connection'
p1338
asbag48
(g69
g50
NtRp1339
(dp1340
g53
(dp1341
g80
g81
ssg62
g1330
sg55
(lp1342
S':'
asbag48
(g69
g50
NtRp1343
(dp1344
g53
(dp1345
sg62
g1330
sg55
(lp1346
g48
(g49
g50
NtRp1347
(dp1348
g53
(dp1349
g61
I4
ssg62
g1343
sg55
(lp1350
S'keep-alive'
p1351
asbasbasbag48
(g64
g50
NtRp1352
(dp1353
g53
(dp1354
sg62
g1082
sg55
(lp1355
g48
(g69
g50
NtRp1356
(dp1357
g53
(dp1358
g73
g74
ssg62
g1352
sg55
(lp1359
S'http_cookie'
p1360
asbag48
(g69
g50
NtRp1361
(dp1362
g53
(dp1363
g80
g81
ssg62
g1352
sg55
(lp1364
S':'
asbag48
(g69
g50
NtRp1365
(dp1366
g53
(dp1367
sg62
g1352
sg55
(lp1368
g48
(g49
g50
NtRp1369
(dp1370
g53
(dp1371
g61
I4
ssg62
g1365
sg55
(lp1372
S'session_id_welcome=127.0.0.1-2e33a128-9fa9-476d-9e36-9c858a82cfab; session_id_admin=127.0.0.1-ab41072a-78d8-41d9-b0f6-43c9e78f0c91; session_id_desglosar_emails=127.0.0.1-78cf8050-df87-4502-afb9-ed0c3843b414; session_id_borrar2=127.0.0.1-7b2821ce-f980-4deb-be8f-1de8266b25b6; session_id_myappjav=127.0.0.1-c0868253-65dd-491c-a2e7-2dc9aaaa4724'
p1373
asbasbasbag48
(g64
g50
NtRp1374
(dp1375
g53
(dp1376
sg62
g1082
sg55
(lp1377
g48
(g69
g50
NtRp1378
(dp1379
g53
(dp1380
g73
g74
ssg62
g1374
sg55
(lp1381
S'http_host'
p1382
asbag48
(g69
g50
NtRp1383
(dp1384
g53
(dp1385
g80
g81
ssg62
g1374
sg55
(lp1386
S':'
asbag48
(g69
g50
NtRp1387
(dp1388
g53
(dp1389
sg62
g1374
sg55
(lp1390
g48
(g49
g50
NtRp1391
(dp1392
g53
(dp1393
g61
I4
ssg62
g1387
sg55
(lp1394
S'127.0.0.1:8000'
p1395
asbasbasbag48
(g64
g50
NtRp1396
(dp1397
g53
(dp1398
sg62
g1082
sg55
(lp1399
g48
(g69
g50
NtRp1400
(dp1401
g53
(dp1402
g73
g74
ssg62
g1396
sg55
(lp1403
S'http_referer'
p1404
asbag48
(g69
g50
NtRp1405
(dp1406
g53
(dp1407
g80
g81
ssg62
g1396
sg55
(lp1408
S':'
asbag48
(g69
g50
NtRp1409
(dp1410
g53
(dp1411
sg62
g1396
sg55
(lp1412
g48
(g49
g50
NtRp1413
(dp1414
g53
(dp1415
g61
I4
ssg62
g1409
sg55
(lp1416
S'http://127.0.0.1:8000/admin/default/design/Desglosar_Emails'
p1417
asbasbasbag48
(g64
g50
NtRp1418
(dp1419
g53
(dp1420
sg62
g1082
sg55
(lp1421
g48
(g69
g50
NtRp1422
(dp1423
g53
(dp1424
g73
g74
ssg62
g1418
sg55
(lp1425
S'http_user_agent'
p1426
asbag48
(g69
g50
NtRp1427
(dp1428
g53
(dp1429
g80
g81
ssg62
g1418
sg55
(lp1430
S':'
asbag48
(g69
g50
NtRp1431
(dp1432
g53
(dp1433
sg62
g1418
sg55
(lp1434
g48
(g49
g50
NtRp1435
(dp1436
g53
(dp1437
g61
I4
ssg62
g1431
sg55
(lp1438
S'Mozilla/5.0 (Windows NT 6.1; WOW64; rv:6.0.2) Gecko/20100101 Firefox/6.0.2'
p1439
asbasbasbag48
(g64
g50
NtRp1440
(dp1441
g53
(dp1442
sg62
g1082
sg55
(lp1443
g48
(g69
g50
NtRp1444
(dp1445
g53
(dp1446
g73
g74
ssg62
g1440
sg55
(lp1447
S'is_jython'
p1448
asbag48
(g69
g50
NtRp1449
(dp1450
g53
(dp1451
g80
g81
ssg62
g1440
sg55
(lp1452
S':'
asbag48
(g69
g50
NtRp1453
(dp1454
g53
(dp1455
sg62
g1440
sg55
(lp1456
g48
(g49
g50
NtRp1457
(dp1458
g53
(dp1459
g61
I4
ssg62
g1453
sg55
(lp1460
g91
asbasbasbag48
(g64
g50
NtRp1461
(dp1462
g53
(dp1463
sg62
g1082
sg55
(lp1464
g48
(g69
g50
NtRp1465
(dp1466
g53
(dp1467
g73
g74
ssg62
g1461
sg55
(lp1468
S'path_info'
p1469
asbag48
(g69
g50
NtRp1470
(dp1471
g53
(dp1472
g80
g81
ssg62
g1461
sg55
(lp1473
S':'
asbag48
(g69
g50
NtRp1474
(dp1475
g53
(dp1476
sg62
g1461
sg55
(lp1477
g48
(g49
g50
NtRp1478
(dp1479
g53
(dp1480
g61
I4
ssg62
g1474
sg55
(lp1481
S'/Desglosar_Emails/default/entrada_mod3'
p1482
asbasbasbag48
(g64
g50
NtRp1483
(dp1484
g53
(dp1485
sg62
g1082
sg55
(lp1486
g48
(g69
g50
NtRp1487
(dp1488
g53
(dp1489
g73
g74
ssg62
g1483
sg55
(lp1490
S'query_string'
p1491
asbag48
(g69
g50
NtRp1492
(dp1493
g53
(dp1494
g80
g81
ssg62
g1483
sg55
(lp1495
S':'
asbag48
(g69
g50
NtRp1496
(dp1497
g53
(dp1498
sg62
g1483
sg55
(lp1499
g48
(g49
g50
NtRp1500
(dp1501
g53
(dp1502
g61
I4
ssg62
g1496
sg55
(lp1503
S''
asbasbasbag48
(g64
g50
NtRp1504
(dp1505
g53
(dp1506
sg62
g1082
sg55
(lp1507
g48
(g69
g50
NtRp1508
(dp1509
g53
(dp1510
g73
g74
ssg62
g1504
sg55
(lp1511
S'remote_addr'
p1512
asbag48
(g69
g50
NtRp1513
(dp1514
g53
(dp1515
g80
g81
ssg62
g1504
sg55
(lp1516
S':'
asbag48
(g69
g50
NtRp1517
(dp1518
g53
(dp1519
sg62
g1504
sg55
(lp1520
g48
(g49
g50
NtRp1521
(dp1522
g53
(dp1523
g61
I4
ssg62
g1517
sg55
(lp1524
g181
asbasbasbag48
(g64
g50
NtRp1525
(dp1526
g53
(dp1527
sg62
g1082
sg55
(lp1528
g48
(g69
g50
NtRp1529
(dp1530
g53
(dp1531
g73
g74
ssg62
g1525
sg55
(lp1532
S'remote_port'
p1533
asbag48
(g69
g50
NtRp1534
(dp1535
g53
(dp1536
g80
g81
ssg62
g1525
sg55
(lp1537
S':'
asbag48
(g69
g50
NtRp1538
(dp1539
g53
(dp1540
sg62
g1525
sg55
(lp1541
g48
(g49
g50
NtRp1542
(dp1543
g53
(dp1544
g61
I4
ssg62
g1538
sg55
(lp1545
S'65015'
p1546
asbasbasbag48
(g64
g50
NtRp1547
(dp1548
g53
(dp1549
sg62
g1082
sg55
(lp1550
g48
(g69
g50
NtRp1551
(dp1552
g53
(dp1553
g73
g74
ssg62
g1547
sg55
(lp1554
S'request_method'
p1555
asbag48
(g69
g50
NtRp1556
(dp1557
g53
(dp1558
g80
g81
ssg62
g1547
sg55
(lp1559
S':'
asbag48
(g69
g50
NtRp1560
(dp1561
g53
(dp1562
sg62
g1547
sg55
(lp1563
g48
(g49
g50
NtRp1564
(dp1565
g53
(dp1566
g61
I4
ssg62
g1560
sg55
(lp1567
S'GET'
p1568
asbasbasbag48
(g64
g50
NtRp1569
(dp1570
g53
(dp1571
sg62
g1082
sg55
(lp1572
g48
(g69
g50
NtRp1573
(dp1574
g53
(dp1575
g73
g74
ssg62
g1569
sg55
(lp1576
S'script_name'
p1577
asbag48
(g69
g50
NtRp1578
(dp1579
g53
(dp1580
g80
g81
ssg62
g1569
sg55
(lp1581
S':'
asbag48
(g69
g50
NtRp1582
(dp1583
g53
(dp1584
sg62
g1569
sg55
(lp1585
g48
(g49
g50
NtRp1586
(dp1587
g53
(dp1588
g61
I4
ssg62
g1582
sg55
(lp1589
S''
asbasbasbag48
(g64
g50
NtRp1590
(dp1591
g53
(dp1592
sg62
g1082
sg55
(lp1593
g48
(g69
g50
NtRp1594
(dp1595
g53
(dp1596
g73
g74
ssg62
g1590
sg55
(lp1597
S'server_name'
p1598
asbag48
(g69
g50
NtRp1599
(dp1600
g53
(dp1601
g80
g81
ssg62
g1590
sg55
(lp1602
S':'
asbag48
(g69
g50
NtRp1603
(dp1604
g53
(dp1605
sg62
g1590
sg55
(lp1606
g48
(g49
g50
NtRp1607
(dp1608
g53
(dp1609
g61
I4
ssg62
g1603
sg55
(lp1610
S'Swing'
p1611
asbasbasbag48
(g64
g50
NtRp1612
(dp1613
g53
(dp1614
sg62
g1082
sg55
(lp1615
g48
(g69
g50
NtRp1616
(dp1617
g53
(dp1618
g73
g74
ssg62
g1612
sg55
(lp1619
S'server_port'
p1620
asbag48
(g69
g50
NtRp1621
(dp1622
g53
(dp1623
g80
g81
ssg62
g1612
sg55
(lp1624
S':'
asbag48
(g69
g50
NtRp1625
(dp1626
g53
(dp1627
sg62
g1612
sg55
(lp1628
g48
(g49
g50
NtRp1629
(dp1630
g53
(dp1631
g61
I4
ssg62
g1625
sg55
(lp1632
S'8000'
p1633
asbasbasbag48
(g64
g50
NtRp1634
(dp1635
g53
(dp1636
sg62
g1082
sg55
(lp1637
g48
(g69
g50
NtRp1638
(dp1639
g53
(dp1640
g73
g74
ssg62
g1634
sg55
(lp1641
S'server_protocol'
p1642
asbag48
(g69
g50
NtRp1643
(dp1644
g53
(dp1645
g80
g81
ssg62
g1634
sg55
(lp1646
S':'
asbag48
(g69
g50
NtRp1647
(dp1648
g53
(dp1649
sg62
g1634
sg55
(lp1650
g48
(g49
g50
NtRp1651
(dp1652
g53
(dp1653
g61
I4
ssg62
g1647
sg55
(lp1654
S'HTTP/1.1'
p1655
asbasbasbag48
(g64
g50
NtRp1656
(dp1657
g53
(dp1658
sg62
g1082
sg55
(lp1659
g48
(g69
g50
NtRp1660
(dp1661
g53
(dp1662
g73
g74
ssg62
g1656
sg55
(lp1663
S'server_software'
p1664
asbag48
(g69
g50
NtRp1665
(dp1666
g53
(dp1667
g80
g81
ssg62
g1656
sg55
(lp1668
S':'
asbag48
(g69
g50
NtRp1669
(dp1670
g53
(dp1671
sg62
g1656
sg55
(lp1672
g48
(g49
g50
NtRp1673
(dp1674
g53
(dp1675
g61
I4
ssg62
g1669
sg55
(lp1676
S'Rocket 1.2.2'
p1677
asbasbasbag48
(g64
g50
NtRp1678
(dp1679
g53
(dp1680
sg62
g1082
sg55
(lp1681
g48
(g69
g50
NtRp1682
(dp1683
g53
(dp1684
g73
g74
ssg62
g1678
sg55
(lp1685
S'web2py_crontype'
p1686
asbag48
(g69
g50
NtRp1687
(dp1688
g53
(dp1689
g80
g81
ssg62
g1678
sg55
(lp1690
S':'
asbag48
(g69
g50
NtRp1691
(dp1692
g53
(dp1693
sg62
g1678
sg55
(lp1694
g48
(g49
g50
NtRp1695
(dp1696
g53
(dp1697
g61
I4
ssg62
g1691
sg55
(lp1698
S'hard'
p1699
asbasbasbag48
(g64
g50
NtRp1700
(dp1701
g53
(dp1702
sg62
g1082
sg55
(lp1703
g48
(g69
g50
NtRp1704
(dp1705
g53
(dp1706
g73
g74
ssg62
g1700
sg55
(lp1707
S'web2py_path'
p1708
asbag48
(g69
g50
NtRp1709
(dp1710
g53
(dp1711
g80
g81
ssg62
g1700
sg55
(lp1712
S':'
asbag48
(g69
g50
NtRp1713
(dp1714
g53
(dp1715
sg62
g1700
sg55
(lp1716
g48
(g49
g50
NtRp1717
(dp1718
g53
(dp1719
g61
I4
ssg62
g1713
sg55
(lp1720
g1129
asbasbasbag48
(g64
g50
NtRp1721
(dp1722
g53
(dp1723
sg62
g1082
sg55
(lp1724
g48
(g69
g50
NtRp1725
(dp1726
g53
(dp1727
g73
g74
ssg62
g1721
sg55
(lp1728
S'web2py_version'
p1729
asbag48
(g69
g50
NtRp1730
(dp1731
g53
(dp1732
g80
g81
ssg62
g1721
sg55
(lp1733
S':'
asbag48
(g69
g50
NtRp1734
(dp1735
g53
(dp1736
sg62
g1721
sg55
(lp1737
g48
(g49
g50
NtRp1738
(dp1739
g53
(dp1740
g61
I4
ssg62
g1734
sg55
(lp1741
S'Version 1.98.2 (2011-08-04 00:47:09)\n'
p1742
asbasbasbag48
(g64
g50
NtRp1743
(dp1744
g53
(dp1745
sg62
g1082
sg55
(lp1746
g48
(g69
g50
NtRp1747
(dp1748
g53
(dp1749
g73
g74
ssg62
g1743
sg55
(lp1750
S'wsgi_errors'
p1751
asbag48
(g69
g50
NtRp1752
(dp1753
g53
(dp1754
g80
g81
ssg62
g1743
sg55
(lp1755
S':'
asbag48
(g69
g50
NtRp1756
(dp1757
g53
(dp1758
sg62
g1743
sg55
(lp1759
g48
(g49
g50
NtRp1760
(dp1761
g53
(dp1762
g61
I4
ssg62
g1756
sg55
(lp1763
S"<open file '<stderr>', mode 'w' at 0x002500B0>"
p1764
asbasbasbag48
(g64
g50
NtRp1765
(dp1766
g53
(dp1767
sg62
g1082
sg55
(lp1768
g48
(g69
g50
NtRp1769
(dp1770
g53
(dp1771
g73
g74
ssg62
g1765
sg55
(lp1772
S'wsgi_file_wrapper'
p1773
asbag48
(g69
g50
NtRp1774
(dp1775
g53
(dp1776
g80
g81
ssg62
g1765
sg55
(lp1777
S':'
asbag48
(g69
g50
NtRp1778
(dp1779
g53
(dp1780
sg62
g1765
sg55
(lp1781
g48
(g49
g50
NtRp1782
(dp1783
g53
(dp1784
g61
I4
ssg62
g1778
sg55
(lp1785
S'<class gluon.rocket.FileWrapper at 0x030B11B0>'
p1786
asbasbasbag48
(g64
g50
NtRp1787
(dp1788
g53
(dp1789
sg62
g1082
sg55
(lp1790
g48
(g69
g50
NtRp1791
(dp1792
g53
(dp1793
g73
g74
ssg62
g1787
sg55
(lp1794
S'wsgi_input'
p1795
asbag48
(g69
g50
NtRp1796
(dp1797
g53
(dp1798
g80
g81
ssg62
g1787
sg55
(lp1799
S':'
asbag48
(g69
g50
NtRp1800
(dp1801
g53
(dp1802
sg62
g1787
sg55
(lp1803
g48
(g49
g50
NtRp1804
(dp1805
g53
(dp1806
g61
I4
ssg62
g1800
sg55
(lp1807
S'<socket._fileobject object at 0x032F4970>'
p1808
asbasbasbag48
(g64
g50
NtRp1809
(dp1810
g53
(dp1811
sg62
g1082
sg55
(lp1812
g48
(g69
g50
NtRp1813
(dp1814
g53
(dp1815
g73
g74
ssg62
g1809
sg55
(lp1816
S'wsgi_multiprocess'
p1817
asbag48
(g69
g50
NtRp1818
(dp1819
g53
(dp1820
g80
g81
ssg62
g1809
sg55
(lp1821
S':'
asbag48
(g69
g50
NtRp1822
(dp1823
g53
(dp1824
sg62
g1809
sg55
(lp1825
g48
(g49
g50
NtRp1826
(dp1827
g53
(dp1828
g61
I4
ssg62
g1822
sg55
(lp1829
g91
asbasbasbag48
(g64
g50
NtRp1830
(dp1831
g53
(dp1832
sg62
g1082
sg55
(lp1833
g48
(g69
g50
NtRp1834
(dp1835
g53
(dp1836
g73
g74
ssg62
g1830
sg55
(lp1837
S'wsgi_multithread'
p1838
asbag48
(g69
g50
NtRp1839
(dp1840
g53
(dp1841
g80
g81
ssg62
g1830
sg55
(lp1842
S':'
asbag48
(g69
g50
NtRp1843
(dp1844
g53
(dp1845
sg62
g1830
sg55
(lp1846
g48
(g49
g50
NtRp1847
(dp1848
g53
(dp1849
g61
I4
ssg62
g1843
sg55
(lp1850
S'True'
p1851
asbasbasbag48
(g64
g50
NtRp1852
(dp1853
g53
(dp1854
sg62
g1082
sg55
(lp1855
g48
(g69
g50
NtRp1856
(dp1857
g53
(dp1858
g73
g74
ssg62
g1852
sg55
(lp1859
S'wsgi_run_once'
p1860
asbag48
(g69
g50
NtRp1861
(dp1862
g53
(dp1863
g80
g81
ssg62
g1852
sg55
(lp1864
S':'
asbag48
(g69
g50
NtRp1865
(dp1866
g53
(dp1867
sg62
g1852
sg55
(lp1868
g48
(g49
g50
NtRp1869
(dp1870
g53
(dp1871
g61
I4
ssg62
g1865
sg55
(lp1872
g91
asbasbasbag48
(g64
g50
NtRp1873
(dp1874
g53
(dp1875
sg62
g1082
sg55
(lp1876
g48
(g69
g50
NtRp1877
(dp1878
g53
(dp1879
g73
g74
ssg62
g1873
sg55
(lp1880
S'wsgi_url_scheme'
p1881
asbag48
(g69
g50
NtRp1882
(dp1883
g53
(dp1884
g80
g81
ssg62
g1873
sg55
(lp1885
S':'
asbag48
(g69
g50
NtRp1886
(dp1887
g53
(dp1888
sg62
g1873
sg55
(lp1889
g48
(g49
g50
NtRp1890
(dp1891
g53
(dp1892
g61
I4
ssg62
g1886
sg55
(lp1893
S'http'
p1894
asbasbasbag48
(g64
g50
NtRp1895
(dp1896
g53
(dp1897
sg62
g1082
sg55
(lp1898
g48
(g69
g50
NtRp1899
(dp1900
g53
(dp1901
g73
g74
ssg62
g1895
sg55
(lp1902
S'wsgi_version'
p1903
asbag48
(g69
g50
NtRp1904
(dp1905
g53
(dp1906
g80
g81
ssg62
g1895
sg55
(lp1907
S':'
asbag48
(g69
g50
NtRp1908
(dp1909
g53
(dp1910
sg62
g1895
sg55
(lp1911
g48
(g49
g50
NtRp1912
(dp1913
g53
(dp1914
g61
I4
ssg62
g1908
sg55
(lp1915
g48
(g57
g50
NtRp1916
(dp1917
g53
(dp1918
g61
I3
ssg62
Nsg55
(lp1919
g48
(g64
g50
NtRp1920
(dp1921
g53
(dp1922
sg62
g1916
sg55
(lp1923
g48
(g69
g50
NtRp1924
(dp1925
g53
(dp1926
sg62
g1920
sg55
(lp1927
g48
(g49
g50
NtRp1928
(dp1929
g53
(dp1930
g61
I3
ssg62
g1924
sg55
(lp1931
S'1'
asbasbasbag48
(g64
g50
NtRp1932
(dp1933
g53
(dp1934
sg62
g1916
sg55
(lp1935
g48
(g69
g50
NtRp1936
(dp1937
g53
(dp1938
sg62
g1932
sg55
(lp1939
g48
(g49
g50
NtRp1940
(dp1941
g53
(dp1942
g61
I3
ssg62
g1936
sg55
(lp1943
S'0'
asbasbasbasbasbasbasbasbasbasbasbag48
(g64
g50
NtRp1944
(dp1945
g53
(dp1946
sg62
g58
sg55
(lp1947
g48
(g69
g50
NtRp1948
(dp1949
g53
(dp1950
g73
g74
ssg62
g1944
sg55
(lp1951
S'extension'
p1952
asbag48
(g69
g50
NtRp1953
(dp1954
g53
(dp1955
g80
g81
ssg62
g1944
sg55
(lp1956
S':'
asbag48
(g69
g50
NtRp1957
(dp1958
g53
(dp1959
sg62
g1944
sg55
(lp1960
g48
(g49
g50
NtRp1961
(dp1962
g53
(dp1963
g61
I5
ssg62
g1957
sg55
(lp1964
S'html'
p1965
asbasbasbag48
(g64
g50
NtRp1966
(dp1967
g53
(dp1968
sg62
g58
sg55
(lp1969
g48
(g69
g50
NtRp1970
(dp1971
g53
(dp1972
g73
g74
ssg62
g1966
sg55
(lp1973
S'folder'
p1974
asbag48
(g69
g50
NtRp1975
(dp1976
g53
(dp1977
g80
g81
ssg62
g1966
sg55
(lp1978
S':'
asbag48
(g69
g50
NtRp1979
(dp1980
g53
(dp1981
sg62
g1966
sg55
(lp1982
g48
(g49
g50
NtRp1983
(dp1984
g53
(dp1985
g61
I5
ssg62
g1979
sg55
(lp1986
S'C:\\Users\\Atomico\\web2py\\applications\\Desglosar_Emails\\'
p1987
asbasbasbag48
(g64
g50
NtRp1988
(dp1989
g53
(dp1990
sg62
g58
sg55
(lp1991
g48
(g69
g50
NtRp1992
(dp1993
g53
(dp1994
g73
g74
ssg62
g1988
sg55
(lp1995
S'function'
p1996
asbag48
(g69
g50
NtRp1997
(dp1998
g53
(dp1999
g80
g81
ssg62
g1988
sg55
(lp2000
S':'
asbag48
(g69
g50
NtRp2001
(dp2002
g53
(dp2003
sg62
g1988
sg55
(lp2004
g48
(g49
g50
NtRp2005
(dp2006
g53
(dp2007
g61
I5
ssg62
g2001
sg55
(lp2008
S'entrada_mod3'
p2009
asbasbasbag48
(g64
g50
NtRp2010
(dp2011
g53
(dp2012
sg62
g58
sg55
(lp2013
g48
(g69
g50
NtRp2014
(dp2015
g53
(dp2016
g73
g74
ssg62
g2010
sg55
(lp2017
S'get_vars'
p2018
asbag48
(g69
g50
NtRp2019
(dp2020
g53
(dp2021
g80
g81
ssg62
g2010
sg55
(lp2022
S':'
asbag48
(g69
g50
NtRp2023
(dp2024
g53
(dp2025
sg62
g2010
sg55
(lp2026
g48
(g49
g50
NtRp2027
(dp2028
g53
(dp2029
g61
I5
ssg62
g2023
sg55
(lp2030
g48
(g57
g50
NtRp2031
(dp2032
g53
(dp2033
g61
I4
ssg62
Nsg55
(lp2034
sbasbasbasbag48
(g64
g50
NtRp2035
(dp2036
g53
(dp2037
sg62
g58
sg55
(lp2038
g48
(g69
g50
NtRp2039
(dp2040
g53
(dp2041
g73
g74
ssg62
g2035
sg55
(lp2042
S'is_https'
p2043
asbag48
(g69
g50
NtRp2044
(dp2045
g53
(dp2046
g80
g81
ssg62
g2035
sg55
(lp2047
S':'
asbag48
(g69
g50
NtRp2048
(dp2049
g53
(dp2050
sg62
g2035
sg55
(lp2051
g48
(g49
g50
NtRp2052
(dp2053
g53
(dp2054
g61
I5
ssg62
g2048
sg55
(lp2055
g91
asbasbasbag48
(g64
g50
NtRp2056
(dp2057
g53
(dp2058
sg62
g58
sg55
(lp2059
g48
(g69
g50
NtRp2060
(dp2061
g53
(dp2062
g73
g74
ssg62
g2056
sg55
(lp2063
S'is_local'
p2064
asbag48
(g69
g50
NtRp2065
(dp2066
g53
(dp2067
g80
g81
ssg62
g2056
sg55
(lp2068
S':'
asbag48
(g69
g50
NtRp2069
(dp2070
g53
(dp2071
sg62
g2056
sg55
(lp2072
g48
(g49
g50
NtRp2073
(dp2074
g53
(dp2075
g61
I5
ssg62
g2069
sg55
(lp2076
g1851
asbasbasbag48
(g64
g50
NtRp2077
(dp2078
g53
(dp2079
sg62
g58
sg55
(lp2080
g48
(g69
g50
NtRp2081
(dp2082
g53
(dp2083
g73
g74
ssg62
g2077
sg55
(lp2084
S'is_restful'
p2085
asbag48
(g69
g50
NtRp2086
(dp2087
g53
(dp2088
g80
g81
ssg62
g2077
sg55
(lp2089
S':'
asbag48
(g69
g50
NtRp2090
(dp2091
g53
(dp2092
sg62
g2077
sg55
(lp2093
g48
(g49
g50
NtRp2094
(dp2095
g53
(dp2096
g61
I5
ssg62
g2090
sg55
(lp2097
g91
asbasbasbag48
(g64
g50
NtRp2098
(dp2099
g53
(dp2100
sg62
g58
sg55
(lp2101
g48
(g69
g50
NtRp2102
(dp2103
g53
(dp2104
g73
g74
ssg62
g2098
sg55
(lp2105
S'now'
p2106
asbag48
(g69
g50
NtRp2107
(dp2108
g53
(dp2109
g80
g81
ssg62
g2098
sg55
(lp2110
S':'
asbag48
(g69
g50
NtRp2111
(dp2112
g53
(dp2113
sg62
g2098
sg55
(lp2114
g48
(g49
g50
NtRp2115
(dp2116
g53
(dp2117
g61
I5
ssg62
g2111
sg55
(lp2118
S'datetime.datetime(2011, 9, 20, 13, 20, 1, 300000)'
p2119
asbasbasbag48
(g64
g50
NtRp2120
(dp2121
g53
(dp2122
sg62
g58
sg55
(lp2123
g48
(g69
g50
NtRp2124
(dp2125
g53
(dp2126
g73
g74
ssg62
g2120
sg55
(lp2127
S'post_vars'
p2128
asbag48
(g69
g50
NtRp2129
(dp2130
g53
(dp2131
g80
g81
ssg62
g2120
sg55
(lp2132
S':'
asbag48
(g69
g50
NtRp2133
(dp2134
g53
(dp2135
sg62
g2120
sg55
(lp2136
g48
(g49
g50
NtRp2137
(dp2138
g53
(dp2139
g61
I5
ssg62
g2133
sg55
(lp2140
g48
(g57
g50
NtRp2141
(dp2142
g53
(dp2143
g61
I4
ssg62
Nsg55
(lp2144
sbasbasbasbag48
(g64
g50
NtRp2145
(dp2146
g53
(dp2147
sg62
g58
sg55
(lp2148
g48
(g69
g50
NtRp2149
(dp2150
g53
(dp2151
g73
g74
ssg62
g2145
sg55
(lp2152
S'url'
p2153
asbag48
(g69
g50
NtRp2154
(dp2155
g53
(dp2156
g80
g81
ssg62
g2145
sg55
(lp2157
S':'
asbag48
(g69
g50
NtRp2158
(dp2159
g53
(dp2160
sg62
g2145
sg55
(lp2161
g48
(g49
g50
NtRp2162
(dp2163
g53
(dp2164
g61
I5
ssg62
g2158
sg55
(lp2165
S'/Desglosar_Emails/default/entrada_mod3'
p2166
asbasbasbag48
(g64
g50
NtRp2167
(dp2168
g53
(dp2169
sg62
g58
sg55
(lp2170
g48
(g69
g50
NtRp2171
(dp2172
g53
(dp2173
g73
g74
ssg62
g2167
sg55
(lp2174
S'uuid'
p2175
asbag48
(g69
g50
NtRp2176
(dp2177
g53
(dp2178
g80
g81
ssg62
g2167
sg55
(lp2179
S':'
asbag48
(g69
g50
NtRp2180
(dp2181
g53
(dp2182
sg62
g2167
sg55
(lp2183
g48
(g49
g50
NtRp2184
(dp2185
g53
(dp2186
g61
I5
ssg62
g2180
sg55
(lp2187
S'Desglosar_Emails/127.0.0.1.2011-09-20.13-20-01.c283cfe6-21ab-4a49-ba6d-7c7fe56272de'
p2188
asbasbasbag48
(g64
g50
NtRp2189
(dp2190
g53
(dp2191
sg62
g58
sg55
(lp2192
g48
(g69
g50
NtRp2193
(dp2194
g53
(dp2195
g73
g74
ssg62
g2189
sg55
(lp2196
S'vars'
p2197
asbag48
(g69
g50
NtRp2198
(dp2199
g53
(dp2200
g80
g81
ssg62
g2189
sg55
(lp2201
S':'
asbag48
(g69
g50
NtRp2202
(dp2203
g53
(dp2204
sg62
g2189
sg55
(lp2205
g48
(g49
g50
NtRp2206
(dp2207
g53
(dp2208
g61
I5
ssg62
g2202
sg55
(lp2209
g48
(g57
g50
NtRp2210
(dp2211
g53
(dp2212
g61
I4
ssg62
Nsg55
(lp2213
sbasbasbasbag48
(g64
g50
NtRp2214
(dp2215
g53
(dp2216
sg62
g58
sg55
(lp2217
g48
(g69
g50
NtRp2218
(dp2219
g53
(dp2220
g73
g74
ssg62
g2214
sg55
(lp2221
S'wsgi'
p2222
asbag48
(g69
g50
NtRp2223
(dp2224
g53
(dp2225
g80
g81
ssg62
g2214
sg55
(lp2226
S':'
asbag48
(g69
g50
NtRp2227
(dp2228
g53
(dp2229
sg62
g2214
sg55
(lp2230
g48
(g49
g50
NtRp2231
(dp2232
g53
(dp2233
g61
I5
ssg62
g2227
sg55
(lp2234
g48
(g57
g50
NtRp2235
(dp2236
g53
(dp2237
g61
I4
ssg62
Nsg55
(lp2238
g48
(g64
g50
NtRp2239
(dp2240
g53
(dp2241
sg62
g2235
sg55
(lp2242
g48
(g69
g50
NtRp2243
(dp2244
g53
(dp2245
g73
g74
ssg62
g2239
sg55
(lp2246
S'environ'
p2247
asbag48
(g69
g50
NtRp2248
(dp2249
g53
(dp2250
g80
g81
ssg62
g2239
sg55
(lp2251
S':'
asbag48
(g69
g50
NtRp2252
(dp2253
g53
(dp2254
sg62
g2239
sg55
(lp2255
g48
(g49
g50
NtRp2256
(dp2257
g53
(dp2258
g61
I4
ssg62
g2252
sg55
(lp2259
g48
(g57
g50
NtRp2260
(dp2261
g53
(dp2262
g61
I3
ssg62
Nsg55
(lp2263
g48
(g64
g50
NtRp2264
(dp2265
g53
(dp2266
sg62
g2260
sg55
(lp2267
g48
(g69
g50
NtRp2268
(dp2269
g53
(dp2270
g73
g74
ssg62
g2264
sg55
(lp2271
S'HTTP_ACCEPT'
p2272
asbag48
(g69
g50
NtRp2273
(dp2274
g53
(dp2275
g80
g81
ssg62
g2264
sg55
(lp2276
S':'
asbag48
(g69
g50
NtRp2277
(dp2278
g53
(dp2279
sg62
g2264
sg55
(lp2280
g48
(g49
g50
NtRp2281
(dp2282
g53
(dp2283
g61
I3
ssg62
g2277
sg55
(lp2284
g1263
asbasbasbag48
(g64
g50
NtRp2285
(dp2286
g53
(dp2287
sg62
g2260
sg55
(lp2288
g48
(g69
g50
NtRp2289
(dp2290
g53
(dp2291
g73
g74
ssg62
g2285
sg55
(lp2292
S'HTTP_ACCEPT_CHARSET'
p2293
asbag48
(g69
g50
NtRp2294
(dp2295
g53
(dp2296
g80
g81
ssg62
g2285
sg55
(lp2297
S':'
asbag48
(g69
g50
NtRp2298
(dp2299
g53
(dp2300
sg62
g2285
sg55
(lp2301
g48
(g49
g50
NtRp2302
(dp2303
g53
(dp2304
g61
I3
ssg62
g2298
sg55
(lp2305
g1285
asbasbasbag48
(g64
g50
NtRp2306
(dp2307
g53
(dp2308
sg62
g2260
sg55
(lp2309
g48
(g69
g50
NtRp2310
(dp2311
g53
(dp2312
g73
g74
ssg62
g2306
sg55
(lp2313
S'HTTP_ACCEPT_ENCODING'
p2314
asbag48
(g69
g50
NtRp2315
(dp2316
g53
(dp2317
g80
g81
ssg62
g2306
sg55
(lp2318
S':'
asbag48
(g69
g50
NtRp2319
(dp2320
g53
(dp2321
sg62
g2306
sg55
(lp2322
g48
(g49
g50
NtRp2323
(dp2324
g53
(dp2325
g61
I3
ssg62
g2319
sg55
(lp2326
g1307
asbasbasbag48
(g64
g50
NtRp2327
(dp2328
g53
(dp2329
sg62
g2260
sg55
(lp2330
g48
(g69
g50
NtRp2331
(dp2332
g53
(dp2333
g73
g74
ssg62
g2327
sg55
(lp2334
S'HTTP_ACCEPT_LANGUAGE'
p2335
asbag48
(g69
g50
NtRp2336
(dp2337
g53
(dp2338
g80
g81
ssg62
g2327
sg55
(lp2339
S':'
asbag48
(g69
g50
NtRp2340
(dp2341
g53
(dp2342
sg62
g2327
sg55
(lp2343
g48
(g49
g50
NtRp2344
(dp2345
g53
(dp2346
g61
I3
ssg62
g2340
sg55
(lp2347
g1329
asbasbasbag48
(g64
g50
NtRp2348
(dp2349
g53
(dp2350
sg62
g2260
sg55
(lp2351
g48
(g69
g50
NtRp2352
(dp2353
g53
(dp2354
g73
g74
ssg62
g2348
sg55
(lp2355
S'HTTP_CONNECTION'
p2356
asbag48
(g69
g50
NtRp2357
(dp2358
g53
(dp2359
g80
g81
ssg62
g2348
sg55
(lp2360
S':'
asbag48
(g69
g50
NtRp2361
(dp2362
g53
(dp2363
sg62
g2348
sg55
(lp2364
g48
(g49
g50
NtRp2365
(dp2366
g53
(dp2367
g61
I3
ssg62
g2361
sg55
(lp2368
g1351
asbasbasbag48
(g64
g50
NtRp2369
(dp2370
g53
(dp2371
sg62
g2260
sg55
(lp2372
g48
(g69
g50
NtRp2373
(dp2374
g53
(dp2375
g73
g74
ssg62
g2369
sg55
(lp2376
S'HTTP_COOKIE'
p2377
asbag48
(g69
g50
NtRp2378
(dp2379
g53
(dp2380
g80
g81
ssg62
g2369
sg55
(lp2381
S':'
asbag48
(g69
g50
NtRp2382
(dp2383
g53
(dp2384
sg62
g2369
sg55
(lp2385
g48
(g49
g50
NtRp2386
(dp2387
g53
(dp2388
g61
I3
ssg62
g2382
sg55
(lp2389
g1373
asbasbasbag48
(g64
g50
NtRp2390
(dp2391
g53
(dp2392
sg62
g2260
sg55
(lp2393
g48
(g69
g50
NtRp2394
(dp2395
g53
(dp2396
g73
g74
ssg62
g2390
sg55
(lp2397
S'HTTP_HOST'
p2398
asbag48
(g69
g50
NtRp2399
(dp2400
g53
(dp2401
g80
g81
ssg62
g2390
sg55
(lp2402
S':'
asbag48
(g69
g50
NtRp2403
(dp2404
g53
(dp2405
sg62
g2390
sg55
(lp2406
g48
(g49
g50
NtRp2407
(dp2408
g53
(dp2409
g61
I3
ssg62
g2403
sg55
(lp2410
g1395
asbasbasbag48
(g64
g50
NtRp2411
(dp2412
g53
(dp2413
sg62
g2260
sg55
(lp2414
g48
(g69
g50
NtRp2415
(dp2416
g53
(dp2417
g73
g74
ssg62
g2411
sg55
(lp2418
S'HTTP_REFERER'
p2419
asbag48
(g69
g50
NtRp2420
(dp2421
g53
(dp2422
g80
g81
ssg62
g2411
sg55
(lp2423
S':'
asbag48
(g69
g50
NtRp2424
(dp2425
g53
(dp2426
sg62
g2411
sg55
(lp2427
g48
(g49
g50
NtRp2428
(dp2429
g53
(dp2430
g61
I3
ssg62
g2424
sg55
(lp2431
g1417
asbasbasbag48
(g64
g50
NtRp2432
(dp2433
g53
(dp2434
sg62
g2260
sg55
(lp2435
g48
(g69
g50
NtRp2436
(dp2437
g53
(dp2438
g73
g74
ssg62
g2432
sg55
(lp2439
S'HTTP_USER_AGENT'
p2440
asbag48
(g69
g50
NtRp2441
(dp2442
g53
(dp2443
g80
g81
ssg62
g2432
sg55
(lp2444
S':'
asbag48
(g69
g50
NtRp2445
(dp2446
g53
(dp2447
sg62
g2432
sg55
(lp2448
g48
(g49
g50
NtRp2449
(dp2450
g53
(dp2451
g61
I3
ssg62
g2445
sg55
(lp2452
g1439
asbasbasbag48
(g64
g50
NtRp2453
(dp2454
g53
(dp2455
sg62
g2260
sg55
(lp2456
g48
(g69
g50
NtRp2457
(dp2458
g53
(dp2459
g73
g74
ssg62
g2453
sg55
(lp2460
S'PATH_INFO'
p2461
asbag48
(g69
g50
NtRp2462
(dp2463
g53
(dp2464
g80
g81
ssg62
g2453
sg55
(lp2465
S':'
asbag48
(g69
g50
NtRp2466
(dp2467
g53
(dp2468
sg62
g2453
sg55
(lp2469
g48
(g49
g50
NtRp2470
(dp2471
g53
(dp2472
g61
I3
ssg62
g2466
sg55
(lp2473
g1482
asbasbasbag48
(g64
g50
NtRp2474
(dp2475
g53
(dp2476
sg62
g2260
sg55
(lp2477
g48
(g69
g50
NtRp2478
(dp2479
g53
(dp2480
g73
g74
ssg62
g2474
sg55
(lp2481
S'QUERY_STRING'
p2482
asbag48
(g69
g50
NtRp2483
(dp2484
g53
(dp2485
g80
g81
ssg62
g2474
sg55
(lp2486
S':'
asbag48
(g69
g50
NtRp2487
(dp2488
g53
(dp2489
sg62
g2474
sg55
(lp2490
g48
(g49
g50
NtRp2491
(dp2492
g53
(dp2493
g61
I3
ssg62
g2487
sg55
(lp2494
S''
asbasbasbag48
(g64
g50
NtRp2495
(dp2496
g53
(dp2497
sg62
g2260
sg55
(lp2498
g48
(g69
g50
NtRp2499
(dp2500
g53
(dp2501
g73
g74
ssg62
g2495
sg55
(lp2502
S'REMOTE_ADDR'
p2503
asbag48
(g69
g50
NtRp2504
(dp2505
g53
(dp2506
g80
g81
ssg62
g2495
sg55
(lp2507
S':'
asbag48
(g69
g50
NtRp2508
(dp2509
g53
(dp2510
sg62
g2495
sg55
(lp2511
g48
(g49
g50
NtRp2512
(dp2513
g53
(dp2514
g61
I3
ssg62
g2508
sg55
(lp2515
g181
asbasbasbag48
(g64
g50
NtRp2516
(dp2517
g53
(dp2518
sg62
g2260
sg55
(lp2519
g48
(g69
g50
NtRp2520
(dp2521
g53
(dp2522
g73
g74
ssg62
g2516
sg55
(lp2523
S'REMOTE_PORT'
p2524
asbag48
(g69
g50
NtRp2525
(dp2526
g53
(dp2527
g80
g81
ssg62
g2516
sg55
(lp2528
S':'
asbag48
(g69
g50
NtRp2529
(dp2530
g53
(dp2531
sg62
g2516
sg55
(lp2532
g48
(g49
g50
NtRp2533
(dp2534
g53
(dp2535
g61
I3
ssg62
g2529
sg55
(lp2536
g1546
asbasbasbag48
(g64
g50
NtRp2537
(dp2538
g53
(dp2539
sg62
g2260
sg55
(lp2540
g48
(g69
g50
NtRp2541
(dp2542
g53
(dp2543
g73
g74
ssg62
g2537
sg55
(lp2544
S'REQUEST_METHOD'
p2545
asbag48
(g69
g50
NtRp2546
(dp2547
g53
(dp2548
g80
g81
ssg62
g2537
sg55
(lp2549
S':'
asbag48
(g69
g50
NtRp2550
(dp2551
g53
(dp2552
sg62
g2537
sg55
(lp2553
g48
(g49
g50
NtRp2554
(dp2555
g53
(dp2556
g61
I3
ssg62
g2550
sg55
(lp2557
g1568
asbasbasbag48
(g64
g50
NtRp2558
(dp2559
g53
(dp2560
sg62
g2260
sg55
(lp2561
g48
(g69
g50
NtRp2562
(dp2563
g53
(dp2564
g73
g74
ssg62
g2558
sg55
(lp2565
S'SCRIPT_NAME'
p2566
asbag48
(g69
g50
NtRp2567
(dp2568
g53
(dp2569
g80
g81
ssg62
g2558
sg55
(lp2570
S':'
asbag48
(g69
g50
NtRp2571
(dp2572
g53
(dp2573
sg62
g2558
sg55
(lp2574
g48
(g49
g50
NtRp2575
(dp2576
g53
(dp2577
g61
I3
ssg62
g2571
sg55
(lp2578
S''
asbasbasbag48
(g64
g50
NtRp2579
(dp2580
g53
(dp2581
sg62
g2260
sg55
(lp2582
g48
(g69
g50
NtRp2583
(dp2584
g53
(dp2585
g73
g74
ssg62
g2579
sg55
(lp2586
S'SERVER_NAME'
p2587
asbag48
(g69
g50
NtRp2588
(dp2589
g53
(dp2590
g80
g81
ssg62
g2579
sg55
(lp2591
S':'
asbag48
(g69
g50
NtRp2592
(dp2593
g53
(dp2594
sg62
g2579
sg55
(lp2595
g48
(g49
g50
NtRp2596
(dp2597
g53
(dp2598
g61
I3
ssg62
g2592
sg55
(lp2599
g1611
asbasbasbag48
(g64
g50
NtRp2600
(dp2601
g53
(dp2602
sg62
g2260
sg55
(lp2603
g48
(g69
g50
NtRp2604
(dp2605
g53
(dp2606
g73
g74
ssg62
g2600
sg55
(lp2607
S'SERVER_PORT'
p2608
asbag48
(g69
g50
NtRp2609
(dp2610
g53
(dp2611
g80
g81
ssg62
g2600
sg55
(lp2612
S':'
asbag48
(g69
g50
NtRp2613
(dp2614
g53
(dp2615
sg62
g2600
sg55
(lp2616
g48
(g49
g50
NtRp2617
(dp2618
g53
(dp2619
g61
I3
ssg62
g2613
sg55
(lp2620
g1633
asbasbasbag48
(g64
g50
NtRp2621
(dp2622
g53
(dp2623
sg62
g2260
sg55
(lp2624
g48
(g69
g50
NtRp2625
(dp2626
g53
(dp2627
g73
g74
ssg62
g2621
sg55
(lp2628
S'SERVER_PROTOCOL'
p2629
asbag48
(g69
g50
NtRp2630
(dp2631
g53
(dp2632
g80
g81
ssg62
g2621
sg55
(lp2633
S':'
asbag48
(g69
g50
NtRp2634
(dp2635
g53
(dp2636
sg62
g2621
sg55
(lp2637
g48
(g49
g50
NtRp2638
(dp2639
g53
(dp2640
g61
I3
ssg62
g2634
sg55
(lp2641
g1655
asbasbasbag48
(g64
g50
NtRp2642
(dp2643
g53
(dp2644
sg62
g2260
sg55
(lp2645
g48
(g69
g50
NtRp2646
(dp2647
g53
(dp2648
g73
g74
ssg62
g2642
sg55
(lp2649
S'SERVER_SOFTWARE'
p2650
asbag48
(g69
g50
NtRp2651
(dp2652
g53
(dp2653
g80
g81
ssg62
g2642
sg55
(lp2654
S':'
asbag48
(g69
g50
NtRp2655
(dp2656
g53
(dp2657
sg62
g2642
sg55
(lp2658
g48
(g49
g50
NtRp2659
(dp2660
g53
(dp2661
g61
I3
ssg62
g2655
sg55
(lp2662
g1677
asbasbasbag48
(g64
g50
NtRp2663
(dp2664
g53
(dp2665
sg62
g2260
sg55
(lp2666
g48
(g69
g50
NtRp2667
(dp2668
g53
(dp2669
g73
g74
ssg62
g2663
sg55
(lp2670
S'wsgi.errors'
p2671
asbag48
(g69
g50
NtRp2672
(dp2673
g53
(dp2674
g80
g81
ssg62
g2663
sg55
(lp2675
S':'
asbag48
(g69
g50
NtRp2676
(dp2677
g53
(dp2678
sg62
g2663
sg55
(lp2679
g48
(g49
g50
NtRp2680
(dp2681
g53
(dp2682
g61
I3
ssg62
g2676
sg55
(lp2683
S"<open file '<stderr>', mode 'w' at 0x002500B0>"
p2684
asbasbasbag48
(g64
g50
NtRp2685
(dp2686
g53
(dp2687
sg62
g2260
sg55
(lp2688
g48
(g69
g50
NtRp2689
(dp2690
g53
(dp2691
g73
g74
ssg62
g2685
sg55
(lp2692
S'wsgi.file_wrapper'
p2693
asbag48
(g69
g50
NtRp2694
(dp2695
g53
(dp2696
g80
g81
ssg62
g2685
sg55
(lp2697
S':'
asbag48
(g69
g50
NtRp2698
(dp2699
g53
(dp2700
sg62
g2685
sg55
(lp2701
g48
(g49
g50
NtRp2702
(dp2703
g53
(dp2704
g61
I3
ssg62
g2698
sg55
(lp2705
S'<class gluon.rocket.FileWrapper at 0x030B11B0>'
p2706
asbasbasbag48
(g64
g50
NtRp2707
(dp2708
g53
(dp2709
sg62
g2260
sg55
(lp2710
g48
(g69
g50
NtRp2711
(dp2712
g53
(dp2713
g73
g74
ssg62
g2707
sg55
(lp2714
S'wsgi.input'
p2715
asbag48
(g69
g50
NtRp2716
(dp2717
g53
(dp2718
g80
g81
ssg62
g2707
sg55
(lp2719
S':'
asbag48
(g69
g50
NtRp2720
(dp2721
g53
(dp2722
sg62
g2707
sg55
(lp2723
g48
(g49
g50
NtRp2724
(dp2725
g53
(dp2726
g61
I3
ssg62
g2720
sg55
(lp2727
S'<cStringIO.StringO object at 0x0764ACE0>'
p2728
asbasbasbag48
(g64
g50
NtRp2729
(dp2730
g53
(dp2731
sg62
g2260
sg55
(lp2732
g48
(g69
g50
NtRp2733
(dp2734
g53
(dp2735
g73
g74
ssg62
g2729
sg55
(lp2736
S'wsgi.multiprocess'
p2737
asbag48
(g69
g50
NtRp2738
(dp2739
g53
(dp2740
g80
g81
ssg62
g2729
sg55
(lp2741
S':'
asbag48
(g69
g50
NtRp2742
(dp2743
g53
(dp2744
sg62
g2729
sg55
(lp2745
g48
(g49
g50
NtRp2746
(dp2747
g53
(dp2748
g61
I3
ssg62
g2742
sg55
(lp2749
g91
asbasbasbag48
(g64
g50
NtRp2750
(dp2751
g53
(dp2752
sg62
g2260
sg55
(lp2753
g48
(g69
g50
NtRp2754
(dp2755
g53
(dp2756
g73
g74
ssg62
g2750
sg55
(lp2757
S'wsgi.multithread'
p2758
asbag48
(g69
g50
NtRp2759
(dp2760
g53
(dp2761
g80
g81
ssg62
g2750
sg55
(lp2762
S':'
asbag48
(g69
g50
NtRp2763
(dp2764
g53
(dp2765
sg62
g2750
sg55
(lp2766
g48
(g49
g50
NtRp2767
(dp2768
g53
(dp2769
g61
I3
ssg62
g2763
sg55
(lp2770
g1851
asbasbasbag48
(g64
g50
NtRp2771
(dp2772
g53
(dp2773
sg62
g2260
sg55
(lp2774
g48
(g69
g50
NtRp2775
(dp2776
g53
(dp2777
g73
g74
ssg62
g2771
sg55
(lp2778
S'wsgi.run_once'
p2779
asbag48
(g69
g50
NtRp2780
(dp2781
g53
(dp2782
g80
g81
ssg62
g2771
sg55
(lp2783
S':'
asbag48
(g69
g50
NtRp2784
(dp2785
g53
(dp2786
sg62
g2771
sg55
(lp2787
g48
(g49
g50
NtRp2788
(dp2789
g53
(dp2790
g61
I3
ssg62
g2784
sg55
(lp2791
g91
asbasbasbag48
(g64
g50
NtRp2792
(dp2793
g53
(dp2794
sg62
g2260
sg55
(lp2795
g48
(g69
g50
NtRp2796
(dp2797
g53
(dp2798
g73
g74
ssg62
g2792
sg55
(lp2799
S'wsgi.url_scheme'
p2800
asbag48
(g69
g50
NtRp2801
(dp2802
g53
(dp2803
g80
g81
ssg62
g2792
sg55
(lp2804
S':'
asbag48
(g69
g50
NtRp2805
(dp2806
g53
(dp2807
sg62
g2792
sg55
(lp2808
g48
(g49
g50
NtRp2809
(dp2810
g53
(dp2811
g61
I3
ssg62
g2805
sg55
(lp2812
g1894
asbasbasbag48
(g64
g50
NtRp2813
(dp2814
g53
(dp2815
sg62
g2260
sg55
(lp2816
g48
(g69
g50
NtRp2817
(dp2818
g53
(dp2819
g73
g74
ssg62
g2813
sg55
(lp2820
S'wsgi.version'
p2821
asbag48
(g69
g50
NtRp2822
(dp2823
g53
(dp2824
g80
g81
ssg62
g2813
sg55
(lp2825
S':'
asbag48
(g69
g50
NtRp2826
(dp2827
g53
(dp2828
sg62
g2813
sg55
(lp2829
g48
(g49
g50
NtRp2830
(dp2831
g53
(dp2832
g61
I3
ssg62
g2826
sg55
(lp2833
S'1'
asbasbasbasbasbasbasbasbasbasbasbasbasbsS'frames'
p2834
(lp2835
(dp2836
S'file'
p2837
S'C:\\Users\\Atomico\\web2py\\gluon\\restricted.py'
p2838
sS'dump'
p2839
(dp2840
sS'lnum'
p2841
I192
sS'lines'
p2842
(dp2843
sS'call'
p2844
S'(code=\'response.write(\\\'<!DOCTYPE html>\\\\n<html lang="\\\', ...t   -->    \\\\n  </body>\\\\n</html>\\\\n\\\', escape=False)\', environment={\'A\': <class \'gluon.html.A\'>, \'B\': <class \'gluon.html.B\'>, \'BEAUTIFY\': <class \'gluon.html.BEAUTIFY\'>, \'BODY\': <class \'gluon.html.BODY\'>, \'BR\': <class \'gluon.html.BR\'>, \'BUTTON\': <class \'gluon.html.BUTTON\'>, \'CAT\': <class \'gluon.html.CAT\'>, \'CENTER\': <class \'gluon.html.CENTER\'>, \'CLEANUP\': <class \'gluon.validators.CLEANUP\'>, \'CODE\': <class \'gluon.html.CODE\'>, ...}, layer=r\'C:\\Users\\Atomico\\web2py\\applications\\Desglosar_Emails\\views\\default/entrada_mod3.html\')'
p2845
sS'func'
p2846
S'restricted'
p2847
sa(dp2848
g2837
S'C:\\Users\\Atomico\\web2py\\applications\\Desglosar_Emails\\views\\default\\entrada_mod3.html'
p2849
sg2839
(dp2850
sg2841
I128
sg2842
(dp2851
I128
S'        while not patternemail.search(res[i]):'
p2852
sI129
S'            cadena=cadena+res[i]'
p2853
sI130
S'            i=i+1'
p2854
sI131
S'            pass'
p2855
sI132
S'        db.contactos.insert(nombre=cadena,email=res[i])'
p2856
sI133
S'        i=i+1'
p2857
sI134
S'    else:'
p2858
sI135
S'        db.contactos.insert(email=res[i])'
p2859
sI136
S'        i=i+1'
p2860
sI137
S'        pass'
p2861
sI138
S'    pass'
p2862
sI119
S'while i<len(res):'
p2863
sI120
S'    if patternemail.search(res[i]):'
p2864
sI121
S"        bol='True'"
p2865
sI122
S'    else:'
p2866
sI123
S"        bol='False'"
p2867
sI124
S'        pass'
p2868
sI125
S"    response.write('<br> i es: '+str(i)+' y patternemail para la palabra '+res[i]+' es '+bol ,escape=False)"
p2869
sI126
S'    if not patternemail.search(res[i]):'
p2870
sI127
S"        cadena=''"
p2871
ssg2844
S'()'
p2872
sg2846
S'<module>'
p2873
sasS'pyver'
p2874
S'Python 2.5.4: C:\\Users\\Atomico\\web2py\\web2py.exe'
p2875
sS'session'
p2876
g48
(g49
g50
NtRp2877
(dp2878
g53
(dp2879
sg55
(lp2880
g48
(g57
g50
NtRp2881
(dp2882
g53
(dp2883
g61
I5
ssg62
Nsg55
(lp2884
g48
(g64
g50
NtRp2885
(dp2886
g53
(dp2887
sg62
g2881
sg55
(lp2888
g48
(g69
g50
NtRp2889
(dp2890
g53
(dp2891
g73
g74
ssg62
g2885
sg55
(lp2892
S'last_query'
p2893
asbag48
(g69
g50
NtRp2894
(dp2895
g53
(dp2896
g80
g81
ssg62
g2885
sg55
(lp2897
S':'
asbag48
(g69
g50
NtRp2898
(dp2899
g53
(dp2900
sg62
g2885
sg55
(lp2901
g48
(g49
g50
NtRp2902
(dp2903
g53
(dp2904
g61
I5
ssg62
g2898
sg55
(lp2905
S'db.contactos.id>0'
p2906
asbasbasbasbasbsS'etype'
p2907
S"<type 'exceptions.IndexError'>"
p2908
sS'date'
p2909
S'Tue Sep 20 13:20:01 2011'
p2910
sS'response'
p2911
g48
(g49
g50
NtRp2912
(dp2913
g53
(dp2914
sg55
(lp2915
g48
(g57
g50
NtRp2916
(dp2917
g53
(dp2918
g61
I5
ssg62
Nsg55
(lp2919
g48
(g64
g50
NtRp2920
(dp2921
g53
(dp2922
sg62
g2916
sg55
(lp2923
g48
(g69
g50
NtRp2924
(dp2925
g53
(dp2926
g73
g74
ssg62
g2920
sg55
(lp2927
g146
asbag48
(g69
g50
NtRp2928
(dp2929
g53
(dp2930
g80
g81
ssg62
g2920
sg55
(lp2931
S':'
asbag48
(g69
g50
NtRp2932
(dp2933
g53
(dp2934
sg62
g2920
sg55
(lp2935
g48
(g49
g50
NtRp2936
(dp2937
g53
(dp2938
g61
I5
ssg62
g2932
sg55
(lp2939
S'<cStringIO.StringO object at 0x0770D720>'
p2940
asbasbasbag48
(g64
g50
NtRp2941
(dp2942
g53
(dp2943
sg62
g2916
sg55
(lp2944
g48
(g69
g50
NtRp2945
(dp2946
g53
(dp2947
g73
g74
ssg62
g2941
sg55
(lp2948
g212
asbag48
(g69
g50
NtRp2949
(dp2950
g53
(dp2951
g80
g81
ssg62
g2941
sg55
(lp2952
S':'
asbag48
(g69
g50
NtRp2953
(dp2954
g53
(dp2955
sg62
g2941
sg55
(lp2956
g48
(g49
g50
NtRp2957
(dp2958
g53
(dp2959
g61
I5
ssg62
g2953
sg55
(lp2960
g48
(g57
g50
NtRp2961
(dp2962
g53
(dp2963
g61
I4
ssg62
Nsg55
(lp2964
g48
(g64
g50
NtRp2965
(dp2966
g53
(dp2967
sg62
g2961
sg55
(lp2968
g48
(g69
g50
NtRp2969
(dp2970
g53
(dp2971
g73
g74
ssg62
g2965
sg55
(lp2972
S'session_id_desglosar_emails'
p2973
asbag48
(g69
g50
NtRp2974
(dp2975
g53
(dp2976
g80
g81
ssg62
g2965
sg55
(lp2977
S':'
asbag48
(g69
g50
NtRp2978
(dp2979
g53
(dp2980
sg62
g2965
sg55
(lp2981
g48
(g49
g50
NtRp2982
(dp2983
g53
(dp2984
g61
I4
ssg62
g2978
sg55
(lp2985
g48
(g57
g50
NtRp2986
(dp2987
g53
(dp2988
g61
I3
ssg62
Nsg55
(lp2989
g48
(g64
g50
NtRp2990
(dp2991
g53
(dp2992
sg62
g2986
sg55
(lp2993
g48
(g69
g50
NtRp2994
(dp2995
g53
(dp2996
g73
g74
ssg62
g2990
sg55
(lp2997
g262
asbag48
(g69
g50
NtRp2998
(dp2999
g53
(dp3000
g80
g81
ssg62
g2990
sg55
(lp3001
S':'
asbag48
(g69
g50
NtRp3002
(dp3003
g53
(dp3004
sg62
g2990
sg55
(lp3005
g48
(g49
g50
NtRp3006
(dp3007
g53
(dp3008
g61
I3
ssg62
g3002
sg55
(lp3009
S''
asbasbasbag48
(g64
g50
NtRp3010
(dp3011
g53
(dp3012
sg62
g2986
sg55
(lp3013
g48
(g69
g50
NtRp3014
(dp3015
g53
(dp3016
g73
g74
ssg62
g3010
sg55
(lp3017
g283
asbag48
(g69
g50
NtRp3018
(dp3019
g53
(dp3020
g80
g81
ssg62
g3010
sg55
(lp3021
S':'
asbag48
(g69
g50
NtRp3022
(dp3023
g53
(dp3024
sg62
g3010
sg55
(lp3025
g48
(g49
g50
NtRp3026
(dp3027
g53
(dp3028
g61
I3
ssg62
g3022
sg55
(lp3029
S''
asbasbasbag48
(g64
g50
NtRp3030
(dp3031
g53
(dp3032
sg62
g2986
sg55
(lp3033
g48
(g69
g50
NtRp3034
(dp3035
g53
(dp3036
g73
g74
ssg62
g3030
sg55
(lp3037
g304
asbag48
(g69
g50
NtRp3038
(dp3039
g53
(dp3040
g80
g81
ssg62
g3030
sg55
(lp3041
S':'
asbag48
(g69
g50
NtRp3042
(dp3043
g53
(dp3044
sg62
g3030
sg55
(lp3045
g48
(g49
g50
NtRp3046
(dp3047
g53
(dp3048
g61
I3
ssg62
g3042
sg55
(lp3049
S''
asbasbasbag48
(g64
g50
NtRp3050
(dp3051
g53
(dp3052
sg62
g2986
sg55
(lp3053
g48
(g69
g50
NtRp3054
(dp3055
g53
(dp3056
g73
g74
ssg62
g3050
sg55
(lp3057
g325
asbag48
(g69
g50
NtRp3058
(dp3059
g53
(dp3060
g80
g81
ssg62
g3050
sg55
(lp3061
S':'
asbag48
(g69
g50
NtRp3062
(dp3063
g53
(dp3064
sg62
g3050
sg55
(lp3065
g48
(g49
g50
NtRp3066
(dp3067
g53
(dp3068
g61
I3
ssg62
g3062
sg55
(lp3069
S''
asbasbasbag48
(g64
g50
NtRp3070
(dp3071
g53
(dp3072
sg62
g2986
sg55
(lp3073
g48
(g69
g50
NtRp3074
(dp3075
g53
(dp3076
g73
g74
ssg62
g3070
sg55
(lp3077
g346
asbag48
(g69
g50
NtRp3078
(dp3079
g53
(dp3080
g80
g81
ssg62
g3070
sg55
(lp3081
S':'
asbag48
(g69
g50
NtRp3082
(dp3083
g53
(dp3084
sg62
g3070
sg55
(lp3085
g48
(g49
g50
NtRp3086
(dp3087
g53
(dp3088
g61
I3
ssg62
g3082
sg55
(lp3089
S'/'
asbasbasbag48
(g64
g50
NtRp3090
(dp3091
g53
(dp3092
sg62
g2986
sg55
(lp3093
g48
(g69
g50
NtRp3094
(dp3095
g53
(dp3096
g73
g74
ssg62
g3090
sg55
(lp3097
g367
asbag48
(g69
g50
NtRp3098
(dp3099
g53
(dp3100
g80
g81
ssg62
g3090
sg55
(lp3101
S':'
asbag48
(g69
g50
NtRp3102
(dp3103
g53
(dp3104
sg62
g3090
sg55
(lp3105
g48
(g49
g50
NtRp3106
(dp3107
g53
(dp3108
g61
I3
ssg62
g3102
sg55
(lp3109
S''
asbasbasbag48
(g64
g50
NtRp3110
(dp3111
g53
(dp3112
sg62
g2986
sg55
(lp3113
g48
(g69
g50
NtRp3114
(dp3115
g53
(dp3116
g73
g74
ssg62
g3110
sg55
(lp3117
g388
asbag48
(g69
g50
NtRp3118
(dp3119
g53
(dp3120
g80
g81
ssg62
g3110
sg55
(lp3121
S':'
asbag48
(g69
g50
NtRp3122
(dp3123
g53
(dp3124
sg62
g3110
sg55
(lp3125
g48
(g49
g50
NtRp3126
(dp3127
g53
(dp3128
g61
I3
ssg62
g3122
sg55
(lp3129
S''
asbasbasbasbasbasbasbasbasbasbasbag48
(g64
g50
NtRp3130
(dp3131
g53
(dp3132
sg62
g2916
sg55
(lp3133
g48
(g69
g50
NtRp3134
(dp3135
g53
(dp3136
g73
g74
ssg62
g3130
sg55
(lp3137
S'files'
p3138
asbag48
(g69
g50
NtRp3139
(dp3140
g53
(dp3141
g80
g81
ssg62
g3130
sg55
(lp3142
S':'
asbag48
(g69
g50
NtRp3143
(dp3144
g53
(dp3145
sg62
g3130
sg55
(lp3146
g48
(g49
g50
NtRp3147
(dp3148
g53
(dp3149
g61
I5
ssg62
g3143
sg55
(lp3150
g48
(g57
g50
NtRp3151
(dp3152
g53
(dp3153
g61
I4
ssg62
Nsg55
(lp3154
g48
(g64
g50
NtRp3155
(dp3156
g53
(dp3157
sg62
g3151
sg55
(lp3158
g48
(g69
g50
NtRp3159
(dp3160
g53
(dp3161
sg62
g3155
sg55
(lp3162
g48
(g49
g50
NtRp3163
(dp3164
g53
(dp3165
g61
I4
ssg62
g3159
sg55
(lp3166
S'/Desglosar_Emails/static/js/jquery.js'
p3167
asbasbasbag48
(g64
g50
NtRp3168
(dp3169
g53
(dp3170
sg62
g3151
sg55
(lp3171
g48
(g69
g50
NtRp3172
(dp3173
g53
(dp3174
sg62
g3168
sg55
(lp3175
g48
(g49
g50
NtRp3176
(dp3177
g53
(dp3178
g61
I4
ssg62
g3172
sg55
(lp3179
S'/Desglosar_Emails/static/css/calendar.css'
p3180
asbasbasbag48
(g64
g50
NtRp3181
(dp3182
g53
(dp3183
sg62
g3151
sg55
(lp3184
g48
(g69
g50
NtRp3185
(dp3186
g53
(dp3187
sg62
g3181
sg55
(lp3188
g48
(g49
g50
NtRp3189
(dp3190
g53
(dp3191
g61
I4
ssg62
g3185
sg55
(lp3192
S'/Desglosar_Emails/static/js/calendar.js'
p3193
asbasbasbag48
(g64
g50
NtRp3194
(dp3195
g53
(dp3196
sg62
g3151
sg55
(lp3197
g48
(g69
g50
NtRp3198
(dp3199
g53
(dp3200
sg62
g3194
sg55
(lp3201
g48
(g49
g50
NtRp3202
(dp3203
g53
(dp3204
g61
I4
ssg62
g3198
sg55
(lp3205
S'/Desglosar_Emails/static/css/base.css'
p3206
asbasbasbag48
(g64
g50
NtRp3207
(dp3208
g53
(dp3209
sg62
g3151
sg55
(lp3210
g48
(g69
g50
NtRp3211
(dp3212
g53
(dp3213
sg62
g3207
sg55
(lp3214
g48
(g49
g50
NtRp3215
(dp3216
g53
(dp3217
g61
I4
ssg62
g3211
sg55
(lp3218
S'/Desglosar_Emails/static/css/superfish.css'
p3219
asbasbasbag48
(g64
g50
NtRp3220
(dp3221
g53
(dp3222
sg62
g3151
sg55
(lp3223
g48
(g69
g50
NtRp3224
(dp3225
g53
(dp3226
sg62
g3220
sg55
(lp3227
g48
(g49
g50
NtRp3228
(dp3229
g53
(dp3230
g61
I4
ssg62
g3224
sg55
(lp3231
S'/Desglosar_Emails/static/js/superfish.js'
p3232
asbasbasbasbasbasbasbag48
(g64
g50
NtRp3233
(dp3234
g53
(dp3235
sg62
g2916
sg55
(lp3236
g48
(g69
g50
NtRp3237
(dp3238
g53
(dp3239
g73
g74
ssg62
g3233
sg55
(lp3240
S'flash'
p3241
asbag48
(g69
g50
NtRp3242
(dp3243
g53
(dp3244
g80
g81
ssg62
g3233
sg55
(lp3245
S':'
asbag48
(g69
g50
NtRp3246
(dp3247
g53
(dp3248
sg62
g3233
sg55
(lp3249
g48
(g49
g50
NtRp3250
(dp3251
g53
(dp3252
g61
I5
ssg62
g3246
sg55
(lp3253
S''
asbasbasbag48
(g64
g50
NtRp3254
(dp3255
g53
(dp3256
sg62
g2916
sg55
(lp3257
g48
(g69
g50
NtRp3258
(dp3259
g53
(dp3260
g73
g74
ssg62
g3254
sg55
(lp3261
S'generic_patterns'
p3262
asbag48
(g69
g50
NtRp3263
(dp3264
g53
(dp3265
g80
g81
ssg62
g3254
sg55
(lp3266
S':'
asbag48
(g69
g50
NtRp3267
(dp3268
g53
(dp3269
sg62
g3254
sg55
(lp3270
g48
(g49
g50
NtRp3271
(dp3272
g53
(dp3273
g61
I5
ssg62
g3267
sg55
(lp3274
g48
(g57
g50
NtRp3275
(dp3276
g53
(dp3277
g61
I4
ssg62
Nsg55
(lp3278
sbasbasbasbag48
(g64
g50
NtRp3279
(dp3280
g53
(dp3281
sg62
g2916
sg55
(lp3282
g48
(g69
g50
NtRp3283
(dp3284
g53
(dp3285
g73
g74
ssg62
g3279
sg55
(lp3286
S'headers'
p3287
asbag48
(g69
g50
NtRp3288
(dp3289
g53
(dp3290
g80
g81
ssg62
g3279
sg55
(lp3291
S':'
asbag48
(g69
g50
NtRp3292
(dp3293
g53
(dp3294
sg62
g3279
sg55
(lp3295
g48
(g49
g50
NtRp3296
(dp3297
g53
(dp3298
g61
I5
ssg62
g3292
sg55
(lp3299
g48
(g57
g50
NtRp3300
(dp3301
g53
(dp3302
g61
I4
ssg62
Nsg55
(lp3303
g48
(g64
g50
NtRp3304
(dp3305
g53
(dp3306
sg62
g3300
sg55
(lp3307
g48
(g69
g50
NtRp3308
(dp3309
g53
(dp3310
g73
g74
ssg62
g3304
sg55
(lp3311
S'Cache-Control'
p3312
asbag48
(g69
g50
NtRp3313
(dp3314
g53
(dp3315
g80
g81
ssg62
g3304
sg55
(lp3316
S':'
asbag48
(g69
g50
NtRp3317
(dp3318
g53
(dp3319
sg62
g3304
sg55
(lp3320
g48
(g49
g50
NtRp3321
(dp3322
g53
(dp3323
g61
I4
ssg62
g3317
sg55
(lp3324
S'no-store, no-cache, must-revalidate, post-check=0, pre-check=0'
p3325
asbasbasbag48
(g64
g50
NtRp3326
(dp3327
g53
(dp3328
sg62
g3300
sg55
(lp3329
g48
(g69
g50
NtRp3330
(dp3331
g53
(dp3332
g73
g74
ssg62
g3326
sg55
(lp3333
S'Content-Type'
p3334
asbag48
(g69
g50
NtRp3335
(dp3336
g53
(dp3337
g80
g81
ssg62
g3326
sg55
(lp3338
S':'
asbag48
(g69
g50
NtRp3339
(dp3340
g53
(dp3341
sg62
g3326
sg55
(lp3342
g48
(g49
g50
NtRp3343
(dp3344
g53
(dp3345
g61
I4
ssg62
g3339
sg55
(lp3346
S'text/html; charset=utf-8'
p3347
asbasbasbag48
(g64
g50
NtRp3348
(dp3349
g53
(dp3350
sg62
g3300
sg55
(lp3351
g48
(g69
g50
NtRp3352
(dp3353
g53
(dp3354
g73
g74
ssg62
g3348
sg55
(lp3355
S'Expires'
p3356
asbag48
(g69
g50
NtRp3357
(dp3358
g53
(dp3359
g80
g81
ssg62
g3348
sg55
(lp3360
S':'
asbag48
(g69
g50
NtRp3361
(dp3362
g53
(dp3363
sg62
g3348
sg55
(lp3364
g48
(g49
g50
NtRp3365
(dp3366
g53
(dp3367
g61
I4
ssg62
g3361
sg55
(lp3368
S'Tue, 20 Sep 2011 11:20:01 GMT'
p3369
asbasbasbag48
(g64
g50
NtRp3370
(dp3371
g53
(dp3372
sg62
g3300
sg55
(lp3373
g48
(g69
g50
NtRp3374
(dp3375
g53
(dp3376
g73
g74
ssg62
g3370
sg55
(lp3377
S'Pragma'
p3378
asbag48
(g69
g50
NtRp3379
(dp3380
g53
(dp3381
g80
g81
ssg62
g3370
sg55
(lp3382
S':'
asbag48
(g69
g50
NtRp3383
(dp3384
g53
(dp3385
sg62
g3370
sg55
(lp3386
g48
(g49
g50
NtRp3387
(dp3388
g53
(dp3389
g61
I4
ssg62
g3383
sg55
(lp3390
S'no-cache'
p3391
asbasbasbag48
(g64
g50
NtRp3392
(dp3393
g53
(dp3394
sg62
g3300
sg55
(lp3395
g48
(g69
g50
NtRp3396
(dp3397
g53
(dp3398
g73
g74
ssg62
g3392
sg55
(lp3399
S'X-Powered-By'
p3400
asbag48
(g69
g50
NtRp3401
(dp3402
g53
(dp3403
g80
g81
ssg62
g3392
sg55
(lp3404
S':'
asbag48
(g69
g50
NtRp3405
(dp3406
g53
(dp3407
sg62
g3392
sg55
(lp3408
g48
(g49
g50
NtRp3409
(dp3410
g53
(dp3411
g61
I4
ssg62
g3405
sg55
(lp3412
S'web2py'
p3413
asbasbasbasbasbasbasbag48
(g64
g50
NtRp3414
(dp3415
g53
(dp3416
sg62
g2916
sg55
(lp3417
g48
(g69
g50
NtRp3418
(dp3419
g53
(dp3420
g73
g74
ssg62
g3414
sg55
(lp3421
S'menu'
p3422
asbag48
(g69
g50
NtRp3423
(dp3424
g53
(dp3425
g80
g81
ssg62
g3414
sg55
(lp3426
S':'
asbag48
(g69
g50
NtRp3427
(dp3428
g53
(dp3429
sg62
g3414
sg55
(lp3430
g48
(g49
g50
NtRp3431
(dp3432
g53
(dp3433
g61
I5
ssg62
g3427
sg55
(lp3434
g48
(g57
g50
NtRp3435
(dp3436
g53
(dp3437
g61
I4
ssg62
Nsg55
(lp3438
g48
(g64
g50
NtRp3439
(dp3440
g53
(dp3441
sg62
g3435
sg55
(lp3442
g48
(g69
g50
NtRp3443
(dp3444
g53
(dp3445
sg62
g3439
sg55
(lp3446
g48
(g49
g50
NtRp3447
(dp3448
g53
(dp3449
g61
I4
ssg62
g3443
sg55
(lp3450
g48
(g57
g50
NtRp3451
(dp3452
g53
(dp3453
g61
I3
ssg62
Nsg55
(lp3454
g48
(g64
g50
NtRp3455
(dp3456
g53
(dp3457
sg62
g3451
sg55
(lp3458
g48
(g69
g50
NtRp3459
(dp3460
g53
(dp3461
sg62
g3455
sg55
(lp3462
g48
(g49
g50
NtRp3463
(dp3464
g53
(dp3465
g61
I3
ssg62
g3459
sg55
(lp3466
cgluon.languages
lazyT_unpickle
p3467
(S't\x04\x00\x00\x00Home'
tRp3468
asbasbasbag48
(g64
g50
NtRp3469
(dp3470
g53
(dp3471
sg62
g3451
sg55
(lp3472
g48
(g69
g50
NtRp3473
(dp3474
g53
(dp3475
sg62
g3469
sg55
(lp3476
g48
(g49
g50
NtRp3477
(dp3478
g53
(dp3479
g61
I3
ssg62
g3473
sg55
(lp3480
g91
asbasbasbag48
(g64
g50
NtRp3481
(dp3482
g53
(dp3483
sg62
g3451
sg55
(lp3484
g48
(g69
g50
NtRp3485
(dp3486
g53
(dp3487
sg62
g3481
sg55
(lp3488
g48
(g49
g50
NtRp3489
(dp3490
g53
(dp3491
g61
I3
ssg62
g3485
sg55
(lp3492
S'/Desglosar_Emails/default/index'
p3493
asbasbasbag48
(g64
g50
NtRp3494
(dp3495
g53
(dp3496
sg62
g3451
sg55
(lp3497
g48
(g69
g50
NtRp3498
(dp3499
g53
(dp3500
sg62
g3494
sg55
(lp3501
g48
(g49
g50
NtRp3502
(dp3503
g53
(dp3504
g61
I3
ssg62
g3498
sg55
(lp3505
g48
(g57
g50
NtRp3506
(dp3507
g53
(dp3508
g61
I2
ssg62
Nsg55
(lp3509
sbasbasbasbasbasbasbasbag48
(g64
g50
NtRp3510
(dp3511
g53
(dp3512
sg62
g3435
sg55
(lp3513
g48
(g69
g50
NtRp3514
(dp3515
g53
(dp3516
sg62
g3510
sg55
(lp3517
g48
(g49
g50
NtRp3518
(dp3519
g53
(dp3520
g61
I4
ssg62
g3514
sg55
(lp3521
g48
(g57
g50
NtRp3522
(dp3523
g53
(dp3524
g61
I3
ssg62
Nsg55
(lp3525
g48
(g64
g50
NtRp3526
(dp3527
g53
(dp3528
sg62
g3522
sg55
(lp3529
g48
(g69
g50
NtRp3530
(dp3531
g53
(dp3532
sg62
g3526
sg55
(lp3533
g48
(g49
g50
NtRp3534
(dp3535
g53
(dp3536
g61
I3
ssg62
g3530
sg55
(lp3537
g3467
(S's\x08\x00\x00\x00This App'
tRp3538
asbasbasbag48
(g64
g50
NtRp3539
(dp3540
g53
(dp3541
sg62
g3522
sg55
(lp3542
g48
(g69
g50
NtRp3543
(dp3544
g53
(dp3545
sg62
g3539
sg55
(lp3546
g48
(g49
g50
NtRp3547
(dp3548
g53
(dp3549
g61
I3
ssg62
g3543
sg55
(lp3550
g91
asbasbasbag48
(g64
g50
NtRp3551
(dp3552
g53
(dp3553
sg62
g3522
sg55
(lp3554
g48
(g69
g50
NtRp3555
(dp3556
g53
(dp3557
sg62
g3551
sg55
(lp3558
g48
(g49
g50
NtRp3559
(dp3560
g53
(dp3561
g61
I3
ssg62
g3555
sg55
(lp3562
S'/admin/default/design/Desglosar_Emails'
p3563
asbasbasbag48
(g64
g50
NtRp3564
(dp3565
g53
(dp3566
sg62
g3522
sg55
(lp3567
g48
(g69
g50
NtRp3568
(dp3569
g53
(dp3570
sg62
g3564
sg55
(lp3571
g48
(g49
g50
NtRp3572
(dp3573
g53
(dp3574
g61
I3
ssg62
g3568
sg55
(lp3575
g48
(g57
g50
NtRp3576
(dp3577
g53
(dp3578
g61
I2
ssg62
Nsg55
(lp3579
g48
(g64
g50
NtRp3580
(dp3581
g53
(dp3582
sg62
g3576
sg55
(lp3583
g48
(g69
g50
NtRp3584
(dp3585
g53
(dp3586
sg62
g3580
sg55
(lp3587
g48
(g49
g50
NtRp3588
(dp3589
g53
(dp3590
g61
I2
ssg62
g3584
sg55
(lp3591
g48
(g57
g50
NtRp3592
(dp3593
g53
(dp3594
g61
I1
ssg62
Nsg55
(lp3595
g48
(g64
g50
NtRp3596
(dp3597
g53
(dp3598
sg62
g3592
sg55
(lp3599
g48
(g69
g50
NtRp3600
(dp3601
g53
(dp3602
sg62
g3596
sg55
(lp3603
g48
(g49
g50
NtRp3604
(dp3605
g53
(dp3606
g61
I1
ssg62
g3600
sg55
(lp3607
g3467
(S't\x0b\x00\x00\x00Controlador'
tRp3608
asbasbasbag48
(g64
g50
NtRp3609
(dp3610
g53
(dp3611
sg62
g3592
sg55
(lp3612
g48
(g69
g50
NtRp3613
(dp3614
g53
(dp3615
sg62
g3609
sg55
(lp3616
g48
(g49
g50
NtRp3617
(dp3618
g53
(dp3619
g61
I1
ssg62
g3613
sg55
(lp3620
I00
asbasbasbag48
(g64
g50
NtRp3621
(dp3622
g53
(dp3623
sg62
g3592
sg55
(lp3624
g48
(g69
g50
NtRp3625
(dp3626
g53
(dp3627
sg62
g3621
sg55
(lp3628
g48
(g49
g50
NtRp3629
(dp3630
g53
(dp3631
g61
I1
ssg62
g3625
sg55
(lp3632
S'/admin/default/edit/Desglosar_Emails/controllers/default.py'
p3633
asbasbasbasbasbasbasbag48
(g64
g50
NtRp3634
(dp3635
g53
(dp3636
sg62
g3576
sg55
(lp3637
g48
(g69
g50
NtRp3638
(dp3639
g53
(dp3640
sg62
g3634
sg55
(lp3641
g48
(g49
g50
NtRp3642
(dp3643
g53
(dp3644
g61
I2
ssg62
g3638
sg55
(lp3645
g48
(g57
g50
NtRp3646
(dp3647
g53
(dp3648
g61
I1
ssg62
Nsg55
(lp3649
g48
(g64
g50
NtRp3650
(dp3651
g53
(dp3652
sg62
g3646
sg55
(lp3653
g48
(g69
g50
NtRp3654
(dp3655
g53
(dp3656
sg62
g3650
sg55
(lp3657
g48
(g49
g50
NtRp3658
(dp3659
g53
(dp3660
g61
I1
ssg62
g3654
sg55
(lp3661
g3467
(S't\x05\x00\x00\x00Vista'
tRp3662
asbasbasbag48
(g64
g50
NtRp3663
(dp3664
g53
(dp3665
sg62
g3646
sg55
(lp3666
g48
(g69
g50
NtRp3667
(dp3668
g53
(dp3669
sg62
g3663
sg55
(lp3670
g48
(g49
g50
NtRp3671
(dp3672
g53
(dp3673
g61
I1
ssg62
g3667
sg55
(lp3674
I00
asbasbasbag48
(g64
g50
NtRp3675
(dp3676
g53
(dp3677
sg62
g3646
sg55
(lp3678
g48
(g69
g50
NtRp3679
(dp3680
g53
(dp3681
sg62
g3675
sg55
(lp3682
g48
(g49
g50
NtRp3683
(dp3684
g53
(dp3685
g61
I1
ssg62
g3679
sg55
(lp3686
S'/admin/default/edit/Desglosar_Emails/views/default/entrada_mod3.html'
p3687
asbasbasbasbasbasbasbag48
(g64
g50
NtRp3688
(dp3689
g53
(dp3690
sg62
g3576
sg55
(lp3691
g48
(g69
g50
NtRp3692
(dp3693
g53
(dp3694
sg62
g3688
sg55
(lp3695
g48
(g49
g50
NtRp3696
(dp3697
g53
(dp3698
g61
I2
ssg62
g3692
sg55
(lp3699
g48
(g57
g50
NtRp3700
(dp3701
g53
(dp3702
g61
I1
ssg62
Nsg55
(lp3703
g48
(g64
g50
NtRp3704
(dp3705
g53
(dp3706
sg62
g3700
sg55
(lp3707
g48
(g69
g50
NtRp3708
(dp3709
g53
(dp3710
sg62
g3704
sg55
(lp3711
g48
(g49
g50
NtRp3712
(dp3713
g53
(dp3714
g61
I1
ssg62
g3708
sg55
(lp3715
g3467
(S's\x12\x00\x00\x00Dise\xc3\xb1o de p\xc3\xa1gina'
tRp3716
asbasbasbag48
(g64
g50
NtRp3717
(dp3718
g53
(dp3719
sg62
g3700
sg55
(lp3720
g48
(g69
g50
NtRp3721
(dp3722
g53
(dp3723
sg62
g3717
sg55
(lp3724
g48
(g49
g50
NtRp3725
(dp3726
g53
(dp3727
g61
I1
ssg62
g3721
sg55
(lp3728
I00
asbasbasbag48
(g64
g50
NtRp3729
(dp3730
g53
(dp3731
sg62
g3700
sg55
(lp3732
g48
(g69
g50
NtRp3733
(dp3734
g53
(dp3735
sg62
g3729
sg55
(lp3736
g48
(g49
g50
NtRp3737
(dp3738
g53
(dp3739
g61
I1
ssg62
g3733
sg55
(lp3740
S'/admin/default/edit/Desglosar_Emails/views/layout.html'
p3741
asbasbasbasbasbasbasbag48
(g64
g50
NtRp3742
(dp3743
g53
(dp3744
sg62
g3576
sg55
(lp3745
g48
(g69
g50
NtRp3746
(dp3747
g53
(dp3748
sg62
g3742
sg55
(lp3749
g48
(g49
g50
NtRp3750
(dp3751
g53
(dp3752
g61
I2
ssg62
g3746
sg55
(lp3753
g48
(g57
g50
NtRp3754
(dp3755
g53
(dp3756
g61
I1
ssg62
Nsg55
(lp3757
g48
(g64
g50
NtRp3758
(dp3759
g53
(dp3760
sg62
g3754
sg55
(lp3761
g48
(g69
g50
NtRp3762
(dp3763
g53
(dp3764
sg62
g3758
sg55
(lp3765
g48
(g49
g50
NtRp3766
(dp3767
g53
(dp3768
g61
I1
ssg62
g3762
sg55
(lp3769
g3467
(S's\x0e\x00\x00\x00Hoja de estilo'
tRp3770
asbasbasbag48
(g64
g50
NtRp3771
(dp3772
g53
(dp3773
sg62
g3754
sg55
(lp3774
g48
(g69
g50
NtRp3775
(dp3776
g53
(dp3777
sg62
g3771
sg55
(lp3778
g48
(g49
g50
NtRp3779
(dp3780
g53
(dp3781
g61
I1
ssg62
g3775
sg55
(lp3782
I00
asbasbasbag48
(g64
g50
NtRp3783
(dp3784
g53
(dp3785
sg62
g3754
sg55
(lp3786
g48
(g69
g50
NtRp3787
(dp3788
g53
(dp3789
sg62
g3783
sg55
(lp3790
g48
(g49
g50
NtRp3791
(dp3792
g53
(dp3793
g61
I1
ssg62
g3787
sg55
(lp3794
S'/admin/default/edit/Desglosar_Emails/static/base.css'
p3795
asbasbasbasbasbasbasbag48
(g64
g50
NtRp3796
(dp3797
g53
(dp3798
sg62
g3576
sg55
(lp3799
g48
(g69
g50
NtRp3800
(dp3801
g53
(dp3802
sg62
g3796
sg55
(lp3803
g48
(g49
g50
NtRp3804
(dp3805
g53
(dp3806
g61
I2
ssg62
g3800
sg55
(lp3807
g48
(g57
g50
NtRp3808
(dp3809
g53
(dp3810
g61
I1
ssg62
Nsg55
(lp3811
g48
(g64
g50
NtRp3812
(dp3813
g53
(dp3814
sg62
g3808
sg55
(lp3815
g48
(g69
g50
NtRp3816
(dp3817
g53
(dp3818
sg62
g3812
sg55
(lp3819
g48
(g49
g50
NtRp3820
(dp3821
g53
(dp3822
g61
I1
ssg62
g3816
sg55
(lp3823
g3467
(S's\x0b\x00\x00\x00Modelo "db"'
tRp3824
asbasbasbag48
(g64
g50
NtRp3825
(dp3826
g53
(dp3827
sg62
g3808
sg55
(lp3828
g48
(g69
g50
NtRp3829
(dp3830
g53
(dp3831
sg62
g3825
sg55
(lp3832
g48
(g49
g50
NtRp3833
(dp3834
g53
(dp3835
g61
I1
ssg62
g3829
sg55
(lp3836
I00
asbasbasbag48
(g64
g50
NtRp3837
(dp3838
g53
(dp3839
sg62
g3808
sg55
(lp3840
g48
(g69
g50
NtRp3841
(dp3842
g53
(dp3843
sg62
g3837
sg55
(lp3844
g48
(g49
g50
NtRp3845
(dp3846
g53
(dp3847
g61
I1
ssg62
g3841
sg55
(lp3848
S'/admin/default/edit/Desglosar_Emails/models/db.py'
p3849
asbasbasbasbasbasbasbag48
(g64
g50
NtRp3850
(dp3851
g53
(dp3852
sg62
g3576
sg55
(lp3853
g48
(g69
g50
NtRp3854
(dp3855
g53
(dp3856
sg62
g3850
sg55
(lp3857
g48
(g49
g50
NtRp3858
(dp3859
g53
(dp3860
g61
I2
ssg62
g3854
sg55
(lp3861
g48
(g57
g50
NtRp3862
(dp3863
g53
(dp3864
g61
I1
ssg62
Nsg55
(lp3865
g48
(g64
g50
NtRp3866
(dp3867
g53
(dp3868
sg62
g3862
sg55
(lp3869
g48
(g69
g50
NtRp3870
(dp3871
g53
(dp3872
sg62
g3866
sg55
(lp3873
g48
(g49
g50
NtRp3874
(dp3875
g53
(dp3876
g61
I1
ssg62
g3870
sg55
(lp3877
g3467
(S's\r\x00\x00\x00Modelo "menu"'
tRp3878
asbasbasbag48
(g64
g50
NtRp3879
(dp3880
g53
(dp3881
sg62
g3862
sg55
(lp3882
g48
(g69
g50
NtRp3883
(dp3884
g53
(dp3885
sg62
g3879
sg55
(lp3886
g48
(g49
g50
NtRp3887
(dp3888
g53
(dp3889
g61
I1
ssg62
g3883
sg55
(lp3890
I00
asbasbasbag48
(g64
g50
NtRp3891
(dp3892
g53
(dp3893
sg62
g3862
sg55
(lp3894
g48
(g69
g50
NtRp3895
(dp3896
g53
(dp3897
sg62
g3891
sg55
(lp3898
g48
(g49
g50
NtRp3899
(dp3900
g53
(dp3901
g61
I1
ssg62
g3895
sg55
(lp3902
S'/admin/default/edit/Desglosar_Emails/models/menu.py'
p3903
asbasbasbasbasbasbasbag48
(g64
g50
NtRp3904
(dp3905
g53
(dp3906
sg62
g3576
sg55
(lp3907
g48
(g69
g50
NtRp3908
(dp3909
g53
(dp3910
sg62
g3904
sg55
(lp3911
g48
(g49
g50
NtRp3912
(dp3913
g53
(dp3914
g61
I2
ssg62
g3908
sg55
(lp3915
g48
(g57
g50
NtRp3916
(dp3917
g53
(dp3918
g61
I1
ssg62
Nsg55
(lp3919
g48
(g64
g50
NtRp3920
(dp3921
g53
(dp3922
sg62
g3916
sg55
(lp3923
g48
(g69
g50
NtRp3924
(dp3925
g53
(dp3926
sg62
g3920
sg55
(lp3927
g48
(g49
g50
NtRp3928
(dp3929
g53
(dp3930
g61
I1
ssg62
g3924
sg55
(lp3931
g3467
(S's\r\x00\x00\x00Base de datos'
tRp3932
asbasbasbag48
(g64
g50
NtRp3933
(dp3934
g53
(dp3935
sg62
g3916
sg55
(lp3936
g48
(g69
g50
NtRp3937
(dp3938
g53
(dp3939
sg62
g3933
sg55
(lp3940
g48
(g49
g50
NtRp3941
(dp3942
g53
(dp3943
g61
I1
ssg62
g3937
sg55
(lp3944
I00
asbasbasbag48
(g64
g50
NtRp3945
(dp3946
g53
(dp3947
sg62
g3916
sg55
(lp3948
g48
(g69
g50
NtRp3949
(dp3950
g53
(dp3951
sg62
g3945
sg55
(lp3952
g48
(g49
g50
NtRp3953
(dp3954
g53
(dp3955
g61
I1
ssg62
g3949
sg55
(lp3956
S'/Desglosar_Emails/appadmin/index'
p3957
asbasbasbasbasbasbasbag48
(g64
g50
NtRp3958
(dp3959
g53
(dp3960
sg62
g3576
sg55
(lp3961
g48
(g69
g50
NtRp3962
(dp3963
g53
(dp3964
sg62
g3958
sg55
(lp3965
g48
(g49
g50
NtRp3966
(dp3967
g53
(dp3968
g61
I2
ssg62
g3962
sg55
(lp3969
g48
(g57
g50
NtRp3970
(dp3971
g53
(dp3972
g61
I1
ssg62
Nsg55
(lp3973
g48
(g64
g50
NtRp3974
(dp3975
g53
(dp3976
sg62
g3970
sg55
(lp3977
g48
(g69
g50
NtRp3978
(dp3979
g53
(dp3980
sg62
g3974
sg55
(lp3981
g48
(g49
g50
NtRp3982
(dp3983
g53
(dp3984
g61
I1
ssg62
g3978
sg55
(lp3985
g3467
(S't\x06\x00\x00\x00Errors'
tRp3986
asbasbasbag48
(g64
g50
NtRp3987
(dp3988
g53
(dp3989
sg62
g3970
sg55
(lp3990
g48
(g69
g50
NtRp3991
(dp3992
g53
(dp3993
sg62
g3987
sg55
(lp3994
g48
(g49
g50
NtRp3995
(dp3996
g53
(dp3997
g61
I1
ssg62
g3991
sg55
(lp3998
I00
asbasbasbag48
(g64
g50
NtRp3999
(dp4000
g53
(dp4001
sg62
g3970
sg55
(lp4002
g48
(g69
g50
NtRp4003
(dp4004
g53
(dp4005
sg62
g3999
sg55
(lp4006
g48
(g49
g50
NtRp4007
(dp4008
g53
(dp4009
g61
I1
ssg62
g4003
sg55
(lp4010
S'/admin/default/errors/Desglosar_Emails'
p4011
asbasbasbasbasbasbasbag48
(g64
g50
NtRp4012
(dp4013
g53
(dp4014
sg62
g3576
sg55
(lp4015
g48
(g69
g50
NtRp4016
(dp4017
g53
(dp4018
sg62
g4012
sg55
(lp4019
g48
(g49
g50
NtRp4020
(dp4021
g53
(dp4022
g61
I2
ssg62
g4016
sg55
(lp4023
g48
(g57
g50
NtRp4024
(dp4025
g53
(dp4026
g61
I1
ssg62
Nsg55
(lp4027
g48
(g64
g50
NtRp4028
(dp4029
g53
(dp4030
sg62
g4024
sg55
(lp4031
g48
(g69
g50
NtRp4032
(dp4033
g53
(dp4034
sg62
g4028
sg55
(lp4035
g48
(g49
g50
NtRp4036
(dp4037
g53
(dp4038
g61
I1
ssg62
g4032
sg55
(lp4039
g3467
(S's\t\x00\x00\x00Acerca de'
tRp4040
asbasbasbag48
(g64
g50
NtRp4041
(dp4042
g53
(dp4043
sg62
g4024
sg55
(lp4044
g48
(g69
g50
NtRp4045
(dp4046
g53
(dp4047
sg62
g4041
sg55
(lp4048
g48
(g49
g50
NtRp4049
(dp4050
g53
(dp4051
g61
I1
ssg62
g4045
sg55
(lp4052
I00
asbasbasbag48
(g64
g50
NtRp4053
(dp4054
g53
(dp4055
sg62
g4024
sg55
(lp4056
g48
(g69
g50
NtRp4057
(dp4058
g53
(dp4059
sg62
g4053
sg55
(lp4060
g48
(g49
g50
NtRp4061
(dp4062
g53
(dp4063
g61
I1
ssg62
g4057
sg55
(lp4064
S'/admin/default/about/Desglosar_Emails'
p4065
asbasbasbasbasbasbasbasbasbasbasbasbasbasbasbag48
(g64
g50
NtRp4066
(dp4067
g53
(dp4068
sg62
g3435
sg55
(lp4069
g48
(g69
g50
NtRp4070
(dp4071
g53
(dp4072
sg62
g4066
sg55
(lp4073
g48
(g49
g50
NtRp4074
(dp4075
g53
(dp4076
g61
I4
ssg62
g4070
sg55
(lp4077
g48
(g57
g50
NtRp4078
(dp4079
g53
(dp4080
g61
I3
ssg62
Nsg55
(lp4081
g48
(g64
g50
NtRp4082
(dp4083
g53
(dp4084
sg62
g4078
sg55
(lp4085
g48
(g69
g50
NtRp4086
(dp4087
g53
(dp4088
sg62
g4082
sg55
(lp4089
g48
(g49
g50
NtRp4090
(dp4091
g53
(dp4092
g61
I3
ssg62
g4086
sg55
(lp4093
g3467
(S't\t\x00\x00\x00Resources'
tRp4094
asbasbasbag48
(g64
g50
NtRp4095
(dp4096
g53
(dp4097
sg62
g4078
sg55
(lp4098
g48
(g69
g50
NtRp4099
(dp4100
g53
(dp4101
sg62
g4095
sg55
(lp4102
g48
(g49
g50
NtRp4103
(dp4104
g53
(dp4105
g61
I3
ssg62
g4099
sg55
(lp4106
g91
asbasbasbag48
(g64
g50
NtRp4107
(dp4108
g53
(dp4109
sg62
g4078
sg55
(lp4110
g48
(g69
g50
NtRp4111
(dp4112
g53
(dp4113
sg62
g4107
sg55
(lp4114
g48
(g49
g50
NtRp4115
(dp4116
g53
(dp4117
g61
I3
ssg62
g4111
sg55
(lp4118
S'None'
p4119
asbasbasbag48
(g64
g50
NtRp4120
(dp4121
g53
(dp4122
sg62
g4078
sg55
(lp4123
g48
(g69
g50
NtRp4124
(dp4125
g53
(dp4126
sg62
g4120
sg55
(lp4127
g48
(g49
g50
NtRp4128
(dp4129
g53
(dp4130
g61
I3
ssg62
g4124
sg55
(lp4131
g48
(g57
g50
NtRp4132
(dp4133
g53
(dp4134
g61
I2
ssg62
Nsg55
(lp4135
g48
(g64
g50
NtRp4136
(dp4137
g53
(dp4138
sg62
g4132
sg55
(lp4139
g48
(g69
g50
NtRp4140
(dp4141
g53
(dp4142
sg62
g4136
sg55
(lp4143
g48
(g49
g50
NtRp4144
(dp4145
g53
(dp4146
g61
I2
ssg62
g4140
sg55
(lp4147
g48
(g57
g50
NtRp4148
(dp4149
g53
(dp4150
g61
I1
ssg62
Nsg55
(lp4151
g48
(g64
g50
NtRp4152
(dp4153
g53
(dp4154
sg62
g4148
sg55
(lp4155
g48
(g69
g50
NtRp4156
(dp4157
g53
(dp4158
sg62
g4152
sg55
(lp4159
g48
(g49
g50
NtRp4160
(dp4161
g53
(dp4162
g61
I1
ssg62
g4156
sg55
(lp4163
g3467
(S's\x0e\x00\x00\x00Documentaci\xc3\xb3n'
tRp4164
asbasbasbag48
(g64
g50
NtRp4165
(dp4166
g53
(dp4167
sg62
g4148
sg55
(lp4168
g48
(g69
g50
NtRp4169
(dp4170
g53
(dp4171
sg62
g4165
sg55
(lp4172
g48
(g49
g50
NtRp4173
(dp4174
g53
(dp4175
g61
I1
ssg62
g4169
sg55
(lp4176
I00
asbasbasbag48
(g64
g50
NtRp4177
(dp4178
g53
(dp4179
sg62
g4148
sg55
(lp4180
g48
(g69
g50
NtRp4181
(dp4182
g53
(dp4183
sg62
g4177
sg55
(lp4184
g48
(g49
g50
NtRp4185
(dp4186
g53
(dp4187
g61
I1
ssg62
g4181
sg55
(lp4188
S'http://www.web2py.com/book'
p4189
asbasbasbag48
(g64
g50
NtRp4190
(dp4191
g53
(dp4192
sg62
g4148
sg55
(lp4193
g48
(g69
g50
NtRp4194
(dp4195
g53
(dp4196
sg62
g4190
sg55
(lp4197
g48
(g49
g50
NtRp4198
(dp4199
g53
(dp4200
g61
I1
ssg62
g4194
sg55
(lp4201
(lp4202
(g3467
(S't\x07\x00\x00\x00Preface'
tRp4203
I00
S'http://www.web2py.com/book/default/chapter/00'
tp4204
a(g3467
(S't\x0c\x00\x00\x00Introduction'
tRp4205
I00
S'http://www.web2py.com/book/default/chapter/01'
tp4206
a(g3467
(S't\x06\x00\x00\x00Python'
tRp4207
I00
S'http://www.web2py.com/book/default/chapter/02'
tp4208
a(g3467
(S't\x08\x00\x00\x00Overview'
tRp4209
I00
S'http://www.web2py.com/book/default/chapter/03'
tp4210
a(g3467
(S's\x08\x00\x00\x00The Core'
tRp4211
I00
S'http://www.web2py.com/book/default/chapter/04'
tp4212
a(g3467
(S's\t\x00\x00\x00The Views'
tRp4213
I00
S'http://www.web2py.com/book/default/chapter/05'
tp4214
a(g3467
(S's\r\x00\x00\x00Base de datos'
tRp4215
I00
S'http://www.web2py.com/book/default/chapter/06'
tp4216
a(g3467
(S's\x14\x00\x00\x00Forms and Validators'
tRp4217
I00
S'http://www.web2py.com/book/default/chapter/07'
tp4218
a(g3467
(S's\x0e\x00\x00\x00Access Control'
tRp4219
I00
S'http://www.web2py.com/book/default/chapter/08'
tp4220
a(g3467
(S't\x08\x00\x00\x00Services'
tRp4221
I00
S'http://www.web2py.com/book/default/chapter/09'
tp4222
a(g3467
(S's\x0c\x00\x00\x00Ajax Recipes'
tRp4223
I00
S'http://www.web2py.com/book/default/chapter/10'
tp4224
a(g3467
(S's\x12\x00\x00\x00Deployment Recipes'
tRp4225
I00
S'http://www.web2py.com/book/default/chapter/11'
tp4226
a(g3467
(S's\r\x00\x00\x00Other Recipes'
tRp4227
I00
S'http://www.web2py.com/book/default/chapter/12'
tp4228
a(g3467
(S's\r\x00\x00\x00Buy this book'
tRp4229
I00
S'http://stores.lulu.com/web2py'
tp4230
aasbasbasbasbasbasbasbag48
(g64
g50
NtRp4231
(dp4232
g53
(dp4233
sg62
g4132
sg55
(lp4234
g48
(g69
g50
NtRp4235
(dp4236
g53
(dp4237
sg62
g4231
sg55
(lp4238
g48
(g49
g50
NtRp4239
(dp4240
g53
(dp4241
g61
I2
ssg62
g4235
sg55
(lp4242
g48
(g57
g50
NtRp4243
(dp4244
g53
(dp4245
g61
I1
ssg62
Nsg55
(lp4246
g48
(g64
g50
NtRp4247
(dp4248
g53
(dp4249
sg62
g4243
sg55
(lp4250
g48
(g69
g50
NtRp4251
(dp4252
g53
(dp4253
sg62
g4247
sg55
(lp4254
g48
(g49
g50
NtRp4255
(dp4256
g53
(dp4257
g61
I1
ssg62
g4251
sg55
(lp4258
g3467
(S't\t\x00\x00\x00Community'
tRp4259
asbasbasbag48
(g64
g50
NtRp4260
(dp4261
g53
(dp4262
sg62
g4243
sg55
(lp4263
g48
(g69
g50
NtRp4264
(dp4265
g53
(dp4266
sg62
g4260
sg55
(lp4267
g48
(g49
g50
NtRp4268
(dp4269
g53
(dp4270
g61
I1
ssg62
g4264
sg55
(lp4271
I00
asbasbasbag48
(g64
g50
NtRp4272
(dp4273
g53
(dp4274
sg62
g4243
sg55
(lp4275
g48
(g69
g50
NtRp4276
(dp4277
g53
(dp4278
sg62
g4272
sg55
(lp4279
g48
(g49
g50
NtRp4280
(dp4281
g53
(dp4282
g61
I1
ssg62
g4276
sg55
(lp4283
Nasbasbasbag48
(g64
g50
NtRp4284
(dp4285
g53
(dp4286
sg62
g4243
sg55
(lp4287
g48
(g69
g50
NtRp4288
(dp4289
g53
(dp4290
sg62
g4284
sg55
(lp4291
g48
(g49
g50
NtRp4292
(dp4293
g53
(dp4294
g61
I1
ssg62
g4288
sg55
(lp4295
(lp4296
(g3467
(S't\x06\x00\x00\x00Groups'
tRp4297
I00
S'http://www.web2py.com/examples/default/usergroups'
tp4298
a(g3467
(S't\x07\x00\x00\x00Twitter'
tRp4299
I00
S'http://twitter.com/web2py'
tp4300
a(g3467
(S's\t\x00\x00\x00Live chat'
tRp4301
I00
S'http://mibbit.com/?channel=%23web2py&server=irc.mibbit.net'
tp4302
a(g3467
(S's\n\x00\x00\x00User Voice'
tRp4303
I00
S'http://web2py.uservoice.com/'
tp4304
aasbasbasbasbasbasbasbag48
(g64
g50
NtRp4305
(dp4306
g53
(dp4307
sg62
g4132
sg55
(lp4308
g48
(g69
g50
NtRp4309
(dp4310
g53
(dp4311
sg62
g4305
sg55
(lp4312
g48
(g49
g50
NtRp4313
(dp4314
g53
(dp4315
g61
I2
ssg62
g4309
sg55
(lp4316
g48
(g57
g50
NtRp4317
(dp4318
g53
(dp4319
g61
I1
ssg62
Nsg55
(lp4320
g48
(g64
g50
NtRp4321
(dp4322
g53
(dp4323
sg62
g4317
sg55
(lp4324
g48
(g69
g50
NtRp4325
(dp4326
g53
(dp4327
sg62
g4321
sg55
(lp4328
g48
(g49
g50
NtRp4329
(dp4330
g53
(dp4331
g61
I1
ssg62
g4325
sg55
(lp4332
g3467
(S't\x06\x00\x00\x00Web2py'
tRp4333
asbasbasbag48
(g64
g50
NtRp4334
(dp4335
g53
(dp4336
sg62
g4317
sg55
(lp4337
g48
(g69
g50
NtRp4338
(dp4339
g53
(dp4340
sg62
g4334
sg55
(lp4341
g48
(g49
g50
NtRp4342
(dp4343
g53
(dp4344
g61
I1
ssg62
g4338
sg55
(lp4345
I00
asbasbasbag48
(g64
g50
NtRp4346
(dp4347
g53
(dp4348
sg62
g4317
sg55
(lp4349
g48
(g69
g50
NtRp4350
(dp4351
g53
(dp4352
sg62
g4346
sg55
(lp4353
g48
(g49
g50
NtRp4354
(dp4355
g53
(dp4356
g61
I1
ssg62
g4350
sg55
(lp4357
S'http://www.web2py.com'
p4358
asbasbasbag48
(g64
g50
NtRp4359
(dp4360
g53
(dp4361
sg62
g4317
sg55
(lp4362
g48
(g69
g50
NtRp4363
(dp4364
g53
(dp4365
sg62
g4359
sg55
(lp4366
g48
(g49
g50
NtRp4367
(dp4368
g53
(dp4369
g61
I1
ssg62
g4363
sg55
(lp4370
(lp4371
(g3467
(S't\x08\x00\x00\x00Download'
tRp4372
I00
S'http://www.web2py.com/examples/default/download'
tp4373
a(g3467
(S't\x07\x00\x00\x00Support'
tRp4374
I00
S'http://www.web2py.com/examples/default/support'
tp4375
a(g3467
(S's\x0e\x00\x00\x00Quick Examples'
tRp4376
I00
S'http://web2py.com/examples/default/examples'
tp4377
a(g3467
(S't\x03\x00\x00\x00FAQ'
tRp4378
I00
S'http://web2py.com/AlterEgo'
tp4379
a(g3467
(S's\x11\x00\x00\x00Free Applications'
tRp4380
I00
S'http://web2py.com/appliances'
tp4381
a(g3467
(S't\x07\x00\x00\x00Plugins'
tRp4382
I00
S'http://web2py.com/plugins'
tp4383
a(g3467
(S't\x07\x00\x00\x00Recipes'
tRp4384
I00
S'http://web2pyslices.com/'
tp4385
a(g3467
(S't\x04\x00\x00\x00Demo'
tRp4386
I00
S'http://web2py.com/demo_admin'
tp4387
a(g3467
(S't\x08\x00\x00\x00Semantic'
tRp4388
I00
S'http://web2py.com/semantic'
tp4389
a(g3467
(S't\x07\x00\x00\x00Layouts'
tRp4390
I00
S'http://web2py.com/layouts'
tp4391
a(g3467
(S't\x06\x00\x00\x00Videos'
tRp4392
I00
S'http://www.web2py.com/examples/default/videos/'
tp4393
aasbasbasbasbasbasbasbasbasbasbasbasbasbasbasbasbasbasbasbag48
(g64
g50
NtRp4394
(dp4395
g53
(dp4396
sg62
g2916
sg55
(lp4397
g48
(g69
g50
NtRp4398
(dp4399
g53
(dp4400
g73
g74
ssg62
g4394
sg55
(lp4401
S'meta'
p4402
asbag48
(g69
g50
NtRp4403
(dp4404
g53
(dp4405
g80
g81
ssg62
g4394
sg55
(lp4406
S':'
asbag48
(g69
g50
NtRp4407
(dp4408
g53
(dp4409
sg62
g4394
sg55
(lp4410
g48
(g49
g50
NtRp4411
(dp4412
g53
(dp4413
g61
I5
ssg62
g4407
sg55
(lp4414
g48
(g57
g50
NtRp4415
(dp4416
g53
(dp4417
g61
I4
ssg62
Nsg55
(lp4418
g48
(g64
g50
NtRp4419
(dp4420
g53
(dp4421
sg62
g4415
sg55
(lp4422
g48
(g69
g50
NtRp4423
(dp4424
g53
(dp4425
g73
g74
ssg62
g4419
sg55
(lp4426
S'author'
p4427
asbag48
(g69
g50
NtRp4428
(dp4429
g53
(dp4430
g80
g81
ssg62
g4419
sg55
(lp4431
S':'
asbag48
(g69
g50
NtRp4432
(dp4433
g53
(dp4434
sg62
g4419
sg55
(lp4435
g48
(g49
g50
NtRp4436
(dp4437
g53
(dp4438
g61
I4
ssg62
g4432
sg55
(lp4439
S'you'
p4440
asbasbasbag48
(g64
g50
NtRp4441
(dp4442
g53
(dp4443
sg62
g4415
sg55
(lp4444
g48
(g69
g50
NtRp4445
(dp4446
g53
(dp4447
g73
g74
ssg62
g4441
sg55
(lp4448
S'copyright'
p4449
asbag48
(g69
g50
NtRp4450
(dp4451
g53
(dp4452
g80
g81
ssg62
g4441
sg55
(lp4453
S':'
asbag48
(g69
g50
NtRp4454
(dp4455
g53
(dp4456
sg62
g4441
sg55
(lp4457
g48
(g49
g50
NtRp4458
(dp4459
g53
(dp4460
g61
I4
ssg62
g4454
sg55
(lp4461
S'Copyright 2007-2010'
p4462
asbasbasbag48
(g64
g50
NtRp4463
(dp4464
g53
(dp4465
sg62
g4415
sg55
(lp4466
g48
(g69
g50
NtRp4467
(dp4468
g53
(dp4469
g73
g74
ssg62
g4463
sg55
(lp4470
S'description'
p4471
asbag48
(g69
g50
NtRp4472
(dp4473
g53
(dp4474
g80
g81
ssg62
g4463
sg55
(lp4475
S':'
asbag48
(g69
g50
NtRp4476
(dp4477
g53
(dp4478
sg62
g4463
sg55
(lp4479
g48
(g49
g50
NtRp4480
(dp4481
g53
(dp4482
g61
I4
ssg62
g4476
sg55
(lp4483
S'Free and open source full-stack enterprise framework for agile development of fast, scalable, secure and portable database-driven web-based applications. Written and programmable in Python'
p4484
asbasbasbag48
(g64
g50
NtRp4485
(dp4486
g53
(dp4487
sg62
g4415
sg55
(lp4488
g48
(g69
g50
NtRp4489
(dp4490
g53
(dp4491
g73
g74
ssg62
g4485
sg55
(lp4492
S'generator'
p4493
asbag48
(g69
g50
NtRp4494
(dp4495
g53
(dp4496
g80
g81
ssg62
g4485
sg55
(lp4497
S':'
asbag48
(g69
g50
NtRp4498
(dp4499
g53
(dp4500
sg62
g4485
sg55
(lp4501
g48
(g49
g50
NtRp4502
(dp4503
g53
(dp4504
g61
I4
ssg62
g4498
sg55
(lp4505
S'Web2py Enterprise Framework'
p4506
asbasbasbag48
(g64
g50
NtRp4507
(dp4508
g53
(dp4509
sg62
g4415
sg55
(lp4510
g48
(g69
g50
NtRp4511
(dp4512
g53
(dp4513
g73
g74
ssg62
g4507
sg55
(lp4514
S'keywords'
p4515
asbag48
(g69
g50
NtRp4516
(dp4517
g53
(dp4518
g80
g81
ssg62
g4507
sg55
(lp4519
S':'
asbag48
(g69
g50
NtRp4520
(dp4521
g53
(dp4522
sg62
g4507
sg55
(lp4523
g48
(g49
g50
NtRp4524
(dp4525
g53
(dp4526
g61
I4
ssg62
g4520
sg55
(lp4527
S'web2py, python, framework'
p4528
asbasbasbasbasbasbasbag48
(g64
g50
NtRp4529
(dp4530
g53
(dp4531
sg62
g2916
sg55
(lp4532
g48
(g69
g50
NtRp4533
(dp4534
g53
(dp4535
g73
g74
ssg62
g4529
sg55
(lp4536
S'postprocessing'
p4537
asbag48
(g69
g50
NtRp4538
(dp4539
g53
(dp4540
g80
g81
ssg62
g4529
sg55
(lp4541
S':'
asbag48
(g69
g50
NtRp4542
(dp4543
g53
(dp4544
sg62
g4529
sg55
(lp4545
g48
(g49
g50
NtRp4546
(dp4547
g53
(dp4548
g61
I5
ssg62
g4542
sg55
(lp4549
g48
(g57
g50
NtRp4550
(dp4551
g53
(dp4552
g61
I4
ssg62
Nsg55
(lp4553
sbasbasbasbag48
(g64
g50
NtRp4554
(dp4555
g53
(dp4556
sg62
g2916
sg55
(lp4557
g48
(g69
g50
NtRp4558
(dp4559
g53
(dp4560
g73
g74
ssg62
g4554
sg55
(lp4561
S'session_file'
p4562
asbag48
(g69
g50
NtRp4563
(dp4564
g53
(dp4565
g80
g81
ssg62
g4554
sg55
(lp4566
S':'
asbag48
(g69
g50
NtRp4567
(dp4568
g53
(dp4569
sg62
g4554
sg55
(lp4570
g48
(g49
g50
NtRp4571
(dp4572
g53
(dp4573
g61
I5
ssg62
g4567
sg55
(lp4574
S"<open file 'C:\\Users\\Atomico\\web2py\\applications\\Desglosar_Emails\\sessions\\127.0.0.1-78cf8050-df87-4502-afb9-ed0c3843b414', mode 'rb+' at 0x0312DBF0>"
p4575
asbasbasbag48
(g64
g50
NtRp4576
(dp4577
g53
(dp4578
sg62
g2916
sg55
(lp4579
g48
(g69
g50
NtRp4580
(dp4581
g53
(dp4582
g73
g74
ssg62
g4576
sg55
(lp4583
S'session_filename'
p4584
asbag48
(g69
g50
NtRp4585
(dp4586
g53
(dp4587
g80
g81
ssg62
g4576
sg55
(lp4588
S':'
asbag48
(g69
g50
NtRp4589
(dp4590
g53
(dp4591
sg62
g4576
sg55
(lp4592
g48
(g49
g50
NtRp4593
(dp4594
g53
(dp4595
g61
I5
ssg62
g4589
sg55
(lp4596
S'C:\\Users\\Atomico\\web2py\\applications\\Desglosar_Emails\\sessions\\127.0.0.1-78cf8050-df87-4502-afb9-ed0c3843b414'
p4597
asbasbasbag48
(g64
g50
NtRp4598
(dp4599
g53
(dp4600
sg62
g2916
sg55
(lp4601
g48
(g69
g50
NtRp4602
(dp4603
g53
(dp4604
g73
g74
ssg62
g4598
sg55
(lp4605
S'session_id'
p4606
asbag48
(g69
g50
NtRp4607
(dp4608
g53
(dp4609
g80
g81
ssg62
g4598
sg55
(lp4610
S':'
asbag48
(g69
g50
NtRp4611
(dp4612
g53
(dp4613
sg62
g4598
sg55
(lp4614
g48
(g49
g50
NtRp4615
(dp4616
g53
(dp4617
g61
I5
ssg62
g4611
sg55
(lp4618
S'127.0.0.1-78cf8050-df87-4502-afb9-ed0c3843b414'
p4619
asbasbasbag48
(g64
g50
NtRp4620
(dp4621
g53
(dp4622
sg62
g2916
sg55
(lp4623
g48
(g69
g50
NtRp4624
(dp4625
g53
(dp4626
g73
g74
ssg62
g4620
sg55
(lp4627
S'session_id_name'
p4628
asbag48
(g69
g50
NtRp4629
(dp4630
g53
(dp4631
g80
g81
ssg62
g4620
sg55
(lp4632
S':'
asbag48
(g69
g50
NtRp4633
(dp4634
g53
(dp4635
sg62
g4620
sg55
(lp4636
g48
(g49
g50
NtRp4637
(dp4638
g53
(dp4639
g61
I5
ssg62
g4633
sg55
(lp4640
g2973
asbasbasbag48
(g64
g50
NtRp4641
(dp4642
g53
(dp4643
sg62
g2916
sg55
(lp4644
g48
(g69
g50
NtRp4645
(dp4646
g53
(dp4647
g73
g74
ssg62
g4641
sg55
(lp4648
S'session_locked'
p4649
asbag48
(g69
g50
NtRp4650
(dp4651
g53
(dp4652
g80
g81
ssg62
g4641
sg55
(lp4653
S':'
asbag48
(g69
g50
NtRp4654
(dp4655
g53
(dp4656
sg62
g4641
sg55
(lp4657
g48
(g49
g50
NtRp4658
(dp4659
g53
(dp4660
g61
I5
ssg62
g4654
sg55
(lp4661
g1851
asbasbasbag48
(g64
g50
NtRp4662
(dp4663
g53
(dp4664
sg62
g2916
sg55
(lp4665
g48
(g69
g50
NtRp4666
(dp4667
g53
(dp4668
g73
g74
ssg62
g4662
sg55
(lp4669
S'session_new'
p4670
asbag48
(g69
g50
NtRp4671
(dp4672
g53
(dp4673
g80
g81
ssg62
g4662
sg55
(lp4674
S':'
asbag48
(g69
g50
NtRp4675
(dp4676
g53
(dp4677
sg62
g4662
sg55
(lp4678
g48
(g49
g50
NtRp4679
(dp4680
g53
(dp4681
g61
I5
ssg62
g4675
sg55
(lp4682
g91
asbasbasbag48
(g64
g50
NtRp4683
(dp4684
g53
(dp4685
sg62
g2916
sg55
(lp4686
g48
(g69
g50
NtRp4687
(dp4688
g53
(dp4689
g73
g74
ssg62
g4683
sg55
(lp4690
S'status'
p4691
asbag48
(g69
g50
NtRp4692
(dp4693
g53
(dp4694
g80
g81
ssg62
g4683
sg55
(lp4695
S':'
asbag48
(g69
g50
NtRp4696
(dp4697
g53
(dp4698
sg62
g4683
sg55
(lp4699
g48
(g49
g50
NtRp4700
(dp4701
g53
(dp4702
g61
I5
ssg62
g4696
sg55
(lp4703
S'200'
p4704
asbasbasbag48
(g64
g50
NtRp4705
(dp4706
g53
(dp4707
sg62
g2916
sg55
(lp4708
g48
(g69
g50
NtRp4709
(dp4710
g53
(dp4711
g73
g74
ssg62
g4705
sg55
(lp4712
S'subtitle'
p4713
asbag48
(g69
g50
NtRp4714
(dp4715
g53
(dp4716
g80
g81
ssg62
g4705
sg55
(lp4717
S':'
asbag48
(g69
g50
NtRp4718
(dp4719
g53
(dp4720
sg62
g4705
sg55
(lp4721
g48
(g49
g50
NtRp4722
(dp4723
g53
(dp4724
g61
I5
ssg62
g4718
sg55
(lp4725
g3467
(S's\t\x00\x00\x00Adaptame!'
tRp4726
asbasbasbag48
(g64
g50
NtRp4727
(dp4728
g53
(dp4729
sg62
g2916
sg55
(lp4730
g48
(g69
g50
NtRp4731
(dp4732
g53
(dp4733
g73
g74
ssg62
g4727
sg55
(lp4734
S'title'
p4735
asbag48
(g69
g50
NtRp4736
(dp4737
g53
(dp4738
g80
g81
ssg62
g4727
sg55
(lp4739
S':'
asbag48
(g69
g50
NtRp4740
(dp4741
g53
(dp4742
sg62
g4727
sg55
(lp4743
g48
(g49
g50
NtRp4744
(dp4745
g53
(dp4746
g61
I5
ssg62
g4740
sg55
(lp4747
g113
asbasbasbag48
(g64
g50
NtRp4748
(dp4749
g53
(dp4750
sg62
g2916
sg55
(lp4751
g48
(g69
g50
NtRp4752
(dp4753
g53
(dp4754
g73
g74
ssg62
g4748
sg55
(lp4755
g2175
asbag48
(g69
g50
NtRp4756
(dp4757
g53
(dp4758
g80
g81
ssg62
g4748
sg55
(lp4759
S':'
asbag48
(g69
g50
NtRp4760
(dp4761
g53
(dp4762
sg62
g4748
sg55
(lp4763
g48
(g49
g50
NtRp4764
(dp4765
g53
(dp4766
g61
I5
ssg62
g4760
sg55
(lp4767
g2188
asbasbasbag48
(g64
g50
NtRp4768
(dp4769
g53
(dp4770
sg62
g2916
sg55
(lp4771
g48
(g69
g50
NtRp4772
(dp4773
g53
(dp4774
g73
g74
ssg62
g4768
sg55
(lp4775
S'view'
p4776
asbag48
(g69
g50
NtRp4777
(dp4778
g53
(dp4779
g80
g81
ssg62
g4768
sg55
(lp4780
S':'
asbag48
(g69
g50
NtRp4781
(dp4782
g53
(dp4783
sg62
g4768
sg55
(lp4784
g48
(g49
g50
NtRp4785
(dp4786
g53
(dp4787
g61
I5
ssg62
g4781
sg55
(lp4788
S'default/entrada_mod3.html'
p4789
asbasbasbasbasbsS'locals'
p4790
(dp4791
S'OBJECT'
p4792
S"<class 'gluon.html.OBJECT'>"
p4793
sS'_file'
p4794
S"'/Desglosar_Emails/static/js/superfish.js'"
p4795
sS'SQLDB'
p4796
S"<class 'gluon.dal.DAL'>"
p4797
sg2876
S"<Storage {'_formkey[contactos/34]': 'f6636850-a8...fault]': 'be07291f-091e-43ea-8df9-8375054fc5c8'}>"
p4798
sS'LINK'
p4799
S"<class 'gluon.html.LINK'>"
p4800
sS'BR'
p4801
S"<class 'gluon.html.BR'>"
p4802
sS'local_import'
p4803
S'<function <lambda> at 0x03158330>'
p4804
sS'OPTGROUP'
p4805
S"<class 'gluon.html.OPTGROUP'>"
p4806
sS'PRE'
p4807
S"<class 'gluon.html.PRE'>"
p4808
sS'IS_INT_IN_RANGE'
p4809
S"<class 'gluon.validators.IS_INT_IN_RANGE'>"
p4810
sS'left_sidebar_enabled'
p4811
g91
sS'IS_LOWER'
p4812
S"<class 'gluon.validators.IS_LOWER'>"
p4813
sS'IS_STRONG'
p4814
S"<class 'gluon.validators.IS_STRONG'>"
p4815
sS'cache'
p4816
S'<gluon.cache.Cache object at 0x07DEFE30>'
p4817
sS'IS_IN_DB'
p4818
S"<class 'gluon.validators.IS_IN_DB'>"
p4819
sS'TAG'
p4820
S'<gluon.html.__TAG__ object at 0x0279F710>'
p4821
sS'_k'
p4822
S'5'
sS'SQLField'
p4823
S"<class 'gluon.dal.Field'>"
p4824
sS'BODY'
p4825
S"<class 'gluon.html.BODY'>"
p4826
sS'IS_DATE_IN_RANGE'
p4827
S"<class 'gluon.validators.IS_DATE_IN_RANGE'>"
p4828
sS'TH'
p4829
S"<class 'gluon.html.TH'>"
p4830
sS'URL'
p4831
S'<function URL at 0x027F0870>'
p4832
sS'__file__'
p4833
S"r'C:\\Users\\Atomico\\web2py\\applications\\Desglosar_Emails\\views\\default/entrada_mod3.html'"
p4834
sS'db'
p4835
S"<DAL {'persona': <Table {'ALL': <gluon.dal.SQLAL...ing_references': {}, '_uri': 'sqlite://mydb.db'}>"
p4836
sS'P'
S"<class 'gluon.html.P'>"
p4837
sS'TFOOT'
p4838
S"<class 'gluon.html.TFOOT'>"
p4839
sS'XHTML'
p4840
S"<class 'gluon.html.XHTML'>"
p4841
sS'patternemail'
p4842
S'<_sre.SRE_Pattern object at 0x07474AC0>'
p4843
sS'ON'
p4844
g1851
sS'OL'
p4845
S"<class 'gluon.html.OL'>"
p4846
sS'TEXTAREA'
p4847
S"<class 'gluon.html.TEXTAREA'>"
p4848
sS'MENU'
p4849
S"<class 'gluon.html.MENU'>"
p4850
sS'_file0'
p4851
S"'/desglosar_emails/static/js/superfish.js'"
p4852
sS'LOAD'
p4853
S'<gluon.compileapp.LoadFactory object at 0x07DEFD90>'
p4854
sS'CODE'
p4855
S"<class 'gluon.html.CODE'>"
p4856
sS'HTTP'
p4857
S"<class 'gluon.http.HTTP'>"
p4858
sS'HR'
p4859
S"<class 'gluon.html.HR'>"
p4860
sS'IS_DATETIME'
p4861
S"<class 'gluon.validators.IS_DATETIME'>"
p4862
sS'HEAD'
p4863
S"<class 'gluon.html.HEAD'>"
p4864
sS'LABEL'
p4865
S"<class 'gluon.html.LABEL'>"
p4866
sS'CLEANUP'
p4867
S"<class 'gluon.validators.CLEANUP'>"
p4868
sS'SELECT'
p4869
S"<class 'gluon.html.SELECT'>"
p4870
sS'CENTER'
p4871
S"<class 'gluon.html.CENTER'>"
p4872
sS'left_sidebar_style'
p4873
S'\'style="display: none;"\''
p4874
sS'pattern'
p4875
S'<_sre.SRE_Pattern object at 0x074F5DF0>'
p4876
sS'__builtins__'
p4877
S"{'ArithmeticError': <type 'exceptions.ArithmeticError'>, 'AssertionError': <type 'exceptions.AssertionError'>, 'AttributeError': <type 'exceptions.AttributeError'>, 'BaseException': <type 'exceptions.BaseException'>, 'DeprecationWarning': <type 'exceptions.DeprecationWarning'>, 'EOFError': <type 'exceptions.EOFError'>, 'Ellipsis': Ellipsis, 'EnvironmentError': <type 'exceptions.EnvironmentError'>, 'Exception': <type 'exceptions.Exception'>, 'False': False, ...}"
p4878
sS'IS_LIST_OF'
p4879
S"<class 'gluon.validators.IS_LIST_OF'>"
p4880
sS'SQLFORM'
p4881
S"<class 'gluon.sqlhtml.SQLFORM'>"
p4882
sS'_item'
p4883
S"'author'"
p4884
sS'EM'
p4885
S"<class 'gluon.html.EM'>"
p4886
sS'redirect'
p4887
S'<function redirect at 0x025993B0>'
p4888
sS'FIELDSET'
p4889
S"<class 'gluon.html.FIELDSET'>"
p4890
sS'IS_EQUAL_TO'
p4891
S"<class 'gluon.validators.IS_EQUAL_TO'>"
p4892
sS'embed64'
p4893
S'<function embed64 at 0x027F43B0>'
p4894
sS'INPUT'
p4895
S"<class 'gluon.html.INPUT'>"
p4896
sS'EMBED'
p4897
S"<class 'gluon.html.EMBED'>"
p4898
sS'FORM'
p4899
S"<class 'gluon.html.FORM'>"
p4900
sS'width_content'
p4901
S"'100%'"
p4902
sS'H2'
p4903
S"<class 'gluon.html.H2'>"
p4904
sS'H3'
p4905
S"<class 'gluon.html.H3'>"
p4906
sS'BUTTON'
p4907
S"<class 'gluon.html.BUTTON'>"
p4908
sS'H1'
p4909
S"<class 'gluon.html.H1'>"
p4910
sS'H6'
p4911
S"<class 'gluon.html.H6'>"
p4912
sS'H4'
p4913
S"<class 'gluon.html.H4'>"
p4914
sS'H5'
p4915
S"<class 'gluon.html.H5'>"
p4916
sS'cadena'
p4917
S"'rnan.do@mexico.mexico.com el.caba.ller.o@de'"
p4918
sS'UL'
p4919
S"<class 'gluon.html.UL'>"
p4920
sS'bol'
p4921
S"'False'"
p4922
sS'IS_UPPER'
p4923
S"<class 'gluon.validators.IS_UPPER'>"
p4924
sS'xmlescape'
p4925
S'<function xmlescape at 0x027F0830>'
p4926
sS'IS_TIME'
p4927
S"<class 'gluon.validators.IS_TIME'>"
p4928
sS'OPTION'
p4929
S"<class 'gluon.html.OPTION'>"
p4930
sS'TITLE'
p4931
S"<class 'gluon.html.TITLE'>"
p4932
sS'CRYPT'
p4933
S"<class 'gluon.validators.CRYPT'>"
p4934
sS'IS_EMPTY_OR'
p4935
S"<class 'gluon.validators.IS_EMPTY_OR'>"
p4936
sS'MARKMIN'
p4937
S"<class 'gluon.html.MARKMIN'>"
p4938
sS'txt'
p4939
S"'onkicaronki@hotmail.com, cecilia.prada@fastwebne...nan.do@mexico.mexico.com el.ca.ba.ller.o@de.a.zul'"
p4940
sS'SCRIPT'
p4941
S"<class 'gluon.html.SCRIPT'>"
p4942
sS'textual'
p4943
S"<Row {'update_record': <function <lambda> at 0x0....do@mexico.mexico.com el.ca.ba.ller.o@de.a.zul'}>"
p4944
sS'TABLE'
p4945
S"<class 'gluon.html.TABLE'>"
p4946
sS'IS_IPV4'
p4947
S"<class 'gluon.validators.IS_IPV4'>"
p4948
sS'IS_LENGTH'
p4949
S"<class 'gluon.validators.IS_LENGTH'>"
p4950
sS'XML'
p4951
S"<class 'gluon.html.XML'>"
p4952
sS'B'
S"<class 'gluon.html.B'>"
p4953
sS'form'
p4954
S'<gluon.sqlhtml.SQLFORM object at 0x07B7C070>'
p4955
sS'SQLTABLE'
p4956
S"<class 'gluon.sqlhtml.SQLTABLE'>"
p4957
sS'IS_MATCH'
p4958
S"<class 'gluon.validators.IS_MATCH'>"
p4959
sS'IS_ALPHANUMERIC'
p4960
S"<class 'gluon.validators.IS_ALPHANUMERIC'>"
p4961
sS'SPAN'
p4962
S"<class 'gluon.html.SPAN'>"
p4963
sS'IS_SLUG'
p4964
S"<class 'gluon.validators.IS_SLUG'>"
p4965
sS'BEAUTIFY'
p4966
S"<class 'gluon.html.BEAUTIFY'>"
p4967
sS'META'
p4968
S"<class 'gluon.html.META'>"
p4969
sS'IS_DATE'
p4970
S"<class 'gluon.validators.IS_DATE'>"
p4971
sS'IS_EMAIL'
p4972
S"<class 'gluon.validators.IS_EMAIL'>"
p4973
sS'IS_NOT_EMPTY'
p4974
S"<class 'gluon.validators.IS_NOT_EMPTY'>"
p4975
sg47
S"<Storage {'is_local': True, 'function': 'entrada....13-20-01.c283cfe6-21ab-4a49-ba6d-7c7fe56272de'}>"
p4976
sS'TBODY'
p4977
S"<class 'gluon.html.TBODY'>"
p4978
sS'CAT'
p4979
S"<class 'gluon.html.CAT'>"
p4980
sS'Field'
p4981
S"<class 'gluon.dal.Field'>"
p4982
sS'DIV'
p4983
S"<class 'gluon.html.DIV'>"
p4984
sS'LEGEND'
p4985
S"<class 'gluon.html.LEGEND'>"
p4986
sS'IMG'
p4987
S"<class 'gluon.html.IMG'>"
p4988
sS'DAL'
p4989
S"<class 'gluon.dal.DAL'>"
p4990
sS'TT'
p4991
S"<class 'gluon.html.TT'>"
p4992
sS'TR'
p4993
S"<class 'gluon.html.TR'>"
p4994
sS'LI'
p4995
S"<class 'gluon.html.LI'>"
p4996
sS'right_sidebar_enabled'
p4997
g91
sS'res2'
p4998
S"['@hotmail.com', '@gmail.com', '@hotmail.com', '@euskalnet.net', '@ashland.com', '@hotmail.com', '@hotmail.com', '@hotmail.com', '@hotmail.com', '@hotmail.com', '@hotmail.com', '@hotmail.com', '@euskaltel.net', '@hotmail.com', '@hotmail.com', '@hotmail.com', '@hotmail.com', '@hotmail.com', '@hotmail.com', '@hotmail.com', ...]"
p4999
sS'IFRAME'
p5000
S"<class 'gluon.html.IFRAME'>"
p5001
sS'TD'
p5002
S"<class 'gluon.html.TD'>"
p5003
sS'IS_URL'
p5004
S"<class 'gluon.validators.IS_URL'>"
p5005
sS'A'
S"<class 'gluon.html.A'>"
p5006
sS'STYLE'
p5007
S"<class 'gluon.html.STYLE'>"
p5008
sS'IS_DATETIME_IN_RANGE'
p5009
S"<class 'gluon.validators.IS_DATETIME_IN_RANGE'>"
p5010
sS'HTML'
p5011
S"<class 'gluon.html.HTML'>"
p5012
sS'IS_IMAGE'
p5013
S"<class 'gluon.validators.IS_IMAGE'>"
p5014
sS'I'
S"<class 'gluon.html.I'>"
p5015
sS'right_sidebar_style'
p5016
S'\'style="display: none;"\''
p5017
sS'IS_NOT_IN_DB'
p5018
S"<class 'gluon.validators.IS_NOT_IN_DB'>"
p5019
sg2911
S"<Storage {'body': <cStringIO.StringO object at 0...x074AD8B0>, 'view': 'default/entrada_mod3.html'}>"
p5020
sS'THEAD'
p5021
S"<class 'gluon.html.THEAD'>"
p5022
sS'IS_NULL_OR'
p5023
S"<class 'gluon.validators.IS_EMPTY_OR'>"
p5024
sS'i'
S'63'
p5025
sS'IS_FLOAT_IN_RANGE'
p5026
S"<class 'gluon.validators.IS_FLOAT_IN_RANGE'>"
p5027
sS'IS_EXPR'
p5028
S"<class 'gluon.validators.IS_EXPR'>"
p5029
sS'T'
S'<gluon.languages.translator object at 0x07DEFED0>'
p5030
sS'IS_IN_SET'
p5031
S"<class 'gluon.validators.IS_IN_SET'>"
p5032
sS'IS_UPLOAD_FILENAME'
p5033
S"<class 'gluon.validators.IS_UPLOAD_FILENAME'>"
p5034
sS'res'
p5035
S"['onkicaronki@hotmail.com,', 'cecilia.prada@fastwebnet.it', 'gallo.moa@gmail.co', 'ferrer_chinchilla@yahoo.es', 'restign@hotmail.com)', 'Natacion,', 'enebel1@euskalnet.net)', 'Natacion,', 'Jose Manuel ', 'jmprieto@ashland.com)', 'Natacion,', 'cdnmeatzaldea@hotmail.com)', 'mikelvitores7@hotmail.com)', 'maitemoran1@hotmail.com)', 'lmfullaondo@hotmail.com)', 'Luis Angel ', 'labengoetxea@hotmail.com)', 'aki vitores pascual ', 'ivitorespascual@hotmail.com)', 'zitrofulmi@hotmail.com)', ...]"
p5036
sS'style_content'
p5037
S'\'style="width: 100%"\''
p5038
sS're'
p5039
S"<module 're' from 'C:\\Users\\Atomico\\web2py\\library.zip\\re.pyc'>"
p5040
sS'IS_DECIMAL_IN_RANGE'
p5041
S"<class 'gluon.validators.IS_DECIMAL_IN_RANGE'>"
p5042
sssS'traceback'
p5043
S'Traceback (most recent call last):\n  File "gluon/restricted.py", line 192, in restricted\n  File "C:\\Users\\Atomico\\web2py\\applications\\Desglosar_Emails\\views\\default/entrada_mod3.html", line 128, in <module>\nIndexError: list index out of range\n'
p5044
s.