(dp1
S'output'
p2
S''
sS'layer'
p3
S'C:\\Users\\Atomico\\web2py\\applications\\Desglosar_Emails\\views\\default/entrada_mod3.html'
p4
sS'code'
p5
S'response.write(\'<!DOCTYPE html>\\n<html lang="\', escape=False)\nresponse.write(T.accepted_language or \'en\')\nresponse.write(\'" class="no-js"><!-- no-js need it for modernzr -->\\n  <head>\\n    \\n    <meta charset="utf-8" />\\t  \\t\\n    <!-- www.phpied.com/conditional-comments-block-downloads/ -->\\n    <!--[if IE]><![endif]-->    \\n    <!-- Always force latest IE rendering engine \\n\\t (even in intranet) & Chrome Frame \\n\\t Remove this if you use the .htaccess -->\\n    <meta http-equiv="X-UA-Compatible" content="IE=edge,chrome=1">\\n    \\n    <title>\', escape=False)\nresponse.write(response.title or request.application)\nresponse.write(\'</title>\\n    \\n    <!-- http://dev.w3.org/html5/markup/meta.name.html -->\\n    <meta name="application-name" content="\', escape=False)\nresponse.write(request.application)\nresponse.write(\'" />\\t\\n    \\n    <!-- Speaking of Google, don\\\'t forget to set your site up: \\n\\t http://google.com/webmasters -->\\n    <meta name="google-site-verification" content="" />\\n    \\n    <!--  Mobile Viewport Fix\\n\\t  j.mp/mobileviewport & davidbcalhoun.com/2010/viewport-metatag \\n\\t  device-width: Occupy full width of the screen in its current orientation\\n\\t  initial-scale = 1.0 retains dimensions instead of zooming out if page height > device height\\n\\t  maximum-scale = 1.0 retains dimensions instead of zooming in if page width < device width\\n      -->\\n    <meta name="viewport" content="width=device-width, initial-scale=1.0, maximum-scale=1.0">\\n    \\n    <!-- Place favicon.ico and apple-touch-icon.png in the root of your domain and delete these references -->\\n    <link rel="shortcut icon" href="\', escape=False)\nresponse.write(URL(\'static\',\'favicon.ico\'))\nresponse.write(\'" type="image/x-icon">\\n    <link rel="apple-touch-icon" href="\', escape=False)\nresponse.write(URL(\'static\',\'favicon.png\'))\nresponse.write(\'">\\n\\n    <!-- For the less-enabled mobile browsers like Opera Mini -->\\n    <link rel="stylesheet" media="handheld" href="\', escape=False)\nresponse.write(URL(\'static\',\'css/handheld.css\'))\nresponse.write(\'">\\n    \\n    <!-- All JavaScript at the bottom, except for Modernizr which enables HTML5 elements & feature detects -->\\n    <script src="\', escape=False)\nresponse.write(URL(\'static\',\'js/modernizr-1.7.min.js\'))\nresponse.write(\'"></script>\\n    \\n    \', escape=False)\n#------  require CSS and JS files for this page (read info in base.css) ------\nresponse.write(\'\\n    \', escape=False)\nresponse.files.append(URL(\'static\',\'css/base.css\'))\nresponse.write(\'\\n    \', escape=False)\nresponse.files.append(URL(\'static\',\'css/superfish.css\'))\nresponse.write(\'\\n    \', escape=False)\nresponse.files.append(URL(\'static\',\'js/superfish.js\'))\nresponse.write(\'\\n    \', escape=False)\n#------ include web2py specific js code (jquery, calendar, form stuff) ------\nresponse.write(\'\\n    \', escape=False)\nresponse.files.insert(0,URL(\'static\',\'js/jquery.js\'))\nresponse.files.insert(1,URL(\'static\',\'css/calendar.css\'))\nresponse.files.insert(2,URL(\'static\',\'js/calendar.js\'))\nfor _item in response.meta or []:\n    response.write(\'\\n     <meta name="\', escape=False)\n    response.write(_item)\n    response.write(\'" content="\', escape=False)\n    response.write(response.meta[_item])\n    response.write(\'" />\', escape=False)\n    pass\nfor _k,_file in enumerate(response.files or []):\n    if _file in response.files[:_k]:\n        continue\n    _file0=_file.lower().split(\'?\')[0]\n    if _file0.endswith(\'.css\'):\n        response.write(\'\\n     <link href="\', escape=False)\n        response.write(_file)\n        response.write(\'" rel="stylesheet" type="text/css" />\', escape=False)\n    elif _file0.endswith(\'.js\'):\n        response.write(\'\\n     <script src="\', escape=False)\n        response.write(_file)\n        response.write(\'" type="text/javascript"></script>\', escape=False)\n        pass\n    pass\nresponse.write(\'\\n    <script type="text/javascript"><!--\\n    // These variables are used by the web2py_ajax_init function in web2py_ajax.js (which is loaded below).\\n    var w2p_ajax_confirm_message = "\', escape=False)\nresponse.write(T(\'Are you sure you want to delete this object?\'))\nresponse.write(\'";\\n    var w2p_ajax_date_format = "\', escape=False)\nresponse.write(T(\'%Y-%m-%d\'))\nresponse.write(\'";\\n    var w2p_ajax_datetime_format = "\', escape=False)\nresponse.write(T(\'%Y-%m-%d %H:%M:%S\'))\nresponse.write(\'";\\n    //--></script>\\n    <script src="\', escape=False)\nresponse.write(URL(\'static\',\'js/web2py_ajax.js\'))\nresponse.write(\'" type="text/javascript"></script>\\n\', escape=False)\nresponse.write(\'\\n\\n    \', escape=False)\n#using sidebars need to know what sidebar you want to use\n#prior of using it, because of static width size of content, you can use\n#left_sidebar, right_sidebar, both or none (False left and right)\nleft_sidebar_enabled = globals().get(\'left_sidebar_enabled\',False)\nright_sidebar_enabled = globals().get(\'right_sidebar_enabled\',False)\nif left_sidebar_enabled and right_sidebar_enabled: width_content=\'63%\'\nelif left_sidebar_enabled != right_sidebar_enabled: width_content=\'740px\'\nelse: width_content=\'100%\'\nif left_sidebar_enabled: left_sidebar_style = \'style="display: block;"\'\nelse: left_sidebar_style = \'style="display: none;"\'\nif right_sidebar_enabled: right_sidebar_style = \'style="display: block;"\'\nelse: right_sidebar_style = \'style="display: none;"\'\nstyle_content = \'style="width: %s"\' % width_content\nresponse.write(\'\\n  </head>\\n  \\n  <!-- paulirish.com/2008/conditional-stylesheets-vs-css-hacks-answer-neither/ -->\\t\\n  <!--[if lt IE 7 ]> <body class="ie6"> <![endif]-->\\n  <!--[if IE 7 ]>    <body class="ie7"> <![endif]-->\\n  <!--[if IE 8 ]>    <body class="ie8"> <![endif]-->\\n  <!--[if IE 9 ]>    <body class="ie9"> <![endif]-->\\n  <!--[if (gt IE 9)|!(IE)]><!--> <body> <!--<![endif]-->\\n    \\n    <div class="flash">\', escape=False)\nresponse.write(response.flash or \'\')\nresponse.write(\'</div> <!-- notification div -->\\n    \\n    <div id="container">\\t      \\t\\t      \\t\\n      \\n      <div id="wrapper">\\t\\t\\n\\t\\n\\t<div id="header"> <!-- header and login nav -->\\n\\t  \', escape=False)\nresponse.write(\' <!-- this is default header -->\\n\\t  \', escape=False)\ntry:\n    response.write(auth.navbar(action=URL(\'default\',\'user\')))\nexcept:pass\nresponse.write(\'\\t\\t          \\n\\t  <h1><span id="appname">\', escape=False)\nresponse.write(request.application.capitalize())\nresponse.write(\'</span>App</h1>\\n\\t  <div style="clear: both;"></div><!-- Clear the divs -->\\n\\t  \', escape=False)\nresponse.write(\'\\t\\t\\t\\t  \\t\\t\\t\\t\\t  \\n\\t</div><!-- header  -->\\n\\t\\n\\t<div id="statusbar"><!-- statusbar is menu zone -->\\n\\t  \', escape=False)\nresponse.write(\' <!-- this is default statusbar -->\\n\\t  \', escape=False)\n#------ superfish menu ------\nresponse.write(\'\\n\\t  \', escape=False)\nresponse.write(MENU(response.menu,_class=\'sf-menu\'))\nresponse.write(\'\\n\\t  <script type="text/javascript">\\n\\t    jQuery(document).ready(function(){\\n\\t    jQuery(\\\'ul.sf-menu\\\').superfish();});\\n\\t  </script>\\n\\t  <div style="clear: both;"></div><!-- Clear the divs -->\\t\\n\\t  \', escape=False)\nresponse.write(\'\\t\\t\\t\\t\\n\\t</div><!-- statusbar -->\\n\\t\\n\\t<div id="page"> <!-- Here my central body -->\\t  \\n\\n\\t  \', escape=False)\nif left_sidebar_enabled:\n    response.write(\'\\n          <div id="left_sidebar" \', escape=False)\n    response.write(XML(left_sidebar_style))\n    response.write(\' >\\n            <div style="padding: 4px;">\\n\\t      \', escape=False)\n    response.write(\'Content Left Sidebar\', escape=False)\n    response.write(\'\\t\\t  \\n            </div>\\n          </div><!-- left_sidebar -->\\n\\t  \', escape=False)\n    pass\nresponse.write(\'\\n\\n\\t  <!-- content -->\\n\\t  <div id="content" \', escape=False)\nresponse.write(XML(style_content))\nresponse.write(\' >\\n\\t    \', escape=False)\nresponse.write(\'\\r\\n<h1>Esta es la plantilla default/entrada_mod3.html</h1>\\r\\n<h2>Formulario</h2>\\r\\n\', escape=False)\nresponse.write(form)\nresponse.write(\'\\r\\n<br/>\\r\\n<h3>Tratamientos</h3>\\r\\n\', escape=False)\ntextual=db(db.info4.id==1).select()[0]\ntxt=textual.texto\nresponse.write(len(txt))\nresponse.write(\'\\r\\n es la longitud del texto.\\r\\n<br/> Claro: \\r\\n\\r\\n\', escape=False)\nimport re\npattern=re.compile("[\\w|\xc3\xb1|\xc3\x91]+.\\w+.\\w+")\npatternemail=re.compile("@\\w+[.]\\w+")\nclavos=[\'(\',\')\',\',\',\';\',\' \']\nres=pattern.findall(txt)\nresponse.write(len(res))\nfor i in res: response.write(i+\'<br>\',escape=False)\nres2=patternemail.findall(txt)\nresponse.write(len(res2))\nfor i in res2: response.write(i)\ni=0\ncon=0\nwhile i<len(res):\n    if patternemail.search(res[i])!=False:\n        contactos[con].nombre=res[i]\n        contactos[con].email=res[i+1]\n        i=i+2\n    elif patternemail.search(res[i]):\n        contactos[con].email=res[i]\n        i=i+1\n    else: response.write(\'Aqu\xc3\xad hay un problema\')\n    pass\ncon=con+1\npass\nresponse.write(\' \\r\\n es la posf\\r\\n\', escape=False)\nresponse.write(\'\\t\\n\\t  </div>\\n\\t  <!-- content -->\\n\\n\\t  \', escape=False)\nif right_sidebar_enabled:\n    response.write(\'\\n          <div id="right_sidebar" \', escape=False)\n    response.write(XML(right_sidebar_style))\n    response.write(\' >\\n            <div style="padding: 4px;">\\n              \', escape=False)\n    response.write(\'Content Right Sidebar\', escape=False)\n    response.write(\'\\n            </div>\\n\\t  </div><!-- right_sidebar -->\\n          \', escape=False)\n    pass\nresponse.write(\'\\n\\n\\n\\t  <div style="clear: both;"></div><!-- Clear the divs -->\\n\\t  \\n\\t</div><!-- page -->\\t\\t\\t\\t\\t\\t\\t\\n\\t\\n\\t<div id="footer">\\n\\t  \', escape=False)\nresponse.write(\' <!-- this is default footer -->\\n\\t  <a href="http://www.web2py.com/" style="float: left; padding-right: 6px;">\\n\\t    <img src="\', escape=False)\nresponse.write(URL(\'static\',\'images/poweredby.png\'))\nresponse.write(\'"/>\\n\\t  </a>\\n\\t  \', escape=False)\nresponse.write(T(\'Copyright\'))\nresponse.write(\' &#169; 2010\\t\\t\\t\\t\\n\\t  <div style="clear: both;"></div><!-- Clear the divs -->\\n\\t  \', escape=False)\nresponse.write(\'\\n\\n\\t</div><!-- footer -->\\t\\t\\t\\n      </div><!-- wrapper -->\\n    </div><!-- container -->\\t\\t\\n    \\n    <!--[if lt IE 7 ]>\\n\\t<script src="\', escape=False)\nresponse.write(URL(\'static\',\'js/dd_belatedpng.js\'))\nresponse.write(\'"></script>\\n\\t<script> DD_belatedPNG.fix(\\\'img, .png_bg\\\'); //fix any <img> or .png_bg background-images </script>\\n\\t<![endif]-->\\n    \\n    <!-- asynchronous google analytics: mathiasbynens.be/notes/async-analytics-snippet \\n\\t change the UA-XXXXX-X to be your site\\\'s ID -->\\n    <!--   \\n\\t   <script>\\n\\t     var _gaq = [[\\\'_setAccount\\\', \\\'UA-XXXXX-X\\\'], [\\\'_trackPageview\\\']];\\n\\t     (function(d, t) {\\n\\t     var g = d.createElement(t),\\n\\t     s = d.getElementsByTagName(t)[0];\\n\\t     g.async = true;\\n\\t     g.src = \\\'//www.google-analytics.com/ga.js\\\';\\n\\t     s.parentNode.insertBefore(g, s);\\n\\t     })(document, \\\'script\\\');\\n\\t   </script>\\n\\t   -->    \\n  </body>\\n</html>\\n\', escape=False)'
p6
sS'snapshot'
p7
(dp8
S'exception'
p9
(dp10
S'__hash__'
p11
S"<method-wrapper '__hash__' of exceptions.NameError object at 0x08BB2828>"
p12
sS'__setattr__'
p13
S"<method-wrapper '__setattr__' of exceptions.NameError object at 0x08BB2828>"
p14
sS'__reduce_ex__'
p15
S'<built-in method __reduce_ex__ of exceptions.NameError object at 0x08BB2828>'
p16
sS'__getslice__'
p17
S"<method-wrapper '__getslice__' of exceptions.NameError object at 0x08BB2828>"
p18
sS'__getitem__'
p19
S"<method-wrapper '__getitem__' of exceptions.NameError object at 0x08BB2828>"
p20
sS'__setstate__'
p21
S'<built-in method __setstate__ of exceptions.NameError object at 0x08BB2828>'
p22
sS'__reduce__'
p23
S'<built-in method __reduce__ of exceptions.NameError object at 0x08BB2828>'
p24
sS'__str__'
p25
S"<method-wrapper '__str__' of exceptions.NameError object at 0x08BB2828>"
p26
sS'args'
p27
S'("name \'contactos\' is not defined",)'
p28
sS'__getattribute__'
p29
S"<method-wrapper '__getattribute__' of exceptions.NameError object at 0x08BB2828>"
p30
sS'__class__'
p31
S"<type 'exceptions.NameError'>"
p32
sS'__delattr__'
p33
S"<method-wrapper '__delattr__' of exceptions.NameError object at 0x08BB2828>"
p34
sS'__repr__'
p35
S"<method-wrapper '__repr__' of exceptions.NameError object at 0x08BB2828>"
p36
sS'__dict__'
p37
S'{}'
p38
sS'__doc__'
p39
S"'Name not found globally.'"
p40
sS'__init__'
p41
S"<method-wrapper '__init__' of exceptions.NameError object at 0x08BB2828>"
p42
sS'__new__'
p43
S'<built-in method __new__ of type object at 0x1E1CD8D8>'
p44
ssS'evalue'
p45
S"name 'contactos' is not defined"
p46
sS'request'
p47
ccopy_reg
_reconstructor
p48
(cgluon.html
BEAUTIFY
p49
c__builtin__
object
p50
NtRp51
(dp52
S'attributes'
p53
(dp54
sS'components'
p55
(lp56
g48
(cgluon.html
TABLE
p57
g50
NtRp58
(dp59
g53
(dp60
S'level'
p61
I5
ssS'parent'
p62
Nsg55
(lp63
g48
(cgluon.html
TR
p64
g50
NtRp65
(dp66
g53
(dp67
sg62
g58
sg55
(lp68
g48
(cgluon.html
TD
p69
g50
NtRp70
(dp71
g53
(dp72
S'_style'
p73
S'font-weight:bold;'
p74
ssg62
g65
sg55
(lp75
S'ajax'
p76
asbag48
(g69
g50
NtRp77
(dp78
g53
(dp79
S'_valign'
p80
S'top'
p81
ssg62
g65
sg55
(lp82
S':'
asbag48
(g69
g50
NtRp83
(dp84
g53
(dp85
sg62
g65
sg55
(lp86
g48
(g49
g50
NtRp87
(dp88
g53
(dp89
g61
I5
ssg62
g83
sg55
(lp90
S'False'
p91
asbasbasbag48
(g64
g50
NtRp92
(dp93
g53
(dp94
sg62
g58
sg55
(lp95
g48
(g69
g50
NtRp96
(dp97
g53
(dp98
g73
g74
ssg62
g92
sg55
(lp99
S'application'
p100
asbag48
(g69
g50
NtRp101
(dp102
g53
(dp103
g80
g81
ssg62
g92
sg55
(lp104
S':'
asbag48
(g69
g50
NtRp105
(dp106
g53
(dp107
sg62
g92
sg55
(lp108
g48
(g49
g50
NtRp109
(dp110
g53
(dp111
g61
I5
ssg62
g105
sg55
(lp112
S'Desglosar_Emails'
p113
asbasbasbag48
(g64
g50
NtRp114
(dp115
g53
(dp116
sg62
g58
sg55
(lp117
g48
(g69
g50
NtRp118
(dp119
g53
(dp120
g73
g74
ssg62
g114
sg55
(lp121
g27
asbag48
(g69
g50
NtRp122
(dp123
g53
(dp124
g80
g81
ssg62
g114
sg55
(lp125
S':'
asbag48
(g69
g50
NtRp126
(dp127
g53
(dp128
sg62
g114
sg55
(lp129
g48
(g49
g50
NtRp130
(dp131
g53
(dp132
g61
I5
ssg62
g126
sg55
(lp133
g48
(g57
g50
NtRp134
(dp135
g53
(dp136
g61
I4
ssg62
Nsg55
(lp137
sbasbasbasbag48
(g64
g50
NtRp138
(dp139
g53
(dp140
sg62
g58
sg55
(lp141
g48
(g69
g50
NtRp142
(dp143
g53
(dp144
g73
g74
ssg62
g138
sg55
(lp145
S'body'
p146
asbag48
(g69
g50
NtRp147
(dp148
g53
(dp149
g80
g81
ssg62
g138
sg55
(lp150
S':'
asbag48
(g69
g50
NtRp151
(dp152
g53
(dp153
sg62
g138
sg55
(lp154
g48
(g49
g50
NtRp155
(dp156
g53
(dp157
g61
I5
ssg62
g151
sg55
(lp158
S'<cStringIO.StringO object at 0x087E5780>'
p159
asbasbasbag48
(g64
g50
NtRp160
(dp161
g53
(dp162
sg62
g58
sg55
(lp163
g48
(g69
g50
NtRp164
(dp165
g53
(dp166
g73
g74
ssg62
g160
sg55
(lp167
S'client'
p168
asbag48
(g69
g50
NtRp169
(dp170
g53
(dp171
g80
g81
ssg62
g160
sg55
(lp172
S':'
asbag48
(g69
g50
NtRp173
(dp174
g53
(dp175
sg62
g160
sg55
(lp176
g48
(g49
g50
NtRp177
(dp178
g53
(dp179
g61
I5
ssg62
g173
sg55
(lp180
S'127.0.0.1'
p181
asbasbasbag48
(g64
g50
NtRp182
(dp183
g53
(dp184
sg62
g58
sg55
(lp185
g48
(g69
g50
NtRp186
(dp187
g53
(dp188
g73
g74
ssg62
g182
sg55
(lp189
S'controller'
p190
asbag48
(g69
g50
NtRp191
(dp192
g53
(dp193
g80
g81
ssg62
g182
sg55
(lp194
S':'
asbag48
(g69
g50
NtRp195
(dp196
g53
(dp197
sg62
g182
sg55
(lp198
g48
(g49
g50
NtRp199
(dp200
g53
(dp201
g61
I5
ssg62
g195
sg55
(lp202
S'default'
p203
asbasbasbag48
(g64
g50
NtRp204
(dp205
g53
(dp206
sg62
g58
sg55
(lp207
g48
(g69
g50
NtRp208
(dp209
g53
(dp210
g73
g74
ssg62
g204
sg55
(lp211
S'cookies'
p212
asbag48
(g69
g50
NtRp213
(dp214
g53
(dp215
g80
g81
ssg62
g204
sg55
(lp216
S':'
asbag48
(g69
g50
NtRp217
(dp218
g53
(dp219
sg62
g204
sg55
(lp220
g48
(g49
g50
NtRp221
(dp222
g53
(dp223
g61
I5
ssg62
g217
sg55
(lp224
g48
(g57
g50
NtRp225
(dp226
g53
(dp227
g61
I4
ssg62
Nsg55
(lp228
g48
(g64
g50
NtRp229
(dp230
g53
(dp231
sg62
g225
sg55
(lp232
g48
(g69
g50
NtRp233
(dp234
g53
(dp235
g73
g74
ssg62
g229
sg55
(lp236
S'session_id_admin'
p237
asbag48
(g69
g50
NtRp238
(dp239
g53
(dp240
g80
g81
ssg62
g229
sg55
(lp241
S':'
asbag48
(g69
g50
NtRp242
(dp243
g53
(dp244
sg62
g229
sg55
(lp245
g48
(g49
g50
NtRp246
(dp247
g53
(dp248
g61
I4
ssg62
g242
sg55
(lp249
g48
(g57
g50
NtRp250
(dp251
g53
(dp252
g61
I3
ssg62
Nsg55
(lp253
g48
(g64
g50
NtRp254
(dp255
g53
(dp256
sg62
g250
sg55
(lp257
g48
(g69
g50
NtRp258
(dp259
g53
(dp260
g73
g74
ssg62
g254
sg55
(lp261
S'comment'
p262
asbag48
(g69
g50
NtRp263
(dp264
g53
(dp265
g80
g81
ssg62
g254
sg55
(lp266
S':'
asbag48
(g69
g50
NtRp267
(dp268
g53
(dp269
sg62
g254
sg55
(lp270
g48
(g49
g50
NtRp271
(dp272
g53
(dp273
g61
I3
ssg62
g267
sg55
(lp274
S''
asbasbasbag48
(g64
g50
NtRp275
(dp276
g53
(dp277
sg62
g250
sg55
(lp278
g48
(g69
g50
NtRp279
(dp280
g53
(dp281
g73
g74
ssg62
g275
sg55
(lp282
S'domain'
p283
asbag48
(g69
g50
NtRp284
(dp285
g53
(dp286
g80
g81
ssg62
g275
sg55
(lp287
S':'
asbag48
(g69
g50
NtRp288
(dp289
g53
(dp290
sg62
g275
sg55
(lp291
g48
(g49
g50
NtRp292
(dp293
g53
(dp294
g61
I3
ssg62
g288
sg55
(lp295
S''
asbasbasbag48
(g64
g50
NtRp296
(dp297
g53
(dp298
sg62
g250
sg55
(lp299
g48
(g69
g50
NtRp300
(dp301
g53
(dp302
g73
g74
ssg62
g296
sg55
(lp303
S'expires'
p304
asbag48
(g69
g50
NtRp305
(dp306
g53
(dp307
g80
g81
ssg62
g296
sg55
(lp308
S':'
asbag48
(g69
g50
NtRp309
(dp310
g53
(dp311
sg62
g296
sg55
(lp312
g48
(g49
g50
NtRp313
(dp314
g53
(dp315
g61
I3
ssg62
g309
sg55
(lp316
S''
asbasbasbag48
(g64
g50
NtRp317
(dp318
g53
(dp319
sg62
g250
sg55
(lp320
g48
(g69
g50
NtRp321
(dp322
g53
(dp323
g73
g74
ssg62
g317
sg55
(lp324
S'max-age'
p325
asbag48
(g69
g50
NtRp326
(dp327
g53
(dp328
g80
g81
ssg62
g317
sg55
(lp329
S':'
asbag48
(g69
g50
NtRp330
(dp331
g53
(dp332
sg62
g317
sg55
(lp333
g48
(g49
g50
NtRp334
(dp335
g53
(dp336
g61
I3
ssg62
g330
sg55
(lp337
S''
asbasbasbag48
(g64
g50
NtRp338
(dp339
g53
(dp340
sg62
g250
sg55
(lp341
g48
(g69
g50
NtRp342
(dp343
g53
(dp344
g73
g74
ssg62
g338
sg55
(lp345
S'path'
p346
asbag48
(g69
g50
NtRp347
(dp348
g53
(dp349
g80
g81
ssg62
g338
sg55
(lp350
S':'
asbag48
(g69
g50
NtRp351
(dp352
g53
(dp353
sg62
g338
sg55
(lp354
g48
(g49
g50
NtRp355
(dp356
g53
(dp357
g61
I3
ssg62
g351
sg55
(lp358
S''
asbasbasbag48
(g64
g50
NtRp359
(dp360
g53
(dp361
sg62
g250
sg55
(lp362
g48
(g69
g50
NtRp363
(dp364
g53
(dp365
g73
g74
ssg62
g359
sg55
(lp366
S'secure'
p367
asbag48
(g69
g50
NtRp368
(dp369
g53
(dp370
g80
g81
ssg62
g359
sg55
(lp371
S':'
asbag48
(g69
g50
NtRp372
(dp373
g53
(dp374
sg62
g359
sg55
(lp375
g48
(g49
g50
NtRp376
(dp377
g53
(dp378
g61
I3
ssg62
g372
sg55
(lp379
S''
asbasbasbag48
(g64
g50
NtRp380
(dp381
g53
(dp382
sg62
g250
sg55
(lp383
g48
(g69
g50
NtRp384
(dp385
g53
(dp386
g73
g74
ssg62
g380
sg55
(lp387
S'version'
p388
asbag48
(g69
g50
NtRp389
(dp390
g53
(dp391
g80
g81
ssg62
g380
sg55
(lp392
S':'
asbag48
(g69
g50
NtRp393
(dp394
g53
(dp395
sg62
g380
sg55
(lp396
g48
(g49
g50
NtRp397
(dp398
g53
(dp399
g61
I3
ssg62
g393
sg55
(lp400
S''
asbasbasbasbasbasbasbag48
(g64
g50
NtRp401
(dp402
g53
(dp403
sg62
g225
sg55
(lp404
g48
(g69
g50
NtRp405
(dp406
g53
(dp407
g73
g74
ssg62
g401
sg55
(lp408
S'session_id_borrar2'
p409
asbag48
(g69
g50
NtRp410
(dp411
g53
(dp412
g80
g81
ssg62
g401
sg55
(lp413
S':'
asbag48
(g69
g50
NtRp414
(dp415
g53
(dp416
sg62
g401
sg55
(lp417
g48
(g49
g50
NtRp418
(dp419
g53
(dp420
g61
I4
ssg62
g414
sg55
(lp421
g48
(g57
g50
NtRp422
(dp423
g53
(dp424
g61
I3
ssg62
Nsg55
(lp425
g48
(g64
g50
NtRp426
(dp427
g53
(dp428
sg62
g422
sg55
(lp429
g48
(g69
g50
NtRp430
(dp431
g53
(dp432
g73
g74
ssg62
g426
sg55
(lp433
g262
asbag48
(g69
g50
NtRp434
(dp435
g53
(dp436
g80
g81
ssg62
g426
sg55
(lp437
S':'
asbag48
(g69
g50
NtRp438
(dp439
g53
(dp440
sg62
g426
sg55
(lp441
g48
(g49
g50
NtRp442
(dp443
g53
(dp444
g61
I3
ssg62
g438
sg55
(lp445
S''
asbasbasbag48
(g64
g50
NtRp446
(dp447
g53
(dp448
sg62
g422
sg55
(lp449
g48
(g69
g50
NtRp450
(dp451
g53
(dp452
g73
g74
ssg62
g446
sg55
(lp453
g283
asbag48
(g69
g50
NtRp454
(dp455
g53
(dp456
g80
g81
ssg62
g446
sg55
(lp457
S':'
asbag48
(g69
g50
NtRp458
(dp459
g53
(dp460
sg62
g446
sg55
(lp461
g48
(g49
g50
NtRp462
(dp463
g53
(dp464
g61
I3
ssg62
g458
sg55
(lp465
S''
asbasbasbag48
(g64
g50
NtRp466
(dp467
g53
(dp468
sg62
g422
sg55
(lp469
g48
(g69
g50
NtRp470
(dp471
g53
(dp472
g73
g74
ssg62
g466
sg55
(lp473
g304
asbag48
(g69
g50
NtRp474
(dp475
g53
(dp476
g80
g81
ssg62
g466
sg55
(lp477
S':'
asbag48
(g69
g50
NtRp478
(dp479
g53
(dp480
sg62
g466
sg55
(lp481
g48
(g49
g50
NtRp482
(dp483
g53
(dp484
g61
I3
ssg62
g478
sg55
(lp485
S''
asbasbasbag48
(g64
g50
NtRp486
(dp487
g53
(dp488
sg62
g422
sg55
(lp489
g48
(g69
g50
NtRp490
(dp491
g53
(dp492
g73
g74
ssg62
g486
sg55
(lp493
g325
asbag48
(g69
g50
NtRp494
(dp495
g53
(dp496
g80
g81
ssg62
g486
sg55
(lp497
S':'
asbag48
(g69
g50
NtRp498
(dp499
g53
(dp500
sg62
g486
sg55
(lp501
g48
(g49
g50
NtRp502
(dp503
g53
(dp504
g61
I3
ssg62
g498
sg55
(lp505
S''
asbasbasbag48
(g64
g50
NtRp506
(dp507
g53
(dp508
sg62
g422
sg55
(lp509
g48
(g69
g50
NtRp510
(dp511
g53
(dp512
g73
g74
ssg62
g506
sg55
(lp513
g346
asbag48
(g69
g50
NtRp514
(dp515
g53
(dp516
g80
g81
ssg62
g506
sg55
(lp517
S':'
asbag48
(g69
g50
NtRp518
(dp519
g53
(dp520
sg62
g506
sg55
(lp521
g48
(g49
g50
NtRp522
(dp523
g53
(dp524
g61
I3
ssg62
g518
sg55
(lp525
S''
asbasbasbag48
(g64
g50
NtRp526
(dp527
g53
(dp528
sg62
g422
sg55
(lp529
g48
(g69
g50
NtRp530
(dp531
g53
(dp532
g73
g74
ssg62
g526
sg55
(lp533
g367
asbag48
(g69
g50
NtRp534
(dp535
g53
(dp536
g80
g81
ssg62
g526
sg55
(lp537
S':'
asbag48
(g69
g50
NtRp538
(dp539
g53
(dp540
sg62
g526
sg55
(lp541
g48
(g49
g50
NtRp542
(dp543
g53
(dp544
g61
I3
ssg62
g538
sg55
(lp545
S''
asbasbasbag48
(g64
g50
NtRp546
(dp547
g53
(dp548
sg62
g422
sg55
(lp549
g48
(g69
g50
NtRp550
(dp551
g53
(dp552
g73
g74
ssg62
g546
sg55
(lp553
g388
asbag48
(g69
g50
NtRp554
(dp555
g53
(dp556
g80
g81
ssg62
g546
sg55
(lp557
S':'
asbag48
(g69
g50
NtRp558
(dp559
g53
(dp560
sg62
g546
sg55
(lp561
g48
(g49
g50
NtRp562
(dp563
g53
(dp564
g61
I3
ssg62
g558
sg55
(lp565
S''
asbasbasbasbasbasbasbag48
(g64
g50
NtRp566
(dp567
g53
(dp568
sg62
g225
sg55
(lp569
g48
(g69
g50
NtRp570
(dp571
g53
(dp572
g73
g74
ssg62
g566
sg55
(lp573
S'session_id_cual_es_tu_nombre'
p574
asbag48
(g69
g50
NtRp575
(dp576
g53
(dp577
g80
g81
ssg62
g566
sg55
(lp578
S':'
asbag48
(g69
g50
NtRp579
(dp580
g53
(dp581
sg62
g566
sg55
(lp582
g48
(g49
g50
NtRp583
(dp584
g53
(dp585
g61
I4
ssg62
g579
sg55
(lp586
g48
(g57
g50
NtRp587
(dp588
g53
(dp589
g61
I3
ssg62
Nsg55
(lp590
g48
(g64
g50
NtRp591
(dp592
g53
(dp593
sg62
g587
sg55
(lp594
g48
(g69
g50
NtRp595
(dp596
g53
(dp597
g73
g74
ssg62
g591
sg55
(lp598
g262
asbag48
(g69
g50
NtRp599
(dp600
g53
(dp601
g80
g81
ssg62
g591
sg55
(lp602
S':'
asbag48
(g69
g50
NtRp603
(dp604
g53
(dp605
sg62
g591
sg55
(lp606
g48
(g49
g50
NtRp607
(dp608
g53
(dp609
g61
I3
ssg62
g603
sg55
(lp610
S''
asbasbasbag48
(g64
g50
NtRp611
(dp612
g53
(dp613
sg62
g587
sg55
(lp614
g48
(g69
g50
NtRp615
(dp616
g53
(dp617
g73
g74
ssg62
g611
sg55
(lp618
g283
asbag48
(g69
g50
NtRp619
(dp620
g53
(dp621
g80
g81
ssg62
g611
sg55
(lp622
S':'
asbag48
(g69
g50
NtRp623
(dp624
g53
(dp625
sg62
g611
sg55
(lp626
g48
(g49
g50
NtRp627
(dp628
g53
(dp629
g61
I3
ssg62
g623
sg55
(lp630
S''
asbasbasbag48
(g64
g50
NtRp631
(dp632
g53
(dp633
sg62
g587
sg55
(lp634
g48
(g69
g50
NtRp635
(dp636
g53
(dp637
g73
g74
ssg62
g631
sg55
(lp638
g304
asbag48
(g69
g50
NtRp639
(dp640
g53
(dp641
g80
g81
ssg62
g631
sg55
(lp642
S':'
asbag48
(g69
g50
NtRp643
(dp644
g53
(dp645
sg62
g631
sg55
(lp646
g48
(g49
g50
NtRp647
(dp648
g53
(dp649
g61
I3
ssg62
g643
sg55
(lp650
S''
asbasbasbag48
(g64
g50
NtRp651
(dp652
g53
(dp653
sg62
g587
sg55
(lp654
g48
(g69
g50
NtRp655
(dp656
g53
(dp657
g73
g74
ssg62
g651
sg55
(lp658
g325
asbag48
(g69
g50
NtRp659
(dp660
g53
(dp661
g80
g81
ssg62
g651
sg55
(lp662
S':'
asbag48
(g69
g50
NtRp663
(dp664
g53
(dp665
sg62
g651
sg55
(lp666
g48
(g49
g50
NtRp667
(dp668
g53
(dp669
g61
I3
ssg62
g663
sg55
(lp670
S''
asbasbasbag48
(g64
g50
NtRp671
(dp672
g53
(dp673
sg62
g587
sg55
(lp674
g48
(g69
g50
NtRp675
(dp676
g53
(dp677
g73
g74
ssg62
g671
sg55
(lp678
g346
asbag48
(g69
g50
NtRp679
(dp680
g53
(dp681
g80
g81
ssg62
g671
sg55
(lp682
S':'
asbag48
(g69
g50
NtRp683
(dp684
g53
(dp685
sg62
g671
sg55
(lp686
g48
(g49
g50
NtRp687
(dp688
g53
(dp689
g61
I3
ssg62
g683
sg55
(lp690
S''
asbasbasbag48
(g64
g50
NtRp691
(dp692
g53
(dp693
sg62
g587
sg55
(lp694
g48
(g69
g50
NtRp695
(dp696
g53
(dp697
g73
g74
ssg62
g691
sg55
(lp698
g367
asbag48
(g69
g50
NtRp699
(dp700
g53
(dp701
g80
g81
ssg62
g691
sg55
(lp702
S':'
asbag48
(g69
g50
NtRp703
(dp704
g53
(dp705
sg62
g691
sg55
(lp706
g48
(g49
g50
NtRp707
(dp708
g53
(dp709
g61
I3
ssg62
g703
sg55
(lp710
S''
asbasbasbag48
(g64
g50
NtRp711
(dp712
g53
(dp713
sg62
g587
sg55
(lp714
g48
(g69
g50
NtRp715
(dp716
g53
(dp717
g73
g74
ssg62
g711
sg55
(lp718
g388
asbag48
(g69
g50
NtRp719
(dp720
g53
(dp721
g80
g81
ssg62
g711
sg55
(lp722
S':'
asbag48
(g69
g50
NtRp723
(dp724
g53
(dp725
sg62
g711
sg55
(lp726
g48
(g49
g50
NtRp727
(dp728
g53
(dp729
g61
I3
ssg62
g723
sg55
(lp730
S''
asbasbasbasbasbasbasbag48
(g64
g50
NtRp731
(dp732
g53
(dp733
sg62
g225
sg55
(lp734
g48
(g69
g50
NtRp735
(dp736
g53
(dp737
g73
g74
ssg62
g731
sg55
(lp738
S'session_id_desglosar_emails'
p739
asbag48
(g69
g50
NtRp740
(dp741
g53
(dp742
g80
g81
ssg62
g731
sg55
(lp743
S':'
asbag48
(g69
g50
NtRp744
(dp745
g53
(dp746
sg62
g731
sg55
(lp747
g48
(g49
g50
NtRp748
(dp749
g53
(dp750
g61
I4
ssg62
g744
sg55
(lp751
g48
(g57
g50
NtRp752
(dp753
g53
(dp754
g61
I3
ssg62
Nsg55
(lp755
g48
(g64
g50
NtRp756
(dp757
g53
(dp758
sg62
g752
sg55
(lp759
g48
(g69
g50
NtRp760
(dp761
g53
(dp762
g73
g74
ssg62
g756
sg55
(lp763
g262
asbag48
(g69
g50
NtRp764
(dp765
g53
(dp766
g80
g81
ssg62
g756
sg55
(lp767
S':'
asbag48
(g69
g50
NtRp768
(dp769
g53
(dp770
sg62
g756
sg55
(lp771
g48
(g49
g50
NtRp772
(dp773
g53
(dp774
g61
I3
ssg62
g768
sg55
(lp775
S''
asbasbasbag48
(g64
g50
NtRp776
(dp777
g53
(dp778
sg62
g752
sg55
(lp779
g48
(g69
g50
NtRp780
(dp781
g53
(dp782
g73
g74
ssg62
g776
sg55
(lp783
g283
asbag48
(g69
g50
NtRp784
(dp785
g53
(dp786
g80
g81
ssg62
g776
sg55
(lp787
S':'
asbag48
(g69
g50
NtRp788
(dp789
g53
(dp790
sg62
g776
sg55
(lp791
g48
(g49
g50
NtRp792
(dp793
g53
(dp794
g61
I3
ssg62
g788
sg55
(lp795
S''
asbasbasbag48
(g64
g50
NtRp796
(dp797
g53
(dp798
sg62
g752
sg55
(lp799
g48
(g69
g50
NtRp800
(dp801
g53
(dp802
g73
g74
ssg62
g796
sg55
(lp803
g304
asbag48
(g69
g50
NtRp804
(dp805
g53
(dp806
g80
g81
ssg62
g796
sg55
(lp807
S':'
asbag48
(g69
g50
NtRp808
(dp809
g53
(dp810
sg62
g796
sg55
(lp811
g48
(g49
g50
NtRp812
(dp813
g53
(dp814
g61
I3
ssg62
g808
sg55
(lp815
S''
asbasbasbag48
(g64
g50
NtRp816
(dp817
g53
(dp818
sg62
g752
sg55
(lp819
g48
(g69
g50
NtRp820
(dp821
g53
(dp822
g73
g74
ssg62
g816
sg55
(lp823
g325
asbag48
(g69
g50
NtRp824
(dp825
g53
(dp826
g80
g81
ssg62
g816
sg55
(lp827
S':'
asbag48
(g69
g50
NtRp828
(dp829
g53
(dp830
sg62
g816
sg55
(lp831
g48
(g49
g50
NtRp832
(dp833
g53
(dp834
g61
I3
ssg62
g828
sg55
(lp835
S''
asbasbasbag48
(g64
g50
NtRp836
(dp837
g53
(dp838
sg62
g752
sg55
(lp839
g48
(g69
g50
NtRp840
(dp841
g53
(dp842
g73
g74
ssg62
g836
sg55
(lp843
g346
asbag48
(g69
g50
NtRp844
(dp845
g53
(dp846
g80
g81
ssg62
g836
sg55
(lp847
S':'
asbag48
(g69
g50
NtRp848
(dp849
g53
(dp850
sg62
g836
sg55
(lp851
g48
(g49
g50
NtRp852
(dp853
g53
(dp854
g61
I3
ssg62
g848
sg55
(lp855
S''
asbasbasbag48
(g64
g50
NtRp856
(dp857
g53
(dp858
sg62
g752
sg55
(lp859
g48
(g69
g50
NtRp860
(dp861
g53
(dp862
g73
g74
ssg62
g856
sg55
(lp863
g367
asbag48
(g69
g50
NtRp864
(dp865
g53
(dp866
g80
g81
ssg62
g856
sg55
(lp867
S':'
asbag48
(g69
g50
NtRp868
(dp869
g53
(dp870
sg62
g856
sg55
(lp871
g48
(g49
g50
NtRp872
(dp873
g53
(dp874
g61
I3
ssg62
g868
sg55
(lp875
S''
asbasbasbag48
(g64
g50
NtRp876
(dp877
g53
(dp878
sg62
g752
sg55
(lp879
g48
(g69
g50
NtRp880
(dp881
g53
(dp882
g73
g74
ssg62
g876
sg55
(lp883
g388
asbag48
(g69
g50
NtRp884
(dp885
g53
(dp886
g80
g81
ssg62
g876
sg55
(lp887
S':'
asbag48
(g69
g50
NtRp888
(dp889
g53
(dp890
sg62
g876
sg55
(lp891
g48
(g49
g50
NtRp892
(dp893
g53
(dp894
g61
I3
ssg62
g888
sg55
(lp895
S''
asbasbasbasbasbasbasbag48
(g64
g50
NtRp896
(dp897
g53
(dp898
sg62
g225
sg55
(lp899
g48
(g69
g50
NtRp900
(dp901
g53
(dp902
g73
g74
ssg62
g896
sg55
(lp903
S'session_id_hemoal'
p904
asbag48
(g69
g50
NtRp905
(dp906
g53
(dp907
g80
g81
ssg62
g896
sg55
(lp908
S':'
asbag48
(g69
g50
NtRp909
(dp910
g53
(dp911
sg62
g896
sg55
(lp912
g48
(g49
g50
NtRp913
(dp914
g53
(dp915
g61
I4
ssg62
g909
sg55
(lp916
g48
(g57
g50
NtRp917
(dp918
g53
(dp919
g61
I3
ssg62
Nsg55
(lp920
g48
(g64
g50
NtRp921
(dp922
g53
(dp923
sg62
g917
sg55
(lp924
g48
(g69
g50
NtRp925
(dp926
g53
(dp927
g73
g74
ssg62
g921
sg55
(lp928
g262
asbag48
(g69
g50
NtRp929
(dp930
g53
(dp931
g80
g81
ssg62
g921
sg55
(lp932
S':'
asbag48
(g69
g50
NtRp933
(dp934
g53
(dp935
sg62
g921
sg55
(lp936
g48
(g49
g50
NtRp937
(dp938
g53
(dp939
g61
I3
ssg62
g933
sg55
(lp940
S''
asbasbasbag48
(g64
g50
NtRp941
(dp942
g53
(dp943
sg62
g917
sg55
(lp944
g48
(g69
g50
NtRp945
(dp946
g53
(dp947
g73
g74
ssg62
g941
sg55
(lp948
g283
asbag48
(g69
g50
NtRp949
(dp950
g53
(dp951
g80
g81
ssg62
g941
sg55
(lp952
S':'
asbag48
(g69
g50
NtRp953
(dp954
g53
(dp955
sg62
g941
sg55
(lp956
g48
(g49
g50
NtRp957
(dp958
g53
(dp959
g61
I3
ssg62
g953
sg55
(lp960
S''
asbasbasbag48
(g64
g50
NtRp961
(dp962
g53
(dp963
sg62
g917
sg55
(lp964
g48
(g69
g50
NtRp965
(dp966
g53
(dp967
g73
g74
ssg62
g961
sg55
(lp968
g304
asbag48
(g69
g50
NtRp969
(dp970
g53
(dp971
g80
g81
ssg62
g961
sg55
(lp972
S':'
asbag48
(g69
g50
NtRp973
(dp974
g53
(dp975
sg62
g961
sg55
(lp976
g48
(g49
g50
NtRp977
(dp978
g53
(dp979
g61
I3
ssg62
g973
sg55
(lp980
S''
asbasbasbag48
(g64
g50
NtRp981
(dp982
g53
(dp983
sg62
g917
sg55
(lp984
g48
(g69
g50
NtRp985
(dp986
g53
(dp987
g73
g74
ssg62
g981
sg55
(lp988
g325
asbag48
(g69
g50
NtRp989
(dp990
g53
(dp991
g80
g81
ssg62
g981
sg55
(lp992
S':'
asbag48
(g69
g50
NtRp993
(dp994
g53
(dp995
sg62
g981
sg55
(lp996
g48
(g49
g50
NtRp997
(dp998
g53
(dp999
g61
I3
ssg62
g993
sg55
(lp1000
S''
asbasbasbag48
(g64
g50
NtRp1001
(dp1002
g53
(dp1003
sg62
g917
sg55
(lp1004
g48
(g69
g50
NtRp1005
(dp1006
g53
(dp1007
g73
g74
ssg62
g1001
sg55
(lp1008
g346
asbag48
(g69
g50
NtRp1009
(dp1010
g53
(dp1011
g80
g81
ssg62
g1001
sg55
(lp1012
S':'
asbag48
(g69
g50
NtRp1013
(dp1014
g53
(dp1015
sg62
g1001
sg55
(lp1016
g48
(g49
g50
NtRp1017
(dp1018
g53
(dp1019
g61
I3
ssg62
g1013
sg55
(lp1020
S''
asbasbasbag48
(g64
g50
NtRp1021
(dp1022
g53
(dp1023
sg62
g917
sg55
(lp1024
g48
(g69
g50
NtRp1025
(dp1026
g53
(dp1027
g73
g74
ssg62
g1021
sg55
(lp1028
g367
asbag48
(g69
g50
NtRp1029
(dp1030
g53
(dp1031
g80
g81
ssg62
g1021
sg55
(lp1032
S':'
asbag48
(g69
g50
NtRp1033
(dp1034
g53
(dp1035
sg62
g1021
sg55
(lp1036
g48
(g49
g50
NtRp1037
(dp1038
g53
(dp1039
g61
I3
ssg62
g1033
sg55
(lp1040
S''
asbasbasbag48
(g64
g50
NtRp1041
(dp1042
g53
(dp1043
sg62
g917
sg55
(lp1044
g48
(g69
g50
NtRp1045
(dp1046
g53
(dp1047
g73
g74
ssg62
g1041
sg55
(lp1048
g388
asbag48
(g69
g50
NtRp1049
(dp1050
g53
(dp1051
g80
g81
ssg62
g1041
sg55
(lp1052
S':'
asbag48
(g69
g50
NtRp1053
(dp1054
g53
(dp1055
sg62
g1041
sg55
(lp1056
g48
(g49
g50
NtRp1057
(dp1058
g53
(dp1059
g61
I3
ssg62
g1053
sg55
(lp1060
S''
asbasbasbasbasbasbasbag48
(g64
g50
NtRp1061
(dp1062
g53
(dp1063
sg62
g225
sg55
(lp1064
g48
(g69
g50
NtRp1065
(dp1066
g53
(dp1067
g73
g74
ssg62
g1061
sg55
(lp1068
S'session_id_listado_1'
p1069
asbag48
(g69
g50
NtRp1070
(dp1071
g53
(dp1072
g80
g81
ssg62
g1061
sg55
(lp1073
S':'
asbag48
(g69
g50
NtRp1074
(dp1075
g53
(dp1076
sg62
g1061
sg55
(lp1077
g48
(g49
g50
NtRp1078
(dp1079
g53
(dp1080
g61
I4
ssg62
g1074
sg55
(lp1081
g48
(g57
g50
NtRp1082
(dp1083
g53
(dp1084
g61
I3
ssg62
Nsg55
(lp1085
g48
(g64
g50
NtRp1086
(dp1087
g53
(dp1088
sg62
g1082
sg55
(lp1089
g48
(g69
g50
NtRp1090
(dp1091
g53
(dp1092
g73
g74
ssg62
g1086
sg55
(lp1093
g262
asbag48
(g69
g50
NtRp1094
(dp1095
g53
(dp1096
g80
g81
ssg62
g1086
sg55
(lp1097
S':'
asbag48
(g69
g50
NtRp1098
(dp1099
g53
(dp1100
sg62
g1086
sg55
(lp1101
g48
(g49
g50
NtRp1102
(dp1103
g53
(dp1104
g61
I3
ssg62
g1098
sg55
(lp1105
S''
asbasbasbag48
(g64
g50
NtRp1106
(dp1107
g53
(dp1108
sg62
g1082
sg55
(lp1109
g48
(g69
g50
NtRp1110
(dp1111
g53
(dp1112
g73
g74
ssg62
g1106
sg55
(lp1113
g283
asbag48
(g69
g50
NtRp1114
(dp1115
g53
(dp1116
g80
g81
ssg62
g1106
sg55
(lp1117
S':'
asbag48
(g69
g50
NtRp1118
(dp1119
g53
(dp1120
sg62
g1106
sg55
(lp1121
g48
(g49
g50
NtRp1122
(dp1123
g53
(dp1124
g61
I3
ssg62
g1118
sg55
(lp1125
S''
asbasbasbag48
(g64
g50
NtRp1126
(dp1127
g53
(dp1128
sg62
g1082
sg55
(lp1129
g48
(g69
g50
NtRp1130
(dp1131
g53
(dp1132
g73
g74
ssg62
g1126
sg55
(lp1133
g304
asbag48
(g69
g50
NtRp1134
(dp1135
g53
(dp1136
g80
g81
ssg62
g1126
sg55
(lp1137
S':'
asbag48
(g69
g50
NtRp1138
(dp1139
g53
(dp1140
sg62
g1126
sg55
(lp1141
g48
(g49
g50
NtRp1142
(dp1143
g53
(dp1144
g61
I3
ssg62
g1138
sg55
(lp1145
S''
asbasbasbag48
(g64
g50
NtRp1146
(dp1147
g53
(dp1148
sg62
g1082
sg55
(lp1149
g48
(g69
g50
NtRp1150
(dp1151
g53
(dp1152
g73
g74
ssg62
g1146
sg55
(lp1153
g325
asbag48
(g69
g50
NtRp1154
(dp1155
g53
(dp1156
g80
g81
ssg62
g1146
sg55
(lp1157
S':'
asbag48
(g69
g50
NtRp1158
(dp1159
g53
(dp1160
sg62
g1146
sg55
(lp1161
g48
(g49
g50
NtRp1162
(dp1163
g53
(dp1164
g61
I3
ssg62
g1158
sg55
(lp1165
S''
asbasbasbag48
(g64
g50
NtRp1166
(dp1167
g53
(dp1168
sg62
g1082
sg55
(lp1169
g48
(g69
g50
NtRp1170
(dp1171
g53
(dp1172
g73
g74
ssg62
g1166
sg55
(lp1173
g346
asbag48
(g69
g50
NtRp1174
(dp1175
g53
(dp1176
g80
g81
ssg62
g1166
sg55
(lp1177
S':'
asbag48
(g69
g50
NtRp1178
(dp1179
g53
(dp1180
sg62
g1166
sg55
(lp1181
g48
(g49
g50
NtRp1182
(dp1183
g53
(dp1184
g61
I3
ssg62
g1178
sg55
(lp1185
S''
asbasbasbag48
(g64
g50
NtRp1186
(dp1187
g53
(dp1188
sg62
g1082
sg55
(lp1189
g48
(g69
g50
NtRp1190
(dp1191
g53
(dp1192
g73
g74
ssg62
g1186
sg55
(lp1193
g367
asbag48
(g69
g50
NtRp1194
(dp1195
g53
(dp1196
g80
g81
ssg62
g1186
sg55
(lp1197
S':'
asbag48
(g69
g50
NtRp1198
(dp1199
g53
(dp1200
sg62
g1186
sg55
(lp1201
g48
(g49
g50
NtRp1202
(dp1203
g53
(dp1204
g61
I3
ssg62
g1198
sg55
(lp1205
S''
asbasbasbag48
(g64
g50
NtRp1206
(dp1207
g53
(dp1208
sg62
g1082
sg55
(lp1209
g48
(g69
g50
NtRp1210
(dp1211
g53
(dp1212
g73
g74
ssg62
g1206
sg55
(lp1213
g388
asbag48
(g69
g50
NtRp1214
(dp1215
g53
(dp1216
g80
g81
ssg62
g1206
sg55
(lp1217
S':'
asbag48
(g69
g50
NtRp1218
(dp1219
g53
(dp1220
sg62
g1206
sg55
(lp1221
g48
(g49
g50
NtRp1222
(dp1223
g53
(dp1224
g61
I3
ssg62
g1218
sg55
(lp1225
S''
asbasbasbasbasbasbasbag48
(g64
g50
NtRp1226
(dp1227
g53
(dp1228
sg62
g225
sg55
(lp1229
g48
(g69
g50
NtRp1230
(dp1231
g53
(dp1232
g73
g74
ssg62
g1226
sg55
(lp1233
S'session_id_myappjav'
p1234
asbag48
(g69
g50
NtRp1235
(dp1236
g53
(dp1237
g80
g81
ssg62
g1226
sg55
(lp1238
S':'
asbag48
(g69
g50
NtRp1239
(dp1240
g53
(dp1241
sg62
g1226
sg55
(lp1242
g48
(g49
g50
NtRp1243
(dp1244
g53
(dp1245
g61
I4
ssg62
g1239
sg55
(lp1246
g48
(g57
g50
NtRp1247
(dp1248
g53
(dp1249
g61
I3
ssg62
Nsg55
(lp1250
g48
(g64
g50
NtRp1251
(dp1252
g53
(dp1253
sg62
g1247
sg55
(lp1254
g48
(g69
g50
NtRp1255
(dp1256
g53
(dp1257
g73
g74
ssg62
g1251
sg55
(lp1258
g262
asbag48
(g69
g50
NtRp1259
(dp1260
g53
(dp1261
g80
g81
ssg62
g1251
sg55
(lp1262
S':'
asbag48
(g69
g50
NtRp1263
(dp1264
g53
(dp1265
sg62
g1251
sg55
(lp1266
g48
(g49
g50
NtRp1267
(dp1268
g53
(dp1269
g61
I3
ssg62
g1263
sg55
(lp1270
S''
asbasbasbag48
(g64
g50
NtRp1271
(dp1272
g53
(dp1273
sg62
g1247
sg55
(lp1274
g48
(g69
g50
NtRp1275
(dp1276
g53
(dp1277
g73
g74
ssg62
g1271
sg55
(lp1278
g283
asbag48
(g69
g50
NtRp1279
(dp1280
g53
(dp1281
g80
g81
ssg62
g1271
sg55
(lp1282
S':'
asbag48
(g69
g50
NtRp1283
(dp1284
g53
(dp1285
sg62
g1271
sg55
(lp1286
g48
(g49
g50
NtRp1287
(dp1288
g53
(dp1289
g61
I3
ssg62
g1283
sg55
(lp1290
S''
asbasbasbag48
(g64
g50
NtRp1291
(dp1292
g53
(dp1293
sg62
g1247
sg55
(lp1294
g48
(g69
g50
NtRp1295
(dp1296
g53
(dp1297
g73
g74
ssg62
g1291
sg55
(lp1298
g304
asbag48
(g69
g50
NtRp1299
(dp1300
g53
(dp1301
g80
g81
ssg62
g1291
sg55
(lp1302
S':'
asbag48
(g69
g50
NtRp1303
(dp1304
g53
(dp1305
sg62
g1291
sg55
(lp1306
g48
(g49
g50
NtRp1307
(dp1308
g53
(dp1309
g61
I3
ssg62
g1303
sg55
(lp1310
S''
asbasbasbag48
(g64
g50
NtRp1311
(dp1312
g53
(dp1313
sg62
g1247
sg55
(lp1314
g48
(g69
g50
NtRp1315
(dp1316
g53
(dp1317
g73
g74
ssg62
g1311
sg55
(lp1318
g325
asbag48
(g69
g50
NtRp1319
(dp1320
g53
(dp1321
g80
g81
ssg62
g1311
sg55
(lp1322
S':'
asbag48
(g69
g50
NtRp1323
(dp1324
g53
(dp1325
sg62
g1311
sg55
(lp1326
g48
(g49
g50
NtRp1327
(dp1328
g53
(dp1329
g61
I3
ssg62
g1323
sg55
(lp1330
S''
asbasbasbag48
(g64
g50
NtRp1331
(dp1332
g53
(dp1333
sg62
g1247
sg55
(lp1334
g48
(g69
g50
NtRp1335
(dp1336
g53
(dp1337
g73
g74
ssg62
g1331
sg55
(lp1338
g346
asbag48
(g69
g50
NtRp1339
(dp1340
g53
(dp1341
g80
g81
ssg62
g1331
sg55
(lp1342
S':'
asbag48
(g69
g50
NtRp1343
(dp1344
g53
(dp1345
sg62
g1331
sg55
(lp1346
g48
(g49
g50
NtRp1347
(dp1348
g53
(dp1349
g61
I3
ssg62
g1343
sg55
(lp1350
S''
asbasbasbag48
(g64
g50
NtRp1351
(dp1352
g53
(dp1353
sg62
g1247
sg55
(lp1354
g48
(g69
g50
NtRp1355
(dp1356
g53
(dp1357
g73
g74
ssg62
g1351
sg55
(lp1358
g367
asbag48
(g69
g50
NtRp1359
(dp1360
g53
(dp1361
g80
g81
ssg62
g1351
sg55
(lp1362
S':'
asbag48
(g69
g50
NtRp1363
(dp1364
g53
(dp1365
sg62
g1351
sg55
(lp1366
g48
(g49
g50
NtRp1367
(dp1368
g53
(dp1369
g61
I3
ssg62
g1363
sg55
(lp1370
S''
asbasbasbag48
(g64
g50
NtRp1371
(dp1372
g53
(dp1373
sg62
g1247
sg55
(lp1374
g48
(g69
g50
NtRp1375
(dp1376
g53
(dp1377
g73
g74
ssg62
g1371
sg55
(lp1378
g388
asbag48
(g69
g50
NtRp1379
(dp1380
g53
(dp1381
g80
g81
ssg62
g1371
sg55
(lp1382
S':'
asbag48
(g69
g50
NtRp1383
(dp1384
g53
(dp1385
sg62
g1371
sg55
(lp1386
g48
(g49
g50
NtRp1387
(dp1388
g53
(dp1389
g61
I3
ssg62
g1383
sg55
(lp1390
S''
asbasbasbasbasbasbasbag48
(g64
g50
NtRp1391
(dp1392
g53
(dp1393
sg62
g225
sg55
(lp1394
g48
(g69
g50
NtRp1395
(dp1396
g53
(dp1397
g73
g74
ssg62
g1391
sg55
(lp1398
S'session_id_welcome'
p1399
asbag48
(g69
g50
NtRp1400
(dp1401
g53
(dp1402
g80
g81
ssg62
g1391
sg55
(lp1403
S':'
asbag48
(g69
g50
NtRp1404
(dp1405
g53
(dp1406
sg62
g1391
sg55
(lp1407
g48
(g49
g50
NtRp1408
(dp1409
g53
(dp1410
g61
I4
ssg62
g1404
sg55
(lp1411
g48
(g57
g50
NtRp1412
(dp1413
g53
(dp1414
g61
I3
ssg62
Nsg55
(lp1415
g48
(g64
g50
NtRp1416
(dp1417
g53
(dp1418
sg62
g1412
sg55
(lp1419
g48
(g69
g50
NtRp1420
(dp1421
g53
(dp1422
g73
g74
ssg62
g1416
sg55
(lp1423
g262
asbag48
(g69
g50
NtRp1424
(dp1425
g53
(dp1426
g80
g81
ssg62
g1416
sg55
(lp1427
S':'
asbag48
(g69
g50
NtRp1428
(dp1429
g53
(dp1430
sg62
g1416
sg55
(lp1431
g48
(g49
g50
NtRp1432
(dp1433
g53
(dp1434
g61
I3
ssg62
g1428
sg55
(lp1435
S''
asbasbasbag48
(g64
g50
NtRp1436
(dp1437
g53
(dp1438
sg62
g1412
sg55
(lp1439
g48
(g69
g50
NtRp1440
(dp1441
g53
(dp1442
g73
g74
ssg62
g1436
sg55
(lp1443
g283
asbag48
(g69
g50
NtRp1444
(dp1445
g53
(dp1446
g80
g81
ssg62
g1436
sg55
(lp1447
S':'
asbag48
(g69
g50
NtRp1448
(dp1449
g53
(dp1450
sg62
g1436
sg55
(lp1451
g48
(g49
g50
NtRp1452
(dp1453
g53
(dp1454
g61
I3
ssg62
g1448
sg55
(lp1455
S''
asbasbasbag48
(g64
g50
NtRp1456
(dp1457
g53
(dp1458
sg62
g1412
sg55
(lp1459
g48
(g69
g50
NtRp1460
(dp1461
g53
(dp1462
g73
g74
ssg62
g1456
sg55
(lp1463
g304
asbag48
(g69
g50
NtRp1464
(dp1465
g53
(dp1466
g80
g81
ssg62
g1456
sg55
(lp1467
S':'
asbag48
(g69
g50
NtRp1468
(dp1469
g53
(dp1470
sg62
g1456
sg55
(lp1471
g48
(g49
g50
NtRp1472
(dp1473
g53
(dp1474
g61
I3
ssg62
g1468
sg55
(lp1475
S''
asbasbasbag48
(g64
g50
NtRp1476
(dp1477
g53
(dp1478
sg62
g1412
sg55
(lp1479
g48
(g69
g50
NtRp1480
(dp1481
g53
(dp1482
g73
g74
ssg62
g1476
sg55
(lp1483
g325
asbag48
(g69
g50
NtRp1484
(dp1485
g53
(dp1486
g80
g81
ssg62
g1476
sg55
(lp1487
S':'
asbag48
(g69
g50
NtRp1488
(dp1489
g53
(dp1490
sg62
g1476
sg55
(lp1491
g48
(g49
g50
NtRp1492
(dp1493
g53
(dp1494
g61
I3
ssg62
g1488
sg55
(lp1495
S''
asbasbasbag48
(g64
g50
NtRp1496
(dp1497
g53
(dp1498
sg62
g1412
sg55
(lp1499
g48
(g69
g50
NtRp1500
(dp1501
g53
(dp1502
g73
g74
ssg62
g1496
sg55
(lp1503
g346
asbag48
(g69
g50
NtRp1504
(dp1505
g53
(dp1506
g80
g81
ssg62
g1496
sg55
(lp1507
S':'
asbag48
(g69
g50
NtRp1508
(dp1509
g53
(dp1510
sg62
g1496
sg55
(lp1511
g48
(g49
g50
NtRp1512
(dp1513
g53
(dp1514
g61
I3
ssg62
g1508
sg55
(lp1515
S''
asbasbasbag48
(g64
g50
NtRp1516
(dp1517
g53
(dp1518
sg62
g1412
sg55
(lp1519
g48
(g69
g50
NtRp1520
(dp1521
g53
(dp1522
g73
g74
ssg62
g1516
sg55
(lp1523
g367
asbag48
(g69
g50
NtRp1524
(dp1525
g53
(dp1526
g80
g81
ssg62
g1516
sg55
(lp1527
S':'
asbag48
(g69
g50
NtRp1528
(dp1529
g53
(dp1530
sg62
g1516
sg55
(lp1531
g48
(g49
g50
NtRp1532
(dp1533
g53
(dp1534
g61
I3
ssg62
g1528
sg55
(lp1535
S''
asbasbasbag48
(g64
g50
NtRp1536
(dp1537
g53
(dp1538
sg62
g1412
sg55
(lp1539
g48
(g69
g50
NtRp1540
(dp1541
g53
(dp1542
g73
g74
ssg62
g1536
sg55
(lp1543
g388
asbag48
(g69
g50
NtRp1544
(dp1545
g53
(dp1546
g80
g81
ssg62
g1536
sg55
(lp1547
S':'
asbag48
(g69
g50
NtRp1548
(dp1549
g53
(dp1550
sg62
g1536
sg55
(lp1551
g48
(g49
g50
NtRp1552
(dp1553
g53
(dp1554
g61
I3
ssg62
g1548
sg55
(lp1555
S''
asbasbasbasbasbasbasbasbasbasbasbag48
(g64
g50
NtRp1556
(dp1557
g53
(dp1558
sg62
g58
sg55
(lp1559
g48
(g69
g50
NtRp1560
(dp1561
g53
(dp1562
g73
g74
ssg62
g1556
sg55
(lp1563
S'env'
p1564
asbag48
(g69
g50
NtRp1565
(dp1566
g53
(dp1567
g80
g81
ssg62
g1556
sg55
(lp1568
S':'
asbag48
(g69
g50
NtRp1569
(dp1570
g53
(dp1571
sg62
g1556
sg55
(lp1572
g48
(g49
g50
NtRp1573
(dp1574
g53
(dp1575
g61
I5
ssg62
g1569
sg55
(lp1576
g48
(g57
g50
NtRp1577
(dp1578
g53
(dp1579
g61
I4
ssg62
Nsg55
(lp1580
g48
(g64
g50
NtRp1581
(dp1582
g53
(dp1583
sg62
g1577
sg55
(lp1584
g48
(g69
g50
NtRp1585
(dp1586
g53
(dp1587
g73
g74
ssg62
g1581
sg55
(lp1588
S'app_folders'
p1589
asbag48
(g69
g50
NtRp1590
(dp1591
g53
(dp1592
g80
g81
ssg62
g1581
sg55
(lp1593
S':'
asbag48
(g69
g50
NtRp1594
(dp1595
g53
(dp1596
sg62
g1581
sg55
(lp1597
g48
(g49
g50
NtRp1598
(dp1599
g53
(dp1600
g61
I4
ssg62
g1594
sg55
(lp1601
S"set(['C:\\\\Users\\\\Atomico\\\\web2py\\\\applications\\\\Desglosar_Emails\\\\', 'C:\\\\Users\\\\Atomico\\\\web2py\\\\applications\\\\Cual_es_tu_nombre\\\\', 'C:\\\\Users\\\\Atomico\\\\web2py\\\\applications\\\\admin\\\\', 'C:\\\\Users\\\\Atomico\\\\web2py\\\\applications\\\\hemoal\\\\', 'C:\\\\Users\\\\Atomico\\\\web2py\\\\applications\\\\myAppJav\\\\', 'C:\\\\Users\\\\Atomico\\\\web2py\\\\applications\\\\welcome\\\\', 'C:\\\\Users\\\\Atomico\\\\web2py\\\\applications\\\\borrar2\\\\', 'C:\\\\Users\\\\Atomico\\\\web2py\\\\applications\\\\examples\\\\'])"
p1602
asbasbasbag48
(g64
g50
NtRp1603
(dp1604
g53
(dp1605
sg62
g1577
sg55
(lp1606
g48
(g69
g50
NtRp1607
(dp1608
g53
(dp1609
g73
g74
ssg62
g1603
sg55
(lp1610
S'applications_parent'
p1611
asbag48
(g69
g50
NtRp1612
(dp1613
g53
(dp1614
g80
g81
ssg62
g1603
sg55
(lp1615
S':'
asbag48
(g69
g50
NtRp1616
(dp1617
g53
(dp1618
sg62
g1603
sg55
(lp1619
g48
(g49
g50
NtRp1620
(dp1621
g53
(dp1622
g61
I4
ssg62
g1616
sg55
(lp1623
S'C:\\Users\\Atomico\\web2py'
p1624
asbasbasbag48
(g64
g50
NtRp1625
(dp1626
g53
(dp1627
sg62
g1577
sg55
(lp1628
g48
(g69
g50
NtRp1629
(dp1630
g53
(dp1631
g73
g74
ssg62
g1625
sg55
(lp1632
S'cmd_args'
p1633
asbag48
(g69
g50
NtRp1634
(dp1635
g53
(dp1636
g80
g81
ssg62
g1625
sg55
(lp1637
S':'
asbag48
(g69
g50
NtRp1638
(dp1639
g53
(dp1640
sg62
g1625
sg55
(lp1641
g48
(g49
g50
NtRp1642
(dp1643
g53
(dp1644
g61
I4
ssg62
g1638
sg55
(lp1645
g48
(g57
g50
NtRp1646
(dp1647
g53
(dp1648
g61
I3
ssg62
Nsg55
(lp1649
sbasbasbasbag48
(g64
g50
NtRp1650
(dp1651
g53
(dp1652
sg62
g1577
sg55
(lp1653
g48
(g69
g50
NtRp1654
(dp1655
g53
(dp1656
g73
g74
ssg62
g1650
sg55
(lp1657
S'cmd_options'
p1658
asbag48
(g69
g50
NtRp1659
(dp1660
g53
(dp1661
g80
g81
ssg62
g1650
sg55
(lp1662
S':'
asbag48
(g69
g50
NtRp1663
(dp1664
g53
(dp1665
sg62
g1650
sg55
(lp1666
g48
(g49
g50
NtRp1667
(dp1668
g53
(dp1669
g61
I4
ssg62
g1663
sg55
(lp1670
S"<Values at 0x306b620: {'verbose': False, 'ip': '127.0.0.1', 'shutdown_timeout': 5, 'taskbar': False, 'port': 8000, 'maxthreads': None, 'softcron': False, 'server_name': 'Swing', 'bpython': False, 'nogui': False, 'nocron': False, 'extcron': False, 'debuglevel': 30, 'test': None, 'folder': 'C:\\\\Users\\\\Atomico\\\\web2py', 'config': '', 'import_models': False, 'winservice': '', 'shell': None, 'run': '', 'log_filename': 'httpserver.log', 'args': [''], 'profiler_filename': None, 'ssl_private_key': '', 'password': '<ask>', 'request_queue_size': 5, 'ssl_certificate': '', 'cronjob': False, 'plain': False, 'quiet': False, 'interfaces': None, 'minthreads': None, 'timeout': 10, 'numthreads': None, 'nobanner': False, 'pid_filename': 'httpserver.pid'}>"
p1671
asbasbasbag48
(g64
g50
NtRp1672
(dp1673
g53
(dp1674
sg62
g1577
sg55
(lp1675
g48
(g69
g50
NtRp1676
(dp1677
g53
(dp1678
g73
g74
ssg62
g1672
sg55
(lp1679
S'db_sessions'
p1680
asbag48
(g69
g50
NtRp1681
(dp1682
g53
(dp1683
g80
g81
ssg62
g1672
sg55
(lp1684
S':'
asbag48
(g69
g50
NtRp1685
(dp1686
g53
(dp1687
sg62
g1672
sg55
(lp1688
g48
(g49
g50
NtRp1689
(dp1690
g53
(dp1691
g61
I4
ssg62
g1685
sg55
(lp1692
S'set([])'
p1693
asbasbasbag48
(g64
g50
NtRp1694
(dp1695
g53
(dp1696
sg62
g1577
sg55
(lp1697
g48
(g69
g50
NtRp1698
(dp1699
g53
(dp1700
g73
g74
ssg62
g1694
sg55
(lp1701
S'debugging'
p1702
asbag48
(g69
g50
NtRp1703
(dp1704
g53
(dp1705
g80
g81
ssg62
g1694
sg55
(lp1706
S':'
asbag48
(g69
g50
NtRp1707
(dp1708
g53
(dp1709
sg62
g1694
sg55
(lp1710
g48
(g49
g50
NtRp1711
(dp1712
g53
(dp1713
g61
I4
ssg62
g1707
sg55
(lp1714
g91
asbasbasbag48
(g64
g50
NtRp1715
(dp1716
g53
(dp1717
sg62
g1577
sg55
(lp1718
g48
(g69
g50
NtRp1719
(dp1720
g53
(dp1721
g73
g74
ssg62
g1715
sg55
(lp1722
S'gluon_parent'
p1723
asbag48
(g69
g50
NtRp1724
(dp1725
g53
(dp1726
g80
g81
ssg62
g1715
sg55
(lp1727
S':'
asbag48
(g69
g50
NtRp1728
(dp1729
g53
(dp1730
sg62
g1715
sg55
(lp1731
g48
(g49
g50
NtRp1732
(dp1733
g53
(dp1734
g61
I4
ssg62
g1728
sg55
(lp1735
S'C:\\Users\\Atomico\\web2py'
p1736
asbasbasbag48
(g64
g50
NtRp1737
(dp1738
g53
(dp1739
sg62
g1577
sg55
(lp1740
g48
(g69
g50
NtRp1741
(dp1742
g53
(dp1743
g73
g74
ssg62
g1737
sg55
(lp1744
S'http_accept'
p1745
asbag48
(g69
g50
NtRp1746
(dp1747
g53
(dp1748
g80
g81
ssg62
g1737
sg55
(lp1749
S':'
asbag48
(g69
g50
NtRp1750
(dp1751
g53
(dp1752
sg62
g1737
sg55
(lp1753
g48
(g49
g50
NtRp1754
(dp1755
g53
(dp1756
g61
I4
ssg62
g1750
sg55
(lp1757
S'text/html,application/xhtml+xml,application/xml;q=0.9,*/*;q=0.8'
p1758
asbasbasbag48
(g64
g50
NtRp1759
(dp1760
g53
(dp1761
sg62
g1577
sg55
(lp1762
g48
(g69
g50
NtRp1763
(dp1764
g53
(dp1765
g73
g74
ssg62
g1759
sg55
(lp1766
S'http_accept_charset'
p1767
asbag48
(g69
g50
NtRp1768
(dp1769
g53
(dp1770
g80
g81
ssg62
g1759
sg55
(lp1771
S':'
asbag48
(g69
g50
NtRp1772
(dp1773
g53
(dp1774
sg62
g1759
sg55
(lp1775
g48
(g49
g50
NtRp1776
(dp1777
g53
(dp1778
g61
I4
ssg62
g1772
sg55
(lp1779
S'ISO-8859-1,utf-8;q=0.7,*;q=0.7'
p1780
asbasbasbag48
(g64
g50
NtRp1781
(dp1782
g53
(dp1783
sg62
g1577
sg55
(lp1784
g48
(g69
g50
NtRp1785
(dp1786
g53
(dp1787
g73
g74
ssg62
g1781
sg55
(lp1788
S'http_accept_encoding'
p1789
asbag48
(g69
g50
NtRp1790
(dp1791
g53
(dp1792
g80
g81
ssg62
g1781
sg55
(lp1793
S':'
asbag48
(g69
g50
NtRp1794
(dp1795
g53
(dp1796
sg62
g1781
sg55
(lp1797
g48
(g49
g50
NtRp1798
(dp1799
g53
(dp1800
g61
I4
ssg62
g1794
sg55
(lp1801
S'gzip, deflate'
p1802
asbasbasbag48
(g64
g50
NtRp1803
(dp1804
g53
(dp1805
sg62
g1577
sg55
(lp1806
g48
(g69
g50
NtRp1807
(dp1808
g53
(dp1809
g73
g74
ssg62
g1803
sg55
(lp1810
S'http_accept_language'
p1811
asbag48
(g69
g50
NtRp1812
(dp1813
g53
(dp1814
g80
g81
ssg62
g1803
sg55
(lp1815
S':'
asbag48
(g69
g50
NtRp1816
(dp1817
g53
(dp1818
sg62
g1803
sg55
(lp1819
g48
(g49
g50
NtRp1820
(dp1821
g53
(dp1822
g61
I4
ssg62
g1816
sg55
(lp1823
S'es-es,es;q=0.8,en-us;q=0.5,en;q=0.3'
p1824
asbasbasbag48
(g64
g50
NtRp1825
(dp1826
g53
(dp1827
sg62
g1577
sg55
(lp1828
g48
(g69
g50
NtRp1829
(dp1830
g53
(dp1831
g73
g74
ssg62
g1825
sg55
(lp1832
S'http_cache_control'
p1833
asbag48
(g69
g50
NtRp1834
(dp1835
g53
(dp1836
g80
g81
ssg62
g1825
sg55
(lp1837
S':'
asbag48
(g69
g50
NtRp1838
(dp1839
g53
(dp1840
sg62
g1825
sg55
(lp1841
g48
(g49
g50
NtRp1842
(dp1843
g53
(dp1844
g61
I4
ssg62
g1838
sg55
(lp1845
S'max-age=0'
p1846
asbasbasbag48
(g64
g50
NtRp1847
(dp1848
g53
(dp1849
sg62
g1577
sg55
(lp1850
g48
(g69
g50
NtRp1851
(dp1852
g53
(dp1853
g73
g74
ssg62
g1847
sg55
(lp1854
S'http_connection'
p1855
asbag48
(g69
g50
NtRp1856
(dp1857
g53
(dp1858
g80
g81
ssg62
g1847
sg55
(lp1859
S':'
asbag48
(g69
g50
NtRp1860
(dp1861
g53
(dp1862
sg62
g1847
sg55
(lp1863
g48
(g49
g50
NtRp1864
(dp1865
g53
(dp1866
g61
I4
ssg62
g1860
sg55
(lp1867
S'keep-alive'
p1868
asbasbasbag48
(g64
g50
NtRp1869
(dp1870
g53
(dp1871
sg62
g1577
sg55
(lp1872
g48
(g69
g50
NtRp1873
(dp1874
g53
(dp1875
g73
g74
ssg62
g1869
sg55
(lp1876
S'http_cookie'
p1877
asbag48
(g69
g50
NtRp1878
(dp1879
g53
(dp1880
g80
g81
ssg62
g1869
sg55
(lp1881
S':'
asbag48
(g69
g50
NtRp1882
(dp1883
g53
(dp1884
sg62
g1869
sg55
(lp1885
g48
(g49
g50
NtRp1886
(dp1887
g53
(dp1888
g61
I4
ssg62
g1882
sg55
(lp1889
S'session_id_listado_1=127.0.0.1-477ec098-5436-4f6e-bfee-1a0bd88f6f9e; session_id_hemoal=127.0.0.1-442afb36-a73d-4692-979c-372017ada9e5; session_id_myappjav=127.0.0.1-b6da3776-a7b2-40a7-ab82-4eca2d3263a1; session_id_cual_es_tu_nombre=127.0.0.1-5e59e375-704d-4241-8b9c-5fd9f8c15773; session_id_welcome=127.0.0.1-082a2830-9bb6-4bfb-b2e2-4857b06c191e; session_id_borrar2=127.0.0.1-a9c92f68-d0b3-484c-889c-daaf25ccf891; session_id_admin=127.0.0.1-fa7dcb1d-044d-45ab-baf4-3f6c8db163e6; session_id_desglosar_emails=127.0.0.1-0a11b3b2-660c-433c-b71f-fc129286f26c'
p1890
asbasbasbag48
(g64
g50
NtRp1891
(dp1892
g53
(dp1893
sg62
g1577
sg55
(lp1894
g48
(g69
g50
NtRp1895
(dp1896
g53
(dp1897
g73
g74
ssg62
g1891
sg55
(lp1898
S'http_host'
p1899
asbag48
(g69
g50
NtRp1900
(dp1901
g53
(dp1902
g80
g81
ssg62
g1891
sg55
(lp1903
S':'
asbag48
(g69
g50
NtRp1904
(dp1905
g53
(dp1906
sg62
g1891
sg55
(lp1907
g48
(g49
g50
NtRp1908
(dp1909
g53
(dp1910
g61
I4
ssg62
g1904
sg55
(lp1911
S'127.0.0.1:8000'
p1912
asbasbasbag48
(g64
g50
NtRp1913
(dp1914
g53
(dp1915
sg62
g1577
sg55
(lp1916
g48
(g69
g50
NtRp1917
(dp1918
g53
(dp1919
g73
g74
ssg62
g1913
sg55
(lp1920
S'http_referer'
p1921
asbag48
(g69
g50
NtRp1922
(dp1923
g53
(dp1924
g80
g81
ssg62
g1913
sg55
(lp1925
S':'
asbag48
(g69
g50
NtRp1926
(dp1927
g53
(dp1928
sg62
g1913
sg55
(lp1929
g48
(g49
g50
NtRp1930
(dp1931
g53
(dp1932
g61
I4
ssg62
g1926
sg55
(lp1933
S'http://127.0.0.1:8000/admin/default/design/Desglosar_Emails'
p1934
asbasbasbag48
(g64
g50
NtRp1935
(dp1936
g53
(dp1937
sg62
g1577
sg55
(lp1938
g48
(g69
g50
NtRp1939
(dp1940
g53
(dp1941
g73
g74
ssg62
g1935
sg55
(lp1942
S'http_user_agent'
p1943
asbag48
(g69
g50
NtRp1944
(dp1945
g53
(dp1946
g80
g81
ssg62
g1935
sg55
(lp1947
S':'
asbag48
(g69
g50
NtRp1948
(dp1949
g53
(dp1950
sg62
g1935
sg55
(lp1951
g48
(g49
g50
NtRp1952
(dp1953
g53
(dp1954
g61
I4
ssg62
g1948
sg55
(lp1955
S'Mozilla/5.0 (Windows NT 6.1; WOW64; rv:6.0.2) Gecko/20100101 Firefox/6.0.2'
p1956
asbasbasbag48
(g64
g50
NtRp1957
(dp1958
g53
(dp1959
sg62
g1577
sg55
(lp1960
g48
(g69
g50
NtRp1961
(dp1962
g53
(dp1963
g73
g74
ssg62
g1957
sg55
(lp1964
S'is_jython'
p1965
asbag48
(g69
g50
NtRp1966
(dp1967
g53
(dp1968
g80
g81
ssg62
g1957
sg55
(lp1969
S':'
asbag48
(g69
g50
NtRp1970
(dp1971
g53
(dp1972
sg62
g1957
sg55
(lp1973
g48
(g49
g50
NtRp1974
(dp1975
g53
(dp1976
g61
I4
ssg62
g1970
sg55
(lp1977
g91
asbasbasbag48
(g64
g50
NtRp1978
(dp1979
g53
(dp1980
sg62
g1577
sg55
(lp1981
g48
(g69
g50
NtRp1982
(dp1983
g53
(dp1984
g73
g74
ssg62
g1978
sg55
(lp1985
S'path_info'
p1986
asbag48
(g69
g50
NtRp1987
(dp1988
g53
(dp1989
g80
g81
ssg62
g1978
sg55
(lp1990
S':'
asbag48
(g69
g50
NtRp1991
(dp1992
g53
(dp1993
sg62
g1978
sg55
(lp1994
g48
(g49
g50
NtRp1995
(dp1996
g53
(dp1997
g61
I4
ssg62
g1991
sg55
(lp1998
S'/Desglosar_Emails/default/entrada_mod3'
p1999
asbasbasbag48
(g64
g50
NtRp2000
(dp2001
g53
(dp2002
sg62
g1577
sg55
(lp2003
g48
(g69
g50
NtRp2004
(dp2005
g53
(dp2006
g73
g74
ssg62
g2000
sg55
(lp2007
S'query_string'
p2008
asbag48
(g69
g50
NtRp2009
(dp2010
g53
(dp2011
g80
g81
ssg62
g2000
sg55
(lp2012
S':'
asbag48
(g69
g50
NtRp2013
(dp2014
g53
(dp2015
sg62
g2000
sg55
(lp2016
g48
(g49
g50
NtRp2017
(dp2018
g53
(dp2019
g61
I4
ssg62
g2013
sg55
(lp2020
S''
asbasbasbag48
(g64
g50
NtRp2021
(dp2022
g53
(dp2023
sg62
g1577
sg55
(lp2024
g48
(g69
g50
NtRp2025
(dp2026
g53
(dp2027
g73
g74
ssg62
g2021
sg55
(lp2028
S'remote_addr'
p2029
asbag48
(g69
g50
NtRp2030
(dp2031
g53
(dp2032
g80
g81
ssg62
g2021
sg55
(lp2033
S':'
asbag48
(g69
g50
NtRp2034
(dp2035
g53
(dp2036
sg62
g2021
sg55
(lp2037
g48
(g49
g50
NtRp2038
(dp2039
g53
(dp2040
g61
I4
ssg62
g2034
sg55
(lp2041
g181
asbasbasbag48
(g64
g50
NtRp2042
(dp2043
g53
(dp2044
sg62
g1577
sg55
(lp2045
g48
(g69
g50
NtRp2046
(dp2047
g53
(dp2048
g73
g74
ssg62
g2042
sg55
(lp2049
S'remote_port'
p2050
asbag48
(g69
g50
NtRp2051
(dp2052
g53
(dp2053
g80
g81
ssg62
g2042
sg55
(lp2054
S':'
asbag48
(g69
g50
NtRp2055
(dp2056
g53
(dp2057
sg62
g2042
sg55
(lp2058
g48
(g49
g50
NtRp2059
(dp2060
g53
(dp2061
g61
I4
ssg62
g2055
sg55
(lp2062
S'58304'
p2063
asbasbasbag48
(g64
g50
NtRp2064
(dp2065
g53
(dp2066
sg62
g1577
sg55
(lp2067
g48
(g69
g50
NtRp2068
(dp2069
g53
(dp2070
g73
g74
ssg62
g2064
sg55
(lp2071
S'request_method'
p2072
asbag48
(g69
g50
NtRp2073
(dp2074
g53
(dp2075
g80
g81
ssg62
g2064
sg55
(lp2076
S':'
asbag48
(g69
g50
NtRp2077
(dp2078
g53
(dp2079
sg62
g2064
sg55
(lp2080
g48
(g49
g50
NtRp2081
(dp2082
g53
(dp2083
g61
I4
ssg62
g2077
sg55
(lp2084
S'GET'
p2085
asbasbasbag48
(g64
g50
NtRp2086
(dp2087
g53
(dp2088
sg62
g1577
sg55
(lp2089
g48
(g69
g50
NtRp2090
(dp2091
g53
(dp2092
g73
g74
ssg62
g2086
sg55
(lp2093
S'script_name'
p2094
asbag48
(g69
g50
NtRp2095
(dp2096
g53
(dp2097
g80
g81
ssg62
g2086
sg55
(lp2098
S':'
asbag48
(g69
g50
NtRp2099
(dp2100
g53
(dp2101
sg62
g2086
sg55
(lp2102
g48
(g49
g50
NtRp2103
(dp2104
g53
(dp2105
g61
I4
ssg62
g2099
sg55
(lp2106
S''
asbasbasbag48
(g64
g50
NtRp2107
(dp2108
g53
(dp2109
sg62
g1577
sg55
(lp2110
g48
(g69
g50
NtRp2111
(dp2112
g53
(dp2113
g73
g74
ssg62
g2107
sg55
(lp2114
S'server_name'
p2115
asbag48
(g69
g50
NtRp2116
(dp2117
g53
(dp2118
g80
g81
ssg62
g2107
sg55
(lp2119
S':'
asbag48
(g69
g50
NtRp2120
(dp2121
g53
(dp2122
sg62
g2107
sg55
(lp2123
g48
(g49
g50
NtRp2124
(dp2125
g53
(dp2126
g61
I4
ssg62
g2120
sg55
(lp2127
S'Swing'
p2128
asbasbasbag48
(g64
g50
NtRp2129
(dp2130
g53
(dp2131
sg62
g1577
sg55
(lp2132
g48
(g69
g50
NtRp2133
(dp2134
g53
(dp2135
g73
g74
ssg62
g2129
sg55
(lp2136
S'server_port'
p2137
asbag48
(g69
g50
NtRp2138
(dp2139
g53
(dp2140
g80
g81
ssg62
g2129
sg55
(lp2141
S':'
asbag48
(g69
g50
NtRp2142
(dp2143
g53
(dp2144
sg62
g2129
sg55
(lp2145
g48
(g49
g50
NtRp2146
(dp2147
g53
(dp2148
g61
I4
ssg62
g2142
sg55
(lp2149
S'8000'
p2150
asbasbasbag48
(g64
g50
NtRp2151
(dp2152
g53
(dp2153
sg62
g1577
sg55
(lp2154
g48
(g69
g50
NtRp2155
(dp2156
g53
(dp2157
g73
g74
ssg62
g2151
sg55
(lp2158
S'server_protocol'
p2159
asbag48
(g69
g50
NtRp2160
(dp2161
g53
(dp2162
g80
g81
ssg62
g2151
sg55
(lp2163
S':'
asbag48
(g69
g50
NtRp2164
(dp2165
g53
(dp2166
sg62
g2151
sg55
(lp2167
g48
(g49
g50
NtRp2168
(dp2169
g53
(dp2170
g61
I4
ssg62
g2164
sg55
(lp2171
S'HTTP/1.1'
p2172
asbasbasbag48
(g64
g50
NtRp2173
(dp2174
g53
(dp2175
sg62
g1577
sg55
(lp2176
g48
(g69
g50
NtRp2177
(dp2178
g53
(dp2179
g73
g74
ssg62
g2173
sg55
(lp2180
S'server_software'
p2181
asbag48
(g69
g50
NtRp2182
(dp2183
g53
(dp2184
g80
g81
ssg62
g2173
sg55
(lp2185
S':'
asbag48
(g69
g50
NtRp2186
(dp2187
g53
(dp2188
sg62
g2173
sg55
(lp2189
g48
(g49
g50
NtRp2190
(dp2191
g53
(dp2192
g61
I4
ssg62
g2186
sg55
(lp2193
S'Rocket 1.2.2'
p2194
asbasbasbag48
(g64
g50
NtRp2195
(dp2196
g53
(dp2197
sg62
g1577
sg55
(lp2198
g48
(g69
g50
NtRp2199
(dp2200
g53
(dp2201
g73
g74
ssg62
g2195
sg55
(lp2202
S'web2py_crontype'
p2203
asbag48
(g69
g50
NtRp2204
(dp2205
g53
(dp2206
g80
g81
ssg62
g2195
sg55
(lp2207
S':'
asbag48
(g69
g50
NtRp2208
(dp2209
g53
(dp2210
sg62
g2195
sg55
(lp2211
g48
(g49
g50
NtRp2212
(dp2213
g53
(dp2214
g61
I4
ssg62
g2208
sg55
(lp2215
S'hard'
p2216
asbasbasbag48
(g64
g50
NtRp2217
(dp2218
g53
(dp2219
sg62
g1577
sg55
(lp2220
g48
(g69
g50
NtRp2221
(dp2222
g53
(dp2223
g73
g74
ssg62
g2217
sg55
(lp2224
S'web2py_path'
p2225
asbag48
(g69
g50
NtRp2226
(dp2227
g53
(dp2228
g80
g81
ssg62
g2217
sg55
(lp2229
S':'
asbag48
(g69
g50
NtRp2230
(dp2231
g53
(dp2232
sg62
g2217
sg55
(lp2233
g48
(g49
g50
NtRp2234
(dp2235
g53
(dp2236
g61
I4
ssg62
g2230
sg55
(lp2237
g1624
asbasbasbag48
(g64
g50
NtRp2238
(dp2239
g53
(dp2240
sg62
g1577
sg55
(lp2241
g48
(g69
g50
NtRp2242
(dp2243
g53
(dp2244
g73
g74
ssg62
g2238
sg55
(lp2245
S'web2py_version'
p2246
asbag48
(g69
g50
NtRp2247
(dp2248
g53
(dp2249
g80
g81
ssg62
g2238
sg55
(lp2250
S':'
asbag48
(g69
g50
NtRp2251
(dp2252
g53
(dp2253
sg62
g2238
sg55
(lp2254
g48
(g49
g50
NtRp2255
(dp2256
g53
(dp2257
g61
I4
ssg62
g2251
sg55
(lp2258
S'Version 1.98.2 (2011-08-04 00:47:09)\n'
p2259
asbasbasbag48
(g64
g50
NtRp2260
(dp2261
g53
(dp2262
sg62
g1577
sg55
(lp2263
g48
(g69
g50
NtRp2264
(dp2265
g53
(dp2266
g73
g74
ssg62
g2260
sg55
(lp2267
S'wsgi_errors'
p2268
asbag48
(g69
g50
NtRp2269
(dp2270
g53
(dp2271
g80
g81
ssg62
g2260
sg55
(lp2272
S':'
asbag48
(g69
g50
NtRp2273
(dp2274
g53
(dp2275
sg62
g2260
sg55
(lp2276
g48
(g49
g50
NtRp2277
(dp2278
g53
(dp2279
g61
I4
ssg62
g2273
sg55
(lp2280
S"<open file '<stderr>', mode 'w' at 0x003100B0>"
p2281
asbasbasbag48
(g64
g50
NtRp2282
(dp2283
g53
(dp2284
sg62
g1577
sg55
(lp2285
g48
(g69
g50
NtRp2286
(dp2287
g53
(dp2288
g73
g74
ssg62
g2282
sg55
(lp2289
S'wsgi_file_wrapper'
p2290
asbag48
(g69
g50
NtRp2291
(dp2292
g53
(dp2293
g80
g81
ssg62
g2282
sg55
(lp2294
S':'
asbag48
(g69
g50
NtRp2295
(dp2296
g53
(dp2297
sg62
g2282
sg55
(lp2298
g48
(g49
g50
NtRp2299
(dp2300
g53
(dp2301
g61
I4
ssg62
g2295
sg55
(lp2302
S'<class gluon.rocket.FileWrapper at 0x02FFC1B0>'
p2303
asbasbasbag48
(g64
g50
NtRp2304
(dp2305
g53
(dp2306
sg62
g1577
sg55
(lp2307
g48
(g69
g50
NtRp2308
(dp2309
g53
(dp2310
g73
g74
ssg62
g2304
sg55
(lp2311
S'wsgi_input'
p2312
asbag48
(g69
g50
NtRp2313
(dp2314
g53
(dp2315
g80
g81
ssg62
g2304
sg55
(lp2316
S':'
asbag48
(g69
g50
NtRp2317
(dp2318
g53
(dp2319
sg62
g2304
sg55
(lp2320
g48
(g49
g50
NtRp2321
(dp2322
g53
(dp2323
g61
I4
ssg62
g2317
sg55
(lp2324
S'<socket._fileobject object at 0x073EFE70>'
p2325
asbasbasbag48
(g64
g50
NtRp2326
(dp2327
g53
(dp2328
sg62
g1577
sg55
(lp2329
g48
(g69
g50
NtRp2330
(dp2331
g53
(dp2332
g73
g74
ssg62
g2326
sg55
(lp2333
S'wsgi_multiprocess'
p2334
asbag48
(g69
g50
NtRp2335
(dp2336
g53
(dp2337
g80
g81
ssg62
g2326
sg55
(lp2338
S':'
asbag48
(g69
g50
NtRp2339
(dp2340
g53
(dp2341
sg62
g2326
sg55
(lp2342
g48
(g49
g50
NtRp2343
(dp2344
g53
(dp2345
g61
I4
ssg62
g2339
sg55
(lp2346
g91
asbasbasbag48
(g64
g50
NtRp2347
(dp2348
g53
(dp2349
sg62
g1577
sg55
(lp2350
g48
(g69
g50
NtRp2351
(dp2352
g53
(dp2353
g73
g74
ssg62
g2347
sg55
(lp2354
S'wsgi_multithread'
p2355
asbag48
(g69
g50
NtRp2356
(dp2357
g53
(dp2358
g80
g81
ssg62
g2347
sg55
(lp2359
S':'
asbag48
(g69
g50
NtRp2360
(dp2361
g53
(dp2362
sg62
g2347
sg55
(lp2363
g48
(g49
g50
NtRp2364
(dp2365
g53
(dp2366
g61
I4
ssg62
g2360
sg55
(lp2367
S'True'
p2368
asbasbasbag48
(g64
g50
NtRp2369
(dp2370
g53
(dp2371
sg62
g1577
sg55
(lp2372
g48
(g69
g50
NtRp2373
(dp2374
g53
(dp2375
g73
g74
ssg62
g2369
sg55
(lp2376
S'wsgi_run_once'
p2377
asbag48
(g69
g50
NtRp2378
(dp2379
g53
(dp2380
g80
g81
ssg62
g2369
sg55
(lp2381
S':'
asbag48
(g69
g50
NtRp2382
(dp2383
g53
(dp2384
sg62
g2369
sg55
(lp2385
g48
(g49
g50
NtRp2386
(dp2387
g53
(dp2388
g61
I4
ssg62
g2382
sg55
(lp2389
g91
asbasbasbag48
(g64
g50
NtRp2390
(dp2391
g53
(dp2392
sg62
g1577
sg55
(lp2393
g48
(g69
g50
NtRp2394
(dp2395
g53
(dp2396
g73
g74
ssg62
g2390
sg55
(lp2397
S'wsgi_url_scheme'
p2398
asbag48
(g69
g50
NtRp2399
(dp2400
g53
(dp2401
g80
g81
ssg62
g2390
sg55
(lp2402
S':'
asbag48
(g69
g50
NtRp2403
(dp2404
g53
(dp2405
sg62
g2390
sg55
(lp2406
g48
(g49
g50
NtRp2407
(dp2408
g53
(dp2409
g61
I4
ssg62
g2403
sg55
(lp2410
S'http'
p2411
asbasbasbag48
(g64
g50
NtRp2412
(dp2413
g53
(dp2414
sg62
g1577
sg55
(lp2415
g48
(g69
g50
NtRp2416
(dp2417
g53
(dp2418
g73
g74
ssg62
g2412
sg55
(lp2419
S'wsgi_version'
p2420
asbag48
(g69
g50
NtRp2421
(dp2422
g53
(dp2423
g80
g81
ssg62
g2412
sg55
(lp2424
S':'
asbag48
(g69
g50
NtRp2425
(dp2426
g53
(dp2427
sg62
g2412
sg55
(lp2428
g48
(g49
g50
NtRp2429
(dp2430
g53
(dp2431
g61
I4
ssg62
g2425
sg55
(lp2432
g48
(g57
g50
NtRp2433
(dp2434
g53
(dp2435
g61
I3
ssg62
Nsg55
(lp2436
g48
(g64
g50
NtRp2437
(dp2438
g53
(dp2439
sg62
g2433
sg55
(lp2440
g48
(g69
g50
NtRp2441
(dp2442
g53
(dp2443
sg62
g2437
sg55
(lp2444
g48
(g49
g50
NtRp2445
(dp2446
g53
(dp2447
g61
I3
ssg62
g2441
sg55
(lp2448
S'1'
asbasbasbag48
(g64
g50
NtRp2449
(dp2450
g53
(dp2451
sg62
g2433
sg55
(lp2452
g48
(g69
g50
NtRp2453
(dp2454
g53
(dp2455
sg62
g2449
sg55
(lp2456
g48
(g49
g50
NtRp2457
(dp2458
g53
(dp2459
g61
I3
ssg62
g2453
sg55
(lp2460
S'0'
asbasbasbasbasbasbasbasbasbasbasbag48
(g64
g50
NtRp2461
(dp2462
g53
(dp2463
sg62
g58
sg55
(lp2464
g48
(g69
g50
NtRp2465
(dp2466
g53
(dp2467
g73
g74
ssg62
g2461
sg55
(lp2468
S'extension'
p2469
asbag48
(g69
g50
NtRp2470
(dp2471
g53
(dp2472
g80
g81
ssg62
g2461
sg55
(lp2473
S':'
asbag48
(g69
g50
NtRp2474
(dp2475
g53
(dp2476
sg62
g2461
sg55
(lp2477
g48
(g49
g50
NtRp2478
(dp2479
g53
(dp2480
g61
I5
ssg62
g2474
sg55
(lp2481
S'html'
p2482
asbasbasbag48
(g64
g50
NtRp2483
(dp2484
g53
(dp2485
sg62
g58
sg55
(lp2486
g48
(g69
g50
NtRp2487
(dp2488
g53
(dp2489
g73
g74
ssg62
g2483
sg55
(lp2490
S'folder'
p2491
asbag48
(g69
g50
NtRp2492
(dp2493
g53
(dp2494
g80
g81
ssg62
g2483
sg55
(lp2495
S':'
asbag48
(g69
g50
NtRp2496
(dp2497
g53
(dp2498
sg62
g2483
sg55
(lp2499
g48
(g49
g50
NtRp2500
(dp2501
g53
(dp2502
g61
I5
ssg62
g2496
sg55
(lp2503
S'C:\\Users\\Atomico\\web2py\\applications\\Desglosar_Emails\\'
p2504
asbasbasbag48
(g64
g50
NtRp2505
(dp2506
g53
(dp2507
sg62
g58
sg55
(lp2508
g48
(g69
g50
NtRp2509
(dp2510
g53
(dp2511
g73
g74
ssg62
g2505
sg55
(lp2512
S'function'
p2513
asbag48
(g69
g50
NtRp2514
(dp2515
g53
(dp2516
g80
g81
ssg62
g2505
sg55
(lp2517
S':'
asbag48
(g69
g50
NtRp2518
(dp2519
g53
(dp2520
sg62
g2505
sg55
(lp2521
g48
(g49
g50
NtRp2522
(dp2523
g53
(dp2524
g61
I5
ssg62
g2518
sg55
(lp2525
S'entrada_mod3'
p2526
asbasbasbag48
(g64
g50
NtRp2527
(dp2528
g53
(dp2529
sg62
g58
sg55
(lp2530
g48
(g69
g50
NtRp2531
(dp2532
g53
(dp2533
g73
g74
ssg62
g2527
sg55
(lp2534
S'get_vars'
p2535
asbag48
(g69
g50
NtRp2536
(dp2537
g53
(dp2538
g80
g81
ssg62
g2527
sg55
(lp2539
S':'
asbag48
(g69
g50
NtRp2540
(dp2541
g53
(dp2542
sg62
g2527
sg55
(lp2543
g48
(g49
g50
NtRp2544
(dp2545
g53
(dp2546
g61
I5
ssg62
g2540
sg55
(lp2547
g48
(g57
g50
NtRp2548
(dp2549
g53
(dp2550
g61
I4
ssg62
Nsg55
(lp2551
sbasbasbasbag48
(g64
g50
NtRp2552
(dp2553
g53
(dp2554
sg62
g58
sg55
(lp2555
g48
(g69
g50
NtRp2556
(dp2557
g53
(dp2558
g73
g74
ssg62
g2552
sg55
(lp2559
S'is_https'
p2560
asbag48
(g69
g50
NtRp2561
(dp2562
g53
(dp2563
g80
g81
ssg62
g2552
sg55
(lp2564
S':'
asbag48
(g69
g50
NtRp2565
(dp2566
g53
(dp2567
sg62
g2552
sg55
(lp2568
g48
(g49
g50
NtRp2569
(dp2570
g53
(dp2571
g61
I5
ssg62
g2565
sg55
(lp2572
g91
asbasbasbag48
(g64
g50
NtRp2573
(dp2574
g53
(dp2575
sg62
g58
sg55
(lp2576
g48
(g69
g50
NtRp2577
(dp2578
g53
(dp2579
g73
g74
ssg62
g2573
sg55
(lp2580
S'is_local'
p2581
asbag48
(g69
g50
NtRp2582
(dp2583
g53
(dp2584
g80
g81
ssg62
g2573
sg55
(lp2585
S':'
asbag48
(g69
g50
NtRp2586
(dp2587
g53
(dp2588
sg62
g2573
sg55
(lp2589
g48
(g49
g50
NtRp2590
(dp2591
g53
(dp2592
g61
I5
ssg62
g2586
sg55
(lp2593
g2368
asbasbasbag48
(g64
g50
NtRp2594
(dp2595
g53
(dp2596
sg62
g58
sg55
(lp2597
g48
(g69
g50
NtRp2598
(dp2599
g53
(dp2600
g73
g74
ssg62
g2594
sg55
(lp2601
S'is_restful'
p2602
asbag48
(g69
g50
NtRp2603
(dp2604
g53
(dp2605
g80
g81
ssg62
g2594
sg55
(lp2606
S':'
asbag48
(g69
g50
NtRp2607
(dp2608
g53
(dp2609
sg62
g2594
sg55
(lp2610
g48
(g49
g50
NtRp2611
(dp2612
g53
(dp2613
g61
I5
ssg62
g2607
sg55
(lp2614
g91
asbasbasbag48
(g64
g50
NtRp2615
(dp2616
g53
(dp2617
sg62
g58
sg55
(lp2618
g48
(g69
g50
NtRp2619
(dp2620
g53
(dp2621
g73
g74
ssg62
g2615
sg55
(lp2622
S'now'
p2623
asbag48
(g69
g50
NtRp2624
(dp2625
g53
(dp2626
g80
g81
ssg62
g2615
sg55
(lp2627
S':'
asbag48
(g69
g50
NtRp2628
(dp2629
g53
(dp2630
sg62
g2615
sg55
(lp2631
g48
(g49
g50
NtRp2632
(dp2633
g53
(dp2634
g61
I5
ssg62
g2628
sg55
(lp2635
S'datetime.datetime(2011, 9, 20, 6, 29, 8, 385000)'
p2636
asbasbasbag48
(g64
g50
NtRp2637
(dp2638
g53
(dp2639
sg62
g58
sg55
(lp2640
g48
(g69
g50
NtRp2641
(dp2642
g53
(dp2643
g73
g74
ssg62
g2637
sg55
(lp2644
S'post_vars'
p2645
asbag48
(g69
g50
NtRp2646
(dp2647
g53
(dp2648
g80
g81
ssg62
g2637
sg55
(lp2649
S':'
asbag48
(g69
g50
NtRp2650
(dp2651
g53
(dp2652
sg62
g2637
sg55
(lp2653
g48
(g49
g50
NtRp2654
(dp2655
g53
(dp2656
g61
I5
ssg62
g2650
sg55
(lp2657
g48
(g57
g50
NtRp2658
(dp2659
g53
(dp2660
g61
I4
ssg62
Nsg55
(lp2661
sbasbasbasbag48
(g64
g50
NtRp2662
(dp2663
g53
(dp2664
sg62
g58
sg55
(lp2665
g48
(g69
g50
NtRp2666
(dp2667
g53
(dp2668
g73
g74
ssg62
g2662
sg55
(lp2669
S'url'
p2670
asbag48
(g69
g50
NtRp2671
(dp2672
g53
(dp2673
g80
g81
ssg62
g2662
sg55
(lp2674
S':'
asbag48
(g69
g50
NtRp2675
(dp2676
g53
(dp2677
sg62
g2662
sg55
(lp2678
g48
(g49
g50
NtRp2679
(dp2680
g53
(dp2681
g61
I5
ssg62
g2675
sg55
(lp2682
S'/Desglosar_Emails/default/entrada_mod3'
p2683
asbasbasbag48
(g64
g50
NtRp2684
(dp2685
g53
(dp2686
sg62
g58
sg55
(lp2687
g48
(g69
g50
NtRp2688
(dp2689
g53
(dp2690
g73
g74
ssg62
g2684
sg55
(lp2691
S'uuid'
p2692
asbag48
(g69
g50
NtRp2693
(dp2694
g53
(dp2695
g80
g81
ssg62
g2684
sg55
(lp2696
S':'
asbag48
(g69
g50
NtRp2697
(dp2698
g53
(dp2699
sg62
g2684
sg55
(lp2700
g48
(g49
g50
NtRp2701
(dp2702
g53
(dp2703
g61
I5
ssg62
g2697
sg55
(lp2704
S'Desglosar_Emails/127.0.0.1.2011-09-20.06-29-08.53aaf22a-9afc-462d-85b7-dd442ddccf8d'
p2705
asbasbasbag48
(g64
g50
NtRp2706
(dp2707
g53
(dp2708
sg62
g58
sg55
(lp2709
g48
(g69
g50
NtRp2710
(dp2711
g53
(dp2712
g73
g74
ssg62
g2706
sg55
(lp2713
S'vars'
p2714
asbag48
(g69
g50
NtRp2715
(dp2716
g53
(dp2717
g80
g81
ssg62
g2706
sg55
(lp2718
S':'
asbag48
(g69
g50
NtRp2719
(dp2720
g53
(dp2721
sg62
g2706
sg55
(lp2722
g48
(g49
g50
NtRp2723
(dp2724
g53
(dp2725
g61
I5
ssg62
g2719
sg55
(lp2726
g48
(g57
g50
NtRp2727
(dp2728
g53
(dp2729
g61
I4
ssg62
Nsg55
(lp2730
sbasbasbasbag48
(g64
g50
NtRp2731
(dp2732
g53
(dp2733
sg62
g58
sg55
(lp2734
g48
(g69
g50
NtRp2735
(dp2736
g53
(dp2737
g73
g74
ssg62
g2731
sg55
(lp2738
S'wsgi'
p2739
asbag48
(g69
g50
NtRp2740
(dp2741
g53
(dp2742
g80
g81
ssg62
g2731
sg55
(lp2743
S':'
asbag48
(g69
g50
NtRp2744
(dp2745
g53
(dp2746
sg62
g2731
sg55
(lp2747
g48
(g49
g50
NtRp2748
(dp2749
g53
(dp2750
g61
I5
ssg62
g2744
sg55
(lp2751
g48
(g57
g50
NtRp2752
(dp2753
g53
(dp2754
g61
I4
ssg62
Nsg55
(lp2755
g48
(g64
g50
NtRp2756
(dp2757
g53
(dp2758
sg62
g2752
sg55
(lp2759
g48
(g69
g50
NtRp2760
(dp2761
g53
(dp2762
g73
g74
ssg62
g2756
sg55
(lp2763
S'environ'
p2764
asbag48
(g69
g50
NtRp2765
(dp2766
g53
(dp2767
g80
g81
ssg62
g2756
sg55
(lp2768
S':'
asbag48
(g69
g50
NtRp2769
(dp2770
g53
(dp2771
sg62
g2756
sg55
(lp2772
g48
(g49
g50
NtRp2773
(dp2774
g53
(dp2775
g61
I4
ssg62
g2769
sg55
(lp2776
g48
(g57
g50
NtRp2777
(dp2778
g53
(dp2779
g61
I3
ssg62
Nsg55
(lp2780
g48
(g64
g50
NtRp2781
(dp2782
g53
(dp2783
sg62
g2777
sg55
(lp2784
g48
(g69
g50
NtRp2785
(dp2786
g53
(dp2787
g73
g74
ssg62
g2781
sg55
(lp2788
S'HTTP_ACCEPT'
p2789
asbag48
(g69
g50
NtRp2790
(dp2791
g53
(dp2792
g80
g81
ssg62
g2781
sg55
(lp2793
S':'
asbag48
(g69
g50
NtRp2794
(dp2795
g53
(dp2796
sg62
g2781
sg55
(lp2797
g48
(g49
g50
NtRp2798
(dp2799
g53
(dp2800
g61
I3
ssg62
g2794
sg55
(lp2801
g1758
asbasbasbag48
(g64
g50
NtRp2802
(dp2803
g53
(dp2804
sg62
g2777
sg55
(lp2805
g48
(g69
g50
NtRp2806
(dp2807
g53
(dp2808
g73
g74
ssg62
g2802
sg55
(lp2809
S'HTTP_ACCEPT_CHARSET'
p2810
asbag48
(g69
g50
NtRp2811
(dp2812
g53
(dp2813
g80
g81
ssg62
g2802
sg55
(lp2814
S':'
asbag48
(g69
g50
NtRp2815
(dp2816
g53
(dp2817
sg62
g2802
sg55
(lp2818
g48
(g49
g50
NtRp2819
(dp2820
g53
(dp2821
g61
I3
ssg62
g2815
sg55
(lp2822
g1780
asbasbasbag48
(g64
g50
NtRp2823
(dp2824
g53
(dp2825
sg62
g2777
sg55
(lp2826
g48
(g69
g50
NtRp2827
(dp2828
g53
(dp2829
g73
g74
ssg62
g2823
sg55
(lp2830
S'HTTP_ACCEPT_ENCODING'
p2831
asbag48
(g69
g50
NtRp2832
(dp2833
g53
(dp2834
g80
g81
ssg62
g2823
sg55
(lp2835
S':'
asbag48
(g69
g50
NtRp2836
(dp2837
g53
(dp2838
sg62
g2823
sg55
(lp2839
g48
(g49
g50
NtRp2840
(dp2841
g53
(dp2842
g61
I3
ssg62
g2836
sg55
(lp2843
g1802
asbasbasbag48
(g64
g50
NtRp2844
(dp2845
g53
(dp2846
sg62
g2777
sg55
(lp2847
g48
(g69
g50
NtRp2848
(dp2849
g53
(dp2850
g73
g74
ssg62
g2844
sg55
(lp2851
S'HTTP_ACCEPT_LANGUAGE'
p2852
asbag48
(g69
g50
NtRp2853
(dp2854
g53
(dp2855
g80
g81
ssg62
g2844
sg55
(lp2856
S':'
asbag48
(g69
g50
NtRp2857
(dp2858
g53
(dp2859
sg62
g2844
sg55
(lp2860
g48
(g49
g50
NtRp2861
(dp2862
g53
(dp2863
g61
I3
ssg62
g2857
sg55
(lp2864
g1824
asbasbasbag48
(g64
g50
NtRp2865
(dp2866
g53
(dp2867
sg62
g2777
sg55
(lp2868
g48
(g69
g50
NtRp2869
(dp2870
g53
(dp2871
g73
g74
ssg62
g2865
sg55
(lp2872
S'HTTP_CACHE_CONTROL'
p2873
asbag48
(g69
g50
NtRp2874
(dp2875
g53
(dp2876
g80
g81
ssg62
g2865
sg55
(lp2877
S':'
asbag48
(g69
g50
NtRp2878
(dp2879
g53
(dp2880
sg62
g2865
sg55
(lp2881
g48
(g49
g50
NtRp2882
(dp2883
g53
(dp2884
g61
I3
ssg62
g2878
sg55
(lp2885
g1846
asbasbasbag48
(g64
g50
NtRp2886
(dp2887
g53
(dp2888
sg62
g2777
sg55
(lp2889
g48
(g69
g50
NtRp2890
(dp2891
g53
(dp2892
g73
g74
ssg62
g2886
sg55
(lp2893
S'HTTP_CONNECTION'
p2894
asbag48
(g69
g50
NtRp2895
(dp2896
g53
(dp2897
g80
g81
ssg62
g2886
sg55
(lp2898
S':'
asbag48
(g69
g50
NtRp2899
(dp2900
g53
(dp2901
sg62
g2886
sg55
(lp2902
g48
(g49
g50
NtRp2903
(dp2904
g53
(dp2905
g61
I3
ssg62
g2899
sg55
(lp2906
g1868
asbasbasbag48
(g64
g50
NtRp2907
(dp2908
g53
(dp2909
sg62
g2777
sg55
(lp2910
g48
(g69
g50
NtRp2911
(dp2912
g53
(dp2913
g73
g74
ssg62
g2907
sg55
(lp2914
S'HTTP_COOKIE'
p2915
asbag48
(g69
g50
NtRp2916
(dp2917
g53
(dp2918
g80
g81
ssg62
g2907
sg55
(lp2919
S':'
asbag48
(g69
g50
NtRp2920
(dp2921
g53
(dp2922
sg62
g2907
sg55
(lp2923
g48
(g49
g50
NtRp2924
(dp2925
g53
(dp2926
g61
I3
ssg62
g2920
sg55
(lp2927
g1890
asbasbasbag48
(g64
g50
NtRp2928
(dp2929
g53
(dp2930
sg62
g2777
sg55
(lp2931
g48
(g69
g50
NtRp2932
(dp2933
g53
(dp2934
g73
g74
ssg62
g2928
sg55
(lp2935
S'HTTP_HOST'
p2936
asbag48
(g69
g50
NtRp2937
(dp2938
g53
(dp2939
g80
g81
ssg62
g2928
sg55
(lp2940
S':'
asbag48
(g69
g50
NtRp2941
(dp2942
g53
(dp2943
sg62
g2928
sg55
(lp2944
g48
(g49
g50
NtRp2945
(dp2946
g53
(dp2947
g61
I3
ssg62
g2941
sg55
(lp2948
g1912
asbasbasbag48
(g64
g50
NtRp2949
(dp2950
g53
(dp2951
sg62
g2777
sg55
(lp2952
g48
(g69
g50
NtRp2953
(dp2954
g53
(dp2955
g73
g74
ssg62
g2949
sg55
(lp2956
S'HTTP_REFERER'
p2957
asbag48
(g69
g50
NtRp2958
(dp2959
g53
(dp2960
g80
g81
ssg62
g2949
sg55
(lp2961
S':'
asbag48
(g69
g50
NtRp2962
(dp2963
g53
(dp2964
sg62
g2949
sg55
(lp2965
g48
(g49
g50
NtRp2966
(dp2967
g53
(dp2968
g61
I3
ssg62
g2962
sg55
(lp2969
g1934
asbasbasbag48
(g64
g50
NtRp2970
(dp2971
g53
(dp2972
sg62
g2777
sg55
(lp2973
g48
(g69
g50
NtRp2974
(dp2975
g53
(dp2976
g73
g74
ssg62
g2970
sg55
(lp2977
S'HTTP_USER_AGENT'
p2978
asbag48
(g69
g50
NtRp2979
(dp2980
g53
(dp2981
g80
g81
ssg62
g2970
sg55
(lp2982
S':'
asbag48
(g69
g50
NtRp2983
(dp2984
g53
(dp2985
sg62
g2970
sg55
(lp2986
g48
(g49
g50
NtRp2987
(dp2988
g53
(dp2989
g61
I3
ssg62
g2983
sg55
(lp2990
g1956
asbasbasbag48
(g64
g50
NtRp2991
(dp2992
g53
(dp2993
sg62
g2777
sg55
(lp2994
g48
(g69
g50
NtRp2995
(dp2996
g53
(dp2997
g73
g74
ssg62
g2991
sg55
(lp2998
S'PATH_INFO'
p2999
asbag48
(g69
g50
NtRp3000
(dp3001
g53
(dp3002
g80
g81
ssg62
g2991
sg55
(lp3003
S':'
asbag48
(g69
g50
NtRp3004
(dp3005
g53
(dp3006
sg62
g2991
sg55
(lp3007
g48
(g49
g50
NtRp3008
(dp3009
g53
(dp3010
g61
I3
ssg62
g3004
sg55
(lp3011
g1999
asbasbasbag48
(g64
g50
NtRp3012
(dp3013
g53
(dp3014
sg62
g2777
sg55
(lp3015
g48
(g69
g50
NtRp3016
(dp3017
g53
(dp3018
g73
g74
ssg62
g3012
sg55
(lp3019
S'QUERY_STRING'
p3020
asbag48
(g69
g50
NtRp3021
(dp3022
g53
(dp3023
g80
g81
ssg62
g3012
sg55
(lp3024
S':'
asbag48
(g69
g50
NtRp3025
(dp3026
g53
(dp3027
sg62
g3012
sg55
(lp3028
g48
(g49
g50
NtRp3029
(dp3030
g53
(dp3031
g61
I3
ssg62
g3025
sg55
(lp3032
S''
asbasbasbag48
(g64
g50
NtRp3033
(dp3034
g53
(dp3035
sg62
g2777
sg55
(lp3036
g48
(g69
g50
NtRp3037
(dp3038
g53
(dp3039
g73
g74
ssg62
g3033
sg55
(lp3040
S'REMOTE_ADDR'
p3041
asbag48
(g69
g50
NtRp3042
(dp3043
g53
(dp3044
g80
g81
ssg62
g3033
sg55
(lp3045
S':'
asbag48
(g69
g50
NtRp3046
(dp3047
g53
(dp3048
sg62
g3033
sg55
(lp3049
g48
(g49
g50
NtRp3050
(dp3051
g53
(dp3052
g61
I3
ssg62
g3046
sg55
(lp3053
g181
asbasbasbag48
(g64
g50
NtRp3054
(dp3055
g53
(dp3056
sg62
g2777
sg55
(lp3057
g48
(g69
g50
NtRp3058
(dp3059
g53
(dp3060
g73
g74
ssg62
g3054
sg55
(lp3061
S'REMOTE_PORT'
p3062
asbag48
(g69
g50
NtRp3063
(dp3064
g53
(dp3065
g80
g81
ssg62
g3054
sg55
(lp3066
S':'
asbag48
(g69
g50
NtRp3067
(dp3068
g53
(dp3069
sg62
g3054
sg55
(lp3070
g48
(g49
g50
NtRp3071
(dp3072
g53
(dp3073
g61
I3
ssg62
g3067
sg55
(lp3074
g2063
asbasbasbag48
(g64
g50
NtRp3075
(dp3076
g53
(dp3077
sg62
g2777
sg55
(lp3078
g48
(g69
g50
NtRp3079
(dp3080
g53
(dp3081
g73
g74
ssg62
g3075
sg55
(lp3082
S'REQUEST_METHOD'
p3083
asbag48
(g69
g50
NtRp3084
(dp3085
g53
(dp3086
g80
g81
ssg62
g3075
sg55
(lp3087
S':'
asbag48
(g69
g50
NtRp3088
(dp3089
g53
(dp3090
sg62
g3075
sg55
(lp3091
g48
(g49
g50
NtRp3092
(dp3093
g53
(dp3094
g61
I3
ssg62
g3088
sg55
(lp3095
g2085
asbasbasbag48
(g64
g50
NtRp3096
(dp3097
g53
(dp3098
sg62
g2777
sg55
(lp3099
g48
(g69
g50
NtRp3100
(dp3101
g53
(dp3102
g73
g74
ssg62
g3096
sg55
(lp3103
S'SCRIPT_NAME'
p3104
asbag48
(g69
g50
NtRp3105
(dp3106
g53
(dp3107
g80
g81
ssg62
g3096
sg55
(lp3108
S':'
asbag48
(g69
g50
NtRp3109
(dp3110
g53
(dp3111
sg62
g3096
sg55
(lp3112
g48
(g49
g50
NtRp3113
(dp3114
g53
(dp3115
g61
I3
ssg62
g3109
sg55
(lp3116
S''
asbasbasbag48
(g64
g50
NtRp3117
(dp3118
g53
(dp3119
sg62
g2777
sg55
(lp3120
g48
(g69
g50
NtRp3121
(dp3122
g53
(dp3123
g73
g74
ssg62
g3117
sg55
(lp3124
S'SERVER_NAME'
p3125
asbag48
(g69
g50
NtRp3126
(dp3127
g53
(dp3128
g80
g81
ssg62
g3117
sg55
(lp3129
S':'
asbag48
(g69
g50
NtRp3130
(dp3131
g53
(dp3132
sg62
g3117
sg55
(lp3133
g48
(g49
g50
NtRp3134
(dp3135
g53
(dp3136
g61
I3
ssg62
g3130
sg55
(lp3137
g2128
asbasbasbag48
(g64
g50
NtRp3138
(dp3139
g53
(dp3140
sg62
g2777
sg55
(lp3141
g48
(g69
g50
NtRp3142
(dp3143
g53
(dp3144
g73
g74
ssg62
g3138
sg55
(lp3145
S'SERVER_PORT'
p3146
asbag48
(g69
g50
NtRp3147
(dp3148
g53
(dp3149
g80
g81
ssg62
g3138
sg55
(lp3150
S':'
asbag48
(g69
g50
NtRp3151
(dp3152
g53
(dp3153
sg62
g3138
sg55
(lp3154
g48
(g49
g50
NtRp3155
(dp3156
g53
(dp3157
g61
I3
ssg62
g3151
sg55
(lp3158
g2150
asbasbasbag48
(g64
g50
NtRp3159
(dp3160
g53
(dp3161
sg62
g2777
sg55
(lp3162
g48
(g69
g50
NtRp3163
(dp3164
g53
(dp3165
g73
g74
ssg62
g3159
sg55
(lp3166
S'SERVER_PROTOCOL'
p3167
asbag48
(g69
g50
NtRp3168
(dp3169
g53
(dp3170
g80
g81
ssg62
g3159
sg55
(lp3171
S':'
asbag48
(g69
g50
NtRp3172
(dp3173
g53
(dp3174
sg62
g3159
sg55
(lp3175
g48
(g49
g50
NtRp3176
(dp3177
g53
(dp3178
g61
I3
ssg62
g3172
sg55
(lp3179
g2172
asbasbasbag48
(g64
g50
NtRp3180
(dp3181
g53
(dp3182
sg62
g2777
sg55
(lp3183
g48
(g69
g50
NtRp3184
(dp3185
g53
(dp3186
g73
g74
ssg62
g3180
sg55
(lp3187
S'SERVER_SOFTWARE'
p3188
asbag48
(g69
g50
NtRp3189
(dp3190
g53
(dp3191
g80
g81
ssg62
g3180
sg55
(lp3192
S':'
asbag48
(g69
g50
NtRp3193
(dp3194
g53
(dp3195
sg62
g3180
sg55
(lp3196
g48
(g49
g50
NtRp3197
(dp3198
g53
(dp3199
g61
I3
ssg62
g3193
sg55
(lp3200
g2194
asbasbasbag48
(g64
g50
NtRp3201
(dp3202
g53
(dp3203
sg62
g2777
sg55
(lp3204
g48
(g69
g50
NtRp3205
(dp3206
g53
(dp3207
g73
g74
ssg62
g3201
sg55
(lp3208
S'wsgi.errors'
p3209
asbag48
(g69
g50
NtRp3210
(dp3211
g53
(dp3212
g80
g81
ssg62
g3201
sg55
(lp3213
S':'
asbag48
(g69
g50
NtRp3214
(dp3215
g53
(dp3216
sg62
g3201
sg55
(lp3217
g48
(g49
g50
NtRp3218
(dp3219
g53
(dp3220
g61
I3
ssg62
g3214
sg55
(lp3221
S"<open file '<stderr>', mode 'w' at 0x003100B0>"
p3222
asbasbasbag48
(g64
g50
NtRp3223
(dp3224
g53
(dp3225
sg62
g2777
sg55
(lp3226
g48
(g69
g50
NtRp3227
(dp3228
g53
(dp3229
g73
g74
ssg62
g3223
sg55
(lp3230
S'wsgi.file_wrapper'
p3231
asbag48
(g69
g50
NtRp3232
(dp3233
g53
(dp3234
g80
g81
ssg62
g3223
sg55
(lp3235
S':'
asbag48
(g69
g50
NtRp3236
(dp3237
g53
(dp3238
sg62
g3223
sg55
(lp3239
g48
(g49
g50
NtRp3240
(dp3241
g53
(dp3242
g61
I3
ssg62
g3236
sg55
(lp3243
S'<class gluon.rocket.FileWrapper at 0x02FFC1B0>'
p3244
asbasbasbag48
(g64
g50
NtRp3245
(dp3246
g53
(dp3247
sg62
g2777
sg55
(lp3248
g48
(g69
g50
NtRp3249
(dp3250
g53
(dp3251
g73
g74
ssg62
g3245
sg55
(lp3252
S'wsgi.input'
p3253
asbag48
(g69
g50
NtRp3254
(dp3255
g53
(dp3256
g80
g81
ssg62
g3245
sg55
(lp3257
S':'
asbag48
(g69
g50
NtRp3258
(dp3259
g53
(dp3260
sg62
g3245
sg55
(lp3261
g48
(g49
g50
NtRp3262
(dp3263
g53
(dp3264
g61
I3
ssg62
g3258
sg55
(lp3265
S'<cStringIO.StringO object at 0x087E5780>'
p3266
asbasbasbag48
(g64
g50
NtRp3267
(dp3268
g53
(dp3269
sg62
g2777
sg55
(lp3270
g48
(g69
g50
NtRp3271
(dp3272
g53
(dp3273
g73
g74
ssg62
g3267
sg55
(lp3274
S'wsgi.multiprocess'
p3275
asbag48
(g69
g50
NtRp3276
(dp3277
g53
(dp3278
g80
g81
ssg62
g3267
sg55
(lp3279
S':'
asbag48
(g69
g50
NtRp3280
(dp3281
g53
(dp3282
sg62
g3267
sg55
(lp3283
g48
(g49
g50
NtRp3284
(dp3285
g53
(dp3286
g61
I3
ssg62
g3280
sg55
(lp3287
g91
asbasbasbag48
(g64
g50
NtRp3288
(dp3289
g53
(dp3290
sg62
g2777
sg55
(lp3291
g48
(g69
g50
NtRp3292
(dp3293
g53
(dp3294
g73
g74
ssg62
g3288
sg55
(lp3295
S'wsgi.multithread'
p3296
asbag48
(g69
g50
NtRp3297
(dp3298
g53
(dp3299
g80
g81
ssg62
g3288
sg55
(lp3300
S':'
asbag48
(g69
g50
NtRp3301
(dp3302
g53
(dp3303
sg62
g3288
sg55
(lp3304
g48
(g49
g50
NtRp3305
(dp3306
g53
(dp3307
g61
I3
ssg62
g3301
sg55
(lp3308
g2368
asbasbasbag48
(g64
g50
NtRp3309
(dp3310
g53
(dp3311
sg62
g2777
sg55
(lp3312
g48
(g69
g50
NtRp3313
(dp3314
g53
(dp3315
g73
g74
ssg62
g3309
sg55
(lp3316
S'wsgi.run_once'
p3317
asbag48
(g69
g50
NtRp3318
(dp3319
g53
(dp3320
g80
g81
ssg62
g3309
sg55
(lp3321
S':'
asbag48
(g69
g50
NtRp3322
(dp3323
g53
(dp3324
sg62
g3309
sg55
(lp3325
g48
(g49
g50
NtRp3326
(dp3327
g53
(dp3328
g61
I3
ssg62
g3322
sg55
(lp3329
g91
asbasbasbag48
(g64
g50
NtRp3330
(dp3331
g53
(dp3332
sg62
g2777
sg55
(lp3333
g48
(g69
g50
NtRp3334
(dp3335
g53
(dp3336
g73
g74
ssg62
g3330
sg55
(lp3337
S'wsgi.url_scheme'
p3338
asbag48
(g69
g50
NtRp3339
(dp3340
g53
(dp3341
g80
g81
ssg62
g3330
sg55
(lp3342
S':'
asbag48
(g69
g50
NtRp3343
(dp3344
g53
(dp3345
sg62
g3330
sg55
(lp3346
g48
(g49
g50
NtRp3347
(dp3348
g53
(dp3349
g61
I3
ssg62
g3343
sg55
(lp3350
g2411
asbasbasbag48
(g64
g50
NtRp3351
(dp3352
g53
(dp3353
sg62
g2777
sg55
(lp3354
g48
(g69
g50
NtRp3355
(dp3356
g53
(dp3357
g73
g74
ssg62
g3351
sg55
(lp3358
S'wsgi.version'
p3359
asbag48
(g69
g50
NtRp3360
(dp3361
g53
(dp3362
g80
g81
ssg62
g3351
sg55
(lp3363
S':'
asbag48
(g69
g50
NtRp3364
(dp3365
g53
(dp3366
sg62
g3351
sg55
(lp3367
g48
(g49
g50
NtRp3368
(dp3369
g53
(dp3370
g61
I3
ssg62
g3364
sg55
(lp3371
S'1'
asbasbasbasbasbasbasbasbasbasbasbasbasbsS'frames'
p3372
(lp3373
(dp3374
S'file'
p3375
S'C:\\Users\\Atomico\\web2py\\gluon\\restricted.py'
p3376
sS'dump'
p3377
(dp3378
sS'lnum'
p3379
I192
sS'lines'
p3380
(dp3381
sS'call'
p3382
S'(code=\'response.write(\\\'<!DOCTYPE html>\\\\n<html lang="\\\', ...t   -->    \\\\n  </body>\\\\n</html>\\\\n\\\', escape=False)\', environment={\'A\': <class \'gluon.html.A\'>, \'B\': <class \'gluon.html.B\'>, \'BEAUTIFY\': <class \'gluon.html.BEAUTIFY\'>, \'BODY\': <class \'gluon.html.BODY\'>, \'BR\': <class \'gluon.html.BR\'>, \'BUTTON\': <class \'gluon.html.BUTTON\'>, \'CAT\': <class \'gluon.html.CAT\'>, \'CENTER\': <class \'gluon.html.CENTER\'>, \'CLEANUP\': <class \'gluon.validators.CLEANUP\'>, \'CODE\': <class \'gluon.html.CODE\'>, ...}, layer=r\'C:\\Users\\Atomico\\web2py\\applications\\Desglosar_Emails\\views\\default/entrada_mod3.html\')'
p3383
sS'func'
p3384
S'restricted'
p3385
sa(dp3386
g3375
S'C:\\Users\\Atomico\\web2py\\applications\\Desglosar_Emails\\views\\default\\entrada_mod3.html'
p3387
sg3377
(dp3388
sg3379
I121
sg3380
(dp3389
I128
S'    pass'
p3390
sI129
S'con=con+1'
p3391
sI130
S'pass'
p3392
sI131
S"response.write(' \\r\\n es la posf\\r\\n', escape=False)"
p3393
sI112
S'response.write(len(res))'
p3394
sI113
S"for i in res: response.write(i+'<br>',escape=False)"
p3395
sI114
S'res2=patternemail.findall(txt)'
p3396
sI115
S'response.write(len(res2))'
p3397
sI116
S'for i in res2: response.write(i)'
p3398
sI117
S'i=0'
p3399
sI118
S'con=0'
p3400
sI119
S'while i<len(res):'
p3401
sI120
S'    if patternemail.search(res[i])!=False:'
p3402
sI121
S'        contactos[con].nombre=res[i]'
p3403
sI122
S'        contactos[con].email=res[i+1]'
p3404
sI123
S'        i=i+2'
p3405
sI124
S'    elif patternemail.search(res[i]):'
p3406
sI125
S'        contactos[con].email=res[i]'
p3407
sI126
S'        i=i+1'
p3408
sI127
S"    else: response.write('Aqu\xc3\xad hay un problema')"
p3409
ssg3382
S'()'
p3410
sg3384
S'<module>'
p3411
sasS'pyver'
p3412
S'Python 2.5.4: C:\\Users\\Atomico\\web2py\\web2py.exe'
p3413
sS'session'
p3414
g48
(g49
g50
NtRp3415
(dp3416
g53
(dp3417
sg55
(lp3418
g48
(g57
g50
NtRp3419
(dp3420
g53
(dp3421
g61
I5
ssg62
Nsg55
(lp3422
g48
(g64
g50
NtRp3423
(dp3424
g53
(dp3425
sg62
g3419
sg55
(lp3426
g48
(g69
g50
NtRp3427
(dp3428
g53
(dp3429
g73
g74
ssg62
g3423
sg55
(lp3430
S'last_query'
p3431
asbag48
(g69
g50
NtRp3432
(dp3433
g53
(dp3434
g80
g81
ssg62
g3423
sg55
(lp3435
S':'
asbag48
(g69
g50
NtRp3436
(dp3437
g53
(dp3438
sg62
g3423
sg55
(lp3439
g48
(g49
g50
NtRp3440
(dp3441
g53
(dp3442
g61
I5
ssg62
g3436
sg55
(lp3443
S'db.info4.id>0'
p3444
asbasbasbasbasbsS'etype'
p3445
S"<type 'exceptions.NameError'>"
p3446
sS'date'
p3447
S'Tue Sep 20 06:29:08 2011'
p3448
sS'response'
p3449
g48
(g49
g50
NtRp3450
(dp3451
g53
(dp3452
sg55
(lp3453
g48
(g57
g50
NtRp3454
(dp3455
g53
(dp3456
g61
I5
ssg62
Nsg55
(lp3457
g48
(g64
g50
NtRp3458
(dp3459
g53
(dp3460
sg62
g3454
sg55
(lp3461
g48
(g69
g50
NtRp3462
(dp3463
g53
(dp3464
g73
g74
ssg62
g3458
sg55
(lp3465
g146
asbag48
(g69
g50
NtRp3466
(dp3467
g53
(dp3468
g80
g81
ssg62
g3458
sg55
(lp3469
S':'
asbag48
(g69
g50
NtRp3470
(dp3471
g53
(dp3472
sg62
g3458
sg55
(lp3473
g48
(g49
g50
NtRp3474
(dp3475
g53
(dp3476
g61
I5
ssg62
g3470
sg55
(lp3477
S'<cStringIO.StringO object at 0x0899F820>'
p3478
asbasbasbag48
(g64
g50
NtRp3479
(dp3480
g53
(dp3481
sg62
g3454
sg55
(lp3482
g48
(g69
g50
NtRp3483
(dp3484
g53
(dp3485
g73
g74
ssg62
g3479
sg55
(lp3486
g212
asbag48
(g69
g50
NtRp3487
(dp3488
g53
(dp3489
g80
g81
ssg62
g3479
sg55
(lp3490
S':'
asbag48
(g69
g50
NtRp3491
(dp3492
g53
(dp3493
sg62
g3479
sg55
(lp3494
g48
(g49
g50
NtRp3495
(dp3496
g53
(dp3497
g61
I5
ssg62
g3491
sg55
(lp3498
g48
(g57
g50
NtRp3499
(dp3500
g53
(dp3501
g61
I4
ssg62
Nsg55
(lp3502
g48
(g64
g50
NtRp3503
(dp3504
g53
(dp3505
sg62
g3499
sg55
(lp3506
g48
(g69
g50
NtRp3507
(dp3508
g53
(dp3509
g73
g74
ssg62
g3503
sg55
(lp3510
S'session_id_desglosar_emails'
p3511
asbag48
(g69
g50
NtRp3512
(dp3513
g53
(dp3514
g80
g81
ssg62
g3503
sg55
(lp3515
S':'
asbag48
(g69
g50
NtRp3516
(dp3517
g53
(dp3518
sg62
g3503
sg55
(lp3519
g48
(g49
g50
NtRp3520
(dp3521
g53
(dp3522
g61
I4
ssg62
g3516
sg55
(lp3523
g48
(g57
g50
NtRp3524
(dp3525
g53
(dp3526
g61
I3
ssg62
Nsg55
(lp3527
g48
(g64
g50
NtRp3528
(dp3529
g53
(dp3530
sg62
g3524
sg55
(lp3531
g48
(g69
g50
NtRp3532
(dp3533
g53
(dp3534
g73
g74
ssg62
g3528
sg55
(lp3535
g262
asbag48
(g69
g50
NtRp3536
(dp3537
g53
(dp3538
g80
g81
ssg62
g3528
sg55
(lp3539
S':'
asbag48
(g69
g50
NtRp3540
(dp3541
g53
(dp3542
sg62
g3528
sg55
(lp3543
g48
(g49
g50
NtRp3544
(dp3545
g53
(dp3546
g61
I3
ssg62
g3540
sg55
(lp3547
S''
asbasbasbag48
(g64
g50
NtRp3548
(dp3549
g53
(dp3550
sg62
g3524
sg55
(lp3551
g48
(g69
g50
NtRp3552
(dp3553
g53
(dp3554
g73
g74
ssg62
g3548
sg55
(lp3555
g283
asbag48
(g69
g50
NtRp3556
(dp3557
g53
(dp3558
g80
g81
ssg62
g3548
sg55
(lp3559
S':'
asbag48
(g69
g50
NtRp3560
(dp3561
g53
(dp3562
sg62
g3548
sg55
(lp3563
g48
(g49
g50
NtRp3564
(dp3565
g53
(dp3566
g61
I3
ssg62
g3560
sg55
(lp3567
S''
asbasbasbag48
(g64
g50
NtRp3568
(dp3569
g53
(dp3570
sg62
g3524
sg55
(lp3571
g48
(g69
g50
NtRp3572
(dp3573
g53
(dp3574
g73
g74
ssg62
g3568
sg55
(lp3575
g304
asbag48
(g69
g50
NtRp3576
(dp3577
g53
(dp3578
g80
g81
ssg62
g3568
sg55
(lp3579
S':'
asbag48
(g69
g50
NtRp3580
(dp3581
g53
(dp3582
sg62
g3568
sg55
(lp3583
g48
(g49
g50
NtRp3584
(dp3585
g53
(dp3586
g61
I3
ssg62
g3580
sg55
(lp3587
S''
asbasbasbag48
(g64
g50
NtRp3588
(dp3589
g53
(dp3590
sg62
g3524
sg55
(lp3591
g48
(g69
g50
NtRp3592
(dp3593
g53
(dp3594
g73
g74
ssg62
g3588
sg55
(lp3595
g325
asbag48
(g69
g50
NtRp3596
(dp3597
g53
(dp3598
g80
g81
ssg62
g3588
sg55
(lp3599
S':'
asbag48
(g69
g50
NtRp3600
(dp3601
g53
(dp3602
sg62
g3588
sg55
(lp3603
g48
(g49
g50
NtRp3604
(dp3605
g53
(dp3606
g61
I3
ssg62
g3600
sg55
(lp3607
S''
asbasbasbag48
(g64
g50
NtRp3608
(dp3609
g53
(dp3610
sg62
g3524
sg55
(lp3611
g48
(g69
g50
NtRp3612
(dp3613
g53
(dp3614
g73
g74
ssg62
g3608
sg55
(lp3615
g346
asbag48
(g69
g50
NtRp3616
(dp3617
g53
(dp3618
g80
g81
ssg62
g3608
sg55
(lp3619
S':'
asbag48
(g69
g50
NtRp3620
(dp3621
g53
(dp3622
sg62
g3608
sg55
(lp3623
g48
(g49
g50
NtRp3624
(dp3625
g53
(dp3626
g61
I3
ssg62
g3620
sg55
(lp3627
S'/'
asbasbasbag48
(g64
g50
NtRp3628
(dp3629
g53
(dp3630
sg62
g3524
sg55
(lp3631
g48
(g69
g50
NtRp3632
(dp3633
g53
(dp3634
g73
g74
ssg62
g3628
sg55
(lp3635
g367
asbag48
(g69
g50
NtRp3636
(dp3637
g53
(dp3638
g80
g81
ssg62
g3628
sg55
(lp3639
S':'
asbag48
(g69
g50
NtRp3640
(dp3641
g53
(dp3642
sg62
g3628
sg55
(lp3643
g48
(g49
g50
NtRp3644
(dp3645
g53
(dp3646
g61
I3
ssg62
g3640
sg55
(lp3647
S''
asbasbasbag48
(g64
g50
NtRp3648
(dp3649
g53
(dp3650
sg62
g3524
sg55
(lp3651
g48
(g69
g50
NtRp3652
(dp3653
g53
(dp3654
g73
g74
ssg62
g3648
sg55
(lp3655
g388
asbag48
(g69
g50
NtRp3656
(dp3657
g53
(dp3658
g80
g81
ssg62
g3648
sg55
(lp3659
S':'
asbag48
(g69
g50
NtRp3660
(dp3661
g53
(dp3662
sg62
g3648
sg55
(lp3663
g48
(g49
g50
NtRp3664
(dp3665
g53
(dp3666
g61
I3
ssg62
g3660
sg55
(lp3667
S''
asbasbasbasbasbasbasbasbasbasbasbag48
(g64
g50
NtRp3668
(dp3669
g53
(dp3670
sg62
g3454
sg55
(lp3671
g48
(g69
g50
NtRp3672
(dp3673
g53
(dp3674
g73
g74
ssg62
g3668
sg55
(lp3675
S'files'
p3676
asbag48
(g69
g50
NtRp3677
(dp3678
g53
(dp3679
g80
g81
ssg62
g3668
sg55
(lp3680
S':'
asbag48
(g69
g50
NtRp3681
(dp3682
g53
(dp3683
sg62
g3668
sg55
(lp3684
g48
(g49
g50
NtRp3685
(dp3686
g53
(dp3687
g61
I5
ssg62
g3681
sg55
(lp3688
g48
(g57
g50
NtRp3689
(dp3690
g53
(dp3691
g61
I4
ssg62
Nsg55
(lp3692
g48
(g64
g50
NtRp3693
(dp3694
g53
(dp3695
sg62
g3689
sg55
(lp3696
g48
(g69
g50
NtRp3697
(dp3698
g53
(dp3699
sg62
g3693
sg55
(lp3700
g48
(g49
g50
NtRp3701
(dp3702
g53
(dp3703
g61
I4
ssg62
g3697
sg55
(lp3704
S'/Desglosar_Emails/static/js/jquery.js'
p3705
asbasbasbag48
(g64
g50
NtRp3706
(dp3707
g53
(dp3708
sg62
g3689
sg55
(lp3709
g48
(g69
g50
NtRp3710
(dp3711
g53
(dp3712
sg62
g3706
sg55
(lp3713
g48
(g49
g50
NtRp3714
(dp3715
g53
(dp3716
g61
I4
ssg62
g3710
sg55
(lp3717
S'/Desglosar_Emails/static/css/calendar.css'
p3718
asbasbasbag48
(g64
g50
NtRp3719
(dp3720
g53
(dp3721
sg62
g3689
sg55
(lp3722
g48
(g69
g50
NtRp3723
(dp3724
g53
(dp3725
sg62
g3719
sg55
(lp3726
g48
(g49
g50
NtRp3727
(dp3728
g53
(dp3729
g61
I4
ssg62
g3723
sg55
(lp3730
S'/Desglosar_Emails/static/js/calendar.js'
p3731
asbasbasbag48
(g64
g50
NtRp3732
(dp3733
g53
(dp3734
sg62
g3689
sg55
(lp3735
g48
(g69
g50
NtRp3736
(dp3737
g53
(dp3738
sg62
g3732
sg55
(lp3739
g48
(g49
g50
NtRp3740
(dp3741
g53
(dp3742
g61
I4
ssg62
g3736
sg55
(lp3743
S'/Desglosar_Emails/static/css/base.css'
p3744
asbasbasbag48
(g64
g50
NtRp3745
(dp3746
g53
(dp3747
sg62
g3689
sg55
(lp3748
g48
(g69
g50
NtRp3749
(dp3750
g53
(dp3751
sg62
g3745
sg55
(lp3752
g48
(g49
g50
NtRp3753
(dp3754
g53
(dp3755
g61
I4
ssg62
g3749
sg55
(lp3756
S'/Desglosar_Emails/static/css/superfish.css'
p3757
asbasbasbag48
(g64
g50
NtRp3758
(dp3759
g53
(dp3760
sg62
g3689
sg55
(lp3761
g48
(g69
g50
NtRp3762
(dp3763
g53
(dp3764
sg62
g3758
sg55
(lp3765
g48
(g49
g50
NtRp3766
(dp3767
g53
(dp3768
g61
I4
ssg62
g3762
sg55
(lp3769
S'/Desglosar_Emails/static/js/superfish.js'
p3770
asbasbasbasbasbasbasbag48
(g64
g50
NtRp3771
(dp3772
g53
(dp3773
sg62
g3454
sg55
(lp3774
g48
(g69
g50
NtRp3775
(dp3776
g53
(dp3777
g73
g74
ssg62
g3771
sg55
(lp3778
S'flash'
p3779
asbag48
(g69
g50
NtRp3780
(dp3781
g53
(dp3782
g80
g81
ssg62
g3771
sg55
(lp3783
S':'
asbag48
(g69
g50
NtRp3784
(dp3785
g53
(dp3786
sg62
g3771
sg55
(lp3787
g48
(g49
g50
NtRp3788
(dp3789
g53
(dp3790
g61
I5
ssg62
g3784
sg55
(lp3791
S''
asbasbasbag48
(g64
g50
NtRp3792
(dp3793
g53
(dp3794
sg62
g3454
sg55
(lp3795
g48
(g69
g50
NtRp3796
(dp3797
g53
(dp3798
g73
g74
ssg62
g3792
sg55
(lp3799
S'generic_patterns'
p3800
asbag48
(g69
g50
NtRp3801
(dp3802
g53
(dp3803
g80
g81
ssg62
g3792
sg55
(lp3804
S':'
asbag48
(g69
g50
NtRp3805
(dp3806
g53
(dp3807
sg62
g3792
sg55
(lp3808
g48
(g49
g50
NtRp3809
(dp3810
g53
(dp3811
g61
I5
ssg62
g3805
sg55
(lp3812
g48
(g57
g50
NtRp3813
(dp3814
g53
(dp3815
g61
I4
ssg62
Nsg55
(lp3816
sbasbasbasbag48
(g64
g50
NtRp3817
(dp3818
g53
(dp3819
sg62
g3454
sg55
(lp3820
g48
(g69
g50
NtRp3821
(dp3822
g53
(dp3823
g73
g74
ssg62
g3817
sg55
(lp3824
S'headers'
p3825
asbag48
(g69
g50
NtRp3826
(dp3827
g53
(dp3828
g80
g81
ssg62
g3817
sg55
(lp3829
S':'
asbag48
(g69
g50
NtRp3830
(dp3831
g53
(dp3832
sg62
g3817
sg55
(lp3833
g48
(g49
g50
NtRp3834
(dp3835
g53
(dp3836
g61
I5
ssg62
g3830
sg55
(lp3837
g48
(g57
g50
NtRp3838
(dp3839
g53
(dp3840
g61
I4
ssg62
Nsg55
(lp3841
g48
(g64
g50
NtRp3842
(dp3843
g53
(dp3844
sg62
g3838
sg55
(lp3845
g48
(g69
g50
NtRp3846
(dp3847
g53
(dp3848
g73
g74
ssg62
g3842
sg55
(lp3849
S'Cache-Control'
p3850
asbag48
(g69
g50
NtRp3851
(dp3852
g53
(dp3853
g80
g81
ssg62
g3842
sg55
(lp3854
S':'
asbag48
(g69
g50
NtRp3855
(dp3856
g53
(dp3857
sg62
g3842
sg55
(lp3858
g48
(g49
g50
NtRp3859
(dp3860
g53
(dp3861
g61
I4
ssg62
g3855
sg55
(lp3862
S'no-store, no-cache, must-revalidate, post-check=0, pre-check=0'
p3863
asbasbasbag48
(g64
g50
NtRp3864
(dp3865
g53
(dp3866
sg62
g3838
sg55
(lp3867
g48
(g69
g50
NtRp3868
(dp3869
g53
(dp3870
g73
g74
ssg62
g3864
sg55
(lp3871
S'Content-Type'
p3872
asbag48
(g69
g50
NtRp3873
(dp3874
g53
(dp3875
g80
g81
ssg62
g3864
sg55
(lp3876
S':'
asbag48
(g69
g50
NtRp3877
(dp3878
g53
(dp3879
sg62
g3864
sg55
(lp3880
g48
(g49
g50
NtRp3881
(dp3882
g53
(dp3883
g61
I4
ssg62
g3877
sg55
(lp3884
S'text/html; charset=utf-8'
p3885
asbasbasbag48
(g64
g50
NtRp3886
(dp3887
g53
(dp3888
sg62
g3838
sg55
(lp3889
g48
(g69
g50
NtRp3890
(dp3891
g53
(dp3892
g73
g74
ssg62
g3886
sg55
(lp3893
S'Expires'
p3894
asbag48
(g69
g50
NtRp3895
(dp3896
g53
(dp3897
g80
g81
ssg62
g3886
sg55
(lp3898
S':'
asbag48
(g69
g50
NtRp3899
(dp3900
g53
(dp3901
sg62
g3886
sg55
(lp3902
g48
(g49
g50
NtRp3903
(dp3904
g53
(dp3905
g61
I4
ssg62
g3899
sg55
(lp3906
S'Tue, 20 Sep 2011 04:29:08 GMT'
p3907
asbasbasbag48
(g64
g50
NtRp3908
(dp3909
g53
(dp3910
sg62
g3838
sg55
(lp3911
g48
(g69
g50
NtRp3912
(dp3913
g53
(dp3914
g73
g74
ssg62
g3908
sg55
(lp3915
S'Pragma'
p3916
asbag48
(g69
g50
NtRp3917
(dp3918
g53
(dp3919
g80
g81
ssg62
g3908
sg55
(lp3920
S':'
asbag48
(g69
g50
NtRp3921
(dp3922
g53
(dp3923
sg62
g3908
sg55
(lp3924
g48
(g49
g50
NtRp3925
(dp3926
g53
(dp3927
g61
I4
ssg62
g3921
sg55
(lp3928
S'no-cache'
p3929
asbasbasbag48
(g64
g50
NtRp3930
(dp3931
g53
(dp3932
sg62
g3838
sg55
(lp3933
g48
(g69
g50
NtRp3934
(dp3935
g53
(dp3936
g73
g74
ssg62
g3930
sg55
(lp3937
S'X-Powered-By'
p3938
asbag48
(g69
g50
NtRp3939
(dp3940
g53
(dp3941
g80
g81
ssg62
g3930
sg55
(lp3942
S':'
asbag48
(g69
g50
NtRp3943
(dp3944
g53
(dp3945
sg62
g3930
sg55
(lp3946
g48
(g49
g50
NtRp3947
(dp3948
g53
(dp3949
g61
I4
ssg62
g3943
sg55
(lp3950
S'web2py'
p3951
asbasbasbasbasbasbasbag48
(g64
g50
NtRp3952
(dp3953
g53
(dp3954
sg62
g3454
sg55
(lp3955
g48
(g69
g50
NtRp3956
(dp3957
g53
(dp3958
g73
g74
ssg62
g3952
sg55
(lp3959
S'menu'
p3960
asbag48
(g69
g50
NtRp3961
(dp3962
g53
(dp3963
g80
g81
ssg62
g3952
sg55
(lp3964
S':'
asbag48
(g69
g50
NtRp3965
(dp3966
g53
(dp3967
sg62
g3952
sg55
(lp3968
g48
(g49
g50
NtRp3969
(dp3970
g53
(dp3971
g61
I5
ssg62
g3965
sg55
(lp3972
g48
(g57
g50
NtRp3973
(dp3974
g53
(dp3975
g61
I4
ssg62
Nsg55
(lp3976
g48
(g64
g50
NtRp3977
(dp3978
g53
(dp3979
sg62
g3973
sg55
(lp3980
g48
(g69
g50
NtRp3981
(dp3982
g53
(dp3983
sg62
g3977
sg55
(lp3984
g48
(g49
g50
NtRp3985
(dp3986
g53
(dp3987
g61
I4
ssg62
g3981
sg55
(lp3988
g48
(g57
g50
NtRp3989
(dp3990
g53
(dp3991
g61
I3
ssg62
Nsg55
(lp3992
g48
(g64
g50
NtRp3993
(dp3994
g53
(dp3995
sg62
g3989
sg55
(lp3996
g48
(g69
g50
NtRp3997
(dp3998
g53
(dp3999
sg62
g3993
sg55
(lp4000
g48
(g49
g50
NtRp4001
(dp4002
g53
(dp4003
g61
I3
ssg62
g3997
sg55
(lp4004
cgluon.languages
lazyT_unpickle
p4005
(S't\x04\x00\x00\x00Home'
tRp4006
asbasbasbag48
(g64
g50
NtRp4007
(dp4008
g53
(dp4009
sg62
g3989
sg55
(lp4010
g48
(g69
g50
NtRp4011
(dp4012
g53
(dp4013
sg62
g4007
sg55
(lp4014
g48
(g49
g50
NtRp4015
(dp4016
g53
(dp4017
g61
I3
ssg62
g4011
sg55
(lp4018
g91
asbasbasbag48
(g64
g50
NtRp4019
(dp4020
g53
(dp4021
sg62
g3989
sg55
(lp4022
g48
(g69
g50
NtRp4023
(dp4024
g53
(dp4025
sg62
g4019
sg55
(lp4026
g48
(g49
g50
NtRp4027
(dp4028
g53
(dp4029
g61
I3
ssg62
g4023
sg55
(lp4030
S'/Desglosar_Emails/default/index'
p4031
asbasbasbag48
(g64
g50
NtRp4032
(dp4033
g53
(dp4034
sg62
g3989
sg55
(lp4035
g48
(g69
g50
NtRp4036
(dp4037
g53
(dp4038
sg62
g4032
sg55
(lp4039
g48
(g49
g50
NtRp4040
(dp4041
g53
(dp4042
g61
I3
ssg62
g4036
sg55
(lp4043
g48
(g57
g50
NtRp4044
(dp4045
g53
(dp4046
g61
I2
ssg62
Nsg55
(lp4047
sbasbasbasbasbasbasbasbag48
(g64
g50
NtRp4048
(dp4049
g53
(dp4050
sg62
g3973
sg55
(lp4051
g48
(g69
g50
NtRp4052
(dp4053
g53
(dp4054
sg62
g4048
sg55
(lp4055
g48
(g49
g50
NtRp4056
(dp4057
g53
(dp4058
g61
I4
ssg62
g4052
sg55
(lp4059
g48
(g57
g50
NtRp4060
(dp4061
g53
(dp4062
g61
I3
ssg62
Nsg55
(lp4063
g48
(g64
g50
NtRp4064
(dp4065
g53
(dp4066
sg62
g4060
sg55
(lp4067
g48
(g69
g50
NtRp4068
(dp4069
g53
(dp4070
sg62
g4064
sg55
(lp4071
g48
(g49
g50
NtRp4072
(dp4073
g53
(dp4074
g61
I3
ssg62
g4068
sg55
(lp4075
g4005
(S's\x08\x00\x00\x00This App'
tRp4076
asbasbasbag48
(g64
g50
NtRp4077
(dp4078
g53
(dp4079
sg62
g4060
sg55
(lp4080
g48
(g69
g50
NtRp4081
(dp4082
g53
(dp4083
sg62
g4077
sg55
(lp4084
g48
(g49
g50
NtRp4085
(dp4086
g53
(dp4087
g61
I3
ssg62
g4081
sg55
(lp4088
g91
asbasbasbag48
(g64
g50
NtRp4089
(dp4090
g53
(dp4091
sg62
g4060
sg55
(lp4092
g48
(g69
g50
NtRp4093
(dp4094
g53
(dp4095
sg62
g4089
sg55
(lp4096
g48
(g49
g50
NtRp4097
(dp4098
g53
(dp4099
g61
I3
ssg62
g4093
sg55
(lp4100
S'/admin/default/design/Desglosar_Emails'
p4101
asbasbasbag48
(g64
g50
NtRp4102
(dp4103
g53
(dp4104
sg62
g4060
sg55
(lp4105
g48
(g69
g50
NtRp4106
(dp4107
g53
(dp4108
sg62
g4102
sg55
(lp4109
g48
(g49
g50
NtRp4110
(dp4111
g53
(dp4112
g61
I3
ssg62
g4106
sg55
(lp4113
g48
(g57
g50
NtRp4114
(dp4115
g53
(dp4116
g61
I2
ssg62
Nsg55
(lp4117
g48
(g64
g50
NtRp4118
(dp4119
g53
(dp4120
sg62
g4114
sg55
(lp4121
g48
(g69
g50
NtRp4122
(dp4123
g53
(dp4124
sg62
g4118
sg55
(lp4125
g48
(g49
g50
NtRp4126
(dp4127
g53
(dp4128
g61
I2
ssg62
g4122
sg55
(lp4129
g48
(g57
g50
NtRp4130
(dp4131
g53
(dp4132
g61
I1
ssg62
Nsg55
(lp4133
g48
(g64
g50
NtRp4134
(dp4135
g53
(dp4136
sg62
g4130
sg55
(lp4137
g48
(g69
g50
NtRp4138
(dp4139
g53
(dp4140
sg62
g4134
sg55
(lp4141
g48
(g49
g50
NtRp4142
(dp4143
g53
(dp4144
g61
I1
ssg62
g4138
sg55
(lp4145
g4005
(S't\x0b\x00\x00\x00Controlador'
tRp4146
asbasbasbag48
(g64
g50
NtRp4147
(dp4148
g53
(dp4149
sg62
g4130
sg55
(lp4150
g48
(g69
g50
NtRp4151
(dp4152
g53
(dp4153
sg62
g4147
sg55
(lp4154
g48
(g49
g50
NtRp4155
(dp4156
g53
(dp4157
g61
I1
ssg62
g4151
sg55
(lp4158
I00
asbasbasbag48
(g64
g50
NtRp4159
(dp4160
g53
(dp4161
sg62
g4130
sg55
(lp4162
g48
(g69
g50
NtRp4163
(dp4164
g53
(dp4165
sg62
g4159
sg55
(lp4166
g48
(g49
g50
NtRp4167
(dp4168
g53
(dp4169
g61
I1
ssg62
g4163
sg55
(lp4170
S'/admin/default/edit/Desglosar_Emails/controllers/default.py'
p4171
asbasbasbasbasbasbasbag48
(g64
g50
NtRp4172
(dp4173
g53
(dp4174
sg62
g4114
sg55
(lp4175
g48
(g69
g50
NtRp4176
(dp4177
g53
(dp4178
sg62
g4172
sg55
(lp4179
g48
(g49
g50
NtRp4180
(dp4181
g53
(dp4182
g61
I2
ssg62
g4176
sg55
(lp4183
g48
(g57
g50
NtRp4184
(dp4185
g53
(dp4186
g61
I1
ssg62
Nsg55
(lp4187
g48
(g64
g50
NtRp4188
(dp4189
g53
(dp4190
sg62
g4184
sg55
(lp4191
g48
(g69
g50
NtRp4192
(dp4193
g53
(dp4194
sg62
g4188
sg55
(lp4195
g48
(g49
g50
NtRp4196
(dp4197
g53
(dp4198
g61
I1
ssg62
g4192
sg55
(lp4199
g4005
(S't\x05\x00\x00\x00Vista'
tRp4200
asbasbasbag48
(g64
g50
NtRp4201
(dp4202
g53
(dp4203
sg62
g4184
sg55
(lp4204
g48
(g69
g50
NtRp4205
(dp4206
g53
(dp4207
sg62
g4201
sg55
(lp4208
g48
(g49
g50
NtRp4209
(dp4210
g53
(dp4211
g61
I1
ssg62
g4205
sg55
(lp4212
I00
asbasbasbag48
(g64
g50
NtRp4213
(dp4214
g53
(dp4215
sg62
g4184
sg55
(lp4216
g48
(g69
g50
NtRp4217
(dp4218
g53
(dp4219
sg62
g4213
sg55
(lp4220
g48
(g49
g50
NtRp4221
(dp4222
g53
(dp4223
g61
I1
ssg62
g4217
sg55
(lp4224
S'/admin/default/edit/Desglosar_Emails/views/default/entrada_mod3.html'
p4225
asbasbasbasbasbasbasbag48
(g64
g50
NtRp4226
(dp4227
g53
(dp4228
sg62
g4114
sg55
(lp4229
g48
(g69
g50
NtRp4230
(dp4231
g53
(dp4232
sg62
g4226
sg55
(lp4233
g48
(g49
g50
NtRp4234
(dp4235
g53
(dp4236
g61
I2
ssg62
g4230
sg55
(lp4237
g48
(g57
g50
NtRp4238
(dp4239
g53
(dp4240
g61
I1
ssg62
Nsg55
(lp4241
g48
(g64
g50
NtRp4242
(dp4243
g53
(dp4244
sg62
g4238
sg55
(lp4245
g48
(g69
g50
NtRp4246
(dp4247
g53
(dp4248
sg62
g4242
sg55
(lp4249
g48
(g49
g50
NtRp4250
(dp4251
g53
(dp4252
g61
I1
ssg62
g4246
sg55
(lp4253
g4005
(S's\x12\x00\x00\x00Dise\xc3\xb1o de p\xc3\xa1gina'
tRp4254
asbasbasbag48
(g64
g50
NtRp4255
(dp4256
g53
(dp4257
sg62
g4238
sg55
(lp4258
g48
(g69
g50
NtRp4259
(dp4260
g53
(dp4261
sg62
g4255
sg55
(lp4262
g48
(g49
g50
NtRp4263
(dp4264
g53
(dp4265
g61
I1
ssg62
g4259
sg55
(lp4266
I00
asbasbasbag48
(g64
g50
NtRp4267
(dp4268
g53
(dp4269
sg62
g4238
sg55
(lp4270
g48
(g69
g50
NtRp4271
(dp4272
g53
(dp4273
sg62
g4267
sg55
(lp4274
g48
(g49
g50
NtRp4275
(dp4276
g53
(dp4277
g61
I1
ssg62
g4271
sg55
(lp4278
S'/admin/default/edit/Desglosar_Emails/views/layout.html'
p4279
asbasbasbasbasbasbasbag48
(g64
g50
NtRp4280
(dp4281
g53
(dp4282
sg62
g4114
sg55
(lp4283
g48
(g69
g50
NtRp4284
(dp4285
g53
(dp4286
sg62
g4280
sg55
(lp4287
g48
(g49
g50
NtRp4288
(dp4289
g53
(dp4290
g61
I2
ssg62
g4284
sg55
(lp4291
g48
(g57
g50
NtRp4292
(dp4293
g53
(dp4294
g61
I1
ssg62
Nsg55
(lp4295
g48
(g64
g50
NtRp4296
(dp4297
g53
(dp4298
sg62
g4292
sg55
(lp4299
g48
(g69
g50
NtRp4300
(dp4301
g53
(dp4302
sg62
g4296
sg55
(lp4303
g48
(g49
g50
NtRp4304
(dp4305
g53
(dp4306
g61
I1
ssg62
g4300
sg55
(lp4307
g4005
(S's\x0e\x00\x00\x00Hoja de estilo'
tRp4308
asbasbasbag48
(g64
g50
NtRp4309
(dp4310
g53
(dp4311
sg62
g4292
sg55
(lp4312
g48
(g69
g50
NtRp4313
(dp4314
g53
(dp4315
sg62
g4309
sg55
(lp4316
g48
(g49
g50
NtRp4317
(dp4318
g53
(dp4319
g61
I1
ssg62
g4313
sg55
(lp4320
I00
asbasbasbag48
(g64
g50
NtRp4321
(dp4322
g53
(dp4323
sg62
g4292
sg55
(lp4324
g48
(g69
g50
NtRp4325
(dp4326
g53
(dp4327
sg62
g4321
sg55
(lp4328
g48
(g49
g50
NtRp4329
(dp4330
g53
(dp4331
g61
I1
ssg62
g4325
sg55
(lp4332
S'/admin/default/edit/Desglosar_Emails/static/base.css'
p4333
asbasbasbasbasbasbasbag48
(g64
g50
NtRp4334
(dp4335
g53
(dp4336
sg62
g4114
sg55
(lp4337
g48
(g69
g50
NtRp4338
(dp4339
g53
(dp4340
sg62
g4334
sg55
(lp4341
g48
(g49
g50
NtRp4342
(dp4343
g53
(dp4344
g61
I2
ssg62
g4338
sg55
(lp4345
g48
(g57
g50
NtRp4346
(dp4347
g53
(dp4348
g61
I1
ssg62
Nsg55
(lp4349
g48
(g64
g50
NtRp4350
(dp4351
g53
(dp4352
sg62
g4346
sg55
(lp4353
g48
(g69
g50
NtRp4354
(dp4355
g53
(dp4356
sg62
g4350
sg55
(lp4357
g48
(g49
g50
NtRp4358
(dp4359
g53
(dp4360
g61
I1
ssg62
g4354
sg55
(lp4361
g4005
(S's\x0b\x00\x00\x00Modelo "db"'
tRp4362
asbasbasbag48
(g64
g50
NtRp4363
(dp4364
g53
(dp4365
sg62
g4346
sg55
(lp4366
g48
(g69
g50
NtRp4367
(dp4368
g53
(dp4369
sg62
g4363
sg55
(lp4370
g48
(g49
g50
NtRp4371
(dp4372
g53
(dp4373
g61
I1
ssg62
g4367
sg55
(lp4374
I00
asbasbasbag48
(g64
g50
NtRp4375
(dp4376
g53
(dp4377
sg62
g4346
sg55
(lp4378
g48
(g69
g50
NtRp4379
(dp4380
g53
(dp4381
sg62
g4375
sg55
(lp4382
g48
(g49
g50
NtRp4383
(dp4384
g53
(dp4385
g61
I1
ssg62
g4379
sg55
(lp4386
S'/admin/default/edit/Desglosar_Emails/models/db.py'
p4387
asbasbasbasbasbasbasbag48
(g64
g50
NtRp4388
(dp4389
g53
(dp4390
sg62
g4114
sg55
(lp4391
g48
(g69
g50
NtRp4392
(dp4393
g53
(dp4394
sg62
g4388
sg55
(lp4395
g48
(g49
g50
NtRp4396
(dp4397
g53
(dp4398
g61
I2
ssg62
g4392
sg55
(lp4399
g48
(g57
g50
NtRp4400
(dp4401
g53
(dp4402
g61
I1
ssg62
Nsg55
(lp4403
g48
(g64
g50
NtRp4404
(dp4405
g53
(dp4406
sg62
g4400
sg55
(lp4407
g48
(g69
g50
NtRp4408
(dp4409
g53
(dp4410
sg62
g4404
sg55
(lp4411
g48
(g49
g50
NtRp4412
(dp4413
g53
(dp4414
g61
I1
ssg62
g4408
sg55
(lp4415
g4005
(S's\r\x00\x00\x00Modelo "menu"'
tRp4416
asbasbasbag48
(g64
g50
NtRp4417
(dp4418
g53
(dp4419
sg62
g4400
sg55
(lp4420
g48
(g69
g50
NtRp4421
(dp4422
g53
(dp4423
sg62
g4417
sg55
(lp4424
g48
(g49
g50
NtRp4425
(dp4426
g53
(dp4427
g61
I1
ssg62
g4421
sg55
(lp4428
I00
asbasbasbag48
(g64
g50
NtRp4429
(dp4430
g53
(dp4431
sg62
g4400
sg55
(lp4432
g48
(g69
g50
NtRp4433
(dp4434
g53
(dp4435
sg62
g4429
sg55
(lp4436
g48
(g49
g50
NtRp4437
(dp4438
g53
(dp4439
g61
I1
ssg62
g4433
sg55
(lp4440
S'/admin/default/edit/Desglosar_Emails/models/menu.py'
p4441
asbasbasbasbasbasbasbag48
(g64
g50
NtRp4442
(dp4443
g53
(dp4444
sg62
g4114
sg55
(lp4445
g48
(g69
g50
NtRp4446
(dp4447
g53
(dp4448
sg62
g4442
sg55
(lp4449
g48
(g49
g50
NtRp4450
(dp4451
g53
(dp4452
g61
I2
ssg62
g4446
sg55
(lp4453
g48
(g57
g50
NtRp4454
(dp4455
g53
(dp4456
g61
I1
ssg62
Nsg55
(lp4457
g48
(g64
g50
NtRp4458
(dp4459
g53
(dp4460
sg62
g4454
sg55
(lp4461
g48
(g69
g50
NtRp4462
(dp4463
g53
(dp4464
sg62
g4458
sg55
(lp4465
g48
(g49
g50
NtRp4466
(dp4467
g53
(dp4468
g61
I1
ssg62
g4462
sg55
(lp4469
g4005
(S's\r\x00\x00\x00Base de datos'
tRp4470
asbasbasbag48
(g64
g50
NtRp4471
(dp4472
g53
(dp4473
sg62
g4454
sg55
(lp4474
g48
(g69
g50
NtRp4475
(dp4476
g53
(dp4477
sg62
g4471
sg55
(lp4478
g48
(g49
g50
NtRp4479
(dp4480
g53
(dp4481
g61
I1
ssg62
g4475
sg55
(lp4482
I00
asbasbasbag48
(g64
g50
NtRp4483
(dp4484
g53
(dp4485
sg62
g4454
sg55
(lp4486
g48
(g69
g50
NtRp4487
(dp4488
g53
(dp4489
sg62
g4483
sg55
(lp4490
g48
(g49
g50
NtRp4491
(dp4492
g53
(dp4493
g61
I1
ssg62
g4487
sg55
(lp4494
S'/Desglosar_Emails/appadmin/index'
p4495
asbasbasbasbasbasbasbag48
(g64
g50
NtRp4496
(dp4497
g53
(dp4498
sg62
g4114
sg55
(lp4499
g48
(g69
g50
NtRp4500
(dp4501
g53
(dp4502
sg62
g4496
sg55
(lp4503
g48
(g49
g50
NtRp4504
(dp4505
g53
(dp4506
g61
I2
ssg62
g4500
sg55
(lp4507
g48
(g57
g50
NtRp4508
(dp4509
g53
(dp4510
g61
I1
ssg62
Nsg55
(lp4511
g48
(g64
g50
NtRp4512
(dp4513
g53
(dp4514
sg62
g4508
sg55
(lp4515
g48
(g69
g50
NtRp4516
(dp4517
g53
(dp4518
sg62
g4512
sg55
(lp4519
g48
(g49
g50
NtRp4520
(dp4521
g53
(dp4522
g61
I1
ssg62
g4516
sg55
(lp4523
g4005
(S't\x06\x00\x00\x00Errors'
tRp4524
asbasbasbag48
(g64
g50
NtRp4525
(dp4526
g53
(dp4527
sg62
g4508
sg55
(lp4528
g48
(g69
g50
NtRp4529
(dp4530
g53
(dp4531
sg62
g4525
sg55
(lp4532
g48
(g49
g50
NtRp4533
(dp4534
g53
(dp4535
g61
I1
ssg62
g4529
sg55
(lp4536
I00
asbasbasbag48
(g64
g50
NtRp4537
(dp4538
g53
(dp4539
sg62
g4508
sg55
(lp4540
g48
(g69
g50
NtRp4541
(dp4542
g53
(dp4543
sg62
g4537
sg55
(lp4544
g48
(g49
g50
NtRp4545
(dp4546
g53
(dp4547
g61
I1
ssg62
g4541
sg55
(lp4548
S'/admin/default/errors/Desglosar_Emails'
p4549
asbasbasbasbasbasbasbag48
(g64
g50
NtRp4550
(dp4551
g53
(dp4552
sg62
g4114
sg55
(lp4553
g48
(g69
g50
NtRp4554
(dp4555
g53
(dp4556
sg62
g4550
sg55
(lp4557
g48
(g49
g50
NtRp4558
(dp4559
g53
(dp4560
g61
I2
ssg62
g4554
sg55
(lp4561
g48
(g57
g50
NtRp4562
(dp4563
g53
(dp4564
g61
I1
ssg62
Nsg55
(lp4565
g48
(g64
g50
NtRp4566
(dp4567
g53
(dp4568
sg62
g4562
sg55
(lp4569
g48
(g69
g50
NtRp4570
(dp4571
g53
(dp4572
sg62
g4566
sg55
(lp4573
g48
(g49
g50
NtRp4574
(dp4575
g53
(dp4576
g61
I1
ssg62
g4570
sg55
(lp4577
g4005
(S's\t\x00\x00\x00Acerca de'
tRp4578
asbasbasbag48
(g64
g50
NtRp4579
(dp4580
g53
(dp4581
sg62
g4562
sg55
(lp4582
g48
(g69
g50
NtRp4583
(dp4584
g53
(dp4585
sg62
g4579
sg55
(lp4586
g48
(g49
g50
NtRp4587
(dp4588
g53
(dp4589
g61
I1
ssg62
g4583
sg55
(lp4590
I00
asbasbasbag48
(g64
g50
NtRp4591
(dp4592
g53
(dp4593
sg62
g4562
sg55
(lp4594
g48
(g69
g50
NtRp4595
(dp4596
g53
(dp4597
sg62
g4591
sg55
(lp4598
g48
(g49
g50
NtRp4599
(dp4600
g53
(dp4601
g61
I1
ssg62
g4595
sg55
(lp4602
S'/admin/default/about/Desglosar_Emails'
p4603
asbasbasbasbasbasbasbasbasbasbasbasbasbasbasbag48
(g64
g50
NtRp4604
(dp4605
g53
(dp4606
sg62
g3973
sg55
(lp4607
g48
(g69
g50
NtRp4608
(dp4609
g53
(dp4610
sg62
g4604
sg55
(lp4611
g48
(g49
g50
NtRp4612
(dp4613
g53
(dp4614
g61
I4
ssg62
g4608
sg55
(lp4615
g48
(g57
g50
NtRp4616
(dp4617
g53
(dp4618
g61
I3
ssg62
Nsg55
(lp4619
g48
(g64
g50
NtRp4620
(dp4621
g53
(dp4622
sg62
g4616
sg55
(lp4623
g48
(g69
g50
NtRp4624
(dp4625
g53
(dp4626
sg62
g4620
sg55
(lp4627
g48
(g49
g50
NtRp4628
(dp4629
g53
(dp4630
g61
I3
ssg62
g4624
sg55
(lp4631
g4005
(S't\t\x00\x00\x00Resources'
tRp4632
asbasbasbag48
(g64
g50
NtRp4633
(dp4634
g53
(dp4635
sg62
g4616
sg55
(lp4636
g48
(g69
g50
NtRp4637
(dp4638
g53
(dp4639
sg62
g4633
sg55
(lp4640
g48
(g49
g50
NtRp4641
(dp4642
g53
(dp4643
g61
I3
ssg62
g4637
sg55
(lp4644
g91
asbasbasbag48
(g64
g50
NtRp4645
(dp4646
g53
(dp4647
sg62
g4616
sg55
(lp4648
g48
(g69
g50
NtRp4649
(dp4650
g53
(dp4651
sg62
g4645
sg55
(lp4652
g48
(g49
g50
NtRp4653
(dp4654
g53
(dp4655
g61
I3
ssg62
g4649
sg55
(lp4656
S'None'
p4657
asbasbasbag48
(g64
g50
NtRp4658
(dp4659
g53
(dp4660
sg62
g4616
sg55
(lp4661
g48
(g69
g50
NtRp4662
(dp4663
g53
(dp4664
sg62
g4658
sg55
(lp4665
g48
(g49
g50
NtRp4666
(dp4667
g53
(dp4668
g61
I3
ssg62
g4662
sg55
(lp4669
g48
(g57
g50
NtRp4670
(dp4671
g53
(dp4672
g61
I2
ssg62
Nsg55
(lp4673
g48
(g64
g50
NtRp4674
(dp4675
g53
(dp4676
sg62
g4670
sg55
(lp4677
g48
(g69
g50
NtRp4678
(dp4679
g53
(dp4680
sg62
g4674
sg55
(lp4681
g48
(g49
g50
NtRp4682
(dp4683
g53
(dp4684
g61
I2
ssg62
g4678
sg55
(lp4685
g48
(g57
g50
NtRp4686
(dp4687
g53
(dp4688
g61
I1
ssg62
Nsg55
(lp4689
g48
(g64
g50
NtRp4690
(dp4691
g53
(dp4692
sg62
g4686
sg55
(lp4693
g48
(g69
g50
NtRp4694
(dp4695
g53
(dp4696
sg62
g4690
sg55
(lp4697
g48
(g49
g50
NtRp4698
(dp4699
g53
(dp4700
g61
I1
ssg62
g4694
sg55
(lp4701
g4005
(S's\x0e\x00\x00\x00Documentaci\xc3\xb3n'
tRp4702
asbasbasbag48
(g64
g50
NtRp4703
(dp4704
g53
(dp4705
sg62
g4686
sg55
(lp4706
g48
(g69
g50
NtRp4707
(dp4708
g53
(dp4709
sg62
g4703
sg55
(lp4710
g48
(g49
g50
NtRp4711
(dp4712
g53
(dp4713
g61
I1
ssg62
g4707
sg55
(lp4714
I00
asbasbasbag48
(g64
g50
NtRp4715
(dp4716
g53
(dp4717
sg62
g4686
sg55
(lp4718
g48
(g69
g50
NtRp4719
(dp4720
g53
(dp4721
sg62
g4715
sg55
(lp4722
g48
(g49
g50
NtRp4723
(dp4724
g53
(dp4725
g61
I1
ssg62
g4719
sg55
(lp4726
S'http://www.web2py.com/book'
p4727
asbasbasbag48
(g64
g50
NtRp4728
(dp4729
g53
(dp4730
sg62
g4686
sg55
(lp4731
g48
(g69
g50
NtRp4732
(dp4733
g53
(dp4734
sg62
g4728
sg55
(lp4735
g48
(g49
g50
NtRp4736
(dp4737
g53
(dp4738
g61
I1
ssg62
g4732
sg55
(lp4739
(lp4740
(g4005
(S't\x07\x00\x00\x00Preface'
tRp4741
I00
S'http://www.web2py.com/book/default/chapter/00'
tp4742
a(g4005
(S't\x0c\x00\x00\x00Introduction'
tRp4743
I00
S'http://www.web2py.com/book/default/chapter/01'
tp4744
a(g4005
(S't\x06\x00\x00\x00Python'
tRp4745
I00
S'http://www.web2py.com/book/default/chapter/02'
tp4746
a(g4005
(S't\x08\x00\x00\x00Overview'
tRp4747
I00
S'http://www.web2py.com/book/default/chapter/03'
tp4748
a(g4005
(S's\x08\x00\x00\x00The Core'
tRp4749
I00
S'http://www.web2py.com/book/default/chapter/04'
tp4750
a(g4005
(S's\t\x00\x00\x00The Views'
tRp4751
I00
S'http://www.web2py.com/book/default/chapter/05'
tp4752
a(g4005
(S's\r\x00\x00\x00Base de datos'
tRp4753
I00
S'http://www.web2py.com/book/default/chapter/06'
tp4754
a(g4005
(S's\x14\x00\x00\x00Forms and Validators'
tRp4755
I00
S'http://www.web2py.com/book/default/chapter/07'
tp4756
a(g4005
(S's\x0e\x00\x00\x00Access Control'
tRp4757
I00
S'http://www.web2py.com/book/default/chapter/08'
tp4758
a(g4005
(S't\x08\x00\x00\x00Services'
tRp4759
I00
S'http://www.web2py.com/book/default/chapter/09'
tp4760
a(g4005
(S's\x0c\x00\x00\x00Ajax Recipes'
tRp4761
I00
S'http://www.web2py.com/book/default/chapter/10'
tp4762
a(g4005
(S's\x12\x00\x00\x00Deployment Recipes'
tRp4763
I00
S'http://www.web2py.com/book/default/chapter/11'
tp4764
a(g4005
(S's\r\x00\x00\x00Other Recipes'
tRp4765
I00
S'http://www.web2py.com/book/default/chapter/12'
tp4766
a(g4005
(S's\r\x00\x00\x00Buy this book'
tRp4767
I00
S'http://stores.lulu.com/web2py'
tp4768
aasbasbasbasbasbasbasbag48
(g64
g50
NtRp4769
(dp4770
g53
(dp4771
sg62
g4670
sg55
(lp4772
g48
(g69
g50
NtRp4773
(dp4774
g53
(dp4775
sg62
g4769
sg55
(lp4776
g48
(g49
g50
NtRp4777
(dp4778
g53
(dp4779
g61
I2
ssg62
g4773
sg55
(lp4780
g48
(g57
g50
NtRp4781
(dp4782
g53
(dp4783
g61
I1
ssg62
Nsg55
(lp4784
g48
(g64
g50
NtRp4785
(dp4786
g53
(dp4787
sg62
g4781
sg55
(lp4788
g48
(g69
g50
NtRp4789
(dp4790
g53
(dp4791
sg62
g4785
sg55
(lp4792
g48
(g49
g50
NtRp4793
(dp4794
g53
(dp4795
g61
I1
ssg62
g4789
sg55
(lp4796
g4005
(S't\t\x00\x00\x00Community'
tRp4797
asbasbasbag48
(g64
g50
NtRp4798
(dp4799
g53
(dp4800
sg62
g4781
sg55
(lp4801
g48
(g69
g50
NtRp4802
(dp4803
g53
(dp4804
sg62
g4798
sg55
(lp4805
g48
(g49
g50
NtRp4806
(dp4807
g53
(dp4808
g61
I1
ssg62
g4802
sg55
(lp4809
I00
asbasbasbag48
(g64
g50
NtRp4810
(dp4811
g53
(dp4812
sg62
g4781
sg55
(lp4813
g48
(g69
g50
NtRp4814
(dp4815
g53
(dp4816
sg62
g4810
sg55
(lp4817
g48
(g49
g50
NtRp4818
(dp4819
g53
(dp4820
g61
I1
ssg62
g4814
sg55
(lp4821
Nasbasbasbag48
(g64
g50
NtRp4822
(dp4823
g53
(dp4824
sg62
g4781
sg55
(lp4825
g48
(g69
g50
NtRp4826
(dp4827
g53
(dp4828
sg62
g4822
sg55
(lp4829
g48
(g49
g50
NtRp4830
(dp4831
g53
(dp4832
g61
I1
ssg62
g4826
sg55
(lp4833
(lp4834
(g4005
(S't\x06\x00\x00\x00Groups'
tRp4835
I00
S'http://www.web2py.com/examples/default/usergroups'
tp4836
a(g4005
(S't\x07\x00\x00\x00Twitter'
tRp4837
I00
S'http://twitter.com/web2py'
tp4838
a(g4005
(S's\t\x00\x00\x00Live chat'
tRp4839
I00
S'http://mibbit.com/?channel=%23web2py&server=irc.mibbit.net'
tp4840
a(g4005
(S's\n\x00\x00\x00User Voice'
tRp4841
I00
S'http://web2py.uservoice.com/'
tp4842
aasbasbasbasbasbasbasbag48
(g64
g50
NtRp4843
(dp4844
g53
(dp4845
sg62
g4670
sg55
(lp4846
g48
(g69
g50
NtRp4847
(dp4848
g53
(dp4849
sg62
g4843
sg55
(lp4850
g48
(g49
g50
NtRp4851
(dp4852
g53
(dp4853
g61
I2
ssg62
g4847
sg55
(lp4854
g48
(g57
g50
NtRp4855
(dp4856
g53
(dp4857
g61
I1
ssg62
Nsg55
(lp4858
g48
(g64
g50
NtRp4859
(dp4860
g53
(dp4861
sg62
g4855
sg55
(lp4862
g48
(g69
g50
NtRp4863
(dp4864
g53
(dp4865
sg62
g4859
sg55
(lp4866
g48
(g49
g50
NtRp4867
(dp4868
g53
(dp4869
g61
I1
ssg62
g4863
sg55
(lp4870
g4005
(S't\x06\x00\x00\x00Web2py'
tRp4871
asbasbasbag48
(g64
g50
NtRp4872
(dp4873
g53
(dp4874
sg62
g4855
sg55
(lp4875
g48
(g69
g50
NtRp4876
(dp4877
g53
(dp4878
sg62
g4872
sg55
(lp4879
g48
(g49
g50
NtRp4880
(dp4881
g53
(dp4882
g61
I1
ssg62
g4876
sg55
(lp4883
I00
asbasbasbag48
(g64
g50
NtRp4884
(dp4885
g53
(dp4886
sg62
g4855
sg55
(lp4887
g48
(g69
g50
NtRp4888
(dp4889
g53
(dp4890
sg62
g4884
sg55
(lp4891
g48
(g49
g50
NtRp4892
(dp4893
g53
(dp4894
g61
I1
ssg62
g4888
sg55
(lp4895
S'http://www.web2py.com'
p4896
asbasbasbag48
(g64
g50
NtRp4897
(dp4898
g53
(dp4899
sg62
g4855
sg55
(lp4900
g48
(g69
g50
NtRp4901
(dp4902
g53
(dp4903
sg62
g4897
sg55
(lp4904
g48
(g49
g50
NtRp4905
(dp4906
g53
(dp4907
g61
I1
ssg62
g4901
sg55
(lp4908
(lp4909
(g4005
(S't\x08\x00\x00\x00Download'
tRp4910
I00
S'http://www.web2py.com/examples/default/download'
tp4911
a(g4005
(S't\x07\x00\x00\x00Support'
tRp4912
I00
S'http://www.web2py.com/examples/default/support'
tp4913
a(g4005
(S's\x0e\x00\x00\x00Quick Examples'
tRp4914
I00
S'http://web2py.com/examples/default/examples'
tp4915
a(g4005
(S't\x03\x00\x00\x00FAQ'
tRp4916
I00
S'http://web2py.com/AlterEgo'
tp4917
a(g4005
(S's\x11\x00\x00\x00Free Applications'
tRp4918
I00
S'http://web2py.com/appliances'
tp4919
a(g4005
(S't\x07\x00\x00\x00Plugins'
tRp4920
I00
S'http://web2py.com/plugins'
tp4921
a(g4005
(S't\x07\x00\x00\x00Recipes'
tRp4922
I00
S'http://web2pyslices.com/'
tp4923
a(g4005
(S't\x04\x00\x00\x00Demo'
tRp4924
I00
S'http://web2py.com/demo_admin'
tp4925
a(g4005
(S't\x08\x00\x00\x00Semantic'
tRp4926
I00
S'http://web2py.com/semantic'
tp4927
a(g4005
(S't\x07\x00\x00\x00Layouts'
tRp4928
I00
S'http://web2py.com/layouts'
tp4929
a(g4005
(S't\x06\x00\x00\x00Videos'
tRp4930
I00
S'http://www.web2py.com/examples/default/videos/'
tp4931
aasbasbasbasbasbasbasbasbasbasbasbasbasbasbasbasbasbasbasbag48
(g64
g50
NtRp4932
(dp4933
g53
(dp4934
sg62
g3454
sg55
(lp4935
g48
(g69
g50
NtRp4936
(dp4937
g53
(dp4938
g73
g74
ssg62
g4932
sg55
(lp4939
S'meta'
p4940
asbag48
(g69
g50
NtRp4941
(dp4942
g53
(dp4943
g80
g81
ssg62
g4932
sg55
(lp4944
S':'
asbag48
(g69
g50
NtRp4945
(dp4946
g53
(dp4947
sg62
g4932
sg55
(lp4948
g48
(g49
g50
NtRp4949
(dp4950
g53
(dp4951
g61
I5
ssg62
g4945
sg55
(lp4952
g48
(g57
g50
NtRp4953
(dp4954
g53
(dp4955
g61
I4
ssg62
Nsg55
(lp4956
g48
(g64
g50
NtRp4957
(dp4958
g53
(dp4959
sg62
g4953
sg55
(lp4960
g48
(g69
g50
NtRp4961
(dp4962
g53
(dp4963
g73
g74
ssg62
g4957
sg55
(lp4964
S'author'
p4965
asbag48
(g69
g50
NtRp4966
(dp4967
g53
(dp4968
g80
g81
ssg62
g4957
sg55
(lp4969
S':'
asbag48
(g69
g50
NtRp4970
(dp4971
g53
(dp4972
sg62
g4957
sg55
(lp4973
g48
(g49
g50
NtRp4974
(dp4975
g53
(dp4976
g61
I4
ssg62
g4970
sg55
(lp4977
S'you'
p4978
asbasbasbag48
(g64
g50
NtRp4979
(dp4980
g53
(dp4981
sg62
g4953
sg55
(lp4982
g48
(g69
g50
NtRp4983
(dp4984
g53
(dp4985
g73
g74
ssg62
g4979
sg55
(lp4986
S'copyright'
p4987
asbag48
(g69
g50
NtRp4988
(dp4989
g53
(dp4990
g80
g81
ssg62
g4979
sg55
(lp4991
S':'
asbag48
(g69
g50
NtRp4992
(dp4993
g53
(dp4994
sg62
g4979
sg55
(lp4995
g48
(g49
g50
NtRp4996
(dp4997
g53
(dp4998
g61
I4
ssg62
g4992
sg55
(lp4999
S'Copyright 2007-2010'
p5000
asbasbasbag48
(g64
g50
NtRp5001
(dp5002
g53
(dp5003
sg62
g4953
sg55
(lp5004
g48
(g69
g50
NtRp5005
(dp5006
g53
(dp5007
g73
g74
ssg62
g5001
sg55
(lp5008
S'description'
p5009
asbag48
(g69
g50
NtRp5010
(dp5011
g53
(dp5012
g80
g81
ssg62
g5001
sg55
(lp5013
S':'
asbag48
(g69
g50
NtRp5014
(dp5015
g53
(dp5016
sg62
g5001
sg55
(lp5017
g48
(g49
g50
NtRp5018
(dp5019
g53
(dp5020
g61
I4
ssg62
g5014
sg55
(lp5021
S'Free and open source full-stack enterprise framework for agile development of fast, scalable, secure and portable database-driven web-based applications. Written and programmable in Python'
p5022
asbasbasbag48
(g64
g50
NtRp5023
(dp5024
g53
(dp5025
sg62
g4953
sg55
(lp5026
g48
(g69
g50
NtRp5027
(dp5028
g53
(dp5029
g73
g74
ssg62
g5023
sg55
(lp5030
S'generator'
p5031
asbag48
(g69
g50
NtRp5032
(dp5033
g53
(dp5034
g80
g81
ssg62
g5023
sg55
(lp5035
S':'
asbag48
(g69
g50
NtRp5036
(dp5037
g53
(dp5038
sg62
g5023
sg55
(lp5039
g48
(g49
g50
NtRp5040
(dp5041
g53
(dp5042
g61
I4
ssg62
g5036
sg55
(lp5043
S'Web2py Enterprise Framework'
p5044
asbasbasbag48
(g64
g50
NtRp5045
(dp5046
g53
(dp5047
sg62
g4953
sg55
(lp5048
g48
(g69
g50
NtRp5049
(dp5050
g53
(dp5051
g73
g74
ssg62
g5045
sg55
(lp5052
S'keywords'
p5053
asbag48
(g69
g50
NtRp5054
(dp5055
g53
(dp5056
g80
g81
ssg62
g5045
sg55
(lp5057
S':'
asbag48
(g69
g50
NtRp5058
(dp5059
g53
(dp5060
sg62
g5045
sg55
(lp5061
g48
(g49
g50
NtRp5062
(dp5063
g53
(dp5064
g61
I4
ssg62
g5058
sg55
(lp5065
S'web2py, python, framework'
p5066
asbasbasbasbasbasbasbag48
(g64
g50
NtRp5067
(dp5068
g53
(dp5069
sg62
g3454
sg55
(lp5070
g48
(g69
g50
NtRp5071
(dp5072
g53
(dp5073
g73
g74
ssg62
g5067
sg55
(lp5074
S'postprocessing'
p5075
asbag48
(g69
g50
NtRp5076
(dp5077
g53
(dp5078
g80
g81
ssg62
g5067
sg55
(lp5079
S':'
asbag48
(g69
g50
NtRp5080
(dp5081
g53
(dp5082
sg62
g5067
sg55
(lp5083
g48
(g49
g50
NtRp5084
(dp5085
g53
(dp5086
g61
I5
ssg62
g5080
sg55
(lp5087
g48
(g57
g50
NtRp5088
(dp5089
g53
(dp5090
g61
I4
ssg62
Nsg55
(lp5091
sbasbasbasbag48
(g64
g50
NtRp5092
(dp5093
g53
(dp5094
sg62
g3454
sg55
(lp5095
g48
(g69
g50
NtRp5096
(dp5097
g53
(dp5098
g73
g74
ssg62
g5092
sg55
(lp5099
S'session_file'
p5100
asbag48
(g69
g50
NtRp5101
(dp5102
g53
(dp5103
g80
g81
ssg62
g5092
sg55
(lp5104
S':'
asbag48
(g69
g50
NtRp5105
(dp5106
g53
(dp5107
sg62
g5092
sg55
(lp5108
g48
(g49
g50
NtRp5109
(dp5110
g53
(dp5111
g61
I5
ssg62
g5105
sg55
(lp5112
S"<open file 'C:\\Users\\Atomico\\web2py\\applications\\Desglosar_Emails\\sessions\\127.0.0.1-0a11b3b2-660c-433c-b71f-fc129286f26c', mode 'rb+' at 0x089F0410>"
p5113
asbasbasbag48
(g64
g50
NtRp5114
(dp5115
g53
(dp5116
sg62
g3454
sg55
(lp5117
g48
(g69
g50
NtRp5118
(dp5119
g53
(dp5120
g73
g74
ssg62
g5114
sg55
(lp5121
S'session_filename'
p5122
asbag48
(g69
g50
NtRp5123
(dp5124
g53
(dp5125
g80
g81
ssg62
g5114
sg55
(lp5126
S':'
asbag48
(g69
g50
NtRp5127
(dp5128
g53
(dp5129
sg62
g5114
sg55
(lp5130
g48
(g49
g50
NtRp5131
(dp5132
g53
(dp5133
g61
I5
ssg62
g5127
sg55
(lp5134
S'C:\\Users\\Atomico\\web2py\\applications\\Desglosar_Emails\\sessions\\127.0.0.1-0a11b3b2-660c-433c-b71f-fc129286f26c'
p5135
asbasbasbag48
(g64
g50
NtRp5136
(dp5137
g53
(dp5138
sg62
g3454
sg55
(lp5139
g48
(g69
g50
NtRp5140
(dp5141
g53
(dp5142
g73
g74
ssg62
g5136
sg55
(lp5143
S'session_id'
p5144
asbag48
(g69
g50
NtRp5145
(dp5146
g53
(dp5147
g80
g81
ssg62
g5136
sg55
(lp5148
S':'
asbag48
(g69
g50
NtRp5149
(dp5150
g53
(dp5151
sg62
g5136
sg55
(lp5152
g48
(g49
g50
NtRp5153
(dp5154
g53
(dp5155
g61
I5
ssg62
g5149
sg55
(lp5156
S'127.0.0.1-0a11b3b2-660c-433c-b71f-fc129286f26c'
p5157
asbasbasbag48
(g64
g50
NtRp5158
(dp5159
g53
(dp5160
sg62
g3454
sg55
(lp5161
g48
(g69
g50
NtRp5162
(dp5163
g53
(dp5164
g73
g74
ssg62
g5158
sg55
(lp5165
S'session_id_name'
p5166
asbag48
(g69
g50
NtRp5167
(dp5168
g53
(dp5169
g80
g81
ssg62
g5158
sg55
(lp5170
S':'
asbag48
(g69
g50
NtRp5171
(dp5172
g53
(dp5173
sg62
g5158
sg55
(lp5174
g48
(g49
g50
NtRp5175
(dp5176
g53
(dp5177
g61
I5
ssg62
g5171
sg55
(lp5178
g3511
asbasbasbag48
(g64
g50
NtRp5179
(dp5180
g53
(dp5181
sg62
g3454
sg55
(lp5182
g48
(g69
g50
NtRp5183
(dp5184
g53
(dp5185
g73
g74
ssg62
g5179
sg55
(lp5186
S'session_locked'
p5187
asbag48
(g69
g50
NtRp5188
(dp5189
g53
(dp5190
g80
g81
ssg62
g5179
sg55
(lp5191
S':'
asbag48
(g69
g50
NtRp5192
(dp5193
g53
(dp5194
sg62
g5179
sg55
(lp5195
g48
(g49
g50
NtRp5196
(dp5197
g53
(dp5198
g61
I5
ssg62
g5192
sg55
(lp5199
g2368
asbasbasbag48
(g64
g50
NtRp5200
(dp5201
g53
(dp5202
sg62
g3454
sg55
(lp5203
g48
(g69
g50
NtRp5204
(dp5205
g53
(dp5206
g73
g74
ssg62
g5200
sg55
(lp5207
S'session_new'
p5208
asbag48
(g69
g50
NtRp5209
(dp5210
g53
(dp5211
g80
g81
ssg62
g5200
sg55
(lp5212
S':'
asbag48
(g69
g50
NtRp5213
(dp5214
g53
(dp5215
sg62
g5200
sg55
(lp5216
g48
(g49
g50
NtRp5217
(dp5218
g53
(dp5219
g61
I5
ssg62
g5213
sg55
(lp5220
g91
asbasbasbag48
(g64
g50
NtRp5221
(dp5222
g53
(dp5223
sg62
g3454
sg55
(lp5224
g48
(g69
g50
NtRp5225
(dp5226
g53
(dp5227
g73
g74
ssg62
g5221
sg55
(lp5228
S'status'
p5229
asbag48
(g69
g50
NtRp5230
(dp5231
g53
(dp5232
g80
g81
ssg62
g5221
sg55
(lp5233
S':'
asbag48
(g69
g50
NtRp5234
(dp5235
g53
(dp5236
sg62
g5221
sg55
(lp5237
g48
(g49
g50
NtRp5238
(dp5239
g53
(dp5240
g61
I5
ssg62
g5234
sg55
(lp5241
S'200'
p5242
asbasbasbag48
(g64
g50
NtRp5243
(dp5244
g53
(dp5245
sg62
g3454
sg55
(lp5246
g48
(g69
g50
NtRp5247
(dp5248
g53
(dp5249
g73
g74
ssg62
g5243
sg55
(lp5250
S'subtitle'
p5251
asbag48
(g69
g50
NtRp5252
(dp5253
g53
(dp5254
g80
g81
ssg62
g5243
sg55
(lp5255
S':'
asbag48
(g69
g50
NtRp5256
(dp5257
g53
(dp5258
sg62
g5243
sg55
(lp5259
g48
(g49
g50
NtRp5260
(dp5261
g53
(dp5262
g61
I5
ssg62
g5256
sg55
(lp5263
g4005
(S's\t\x00\x00\x00Adaptame!'
tRp5264
asbasbasbag48
(g64
g50
NtRp5265
(dp5266
g53
(dp5267
sg62
g3454
sg55
(lp5268
g48
(g69
g50
NtRp5269
(dp5270
g53
(dp5271
g73
g74
ssg62
g5265
sg55
(lp5272
S'title'
p5273
asbag48
(g69
g50
NtRp5274
(dp5275
g53
(dp5276
g80
g81
ssg62
g5265
sg55
(lp5277
S':'
asbag48
(g69
g50
NtRp5278
(dp5279
g53
(dp5280
sg62
g5265
sg55
(lp5281
g48
(g49
g50
NtRp5282
(dp5283
g53
(dp5284
g61
I5
ssg62
g5278
sg55
(lp5285
g113
asbasbasbag48
(g64
g50
NtRp5286
(dp5287
g53
(dp5288
sg62
g3454
sg55
(lp5289
g48
(g69
g50
NtRp5290
(dp5291
g53
(dp5292
g73
g74
ssg62
g5286
sg55
(lp5293
g2692
asbag48
(g69
g50
NtRp5294
(dp5295
g53
(dp5296
g80
g81
ssg62
g5286
sg55
(lp5297
S':'
asbag48
(g69
g50
NtRp5298
(dp5299
g53
(dp5300
sg62
g5286
sg55
(lp5301
g48
(g49
g50
NtRp5302
(dp5303
g53
(dp5304
g61
I5
ssg62
g5298
sg55
(lp5305
g2705
asbasbasbag48
(g64
g50
NtRp5306
(dp5307
g53
(dp5308
sg62
g3454
sg55
(lp5309
g48
(g69
g50
NtRp5310
(dp5311
g53
(dp5312
g73
g74
ssg62
g5306
sg55
(lp5313
S'view'
p5314
asbag48
(g69
g50
NtRp5315
(dp5316
g53
(dp5317
g80
g81
ssg62
g5306
sg55
(lp5318
S':'
asbag48
(g69
g50
NtRp5319
(dp5320
g53
(dp5321
sg62
g5306
sg55
(lp5322
g48
(g49
g50
NtRp5323
(dp5324
g53
(dp5325
g61
I5
ssg62
g5319
sg55
(lp5326
S'default/entrada_mod3.html'
p5327
asbasbasbasbasbsS'locals'
p5328
(dp5329
S'OBJECT'
p5330
S"<class 'gluon.html.OBJECT'>"
p5331
sS'_file'
p5332
S"'/Desglosar_Emails/static/js/superfish.js'"
p5333
sS'SQLDB'
p5334
S"<class 'gluon.dal.DAL'>"
p5335
sg3414
S"<Storage {'_formkey[info4/create]': '654076c0-f8...reate]': '8e64454b-c140-4083-85f9-d732a0a4f4cc'}>"
p5336
sS'LINK'
p5337
S"<class 'gluon.html.LINK'>"
p5338
sS'BR'
p5339
S"<class 'gluon.html.BR'>"
p5340
sS'local_import'
p5341
S'<function <lambda> at 0x07D89370>'
p5342
sS'OPTGROUP'
p5343
S"<class 'gluon.html.OPTGROUP'>"
p5344
sS'PRE'
p5345
S"<class 'gluon.html.PRE'>"
p5346
sS'IS_INT_IN_RANGE'
p5347
S"<class 'gluon.validators.IS_INT_IN_RANGE'>"
p5348
sS'left_sidebar_enabled'
p5349
g91
sS'IS_LOWER'
p5350
S"<class 'gluon.validators.IS_LOWER'>"
p5351
sS'IS_STRONG'
p5352
S"<class 'gluon.validators.IS_STRONG'>"
p5353
sS'cache'
p5354
S'<gluon.cache.Cache object at 0x087E5450>'
p5355
sS'IS_IN_DB'
p5356
S"<class 'gluon.validators.IS_IN_DB'>"
p5357
sS'TAG'
p5358
S'<gluon.html.__TAG__ object at 0x026EA730>'
p5359
sS'_k'
p5360
S'5'
sS'SQLField'
p5361
S"<class 'gluon.dal.Field'>"
p5362
sS'BODY'
p5363
S"<class 'gluon.html.BODY'>"
p5364
sS'IS_DATE_IN_RANGE'
p5365
S"<class 'gluon.validators.IS_DATE_IN_RANGE'>"
p5366
sS'TH'
p5367
S"<class 'gluon.html.TH'>"
p5368
sS'URL'
p5369
S'<function URL at 0x02740870>'
p5370
sS'__file__'
p5371
S"r'C:\\Users\\Atomico\\web2py\\applications\\Desglosar_Emails\\views\\default/entrada_mod3.html'"
p5372
sS'db'
p5373
S"<DAL {'persona': <Table {'ALL': <gluon.dal.SQLAL...ing_references': {}, '_uri': 'sqlite://mydb.db'}>"
p5374
sS'P'
S"<class 'gluon.html.P'>"
p5375
sS'TFOOT'
p5376
S"<class 'gluon.html.TFOOT'>"
p5377
sS'clavos'
p5378
S"['(', ')', ',', ';', ' ']"
p5379
sS'XHTML'
p5380
S"<class 'gluon.html.XHTML'>"
p5381
sS'patternemail'
p5382
S'<_sre.SRE_Pattern object at 0x0924F2C0>'
p5383
sS'ON'
p5384
g2368
sS'OL'
p5385
S"<class 'gluon.html.OL'>"
p5386
sS'TEXTAREA'
p5387
S"<class 'gluon.html.TEXTAREA'>"
p5388
sS'MENU'
p5389
S"<class 'gluon.html.MENU'>"
p5390
sS'_file0'
p5391
S"'/desglosar_emails/static/js/superfish.js'"
p5392
sS'LOAD'
p5393
S'<gluon.compileapp.LoadFactory object at 0x073C5610>'
p5394
sS'CODE'
p5395
S"<class 'gluon.html.CODE'>"
p5396
sS'HTTP'
p5397
S"<class 'gluon.http.HTTP'>"
p5398
sS'HR'
p5399
S"<class 'gluon.html.HR'>"
p5400
sS'IS_DATETIME'
p5401
S"<class 'gluon.validators.IS_DATETIME'>"
p5402
sS'HEAD'
p5403
S"<class 'gluon.html.HEAD'>"
p5404
sS'LABEL'
p5405
S"<class 'gluon.html.LABEL'>"
p5406
sS'CLEANUP'
p5407
S"<class 'gluon.validators.CLEANUP'>"
p5408
sS'SELECT'
p5409
S"<class 'gluon.html.SELECT'>"
p5410
sS'CENTER'
p5411
S"<class 'gluon.html.CENTER'>"
p5412
sS'left_sidebar_style'
p5413
S'\'style="display: none;"\''
p5414
sS'pattern'
p5415
S'<_sre.SRE_Pattern object at 0x0932ED10>'
p5416
sS'__builtins__'
p5417
S"{'ArithmeticError': <type 'exceptions.ArithmeticError'>, 'AssertionError': <type 'exceptions.AssertionError'>, 'AttributeError': <type 'exceptions.AttributeError'>, 'BaseException': <type 'exceptions.BaseException'>, 'DeprecationWarning': <type 'exceptions.DeprecationWarning'>, 'EOFError': <type 'exceptions.EOFError'>, 'Ellipsis': Ellipsis, 'EnvironmentError': <type 'exceptions.EnvironmentError'>, 'Exception': <type 'exceptions.Exception'>, 'False': False, ...}"
p5418
sS'IS_LIST_OF'
p5419
S"<class 'gluon.validators.IS_LIST_OF'>"
p5420
sS'SQLFORM'
p5421
S"<class 'gluon.sqlhtml.SQLFORM'>"
p5422
sS'_item'
p5423
S"'author'"
p5424
sS'EM'
p5425
S"<class 'gluon.html.EM'>"
p5426
sS'redirect'
p5427
S'<function redirect at 0x024EB3B0>'
p5428
sS'FIELDSET'
p5429
S"<class 'gluon.html.FIELDSET'>"
p5430
sS'IS_EQUAL_TO'
p5431
S"<class 'gluon.validators.IS_EQUAL_TO'>"
p5432
sS'embed64'
p5433
S'<function embed64 at 0x027443B0>'
p5434
sS'INPUT'
p5435
S"<class 'gluon.html.INPUT'>"
p5436
sS'EMBED'
p5437
S"<class 'gluon.html.EMBED'>"
p5438
sS'FORM'
p5439
S"<class 'gluon.html.FORM'>"
p5440
sS'width_content'
p5441
S"'100%'"
p5442
sS'H2'
p5443
S"<class 'gluon.html.H2'>"
p5444
sS'H3'
p5445
S"<class 'gluon.html.H3'>"
p5446
sS'BUTTON'
p5447
S"<class 'gluon.html.BUTTON'>"
p5448
sS'H1'
p5449
S"<class 'gluon.html.H1'>"
p5450
sS'H6'
p5451
S"<class 'gluon.html.H6'>"
p5452
sS'H4'
p5453
S"<class 'gluon.html.H4'>"
p5454
sS'H5'
p5455
S"<class 'gluon.html.H5'>"
p5456
sS'UL'
p5457
S"<class 'gluon.html.UL'>"
p5458
sS'IS_UPPER'
p5459
S"<class 'gluon.validators.IS_UPPER'>"
p5460
sS'xmlescape'
p5461
S'<function xmlescape at 0x02740830>'
p5462
sS'IS_TIME'
p5463
S"<class 'gluon.validators.IS_TIME'>"
p5464
sS'con'
p5465
S'0'
sS'OPTION'
p5466
S"<class 'gluon.html.OPTION'>"
p5467
sS'TITLE'
p5468
S"<class 'gluon.html.TITLE'>"
p5469
sS'CRYPT'
p5470
S"<class 'gluon.validators.CRYPT'>"
p5471
sS'IS_EMPTY_OR'
p5472
S"<class 'gluon.validators.IS_EMPTY_OR'>"
p5473
sS'MARKMIN'
p5474
S"<class 'gluon.html.MARKMIN'>"
p5475
sS'txt'
p5476
S"'onkicaronki@hotmail.com, cecilia.prada@fastwebne...alnet.net); Bibi (bibianaperezsolano@hotmail.com)'"
p5477
sS'SCRIPT'
p5478
S"<class 'gluon.html.SCRIPT'>"
p5479
sS'textual'
p5480
S"<Row {'update_record': <function <lambda> at 0x0...et.net); Bibi (bibianaperezsolano@hotmail.com)'}>"
p5481
sS'TABLE'
p5482
S"<class 'gluon.html.TABLE'>"
p5483
sS'IS_IPV4'
p5484
S"<class 'gluon.validators.IS_IPV4'>"
p5485
sS'IS_LENGTH'
p5486
S"<class 'gluon.validators.IS_LENGTH'>"
p5487
sS'XML'
p5488
S"<class 'gluon.html.XML'>"
p5489
sS'B'
S"<class 'gluon.html.B'>"
p5490
sS'form'
p5491
S'<gluon.sqlhtml.SQLFORM object at 0x09128370>'
p5492
sS'SQLTABLE'
p5493
S"<class 'gluon.sqlhtml.SQLTABLE'>"
p5494
sS'IS_MATCH'
p5495
S"<class 'gluon.validators.IS_MATCH'>"
p5496
sS'IS_ALPHANUMERIC'
p5497
S"<class 'gluon.validators.IS_ALPHANUMERIC'>"
p5498
sS'SPAN'
p5499
S"<class 'gluon.html.SPAN'>"
p5500
sS'IS_SLUG'
p5501
S"<class 'gluon.validators.IS_SLUG'>"
p5502
sS'BEAUTIFY'
p5503
S"<class 'gluon.html.BEAUTIFY'>"
p5504
sS'META'
p5505
S"<class 'gluon.html.META'>"
p5506
sS'IS_DATE'
p5507
S"<class 'gluon.validators.IS_DATE'>"
p5508
sS'IS_EMAIL'
p5509
S"<class 'gluon.validators.IS_EMAIL'>"
p5510
sS'IS_NOT_EMPTY'
p5511
S"<class 'gluon.validators.IS_NOT_EMPTY'>"
p5512
sg47
S"<Storage {'is_local': True, 'function': 'entrada....06-29-08.53aaf22a-9afc-462d-85b7-dd442ddccf8d'}>"
p5513
sS'TBODY'
p5514
S"<class 'gluon.html.TBODY'>"
p5515
sS'CAT'
p5516
S"<class 'gluon.html.CAT'>"
p5517
sS'Field'
p5518
S"<class 'gluon.dal.Field'>"
p5519
sS'DIV'
p5520
S"<class 'gluon.html.DIV'>"
p5521
sS'LEGEND'
p5522
S"<class 'gluon.html.LEGEND'>"
p5523
sS'IMG'
p5524
S"<class 'gluon.html.IMG'>"
p5525
sS'DAL'
p5526
S"<class 'gluon.dal.DAL'>"
p5527
sS'TT'
p5528
S"<class 'gluon.html.TT'>"
p5529
sS'TR'
p5530
S"<class 'gluon.html.TR'>"
p5531
sS'LI'
p5532
S"<class 'gluon.html.LI'>"
p5533
sS'right_sidebar_enabled'
p5534
g91
sS'res2'
p5535
S"['@hotmail.com', '@fastwebnet.it', '@gmail.com', '@yahoo.es', '@hotmail.com', '@euskalnet.net', '@ashland.com', '@hotmail.com', '@hotmail.com', '@hotmail.com', '@hotmail.com', '@hotmail.com', '@hotmail.com', '@hotmail.com', '@euskaltel.net', '@hotmail.com', '@yahoo.es', '@hotmail.com', '@hotmail.com', '@hotmail.com', ...]"
p5536
sS'IFRAME'
p5537
S"<class 'gluon.html.IFRAME'>"
p5538
sS'TD'
p5539
S"<class 'gluon.html.TD'>"
p5540
sS'IS_URL'
p5541
S"<class 'gluon.validators.IS_URL'>"
p5542
sS'A'
S"<class 'gluon.html.A'>"
p5543
sS'STYLE'
p5544
S"<class 'gluon.html.STYLE'>"
p5545
sS'IS_DATETIME_IN_RANGE'
p5546
S"<class 'gluon.validators.IS_DATETIME_IN_RANGE'>"
p5547
sS'HTML'
p5548
S"<class 'gluon.html.HTML'>"
p5549
sS'IS_IMAGE'
p5550
S"<class 'gluon.validators.IS_IMAGE'>"
p5551
sS'I'
S"<class 'gluon.html.I'>"
p5552
sS'right_sidebar_style'
p5553
S'\'style="display: none;"\''
p5554
sS'IS_NOT_IN_DB'
p5555
S"<class 'gluon.validators.IS_NOT_IN_DB'>"
p5556
sg3449
S"<Storage {'body': <cStringIO.StringO object at 0...x073EFBF0>, 'view': 'default/entrada_mod3.html'}>"
p5557
sS'THEAD'
p5558
S"<class 'gluon.html.THEAD'>"
p5559
sS'IS_NULL_OR'
p5560
S"<class 'gluon.validators.IS_EMPTY_OR'>"
p5561
sS'i'
S'0'
sS'IS_FLOAT_IN_RANGE'
p5562
S"<class 'gluon.validators.IS_FLOAT_IN_RANGE'>"
p5563
sS'IS_EXPR'
p5564
S"<class 'gluon.validators.IS_EXPR'>"
p5565
sS'T'
S'<gluon.languages.translator object at 0x087E5F10>'
p5566
sS'IS_IN_SET'
p5567
S"<class 'gluon.validators.IS_IN_SET'>"
p5568
sS'IS_UPLOAD_FILENAME'
p5569
S"<class 'gluon.validators.IS_UPLOAD_FILENAME'>"
p5570
sS'res'
p5571
S"['onkicaronki@hotmail.com', 'cecilia.prada@fastwebnet', 'gallo.moa@gmail', 'ferrer_chinchilla@yahoo.es', 'RESTI', 'restign@hotmail.com', 'Natacion', 'enebel1@euskalnet.net', 'Natacion', 'Jose Manuel', 'jmprieto@ashland.com', 'Natacion', 'cdnmeatzaldea@hotmail.com', 'Mikel', 'mikelvitores7@hotmail.com', 'Maite', 'maitemoran1@hotmail.com', 'Luisma', 'lmfullaondo@hotmail.com', 'Luis Angel', ...]"
p5572
sS'style_content'
p5573
S'\'style="width: 100%"\''
p5574
sS're'
p5575
S"<module 're' from 'C:\\Users\\Atomico\\web2py\\library.zip\\re.pyc'>"
p5576
sS'IS_DECIMAL_IN_RANGE'
p5577
S"<class 'gluon.validators.IS_DECIMAL_IN_RANGE'>"
p5578
sssS'traceback'
p5579
S'Traceback (most recent call last):\n  File "gluon/restricted.py", line 192, in restricted\n  File "C:\\Users\\Atomico\\web2py\\applications\\Desglosar_Emails\\views\\default/entrada_mod3.html", line 121, in <module>\nNameError: name \'contactos\' is not defined\n'
p5580
s.