(dp1
S'output'
p2
S''
sS'layer'
p3
S'C:\\Users\\Atomico\\web2py\\applications\\Desglosar_Emails\\controllers/default.py'
p4
sS'code'
p5
S'def entrada():\n    form=SQLFORM(db.info)\n    if form.accepts(request.vars,session): pass\n    \n    txt=db.info[12].texto\n    c=0\n    for i in range(len(txt)): c=c+1\n    response.write(\'el total de c es \'+str(c)+\'. \')\n   \n    import re\n    pattern=re.compile(".*a[0-5].*")\n    for i in range(len(txt)):\n    ## encontrar el primer email\n        s=txt[:i]\n        if pattern.search(s):\n            response.write(\'Se ha encontrado a1 o a2 o a3 \\r o a4 o a5 o a0\\n\')\n        elif not pattern.search(s) and i==(len(txt)-1):\n            response.write(\'Nanai contrai\')\n        \n    response.write(\'La len(txt) es \'+str(len(txt))+\' y la i es \'+str(i))\n    response.write(\'*********************\')\n\n    cont=0\n    for i in xrange(0,4):\n        cont=cont+1\n        response.write(\'Para el valor i \'+str(i)+\' el contador se pone a \'+str(cont))\n    response.write(\' y el resultado final es de i \'+str(i)+\' el contador se pone a \'+str(cont)+\'. \')\n    i=0\n    while i<len(txt):\n        response.write(txt[i]+\'-\')\n        i=i+1\n    response.write(\'. La len(txt) es de \'+str(len(txt))+\' y la i se ha quedado en \'+str(i))\n    db.info.insert(texto="Vete a Cascarla")\n    \n    return dict(form=form)\n    \ndef entrada_mod1():\n    form=SQLFORM(db.info2)\n    if form.accepts(request.vars,session): pass\n    i=0\n    # while  not db.info2[i].texto==\'\':\n    #    response.write(i)\n    #    i=i+1\n    db.info2.insert(texto=\'Vete a cascarla\')\n    \n    return dict(form=form)\n    \ndef salto():\n    for x in range (10):\n        response . write (x)\n        response . write ( \'hello<br />\' , escape=False )\n    return dict(x=x)\n    \ndef entrada_mod2():\n    form=SQLFORM(db.persona)\n    if form.accepts(request.vars,session):pass\n    \n    form2=SQLFORM(db.perro)\n    if form2.accepts(request.vars,session):pass\n    \n    return dict(form=form,form2=form2)\n    \ndef entrada_mod3():\n    form=SQLFORM(db.info3)\n    if form.accepts(request.vars,session):pass\n    \n    return dict(form=form)\n\nresponse._vars=response._caller(entrada_mod3)\n'
p6
sS'snapshot'
p7
(dp8
S'exception'
p9
(dp10
S'__hash__'
p11
S"<method-wrapper '__hash__' of exceptions.KeyError object at 0x08ED1B48>"
p12
sS'__setattr__'
p13
S"<method-wrapper '__setattr__' of exceptions.KeyError object at 0x08ED1B48>"
p14
sS'__reduce_ex__'
p15
S'<built-in method __reduce_ex__ of exceptions.KeyError object at 0x08ED1B48>'
p16
sS'__getslice__'
p17
S"<method-wrapper '__getslice__' of exceptions.KeyError object at 0x08ED1B48>"
p18
sS'__getitem__'
p19
S"<method-wrapper '__getitem__' of exceptions.KeyError object at 0x08ED1B48>"
p20
sS'__setstate__'
p21
S'<built-in method __setstate__ of exceptions.KeyError object at 0x08ED1B48>'
p22
sS'__reduce__'
p23
S'<built-in method __reduce__ of exceptions.KeyError object at 0x08ED1B48>'
p24
sS'__str__'
p25
S"<method-wrapper '__str__' of exceptions.KeyError object at 0x08ED1B48>"
p26
sS'args'
p27
S"('info3',)"
p28
sS'__getattribute__'
p29
S"<method-wrapper '__getattribute__' of exceptions.KeyError object at 0x08ED1B48>"
p30
sS'__class__'
p31
S"<type 'exceptions.KeyError'>"
p32
sS'__delattr__'
p33
S"<method-wrapper '__delattr__' of exceptions.KeyError object at 0x08ED1B48>"
p34
sS'__repr__'
p35
S"<method-wrapper '__repr__' of exceptions.KeyError object at 0x08ED1B48>"
p36
sS'__dict__'
p37
S'{}'
p38
sS'__doc__'
p39
S"'Mapping key not found.'"
p40
sS'__init__'
p41
S"<method-wrapper '__init__' of exceptions.KeyError object at 0x08ED1B48>"
p42
sS'__new__'
p43
S'<built-in method __new__ of type object at 0x1E1CDFB8>'
p44
ssS'evalue'
p45
S"'info3'"
p46
sS'request'
p47
ccopy_reg
_reconstructor
p48
(cgluon.html
BEAUTIFY
p49
c__builtin__
object
p50
NtRp51
(dp52
S'attributes'
p53
(dp54
sS'components'
p55
(lp56
g48
(cgluon.html
TABLE
p57
g50
NtRp58
(dp59
g53
(dp60
S'level'
p61
I5
ssS'parent'
p62
Nsg55
(lp63
g48
(cgluon.html
TR
p64
g50
NtRp65
(dp66
g53
(dp67
sg62
g58
sg55
(lp68
g48
(cgluon.html
TD
p69
g50
NtRp70
(dp71
g53
(dp72
S'_style'
p73
S'font-weight:bold;'
p74
ssg62
g65
sg55
(lp75
S'ajax'
p76
asbag48
(g69
g50
NtRp77
(dp78
g53
(dp79
S'_valign'
p80
S'top'
p81
ssg62
g65
sg55
(lp82
S':'
asbag48
(g69
g50
NtRp83
(dp84
g53
(dp85
sg62
g65
sg55
(lp86
g48
(g49
g50
NtRp87
(dp88
g53
(dp89
g61
I5
ssg62
g83
sg55
(lp90
S'False'
p91
asbasbasbag48
(g64
g50
NtRp92
(dp93
g53
(dp94
sg62
g58
sg55
(lp95
g48
(g69
g50
NtRp96
(dp97
g53
(dp98
g73
g74
ssg62
g92
sg55
(lp99
S'application'
p100
asbag48
(g69
g50
NtRp101
(dp102
g53
(dp103
g80
g81
ssg62
g92
sg55
(lp104
S':'
asbag48
(g69
g50
NtRp105
(dp106
g53
(dp107
sg62
g92
sg55
(lp108
g48
(g49
g50
NtRp109
(dp110
g53
(dp111
g61
I5
ssg62
g105
sg55
(lp112
S'Desglosar_Emails'
p113
asbasbasbag48
(g64
g50
NtRp114
(dp115
g53
(dp116
sg62
g58
sg55
(lp117
g48
(g69
g50
NtRp118
(dp119
g53
(dp120
g73
g74
ssg62
g114
sg55
(lp121
g27
asbag48
(g69
g50
NtRp122
(dp123
g53
(dp124
g80
g81
ssg62
g114
sg55
(lp125
S':'
asbag48
(g69
g50
NtRp126
(dp127
g53
(dp128
sg62
g114
sg55
(lp129
g48
(g49
g50
NtRp130
(dp131
g53
(dp132
g61
I5
ssg62
g126
sg55
(lp133
g48
(g57
g50
NtRp134
(dp135
g53
(dp136
g61
I4
ssg62
Nsg55
(lp137
sbasbasbasbag48
(g64
g50
NtRp138
(dp139
g53
(dp140
sg62
g58
sg55
(lp141
g48
(g69
g50
NtRp142
(dp143
g53
(dp144
g73
g74
ssg62
g138
sg55
(lp145
S'body'
p146
asbag48
(g69
g50
NtRp147
(dp148
g53
(dp149
g80
g81
ssg62
g138
sg55
(lp150
S':'
asbag48
(g69
g50
NtRp151
(dp152
g53
(dp153
sg62
g138
sg55
(lp154
g48
(g49
g50
NtRp155
(dp156
g53
(dp157
g61
I5
ssg62
g151
sg55
(lp158
S'<cStringIO.StringO object at 0x088C0F60>'
p159
asbasbasbag48
(g64
g50
NtRp160
(dp161
g53
(dp162
sg62
g58
sg55
(lp163
g48
(g69
g50
NtRp164
(dp165
g53
(dp166
g73
g74
ssg62
g160
sg55
(lp167
S'client'
p168
asbag48
(g69
g50
NtRp169
(dp170
g53
(dp171
g80
g81
ssg62
g160
sg55
(lp172
S':'
asbag48
(g69
g50
NtRp173
(dp174
g53
(dp175
sg62
g160
sg55
(lp176
g48
(g49
g50
NtRp177
(dp178
g53
(dp179
g61
I5
ssg62
g173
sg55
(lp180
S'127.0.0.1'
p181
asbasbasbag48
(g64
g50
NtRp182
(dp183
g53
(dp184
sg62
g58
sg55
(lp185
g48
(g69
g50
NtRp186
(dp187
g53
(dp188
g73
g74
ssg62
g182
sg55
(lp189
S'controller'
p190
asbag48
(g69
g50
NtRp191
(dp192
g53
(dp193
g80
g81
ssg62
g182
sg55
(lp194
S':'
asbag48
(g69
g50
NtRp195
(dp196
g53
(dp197
sg62
g182
sg55
(lp198
g48
(g49
g50
NtRp199
(dp200
g53
(dp201
g61
I5
ssg62
g195
sg55
(lp202
S'default'
p203
asbasbasbag48
(g64
g50
NtRp204
(dp205
g53
(dp206
sg62
g58
sg55
(lp207
g48
(g69
g50
NtRp208
(dp209
g53
(dp210
g73
g74
ssg62
g204
sg55
(lp211
S'cookies'
p212
asbag48
(g69
g50
NtRp213
(dp214
g53
(dp215
g80
g81
ssg62
g204
sg55
(lp216
S':'
asbag48
(g69
g50
NtRp217
(dp218
g53
(dp219
sg62
g204
sg55
(lp220
g48
(g49
g50
NtRp221
(dp222
g53
(dp223
g61
I5
ssg62
g217
sg55
(lp224
g48
(g57
g50
NtRp225
(dp226
g53
(dp227
g61
I4
ssg62
Nsg55
(lp228
g48
(g64
g50
NtRp229
(dp230
g53
(dp231
sg62
g225
sg55
(lp232
g48
(g69
g50
NtRp233
(dp234
g53
(dp235
g73
g74
ssg62
g229
sg55
(lp236
S'session_id_admin'
p237
asbag48
(g69
g50
NtRp238
(dp239
g53
(dp240
g80
g81
ssg62
g229
sg55
(lp241
S':'
asbag48
(g69
g50
NtRp242
(dp243
g53
(dp244
sg62
g229
sg55
(lp245
g48
(g49
g50
NtRp246
(dp247
g53
(dp248
g61
I4
ssg62
g242
sg55
(lp249
g48
(g57
g50
NtRp250
(dp251
g53
(dp252
g61
I3
ssg62
Nsg55
(lp253
g48
(g64
g50
NtRp254
(dp255
g53
(dp256
sg62
g250
sg55
(lp257
g48
(g69
g50
NtRp258
(dp259
g53
(dp260
g73
g74
ssg62
g254
sg55
(lp261
S'comment'
p262
asbag48
(g69
g50
NtRp263
(dp264
g53
(dp265
g80
g81
ssg62
g254
sg55
(lp266
S':'
asbag48
(g69
g50
NtRp267
(dp268
g53
(dp269
sg62
g254
sg55
(lp270
g48
(g49
g50
NtRp271
(dp272
g53
(dp273
g61
I3
ssg62
g267
sg55
(lp274
S''
asbasbasbag48
(g64
g50
NtRp275
(dp276
g53
(dp277
sg62
g250
sg55
(lp278
g48
(g69
g50
NtRp279
(dp280
g53
(dp281
g73
g74
ssg62
g275
sg55
(lp282
S'domain'
p283
asbag48
(g69
g50
NtRp284
(dp285
g53
(dp286
g80
g81
ssg62
g275
sg55
(lp287
S':'
asbag48
(g69
g50
NtRp288
(dp289
g53
(dp290
sg62
g275
sg55
(lp291
g48
(g49
g50
NtRp292
(dp293
g53
(dp294
g61
I3
ssg62
g288
sg55
(lp295
S''
asbasbasbag48
(g64
g50
NtRp296
(dp297
g53
(dp298
sg62
g250
sg55
(lp299
g48
(g69
g50
NtRp300
(dp301
g53
(dp302
g73
g74
ssg62
g296
sg55
(lp303
S'expires'
p304
asbag48
(g69
g50
NtRp305
(dp306
g53
(dp307
g80
g81
ssg62
g296
sg55
(lp308
S':'
asbag48
(g69
g50
NtRp309
(dp310
g53
(dp311
sg62
g296
sg55
(lp312
g48
(g49
g50
NtRp313
(dp314
g53
(dp315
g61
I3
ssg62
g309
sg55
(lp316
S''
asbasbasbag48
(g64
g50
NtRp317
(dp318
g53
(dp319
sg62
g250
sg55
(lp320
g48
(g69
g50
NtRp321
(dp322
g53
(dp323
g73
g74
ssg62
g317
sg55
(lp324
S'max-age'
p325
asbag48
(g69
g50
NtRp326
(dp327
g53
(dp328
g80
g81
ssg62
g317
sg55
(lp329
S':'
asbag48
(g69
g50
NtRp330
(dp331
g53
(dp332
sg62
g317
sg55
(lp333
g48
(g49
g50
NtRp334
(dp335
g53
(dp336
g61
I3
ssg62
g330
sg55
(lp337
S''
asbasbasbag48
(g64
g50
NtRp338
(dp339
g53
(dp340
sg62
g250
sg55
(lp341
g48
(g69
g50
NtRp342
(dp343
g53
(dp344
g73
g74
ssg62
g338
sg55
(lp345
S'path'
p346
asbag48
(g69
g50
NtRp347
(dp348
g53
(dp349
g80
g81
ssg62
g338
sg55
(lp350
S':'
asbag48
(g69
g50
NtRp351
(dp352
g53
(dp353
sg62
g338
sg55
(lp354
g48
(g49
g50
NtRp355
(dp356
g53
(dp357
g61
I3
ssg62
g351
sg55
(lp358
S''
asbasbasbag48
(g64
g50
NtRp359
(dp360
g53
(dp361
sg62
g250
sg55
(lp362
g48
(g69
g50
NtRp363
(dp364
g53
(dp365
g73
g74
ssg62
g359
sg55
(lp366
S'secure'
p367
asbag48
(g69
g50
NtRp368
(dp369
g53
(dp370
g80
g81
ssg62
g359
sg55
(lp371
S':'
asbag48
(g69
g50
NtRp372
(dp373
g53
(dp374
sg62
g359
sg55
(lp375
g48
(g49
g50
NtRp376
(dp377
g53
(dp378
g61
I3
ssg62
g372
sg55
(lp379
S''
asbasbasbag48
(g64
g50
NtRp380
(dp381
g53
(dp382
sg62
g250
sg55
(lp383
g48
(g69
g50
NtRp384
(dp385
g53
(dp386
g73
g74
ssg62
g380
sg55
(lp387
S'version'
p388
asbag48
(g69
g50
NtRp389
(dp390
g53
(dp391
g80
g81
ssg62
g380
sg55
(lp392
S':'
asbag48
(g69
g50
NtRp393
(dp394
g53
(dp395
sg62
g380
sg55
(lp396
g48
(g49
g50
NtRp397
(dp398
g53
(dp399
g61
I3
ssg62
g393
sg55
(lp400
S''
asbasbasbasbasbasbasbag48
(g64
g50
NtRp401
(dp402
g53
(dp403
sg62
g225
sg55
(lp404
g48
(g69
g50
NtRp405
(dp406
g53
(dp407
g73
g74
ssg62
g401
sg55
(lp408
S'session_id_borrar2'
p409
asbag48
(g69
g50
NtRp410
(dp411
g53
(dp412
g80
g81
ssg62
g401
sg55
(lp413
S':'
asbag48
(g69
g50
NtRp414
(dp415
g53
(dp416
sg62
g401
sg55
(lp417
g48
(g49
g50
NtRp418
(dp419
g53
(dp420
g61
I4
ssg62
g414
sg55
(lp421
g48
(g57
g50
NtRp422
(dp423
g53
(dp424
g61
I3
ssg62
Nsg55
(lp425
g48
(g64
g50
NtRp426
(dp427
g53
(dp428
sg62
g422
sg55
(lp429
g48
(g69
g50
NtRp430
(dp431
g53
(dp432
g73
g74
ssg62
g426
sg55
(lp433
g262
asbag48
(g69
g50
NtRp434
(dp435
g53
(dp436
g80
g81
ssg62
g426
sg55
(lp437
S':'
asbag48
(g69
g50
NtRp438
(dp439
g53
(dp440
sg62
g426
sg55
(lp441
g48
(g49
g50
NtRp442
(dp443
g53
(dp444
g61
I3
ssg62
g438
sg55
(lp445
S''
asbasbasbag48
(g64
g50
NtRp446
(dp447
g53
(dp448
sg62
g422
sg55
(lp449
g48
(g69
g50
NtRp450
(dp451
g53
(dp452
g73
g74
ssg62
g446
sg55
(lp453
g283
asbag48
(g69
g50
NtRp454
(dp455
g53
(dp456
g80
g81
ssg62
g446
sg55
(lp457
S':'
asbag48
(g69
g50
NtRp458
(dp459
g53
(dp460
sg62
g446
sg55
(lp461
g48
(g49
g50
NtRp462
(dp463
g53
(dp464
g61
I3
ssg62
g458
sg55
(lp465
S''
asbasbasbag48
(g64
g50
NtRp466
(dp467
g53
(dp468
sg62
g422
sg55
(lp469
g48
(g69
g50
NtRp470
(dp471
g53
(dp472
g73
g74
ssg62
g466
sg55
(lp473
g304
asbag48
(g69
g50
NtRp474
(dp475
g53
(dp476
g80
g81
ssg62
g466
sg55
(lp477
S':'
asbag48
(g69
g50
NtRp478
(dp479
g53
(dp480
sg62
g466
sg55
(lp481
g48
(g49
g50
NtRp482
(dp483
g53
(dp484
g61
I3
ssg62
g478
sg55
(lp485
S''
asbasbasbag48
(g64
g50
NtRp486
(dp487
g53
(dp488
sg62
g422
sg55
(lp489
g48
(g69
g50
NtRp490
(dp491
g53
(dp492
g73
g74
ssg62
g486
sg55
(lp493
g325
asbag48
(g69
g50
NtRp494
(dp495
g53
(dp496
g80
g81
ssg62
g486
sg55
(lp497
S':'
asbag48
(g69
g50
NtRp498
(dp499
g53
(dp500
sg62
g486
sg55
(lp501
g48
(g49
g50
NtRp502
(dp503
g53
(dp504
g61
I3
ssg62
g498
sg55
(lp505
S''
asbasbasbag48
(g64
g50
NtRp506
(dp507
g53
(dp508
sg62
g422
sg55
(lp509
g48
(g69
g50
NtRp510
(dp511
g53
(dp512
g73
g74
ssg62
g506
sg55
(lp513
g346
asbag48
(g69
g50
NtRp514
(dp515
g53
(dp516
g80
g81
ssg62
g506
sg55
(lp517
S':'
asbag48
(g69
g50
NtRp518
(dp519
g53
(dp520
sg62
g506
sg55
(lp521
g48
(g49
g50
NtRp522
(dp523
g53
(dp524
g61
I3
ssg62
g518
sg55
(lp525
S''
asbasbasbag48
(g64
g50
NtRp526
(dp527
g53
(dp528
sg62
g422
sg55
(lp529
g48
(g69
g50
NtRp530
(dp531
g53
(dp532
g73
g74
ssg62
g526
sg55
(lp533
g367
asbag48
(g69
g50
NtRp534
(dp535
g53
(dp536
g80
g81
ssg62
g526
sg55
(lp537
S':'
asbag48
(g69
g50
NtRp538
(dp539
g53
(dp540
sg62
g526
sg55
(lp541
g48
(g49
g50
NtRp542
(dp543
g53
(dp544
g61
I3
ssg62
g538
sg55
(lp545
S''
asbasbasbag48
(g64
g50
NtRp546
(dp547
g53
(dp548
sg62
g422
sg55
(lp549
g48
(g69
g50
NtRp550
(dp551
g53
(dp552
g73
g74
ssg62
g546
sg55
(lp553
g388
asbag48
(g69
g50
NtRp554
(dp555
g53
(dp556
g80
g81
ssg62
g546
sg55
(lp557
S':'
asbag48
(g69
g50
NtRp558
(dp559
g53
(dp560
sg62
g546
sg55
(lp561
g48
(g49
g50
NtRp562
(dp563
g53
(dp564
g61
I3
ssg62
g558
sg55
(lp565
S''
asbasbasbasbasbasbasbag48
(g64
g50
NtRp566
(dp567
g53
(dp568
sg62
g225
sg55
(lp569
g48
(g69
g50
NtRp570
(dp571
g53
(dp572
g73
g74
ssg62
g566
sg55
(lp573
S'session_id_cual_es_tu_nombre'
p574
asbag48
(g69
g50
NtRp575
(dp576
g53
(dp577
g80
g81
ssg62
g566
sg55
(lp578
S':'
asbag48
(g69
g50
NtRp579
(dp580
g53
(dp581
sg62
g566
sg55
(lp582
g48
(g49
g50
NtRp583
(dp584
g53
(dp585
g61
I4
ssg62
g579
sg55
(lp586
g48
(g57
g50
NtRp587
(dp588
g53
(dp589
g61
I3
ssg62
Nsg55
(lp590
g48
(g64
g50
NtRp591
(dp592
g53
(dp593
sg62
g587
sg55
(lp594
g48
(g69
g50
NtRp595
(dp596
g53
(dp597
g73
g74
ssg62
g591
sg55
(lp598
g262
asbag48
(g69
g50
NtRp599
(dp600
g53
(dp601
g80
g81
ssg62
g591
sg55
(lp602
S':'
asbag48
(g69
g50
NtRp603
(dp604
g53
(dp605
sg62
g591
sg55
(lp606
g48
(g49
g50
NtRp607
(dp608
g53
(dp609
g61
I3
ssg62
g603
sg55
(lp610
S''
asbasbasbag48
(g64
g50
NtRp611
(dp612
g53
(dp613
sg62
g587
sg55
(lp614
g48
(g69
g50
NtRp615
(dp616
g53
(dp617
g73
g74
ssg62
g611
sg55
(lp618
g283
asbag48
(g69
g50
NtRp619
(dp620
g53
(dp621
g80
g81
ssg62
g611
sg55
(lp622
S':'
asbag48
(g69
g50
NtRp623
(dp624
g53
(dp625
sg62
g611
sg55
(lp626
g48
(g49
g50
NtRp627
(dp628
g53
(dp629
g61
I3
ssg62
g623
sg55
(lp630
S''
asbasbasbag48
(g64
g50
NtRp631
(dp632
g53
(dp633
sg62
g587
sg55
(lp634
g48
(g69
g50
NtRp635
(dp636
g53
(dp637
g73
g74
ssg62
g631
sg55
(lp638
g304
asbag48
(g69
g50
NtRp639
(dp640
g53
(dp641
g80
g81
ssg62
g631
sg55
(lp642
S':'
asbag48
(g69
g50
NtRp643
(dp644
g53
(dp645
sg62
g631
sg55
(lp646
g48
(g49
g50
NtRp647
(dp648
g53
(dp649
g61
I3
ssg62
g643
sg55
(lp650
S''
asbasbasbag48
(g64
g50
NtRp651
(dp652
g53
(dp653
sg62
g587
sg55
(lp654
g48
(g69
g50
NtRp655
(dp656
g53
(dp657
g73
g74
ssg62
g651
sg55
(lp658
g325
asbag48
(g69
g50
NtRp659
(dp660
g53
(dp661
g80
g81
ssg62
g651
sg55
(lp662
S':'
asbag48
(g69
g50
NtRp663
(dp664
g53
(dp665
sg62
g651
sg55
(lp666
g48
(g49
g50
NtRp667
(dp668
g53
(dp669
g61
I3
ssg62
g663
sg55
(lp670
S''
asbasbasbag48
(g64
g50
NtRp671
(dp672
g53
(dp673
sg62
g587
sg55
(lp674
g48
(g69
g50
NtRp675
(dp676
g53
(dp677
g73
g74
ssg62
g671
sg55
(lp678
g346
asbag48
(g69
g50
NtRp679
(dp680
g53
(dp681
g80
g81
ssg62
g671
sg55
(lp682
S':'
asbag48
(g69
g50
NtRp683
(dp684
g53
(dp685
sg62
g671
sg55
(lp686
g48
(g49
g50
NtRp687
(dp688
g53
(dp689
g61
I3
ssg62
g683
sg55
(lp690
S''
asbasbasbag48
(g64
g50
NtRp691
(dp692
g53
(dp693
sg62
g587
sg55
(lp694
g48
(g69
g50
NtRp695
(dp696
g53
(dp697
g73
g74
ssg62
g691
sg55
(lp698
g367
asbag48
(g69
g50
NtRp699
(dp700
g53
(dp701
g80
g81
ssg62
g691
sg55
(lp702
S':'
asbag48
(g69
g50
NtRp703
(dp704
g53
(dp705
sg62
g691
sg55
(lp706
g48
(g49
g50
NtRp707
(dp708
g53
(dp709
g61
I3
ssg62
g703
sg55
(lp710
S''
asbasbasbag48
(g64
g50
NtRp711
(dp712
g53
(dp713
sg62
g587
sg55
(lp714
g48
(g69
g50
NtRp715
(dp716
g53
(dp717
g73
g74
ssg62
g711
sg55
(lp718
g388
asbag48
(g69
g50
NtRp719
(dp720
g53
(dp721
g80
g81
ssg62
g711
sg55
(lp722
S':'
asbag48
(g69
g50
NtRp723
(dp724
g53
(dp725
sg62
g711
sg55
(lp726
g48
(g49
g50
NtRp727
(dp728
g53
(dp729
g61
I3
ssg62
g723
sg55
(lp730
S''
asbasbasbasbasbasbasbag48
(g64
g50
NtRp731
(dp732
g53
(dp733
sg62
g225
sg55
(lp734
g48
(g69
g50
NtRp735
(dp736
g53
(dp737
g73
g74
ssg62
g731
sg55
(lp738
S'session_id_desglosar_emails'
p739
asbag48
(g69
g50
NtRp740
(dp741
g53
(dp742
g80
g81
ssg62
g731
sg55
(lp743
S':'
asbag48
(g69
g50
NtRp744
(dp745
g53
(dp746
sg62
g731
sg55
(lp747
g48
(g49
g50
NtRp748
(dp749
g53
(dp750
g61
I4
ssg62
g744
sg55
(lp751
g48
(g57
g50
NtRp752
(dp753
g53
(dp754
g61
I3
ssg62
Nsg55
(lp755
g48
(g64
g50
NtRp756
(dp757
g53
(dp758
sg62
g752
sg55
(lp759
g48
(g69
g50
NtRp760
(dp761
g53
(dp762
g73
g74
ssg62
g756
sg55
(lp763
g262
asbag48
(g69
g50
NtRp764
(dp765
g53
(dp766
g80
g81
ssg62
g756
sg55
(lp767
S':'
asbag48
(g69
g50
NtRp768
(dp769
g53
(dp770
sg62
g756
sg55
(lp771
g48
(g49
g50
NtRp772
(dp773
g53
(dp774
g61
I3
ssg62
g768
sg55
(lp775
S''
asbasbasbag48
(g64
g50
NtRp776
(dp777
g53
(dp778
sg62
g752
sg55
(lp779
g48
(g69
g50
NtRp780
(dp781
g53
(dp782
g73
g74
ssg62
g776
sg55
(lp783
g283
asbag48
(g69
g50
NtRp784
(dp785
g53
(dp786
g80
g81
ssg62
g776
sg55
(lp787
S':'
asbag48
(g69
g50
NtRp788
(dp789
g53
(dp790
sg62
g776
sg55
(lp791
g48
(g49
g50
NtRp792
(dp793
g53
(dp794
g61
I3
ssg62
g788
sg55
(lp795
S''
asbasbasbag48
(g64
g50
NtRp796
(dp797
g53
(dp798
sg62
g752
sg55
(lp799
g48
(g69
g50
NtRp800
(dp801
g53
(dp802
g73
g74
ssg62
g796
sg55
(lp803
g304
asbag48
(g69
g50
NtRp804
(dp805
g53
(dp806
g80
g81
ssg62
g796
sg55
(lp807
S':'
asbag48
(g69
g50
NtRp808
(dp809
g53
(dp810
sg62
g796
sg55
(lp811
g48
(g49
g50
NtRp812
(dp813
g53
(dp814
g61
I3
ssg62
g808
sg55
(lp815
S''
asbasbasbag48
(g64
g50
NtRp816
(dp817
g53
(dp818
sg62
g752
sg55
(lp819
g48
(g69
g50
NtRp820
(dp821
g53
(dp822
g73
g74
ssg62
g816
sg55
(lp823
g325
asbag48
(g69
g50
NtRp824
(dp825
g53
(dp826
g80
g81
ssg62
g816
sg55
(lp827
S':'
asbag48
(g69
g50
NtRp828
(dp829
g53
(dp830
sg62
g816
sg55
(lp831
g48
(g49
g50
NtRp832
(dp833
g53
(dp834
g61
I3
ssg62
g828
sg55
(lp835
S''
asbasbasbag48
(g64
g50
NtRp836
(dp837
g53
(dp838
sg62
g752
sg55
(lp839
g48
(g69
g50
NtRp840
(dp841
g53
(dp842
g73
g74
ssg62
g836
sg55
(lp843
g346
asbag48
(g69
g50
NtRp844
(dp845
g53
(dp846
g80
g81
ssg62
g836
sg55
(lp847
S':'
asbag48
(g69
g50
NtRp848
(dp849
g53
(dp850
sg62
g836
sg55
(lp851
g48
(g49
g50
NtRp852
(dp853
g53
(dp854
g61
I3
ssg62
g848
sg55
(lp855
S''
asbasbasbag48
(g64
g50
NtRp856
(dp857
g53
(dp858
sg62
g752
sg55
(lp859
g48
(g69
g50
NtRp860
(dp861
g53
(dp862
g73
g74
ssg62
g856
sg55
(lp863
g367
asbag48
(g69
g50
NtRp864
(dp865
g53
(dp866
g80
g81
ssg62
g856
sg55
(lp867
S':'
asbag48
(g69
g50
NtRp868
(dp869
g53
(dp870
sg62
g856
sg55
(lp871
g48
(g49
g50
NtRp872
(dp873
g53
(dp874
g61
I3
ssg62
g868
sg55
(lp875
S''
asbasbasbag48
(g64
g50
NtRp876
(dp877
g53
(dp878
sg62
g752
sg55
(lp879
g48
(g69
g50
NtRp880
(dp881
g53
(dp882
g73
g74
ssg62
g876
sg55
(lp883
g388
asbag48
(g69
g50
NtRp884
(dp885
g53
(dp886
g80
g81
ssg62
g876
sg55
(lp887
S':'
asbag48
(g69
g50
NtRp888
(dp889
g53
(dp890
sg62
g876
sg55
(lp891
g48
(g49
g50
NtRp892
(dp893
g53
(dp894
g61
I3
ssg62
g888
sg55
(lp895
S''
asbasbasbasbasbasbasbag48
(g64
g50
NtRp896
(dp897
g53
(dp898
sg62
g225
sg55
(lp899
g48
(g69
g50
NtRp900
(dp901
g53
(dp902
g73
g74
ssg62
g896
sg55
(lp903
S'session_id_hemoal'
p904
asbag48
(g69
g50
NtRp905
(dp906
g53
(dp907
g80
g81
ssg62
g896
sg55
(lp908
S':'
asbag48
(g69
g50
NtRp909
(dp910
g53
(dp911
sg62
g896
sg55
(lp912
g48
(g49
g50
NtRp913
(dp914
g53
(dp915
g61
I4
ssg62
g909
sg55
(lp916
g48
(g57
g50
NtRp917
(dp918
g53
(dp919
g61
I3
ssg62
Nsg55
(lp920
g48
(g64
g50
NtRp921
(dp922
g53
(dp923
sg62
g917
sg55
(lp924
g48
(g69
g50
NtRp925
(dp926
g53
(dp927
g73
g74
ssg62
g921
sg55
(lp928
g262
asbag48
(g69
g50
NtRp929
(dp930
g53
(dp931
g80
g81
ssg62
g921
sg55
(lp932
S':'
asbag48
(g69
g50
NtRp933
(dp934
g53
(dp935
sg62
g921
sg55
(lp936
g48
(g49
g50
NtRp937
(dp938
g53
(dp939
g61
I3
ssg62
g933
sg55
(lp940
S''
asbasbasbag48
(g64
g50
NtRp941
(dp942
g53
(dp943
sg62
g917
sg55
(lp944
g48
(g69
g50
NtRp945
(dp946
g53
(dp947
g73
g74
ssg62
g941
sg55
(lp948
g283
asbag48
(g69
g50
NtRp949
(dp950
g53
(dp951
g80
g81
ssg62
g941
sg55
(lp952
S':'
asbag48
(g69
g50
NtRp953
(dp954
g53
(dp955
sg62
g941
sg55
(lp956
g48
(g49
g50
NtRp957
(dp958
g53
(dp959
g61
I3
ssg62
g953
sg55
(lp960
S''
asbasbasbag48
(g64
g50
NtRp961
(dp962
g53
(dp963
sg62
g917
sg55
(lp964
g48
(g69
g50
NtRp965
(dp966
g53
(dp967
g73
g74
ssg62
g961
sg55
(lp968
g304
asbag48
(g69
g50
NtRp969
(dp970
g53
(dp971
g80
g81
ssg62
g961
sg55
(lp972
S':'
asbag48
(g69
g50
NtRp973
(dp974
g53
(dp975
sg62
g961
sg55
(lp976
g48
(g49
g50
NtRp977
(dp978
g53
(dp979
g61
I3
ssg62
g973
sg55
(lp980
S''
asbasbasbag48
(g64
g50
NtRp981
(dp982
g53
(dp983
sg62
g917
sg55
(lp984
g48
(g69
g50
NtRp985
(dp986
g53
(dp987
g73
g74
ssg62
g981
sg55
(lp988
g325
asbag48
(g69
g50
NtRp989
(dp990
g53
(dp991
g80
g81
ssg62
g981
sg55
(lp992
S':'
asbag48
(g69
g50
NtRp993
(dp994
g53
(dp995
sg62
g981
sg55
(lp996
g48
(g49
g50
NtRp997
(dp998
g53
(dp999
g61
I3
ssg62
g993
sg55
(lp1000
S''
asbasbasbag48
(g64
g50
NtRp1001
(dp1002
g53
(dp1003
sg62
g917
sg55
(lp1004
g48
(g69
g50
NtRp1005
(dp1006
g53
(dp1007
g73
g74
ssg62
g1001
sg55
(lp1008
g346
asbag48
(g69
g50
NtRp1009
(dp1010
g53
(dp1011
g80
g81
ssg62
g1001
sg55
(lp1012
S':'
asbag48
(g69
g50
NtRp1013
(dp1014
g53
(dp1015
sg62
g1001
sg55
(lp1016
g48
(g49
g50
NtRp1017
(dp1018
g53
(dp1019
g61
I3
ssg62
g1013
sg55
(lp1020
S''
asbasbasbag48
(g64
g50
NtRp1021
(dp1022
g53
(dp1023
sg62
g917
sg55
(lp1024
g48
(g69
g50
NtRp1025
(dp1026
g53
(dp1027
g73
g74
ssg62
g1021
sg55
(lp1028
g367
asbag48
(g69
g50
NtRp1029
(dp1030
g53
(dp1031
g80
g81
ssg62
g1021
sg55
(lp1032
S':'
asbag48
(g69
g50
NtRp1033
(dp1034
g53
(dp1035
sg62
g1021
sg55
(lp1036
g48
(g49
g50
NtRp1037
(dp1038
g53
(dp1039
g61
I3
ssg62
g1033
sg55
(lp1040
S''
asbasbasbag48
(g64
g50
NtRp1041
(dp1042
g53
(dp1043
sg62
g917
sg55
(lp1044
g48
(g69
g50
NtRp1045
(dp1046
g53
(dp1047
g73
g74
ssg62
g1041
sg55
(lp1048
g388
asbag48
(g69
g50
NtRp1049
(dp1050
g53
(dp1051
g80
g81
ssg62
g1041
sg55
(lp1052
S':'
asbag48
(g69
g50
NtRp1053
(dp1054
g53
(dp1055
sg62
g1041
sg55
(lp1056
g48
(g49
g50
NtRp1057
(dp1058
g53
(dp1059
g61
I3
ssg62
g1053
sg55
(lp1060
S''
asbasbasbasbasbasbasbag48
(g64
g50
NtRp1061
(dp1062
g53
(dp1063
sg62
g225
sg55
(lp1064
g48
(g69
g50
NtRp1065
(dp1066
g53
(dp1067
g73
g74
ssg62
g1061
sg55
(lp1068
S'session_id_listado_1'
p1069
asbag48
(g69
g50
NtRp1070
(dp1071
g53
(dp1072
g80
g81
ssg62
g1061
sg55
(lp1073
S':'
asbag48
(g69
g50
NtRp1074
(dp1075
g53
(dp1076
sg62
g1061
sg55
(lp1077
g48
(g49
g50
NtRp1078
(dp1079
g53
(dp1080
g61
I4
ssg62
g1074
sg55
(lp1081
g48
(g57
g50
NtRp1082
(dp1083
g53
(dp1084
g61
I3
ssg62
Nsg55
(lp1085
g48
(g64
g50
NtRp1086
(dp1087
g53
(dp1088
sg62
g1082
sg55
(lp1089
g48
(g69
g50
NtRp1090
(dp1091
g53
(dp1092
g73
g74
ssg62
g1086
sg55
(lp1093
g262
asbag48
(g69
g50
NtRp1094
(dp1095
g53
(dp1096
g80
g81
ssg62
g1086
sg55
(lp1097
S':'
asbag48
(g69
g50
NtRp1098
(dp1099
g53
(dp1100
sg62
g1086
sg55
(lp1101
g48
(g49
g50
NtRp1102
(dp1103
g53
(dp1104
g61
I3
ssg62
g1098
sg55
(lp1105
S''
asbasbasbag48
(g64
g50
NtRp1106
(dp1107
g53
(dp1108
sg62
g1082
sg55
(lp1109
g48
(g69
g50
NtRp1110
(dp1111
g53
(dp1112
g73
g74
ssg62
g1106
sg55
(lp1113
g283
asbag48
(g69
g50
NtRp1114
(dp1115
g53
(dp1116
g80
g81
ssg62
g1106
sg55
(lp1117
S':'
asbag48
(g69
g50
NtRp1118
(dp1119
g53
(dp1120
sg62
g1106
sg55
(lp1121
g48
(g49
g50
NtRp1122
(dp1123
g53
(dp1124
g61
I3
ssg62
g1118
sg55
(lp1125
S''
asbasbasbag48
(g64
g50
NtRp1126
(dp1127
g53
(dp1128
sg62
g1082
sg55
(lp1129
g48
(g69
g50
NtRp1130
(dp1131
g53
(dp1132
g73
g74
ssg62
g1126
sg55
(lp1133
g304
asbag48
(g69
g50
NtRp1134
(dp1135
g53
(dp1136
g80
g81
ssg62
g1126
sg55
(lp1137
S':'
asbag48
(g69
g50
NtRp1138
(dp1139
g53
(dp1140
sg62
g1126
sg55
(lp1141
g48
(g49
g50
NtRp1142
(dp1143
g53
(dp1144
g61
I3
ssg62
g1138
sg55
(lp1145
S''
asbasbasbag48
(g64
g50
NtRp1146
(dp1147
g53
(dp1148
sg62
g1082
sg55
(lp1149
g48
(g69
g50
NtRp1150
(dp1151
g53
(dp1152
g73
g74
ssg62
g1146
sg55
(lp1153
g325
asbag48
(g69
g50
NtRp1154
(dp1155
g53
(dp1156
g80
g81
ssg62
g1146
sg55
(lp1157
S':'
asbag48
(g69
g50
NtRp1158
(dp1159
g53
(dp1160
sg62
g1146
sg55
(lp1161
g48
(g49
g50
NtRp1162
(dp1163
g53
(dp1164
g61
I3
ssg62
g1158
sg55
(lp1165
S''
asbasbasbag48
(g64
g50
NtRp1166
(dp1167
g53
(dp1168
sg62
g1082
sg55
(lp1169
g48
(g69
g50
NtRp1170
(dp1171
g53
(dp1172
g73
g74
ssg62
g1166
sg55
(lp1173
g346
asbag48
(g69
g50
NtRp1174
(dp1175
g53
(dp1176
g80
g81
ssg62
g1166
sg55
(lp1177
S':'
asbag48
(g69
g50
NtRp1178
(dp1179
g53
(dp1180
sg62
g1166
sg55
(lp1181
g48
(g49
g50
NtRp1182
(dp1183
g53
(dp1184
g61
I3
ssg62
g1178
sg55
(lp1185
S''
asbasbasbag48
(g64
g50
NtRp1186
(dp1187
g53
(dp1188
sg62
g1082
sg55
(lp1189
g48
(g69
g50
NtRp1190
(dp1191
g53
(dp1192
g73
g74
ssg62
g1186
sg55
(lp1193
g367
asbag48
(g69
g50
NtRp1194
(dp1195
g53
(dp1196
g80
g81
ssg62
g1186
sg55
(lp1197
S':'
asbag48
(g69
g50
NtRp1198
(dp1199
g53
(dp1200
sg62
g1186
sg55
(lp1201
g48
(g49
g50
NtRp1202
(dp1203
g53
(dp1204
g61
I3
ssg62
g1198
sg55
(lp1205
S''
asbasbasbag48
(g64
g50
NtRp1206
(dp1207
g53
(dp1208
sg62
g1082
sg55
(lp1209
g48
(g69
g50
NtRp1210
(dp1211
g53
(dp1212
g73
g74
ssg62
g1206
sg55
(lp1213
g388
asbag48
(g69
g50
NtRp1214
(dp1215
g53
(dp1216
g80
g81
ssg62
g1206
sg55
(lp1217
S':'
asbag48
(g69
g50
NtRp1218
(dp1219
g53
(dp1220
sg62
g1206
sg55
(lp1221
g48
(g49
g50
NtRp1222
(dp1223
g53
(dp1224
g61
I3
ssg62
g1218
sg55
(lp1225
S''
asbasbasbasbasbasbasbag48
(g64
g50
NtRp1226
(dp1227
g53
(dp1228
sg62
g225
sg55
(lp1229
g48
(g69
g50
NtRp1230
(dp1231
g53
(dp1232
g73
g74
ssg62
g1226
sg55
(lp1233
S'session_id_myappjav'
p1234
asbag48
(g69
g50
NtRp1235
(dp1236
g53
(dp1237
g80
g81
ssg62
g1226
sg55
(lp1238
S':'
asbag48
(g69
g50
NtRp1239
(dp1240
g53
(dp1241
sg62
g1226
sg55
(lp1242
g48
(g49
g50
NtRp1243
(dp1244
g53
(dp1245
g61
I4
ssg62
g1239
sg55
(lp1246
g48
(g57
g50
NtRp1247
(dp1248
g53
(dp1249
g61
I3
ssg62
Nsg55
(lp1250
g48
(g64
g50
NtRp1251
(dp1252
g53
(dp1253
sg62
g1247
sg55
(lp1254
g48
(g69
g50
NtRp1255
(dp1256
g53
(dp1257
g73
g74
ssg62
g1251
sg55
(lp1258
g262
asbag48
(g69
g50
NtRp1259
(dp1260
g53
(dp1261
g80
g81
ssg62
g1251
sg55
(lp1262
S':'
asbag48
(g69
g50
NtRp1263
(dp1264
g53
(dp1265
sg62
g1251
sg55
(lp1266
g48
(g49
g50
NtRp1267
(dp1268
g53
(dp1269
g61
I3
ssg62
g1263
sg55
(lp1270
S''
asbasbasbag48
(g64
g50
NtRp1271
(dp1272
g53
(dp1273
sg62
g1247
sg55
(lp1274
g48
(g69
g50
NtRp1275
(dp1276
g53
(dp1277
g73
g74
ssg62
g1271
sg55
(lp1278
g283
asbag48
(g69
g50
NtRp1279
(dp1280
g53
(dp1281
g80
g81
ssg62
g1271
sg55
(lp1282
S':'
asbag48
(g69
g50
NtRp1283
(dp1284
g53
(dp1285
sg62
g1271
sg55
(lp1286
g48
(g49
g50
NtRp1287
(dp1288
g53
(dp1289
g61
I3
ssg62
g1283
sg55
(lp1290
S''
asbasbasbag48
(g64
g50
NtRp1291
(dp1292
g53
(dp1293
sg62
g1247
sg55
(lp1294
g48
(g69
g50
NtRp1295
(dp1296
g53
(dp1297
g73
g74
ssg62
g1291
sg55
(lp1298
g304
asbag48
(g69
g50
NtRp1299
(dp1300
g53
(dp1301
g80
g81
ssg62
g1291
sg55
(lp1302
S':'
asbag48
(g69
g50
NtRp1303
(dp1304
g53
(dp1305
sg62
g1291
sg55
(lp1306
g48
(g49
g50
NtRp1307
(dp1308
g53
(dp1309
g61
I3
ssg62
g1303
sg55
(lp1310
S''
asbasbasbag48
(g64
g50
NtRp1311
(dp1312
g53
(dp1313
sg62
g1247
sg55
(lp1314
g48
(g69
g50
NtRp1315
(dp1316
g53
(dp1317
g73
g74
ssg62
g1311
sg55
(lp1318
g325
asbag48
(g69
g50
NtRp1319
(dp1320
g53
(dp1321
g80
g81
ssg62
g1311
sg55
(lp1322
S':'
asbag48
(g69
g50
NtRp1323
(dp1324
g53
(dp1325
sg62
g1311
sg55
(lp1326
g48
(g49
g50
NtRp1327
(dp1328
g53
(dp1329
g61
I3
ssg62
g1323
sg55
(lp1330
S''
asbasbasbag48
(g64
g50
NtRp1331
(dp1332
g53
(dp1333
sg62
g1247
sg55
(lp1334
g48
(g69
g50
NtRp1335
(dp1336
g53
(dp1337
g73
g74
ssg62
g1331
sg55
(lp1338
g346
asbag48
(g69
g50
NtRp1339
(dp1340
g53
(dp1341
g80
g81
ssg62
g1331
sg55
(lp1342
S':'
asbag48
(g69
g50
NtRp1343
(dp1344
g53
(dp1345
sg62
g1331
sg55
(lp1346
g48
(g49
g50
NtRp1347
(dp1348
g53
(dp1349
g61
I3
ssg62
g1343
sg55
(lp1350
S''
asbasbasbag48
(g64
g50
NtRp1351
(dp1352
g53
(dp1353
sg62
g1247
sg55
(lp1354
g48
(g69
g50
NtRp1355
(dp1356
g53
(dp1357
g73
g74
ssg62
g1351
sg55
(lp1358
g367
asbag48
(g69
g50
NtRp1359
(dp1360
g53
(dp1361
g80
g81
ssg62
g1351
sg55
(lp1362
S':'
asbag48
(g69
g50
NtRp1363
(dp1364
g53
(dp1365
sg62
g1351
sg55
(lp1366
g48
(g49
g50
NtRp1367
(dp1368
g53
(dp1369
g61
I3
ssg62
g1363
sg55
(lp1370
S''
asbasbasbag48
(g64
g50
NtRp1371
(dp1372
g53
(dp1373
sg62
g1247
sg55
(lp1374
g48
(g69
g50
NtRp1375
(dp1376
g53
(dp1377
g73
g74
ssg62
g1371
sg55
(lp1378
g388
asbag48
(g69
g50
NtRp1379
(dp1380
g53
(dp1381
g80
g81
ssg62
g1371
sg55
(lp1382
S':'
asbag48
(g69
g50
NtRp1383
(dp1384
g53
(dp1385
sg62
g1371
sg55
(lp1386
g48
(g49
g50
NtRp1387
(dp1388
g53
(dp1389
g61
I3
ssg62
g1383
sg55
(lp1390
S''
asbasbasbasbasbasbasbag48
(g64
g50
NtRp1391
(dp1392
g53
(dp1393
sg62
g225
sg55
(lp1394
g48
(g69
g50
NtRp1395
(dp1396
g53
(dp1397
g73
g74
ssg62
g1391
sg55
(lp1398
S'session_id_welcome'
p1399
asbag48
(g69
g50
NtRp1400
(dp1401
g53
(dp1402
g80
g81
ssg62
g1391
sg55
(lp1403
S':'
asbag48
(g69
g50
NtRp1404
(dp1405
g53
(dp1406
sg62
g1391
sg55
(lp1407
g48
(g49
g50
NtRp1408
(dp1409
g53
(dp1410
g61
I4
ssg62
g1404
sg55
(lp1411
g48
(g57
g50
NtRp1412
(dp1413
g53
(dp1414
g61
I3
ssg62
Nsg55
(lp1415
g48
(g64
g50
NtRp1416
(dp1417
g53
(dp1418
sg62
g1412
sg55
(lp1419
g48
(g69
g50
NtRp1420
(dp1421
g53
(dp1422
g73
g74
ssg62
g1416
sg55
(lp1423
g262
asbag48
(g69
g50
NtRp1424
(dp1425
g53
(dp1426
g80
g81
ssg62
g1416
sg55
(lp1427
S':'
asbag48
(g69
g50
NtRp1428
(dp1429
g53
(dp1430
sg62
g1416
sg55
(lp1431
g48
(g49
g50
NtRp1432
(dp1433
g53
(dp1434
g61
I3
ssg62
g1428
sg55
(lp1435
S''
asbasbasbag48
(g64
g50
NtRp1436
(dp1437
g53
(dp1438
sg62
g1412
sg55
(lp1439
g48
(g69
g50
NtRp1440
(dp1441
g53
(dp1442
g73
g74
ssg62
g1436
sg55
(lp1443
g283
asbag48
(g69
g50
NtRp1444
(dp1445
g53
(dp1446
g80
g81
ssg62
g1436
sg55
(lp1447
S':'
asbag48
(g69
g50
NtRp1448
(dp1449
g53
(dp1450
sg62
g1436
sg55
(lp1451
g48
(g49
g50
NtRp1452
(dp1453
g53
(dp1454
g61
I3
ssg62
g1448
sg55
(lp1455
S''
asbasbasbag48
(g64
g50
NtRp1456
(dp1457
g53
(dp1458
sg62
g1412
sg55
(lp1459
g48
(g69
g50
NtRp1460
(dp1461
g53
(dp1462
g73
g74
ssg62
g1456
sg55
(lp1463
g304
asbag48
(g69
g50
NtRp1464
(dp1465
g53
(dp1466
g80
g81
ssg62
g1456
sg55
(lp1467
S':'
asbag48
(g69
g50
NtRp1468
(dp1469
g53
(dp1470
sg62
g1456
sg55
(lp1471
g48
(g49
g50
NtRp1472
(dp1473
g53
(dp1474
g61
I3
ssg62
g1468
sg55
(lp1475
S''
asbasbasbag48
(g64
g50
NtRp1476
(dp1477
g53
(dp1478
sg62
g1412
sg55
(lp1479
g48
(g69
g50
NtRp1480
(dp1481
g53
(dp1482
g73
g74
ssg62
g1476
sg55
(lp1483
g325
asbag48
(g69
g50
NtRp1484
(dp1485
g53
(dp1486
g80
g81
ssg62
g1476
sg55
(lp1487
S':'
asbag48
(g69
g50
NtRp1488
(dp1489
g53
(dp1490
sg62
g1476
sg55
(lp1491
g48
(g49
g50
NtRp1492
(dp1493
g53
(dp1494
g61
I3
ssg62
g1488
sg55
(lp1495
S''
asbasbasbag48
(g64
g50
NtRp1496
(dp1497
g53
(dp1498
sg62
g1412
sg55
(lp1499
g48
(g69
g50
NtRp1500
(dp1501
g53
(dp1502
g73
g74
ssg62
g1496
sg55
(lp1503
g346
asbag48
(g69
g50
NtRp1504
(dp1505
g53
(dp1506
g80
g81
ssg62
g1496
sg55
(lp1507
S':'
asbag48
(g69
g50
NtRp1508
(dp1509
g53
(dp1510
sg62
g1496
sg55
(lp1511
g48
(g49
g50
NtRp1512
(dp1513
g53
(dp1514
g61
I3
ssg62
g1508
sg55
(lp1515
S''
asbasbasbag48
(g64
g50
NtRp1516
(dp1517
g53
(dp1518
sg62
g1412
sg55
(lp1519
g48
(g69
g50
NtRp1520
(dp1521
g53
(dp1522
g73
g74
ssg62
g1516
sg55
(lp1523
g367
asbag48
(g69
g50
NtRp1524
(dp1525
g53
(dp1526
g80
g81
ssg62
g1516
sg55
(lp1527
S':'
asbag48
(g69
g50
NtRp1528
(dp1529
g53
(dp1530
sg62
g1516
sg55
(lp1531
g48
(g49
g50
NtRp1532
(dp1533
g53
(dp1534
g61
I3
ssg62
g1528
sg55
(lp1535
S''
asbasbasbag48
(g64
g50
NtRp1536
(dp1537
g53
(dp1538
sg62
g1412
sg55
(lp1539
g48
(g69
g50
NtRp1540
(dp1541
g53
(dp1542
g73
g74
ssg62
g1536
sg55
(lp1543
g388
asbag48
(g69
g50
NtRp1544
(dp1545
g53
(dp1546
g80
g81
ssg62
g1536
sg55
(lp1547
S':'
asbag48
(g69
g50
NtRp1548
(dp1549
g53
(dp1550
sg62
g1536
sg55
(lp1551
g48
(g49
g50
NtRp1552
(dp1553
g53
(dp1554
g61
I3
ssg62
g1548
sg55
(lp1555
S''
asbasbasbasbasbasbasbasbasbasbasbag48
(g64
g50
NtRp1556
(dp1557
g53
(dp1558
sg62
g58
sg55
(lp1559
g48
(g69
g50
NtRp1560
(dp1561
g53
(dp1562
g73
g74
ssg62
g1556
sg55
(lp1563
S'env'
p1564
asbag48
(g69
g50
NtRp1565
(dp1566
g53
(dp1567
g80
g81
ssg62
g1556
sg55
(lp1568
S':'
asbag48
(g69
g50
NtRp1569
(dp1570
g53
(dp1571
sg62
g1556
sg55
(lp1572
g48
(g49
g50
NtRp1573
(dp1574
g53
(dp1575
g61
I5
ssg62
g1569
sg55
(lp1576
g48
(g57
g50
NtRp1577
(dp1578
g53
(dp1579
g61
I4
ssg62
Nsg55
(lp1580
g48
(g64
g50
NtRp1581
(dp1582
g53
(dp1583
sg62
g1577
sg55
(lp1584
g48
(g69
g50
NtRp1585
(dp1586
g53
(dp1587
g73
g74
ssg62
g1581
sg55
(lp1588
S'app_folders'
p1589
asbag48
(g69
g50
NtRp1590
(dp1591
g53
(dp1592
g80
g81
ssg62
g1581
sg55
(lp1593
S':'
asbag48
(g69
g50
NtRp1594
(dp1595
g53
(dp1596
sg62
g1581
sg55
(lp1597
g48
(g49
g50
NtRp1598
(dp1599
g53
(dp1600
g61
I4
ssg62
g1594
sg55
(lp1601
S"set(['C:\\\\Users\\\\Atomico\\\\web2py\\\\applications\\\\Desglosar_Emails\\\\', 'C:\\\\Users\\\\Atomico\\\\web2py\\\\applications\\\\Cual_es_tu_nombre\\\\', 'C:\\\\Users\\\\Atomico\\\\web2py\\\\applications\\\\admin\\\\', 'C:\\\\Users\\\\Atomico\\\\web2py\\\\applications\\\\hemoal\\\\', 'C:\\\\Users\\\\Atomico\\\\web2py\\\\applications\\\\myAppJav\\\\', 'C:\\\\Users\\\\Atomico\\\\web2py\\\\applications\\\\welcome\\\\', 'C:\\\\Users\\\\Atomico\\\\web2py\\\\applications\\\\borrar2\\\\', 'C:\\\\Users\\\\Atomico\\\\web2py\\\\applications\\\\examples\\\\'])"
p1602
asbasbasbag48
(g64
g50
NtRp1603
(dp1604
g53
(dp1605
sg62
g1577
sg55
(lp1606
g48
(g69
g50
NtRp1607
(dp1608
g53
(dp1609
g73
g74
ssg62
g1603
sg55
(lp1610
S'applications_parent'
p1611
asbag48
(g69
g50
NtRp1612
(dp1613
g53
(dp1614
g80
g81
ssg62
g1603
sg55
(lp1615
S':'
asbag48
(g69
g50
NtRp1616
(dp1617
g53
(dp1618
sg62
g1603
sg55
(lp1619
g48
(g49
g50
NtRp1620
(dp1621
g53
(dp1622
g61
I4
ssg62
g1616
sg55
(lp1623
S'C:\\Users\\Atomico\\web2py'
p1624
asbasbasbag48
(g64
g50
NtRp1625
(dp1626
g53
(dp1627
sg62
g1577
sg55
(lp1628
g48
(g69
g50
NtRp1629
(dp1630
g53
(dp1631
g73
g74
ssg62
g1625
sg55
(lp1632
S'cmd_args'
p1633
asbag48
(g69
g50
NtRp1634
(dp1635
g53
(dp1636
g80
g81
ssg62
g1625
sg55
(lp1637
S':'
asbag48
(g69
g50
NtRp1638
(dp1639
g53
(dp1640
sg62
g1625
sg55
(lp1641
g48
(g49
g50
NtRp1642
(dp1643
g53
(dp1644
g61
I4
ssg62
g1638
sg55
(lp1645
g48
(g57
g50
NtRp1646
(dp1647
g53
(dp1648
g61
I3
ssg62
Nsg55
(lp1649
sbasbasbasbag48
(g64
g50
NtRp1650
(dp1651
g53
(dp1652
sg62
g1577
sg55
(lp1653
g48
(g69
g50
NtRp1654
(dp1655
g53
(dp1656
g73
g74
ssg62
g1650
sg55
(lp1657
S'cmd_options'
p1658
asbag48
(g69
g50
NtRp1659
(dp1660
g53
(dp1661
g80
g81
ssg62
g1650
sg55
(lp1662
S':'
asbag48
(g69
g50
NtRp1663
(dp1664
g53
(dp1665
sg62
g1650
sg55
(lp1666
g48
(g49
g50
NtRp1667
(dp1668
g53
(dp1669
g61
I4
ssg62
g1663
sg55
(lp1670
S"<Values at 0x306b620: {'verbose': False, 'ip': '127.0.0.1', 'shutdown_timeout': 5, 'taskbar': False, 'port': 8000, 'maxthreads': None, 'softcron': False, 'server_name': 'Swing', 'bpython': False, 'nogui': False, 'nocron': False, 'extcron': False, 'debuglevel': 30, 'test': None, 'folder': 'C:\\\\Users\\\\Atomico\\\\web2py', 'config': '', 'import_models': False, 'winservice': '', 'shell': None, 'run': '', 'log_filename': 'httpserver.log', 'args': [''], 'profiler_filename': None, 'ssl_private_key': '', 'password': '<ask>', 'request_queue_size': 5, 'ssl_certificate': '', 'cronjob': False, 'plain': False, 'quiet': False, 'interfaces': None, 'minthreads': None, 'timeout': 10, 'numthreads': None, 'nobanner': False, 'pid_filename': 'httpserver.pid'}>"
p1671
asbasbasbag48
(g64
g50
NtRp1672
(dp1673
g53
(dp1674
sg62
g1577
sg55
(lp1675
g48
(g69
g50
NtRp1676
(dp1677
g53
(dp1678
g73
g74
ssg62
g1672
sg55
(lp1679
S'db_sessions'
p1680
asbag48
(g69
g50
NtRp1681
(dp1682
g53
(dp1683
g80
g81
ssg62
g1672
sg55
(lp1684
S':'
asbag48
(g69
g50
NtRp1685
(dp1686
g53
(dp1687
sg62
g1672
sg55
(lp1688
g48
(g49
g50
NtRp1689
(dp1690
g53
(dp1691
g61
I4
ssg62
g1685
sg55
(lp1692
S'set([])'
p1693
asbasbasbag48
(g64
g50
NtRp1694
(dp1695
g53
(dp1696
sg62
g1577
sg55
(lp1697
g48
(g69
g50
NtRp1698
(dp1699
g53
(dp1700
g73
g74
ssg62
g1694
sg55
(lp1701
S'debugging'
p1702
asbag48
(g69
g50
NtRp1703
(dp1704
g53
(dp1705
g80
g81
ssg62
g1694
sg55
(lp1706
S':'
asbag48
(g69
g50
NtRp1707
(dp1708
g53
(dp1709
sg62
g1694
sg55
(lp1710
g48
(g49
g50
NtRp1711
(dp1712
g53
(dp1713
g61
I4
ssg62
g1707
sg55
(lp1714
g91
asbasbasbag48
(g64
g50
NtRp1715
(dp1716
g53
(dp1717
sg62
g1577
sg55
(lp1718
g48
(g69
g50
NtRp1719
(dp1720
g53
(dp1721
g73
g74
ssg62
g1715
sg55
(lp1722
S'gluon_parent'
p1723
asbag48
(g69
g50
NtRp1724
(dp1725
g53
(dp1726
g80
g81
ssg62
g1715
sg55
(lp1727
S':'
asbag48
(g69
g50
NtRp1728
(dp1729
g53
(dp1730
sg62
g1715
sg55
(lp1731
g48
(g49
g50
NtRp1732
(dp1733
g53
(dp1734
g61
I4
ssg62
g1728
sg55
(lp1735
S'C:\\Users\\Atomico\\web2py'
p1736
asbasbasbag48
(g64
g50
NtRp1737
(dp1738
g53
(dp1739
sg62
g1577
sg55
(lp1740
g48
(g69
g50
NtRp1741
(dp1742
g53
(dp1743
g73
g74
ssg62
g1737
sg55
(lp1744
S'http_accept'
p1745
asbag48
(g69
g50
NtRp1746
(dp1747
g53
(dp1748
g80
g81
ssg62
g1737
sg55
(lp1749
S':'
asbag48
(g69
g50
NtRp1750
(dp1751
g53
(dp1752
sg62
g1737
sg55
(lp1753
g48
(g49
g50
NtRp1754
(dp1755
g53
(dp1756
g61
I4
ssg62
g1750
sg55
(lp1757
S'text/html,application/xhtml+xml,application/xml;q=0.9,*/*;q=0.8'
p1758
asbasbasbag48
(g64
g50
NtRp1759
(dp1760
g53
(dp1761
sg62
g1577
sg55
(lp1762
g48
(g69
g50
NtRp1763
(dp1764
g53
(dp1765
g73
g74
ssg62
g1759
sg55
(lp1766
S'http_accept_charset'
p1767
asbag48
(g69
g50
NtRp1768
(dp1769
g53
(dp1770
g80
g81
ssg62
g1759
sg55
(lp1771
S':'
asbag48
(g69
g50
NtRp1772
(dp1773
g53
(dp1774
sg62
g1759
sg55
(lp1775
g48
(g49
g50
NtRp1776
(dp1777
g53
(dp1778
g61
I4
ssg62
g1772
sg55
(lp1779
S'ISO-8859-1,utf-8;q=0.7,*;q=0.7'
p1780
asbasbasbag48
(g64
g50
NtRp1781
(dp1782
g53
(dp1783
sg62
g1577
sg55
(lp1784
g48
(g69
g50
NtRp1785
(dp1786
g53
(dp1787
g73
g74
ssg62
g1781
sg55
(lp1788
S'http_accept_encoding'
p1789
asbag48
(g69
g50
NtRp1790
(dp1791
g53
(dp1792
g80
g81
ssg62
g1781
sg55
(lp1793
S':'
asbag48
(g69
g50
NtRp1794
(dp1795
g53
(dp1796
sg62
g1781
sg55
(lp1797
g48
(g49
g50
NtRp1798
(dp1799
g53
(dp1800
g61
I4
ssg62
g1794
sg55
(lp1801
S'gzip, deflate'
p1802
asbasbasbag48
(g64
g50
NtRp1803
(dp1804
g53
(dp1805
sg62
g1577
sg55
(lp1806
g48
(g69
g50
NtRp1807
(dp1808
g53
(dp1809
g73
g74
ssg62
g1803
sg55
(lp1810
S'http_accept_language'
p1811
asbag48
(g69
g50
NtRp1812
(dp1813
g53
(dp1814
g80
g81
ssg62
g1803
sg55
(lp1815
S':'
asbag48
(g69
g50
NtRp1816
(dp1817
g53
(dp1818
sg62
g1803
sg55
(lp1819
g48
(g49
g50
NtRp1820
(dp1821
g53
(dp1822
g61
I4
ssg62
g1816
sg55
(lp1823
S'es-es,es;q=0.8,en-us;q=0.5,en;q=0.3'
p1824
asbasbasbag48
(g64
g50
NtRp1825
(dp1826
g53
(dp1827
sg62
g1577
sg55
(lp1828
g48
(g69
g50
NtRp1829
(dp1830
g53
(dp1831
g73
g74
ssg62
g1825
sg55
(lp1832
S'http_cache_control'
p1833
asbag48
(g69
g50
NtRp1834
(dp1835
g53
(dp1836
g80
g81
ssg62
g1825
sg55
(lp1837
S':'
asbag48
(g69
g50
NtRp1838
(dp1839
g53
(dp1840
sg62
g1825
sg55
(lp1841
g48
(g49
g50
NtRp1842
(dp1843
g53
(dp1844
g61
I4
ssg62
g1838
sg55
(lp1845
S'max-age=0'
p1846
asbasbasbag48
(g64
g50
NtRp1847
(dp1848
g53
(dp1849
sg62
g1577
sg55
(lp1850
g48
(g69
g50
NtRp1851
(dp1852
g53
(dp1853
g73
g74
ssg62
g1847
sg55
(lp1854
S'http_connection'
p1855
asbag48
(g69
g50
NtRp1856
(dp1857
g53
(dp1858
g80
g81
ssg62
g1847
sg55
(lp1859
S':'
asbag48
(g69
g50
NtRp1860
(dp1861
g53
(dp1862
sg62
g1847
sg55
(lp1863
g48
(g49
g50
NtRp1864
(dp1865
g53
(dp1866
g61
I4
ssg62
g1860
sg55
(lp1867
S'keep-alive'
p1868
asbasbasbag48
(g64
g50
NtRp1869
(dp1870
g53
(dp1871
sg62
g1577
sg55
(lp1872
g48
(g69
g50
NtRp1873
(dp1874
g53
(dp1875
g73
g74
ssg62
g1869
sg55
(lp1876
S'http_cookie'
p1877
asbag48
(g69
g50
NtRp1878
(dp1879
g53
(dp1880
g80
g81
ssg62
g1869
sg55
(lp1881
S':'
asbag48
(g69
g50
NtRp1882
(dp1883
g53
(dp1884
sg62
g1869
sg55
(lp1885
g48
(g49
g50
NtRp1886
(dp1887
g53
(dp1888
g61
I4
ssg62
g1882
sg55
(lp1889
S'session_id_welcome=127.0.0.1-082a2830-9bb6-4bfb-b2e2-4857b06c191e; session_id_admin=127.0.0.1-fa7dcb1d-044d-45ab-baf4-3f6c8db163e6; session_id_listado_1=127.0.0.1-477ec098-5436-4f6e-bfee-1a0bd88f6f9e; session_id_desglosar_emails=127.0.0.1-0a11b3b2-660c-433c-b71f-fc129286f26c; session_id_hemoal=127.0.0.1-442afb36-a73d-4692-979c-372017ada9e5; session_id_myappjav=127.0.0.1-b6da3776-a7b2-40a7-ab82-4eca2d3263a1; session_id_cual_es_tu_nombre=127.0.0.1-5e59e375-704d-4241-8b9c-5fd9f8c15773; session_id_borrar2=127.0.0.1-a9c92f68-d0b3-484c-889c-daaf25ccf891'
p1890
asbasbasbag48
(g64
g50
NtRp1891
(dp1892
g53
(dp1893
sg62
g1577
sg55
(lp1894
g48
(g69
g50
NtRp1895
(dp1896
g53
(dp1897
g73
g74
ssg62
g1891
sg55
(lp1898
S'http_host'
p1899
asbag48
(g69
g50
NtRp1900
(dp1901
g53
(dp1902
g80
g81
ssg62
g1891
sg55
(lp1903
S':'
asbag48
(g69
g50
NtRp1904
(dp1905
g53
(dp1906
sg62
g1891
sg55
(lp1907
g48
(g49
g50
NtRp1908
(dp1909
g53
(dp1910
g61
I4
ssg62
g1904
sg55
(lp1911
S'127.0.0.1:8000'
p1912
asbasbasbag48
(g64
g50
NtRp1913
(dp1914
g53
(dp1915
sg62
g1577
sg55
(lp1916
g48
(g69
g50
NtRp1917
(dp1918
g53
(dp1919
g73
g74
ssg62
g1913
sg55
(lp1920
S'http_referer'
p1921
asbag48
(g69
g50
NtRp1922
(dp1923
g53
(dp1924
g80
g81
ssg62
g1913
sg55
(lp1925
S':'
asbag48
(g69
g50
NtRp1926
(dp1927
g53
(dp1928
sg62
g1913
sg55
(lp1929
g48
(g49
g50
NtRp1930
(dp1931
g53
(dp1932
g61
I4
ssg62
g1926
sg55
(lp1933
S'http://127.0.0.1:8000/admin/default/design/Desglosar_Emails'
p1934
asbasbasbag48
(g64
g50
NtRp1935
(dp1936
g53
(dp1937
sg62
g1577
sg55
(lp1938
g48
(g69
g50
NtRp1939
(dp1940
g53
(dp1941
g73
g74
ssg62
g1935
sg55
(lp1942
S'http_user_agent'
p1943
asbag48
(g69
g50
NtRp1944
(dp1945
g53
(dp1946
g80
g81
ssg62
g1935
sg55
(lp1947
S':'
asbag48
(g69
g50
NtRp1948
(dp1949
g53
(dp1950
sg62
g1935
sg55
(lp1951
g48
(g49
g50
NtRp1952
(dp1953
g53
(dp1954
g61
I4
ssg62
g1948
sg55
(lp1955
S'Mozilla/5.0 (Windows NT 6.1; WOW64; rv:6.0.2) Gecko/20100101 Firefox/6.0.2'
p1956
asbasbasbag48
(g64
g50
NtRp1957
(dp1958
g53
(dp1959
sg62
g1577
sg55
(lp1960
g48
(g69
g50
NtRp1961
(dp1962
g53
(dp1963
g73
g74
ssg62
g1957
sg55
(lp1964
S'is_jython'
p1965
asbag48
(g69
g50
NtRp1966
(dp1967
g53
(dp1968
g80
g81
ssg62
g1957
sg55
(lp1969
S':'
asbag48
(g69
g50
NtRp1970
(dp1971
g53
(dp1972
sg62
g1957
sg55
(lp1973
g48
(g49
g50
NtRp1974
(dp1975
g53
(dp1976
g61
I4
ssg62
g1970
sg55
(lp1977
g91
asbasbasbag48
(g64
g50
NtRp1978
(dp1979
g53
(dp1980
sg62
g1577
sg55
(lp1981
g48
(g69
g50
NtRp1982
(dp1983
g53
(dp1984
g73
g74
ssg62
g1978
sg55
(lp1985
S'path_info'
p1986
asbag48
(g69
g50
NtRp1987
(dp1988
g53
(dp1989
g80
g81
ssg62
g1978
sg55
(lp1990
S':'
asbag48
(g69
g50
NtRp1991
(dp1992
g53
(dp1993
sg62
g1978
sg55
(lp1994
g48
(g49
g50
NtRp1995
(dp1996
g53
(dp1997
g61
I4
ssg62
g1991
sg55
(lp1998
S'/Desglosar_Emails/default/entrada_mod3'
p1999
asbasbasbag48
(g64
g50
NtRp2000
(dp2001
g53
(dp2002
sg62
g1577
sg55
(lp2003
g48
(g69
g50
NtRp2004
(dp2005
g53
(dp2006
g73
g74
ssg62
g2000
sg55
(lp2007
S'query_string'
p2008
asbag48
(g69
g50
NtRp2009
(dp2010
g53
(dp2011
g80
g81
ssg62
g2000
sg55
(lp2012
S':'
asbag48
(g69
g50
NtRp2013
(dp2014
g53
(dp2015
sg62
g2000
sg55
(lp2016
g48
(g49
g50
NtRp2017
(dp2018
g53
(dp2019
g61
I4
ssg62
g2013
sg55
(lp2020
S''
asbasbasbag48
(g64
g50
NtRp2021
(dp2022
g53
(dp2023
sg62
g1577
sg55
(lp2024
g48
(g69
g50
NtRp2025
(dp2026
g53
(dp2027
g73
g74
ssg62
g2021
sg55
(lp2028
S'remote_addr'
p2029
asbag48
(g69
g50
NtRp2030
(dp2031
g53
(dp2032
g80
g81
ssg62
g2021
sg55
(lp2033
S':'
asbag48
(g69
g50
NtRp2034
(dp2035
g53
(dp2036
sg62
g2021
sg55
(lp2037
g48
(g49
g50
NtRp2038
(dp2039
g53
(dp2040
g61
I4
ssg62
g2034
sg55
(lp2041
g181
asbasbasbag48
(g64
g50
NtRp2042
(dp2043
g53
(dp2044
sg62
g1577
sg55
(lp2045
g48
(g69
g50
NtRp2046
(dp2047
g53
(dp2048
g73
g74
ssg62
g2042
sg55
(lp2049
S'remote_port'
p2050
asbag48
(g69
g50
NtRp2051
(dp2052
g53
(dp2053
g80
g81
ssg62
g2042
sg55
(lp2054
S':'
asbag48
(g69
g50
NtRp2055
(dp2056
g53
(dp2057
sg62
g2042
sg55
(lp2058
g48
(g49
g50
NtRp2059
(dp2060
g53
(dp2061
g61
I4
ssg62
g2055
sg55
(lp2062
S'52854'
p2063
asbasbasbag48
(g64
g50
NtRp2064
(dp2065
g53
(dp2066
sg62
g1577
sg55
(lp2067
g48
(g69
g50
NtRp2068
(dp2069
g53
(dp2070
g73
g74
ssg62
g2064
sg55
(lp2071
S'request_method'
p2072
asbag48
(g69
g50
NtRp2073
(dp2074
g53
(dp2075
g80
g81
ssg62
g2064
sg55
(lp2076
S':'
asbag48
(g69
g50
NtRp2077
(dp2078
g53
(dp2079
sg62
g2064
sg55
(lp2080
g48
(g49
g50
NtRp2081
(dp2082
g53
(dp2083
g61
I4
ssg62
g2077
sg55
(lp2084
S'GET'
p2085
asbasbasbag48
(g64
g50
NtRp2086
(dp2087
g53
(dp2088
sg62
g1577
sg55
(lp2089
g48
(g69
g50
NtRp2090
(dp2091
g53
(dp2092
g73
g74
ssg62
g2086
sg55
(lp2093
S'script_name'
p2094
asbag48
(g69
g50
NtRp2095
(dp2096
g53
(dp2097
g80
g81
ssg62
g2086
sg55
(lp2098
S':'
asbag48
(g69
g50
NtRp2099
(dp2100
g53
(dp2101
sg62
g2086
sg55
(lp2102
g48
(g49
g50
NtRp2103
(dp2104
g53
(dp2105
g61
I4
ssg62
g2099
sg55
(lp2106
S''
asbasbasbag48
(g64
g50
NtRp2107
(dp2108
g53
(dp2109
sg62
g1577
sg55
(lp2110
g48
(g69
g50
NtRp2111
(dp2112
g53
(dp2113
g73
g74
ssg62
g2107
sg55
(lp2114
S'server_name'
p2115
asbag48
(g69
g50
NtRp2116
(dp2117
g53
(dp2118
g80
g81
ssg62
g2107
sg55
(lp2119
S':'
asbag48
(g69
g50
NtRp2120
(dp2121
g53
(dp2122
sg62
g2107
sg55
(lp2123
g48
(g49
g50
NtRp2124
(dp2125
g53
(dp2126
g61
I4
ssg62
g2120
sg55
(lp2127
S'Swing'
p2128
asbasbasbag48
(g64
g50
NtRp2129
(dp2130
g53
(dp2131
sg62
g1577
sg55
(lp2132
g48
(g69
g50
NtRp2133
(dp2134
g53
(dp2135
g73
g74
ssg62
g2129
sg55
(lp2136
S'server_port'
p2137
asbag48
(g69
g50
NtRp2138
(dp2139
g53
(dp2140
g80
g81
ssg62
g2129
sg55
(lp2141
S':'
asbag48
(g69
g50
NtRp2142
(dp2143
g53
(dp2144
sg62
g2129
sg55
(lp2145
g48
(g49
g50
NtRp2146
(dp2147
g53
(dp2148
g61
I4
ssg62
g2142
sg55
(lp2149
S'8000'
p2150
asbasbasbag48
(g64
g50
NtRp2151
(dp2152
g53
(dp2153
sg62
g1577
sg55
(lp2154
g48
(g69
g50
NtRp2155
(dp2156
g53
(dp2157
g73
g74
ssg62
g2151
sg55
(lp2158
S'server_protocol'
p2159
asbag48
(g69
g50
NtRp2160
(dp2161
g53
(dp2162
g80
g81
ssg62
g2151
sg55
(lp2163
S':'
asbag48
(g69
g50
NtRp2164
(dp2165
g53
(dp2166
sg62
g2151
sg55
(lp2167
g48
(g49
g50
NtRp2168
(dp2169
g53
(dp2170
g61
I4
ssg62
g2164
sg55
(lp2171
S'HTTP/1.1'
p2172
asbasbasbag48
(g64
g50
NtRp2173
(dp2174
g53
(dp2175
sg62
g1577
sg55
(lp2176
g48
(g69
g50
NtRp2177
(dp2178
g53
(dp2179
g73
g74
ssg62
g2173
sg55
(lp2180
S'server_software'
p2181
asbag48
(g69
g50
NtRp2182
(dp2183
g53
(dp2184
g80
g81
ssg62
g2173
sg55
(lp2185
S':'
asbag48
(g69
g50
NtRp2186
(dp2187
g53
(dp2188
sg62
g2173
sg55
(lp2189
g48
(g49
g50
NtRp2190
(dp2191
g53
(dp2192
g61
I4
ssg62
g2186
sg55
(lp2193
S'Rocket 1.2.2'
p2194
asbasbasbag48
(g64
g50
NtRp2195
(dp2196
g53
(dp2197
sg62
g1577
sg55
(lp2198
g48
(g69
g50
NtRp2199
(dp2200
g53
(dp2201
g73
g74
ssg62
g2195
sg55
(lp2202
S'web2py_crontype'
p2203
asbag48
(g69
g50
NtRp2204
(dp2205
g53
(dp2206
g80
g81
ssg62
g2195
sg55
(lp2207
S':'
asbag48
(g69
g50
NtRp2208
(dp2209
g53
(dp2210
sg62
g2195
sg55
(lp2211
g48
(g49
g50
NtRp2212
(dp2213
g53
(dp2214
g61
I4
ssg62
g2208
sg55
(lp2215
S'hard'
p2216
asbasbasbag48
(g64
g50
NtRp2217
(dp2218
g53
(dp2219
sg62
g1577
sg55
(lp2220
g48
(g69
g50
NtRp2221
(dp2222
g53
(dp2223
g73
g74
ssg62
g2217
sg55
(lp2224
S'web2py_path'
p2225
asbag48
(g69
g50
NtRp2226
(dp2227
g53
(dp2228
g80
g81
ssg62
g2217
sg55
(lp2229
S':'
asbag48
(g69
g50
NtRp2230
(dp2231
g53
(dp2232
sg62
g2217
sg55
(lp2233
g48
(g49
g50
NtRp2234
(dp2235
g53
(dp2236
g61
I4
ssg62
g2230
sg55
(lp2237
g1624
asbasbasbag48
(g64
g50
NtRp2238
(dp2239
g53
(dp2240
sg62
g1577
sg55
(lp2241
g48
(g69
g50
NtRp2242
(dp2243
g53
(dp2244
g73
g74
ssg62
g2238
sg55
(lp2245
S'web2py_version'
p2246
asbag48
(g69
g50
NtRp2247
(dp2248
g53
(dp2249
g80
g81
ssg62
g2238
sg55
(lp2250
S':'
asbag48
(g69
g50
NtRp2251
(dp2252
g53
(dp2253
sg62
g2238
sg55
(lp2254
g48
(g49
g50
NtRp2255
(dp2256
g53
(dp2257
g61
I4
ssg62
g2251
sg55
(lp2258
S'Version 1.98.2 (2011-08-04 00:47:09)\n'
p2259
asbasbasbag48
(g64
g50
NtRp2260
(dp2261
g53
(dp2262
sg62
g1577
sg55
(lp2263
g48
(g69
g50
NtRp2264
(dp2265
g53
(dp2266
g73
g74
ssg62
g2260
sg55
(lp2267
S'wsgi_errors'
p2268
asbag48
(g69
g50
NtRp2269
(dp2270
g53
(dp2271
g80
g81
ssg62
g2260
sg55
(lp2272
S':'
asbag48
(g69
g50
NtRp2273
(dp2274
g53
(dp2275
sg62
g2260
sg55
(lp2276
g48
(g49
g50
NtRp2277
(dp2278
g53
(dp2279
g61
I4
ssg62
g2273
sg55
(lp2280
S"<open file '<stderr>', mode 'w' at 0x003100B0>"
p2281
asbasbasbag48
(g64
g50
NtRp2282
(dp2283
g53
(dp2284
sg62
g1577
sg55
(lp2285
g48
(g69
g50
NtRp2286
(dp2287
g53
(dp2288
g73
g74
ssg62
g2282
sg55
(lp2289
S'wsgi_file_wrapper'
p2290
asbag48
(g69
g50
NtRp2291
(dp2292
g53
(dp2293
g80
g81
ssg62
g2282
sg55
(lp2294
S':'
asbag48
(g69
g50
NtRp2295
(dp2296
g53
(dp2297
sg62
g2282
sg55
(lp2298
g48
(g49
g50
NtRp2299
(dp2300
g53
(dp2301
g61
I4
ssg62
g2295
sg55
(lp2302
S'<class gluon.rocket.FileWrapper at 0x02FFC1B0>'
p2303
asbasbasbag48
(g64
g50
NtRp2304
(dp2305
g53
(dp2306
sg62
g1577
sg55
(lp2307
g48
(g69
g50
NtRp2308
(dp2309
g53
(dp2310
g73
g74
ssg62
g2304
sg55
(lp2311
S'wsgi_input'
p2312
asbag48
(g69
g50
NtRp2313
(dp2314
g53
(dp2315
g80
g81
ssg62
g2304
sg55
(lp2316
S':'
asbag48
(g69
g50
NtRp2317
(dp2318
g53
(dp2319
sg62
g2304
sg55
(lp2320
g48
(g49
g50
NtRp2321
(dp2322
g53
(dp2323
g61
I4
ssg62
g2317
sg55
(lp2324
S'<socket._fileobject object at 0x074B0C30>'
p2325
asbasbasbag48
(g64
g50
NtRp2326
(dp2327
g53
(dp2328
sg62
g1577
sg55
(lp2329
g48
(g69
g50
NtRp2330
(dp2331
g53
(dp2332
g73
g74
ssg62
g2326
sg55
(lp2333
S'wsgi_multiprocess'
p2334
asbag48
(g69
g50
NtRp2335
(dp2336
g53
(dp2337
g80
g81
ssg62
g2326
sg55
(lp2338
S':'
asbag48
(g69
g50
NtRp2339
(dp2340
g53
(dp2341
sg62
g2326
sg55
(lp2342
g48
(g49
g50
NtRp2343
(dp2344
g53
(dp2345
g61
I4
ssg62
g2339
sg55
(lp2346
g91
asbasbasbag48
(g64
g50
NtRp2347
(dp2348
g53
(dp2349
sg62
g1577
sg55
(lp2350
g48
(g69
g50
NtRp2351
(dp2352
g53
(dp2353
g73
g74
ssg62
g2347
sg55
(lp2354
S'wsgi_multithread'
p2355
asbag48
(g69
g50
NtRp2356
(dp2357
g53
(dp2358
g80
g81
ssg62
g2347
sg55
(lp2359
S':'
asbag48
(g69
g50
NtRp2360
(dp2361
g53
(dp2362
sg62
g2347
sg55
(lp2363
g48
(g49
g50
NtRp2364
(dp2365
g53
(dp2366
g61
I4
ssg62
g2360
sg55
(lp2367
S'True'
p2368
asbasbasbag48
(g64
g50
NtRp2369
(dp2370
g53
(dp2371
sg62
g1577
sg55
(lp2372
g48
(g69
g50
NtRp2373
(dp2374
g53
(dp2375
g73
g74
ssg62
g2369
sg55
(lp2376
S'wsgi_run_once'
p2377
asbag48
(g69
g50
NtRp2378
(dp2379
g53
(dp2380
g80
g81
ssg62
g2369
sg55
(lp2381
S':'
asbag48
(g69
g50
NtRp2382
(dp2383
g53
(dp2384
sg62
g2369
sg55
(lp2385
g48
(g49
g50
NtRp2386
(dp2387
g53
(dp2388
g61
I4
ssg62
g2382
sg55
(lp2389
g91
asbasbasbag48
(g64
g50
NtRp2390
(dp2391
g53
(dp2392
sg62
g1577
sg55
(lp2393
g48
(g69
g50
NtRp2394
(dp2395
g53
(dp2396
g73
g74
ssg62
g2390
sg55
(lp2397
S'wsgi_url_scheme'
p2398
asbag48
(g69
g50
NtRp2399
(dp2400
g53
(dp2401
g80
g81
ssg62
g2390
sg55
(lp2402
S':'
asbag48
(g69
g50
NtRp2403
(dp2404
g53
(dp2405
sg62
g2390
sg55
(lp2406
g48
(g49
g50
NtRp2407
(dp2408
g53
(dp2409
g61
I4
ssg62
g2403
sg55
(lp2410
S'http'
p2411
asbasbasbag48
(g64
g50
NtRp2412
(dp2413
g53
(dp2414
sg62
g1577
sg55
(lp2415
g48
(g69
g50
NtRp2416
(dp2417
g53
(dp2418
g73
g74
ssg62
g2412
sg55
(lp2419
S'wsgi_version'
p2420
asbag48
(g69
g50
NtRp2421
(dp2422
g53
(dp2423
g80
g81
ssg62
g2412
sg55
(lp2424
S':'
asbag48
(g69
g50
NtRp2425
(dp2426
g53
(dp2427
sg62
g2412
sg55
(lp2428
g48
(g49
g50
NtRp2429
(dp2430
g53
(dp2431
g61
I4
ssg62
g2425
sg55
(lp2432
g48
(g57
g50
NtRp2433
(dp2434
g53
(dp2435
g61
I3
ssg62
Nsg55
(lp2436
g48
(g64
g50
NtRp2437
(dp2438
g53
(dp2439
sg62
g2433
sg55
(lp2440
g48
(g69
g50
NtRp2441
(dp2442
g53
(dp2443
sg62
g2437
sg55
(lp2444
g48
(g49
g50
NtRp2445
(dp2446
g53
(dp2447
g61
I3
ssg62
g2441
sg55
(lp2448
S'1'
asbasbasbag48
(g64
g50
NtRp2449
(dp2450
g53
(dp2451
sg62
g2433
sg55
(lp2452
g48
(g69
g50
NtRp2453
(dp2454
g53
(dp2455
sg62
g2449
sg55
(lp2456
g48
(g49
g50
NtRp2457
(dp2458
g53
(dp2459
g61
I3
ssg62
g2453
sg55
(lp2460
S'0'
asbasbasbasbasbasbasbasbasbasbasbag48
(g64
g50
NtRp2461
(dp2462
g53
(dp2463
sg62
g58
sg55
(lp2464
g48
(g69
g50
NtRp2465
(dp2466
g53
(dp2467
g73
g74
ssg62
g2461
sg55
(lp2468
S'extension'
p2469
asbag48
(g69
g50
NtRp2470
(dp2471
g53
(dp2472
g80
g81
ssg62
g2461
sg55
(lp2473
S':'
asbag48
(g69
g50
NtRp2474
(dp2475
g53
(dp2476
sg62
g2461
sg55
(lp2477
g48
(g49
g50
NtRp2478
(dp2479
g53
(dp2480
g61
I5
ssg62
g2474
sg55
(lp2481
S'html'
p2482
asbasbasbag48
(g64
g50
NtRp2483
(dp2484
g53
(dp2485
sg62
g58
sg55
(lp2486
g48
(g69
g50
NtRp2487
(dp2488
g53
(dp2489
g73
g74
ssg62
g2483
sg55
(lp2490
S'folder'
p2491
asbag48
(g69
g50
NtRp2492
(dp2493
g53
(dp2494
g80
g81
ssg62
g2483
sg55
(lp2495
S':'
asbag48
(g69
g50
NtRp2496
(dp2497
g53
(dp2498
sg62
g2483
sg55
(lp2499
g48
(g49
g50
NtRp2500
(dp2501
g53
(dp2502
g61
I5
ssg62
g2496
sg55
(lp2503
S'C:\\Users\\Atomico\\web2py\\applications\\Desglosar_Emails\\'
p2504
asbasbasbag48
(g64
g50
NtRp2505
(dp2506
g53
(dp2507
sg62
g58
sg55
(lp2508
g48
(g69
g50
NtRp2509
(dp2510
g53
(dp2511
g73
g74
ssg62
g2505
sg55
(lp2512
S'function'
p2513
asbag48
(g69
g50
NtRp2514
(dp2515
g53
(dp2516
g80
g81
ssg62
g2505
sg55
(lp2517
S':'
asbag48
(g69
g50
NtRp2518
(dp2519
g53
(dp2520
sg62
g2505
sg55
(lp2521
g48
(g49
g50
NtRp2522
(dp2523
g53
(dp2524
g61
I5
ssg62
g2518
sg55
(lp2525
S'entrada_mod3'
p2526
asbasbasbag48
(g64
g50
NtRp2527
(dp2528
g53
(dp2529
sg62
g58
sg55
(lp2530
g48
(g69
g50
NtRp2531
(dp2532
g53
(dp2533
g73
g74
ssg62
g2527
sg55
(lp2534
S'get_vars'
p2535
asbag48
(g69
g50
NtRp2536
(dp2537
g53
(dp2538
g80
g81
ssg62
g2527
sg55
(lp2539
S':'
asbag48
(g69
g50
NtRp2540
(dp2541
g53
(dp2542
sg62
g2527
sg55
(lp2543
g48
(g49
g50
NtRp2544
(dp2545
g53
(dp2546
g61
I5
ssg62
g2540
sg55
(lp2547
g48
(g57
g50
NtRp2548
(dp2549
g53
(dp2550
g61
I4
ssg62
Nsg55
(lp2551
sbasbasbasbag48
(g64
g50
NtRp2552
(dp2553
g53
(dp2554
sg62
g58
sg55
(lp2555
g48
(g69
g50
NtRp2556
(dp2557
g53
(dp2558
g73
g74
ssg62
g2552
sg55
(lp2559
S'is_https'
p2560
asbag48
(g69
g50
NtRp2561
(dp2562
g53
(dp2563
g80
g81
ssg62
g2552
sg55
(lp2564
S':'
asbag48
(g69
g50
NtRp2565
(dp2566
g53
(dp2567
sg62
g2552
sg55
(lp2568
g48
(g49
g50
NtRp2569
(dp2570
g53
(dp2571
g61
I5
ssg62
g2565
sg55
(lp2572
g91
asbasbasbag48
(g64
g50
NtRp2573
(dp2574
g53
(dp2575
sg62
g58
sg55
(lp2576
g48
(g69
g50
NtRp2577
(dp2578
g53
(dp2579
g73
g74
ssg62
g2573
sg55
(lp2580
S'is_local'
p2581
asbag48
(g69
g50
NtRp2582
(dp2583
g53
(dp2584
g80
g81
ssg62
g2573
sg55
(lp2585
S':'
asbag48
(g69
g50
NtRp2586
(dp2587
g53
(dp2588
sg62
g2573
sg55
(lp2589
g48
(g49
g50
NtRp2590
(dp2591
g53
(dp2592
g61
I5
ssg62
g2586
sg55
(lp2593
g2368
asbasbasbag48
(g64
g50
NtRp2594
(dp2595
g53
(dp2596
sg62
g58
sg55
(lp2597
g48
(g69
g50
NtRp2598
(dp2599
g53
(dp2600
g73
g74
ssg62
g2594
sg55
(lp2601
S'is_restful'
p2602
asbag48
(g69
g50
NtRp2603
(dp2604
g53
(dp2605
g80
g81
ssg62
g2594
sg55
(lp2606
S':'
asbag48
(g69
g50
NtRp2607
(dp2608
g53
(dp2609
sg62
g2594
sg55
(lp2610
g48
(g49
g50
NtRp2611
(dp2612
g53
(dp2613
g61
I5
ssg62
g2607
sg55
(lp2614
g91
asbasbasbag48
(g64
g50
NtRp2615
(dp2616
g53
(dp2617
sg62
g58
sg55
(lp2618
g48
(g69
g50
NtRp2619
(dp2620
g53
(dp2621
g73
g74
ssg62
g2615
sg55
(lp2622
S'now'
p2623
asbag48
(g69
g50
NtRp2624
(dp2625
g53
(dp2626
g80
g81
ssg62
g2615
sg55
(lp2627
S':'
asbag48
(g69
g50
NtRp2628
(dp2629
g53
(dp2630
sg62
g2615
sg55
(lp2631
g48
(g49
g50
NtRp2632
(dp2633
g53
(dp2634
g61
I5
ssg62
g2628
sg55
(lp2635
S'datetime.datetime(2011, 9, 20, 4, 29, 54, 53000)'
p2636
asbasbasbag48
(g64
g50
NtRp2637
(dp2638
g53
(dp2639
sg62
g58
sg55
(lp2640
g48
(g69
g50
NtRp2641
(dp2642
g53
(dp2643
g73
g74
ssg62
g2637
sg55
(lp2644
S'post_vars'
p2645
asbag48
(g69
g50
NtRp2646
(dp2647
g53
(dp2648
g80
g81
ssg62
g2637
sg55
(lp2649
S':'
asbag48
(g69
g50
NtRp2650
(dp2651
g53
(dp2652
sg62
g2637
sg55
(lp2653
g48
(g49
g50
NtRp2654
(dp2655
g53
(dp2656
g61
I5
ssg62
g2650
sg55
(lp2657
g48
(g57
g50
NtRp2658
(dp2659
g53
(dp2660
g61
I4
ssg62
Nsg55
(lp2661
sbasbasbasbag48
(g64
g50
NtRp2662
(dp2663
g53
(dp2664
sg62
g58
sg55
(lp2665
g48
(g69
g50
NtRp2666
(dp2667
g53
(dp2668
g73
g74
ssg62
g2662
sg55
(lp2669
S'url'
p2670
asbag48
(g69
g50
NtRp2671
(dp2672
g53
(dp2673
g80
g81
ssg62
g2662
sg55
(lp2674
S':'
asbag48
(g69
g50
NtRp2675
(dp2676
g53
(dp2677
sg62
g2662
sg55
(lp2678
g48
(g49
g50
NtRp2679
(dp2680
g53
(dp2681
g61
I5
ssg62
g2675
sg55
(lp2682
S'/Desglosar_Emails/default/entrada_mod3'
p2683
asbasbasbag48
(g64
g50
NtRp2684
(dp2685
g53
(dp2686
sg62
g58
sg55
(lp2687
g48
(g69
g50
NtRp2688
(dp2689
g53
(dp2690
g73
g74
ssg62
g2684
sg55
(lp2691
S'uuid'
p2692
asbag48
(g69
g50
NtRp2693
(dp2694
g53
(dp2695
g80
g81
ssg62
g2684
sg55
(lp2696
S':'
asbag48
(g69
g50
NtRp2697
(dp2698
g53
(dp2699
sg62
g2684
sg55
(lp2700
g48
(g49
g50
NtRp2701
(dp2702
g53
(dp2703
g61
I5
ssg62
g2697
sg55
(lp2704
S'Desglosar_Emails/127.0.0.1.2011-09-20.04-29-54.fb431420-b6a3-4a85-9edf-dddef34a5572'
p2705
asbasbasbag48
(g64
g50
NtRp2706
(dp2707
g53
(dp2708
sg62
g58
sg55
(lp2709
g48
(g69
g50
NtRp2710
(dp2711
g53
(dp2712
g73
g74
ssg62
g2706
sg55
(lp2713
S'vars'
p2714
asbag48
(g69
g50
NtRp2715
(dp2716
g53
(dp2717
g80
g81
ssg62
g2706
sg55
(lp2718
S':'
asbag48
(g69
g50
NtRp2719
(dp2720
g53
(dp2721
sg62
g2706
sg55
(lp2722
g48
(g49
g50
NtRp2723
(dp2724
g53
(dp2725
g61
I5
ssg62
g2719
sg55
(lp2726
g48
(g57
g50
NtRp2727
(dp2728
g53
(dp2729
g61
I4
ssg62
Nsg55
(lp2730
sbasbasbasbag48
(g64
g50
NtRp2731
(dp2732
g53
(dp2733
sg62
g58
sg55
(lp2734
g48
(g69
g50
NtRp2735
(dp2736
g53
(dp2737
g73
g74
ssg62
g2731
sg55
(lp2738
S'wsgi'
p2739
asbag48
(g69
g50
NtRp2740
(dp2741
g53
(dp2742
g80
g81
ssg62
g2731
sg55
(lp2743
S':'
asbag48
(g69
g50
NtRp2744
(dp2745
g53
(dp2746
sg62
g2731
sg55
(lp2747
g48
(g49
g50
NtRp2748
(dp2749
g53
(dp2750
g61
I5
ssg62
g2744
sg55
(lp2751
g48
(g57
g50
NtRp2752
(dp2753
g53
(dp2754
g61
I4
ssg62
Nsg55
(lp2755
g48
(g64
g50
NtRp2756
(dp2757
g53
(dp2758
sg62
g2752
sg55
(lp2759
g48
(g69
g50
NtRp2760
(dp2761
g53
(dp2762
g73
g74
ssg62
g2756
sg55
(lp2763
S'environ'
p2764
asbag48
(g69
g50
NtRp2765
(dp2766
g53
(dp2767
g80
g81
ssg62
g2756
sg55
(lp2768
S':'
asbag48
(g69
g50
NtRp2769
(dp2770
g53
(dp2771
sg62
g2756
sg55
(lp2772
g48
(g49
g50
NtRp2773
(dp2774
g53
(dp2775
g61
I4
ssg62
g2769
sg55
(lp2776
g48
(g57
g50
NtRp2777
(dp2778
g53
(dp2779
g61
I3
ssg62
Nsg55
(lp2780
g48
(g64
g50
NtRp2781
(dp2782
g53
(dp2783
sg62
g2777
sg55
(lp2784
g48
(g69
g50
NtRp2785
(dp2786
g53
(dp2787
g73
g74
ssg62
g2781
sg55
(lp2788
S'HTTP_ACCEPT'
p2789
asbag48
(g69
g50
NtRp2790
(dp2791
g53
(dp2792
g80
g81
ssg62
g2781
sg55
(lp2793
S':'
asbag48
(g69
g50
NtRp2794
(dp2795
g53
(dp2796
sg62
g2781
sg55
(lp2797
g48
(g49
g50
NtRp2798
(dp2799
g53
(dp2800
g61
I3
ssg62
g2794
sg55
(lp2801
g1758
asbasbasbag48
(g64
g50
NtRp2802
(dp2803
g53
(dp2804
sg62
g2777
sg55
(lp2805
g48
(g69
g50
NtRp2806
(dp2807
g53
(dp2808
g73
g74
ssg62
g2802
sg55
(lp2809
S'HTTP_ACCEPT_CHARSET'
p2810
asbag48
(g69
g50
NtRp2811
(dp2812
g53
(dp2813
g80
g81
ssg62
g2802
sg55
(lp2814
S':'
asbag48
(g69
g50
NtRp2815
(dp2816
g53
(dp2817
sg62
g2802
sg55
(lp2818
g48
(g49
g50
NtRp2819
(dp2820
g53
(dp2821
g61
I3
ssg62
g2815
sg55
(lp2822
g1780
asbasbasbag48
(g64
g50
NtRp2823
(dp2824
g53
(dp2825
sg62
g2777
sg55
(lp2826
g48
(g69
g50
NtRp2827
(dp2828
g53
(dp2829
g73
g74
ssg62
g2823
sg55
(lp2830
S'HTTP_ACCEPT_ENCODING'
p2831
asbag48
(g69
g50
NtRp2832
(dp2833
g53
(dp2834
g80
g81
ssg62
g2823
sg55
(lp2835
S':'
asbag48
(g69
g50
NtRp2836
(dp2837
g53
(dp2838
sg62
g2823
sg55
(lp2839
g48
(g49
g50
NtRp2840
(dp2841
g53
(dp2842
g61
I3
ssg62
g2836
sg55
(lp2843
g1802
asbasbasbag48
(g64
g50
NtRp2844
(dp2845
g53
(dp2846
sg62
g2777
sg55
(lp2847
g48
(g69
g50
NtRp2848
(dp2849
g53
(dp2850
g73
g74
ssg62
g2844
sg55
(lp2851
S'HTTP_ACCEPT_LANGUAGE'
p2852
asbag48
(g69
g50
NtRp2853
(dp2854
g53
(dp2855
g80
g81
ssg62
g2844
sg55
(lp2856
S':'
asbag48
(g69
g50
NtRp2857
(dp2858
g53
(dp2859
sg62
g2844
sg55
(lp2860
g48
(g49
g50
NtRp2861
(dp2862
g53
(dp2863
g61
I3
ssg62
g2857
sg55
(lp2864
g1824
asbasbasbag48
(g64
g50
NtRp2865
(dp2866
g53
(dp2867
sg62
g2777
sg55
(lp2868
g48
(g69
g50
NtRp2869
(dp2870
g53
(dp2871
g73
g74
ssg62
g2865
sg55
(lp2872
S'HTTP_CACHE_CONTROL'
p2873
asbag48
(g69
g50
NtRp2874
(dp2875
g53
(dp2876
g80
g81
ssg62
g2865
sg55
(lp2877
S':'
asbag48
(g69
g50
NtRp2878
(dp2879
g53
(dp2880
sg62
g2865
sg55
(lp2881
g48
(g49
g50
NtRp2882
(dp2883
g53
(dp2884
g61
I3
ssg62
g2878
sg55
(lp2885
g1846
asbasbasbag48
(g64
g50
NtRp2886
(dp2887
g53
(dp2888
sg62
g2777
sg55
(lp2889
g48
(g69
g50
NtRp2890
(dp2891
g53
(dp2892
g73
g74
ssg62
g2886
sg55
(lp2893
S'HTTP_CONNECTION'
p2894
asbag48
(g69
g50
NtRp2895
(dp2896
g53
(dp2897
g80
g81
ssg62
g2886
sg55
(lp2898
S':'
asbag48
(g69
g50
NtRp2899
(dp2900
g53
(dp2901
sg62
g2886
sg55
(lp2902
g48
(g49
g50
NtRp2903
(dp2904
g53
(dp2905
g61
I3
ssg62
g2899
sg55
(lp2906
g1868
asbasbasbag48
(g64
g50
NtRp2907
(dp2908
g53
(dp2909
sg62
g2777
sg55
(lp2910
g48
(g69
g50
NtRp2911
(dp2912
g53
(dp2913
g73
g74
ssg62
g2907
sg55
(lp2914
S'HTTP_COOKIE'
p2915
asbag48
(g69
g50
NtRp2916
(dp2917
g53
(dp2918
g80
g81
ssg62
g2907
sg55
(lp2919
S':'
asbag48
(g69
g50
NtRp2920
(dp2921
g53
(dp2922
sg62
g2907
sg55
(lp2923
g48
(g49
g50
NtRp2924
(dp2925
g53
(dp2926
g61
I3
ssg62
g2920
sg55
(lp2927
g1890
asbasbasbag48
(g64
g50
NtRp2928
(dp2929
g53
(dp2930
sg62
g2777
sg55
(lp2931
g48
(g69
g50
NtRp2932
(dp2933
g53
(dp2934
g73
g74
ssg62
g2928
sg55
(lp2935
S'HTTP_HOST'
p2936
asbag48
(g69
g50
NtRp2937
(dp2938
g53
(dp2939
g80
g81
ssg62
g2928
sg55
(lp2940
S':'
asbag48
(g69
g50
NtRp2941
(dp2942
g53
(dp2943
sg62
g2928
sg55
(lp2944
g48
(g49
g50
NtRp2945
(dp2946
g53
(dp2947
g61
I3
ssg62
g2941
sg55
(lp2948
g1912
asbasbasbag48
(g64
g50
NtRp2949
(dp2950
g53
(dp2951
sg62
g2777
sg55
(lp2952
g48
(g69
g50
NtRp2953
(dp2954
g53
(dp2955
g73
g74
ssg62
g2949
sg55
(lp2956
S'HTTP_REFERER'
p2957
asbag48
(g69
g50
NtRp2958
(dp2959
g53
(dp2960
g80
g81
ssg62
g2949
sg55
(lp2961
S':'
asbag48
(g69
g50
NtRp2962
(dp2963
g53
(dp2964
sg62
g2949
sg55
(lp2965
g48
(g49
g50
NtRp2966
(dp2967
g53
(dp2968
g61
I3
ssg62
g2962
sg55
(lp2969
g1934
asbasbasbag48
(g64
g50
NtRp2970
(dp2971
g53
(dp2972
sg62
g2777
sg55
(lp2973
g48
(g69
g50
NtRp2974
(dp2975
g53
(dp2976
g73
g74
ssg62
g2970
sg55
(lp2977
S'HTTP_USER_AGENT'
p2978
asbag48
(g69
g50
NtRp2979
(dp2980
g53
(dp2981
g80
g81
ssg62
g2970
sg55
(lp2982
S':'
asbag48
(g69
g50
NtRp2983
(dp2984
g53
(dp2985
sg62
g2970
sg55
(lp2986
g48
(g49
g50
NtRp2987
(dp2988
g53
(dp2989
g61
I3
ssg62
g2983
sg55
(lp2990
g1956
asbasbasbag48
(g64
g50
NtRp2991
(dp2992
g53
(dp2993
sg62
g2777
sg55
(lp2994
g48
(g69
g50
NtRp2995
(dp2996
g53
(dp2997
g73
g74
ssg62
g2991
sg55
(lp2998
S'PATH_INFO'
p2999
asbag48
(g69
g50
NtRp3000
(dp3001
g53
(dp3002
g80
g81
ssg62
g2991
sg55
(lp3003
S':'
asbag48
(g69
g50
NtRp3004
(dp3005
g53
(dp3006
sg62
g2991
sg55
(lp3007
g48
(g49
g50
NtRp3008
(dp3009
g53
(dp3010
g61
I3
ssg62
g3004
sg55
(lp3011
g1999
asbasbasbag48
(g64
g50
NtRp3012
(dp3013
g53
(dp3014
sg62
g2777
sg55
(lp3015
g48
(g69
g50
NtRp3016
(dp3017
g53
(dp3018
g73
g74
ssg62
g3012
sg55
(lp3019
S'QUERY_STRING'
p3020
asbag48
(g69
g50
NtRp3021
(dp3022
g53
(dp3023
g80
g81
ssg62
g3012
sg55
(lp3024
S':'
asbag48
(g69
g50
NtRp3025
(dp3026
g53
(dp3027
sg62
g3012
sg55
(lp3028
g48
(g49
g50
NtRp3029
(dp3030
g53
(dp3031
g61
I3
ssg62
g3025
sg55
(lp3032
S''
asbasbasbag48
(g64
g50
NtRp3033
(dp3034
g53
(dp3035
sg62
g2777
sg55
(lp3036
g48
(g69
g50
NtRp3037
(dp3038
g53
(dp3039
g73
g74
ssg62
g3033
sg55
(lp3040
S'REMOTE_ADDR'
p3041
asbag48
(g69
g50
NtRp3042
(dp3043
g53
(dp3044
g80
g81
ssg62
g3033
sg55
(lp3045
S':'
asbag48
(g69
g50
NtRp3046
(dp3047
g53
(dp3048
sg62
g3033
sg55
(lp3049
g48
(g49
g50
NtRp3050
(dp3051
g53
(dp3052
g61
I3
ssg62
g3046
sg55
(lp3053
g181
asbasbasbag48
(g64
g50
NtRp3054
(dp3055
g53
(dp3056
sg62
g2777
sg55
(lp3057
g48
(g69
g50
NtRp3058
(dp3059
g53
(dp3060
g73
g74
ssg62
g3054
sg55
(lp3061
S'REMOTE_PORT'
p3062
asbag48
(g69
g50
NtRp3063
(dp3064
g53
(dp3065
g80
g81
ssg62
g3054
sg55
(lp3066
S':'
asbag48
(g69
g50
NtRp3067
(dp3068
g53
(dp3069
sg62
g3054
sg55
(lp3070
g48
(g49
g50
NtRp3071
(dp3072
g53
(dp3073
g61
I3
ssg62
g3067
sg55
(lp3074
g2063
asbasbasbag48
(g64
g50
NtRp3075
(dp3076
g53
(dp3077
sg62
g2777
sg55
(lp3078
g48
(g69
g50
NtRp3079
(dp3080
g53
(dp3081
g73
g74
ssg62
g3075
sg55
(lp3082
S'REQUEST_METHOD'
p3083
asbag48
(g69
g50
NtRp3084
(dp3085
g53
(dp3086
g80
g81
ssg62
g3075
sg55
(lp3087
S':'
asbag48
(g69
g50
NtRp3088
(dp3089
g53
(dp3090
sg62
g3075
sg55
(lp3091
g48
(g49
g50
NtRp3092
(dp3093
g53
(dp3094
g61
I3
ssg62
g3088
sg55
(lp3095
g2085
asbasbasbag48
(g64
g50
NtRp3096
(dp3097
g53
(dp3098
sg62
g2777
sg55
(lp3099
g48
(g69
g50
NtRp3100
(dp3101
g53
(dp3102
g73
g74
ssg62
g3096
sg55
(lp3103
S'SCRIPT_NAME'
p3104
asbag48
(g69
g50
NtRp3105
(dp3106
g53
(dp3107
g80
g81
ssg62
g3096
sg55
(lp3108
S':'
asbag48
(g69
g50
NtRp3109
(dp3110
g53
(dp3111
sg62
g3096
sg55
(lp3112
g48
(g49
g50
NtRp3113
(dp3114
g53
(dp3115
g61
I3
ssg62
g3109
sg55
(lp3116
S''
asbasbasbag48
(g64
g50
NtRp3117
(dp3118
g53
(dp3119
sg62
g2777
sg55
(lp3120
g48
(g69
g50
NtRp3121
(dp3122
g53
(dp3123
g73
g74
ssg62
g3117
sg55
(lp3124
S'SERVER_NAME'
p3125
asbag48
(g69
g50
NtRp3126
(dp3127
g53
(dp3128
g80
g81
ssg62
g3117
sg55
(lp3129
S':'
asbag48
(g69
g50
NtRp3130
(dp3131
g53
(dp3132
sg62
g3117
sg55
(lp3133
g48
(g49
g50
NtRp3134
(dp3135
g53
(dp3136
g61
I3
ssg62
g3130
sg55
(lp3137
g2128
asbasbasbag48
(g64
g50
NtRp3138
(dp3139
g53
(dp3140
sg62
g2777
sg55
(lp3141
g48
(g69
g50
NtRp3142
(dp3143
g53
(dp3144
g73
g74
ssg62
g3138
sg55
(lp3145
S'SERVER_PORT'
p3146
asbag48
(g69
g50
NtRp3147
(dp3148
g53
(dp3149
g80
g81
ssg62
g3138
sg55
(lp3150
S':'
asbag48
(g69
g50
NtRp3151
(dp3152
g53
(dp3153
sg62
g3138
sg55
(lp3154
g48
(g49
g50
NtRp3155
(dp3156
g53
(dp3157
g61
I3
ssg62
g3151
sg55
(lp3158
g2150
asbasbasbag48
(g64
g50
NtRp3159
(dp3160
g53
(dp3161
sg62
g2777
sg55
(lp3162
g48
(g69
g50
NtRp3163
(dp3164
g53
(dp3165
g73
g74
ssg62
g3159
sg55
(lp3166
S'SERVER_PROTOCOL'
p3167
asbag48
(g69
g50
NtRp3168
(dp3169
g53
(dp3170
g80
g81
ssg62
g3159
sg55
(lp3171
S':'
asbag48
(g69
g50
NtRp3172
(dp3173
g53
(dp3174
sg62
g3159
sg55
(lp3175
g48
(g49
g50
NtRp3176
(dp3177
g53
(dp3178
g61
I3
ssg62
g3172
sg55
(lp3179
g2172
asbasbasbag48
(g64
g50
NtRp3180
(dp3181
g53
(dp3182
sg62
g2777
sg55
(lp3183
g48
(g69
g50
NtRp3184
(dp3185
g53
(dp3186
g73
g74
ssg62
g3180
sg55
(lp3187
S'SERVER_SOFTWARE'
p3188
asbag48
(g69
g50
NtRp3189
(dp3190
g53
(dp3191
g80
g81
ssg62
g3180
sg55
(lp3192
S':'
asbag48
(g69
g50
NtRp3193
(dp3194
g53
(dp3195
sg62
g3180
sg55
(lp3196
g48
(g49
g50
NtRp3197
(dp3198
g53
(dp3199
g61
I3
ssg62
g3193
sg55
(lp3200
g2194
asbasbasbag48
(g64
g50
NtRp3201
(dp3202
g53
(dp3203
sg62
g2777
sg55
(lp3204
g48
(g69
g50
NtRp3205
(dp3206
g53
(dp3207
g73
g74
ssg62
g3201
sg55
(lp3208
S'wsgi.errors'
p3209
asbag48
(g69
g50
NtRp3210
(dp3211
g53
(dp3212
g80
g81
ssg62
g3201
sg55
(lp3213
S':'
asbag48
(g69
g50
NtRp3214
(dp3215
g53
(dp3216
sg62
g3201
sg55
(lp3217
g48
(g49
g50
NtRp3218
(dp3219
g53
(dp3220
g61
I3
ssg62
g3214
sg55
(lp3221
S"<open file '<stderr>', mode 'w' at 0x003100B0>"
p3222
asbasbasbag48
(g64
g50
NtRp3223
(dp3224
g53
(dp3225
sg62
g2777
sg55
(lp3226
g48
(g69
g50
NtRp3227
(dp3228
g53
(dp3229
g73
g74
ssg62
g3223
sg55
(lp3230
S'wsgi.file_wrapper'
p3231
asbag48
(g69
g50
NtRp3232
(dp3233
g53
(dp3234
g80
g81
ssg62
g3223
sg55
(lp3235
S':'
asbag48
(g69
g50
NtRp3236
(dp3237
g53
(dp3238
sg62
g3223
sg55
(lp3239
g48
(g49
g50
NtRp3240
(dp3241
g53
(dp3242
g61
I3
ssg62
g3236
sg55
(lp3243
S'<class gluon.rocket.FileWrapper at 0x02FFC1B0>'
p3244
asbasbasbag48
(g64
g50
NtRp3245
(dp3246
g53
(dp3247
sg62
g2777
sg55
(lp3248
g48
(g69
g50
NtRp3249
(dp3250
g53
(dp3251
g73
g74
ssg62
g3245
sg55
(lp3252
S'wsgi.input'
p3253
asbag48
(g69
g50
NtRp3254
(dp3255
g53
(dp3256
g80
g81
ssg62
g3245
sg55
(lp3257
S':'
asbag48
(g69
g50
NtRp3258
(dp3259
g53
(dp3260
sg62
g3245
sg55
(lp3261
g48
(g49
g50
NtRp3262
(dp3263
g53
(dp3264
g61
I3
ssg62
g3258
sg55
(lp3265
S'<cStringIO.StringO object at 0x088C0F60>'
p3266
asbasbasbag48
(g64
g50
NtRp3267
(dp3268
g53
(dp3269
sg62
g2777
sg55
(lp3270
g48
(g69
g50
NtRp3271
(dp3272
g53
(dp3273
g73
g74
ssg62
g3267
sg55
(lp3274
S'wsgi.multiprocess'
p3275
asbag48
(g69
g50
NtRp3276
(dp3277
g53
(dp3278
g80
g81
ssg62
g3267
sg55
(lp3279
S':'
asbag48
(g69
g50
NtRp3280
(dp3281
g53
(dp3282
sg62
g3267
sg55
(lp3283
g48
(g49
g50
NtRp3284
(dp3285
g53
(dp3286
g61
I3
ssg62
g3280
sg55
(lp3287
g91
asbasbasbag48
(g64
g50
NtRp3288
(dp3289
g53
(dp3290
sg62
g2777
sg55
(lp3291
g48
(g69
g50
NtRp3292
(dp3293
g53
(dp3294
g73
g74
ssg62
g3288
sg55
(lp3295
S'wsgi.multithread'
p3296
asbag48
(g69
g50
NtRp3297
(dp3298
g53
(dp3299
g80
g81
ssg62
g3288
sg55
(lp3300
S':'
asbag48
(g69
g50
NtRp3301
(dp3302
g53
(dp3303
sg62
g3288
sg55
(lp3304
g48
(g49
g50
NtRp3305
(dp3306
g53
(dp3307
g61
I3
ssg62
g3301
sg55
(lp3308
g2368
asbasbasbag48
(g64
g50
NtRp3309
(dp3310
g53
(dp3311
sg62
g2777
sg55
(lp3312
g48
(g69
g50
NtRp3313
(dp3314
g53
(dp3315
g73
g74
ssg62
g3309
sg55
(lp3316
S'wsgi.run_once'
p3317
asbag48
(g69
g50
NtRp3318
(dp3319
g53
(dp3320
g80
g81
ssg62
g3309
sg55
(lp3321
S':'
asbag48
(g69
g50
NtRp3322
(dp3323
g53
(dp3324
sg62
g3309
sg55
(lp3325
g48
(g49
g50
NtRp3326
(dp3327
g53
(dp3328
g61
I3
ssg62
g3322
sg55
(lp3329
g91
asbasbasbag48
(g64
g50
NtRp3330
(dp3331
g53
(dp3332
sg62
g2777
sg55
(lp3333
g48
(g69
g50
NtRp3334
(dp3335
g53
(dp3336
g73
g74
ssg62
g3330
sg55
(lp3337
S'wsgi.url_scheme'
p3338
asbag48
(g69
g50
NtRp3339
(dp3340
g53
(dp3341
g80
g81
ssg62
g3330
sg55
(lp3342
S':'
asbag48
(g69
g50
NtRp3343
(dp3344
g53
(dp3345
sg62
g3330
sg55
(lp3346
g48
(g49
g50
NtRp3347
(dp3348
g53
(dp3349
g61
I3
ssg62
g3343
sg55
(lp3350
g2411
asbasbasbag48
(g64
g50
NtRp3351
(dp3352
g53
(dp3353
sg62
g2777
sg55
(lp3354
g48
(g69
g50
NtRp3355
(dp3356
g53
(dp3357
g73
g74
ssg62
g3351
sg55
(lp3358
S'wsgi.version'
p3359
asbag48
(g69
g50
NtRp3360
(dp3361
g53
(dp3362
g80
g81
ssg62
g3351
sg55
(lp3363
S':'
asbag48
(g69
g50
NtRp3364
(dp3365
g53
(dp3366
sg62
g3351
sg55
(lp3367
g48
(g49
g50
NtRp3368
(dp3369
g53
(dp3370
g61
I3
ssg62
g3364
sg55
(lp3371
S'1'
asbasbasbasbasbasbasbasbasbasbasbasbasbsS'frames'
p3372
(lp3373
(dp3374
S'file'
p3375
S'C:\\Users\\Atomico\\web2py\\gluon\\restricted.py'
p3376
sS'dump'
p3377
(dp3378
sS'lnum'
p3379
I192
sS'lines'
p3380
(dp3381
sS'call'
p3382
S"(code='def entrada():\\n    form=SQLFORM(db.info)\\n    if ...)\\n\\nresponse._vars=response._caller(entrada_mod3)\\n', environment={'A': <class 'gluon.html.A'>, 'B': <class 'gluon.html.B'>, 'BEAUTIFY': <class 'gluon.html.BEAUTIFY'>, 'BODY': <class 'gluon.html.BODY'>, 'BR': <class 'gluon.html.BR'>, 'BUTTON': <class 'gluon.html.BUTTON'>, 'CAT': <class 'gluon.html.CAT'>, 'CENTER': <class 'gluon.html.CENTER'>, 'CLEANUP': <class 'gluon.validators.CLEANUP'>, 'CODE': <class 'gluon.html.CODE'>, ...}, layer=r'C:\\Users\\Atomico\\web2py\\applications\\Desglosar_Emails\\controllers/default.py')"
p3383
sS'func'
p3384
S'restricted'
p3385
sa(dp3386
g3375
S'C:\\Users\\Atomico\\web2py\\applications\\Desglosar_Emails\\controllers\\default.py'
p3387
sg3377
(dp3388
sg3379
I69
sg3380
(dp3389
I64
S'    form=SQLFORM(db.info3)'
p3390
sI65
S'    if form.accepts(request.vars,session):pass'
p3391
sI66
S''
sI67
S'    return dict(form=form)'
p3392
sI58
S'    form2=SQLFORM(db.perro)'
p3393
sI59
S'    if form2.accepts(request.vars,session):pass'
p3394
sI60
S''
sI61
S'    return dict(form=form,form2=form2)'
p3395
sI62
S''
sI63
S'def entrada_mod3():'
p3396
ssg3382
S'()'
p3397
sg3384
S'<module>'
p3398
sa(dp3399
g3375
S'C:\\Users\\Atomico\\web2py\\gluon\\globals.py'
p3400
sg3377
(dp3401
sg3379
I145
sg3380
(dp3402
sg3382
S'(f=<function entrada_mod3 at 0x075D96F0>)'
p3403
sg3384
S'<lambda>'
p3404
sa(dp3405
g3375
S'C:\\Users\\Atomico\\web2py\\applications\\Desglosar_Emails\\controllers\\default.py'
p3406
sg3377
(dp3407
sg3379
I64
sg3380
(dp3408
I64
S'    form=SQLFORM(db.info3)'
p3409
sI65
S'    if form.accepts(request.vars,session):pass'
p3410
sI66
S''
sI67
S'    return dict(form=form)'
p3411
sI58
S'    form2=SQLFORM(db.perro)'
p3412
sI59
S'    if form2.accepts(request.vars,session):pass'
p3413
sI60
S''
sI61
S'    return dict(form=form,form2=form2)'
p3414
sI62
S''
sI63
S'def entrada_mod3():'
p3415
ssg3382
S'()'
p3416
sg3384
S'entrada_mod3'
p3417
sa(dp3418
g3375
S'C:\\Users\\Atomico\\web2py\\gluon\\dal.py'
p3419
sg3377
(dp3420
sg3379
I4331
sg3380
(dp3421
sg3382
S"(self=<DAL {'persona': <Table {'ALL': <gluon.dal.SQLAL...ing_references': {}, '_uri': 'sqlite://mydb.db'}>, key='info3')"
p3422
sg3384
S'__getattr__'
p3423
sa(dp3424
g3375
S'C:\\Users\\Atomico\\web2py\\gluon\\dal.py'
p3425
sg3377
(dp3426
sg3379
I4325
sg3380
(dp3427
sg3382
S"(self=<DAL {'persona': <Table {'ALL': <gluon.dal.SQLAL...ing_references': {}, '_uri': 'sqlite://mydb.db'}>, key='info3')"
p3428
sg3384
g19
sasS'pyver'
p3429
S'Python 2.5.4: C:\\Users\\Atomico\\web2py\\web2py.exe'
p3430
sS'session'
p3431
g48
(g49
g50
NtRp3432
(dp3433
g53
(dp3434
sg55
(lp3435
g48
(g57
g50
NtRp3436
(dp3437
g53
(dp3438
g61
I5
ssg62
Nsg55
(lp3439
g48
(g64
g50
NtRp3440
(dp3441
g53
(dp3442
sg62
g3436
sg55
(lp3443
g48
(g69
g50
NtRp3444
(dp3445
g53
(dp3446
g73
g74
ssg62
g3440
sg55
(lp3447
S'last_query'
p3448
asbag48
(g69
g50
NtRp3449
(dp3450
g53
(dp3451
g80
g81
ssg62
g3440
sg55
(lp3452
S':'
asbag48
(g69
g50
NtRp3453
(dp3454
g53
(dp3455
sg62
g3440
sg55
(lp3456
g48
(g49
g50
NtRp3457
(dp3458
g53
(dp3459
g61
I5
ssg62
g3453
sg55
(lp3460
S'db.info4.id>0'
p3461
asbasbasbasbasbsS'etype'
p3462
S"<type 'exceptions.KeyError'>"
p3463
sS'date'
p3464
S'Tue Sep 20 04:29:54 2011'
p3465
sS'response'
p3466
g48
(g49
g50
NtRp3467
(dp3468
g53
(dp3469
sg55
(lp3470
g48
(g57
g50
NtRp3471
(dp3472
g53
(dp3473
g61
I5
ssg62
Nsg55
(lp3474
g48
(g64
g50
NtRp3475
(dp3476
g53
(dp3477
sg62
g3471
sg55
(lp3478
g48
(g69
g50
NtRp3479
(dp3480
g53
(dp3481
g73
g74
ssg62
g3475
sg55
(lp3482
g146
asbag48
(g69
g50
NtRp3483
(dp3484
g53
(dp3485
g80
g81
ssg62
g3475
sg55
(lp3486
S':'
asbag48
(g69
g50
NtRp3487
(dp3488
g53
(dp3489
sg62
g3475
sg55
(lp3490
g48
(g49
g50
NtRp3491
(dp3492
g53
(dp3493
g61
I5
ssg62
g3487
sg55
(lp3494
S'<cStringIO.StringO object at 0x088C0AC0>'
p3495
asbasbasbag48
(g64
g50
NtRp3496
(dp3497
g53
(dp3498
sg62
g3471
sg55
(lp3499
g48
(g69
g50
NtRp3500
(dp3501
g53
(dp3502
g73
g74
ssg62
g3496
sg55
(lp3503
g212
asbag48
(g69
g50
NtRp3504
(dp3505
g53
(dp3506
g80
g81
ssg62
g3496
sg55
(lp3507
S':'
asbag48
(g69
g50
NtRp3508
(dp3509
g53
(dp3510
sg62
g3496
sg55
(lp3511
g48
(g49
g50
NtRp3512
(dp3513
g53
(dp3514
g61
I5
ssg62
g3508
sg55
(lp3515
g48
(g57
g50
NtRp3516
(dp3517
g53
(dp3518
g61
I4
ssg62
Nsg55
(lp3519
g48
(g64
g50
NtRp3520
(dp3521
g53
(dp3522
sg62
g3516
sg55
(lp3523
g48
(g69
g50
NtRp3524
(dp3525
g53
(dp3526
g73
g74
ssg62
g3520
sg55
(lp3527
S'session_id_desglosar_emails'
p3528
asbag48
(g69
g50
NtRp3529
(dp3530
g53
(dp3531
g80
g81
ssg62
g3520
sg55
(lp3532
S':'
asbag48
(g69
g50
NtRp3533
(dp3534
g53
(dp3535
sg62
g3520
sg55
(lp3536
g48
(g49
g50
NtRp3537
(dp3538
g53
(dp3539
g61
I4
ssg62
g3533
sg55
(lp3540
g48
(g57
g50
NtRp3541
(dp3542
g53
(dp3543
g61
I3
ssg62
Nsg55
(lp3544
g48
(g64
g50
NtRp3545
(dp3546
g53
(dp3547
sg62
g3541
sg55
(lp3548
g48
(g69
g50
NtRp3549
(dp3550
g53
(dp3551
g73
g74
ssg62
g3545
sg55
(lp3552
g262
asbag48
(g69
g50
NtRp3553
(dp3554
g53
(dp3555
g80
g81
ssg62
g3545
sg55
(lp3556
S':'
asbag48
(g69
g50
NtRp3557
(dp3558
g53
(dp3559
sg62
g3545
sg55
(lp3560
g48
(g49
g50
NtRp3561
(dp3562
g53
(dp3563
g61
I3
ssg62
g3557
sg55
(lp3564
S''
asbasbasbag48
(g64
g50
NtRp3565
(dp3566
g53
(dp3567
sg62
g3541
sg55
(lp3568
g48
(g69
g50
NtRp3569
(dp3570
g53
(dp3571
g73
g74
ssg62
g3565
sg55
(lp3572
g283
asbag48
(g69
g50
NtRp3573
(dp3574
g53
(dp3575
g80
g81
ssg62
g3565
sg55
(lp3576
S':'
asbag48
(g69
g50
NtRp3577
(dp3578
g53
(dp3579
sg62
g3565
sg55
(lp3580
g48
(g49
g50
NtRp3581
(dp3582
g53
(dp3583
g61
I3
ssg62
g3577
sg55
(lp3584
S''
asbasbasbag48
(g64
g50
NtRp3585
(dp3586
g53
(dp3587
sg62
g3541
sg55
(lp3588
g48
(g69
g50
NtRp3589
(dp3590
g53
(dp3591
g73
g74
ssg62
g3585
sg55
(lp3592
g304
asbag48
(g69
g50
NtRp3593
(dp3594
g53
(dp3595
g80
g81
ssg62
g3585
sg55
(lp3596
S':'
asbag48
(g69
g50
NtRp3597
(dp3598
g53
(dp3599
sg62
g3585
sg55
(lp3600
g48
(g49
g50
NtRp3601
(dp3602
g53
(dp3603
g61
I3
ssg62
g3597
sg55
(lp3604
S''
asbasbasbag48
(g64
g50
NtRp3605
(dp3606
g53
(dp3607
sg62
g3541
sg55
(lp3608
g48
(g69
g50
NtRp3609
(dp3610
g53
(dp3611
g73
g74
ssg62
g3605
sg55
(lp3612
g325
asbag48
(g69
g50
NtRp3613
(dp3614
g53
(dp3615
g80
g81
ssg62
g3605
sg55
(lp3616
S':'
asbag48
(g69
g50
NtRp3617
(dp3618
g53
(dp3619
sg62
g3605
sg55
(lp3620
g48
(g49
g50
NtRp3621
(dp3622
g53
(dp3623
g61
I3
ssg62
g3617
sg55
(lp3624
S''
asbasbasbag48
(g64
g50
NtRp3625
(dp3626
g53
(dp3627
sg62
g3541
sg55
(lp3628
g48
(g69
g50
NtRp3629
(dp3630
g53
(dp3631
g73
g74
ssg62
g3625
sg55
(lp3632
g346
asbag48
(g69
g50
NtRp3633
(dp3634
g53
(dp3635
g80
g81
ssg62
g3625
sg55
(lp3636
S':'
asbag48
(g69
g50
NtRp3637
(dp3638
g53
(dp3639
sg62
g3625
sg55
(lp3640
g48
(g49
g50
NtRp3641
(dp3642
g53
(dp3643
g61
I3
ssg62
g3637
sg55
(lp3644
S'/'
asbasbasbag48
(g64
g50
NtRp3645
(dp3646
g53
(dp3647
sg62
g3541
sg55
(lp3648
g48
(g69
g50
NtRp3649
(dp3650
g53
(dp3651
g73
g74
ssg62
g3645
sg55
(lp3652
g367
asbag48
(g69
g50
NtRp3653
(dp3654
g53
(dp3655
g80
g81
ssg62
g3645
sg55
(lp3656
S':'
asbag48
(g69
g50
NtRp3657
(dp3658
g53
(dp3659
sg62
g3645
sg55
(lp3660
g48
(g49
g50
NtRp3661
(dp3662
g53
(dp3663
g61
I3
ssg62
g3657
sg55
(lp3664
S''
asbasbasbag48
(g64
g50
NtRp3665
(dp3666
g53
(dp3667
sg62
g3541
sg55
(lp3668
g48
(g69
g50
NtRp3669
(dp3670
g53
(dp3671
g73
g74
ssg62
g3665
sg55
(lp3672
g388
asbag48
(g69
g50
NtRp3673
(dp3674
g53
(dp3675
g80
g81
ssg62
g3665
sg55
(lp3676
S':'
asbag48
(g69
g50
NtRp3677
(dp3678
g53
(dp3679
sg62
g3665
sg55
(lp3680
g48
(g49
g50
NtRp3681
(dp3682
g53
(dp3683
g61
I3
ssg62
g3677
sg55
(lp3684
S''
asbasbasbasbasbasbasbasbasbasbasbag48
(g64
g50
NtRp3685
(dp3686
g53
(dp3687
sg62
g3471
sg55
(lp3688
g48
(g69
g50
NtRp3689
(dp3690
g53
(dp3691
g73
g74
ssg62
g3685
sg55
(lp3692
S'files'
p3693
asbag48
(g69
g50
NtRp3694
(dp3695
g53
(dp3696
g80
g81
ssg62
g3685
sg55
(lp3697
S':'
asbag48
(g69
g50
NtRp3698
(dp3699
g53
(dp3700
sg62
g3685
sg55
(lp3701
g48
(g49
g50
NtRp3702
(dp3703
g53
(dp3704
g61
I5
ssg62
g3698
sg55
(lp3705
g48
(g57
g50
NtRp3706
(dp3707
g53
(dp3708
g61
I4
ssg62
Nsg55
(lp3709
sbasbasbasbag48
(g64
g50
NtRp3710
(dp3711
g53
(dp3712
sg62
g3471
sg55
(lp3713
g48
(g69
g50
NtRp3714
(dp3715
g53
(dp3716
g73
g74
ssg62
g3710
sg55
(lp3717
S'flash'
p3718
asbag48
(g69
g50
NtRp3719
(dp3720
g53
(dp3721
g80
g81
ssg62
g3710
sg55
(lp3722
S':'
asbag48
(g69
g50
NtRp3723
(dp3724
g53
(dp3725
sg62
g3710
sg55
(lp3726
g48
(g49
g50
NtRp3727
(dp3728
g53
(dp3729
g61
I5
ssg62
g3723
sg55
(lp3730
S''
asbasbasbag48
(g64
g50
NtRp3731
(dp3732
g53
(dp3733
sg62
g3471
sg55
(lp3734
g48
(g69
g50
NtRp3735
(dp3736
g53
(dp3737
g73
g74
ssg62
g3731
sg55
(lp3738
S'generic_patterns'
p3739
asbag48
(g69
g50
NtRp3740
(dp3741
g53
(dp3742
g80
g81
ssg62
g3731
sg55
(lp3743
S':'
asbag48
(g69
g50
NtRp3744
(dp3745
g53
(dp3746
sg62
g3731
sg55
(lp3747
g48
(g49
g50
NtRp3748
(dp3749
g53
(dp3750
g61
I5
ssg62
g3744
sg55
(lp3751
g48
(g57
g50
NtRp3752
(dp3753
g53
(dp3754
g61
I4
ssg62
Nsg55
(lp3755
sbasbasbasbag48
(g64
g50
NtRp3756
(dp3757
g53
(dp3758
sg62
g3471
sg55
(lp3759
g48
(g69
g50
NtRp3760
(dp3761
g53
(dp3762
g73
g74
ssg62
g3756
sg55
(lp3763
S'headers'
p3764
asbag48
(g69
g50
NtRp3765
(dp3766
g53
(dp3767
g80
g81
ssg62
g3756
sg55
(lp3768
S':'
asbag48
(g69
g50
NtRp3769
(dp3770
g53
(dp3771
sg62
g3756
sg55
(lp3772
g48
(g49
g50
NtRp3773
(dp3774
g53
(dp3775
g61
I5
ssg62
g3769
sg55
(lp3776
g48
(g57
g50
NtRp3777
(dp3778
g53
(dp3779
g61
I4
ssg62
Nsg55
(lp3780
g48
(g64
g50
NtRp3781
(dp3782
g53
(dp3783
sg62
g3777
sg55
(lp3784
g48
(g69
g50
NtRp3785
(dp3786
g53
(dp3787
g73
g74
ssg62
g3781
sg55
(lp3788
S'Cache-Control'
p3789
asbag48
(g69
g50
NtRp3790
(dp3791
g53
(dp3792
g80
g81
ssg62
g3781
sg55
(lp3793
S':'
asbag48
(g69
g50
NtRp3794
(dp3795
g53
(dp3796
sg62
g3781
sg55
(lp3797
g48
(g49
g50
NtRp3798
(dp3799
g53
(dp3800
g61
I4
ssg62
g3794
sg55
(lp3801
S'no-store, no-cache, must-revalidate, post-check=0, pre-check=0'
p3802
asbasbasbag48
(g64
g50
NtRp3803
(dp3804
g53
(dp3805
sg62
g3777
sg55
(lp3806
g48
(g69
g50
NtRp3807
(dp3808
g53
(dp3809
g73
g74
ssg62
g3803
sg55
(lp3810
S'Content-Type'
p3811
asbag48
(g69
g50
NtRp3812
(dp3813
g53
(dp3814
g80
g81
ssg62
g3803
sg55
(lp3815
S':'
asbag48
(g69
g50
NtRp3816
(dp3817
g53
(dp3818
sg62
g3803
sg55
(lp3819
g48
(g49
g50
NtRp3820
(dp3821
g53
(dp3822
g61
I4
ssg62
g3816
sg55
(lp3823
S'text/html; charset=utf-8'
p3824
asbasbasbag48
(g64
g50
NtRp3825
(dp3826
g53
(dp3827
sg62
g3777
sg55
(lp3828
g48
(g69
g50
NtRp3829
(dp3830
g53
(dp3831
g73
g74
ssg62
g3825
sg55
(lp3832
S'Expires'
p3833
asbag48
(g69
g50
NtRp3834
(dp3835
g53
(dp3836
g80
g81
ssg62
g3825
sg55
(lp3837
S':'
asbag48
(g69
g50
NtRp3838
(dp3839
g53
(dp3840
sg62
g3825
sg55
(lp3841
g48
(g49
g50
NtRp3842
(dp3843
g53
(dp3844
g61
I4
ssg62
g3838
sg55
(lp3845
S'Tue, 20 Sep 2011 02:29:54 GMT'
p3846
asbasbasbag48
(g64
g50
NtRp3847
(dp3848
g53
(dp3849
sg62
g3777
sg55
(lp3850
g48
(g69
g50
NtRp3851
(dp3852
g53
(dp3853
g73
g74
ssg62
g3847
sg55
(lp3854
S'Pragma'
p3855
asbag48
(g69
g50
NtRp3856
(dp3857
g53
(dp3858
g80
g81
ssg62
g3847
sg55
(lp3859
S':'
asbag48
(g69
g50
NtRp3860
(dp3861
g53
(dp3862
sg62
g3847
sg55
(lp3863
g48
(g49
g50
NtRp3864
(dp3865
g53
(dp3866
g61
I4
ssg62
g3860
sg55
(lp3867
S'no-cache'
p3868
asbasbasbag48
(g64
g50
NtRp3869
(dp3870
g53
(dp3871
sg62
g3777
sg55
(lp3872
g48
(g69
g50
NtRp3873
(dp3874
g53
(dp3875
g73
g74
ssg62
g3869
sg55
(lp3876
S'X-Powered-By'
p3877
asbag48
(g69
g50
NtRp3878
(dp3879
g53
(dp3880
g80
g81
ssg62
g3869
sg55
(lp3881
S':'
asbag48
(g69
g50
NtRp3882
(dp3883
g53
(dp3884
sg62
g3869
sg55
(lp3885
g48
(g49
g50
NtRp3886
(dp3887
g53
(dp3888
g61
I4
ssg62
g3882
sg55
(lp3889
S'web2py'
p3890
asbasbasbasbasbasbasbag48
(g64
g50
NtRp3891
(dp3892
g53
(dp3893
sg62
g3471
sg55
(lp3894
g48
(g69
g50
NtRp3895
(dp3896
g53
(dp3897
g73
g74
ssg62
g3891
sg55
(lp3898
S'menu'
p3899
asbag48
(g69
g50
NtRp3900
(dp3901
g53
(dp3902
g80
g81
ssg62
g3891
sg55
(lp3903
S':'
asbag48
(g69
g50
NtRp3904
(dp3905
g53
(dp3906
sg62
g3891
sg55
(lp3907
g48
(g49
g50
NtRp3908
(dp3909
g53
(dp3910
g61
I5
ssg62
g3904
sg55
(lp3911
g48
(g57
g50
NtRp3912
(dp3913
g53
(dp3914
g61
I4
ssg62
Nsg55
(lp3915
g48
(g64
g50
NtRp3916
(dp3917
g53
(dp3918
sg62
g3912
sg55
(lp3919
g48
(g69
g50
NtRp3920
(dp3921
g53
(dp3922
sg62
g3916
sg55
(lp3923
g48
(g49
g50
NtRp3924
(dp3925
g53
(dp3926
g61
I4
ssg62
g3920
sg55
(lp3927
g48
(g57
g50
NtRp3928
(dp3929
g53
(dp3930
g61
I3
ssg62
Nsg55
(lp3931
g48
(g64
g50
NtRp3932
(dp3933
g53
(dp3934
sg62
g3928
sg55
(lp3935
g48
(g69
g50
NtRp3936
(dp3937
g53
(dp3938
sg62
g3932
sg55
(lp3939
g48
(g49
g50
NtRp3940
(dp3941
g53
(dp3942
g61
I3
ssg62
g3936
sg55
(lp3943
cgluon.languages
lazyT_unpickle
p3944
(S't\x04\x00\x00\x00Home'
tRp3945
asbasbasbag48
(g64
g50
NtRp3946
(dp3947
g53
(dp3948
sg62
g3928
sg55
(lp3949
g48
(g69
g50
NtRp3950
(dp3951
g53
(dp3952
sg62
g3946
sg55
(lp3953
g48
(g49
g50
NtRp3954
(dp3955
g53
(dp3956
g61
I3
ssg62
g3950
sg55
(lp3957
g91
asbasbasbag48
(g64
g50
NtRp3958
(dp3959
g53
(dp3960
sg62
g3928
sg55
(lp3961
g48
(g69
g50
NtRp3962
(dp3963
g53
(dp3964
sg62
g3958
sg55
(lp3965
g48
(g49
g50
NtRp3966
(dp3967
g53
(dp3968
g61
I3
ssg62
g3962
sg55
(lp3969
S'/Desglosar_Emails/default/index'
p3970
asbasbasbag48
(g64
g50
NtRp3971
(dp3972
g53
(dp3973
sg62
g3928
sg55
(lp3974
g48
(g69
g50
NtRp3975
(dp3976
g53
(dp3977
sg62
g3971
sg55
(lp3978
g48
(g49
g50
NtRp3979
(dp3980
g53
(dp3981
g61
I3
ssg62
g3975
sg55
(lp3982
g48
(g57
g50
NtRp3983
(dp3984
g53
(dp3985
g61
I2
ssg62
Nsg55
(lp3986
sbasbasbasbasbasbasbasbag48
(g64
g50
NtRp3987
(dp3988
g53
(dp3989
sg62
g3912
sg55
(lp3990
g48
(g69
g50
NtRp3991
(dp3992
g53
(dp3993
sg62
g3987
sg55
(lp3994
g48
(g49
g50
NtRp3995
(dp3996
g53
(dp3997
g61
I4
ssg62
g3991
sg55
(lp3998
g48
(g57
g50
NtRp3999
(dp4000
g53
(dp4001
g61
I3
ssg62
Nsg55
(lp4002
g48
(g64
g50
NtRp4003
(dp4004
g53
(dp4005
sg62
g3999
sg55
(lp4006
g48
(g69
g50
NtRp4007
(dp4008
g53
(dp4009
sg62
g4003
sg55
(lp4010
g48
(g49
g50
NtRp4011
(dp4012
g53
(dp4013
g61
I3
ssg62
g4007
sg55
(lp4014
g3944
(S's\x08\x00\x00\x00This App'
tRp4015
asbasbasbag48
(g64
g50
NtRp4016
(dp4017
g53
(dp4018
sg62
g3999
sg55
(lp4019
g48
(g69
g50
NtRp4020
(dp4021
g53
(dp4022
sg62
g4016
sg55
(lp4023
g48
(g49
g50
NtRp4024
(dp4025
g53
(dp4026
g61
I3
ssg62
g4020
sg55
(lp4027
g91
asbasbasbag48
(g64
g50
NtRp4028
(dp4029
g53
(dp4030
sg62
g3999
sg55
(lp4031
g48
(g69
g50
NtRp4032
(dp4033
g53
(dp4034
sg62
g4028
sg55
(lp4035
g48
(g49
g50
NtRp4036
(dp4037
g53
(dp4038
g61
I3
ssg62
g4032
sg55
(lp4039
S'/admin/default/design/Desglosar_Emails'
p4040
asbasbasbag48
(g64
g50
NtRp4041
(dp4042
g53
(dp4043
sg62
g3999
sg55
(lp4044
g48
(g69
g50
NtRp4045
(dp4046
g53
(dp4047
sg62
g4041
sg55
(lp4048
g48
(g49
g50
NtRp4049
(dp4050
g53
(dp4051
g61
I3
ssg62
g4045
sg55
(lp4052
g48
(g57
g50
NtRp4053
(dp4054
g53
(dp4055
g61
I2
ssg62
Nsg55
(lp4056
g48
(g64
g50
NtRp4057
(dp4058
g53
(dp4059
sg62
g4053
sg55
(lp4060
g48
(g69
g50
NtRp4061
(dp4062
g53
(dp4063
sg62
g4057
sg55
(lp4064
g48
(g49
g50
NtRp4065
(dp4066
g53
(dp4067
g61
I2
ssg62
g4061
sg55
(lp4068
g48
(g57
g50
NtRp4069
(dp4070
g53
(dp4071
g61
I1
ssg62
Nsg55
(lp4072
g48
(g64
g50
NtRp4073
(dp4074
g53
(dp4075
sg62
g4069
sg55
(lp4076
g48
(g69
g50
NtRp4077
(dp4078
g53
(dp4079
sg62
g4073
sg55
(lp4080
g48
(g49
g50
NtRp4081
(dp4082
g53
(dp4083
g61
I1
ssg62
g4077
sg55
(lp4084
g3944
(S't\x0b\x00\x00\x00Controlador'
tRp4085
asbasbasbag48
(g64
g50
NtRp4086
(dp4087
g53
(dp4088
sg62
g4069
sg55
(lp4089
g48
(g69
g50
NtRp4090
(dp4091
g53
(dp4092
sg62
g4086
sg55
(lp4093
g48
(g49
g50
NtRp4094
(dp4095
g53
(dp4096
g61
I1
ssg62
g4090
sg55
(lp4097
I00
asbasbasbag48
(g64
g50
NtRp4098
(dp4099
g53
(dp4100
sg62
g4069
sg55
(lp4101
g48
(g69
g50
NtRp4102
(dp4103
g53
(dp4104
sg62
g4098
sg55
(lp4105
g48
(g49
g50
NtRp4106
(dp4107
g53
(dp4108
g61
I1
ssg62
g4102
sg55
(lp4109
S'/admin/default/edit/Desglosar_Emails/controllers/default.py'
p4110
asbasbasbasbasbasbasbag48
(g64
g50
NtRp4111
(dp4112
g53
(dp4113
sg62
g4053
sg55
(lp4114
g48
(g69
g50
NtRp4115
(dp4116
g53
(dp4117
sg62
g4111
sg55
(lp4118
g48
(g49
g50
NtRp4119
(dp4120
g53
(dp4121
g61
I2
ssg62
g4115
sg55
(lp4122
g48
(g57
g50
NtRp4123
(dp4124
g53
(dp4125
g61
I1
ssg62
Nsg55
(lp4126
g48
(g64
g50
NtRp4127
(dp4128
g53
(dp4129
sg62
g4123
sg55
(lp4130
g48
(g69
g50
NtRp4131
(dp4132
g53
(dp4133
sg62
g4127
sg55
(lp4134
g48
(g49
g50
NtRp4135
(dp4136
g53
(dp4137
g61
I1
ssg62
g4131
sg55
(lp4138
g3944
(S't\x05\x00\x00\x00Vista'
tRp4139
asbasbasbag48
(g64
g50
NtRp4140
(dp4141
g53
(dp4142
sg62
g4123
sg55
(lp4143
g48
(g69
g50
NtRp4144
(dp4145
g53
(dp4146
sg62
g4140
sg55
(lp4147
g48
(g49
g50
NtRp4148
(dp4149
g53
(dp4150
g61
I1
ssg62
g4144
sg55
(lp4151
I00
asbasbasbag48
(g64
g50
NtRp4152
(dp4153
g53
(dp4154
sg62
g4123
sg55
(lp4155
g48
(g69
g50
NtRp4156
(dp4157
g53
(dp4158
sg62
g4152
sg55
(lp4159
g48
(g49
g50
NtRp4160
(dp4161
g53
(dp4162
g61
I1
ssg62
g4156
sg55
(lp4163
S'/admin/default/edit/Desglosar_Emails/views/default/entrada_mod3.html'
p4164
asbasbasbasbasbasbasbag48
(g64
g50
NtRp4165
(dp4166
g53
(dp4167
sg62
g4053
sg55
(lp4168
g48
(g69
g50
NtRp4169
(dp4170
g53
(dp4171
sg62
g4165
sg55
(lp4172
g48
(g49
g50
NtRp4173
(dp4174
g53
(dp4175
g61
I2
ssg62
g4169
sg55
(lp4176
g48
(g57
g50
NtRp4177
(dp4178
g53
(dp4179
g61
I1
ssg62
Nsg55
(lp4180
g48
(g64
g50
NtRp4181
(dp4182
g53
(dp4183
sg62
g4177
sg55
(lp4184
g48
(g69
g50
NtRp4185
(dp4186
g53
(dp4187
sg62
g4181
sg55
(lp4188
g48
(g49
g50
NtRp4189
(dp4190
g53
(dp4191
g61
I1
ssg62
g4185
sg55
(lp4192
g3944
(S's\x12\x00\x00\x00Dise\xc3\xb1o de p\xc3\xa1gina'
tRp4193
asbasbasbag48
(g64
g50
NtRp4194
(dp4195
g53
(dp4196
sg62
g4177
sg55
(lp4197
g48
(g69
g50
NtRp4198
(dp4199
g53
(dp4200
sg62
g4194
sg55
(lp4201
g48
(g49
g50
NtRp4202
(dp4203
g53
(dp4204
g61
I1
ssg62
g4198
sg55
(lp4205
I00
asbasbasbag48
(g64
g50
NtRp4206
(dp4207
g53
(dp4208
sg62
g4177
sg55
(lp4209
g48
(g69
g50
NtRp4210
(dp4211
g53
(dp4212
sg62
g4206
sg55
(lp4213
g48
(g49
g50
NtRp4214
(dp4215
g53
(dp4216
g61
I1
ssg62
g4210
sg55
(lp4217
S'/admin/default/edit/Desglosar_Emails/views/layout.html'
p4218
asbasbasbasbasbasbasbag48
(g64
g50
NtRp4219
(dp4220
g53
(dp4221
sg62
g4053
sg55
(lp4222
g48
(g69
g50
NtRp4223
(dp4224
g53
(dp4225
sg62
g4219
sg55
(lp4226
g48
(g49
g50
NtRp4227
(dp4228
g53
(dp4229
g61
I2
ssg62
g4223
sg55
(lp4230
g48
(g57
g50
NtRp4231
(dp4232
g53
(dp4233
g61
I1
ssg62
Nsg55
(lp4234
g48
(g64
g50
NtRp4235
(dp4236
g53
(dp4237
sg62
g4231
sg55
(lp4238
g48
(g69
g50
NtRp4239
(dp4240
g53
(dp4241
sg62
g4235
sg55
(lp4242
g48
(g49
g50
NtRp4243
(dp4244
g53
(dp4245
g61
I1
ssg62
g4239
sg55
(lp4246
g3944
(S's\x0e\x00\x00\x00Hoja de estilo'
tRp4247
asbasbasbag48
(g64
g50
NtRp4248
(dp4249
g53
(dp4250
sg62
g4231
sg55
(lp4251
g48
(g69
g50
NtRp4252
(dp4253
g53
(dp4254
sg62
g4248
sg55
(lp4255
g48
(g49
g50
NtRp4256
(dp4257
g53
(dp4258
g61
I1
ssg62
g4252
sg55
(lp4259
I00
asbasbasbag48
(g64
g50
NtRp4260
(dp4261
g53
(dp4262
sg62
g4231
sg55
(lp4263
g48
(g69
g50
NtRp4264
(dp4265
g53
(dp4266
sg62
g4260
sg55
(lp4267
g48
(g49
g50
NtRp4268
(dp4269
g53
(dp4270
g61
I1
ssg62
g4264
sg55
(lp4271
S'/admin/default/edit/Desglosar_Emails/static/base.css'
p4272
asbasbasbasbasbasbasbag48
(g64
g50
NtRp4273
(dp4274
g53
(dp4275
sg62
g4053
sg55
(lp4276
g48
(g69
g50
NtRp4277
(dp4278
g53
(dp4279
sg62
g4273
sg55
(lp4280
g48
(g49
g50
NtRp4281
(dp4282
g53
(dp4283
g61
I2
ssg62
g4277
sg55
(lp4284
g48
(g57
g50
NtRp4285
(dp4286
g53
(dp4287
g61
I1
ssg62
Nsg55
(lp4288
g48
(g64
g50
NtRp4289
(dp4290
g53
(dp4291
sg62
g4285
sg55
(lp4292
g48
(g69
g50
NtRp4293
(dp4294
g53
(dp4295
sg62
g4289
sg55
(lp4296
g48
(g49
g50
NtRp4297
(dp4298
g53
(dp4299
g61
I1
ssg62
g4293
sg55
(lp4300
g3944
(S's\x0b\x00\x00\x00Modelo "db"'
tRp4301
asbasbasbag48
(g64
g50
NtRp4302
(dp4303
g53
(dp4304
sg62
g4285
sg55
(lp4305
g48
(g69
g50
NtRp4306
(dp4307
g53
(dp4308
sg62
g4302
sg55
(lp4309
g48
(g49
g50
NtRp4310
(dp4311
g53
(dp4312
g61
I1
ssg62
g4306
sg55
(lp4313
I00
asbasbasbag48
(g64
g50
NtRp4314
(dp4315
g53
(dp4316
sg62
g4285
sg55
(lp4317
g48
(g69
g50
NtRp4318
(dp4319
g53
(dp4320
sg62
g4314
sg55
(lp4321
g48
(g49
g50
NtRp4322
(dp4323
g53
(dp4324
g61
I1
ssg62
g4318
sg55
(lp4325
S'/admin/default/edit/Desglosar_Emails/models/db.py'
p4326
asbasbasbasbasbasbasbag48
(g64
g50
NtRp4327
(dp4328
g53
(dp4329
sg62
g4053
sg55
(lp4330
g48
(g69
g50
NtRp4331
(dp4332
g53
(dp4333
sg62
g4327
sg55
(lp4334
g48
(g49
g50
NtRp4335
(dp4336
g53
(dp4337
g61
I2
ssg62
g4331
sg55
(lp4338
g48
(g57
g50
NtRp4339
(dp4340
g53
(dp4341
g61
I1
ssg62
Nsg55
(lp4342
g48
(g64
g50
NtRp4343
(dp4344
g53
(dp4345
sg62
g4339
sg55
(lp4346
g48
(g69
g50
NtRp4347
(dp4348
g53
(dp4349
sg62
g4343
sg55
(lp4350
g48
(g49
g50
NtRp4351
(dp4352
g53
(dp4353
g61
I1
ssg62
g4347
sg55
(lp4354
g3944
(S's\r\x00\x00\x00Modelo "menu"'
tRp4355
asbasbasbag48
(g64
g50
NtRp4356
(dp4357
g53
(dp4358
sg62
g4339
sg55
(lp4359
g48
(g69
g50
NtRp4360
(dp4361
g53
(dp4362
sg62
g4356
sg55
(lp4363
g48
(g49
g50
NtRp4364
(dp4365
g53
(dp4366
g61
I1
ssg62
g4360
sg55
(lp4367
I00
asbasbasbag48
(g64
g50
NtRp4368
(dp4369
g53
(dp4370
sg62
g4339
sg55
(lp4371
g48
(g69
g50
NtRp4372
(dp4373
g53
(dp4374
sg62
g4368
sg55
(lp4375
g48
(g49
g50
NtRp4376
(dp4377
g53
(dp4378
g61
I1
ssg62
g4372
sg55
(lp4379
S'/admin/default/edit/Desglosar_Emails/models/menu.py'
p4380
asbasbasbasbasbasbasbag48
(g64
g50
NtRp4381
(dp4382
g53
(dp4383
sg62
g4053
sg55
(lp4384
g48
(g69
g50
NtRp4385
(dp4386
g53
(dp4387
sg62
g4381
sg55
(lp4388
g48
(g49
g50
NtRp4389
(dp4390
g53
(dp4391
g61
I2
ssg62
g4385
sg55
(lp4392
g48
(g57
g50
NtRp4393
(dp4394
g53
(dp4395
g61
I1
ssg62
Nsg55
(lp4396
g48
(g64
g50
NtRp4397
(dp4398
g53
(dp4399
sg62
g4393
sg55
(lp4400
g48
(g69
g50
NtRp4401
(dp4402
g53
(dp4403
sg62
g4397
sg55
(lp4404
g48
(g49
g50
NtRp4405
(dp4406
g53
(dp4407
g61
I1
ssg62
g4401
sg55
(lp4408
g3944
(S's\r\x00\x00\x00Base de datos'
tRp4409
asbasbasbag48
(g64
g50
NtRp4410
(dp4411
g53
(dp4412
sg62
g4393
sg55
(lp4413
g48
(g69
g50
NtRp4414
(dp4415
g53
(dp4416
sg62
g4410
sg55
(lp4417
g48
(g49
g50
NtRp4418
(dp4419
g53
(dp4420
g61
I1
ssg62
g4414
sg55
(lp4421
I00
asbasbasbag48
(g64
g50
NtRp4422
(dp4423
g53
(dp4424
sg62
g4393
sg55
(lp4425
g48
(g69
g50
NtRp4426
(dp4427
g53
(dp4428
sg62
g4422
sg55
(lp4429
g48
(g49
g50
NtRp4430
(dp4431
g53
(dp4432
g61
I1
ssg62
g4426
sg55
(lp4433
S'/Desglosar_Emails/appadmin/index'
p4434
asbasbasbasbasbasbasbag48
(g64
g50
NtRp4435
(dp4436
g53
(dp4437
sg62
g4053
sg55
(lp4438
g48
(g69
g50
NtRp4439
(dp4440
g53
(dp4441
sg62
g4435
sg55
(lp4442
g48
(g49
g50
NtRp4443
(dp4444
g53
(dp4445
g61
I2
ssg62
g4439
sg55
(lp4446
g48
(g57
g50
NtRp4447
(dp4448
g53
(dp4449
g61
I1
ssg62
Nsg55
(lp4450
g48
(g64
g50
NtRp4451
(dp4452
g53
(dp4453
sg62
g4447
sg55
(lp4454
g48
(g69
g50
NtRp4455
(dp4456
g53
(dp4457
sg62
g4451
sg55
(lp4458
g48
(g49
g50
NtRp4459
(dp4460
g53
(dp4461
g61
I1
ssg62
g4455
sg55
(lp4462
g3944
(S't\x06\x00\x00\x00Errors'
tRp4463
asbasbasbag48
(g64
g50
NtRp4464
(dp4465
g53
(dp4466
sg62
g4447
sg55
(lp4467
g48
(g69
g50
NtRp4468
(dp4469
g53
(dp4470
sg62
g4464
sg55
(lp4471
g48
(g49
g50
NtRp4472
(dp4473
g53
(dp4474
g61
I1
ssg62
g4468
sg55
(lp4475
I00
asbasbasbag48
(g64
g50
NtRp4476
(dp4477
g53
(dp4478
sg62
g4447
sg55
(lp4479
g48
(g69
g50
NtRp4480
(dp4481
g53
(dp4482
sg62
g4476
sg55
(lp4483
g48
(g49
g50
NtRp4484
(dp4485
g53
(dp4486
g61
I1
ssg62
g4480
sg55
(lp4487
S'/admin/default/errors/Desglosar_Emails'
p4488
asbasbasbasbasbasbasbag48
(g64
g50
NtRp4489
(dp4490
g53
(dp4491
sg62
g4053
sg55
(lp4492
g48
(g69
g50
NtRp4493
(dp4494
g53
(dp4495
sg62
g4489
sg55
(lp4496
g48
(g49
g50
NtRp4497
(dp4498
g53
(dp4499
g61
I2
ssg62
g4493
sg55
(lp4500
g48
(g57
g50
NtRp4501
(dp4502
g53
(dp4503
g61
I1
ssg62
Nsg55
(lp4504
g48
(g64
g50
NtRp4505
(dp4506
g53
(dp4507
sg62
g4501
sg55
(lp4508
g48
(g69
g50
NtRp4509
(dp4510
g53
(dp4511
sg62
g4505
sg55
(lp4512
g48
(g49
g50
NtRp4513
(dp4514
g53
(dp4515
g61
I1
ssg62
g4509
sg55
(lp4516
g3944
(S's\t\x00\x00\x00Acerca de'
tRp4517
asbasbasbag48
(g64
g50
NtRp4518
(dp4519
g53
(dp4520
sg62
g4501
sg55
(lp4521
g48
(g69
g50
NtRp4522
(dp4523
g53
(dp4524
sg62
g4518
sg55
(lp4525
g48
(g49
g50
NtRp4526
(dp4527
g53
(dp4528
g61
I1
ssg62
g4522
sg55
(lp4529
I00
asbasbasbag48
(g64
g50
NtRp4530
(dp4531
g53
(dp4532
sg62
g4501
sg55
(lp4533
g48
(g69
g50
NtRp4534
(dp4535
g53
(dp4536
sg62
g4530
sg55
(lp4537
g48
(g49
g50
NtRp4538
(dp4539
g53
(dp4540
g61
I1
ssg62
g4534
sg55
(lp4541
S'/admin/default/about/Desglosar_Emails'
p4542
asbasbasbasbasbasbasbasbasbasbasbasbasbasbasbag48
(g64
g50
NtRp4543
(dp4544
g53
(dp4545
sg62
g3912
sg55
(lp4546
g48
(g69
g50
NtRp4547
(dp4548
g53
(dp4549
sg62
g4543
sg55
(lp4550
g48
(g49
g50
NtRp4551
(dp4552
g53
(dp4553
g61
I4
ssg62
g4547
sg55
(lp4554
g48
(g57
g50
NtRp4555
(dp4556
g53
(dp4557
g61
I3
ssg62
Nsg55
(lp4558
g48
(g64
g50
NtRp4559
(dp4560
g53
(dp4561
sg62
g4555
sg55
(lp4562
g48
(g69
g50
NtRp4563
(dp4564
g53
(dp4565
sg62
g4559
sg55
(lp4566
g48
(g49
g50
NtRp4567
(dp4568
g53
(dp4569
g61
I3
ssg62
g4563
sg55
(lp4570
g3944
(S't\t\x00\x00\x00Resources'
tRp4571
asbasbasbag48
(g64
g50
NtRp4572
(dp4573
g53
(dp4574
sg62
g4555
sg55
(lp4575
g48
(g69
g50
NtRp4576
(dp4577
g53
(dp4578
sg62
g4572
sg55
(lp4579
g48
(g49
g50
NtRp4580
(dp4581
g53
(dp4582
g61
I3
ssg62
g4576
sg55
(lp4583
g91
asbasbasbag48
(g64
g50
NtRp4584
(dp4585
g53
(dp4586
sg62
g4555
sg55
(lp4587
g48
(g69
g50
NtRp4588
(dp4589
g53
(dp4590
sg62
g4584
sg55
(lp4591
g48
(g49
g50
NtRp4592
(dp4593
g53
(dp4594
g61
I3
ssg62
g4588
sg55
(lp4595
S'None'
p4596
asbasbasbag48
(g64
g50
NtRp4597
(dp4598
g53
(dp4599
sg62
g4555
sg55
(lp4600
g48
(g69
g50
NtRp4601
(dp4602
g53
(dp4603
sg62
g4597
sg55
(lp4604
g48
(g49
g50
NtRp4605
(dp4606
g53
(dp4607
g61
I3
ssg62
g4601
sg55
(lp4608
g48
(g57
g50
NtRp4609
(dp4610
g53
(dp4611
g61
I2
ssg62
Nsg55
(lp4612
g48
(g64
g50
NtRp4613
(dp4614
g53
(dp4615
sg62
g4609
sg55
(lp4616
g48
(g69
g50
NtRp4617
(dp4618
g53
(dp4619
sg62
g4613
sg55
(lp4620
g48
(g49
g50
NtRp4621
(dp4622
g53
(dp4623
g61
I2
ssg62
g4617
sg55
(lp4624
g48
(g57
g50
NtRp4625
(dp4626
g53
(dp4627
g61
I1
ssg62
Nsg55
(lp4628
g48
(g64
g50
NtRp4629
(dp4630
g53
(dp4631
sg62
g4625
sg55
(lp4632
g48
(g69
g50
NtRp4633
(dp4634
g53
(dp4635
sg62
g4629
sg55
(lp4636
g48
(g49
g50
NtRp4637
(dp4638
g53
(dp4639
g61
I1
ssg62
g4633
sg55
(lp4640
g3944
(S's\x0e\x00\x00\x00Documentaci\xc3\xb3n'
tRp4641
asbasbasbag48
(g64
g50
NtRp4642
(dp4643
g53
(dp4644
sg62
g4625
sg55
(lp4645
g48
(g69
g50
NtRp4646
(dp4647
g53
(dp4648
sg62
g4642
sg55
(lp4649
g48
(g49
g50
NtRp4650
(dp4651
g53
(dp4652
g61
I1
ssg62
g4646
sg55
(lp4653
I00
asbasbasbag48
(g64
g50
NtRp4654
(dp4655
g53
(dp4656
sg62
g4625
sg55
(lp4657
g48
(g69
g50
NtRp4658
(dp4659
g53
(dp4660
sg62
g4654
sg55
(lp4661
g48
(g49
g50
NtRp4662
(dp4663
g53
(dp4664
g61
I1
ssg62
g4658
sg55
(lp4665
S'http://www.web2py.com/book'
p4666
asbasbasbag48
(g64
g50
NtRp4667
(dp4668
g53
(dp4669
sg62
g4625
sg55
(lp4670
g48
(g69
g50
NtRp4671
(dp4672
g53
(dp4673
sg62
g4667
sg55
(lp4674
g48
(g49
g50
NtRp4675
(dp4676
g53
(dp4677
g61
I1
ssg62
g4671
sg55
(lp4678
(lp4679
(g3944
(S't\x07\x00\x00\x00Preface'
tRp4680
I00
S'http://www.web2py.com/book/default/chapter/00'
tp4681
a(g3944
(S't\x0c\x00\x00\x00Introduction'
tRp4682
I00
S'http://www.web2py.com/book/default/chapter/01'
tp4683
a(g3944
(S't\x06\x00\x00\x00Python'
tRp4684
I00
S'http://www.web2py.com/book/default/chapter/02'
tp4685
a(g3944
(S't\x08\x00\x00\x00Overview'
tRp4686
I00
S'http://www.web2py.com/book/default/chapter/03'
tp4687
a(g3944
(S's\x08\x00\x00\x00The Core'
tRp4688
I00
S'http://www.web2py.com/book/default/chapter/04'
tp4689
a(g3944
(S's\t\x00\x00\x00The Views'
tRp4690
I00
S'http://www.web2py.com/book/default/chapter/05'
tp4691
a(g3944
(S's\r\x00\x00\x00Base de datos'
tRp4692
I00
S'http://www.web2py.com/book/default/chapter/06'
tp4693
a(g3944
(S's\x14\x00\x00\x00Forms and Validators'
tRp4694
I00
S'http://www.web2py.com/book/default/chapter/07'
tp4695
a(g3944
(S's\x0e\x00\x00\x00Access Control'
tRp4696
I00
S'http://www.web2py.com/book/default/chapter/08'
tp4697
a(g3944
(S't\x08\x00\x00\x00Services'
tRp4698
I00
S'http://www.web2py.com/book/default/chapter/09'
tp4699
a(g3944
(S's\x0c\x00\x00\x00Ajax Recipes'
tRp4700
I00
S'http://www.web2py.com/book/default/chapter/10'
tp4701
a(g3944
(S's\x12\x00\x00\x00Deployment Recipes'
tRp4702
I00
S'http://www.web2py.com/book/default/chapter/11'
tp4703
a(g3944
(S's\r\x00\x00\x00Other Recipes'
tRp4704
I00
S'http://www.web2py.com/book/default/chapter/12'
tp4705
a(g3944
(S's\r\x00\x00\x00Buy this book'
tRp4706
I00
S'http://stores.lulu.com/web2py'
tp4707
aasbasbasbasbasbasbasbag48
(g64
g50
NtRp4708
(dp4709
g53
(dp4710
sg62
g4609
sg55
(lp4711
g48
(g69
g50
NtRp4712
(dp4713
g53
(dp4714
sg62
g4708
sg55
(lp4715
g48
(g49
g50
NtRp4716
(dp4717
g53
(dp4718
g61
I2
ssg62
g4712
sg55
(lp4719
g48
(g57
g50
NtRp4720
(dp4721
g53
(dp4722
g61
I1
ssg62
Nsg55
(lp4723
g48
(g64
g50
NtRp4724
(dp4725
g53
(dp4726
sg62
g4720
sg55
(lp4727
g48
(g69
g50
NtRp4728
(dp4729
g53
(dp4730
sg62
g4724
sg55
(lp4731
g48
(g49
g50
NtRp4732
(dp4733
g53
(dp4734
g61
I1
ssg62
g4728
sg55
(lp4735
g3944
(S't\t\x00\x00\x00Community'
tRp4736
asbasbasbag48
(g64
g50
NtRp4737
(dp4738
g53
(dp4739
sg62
g4720
sg55
(lp4740
g48
(g69
g50
NtRp4741
(dp4742
g53
(dp4743
sg62
g4737
sg55
(lp4744
g48
(g49
g50
NtRp4745
(dp4746
g53
(dp4747
g61
I1
ssg62
g4741
sg55
(lp4748
I00
asbasbasbag48
(g64
g50
NtRp4749
(dp4750
g53
(dp4751
sg62
g4720
sg55
(lp4752
g48
(g69
g50
NtRp4753
(dp4754
g53
(dp4755
sg62
g4749
sg55
(lp4756
g48
(g49
g50
NtRp4757
(dp4758
g53
(dp4759
g61
I1
ssg62
g4753
sg55
(lp4760
Nasbasbasbag48
(g64
g50
NtRp4761
(dp4762
g53
(dp4763
sg62
g4720
sg55
(lp4764
g48
(g69
g50
NtRp4765
(dp4766
g53
(dp4767
sg62
g4761
sg55
(lp4768
g48
(g49
g50
NtRp4769
(dp4770
g53
(dp4771
g61
I1
ssg62
g4765
sg55
(lp4772
(lp4773
(g3944
(S't\x06\x00\x00\x00Groups'
tRp4774
I00
S'http://www.web2py.com/examples/default/usergroups'
tp4775
a(g3944
(S't\x07\x00\x00\x00Twitter'
tRp4776
I00
S'http://twitter.com/web2py'
tp4777
a(g3944
(S's\t\x00\x00\x00Live chat'
tRp4778
I00
S'http://mibbit.com/?channel=%23web2py&server=irc.mibbit.net'
tp4779
a(g3944
(S's\n\x00\x00\x00User Voice'
tRp4780
I00
S'http://web2py.uservoice.com/'
tp4781
aasbasbasbasbasbasbasbag48
(g64
g50
NtRp4782
(dp4783
g53
(dp4784
sg62
g4609
sg55
(lp4785
g48
(g69
g50
NtRp4786
(dp4787
g53
(dp4788
sg62
g4782
sg55
(lp4789
g48
(g49
g50
NtRp4790
(dp4791
g53
(dp4792
g61
I2
ssg62
g4786
sg55
(lp4793
g48
(g57
g50
NtRp4794
(dp4795
g53
(dp4796
g61
I1
ssg62
Nsg55
(lp4797
g48
(g64
g50
NtRp4798
(dp4799
g53
(dp4800
sg62
g4794
sg55
(lp4801
g48
(g69
g50
NtRp4802
(dp4803
g53
(dp4804
sg62
g4798
sg55
(lp4805
g48
(g49
g50
NtRp4806
(dp4807
g53
(dp4808
g61
I1
ssg62
g4802
sg55
(lp4809
g3944
(S't\x06\x00\x00\x00Web2py'
tRp4810
asbasbasbag48
(g64
g50
NtRp4811
(dp4812
g53
(dp4813
sg62
g4794
sg55
(lp4814
g48
(g69
g50
NtRp4815
(dp4816
g53
(dp4817
sg62
g4811
sg55
(lp4818
g48
(g49
g50
NtRp4819
(dp4820
g53
(dp4821
g61
I1
ssg62
g4815
sg55
(lp4822
I00
asbasbasbag48
(g64
g50
NtRp4823
(dp4824
g53
(dp4825
sg62
g4794
sg55
(lp4826
g48
(g69
g50
NtRp4827
(dp4828
g53
(dp4829
sg62
g4823
sg55
(lp4830
g48
(g49
g50
NtRp4831
(dp4832
g53
(dp4833
g61
I1
ssg62
g4827
sg55
(lp4834
S'http://www.web2py.com'
p4835
asbasbasbag48
(g64
g50
NtRp4836
(dp4837
g53
(dp4838
sg62
g4794
sg55
(lp4839
g48
(g69
g50
NtRp4840
(dp4841
g53
(dp4842
sg62
g4836
sg55
(lp4843
g48
(g49
g50
NtRp4844
(dp4845
g53
(dp4846
g61
I1
ssg62
g4840
sg55
(lp4847
(lp4848
(g3944
(S't\x08\x00\x00\x00Download'
tRp4849
I00
S'http://www.web2py.com/examples/default/download'
tp4850
a(g3944
(S't\x07\x00\x00\x00Support'
tRp4851
I00
S'http://www.web2py.com/examples/default/support'
tp4852
a(g3944
(S's\x0e\x00\x00\x00Quick Examples'
tRp4853
I00
S'http://web2py.com/examples/default/examples'
tp4854
a(g3944
(S't\x03\x00\x00\x00FAQ'
tRp4855
I00
S'http://web2py.com/AlterEgo'
tp4856
a(g3944
(S's\x11\x00\x00\x00Free Applications'
tRp4857
I00
S'http://web2py.com/appliances'
tp4858
a(g3944
(S't\x07\x00\x00\x00Plugins'
tRp4859
I00
S'http://web2py.com/plugins'
tp4860
a(g3944
(S't\x07\x00\x00\x00Recipes'
tRp4861
I00
S'http://web2pyslices.com/'
tp4862
a(g3944
(S't\x04\x00\x00\x00Demo'
tRp4863
I00
S'http://web2py.com/demo_admin'
tp4864
a(g3944
(S't\x08\x00\x00\x00Semantic'
tRp4865
I00
S'http://web2py.com/semantic'
tp4866
a(g3944
(S't\x07\x00\x00\x00Layouts'
tRp4867
I00
S'http://web2py.com/layouts'
tp4868
a(g3944
(S't\x06\x00\x00\x00Videos'
tRp4869
I00
S'http://www.web2py.com/examples/default/videos/'
tp4870
aasbasbasbasbasbasbasbasbasbasbasbasbasbasbasbasbasbasbasbag48
(g64
g50
NtRp4871
(dp4872
g53
(dp4873
sg62
g3471
sg55
(lp4874
g48
(g69
g50
NtRp4875
(dp4876
g53
(dp4877
g73
g74
ssg62
g4871
sg55
(lp4878
S'meta'
p4879
asbag48
(g69
g50
NtRp4880
(dp4881
g53
(dp4882
g80
g81
ssg62
g4871
sg55
(lp4883
S':'
asbag48
(g69
g50
NtRp4884
(dp4885
g53
(dp4886
sg62
g4871
sg55
(lp4887
g48
(g49
g50
NtRp4888
(dp4889
g53
(dp4890
g61
I5
ssg62
g4884
sg55
(lp4891
g48
(g57
g50
NtRp4892
(dp4893
g53
(dp4894
g61
I4
ssg62
Nsg55
(lp4895
g48
(g64
g50
NtRp4896
(dp4897
g53
(dp4898
sg62
g4892
sg55
(lp4899
g48
(g69
g50
NtRp4900
(dp4901
g53
(dp4902
g73
g74
ssg62
g4896
sg55
(lp4903
S'author'
p4904
asbag48
(g69
g50
NtRp4905
(dp4906
g53
(dp4907
g80
g81
ssg62
g4896
sg55
(lp4908
S':'
asbag48
(g69
g50
NtRp4909
(dp4910
g53
(dp4911
sg62
g4896
sg55
(lp4912
g48
(g49
g50
NtRp4913
(dp4914
g53
(dp4915
g61
I4
ssg62
g4909
sg55
(lp4916
S'you'
p4917
asbasbasbag48
(g64
g50
NtRp4918
(dp4919
g53
(dp4920
sg62
g4892
sg55
(lp4921
g48
(g69
g50
NtRp4922
(dp4923
g53
(dp4924
g73
g74
ssg62
g4918
sg55
(lp4925
S'copyright'
p4926
asbag48
(g69
g50
NtRp4927
(dp4928
g53
(dp4929
g80
g81
ssg62
g4918
sg55
(lp4930
S':'
asbag48
(g69
g50
NtRp4931
(dp4932
g53
(dp4933
sg62
g4918
sg55
(lp4934
g48
(g49
g50
NtRp4935
(dp4936
g53
(dp4937
g61
I4
ssg62
g4931
sg55
(lp4938
S'Copyright 2007-2010'
p4939
asbasbasbag48
(g64
g50
NtRp4940
(dp4941
g53
(dp4942
sg62
g4892
sg55
(lp4943
g48
(g69
g50
NtRp4944
(dp4945
g53
(dp4946
g73
g74
ssg62
g4940
sg55
(lp4947
S'description'
p4948
asbag48
(g69
g50
NtRp4949
(dp4950
g53
(dp4951
g80
g81
ssg62
g4940
sg55
(lp4952
S':'
asbag48
(g69
g50
NtRp4953
(dp4954
g53
(dp4955
sg62
g4940
sg55
(lp4956
g48
(g49
g50
NtRp4957
(dp4958
g53
(dp4959
g61
I4
ssg62
g4953
sg55
(lp4960
S'Free and open source full-stack enterprise framework for agile development of fast, scalable, secure and portable database-driven web-based applications. Written and programmable in Python'
p4961
asbasbasbag48
(g64
g50
NtRp4962
(dp4963
g53
(dp4964
sg62
g4892
sg55
(lp4965
g48
(g69
g50
NtRp4966
(dp4967
g53
(dp4968
g73
g74
ssg62
g4962
sg55
(lp4969
S'generator'
p4970
asbag48
(g69
g50
NtRp4971
(dp4972
g53
(dp4973
g80
g81
ssg62
g4962
sg55
(lp4974
S':'
asbag48
(g69
g50
NtRp4975
(dp4976
g53
(dp4977
sg62
g4962
sg55
(lp4978
g48
(g49
g50
NtRp4979
(dp4980
g53
(dp4981
g61
I4
ssg62
g4975
sg55
(lp4982
S'Web2py Enterprise Framework'
p4983
asbasbasbag48
(g64
g50
NtRp4984
(dp4985
g53
(dp4986
sg62
g4892
sg55
(lp4987
g48
(g69
g50
NtRp4988
(dp4989
g53
(dp4990
g73
g74
ssg62
g4984
sg55
(lp4991
S'keywords'
p4992
asbag48
(g69
g50
NtRp4993
(dp4994
g53
(dp4995
g80
g81
ssg62
g4984
sg55
(lp4996
S':'
asbag48
(g69
g50
NtRp4997
(dp4998
g53
(dp4999
sg62
g4984
sg55
(lp5000
g48
(g49
g50
NtRp5001
(dp5002
g53
(dp5003
g61
I4
ssg62
g4997
sg55
(lp5004
S'web2py, python, framework'
p5005
asbasbasbasbasbasbasbag48
(g64
g50
NtRp5006
(dp5007
g53
(dp5008
sg62
g3471
sg55
(lp5009
g48
(g69
g50
NtRp5010
(dp5011
g53
(dp5012
g73
g74
ssg62
g5006
sg55
(lp5013
S'postprocessing'
p5014
asbag48
(g69
g50
NtRp5015
(dp5016
g53
(dp5017
g80
g81
ssg62
g5006
sg55
(lp5018
S':'
asbag48
(g69
g50
NtRp5019
(dp5020
g53
(dp5021
sg62
g5006
sg55
(lp5022
g48
(g49
g50
NtRp5023
(dp5024
g53
(dp5025
g61
I5
ssg62
g5019
sg55
(lp5026
g48
(g57
g50
NtRp5027
(dp5028
g53
(dp5029
g61
I4
ssg62
Nsg55
(lp5030
sbasbasbasbag48
(g64
g50
NtRp5031
(dp5032
g53
(dp5033
sg62
g3471
sg55
(lp5034
g48
(g69
g50
NtRp5035
(dp5036
g53
(dp5037
g73
g74
ssg62
g5031
sg55
(lp5038
S'session_file'
p5039
asbag48
(g69
g50
NtRp5040
(dp5041
g53
(dp5042
g80
g81
ssg62
g5031
sg55
(lp5043
S':'
asbag48
(g69
g50
NtRp5044
(dp5045
g53
(dp5046
sg62
g5031
sg55
(lp5047
g48
(g49
g50
NtRp5048
(dp5049
g53
(dp5050
g61
I5
ssg62
g5044
sg55
(lp5051
S"<open file 'C:\\Users\\Atomico\\web2py\\applications\\Desglosar_Emails\\sessions\\127.0.0.1-0a11b3b2-660c-433c-b71f-fc129286f26c', mode 'rb+' at 0x08736CC8>"
p5052
asbasbasbag48
(g64
g50
NtRp5053
(dp5054
g53
(dp5055
sg62
g3471
sg55
(lp5056
g48
(g69
g50
NtRp5057
(dp5058
g53
(dp5059
g73
g74
ssg62
g5053
sg55
(lp5060
S'session_filename'
p5061
asbag48
(g69
g50
NtRp5062
(dp5063
g53
(dp5064
g80
g81
ssg62
g5053
sg55
(lp5065
S':'
asbag48
(g69
g50
NtRp5066
(dp5067
g53
(dp5068
sg62
g5053
sg55
(lp5069
g48
(g49
g50
NtRp5070
(dp5071
g53
(dp5072
g61
I5
ssg62
g5066
sg55
(lp5073
S'C:\\Users\\Atomico\\web2py\\applications\\Desglosar_Emails\\sessions\\127.0.0.1-0a11b3b2-660c-433c-b71f-fc129286f26c'
p5074
asbasbasbag48
(g64
g50
NtRp5075
(dp5076
g53
(dp5077
sg62
g3471
sg55
(lp5078
g48
(g69
g50
NtRp5079
(dp5080
g53
(dp5081
g73
g74
ssg62
g5075
sg55
(lp5082
S'session_id'
p5083
asbag48
(g69
g50
NtRp5084
(dp5085
g53
(dp5086
g80
g81
ssg62
g5075
sg55
(lp5087
S':'
asbag48
(g69
g50
NtRp5088
(dp5089
g53
(dp5090
sg62
g5075
sg55
(lp5091
g48
(g49
g50
NtRp5092
(dp5093
g53
(dp5094
g61
I5
ssg62
g5088
sg55
(lp5095
S'127.0.0.1-0a11b3b2-660c-433c-b71f-fc129286f26c'
p5096
asbasbasbag48
(g64
g50
NtRp5097
(dp5098
g53
(dp5099
sg62
g3471
sg55
(lp5100
g48
(g69
g50
NtRp5101
(dp5102
g53
(dp5103
g73
g74
ssg62
g5097
sg55
(lp5104
S'session_id_name'
p5105
asbag48
(g69
g50
NtRp5106
(dp5107
g53
(dp5108
g80
g81
ssg62
g5097
sg55
(lp5109
S':'
asbag48
(g69
g50
NtRp5110
(dp5111
g53
(dp5112
sg62
g5097
sg55
(lp5113
g48
(g49
g50
NtRp5114
(dp5115
g53
(dp5116
g61
I5
ssg62
g5110
sg55
(lp5117
g3528
asbasbasbag48
(g64
g50
NtRp5118
(dp5119
g53
(dp5120
sg62
g3471
sg55
(lp5121
g48
(g69
g50
NtRp5122
(dp5123
g53
(dp5124
g73
g74
ssg62
g5118
sg55
(lp5125
S'session_locked'
p5126
asbag48
(g69
g50
NtRp5127
(dp5128
g53
(dp5129
g80
g81
ssg62
g5118
sg55
(lp5130
S':'
asbag48
(g69
g50
NtRp5131
(dp5132
g53
(dp5133
sg62
g5118
sg55
(lp5134
g48
(g49
g50
NtRp5135
(dp5136
g53
(dp5137
g61
I5
ssg62
g5131
sg55
(lp5138
g2368
asbasbasbag48
(g64
g50
NtRp5139
(dp5140
g53
(dp5141
sg62
g3471
sg55
(lp5142
g48
(g69
g50
NtRp5143
(dp5144
g53
(dp5145
g73
g74
ssg62
g5139
sg55
(lp5146
S'session_new'
p5147
asbag48
(g69
g50
NtRp5148
(dp5149
g53
(dp5150
g80
g81
ssg62
g5139
sg55
(lp5151
S':'
asbag48
(g69
g50
NtRp5152
(dp5153
g53
(dp5154
sg62
g5139
sg55
(lp5155
g48
(g49
g50
NtRp5156
(dp5157
g53
(dp5158
g61
I5
ssg62
g5152
sg55
(lp5159
g91
asbasbasbag48
(g64
g50
NtRp5160
(dp5161
g53
(dp5162
sg62
g3471
sg55
(lp5163
g48
(g69
g50
NtRp5164
(dp5165
g53
(dp5166
g73
g74
ssg62
g5160
sg55
(lp5167
S'status'
p5168
asbag48
(g69
g50
NtRp5169
(dp5170
g53
(dp5171
g80
g81
ssg62
g5160
sg55
(lp5172
S':'
asbag48
(g69
g50
NtRp5173
(dp5174
g53
(dp5175
sg62
g5160
sg55
(lp5176
g48
(g49
g50
NtRp5177
(dp5178
g53
(dp5179
g61
I5
ssg62
g5173
sg55
(lp5180
S'200'
p5181
asbasbasbag48
(g64
g50
NtRp5182
(dp5183
g53
(dp5184
sg62
g3471
sg55
(lp5185
g48
(g69
g50
NtRp5186
(dp5187
g53
(dp5188
g73
g74
ssg62
g5182
sg55
(lp5189
S'subtitle'
p5190
asbag48
(g69
g50
NtRp5191
(dp5192
g53
(dp5193
g80
g81
ssg62
g5182
sg55
(lp5194
S':'
asbag48
(g69
g50
NtRp5195
(dp5196
g53
(dp5197
sg62
g5182
sg55
(lp5198
g48
(g49
g50
NtRp5199
(dp5200
g53
(dp5201
g61
I5
ssg62
g5195
sg55
(lp5202
g3944
(S's\t\x00\x00\x00Adaptame!'
tRp5203
asbasbasbag48
(g64
g50
NtRp5204
(dp5205
g53
(dp5206
sg62
g3471
sg55
(lp5207
g48
(g69
g50
NtRp5208
(dp5209
g53
(dp5210
g73
g74
ssg62
g5204
sg55
(lp5211
S'title'
p5212
asbag48
(g69
g50
NtRp5213
(dp5214
g53
(dp5215
g80
g81
ssg62
g5204
sg55
(lp5216
S':'
asbag48
(g69
g50
NtRp5217
(dp5218
g53
(dp5219
sg62
g5204
sg55
(lp5220
g48
(g49
g50
NtRp5221
(dp5222
g53
(dp5223
g61
I5
ssg62
g5217
sg55
(lp5224
g113
asbasbasbag48
(g64
g50
NtRp5225
(dp5226
g53
(dp5227
sg62
g3471
sg55
(lp5228
g48
(g69
g50
NtRp5229
(dp5230
g53
(dp5231
g73
g74
ssg62
g5225
sg55
(lp5232
g2692
asbag48
(g69
g50
NtRp5233
(dp5234
g53
(dp5235
g80
g81
ssg62
g5225
sg55
(lp5236
S':'
asbag48
(g69
g50
NtRp5237
(dp5238
g53
(dp5239
sg62
g5225
sg55
(lp5240
g48
(g49
g50
NtRp5241
(dp5242
g53
(dp5243
g61
I5
ssg62
g5237
sg55
(lp5244
g2705
asbasbasbag48
(g64
g50
NtRp5245
(dp5246
g53
(dp5247
sg62
g3471
sg55
(lp5248
g48
(g69
g50
NtRp5249
(dp5250
g53
(dp5251
g73
g74
ssg62
g5245
sg55
(lp5252
S'view'
p5253
asbag48
(g69
g50
NtRp5254
(dp5255
g53
(dp5256
g80
g81
ssg62
g5245
sg55
(lp5257
S':'
asbag48
(g69
g50
NtRp5258
(dp5259
g53
(dp5260
sg62
g5245
sg55
(lp5261
g48
(g49
g50
NtRp5262
(dp5263
g53
(dp5264
g61
I5
ssg62
g5258
sg55
(lp5265
S'default/entrada_mod3.html'
p5266
asbasbasbasbasbsS'locals'
p5267
(dp5268
S'self'
p5269
S"<DAL {'persona': <Table {'ALL': <gluon.dal.SQLAL...ing_references': {}, '_uri': 'sqlite://mydb.db'}>"
p5270
sS'key'
p5271
S"'info3'"
p5272
sssS'traceback'
p5273
S'Traceback (most recent call last):\n  File "gluon/restricted.py", line 192, in restricted\n  File "C:\\Users\\Atomico\\web2py\\applications\\Desglosar_Emails\\controllers/default.py", line 69, in <module>\n  File "gluon/globals.py", line 145, in <lambda>\n  File "C:\\Users\\Atomico\\web2py\\applications\\Desglosar_Emails\\controllers/default.py", line 64, in entrada_mod3\n  File "gluon/dal.py", line 4331, in __getattr__\n  File "gluon/dal.py", line 4325, in __getitem__\nKeyError: \'info3\'\n'
p5274
s.