(dp1
S'output'
p2
S''
sS'layer'
p3
S'C:\\Users\\Atomico\\web2py\\applications\\Desglosar_Emails\\views\\default/relaciones.html'
p4
sS'code'
p5
S'response.write(\'<!DOCTYPE html>\\n<html lang="\', escape=False)\nresponse.write(T.accepted_language or \'en\')\nresponse.write(\'" class="no-js"><!-- no-js need it for modernzr -->\\n  <head>\\n    \\n    <meta charset="utf-8" />\\t  \\t\\n    <!-- www.phpied.com/conditional-comments-block-downloads/ -->\\n    <!--[if IE]><![endif]-->    \\n    <!-- Always force latest IE rendering engine \\n\\t (even in intranet) & Chrome Frame \\n\\t Remove this if you use the .htaccess -->\\n    <meta http-equiv="X-UA-Compatible" content="IE=edge,chrome=1">\\n    \\n    <title>\', escape=False)\nresponse.write(response.title or request.application)\nresponse.write(\'</title>\\n    \\n    <!-- http://dev.w3.org/html5/markup/meta.name.html -->\\n    <meta name="application-name" content="\', escape=False)\nresponse.write(request.application)\nresponse.write(\'" />\\t\\n    \\n    <!-- Speaking of Google, don\\\'t forget to set your site up: \\n\\t http://google.com/webmasters -->\\n    <meta name="google-site-verification" content="" />\\n    \\n    <!--  Mobile Viewport Fix\\n\\t  j.mp/mobileviewport & davidbcalhoun.com/2010/viewport-metatag \\n\\t  device-width: Occupy full width of the screen in its current orientation\\n\\t  initial-scale = 1.0 retains dimensions instead of zooming out if page height > device height\\n\\t  maximum-scale = 1.0 retains dimensions instead of zooming in if page width < device width\\n      -->\\n    <meta name="viewport" content="width=device-width, initial-scale=1.0, maximum-scale=1.0">\\n    \\n    <!-- Place favicon.ico and apple-touch-icon.png in the root of your domain and delete these references -->\\n    <link rel="shortcut icon" href="\', escape=False)\nresponse.write(URL(\'static\',\'favicon.ico\'))\nresponse.write(\'" type="image/x-icon">\\n    <link rel="apple-touch-icon" href="\', escape=False)\nresponse.write(URL(\'static\',\'favicon.png\'))\nresponse.write(\'">\\n\\n    <!-- For the less-enabled mobile browsers like Opera Mini -->\\n    <link rel="stylesheet" media="handheld" href="\', escape=False)\nresponse.write(URL(\'static\',\'css/handheld.css\'))\nresponse.write(\'">\\n    \\n    <!-- All JavaScript at the bottom, except for Modernizr which enables HTML5 elements & feature detects -->\\n    <script src="\', escape=False)\nresponse.write(URL(\'static\',\'js/modernizr-1.7.min.js\'))\nresponse.write(\'"></script>\\n    \\n    \', escape=False)\n#------  require CSS and JS files for this page (read info in base.css) ------\nresponse.write(\'\\n    \', escape=False)\nresponse.files.append(URL(\'static\',\'css/base.css\'))\nresponse.write(\'\\n    \', escape=False)\nresponse.files.append(URL(\'static\',\'css/superfish.css\'))\nresponse.write(\'\\n    \', escape=False)\nresponse.files.append(URL(\'static\',\'js/superfish.js\'))\nresponse.write(\'\\n    \', escape=False)\n#------ include web2py specific js code (jquery, calendar, form stuff) ------\nresponse.write(\'\\n    \', escape=False)\nresponse.files.insert(0,URL(\'static\',\'js/jquery.js\'))\nresponse.files.insert(1,URL(\'static\',\'css/calendar.css\'))\nresponse.files.insert(2,URL(\'static\',\'js/calendar.js\'))\nfor _item in response.meta or []:\n    response.write(\'\\n     <meta name="\', escape=False)\n    response.write(_item)\n    response.write(\'" content="\', escape=False)\n    response.write(response.meta[_item])\n    response.write(\'" />\', escape=False)\n    pass\nfor _k,_file in enumerate(response.files or []):\n    if _file in response.files[:_k]:\n        continue\n    _file0=_file.lower().split(\'?\')[0]\n    if _file0.endswith(\'.css\'):\n        response.write(\'\\n     <link href="\', escape=False)\n        response.write(_file)\n        response.write(\'" rel="stylesheet" type="text/css" />\', escape=False)\n    elif _file0.endswith(\'.js\'):\n        response.write(\'\\n     <script src="\', escape=False)\n        response.write(_file)\n        response.write(\'" type="text/javascript"></script>\', escape=False)\n        pass\n    pass\nresponse.write(\'\\n    <script type="text/javascript"><!--\\n    // These variables are used by the web2py_ajax_init function in web2py_ajax.js (which is loaded below).\\n    var w2p_ajax_confirm_message = "\', escape=False)\nresponse.write(T(\'Are you sure you want to delete this object?\'))\nresponse.write(\'";\\n    var w2p_ajax_date_format = "\', escape=False)\nresponse.write(T(\'%Y-%m-%d\'))\nresponse.write(\'";\\n    var w2p_ajax_datetime_format = "\', escape=False)\nresponse.write(T(\'%Y-%m-%d %H:%M:%S\'))\nresponse.write(\'";\\n    //--></script>\\n    <script src="\', escape=False)\nresponse.write(URL(\'static\',\'js/web2py_ajax.js\'))\nresponse.write(\'" type="text/javascript"></script>\\n\', escape=False)\nresponse.write(\'\\n\\n    \', escape=False)\n#using sidebars need to know what sidebar you want to use\n#prior of using it, because of static width size of content, you can use\n#left_sidebar, right_sidebar, both or none (False left and right)\nleft_sidebar_enabled = globals().get(\'left_sidebar_enabled\',False)\nright_sidebar_enabled = globals().get(\'right_sidebar_enabled\',False)\nif left_sidebar_enabled and right_sidebar_enabled: width_content=\'63%\'\nelif left_sidebar_enabled != right_sidebar_enabled: width_content=\'740px\'\nelse: width_content=\'100%\'\nif left_sidebar_enabled: left_sidebar_style = \'style="display: block;"\'\nelse: left_sidebar_style = \'style="display: none;"\'\nif right_sidebar_enabled: right_sidebar_style = \'style="display: block;"\'\nelse: right_sidebar_style = \'style="display: none;"\'\nstyle_content = \'style="width: %s"\' % width_content\nresponse.write(\'\\n  </head>\\n  \\n  <!-- paulirish.com/2008/conditional-stylesheets-vs-css-hacks-answer-neither/ -->\\t\\n  <!--[if lt IE 7 ]> <body class="ie6"> <![endif]-->\\n  <!--[if IE 7 ]>    <body class="ie7"> <![endif]-->\\n  <!--[if IE 8 ]>    <body class="ie8"> <![endif]-->\\n  <!--[if IE 9 ]>    <body class="ie9"> <![endif]-->\\n  <!--[if (gt IE 9)|!(IE)]><!--> <body> <!--<![endif]-->\\n    \\n    <div class="flash">\', escape=False)\nresponse.write(response.flash or \'\')\nresponse.write(\'</div> <!-- notification div -->\\n    \\n    <div id="container">\\t      \\t\\t      \\t\\n      \\n      <div id="wrapper">\\t\\t\\n\\t\\n\\t<div id="header"> <!-- header and login nav -->\\n\\t  \', escape=False)\nresponse.write(\' <!-- this is default header -->\\n\\t  \', escape=False)\ntry:\n    response.write(auth.navbar(action=URL(\'default\',\'user\')))\nexcept:pass\nresponse.write(\'\\t\\t          \\n\\t  <h1><span id="appname">\', escape=False)\nresponse.write(request.application.capitalize())\nresponse.write(\'</span>App</h1>\\n\\t  <div style="clear: both;"></div><!-- Clear the divs -->\\n\\t  \', escape=False)\nresponse.write(\'\\t\\t\\t\\t  \\t\\t\\t\\t\\t  \\n\\t</div><!-- header  -->\\n\\t\\n\\t<div id="statusbar"><!-- statusbar is menu zone -->\\n\\t  \', escape=False)\nresponse.write(\' <!-- this is default statusbar -->\\n\\t  \', escape=False)\n#------ superfish menu ------\nresponse.write(\'\\n\\t  \', escape=False)\nresponse.write(MENU(response.menu,_class=\'sf-menu\'))\nresponse.write(\'\\n\\t  <script type="text/javascript">\\n\\t    jQuery(document).ready(function(){\\n\\t    jQuery(\\\'ul.sf-menu\\\').superfish();});\\n\\t  </script>\\n\\t  <div style="clear: both;"></div><!-- Clear the divs -->\\t\\n\\t  \', escape=False)\nresponse.write(\'\\t\\t\\t\\t\\n\\t</div><!-- statusbar -->\\n\\t\\n\\t<div id="page"> <!-- Here my central body -->\\t  \\n\\n\\t  \', escape=False)\nif left_sidebar_enabled:\n    response.write(\'\\n          <div id="left_sidebar" \', escape=False)\n    response.write(XML(left_sidebar_style))\n    response.write(\' >\\n            <div style="padding: 4px;">\\n\\t      \', escape=False)\n    response.write(\'Content Left Sidebar\', escape=False)\n    response.write(\'\\t\\t  \\n            </div>\\n          </div><!-- left_sidebar -->\\n\\t  \', escape=False)\n    pass\nresponse.write(\'\\n\\n\\t  <!-- content -->\\n\\t  <div id="content" \', escape=False)\nresponse.write(XML(style_content))\nresponse.write(\' >\\n\\t    \', escape=False)\nresponse.write(\'\\r\\n<h1>Esta es la plantilla default/relaciones.html</h1>\\r\\n<h2>\', escape=False)\nresponse.write(cad)\nresponse.write(\'</h2>\\r\\nFormulario de Argumentos: \', escape=False)\nresponse.write(form)\nresponse.write(\'\\r\\n<br/>Formulario de Texto: \', escape=False)\nresponse.write(form2)\nresponse.write(\'\\r\\n\\r\\n\', escape=False)\nimport re\np=re.compile("\\w")\ntxt=\'mi perro tiene rabo\'\nr=p.findall(texto)\nfor i in r: response.write(i+\'<br>\',escape=False)\nresponse.write(\'Y ahora m\\xc3\\xa1s:<br/>\\r\\n\', escape=False)\nresponse.write(r)\nresponse.write(\'\\r\\n\', escape=False)\nresponse.write(\'\\t\\n\\t  </div>\\n\\t  <!-- content -->\\n\\n\\t  \', escape=False)\nif right_sidebar_enabled:\n    response.write(\'\\n          <div id="right_sidebar" \', escape=False)\n    response.write(XML(right_sidebar_style))\n    response.write(\' >\\n            <div style="padding: 4px;">\\n              \', escape=False)\n    response.write(\'Content Right Sidebar\', escape=False)\n    response.write(\'\\n            </div>\\n\\t  </div><!-- right_sidebar -->\\n          \', escape=False)\n    pass\nresponse.write(\'\\n\\n\\n\\t  <div style="clear: both;"></div><!-- Clear the divs -->\\n\\t  \\n\\t</div><!-- page -->\\t\\t\\t\\t\\t\\t\\t\\n\\t\\n\\t<div id="footer">\\n\\t  \', escape=False)\nresponse.write(\' <!-- this is default footer -->\\n\\t  <a href="http://www.web2py.com/" style="float: left; padding-right: 6px;">\\n\\t    <img src="\', escape=False)\nresponse.write(URL(\'static\',\'images/poweredby.png\'))\nresponse.write(\'"/>\\n\\t  </a>\\n\\t  \', escape=False)\nresponse.write(T(\'Copyright\'))\nresponse.write(\' &#169; 2010\\t\\t\\t\\t\\n\\t  <div style="clear: both;"></div><!-- Clear the divs -->\\n\\t  \', escape=False)\nresponse.write(\'\\n\\n\\t</div><!-- footer -->\\t\\t\\t\\n      </div><!-- wrapper -->\\n    </div><!-- container -->\\t\\t\\n    \\n    <!--[if lt IE 7 ]>\\n\\t<script src="\', escape=False)\nresponse.write(URL(\'static\',\'js/dd_belatedpng.js\'))\nresponse.write(\'"></script>\\n\\t<script> DD_belatedPNG.fix(\\\'img, .png_bg\\\'); //fix any <img> or .png_bg background-images </script>\\n\\t<![endif]-->\\n    \\n    <!-- asynchronous google analytics: mathiasbynens.be/notes/async-analytics-snippet \\n\\t change the UA-XXXXX-X to be your site\\\'s ID -->\\n    <!--   \\n\\t   <script>\\n\\t     var _gaq = [[\\\'_setAccount\\\', \\\'UA-XXXXX-X\\\'], [\\\'_trackPageview\\\']];\\n\\t     (function(d, t) {\\n\\t     var g = d.createElement(t),\\n\\t     s = d.getElementsByTagName(t)[0];\\n\\t     g.async = true;\\n\\t     g.src = \\\'//www.google-analytics.com/ga.js\\\';\\n\\t     s.parentNode.insertBefore(g, s);\\n\\t     })(document, \\\'script\\\');\\n\\t   </script>\\n\\t   -->    \\n  </body>\\n</html>\\n\', escape=False)'
p6
sS'snapshot'
p7
(dp8
S'exception'
p9
(dp10
S'__hash__'
p11
S"<method-wrapper '__hash__' of exceptions.NameError object at 0x0825B558>"
p12
sS'__setattr__'
p13
S"<method-wrapper '__setattr__' of exceptions.NameError object at 0x0825B558>"
p14
sS'__reduce_ex__'
p15
S'<built-in method __reduce_ex__ of exceptions.NameError object at 0x0825B558>'
p16
sS'__getslice__'
p17
S"<method-wrapper '__getslice__' of exceptions.NameError object at 0x0825B558>"
p18
sS'__getitem__'
p19
S"<method-wrapper '__getitem__' of exceptions.NameError object at 0x0825B558>"
p20
sS'__setstate__'
p21
S'<built-in method __setstate__ of exceptions.NameError object at 0x0825B558>'
p22
sS'__reduce__'
p23
S'<built-in method __reduce__ of exceptions.NameError object at 0x0825B558>'
p24
sS'__str__'
p25
S"<method-wrapper '__str__' of exceptions.NameError object at 0x0825B558>"
p26
sS'args'
p27
S'("name \'texto\' is not defined",)'
p28
sS'__getattribute__'
p29
S"<method-wrapper '__getattribute__' of exceptions.NameError object at 0x0825B558>"
p30
sS'__class__'
p31
S"<type 'exceptions.NameError'>"
p32
sS'__delattr__'
p33
S"<method-wrapper '__delattr__' of exceptions.NameError object at 0x0825B558>"
p34
sS'__repr__'
p35
S"<method-wrapper '__repr__' of exceptions.NameError object at 0x0825B558>"
p36
sS'__dict__'
p37
S'{}'
p38
sS'__doc__'
p39
S"'Name not found globally.'"
p40
sS'__init__'
p41
S"<method-wrapper '__init__' of exceptions.NameError object at 0x0825B558>"
p42
sS'__new__'
p43
S'<built-in method __new__ of type object at 0x1E1CD8D8>'
p44
ssS'evalue'
p45
S"name 'texto' is not defined"
p46
sS'request'
p47
ccopy_reg
_reconstructor
p48
(cgluon.html
BEAUTIFY
p49
c__builtin__
object
p50
NtRp51
(dp52
S'attributes'
p53
(dp54
sS'components'
p55
(lp56
g48
(cgluon.html
TABLE
p57
g50
NtRp58
(dp59
g53
(dp60
S'level'
p61
I5
ssS'parent'
p62
Nsg55
(lp63
g48
(cgluon.html
TR
p64
g50
NtRp65
(dp66
g53
(dp67
sg62
g58
sg55
(lp68
g48
(cgluon.html
TD
p69
g50
NtRp70
(dp71
g53
(dp72
S'_style'
p73
S'font-weight:bold;'
p74
ssg62
g65
sg55
(lp75
S'ajax'
p76
asbag48
(g69
g50
NtRp77
(dp78
g53
(dp79
S'_valign'
p80
S'top'
p81
ssg62
g65
sg55
(lp82
S':'
asbag48
(g69
g50
NtRp83
(dp84
g53
(dp85
sg62
g65
sg55
(lp86
g48
(g49
g50
NtRp87
(dp88
g53
(dp89
g61
I5
ssg62
g83
sg55
(lp90
S'False'
p91
asbasbasbag48
(g64
g50
NtRp92
(dp93
g53
(dp94
sg62
g58
sg55
(lp95
g48
(g69
g50
NtRp96
(dp97
g53
(dp98
g73
g74
ssg62
g92
sg55
(lp99
S'application'
p100
asbag48
(g69
g50
NtRp101
(dp102
g53
(dp103
g80
g81
ssg62
g92
sg55
(lp104
S':'
asbag48
(g69
g50
NtRp105
(dp106
g53
(dp107
sg62
g92
sg55
(lp108
g48
(g49
g50
NtRp109
(dp110
g53
(dp111
g61
I5
ssg62
g105
sg55
(lp112
S'Desglosar_Emails'
p113
asbasbasbag48
(g64
g50
NtRp114
(dp115
g53
(dp116
sg62
g58
sg55
(lp117
g48
(g69
g50
NtRp118
(dp119
g53
(dp120
g73
g74
ssg62
g114
sg55
(lp121
g27
asbag48
(g69
g50
NtRp122
(dp123
g53
(dp124
g80
g81
ssg62
g114
sg55
(lp125
S':'
asbag48
(g69
g50
NtRp126
(dp127
g53
(dp128
sg62
g114
sg55
(lp129
g48
(g49
g50
NtRp130
(dp131
g53
(dp132
g61
I5
ssg62
g126
sg55
(lp133
g48
(g57
g50
NtRp134
(dp135
g53
(dp136
g61
I4
ssg62
Nsg55
(lp137
sbasbasbasbag48
(g64
g50
NtRp138
(dp139
g53
(dp140
sg62
g58
sg55
(lp141
g48
(g69
g50
NtRp142
(dp143
g53
(dp144
g73
g74
ssg62
g138
sg55
(lp145
S'body'
p146
asbag48
(g69
g50
NtRp147
(dp148
g53
(dp149
g80
g81
ssg62
g138
sg55
(lp150
S':'
asbag48
(g69
g50
NtRp151
(dp152
g53
(dp153
sg62
g138
sg55
(lp154
g48
(g49
g50
NtRp155
(dp156
g53
(dp157
g61
I5
ssg62
g151
sg55
(lp158
S"<open file '<fdopen>', mode 'w+b' at 0x07E94DE8>"
p159
asbasbasbag48
(g64
g50
NtRp160
(dp161
g53
(dp162
sg62
g58
sg55
(lp163
g48
(g69
g50
NtRp164
(dp165
g53
(dp166
g73
g74
ssg62
g160
sg55
(lp167
S'client'
p168
asbag48
(g69
g50
NtRp169
(dp170
g53
(dp171
g80
g81
ssg62
g160
sg55
(lp172
S':'
asbag48
(g69
g50
NtRp173
(dp174
g53
(dp175
sg62
g160
sg55
(lp176
g48
(g49
g50
NtRp177
(dp178
g53
(dp179
g61
I5
ssg62
g173
sg55
(lp180
S'127.0.0.1'
p181
asbasbasbag48
(g64
g50
NtRp182
(dp183
g53
(dp184
sg62
g58
sg55
(lp185
g48
(g69
g50
NtRp186
(dp187
g53
(dp188
g73
g74
ssg62
g182
sg55
(lp189
S'controller'
p190
asbag48
(g69
g50
NtRp191
(dp192
g53
(dp193
g80
g81
ssg62
g182
sg55
(lp194
S':'
asbag48
(g69
g50
NtRp195
(dp196
g53
(dp197
sg62
g182
sg55
(lp198
g48
(g49
g50
NtRp199
(dp200
g53
(dp201
g61
I5
ssg62
g195
sg55
(lp202
S'default'
p203
asbasbasbag48
(g64
g50
NtRp204
(dp205
g53
(dp206
sg62
g58
sg55
(lp207
g48
(g69
g50
NtRp208
(dp209
g53
(dp210
g73
g74
ssg62
g204
sg55
(lp211
S'cookies'
p212
asbag48
(g69
g50
NtRp213
(dp214
g53
(dp215
g80
g81
ssg62
g204
sg55
(lp216
S':'
asbag48
(g69
g50
NtRp217
(dp218
g53
(dp219
sg62
g204
sg55
(lp220
g48
(g49
g50
NtRp221
(dp222
g53
(dp223
g61
I5
ssg62
g217
sg55
(lp224
g48
(g57
g50
NtRp225
(dp226
g53
(dp227
g61
I4
ssg62
Nsg55
(lp228
g48
(g64
g50
NtRp229
(dp230
g53
(dp231
sg62
g225
sg55
(lp232
g48
(g69
g50
NtRp233
(dp234
g53
(dp235
g73
g74
ssg62
g229
sg55
(lp236
S'session_id_admin'
p237
asbag48
(g69
g50
NtRp238
(dp239
g53
(dp240
g80
g81
ssg62
g229
sg55
(lp241
S':'
asbag48
(g69
g50
NtRp242
(dp243
g53
(dp244
sg62
g229
sg55
(lp245
g48
(g49
g50
NtRp246
(dp247
g53
(dp248
g61
I4
ssg62
g242
sg55
(lp249
g48
(g57
g50
NtRp250
(dp251
g53
(dp252
g61
I3
ssg62
Nsg55
(lp253
g48
(g64
g50
NtRp254
(dp255
g53
(dp256
sg62
g250
sg55
(lp257
g48
(g69
g50
NtRp258
(dp259
g53
(dp260
g73
g74
ssg62
g254
sg55
(lp261
S'comment'
p262
asbag48
(g69
g50
NtRp263
(dp264
g53
(dp265
g80
g81
ssg62
g254
sg55
(lp266
S':'
asbag48
(g69
g50
NtRp267
(dp268
g53
(dp269
sg62
g254
sg55
(lp270
g48
(g49
g50
NtRp271
(dp272
g53
(dp273
g61
I3
ssg62
g267
sg55
(lp274
S''
asbasbasbag48
(g64
g50
NtRp275
(dp276
g53
(dp277
sg62
g250
sg55
(lp278
g48
(g69
g50
NtRp279
(dp280
g53
(dp281
g73
g74
ssg62
g275
sg55
(lp282
S'domain'
p283
asbag48
(g69
g50
NtRp284
(dp285
g53
(dp286
g80
g81
ssg62
g275
sg55
(lp287
S':'
asbag48
(g69
g50
NtRp288
(dp289
g53
(dp290
sg62
g275
sg55
(lp291
g48
(g49
g50
NtRp292
(dp293
g53
(dp294
g61
I3
ssg62
g288
sg55
(lp295
S''
asbasbasbag48
(g64
g50
NtRp296
(dp297
g53
(dp298
sg62
g250
sg55
(lp299
g48
(g69
g50
NtRp300
(dp301
g53
(dp302
g73
g74
ssg62
g296
sg55
(lp303
S'expires'
p304
asbag48
(g69
g50
NtRp305
(dp306
g53
(dp307
g80
g81
ssg62
g296
sg55
(lp308
S':'
asbag48
(g69
g50
NtRp309
(dp310
g53
(dp311
sg62
g296
sg55
(lp312
g48
(g49
g50
NtRp313
(dp314
g53
(dp315
g61
I3
ssg62
g309
sg55
(lp316
S''
asbasbasbag48
(g64
g50
NtRp317
(dp318
g53
(dp319
sg62
g250
sg55
(lp320
g48
(g69
g50
NtRp321
(dp322
g53
(dp323
g73
g74
ssg62
g317
sg55
(lp324
S'max-age'
p325
asbag48
(g69
g50
NtRp326
(dp327
g53
(dp328
g80
g81
ssg62
g317
sg55
(lp329
S':'
asbag48
(g69
g50
NtRp330
(dp331
g53
(dp332
sg62
g317
sg55
(lp333
g48
(g49
g50
NtRp334
(dp335
g53
(dp336
g61
I3
ssg62
g330
sg55
(lp337
S''
asbasbasbag48
(g64
g50
NtRp338
(dp339
g53
(dp340
sg62
g250
sg55
(lp341
g48
(g69
g50
NtRp342
(dp343
g53
(dp344
g73
g74
ssg62
g338
sg55
(lp345
S'path'
p346
asbag48
(g69
g50
NtRp347
(dp348
g53
(dp349
g80
g81
ssg62
g338
sg55
(lp350
S':'
asbag48
(g69
g50
NtRp351
(dp352
g53
(dp353
sg62
g338
sg55
(lp354
g48
(g49
g50
NtRp355
(dp356
g53
(dp357
g61
I3
ssg62
g351
sg55
(lp358
S''
asbasbasbag48
(g64
g50
NtRp359
(dp360
g53
(dp361
sg62
g250
sg55
(lp362
g48
(g69
g50
NtRp363
(dp364
g53
(dp365
g73
g74
ssg62
g359
sg55
(lp366
S'secure'
p367
asbag48
(g69
g50
NtRp368
(dp369
g53
(dp370
g80
g81
ssg62
g359
sg55
(lp371
S':'
asbag48
(g69
g50
NtRp372
(dp373
g53
(dp374
sg62
g359
sg55
(lp375
g48
(g49
g50
NtRp376
(dp377
g53
(dp378
g61
I3
ssg62
g372
sg55
(lp379
S''
asbasbasbag48
(g64
g50
NtRp380
(dp381
g53
(dp382
sg62
g250
sg55
(lp383
g48
(g69
g50
NtRp384
(dp385
g53
(dp386
g73
g74
ssg62
g380
sg55
(lp387
S'version'
p388
asbag48
(g69
g50
NtRp389
(dp390
g53
(dp391
g80
g81
ssg62
g380
sg55
(lp392
S':'
asbag48
(g69
g50
NtRp393
(dp394
g53
(dp395
sg62
g380
sg55
(lp396
g48
(g49
g50
NtRp397
(dp398
g53
(dp399
g61
I3
ssg62
g393
sg55
(lp400
S''
asbasbasbasbasbasbasbag48
(g64
g50
NtRp401
(dp402
g53
(dp403
sg62
g225
sg55
(lp404
g48
(g69
g50
NtRp405
(dp406
g53
(dp407
g73
g74
ssg62
g401
sg55
(lp408
S'session_id_borrar2'
p409
asbag48
(g69
g50
NtRp410
(dp411
g53
(dp412
g80
g81
ssg62
g401
sg55
(lp413
S':'
asbag48
(g69
g50
NtRp414
(dp415
g53
(dp416
sg62
g401
sg55
(lp417
g48
(g49
g50
NtRp418
(dp419
g53
(dp420
g61
I4
ssg62
g414
sg55
(lp421
g48
(g57
g50
NtRp422
(dp423
g53
(dp424
g61
I3
ssg62
Nsg55
(lp425
g48
(g64
g50
NtRp426
(dp427
g53
(dp428
sg62
g422
sg55
(lp429
g48
(g69
g50
NtRp430
(dp431
g53
(dp432
g73
g74
ssg62
g426
sg55
(lp433
g262
asbag48
(g69
g50
NtRp434
(dp435
g53
(dp436
g80
g81
ssg62
g426
sg55
(lp437
S':'
asbag48
(g69
g50
NtRp438
(dp439
g53
(dp440
sg62
g426
sg55
(lp441
g48
(g49
g50
NtRp442
(dp443
g53
(dp444
g61
I3
ssg62
g438
sg55
(lp445
S''
asbasbasbag48
(g64
g50
NtRp446
(dp447
g53
(dp448
sg62
g422
sg55
(lp449
g48
(g69
g50
NtRp450
(dp451
g53
(dp452
g73
g74
ssg62
g446
sg55
(lp453
g283
asbag48
(g69
g50
NtRp454
(dp455
g53
(dp456
g80
g81
ssg62
g446
sg55
(lp457
S':'
asbag48
(g69
g50
NtRp458
(dp459
g53
(dp460
sg62
g446
sg55
(lp461
g48
(g49
g50
NtRp462
(dp463
g53
(dp464
g61
I3
ssg62
g458
sg55
(lp465
S''
asbasbasbag48
(g64
g50
NtRp466
(dp467
g53
(dp468
sg62
g422
sg55
(lp469
g48
(g69
g50
NtRp470
(dp471
g53
(dp472
g73
g74
ssg62
g466
sg55
(lp473
g304
asbag48
(g69
g50
NtRp474
(dp475
g53
(dp476
g80
g81
ssg62
g466
sg55
(lp477
S':'
asbag48
(g69
g50
NtRp478
(dp479
g53
(dp480
sg62
g466
sg55
(lp481
g48
(g49
g50
NtRp482
(dp483
g53
(dp484
g61
I3
ssg62
g478
sg55
(lp485
S''
asbasbasbag48
(g64
g50
NtRp486
(dp487
g53
(dp488
sg62
g422
sg55
(lp489
g48
(g69
g50
NtRp490
(dp491
g53
(dp492
g73
g74
ssg62
g486
sg55
(lp493
g325
asbag48
(g69
g50
NtRp494
(dp495
g53
(dp496
g80
g81
ssg62
g486
sg55
(lp497
S':'
asbag48
(g69
g50
NtRp498
(dp499
g53
(dp500
sg62
g486
sg55
(lp501
g48
(g49
g50
NtRp502
(dp503
g53
(dp504
g61
I3
ssg62
g498
sg55
(lp505
S''
asbasbasbag48
(g64
g50
NtRp506
(dp507
g53
(dp508
sg62
g422
sg55
(lp509
g48
(g69
g50
NtRp510
(dp511
g53
(dp512
g73
g74
ssg62
g506
sg55
(lp513
g346
asbag48
(g69
g50
NtRp514
(dp515
g53
(dp516
g80
g81
ssg62
g506
sg55
(lp517
S':'
asbag48
(g69
g50
NtRp518
(dp519
g53
(dp520
sg62
g506
sg55
(lp521
g48
(g49
g50
NtRp522
(dp523
g53
(dp524
g61
I3
ssg62
g518
sg55
(lp525
S''
asbasbasbag48
(g64
g50
NtRp526
(dp527
g53
(dp528
sg62
g422
sg55
(lp529
g48
(g69
g50
NtRp530
(dp531
g53
(dp532
g73
g74
ssg62
g526
sg55
(lp533
g367
asbag48
(g69
g50
NtRp534
(dp535
g53
(dp536
g80
g81
ssg62
g526
sg55
(lp537
S':'
asbag48
(g69
g50
NtRp538
(dp539
g53
(dp540
sg62
g526
sg55
(lp541
g48
(g49
g50
NtRp542
(dp543
g53
(dp544
g61
I3
ssg62
g538
sg55
(lp545
S''
asbasbasbag48
(g64
g50
NtRp546
(dp547
g53
(dp548
sg62
g422
sg55
(lp549
g48
(g69
g50
NtRp550
(dp551
g53
(dp552
g73
g74
ssg62
g546
sg55
(lp553
g388
asbag48
(g69
g50
NtRp554
(dp555
g53
(dp556
g80
g81
ssg62
g546
sg55
(lp557
S':'
asbag48
(g69
g50
NtRp558
(dp559
g53
(dp560
sg62
g546
sg55
(lp561
g48
(g49
g50
NtRp562
(dp563
g53
(dp564
g61
I3
ssg62
g558
sg55
(lp565
S''
asbasbasbasbasbasbasbag48
(g64
g50
NtRp566
(dp567
g53
(dp568
sg62
g225
sg55
(lp569
g48
(g69
g50
NtRp570
(dp571
g53
(dp572
g73
g74
ssg62
g566
sg55
(lp573
S'session_id_desglosar_emails'
p574
asbag48
(g69
g50
NtRp575
(dp576
g53
(dp577
g80
g81
ssg62
g566
sg55
(lp578
S':'
asbag48
(g69
g50
NtRp579
(dp580
g53
(dp581
sg62
g566
sg55
(lp582
g48
(g49
g50
NtRp583
(dp584
g53
(dp585
g61
I4
ssg62
g579
sg55
(lp586
g48
(g57
g50
NtRp587
(dp588
g53
(dp589
g61
I3
ssg62
Nsg55
(lp590
g48
(g64
g50
NtRp591
(dp592
g53
(dp593
sg62
g587
sg55
(lp594
g48
(g69
g50
NtRp595
(dp596
g53
(dp597
g73
g74
ssg62
g591
sg55
(lp598
g262
asbag48
(g69
g50
NtRp599
(dp600
g53
(dp601
g80
g81
ssg62
g591
sg55
(lp602
S':'
asbag48
(g69
g50
NtRp603
(dp604
g53
(dp605
sg62
g591
sg55
(lp606
g48
(g49
g50
NtRp607
(dp608
g53
(dp609
g61
I3
ssg62
g603
sg55
(lp610
S''
asbasbasbag48
(g64
g50
NtRp611
(dp612
g53
(dp613
sg62
g587
sg55
(lp614
g48
(g69
g50
NtRp615
(dp616
g53
(dp617
g73
g74
ssg62
g611
sg55
(lp618
g283
asbag48
(g69
g50
NtRp619
(dp620
g53
(dp621
g80
g81
ssg62
g611
sg55
(lp622
S':'
asbag48
(g69
g50
NtRp623
(dp624
g53
(dp625
sg62
g611
sg55
(lp626
g48
(g49
g50
NtRp627
(dp628
g53
(dp629
g61
I3
ssg62
g623
sg55
(lp630
S''
asbasbasbag48
(g64
g50
NtRp631
(dp632
g53
(dp633
sg62
g587
sg55
(lp634
g48
(g69
g50
NtRp635
(dp636
g53
(dp637
g73
g74
ssg62
g631
sg55
(lp638
g304
asbag48
(g69
g50
NtRp639
(dp640
g53
(dp641
g80
g81
ssg62
g631
sg55
(lp642
S':'
asbag48
(g69
g50
NtRp643
(dp644
g53
(dp645
sg62
g631
sg55
(lp646
g48
(g49
g50
NtRp647
(dp648
g53
(dp649
g61
I3
ssg62
g643
sg55
(lp650
S''
asbasbasbag48
(g64
g50
NtRp651
(dp652
g53
(dp653
sg62
g587
sg55
(lp654
g48
(g69
g50
NtRp655
(dp656
g53
(dp657
g73
g74
ssg62
g651
sg55
(lp658
g325
asbag48
(g69
g50
NtRp659
(dp660
g53
(dp661
g80
g81
ssg62
g651
sg55
(lp662
S':'
asbag48
(g69
g50
NtRp663
(dp664
g53
(dp665
sg62
g651
sg55
(lp666
g48
(g49
g50
NtRp667
(dp668
g53
(dp669
g61
I3
ssg62
g663
sg55
(lp670
S''
asbasbasbag48
(g64
g50
NtRp671
(dp672
g53
(dp673
sg62
g587
sg55
(lp674
g48
(g69
g50
NtRp675
(dp676
g53
(dp677
g73
g74
ssg62
g671
sg55
(lp678
g346
asbag48
(g69
g50
NtRp679
(dp680
g53
(dp681
g80
g81
ssg62
g671
sg55
(lp682
S':'
asbag48
(g69
g50
NtRp683
(dp684
g53
(dp685
sg62
g671
sg55
(lp686
g48
(g49
g50
NtRp687
(dp688
g53
(dp689
g61
I3
ssg62
g683
sg55
(lp690
S''
asbasbasbag48
(g64
g50
NtRp691
(dp692
g53
(dp693
sg62
g587
sg55
(lp694
g48
(g69
g50
NtRp695
(dp696
g53
(dp697
g73
g74
ssg62
g691
sg55
(lp698
g367
asbag48
(g69
g50
NtRp699
(dp700
g53
(dp701
g80
g81
ssg62
g691
sg55
(lp702
S':'
asbag48
(g69
g50
NtRp703
(dp704
g53
(dp705
sg62
g691
sg55
(lp706
g48
(g49
g50
NtRp707
(dp708
g53
(dp709
g61
I3
ssg62
g703
sg55
(lp710
S''
asbasbasbag48
(g64
g50
NtRp711
(dp712
g53
(dp713
sg62
g587
sg55
(lp714
g48
(g69
g50
NtRp715
(dp716
g53
(dp717
g73
g74
ssg62
g711
sg55
(lp718
g388
asbag48
(g69
g50
NtRp719
(dp720
g53
(dp721
g80
g81
ssg62
g711
sg55
(lp722
S':'
asbag48
(g69
g50
NtRp723
(dp724
g53
(dp725
sg62
g711
sg55
(lp726
g48
(g49
g50
NtRp727
(dp728
g53
(dp729
g61
I3
ssg62
g723
sg55
(lp730
S''
asbasbasbasbasbasbasbag48
(g64
g50
NtRp731
(dp732
g53
(dp733
sg62
g225
sg55
(lp734
g48
(g69
g50
NtRp735
(dp736
g53
(dp737
g73
g74
ssg62
g731
sg55
(lp738
S'session_id_myappjav'
p739
asbag48
(g69
g50
NtRp740
(dp741
g53
(dp742
g80
g81
ssg62
g731
sg55
(lp743
S':'
asbag48
(g69
g50
NtRp744
(dp745
g53
(dp746
sg62
g731
sg55
(lp747
g48
(g49
g50
NtRp748
(dp749
g53
(dp750
g61
I4
ssg62
g744
sg55
(lp751
g48
(g57
g50
NtRp752
(dp753
g53
(dp754
g61
I3
ssg62
Nsg55
(lp755
g48
(g64
g50
NtRp756
(dp757
g53
(dp758
sg62
g752
sg55
(lp759
g48
(g69
g50
NtRp760
(dp761
g53
(dp762
g73
g74
ssg62
g756
sg55
(lp763
g262
asbag48
(g69
g50
NtRp764
(dp765
g53
(dp766
g80
g81
ssg62
g756
sg55
(lp767
S':'
asbag48
(g69
g50
NtRp768
(dp769
g53
(dp770
sg62
g756
sg55
(lp771
g48
(g49
g50
NtRp772
(dp773
g53
(dp774
g61
I3
ssg62
g768
sg55
(lp775
S''
asbasbasbag48
(g64
g50
NtRp776
(dp777
g53
(dp778
sg62
g752
sg55
(lp779
g48
(g69
g50
NtRp780
(dp781
g53
(dp782
g73
g74
ssg62
g776
sg55
(lp783
g283
asbag48
(g69
g50
NtRp784
(dp785
g53
(dp786
g80
g81
ssg62
g776
sg55
(lp787
S':'
asbag48
(g69
g50
NtRp788
(dp789
g53
(dp790
sg62
g776
sg55
(lp791
g48
(g49
g50
NtRp792
(dp793
g53
(dp794
g61
I3
ssg62
g788
sg55
(lp795
S''
asbasbasbag48
(g64
g50
NtRp796
(dp797
g53
(dp798
sg62
g752
sg55
(lp799
g48
(g69
g50
NtRp800
(dp801
g53
(dp802
g73
g74
ssg62
g796
sg55
(lp803
g304
asbag48
(g69
g50
NtRp804
(dp805
g53
(dp806
g80
g81
ssg62
g796
sg55
(lp807
S':'
asbag48
(g69
g50
NtRp808
(dp809
g53
(dp810
sg62
g796
sg55
(lp811
g48
(g49
g50
NtRp812
(dp813
g53
(dp814
g61
I3
ssg62
g808
sg55
(lp815
S''
asbasbasbag48
(g64
g50
NtRp816
(dp817
g53
(dp818
sg62
g752
sg55
(lp819
g48
(g69
g50
NtRp820
(dp821
g53
(dp822
g73
g74
ssg62
g816
sg55
(lp823
g325
asbag48
(g69
g50
NtRp824
(dp825
g53
(dp826
g80
g81
ssg62
g816
sg55
(lp827
S':'
asbag48
(g69
g50
NtRp828
(dp829
g53
(dp830
sg62
g816
sg55
(lp831
g48
(g49
g50
NtRp832
(dp833
g53
(dp834
g61
I3
ssg62
g828
sg55
(lp835
S''
asbasbasbag48
(g64
g50
NtRp836
(dp837
g53
(dp838
sg62
g752
sg55
(lp839
g48
(g69
g50
NtRp840
(dp841
g53
(dp842
g73
g74
ssg62
g836
sg55
(lp843
g346
asbag48
(g69
g50
NtRp844
(dp845
g53
(dp846
g80
g81
ssg62
g836
sg55
(lp847
S':'
asbag48
(g69
g50
NtRp848
(dp849
g53
(dp850
sg62
g836
sg55
(lp851
g48
(g49
g50
NtRp852
(dp853
g53
(dp854
g61
I3
ssg62
g848
sg55
(lp855
S''
asbasbasbag48
(g64
g50
NtRp856
(dp857
g53
(dp858
sg62
g752
sg55
(lp859
g48
(g69
g50
NtRp860
(dp861
g53
(dp862
g73
g74
ssg62
g856
sg55
(lp863
g367
asbag48
(g69
g50
NtRp864
(dp865
g53
(dp866
g80
g81
ssg62
g856
sg55
(lp867
S':'
asbag48
(g69
g50
NtRp868
(dp869
g53
(dp870
sg62
g856
sg55
(lp871
g48
(g49
g50
NtRp872
(dp873
g53
(dp874
g61
I3
ssg62
g868
sg55
(lp875
S''
asbasbasbag48
(g64
g50
NtRp876
(dp877
g53
(dp878
sg62
g752
sg55
(lp879
g48
(g69
g50
NtRp880
(dp881
g53
(dp882
g73
g74
ssg62
g876
sg55
(lp883
g388
asbag48
(g69
g50
NtRp884
(dp885
g53
(dp886
g80
g81
ssg62
g876
sg55
(lp887
S':'
asbag48
(g69
g50
NtRp888
(dp889
g53
(dp890
sg62
g876
sg55
(lp891
g48
(g49
g50
NtRp892
(dp893
g53
(dp894
g61
I3
ssg62
g888
sg55
(lp895
S''
asbasbasbasbasbasbasbag48
(g64
g50
NtRp896
(dp897
g53
(dp898
sg62
g225
sg55
(lp899
g48
(g69
g50
NtRp900
(dp901
g53
(dp902
g73
g74
ssg62
g896
sg55
(lp903
S'session_id_welcome'
p904
asbag48
(g69
g50
NtRp905
(dp906
g53
(dp907
g80
g81
ssg62
g896
sg55
(lp908
S':'
asbag48
(g69
g50
NtRp909
(dp910
g53
(dp911
sg62
g896
sg55
(lp912
g48
(g49
g50
NtRp913
(dp914
g53
(dp915
g61
I4
ssg62
g909
sg55
(lp916
g48
(g57
g50
NtRp917
(dp918
g53
(dp919
g61
I3
ssg62
Nsg55
(lp920
g48
(g64
g50
NtRp921
(dp922
g53
(dp923
sg62
g917
sg55
(lp924
g48
(g69
g50
NtRp925
(dp926
g53
(dp927
g73
g74
ssg62
g921
sg55
(lp928
g262
asbag48
(g69
g50
NtRp929
(dp930
g53
(dp931
g80
g81
ssg62
g921
sg55
(lp932
S':'
asbag48
(g69
g50
NtRp933
(dp934
g53
(dp935
sg62
g921
sg55
(lp936
g48
(g49
g50
NtRp937
(dp938
g53
(dp939
g61
I3
ssg62
g933
sg55
(lp940
S''
asbasbasbag48
(g64
g50
NtRp941
(dp942
g53
(dp943
sg62
g917
sg55
(lp944
g48
(g69
g50
NtRp945
(dp946
g53
(dp947
g73
g74
ssg62
g941
sg55
(lp948
g283
asbag48
(g69
g50
NtRp949
(dp950
g53
(dp951
g80
g81
ssg62
g941
sg55
(lp952
S':'
asbag48
(g69
g50
NtRp953
(dp954
g53
(dp955
sg62
g941
sg55
(lp956
g48
(g49
g50
NtRp957
(dp958
g53
(dp959
g61
I3
ssg62
g953
sg55
(lp960
S''
asbasbasbag48
(g64
g50
NtRp961
(dp962
g53
(dp963
sg62
g917
sg55
(lp964
g48
(g69
g50
NtRp965
(dp966
g53
(dp967
g73
g74
ssg62
g961
sg55
(lp968
g304
asbag48
(g69
g50
NtRp969
(dp970
g53
(dp971
g80
g81
ssg62
g961
sg55
(lp972
S':'
asbag48
(g69
g50
NtRp973
(dp974
g53
(dp975
sg62
g961
sg55
(lp976
g48
(g49
g50
NtRp977
(dp978
g53
(dp979
g61
I3
ssg62
g973
sg55
(lp980
S''
asbasbasbag48
(g64
g50
NtRp981
(dp982
g53
(dp983
sg62
g917
sg55
(lp984
g48
(g69
g50
NtRp985
(dp986
g53
(dp987
g73
g74
ssg62
g981
sg55
(lp988
g325
asbag48
(g69
g50
NtRp989
(dp990
g53
(dp991
g80
g81
ssg62
g981
sg55
(lp992
S':'
asbag48
(g69
g50
NtRp993
(dp994
g53
(dp995
sg62
g981
sg55
(lp996
g48
(g49
g50
NtRp997
(dp998
g53
(dp999
g61
I3
ssg62
g993
sg55
(lp1000
S''
asbasbasbag48
(g64
g50
NtRp1001
(dp1002
g53
(dp1003
sg62
g917
sg55
(lp1004
g48
(g69
g50
NtRp1005
(dp1006
g53
(dp1007
g73
g74
ssg62
g1001
sg55
(lp1008
g346
asbag48
(g69
g50
NtRp1009
(dp1010
g53
(dp1011
g80
g81
ssg62
g1001
sg55
(lp1012
S':'
asbag48
(g69
g50
NtRp1013
(dp1014
g53
(dp1015
sg62
g1001
sg55
(lp1016
g48
(g49
g50
NtRp1017
(dp1018
g53
(dp1019
g61
I3
ssg62
g1013
sg55
(lp1020
S''
asbasbasbag48
(g64
g50
NtRp1021
(dp1022
g53
(dp1023
sg62
g917
sg55
(lp1024
g48
(g69
g50
NtRp1025
(dp1026
g53
(dp1027
g73
g74
ssg62
g1021
sg55
(lp1028
g367
asbag48
(g69
g50
NtRp1029
(dp1030
g53
(dp1031
g80
g81
ssg62
g1021
sg55
(lp1032
S':'
asbag48
(g69
g50
NtRp1033
(dp1034
g53
(dp1035
sg62
g1021
sg55
(lp1036
g48
(g49
g50
NtRp1037
(dp1038
g53
(dp1039
g61
I3
ssg62
g1033
sg55
(lp1040
S''
asbasbasbag48
(g64
g50
NtRp1041
(dp1042
g53
(dp1043
sg62
g917
sg55
(lp1044
g48
(g69
g50
NtRp1045
(dp1046
g53
(dp1047
g73
g74
ssg62
g1041
sg55
(lp1048
g388
asbag48
(g69
g50
NtRp1049
(dp1050
g53
(dp1051
g80
g81
ssg62
g1041
sg55
(lp1052
S':'
asbag48
(g69
g50
NtRp1053
(dp1054
g53
(dp1055
sg62
g1041
sg55
(lp1056
g48
(g49
g50
NtRp1057
(dp1058
g53
(dp1059
g61
I3
ssg62
g1053
sg55
(lp1060
S''
asbasbasbasbasbasbasbasbasbasbasbag48
(g64
g50
NtRp1061
(dp1062
g53
(dp1063
sg62
g58
sg55
(lp1064
g48
(g69
g50
NtRp1065
(dp1066
g53
(dp1067
g73
g74
ssg62
g1061
sg55
(lp1068
S'env'
p1069
asbag48
(g69
g50
NtRp1070
(dp1071
g53
(dp1072
g80
g81
ssg62
g1061
sg55
(lp1073
S':'
asbag48
(g69
g50
NtRp1074
(dp1075
g53
(dp1076
sg62
g1061
sg55
(lp1077
g48
(g49
g50
NtRp1078
(dp1079
g53
(dp1080
g61
I5
ssg62
g1074
sg55
(lp1081
g48
(g57
g50
NtRp1082
(dp1083
g53
(dp1084
g61
I4
ssg62
Nsg55
(lp1085
g48
(g64
g50
NtRp1086
(dp1087
g53
(dp1088
sg62
g1082
sg55
(lp1089
g48
(g69
g50
NtRp1090
(dp1091
g53
(dp1092
g73
g74
ssg62
g1086
sg55
(lp1093
S'app_folders'
p1094
asbag48
(g69
g50
NtRp1095
(dp1096
g53
(dp1097
g80
g81
ssg62
g1086
sg55
(lp1098
S':'
asbag48
(g69
g50
NtRp1099
(dp1100
g53
(dp1101
sg62
g1086
sg55
(lp1102
g48
(g49
g50
NtRp1103
(dp1104
g53
(dp1105
g61
I4
ssg62
g1099
sg55
(lp1106
S"set(['C:\\\\Users\\\\Atomico\\\\web2py\\\\applications\\\\welcome\\\\', 'C:\\\\Users\\\\Atomico\\\\web2py\\\\applications\\\\Desglosar_Emails\\\\', 'C:\\\\Users\\\\Atomico\\\\web2py\\\\applications\\\\admin\\\\'])"
p1107
asbasbasbag48
(g64
g50
NtRp1108
(dp1109
g53
(dp1110
sg62
g1082
sg55
(lp1111
g48
(g69
g50
NtRp1112
(dp1113
g53
(dp1114
g73
g74
ssg62
g1108
sg55
(lp1115
S'applications_parent'
p1116
asbag48
(g69
g50
NtRp1117
(dp1118
g53
(dp1119
g80
g81
ssg62
g1108
sg55
(lp1120
S':'
asbag48
(g69
g50
NtRp1121
(dp1122
g53
(dp1123
sg62
g1108
sg55
(lp1124
g48
(g49
g50
NtRp1125
(dp1126
g53
(dp1127
g61
I4
ssg62
g1121
sg55
(lp1128
S'C:\\Users\\Atomico\\web2py'
p1129
asbasbasbag48
(g64
g50
NtRp1130
(dp1131
g53
(dp1132
sg62
g1082
sg55
(lp1133
g48
(g69
g50
NtRp1134
(dp1135
g53
(dp1136
g73
g74
ssg62
g1130
sg55
(lp1137
S'cmd_args'
p1138
asbag48
(g69
g50
NtRp1139
(dp1140
g53
(dp1141
g80
g81
ssg62
g1130
sg55
(lp1142
S':'
asbag48
(g69
g50
NtRp1143
(dp1144
g53
(dp1145
sg62
g1130
sg55
(lp1146
g48
(g49
g50
NtRp1147
(dp1148
g53
(dp1149
g61
I4
ssg62
g1143
sg55
(lp1150
g48
(g57
g50
NtRp1151
(dp1152
g53
(dp1153
g61
I3
ssg62
Nsg55
(lp1154
sbasbasbasbag48
(g64
g50
NtRp1155
(dp1156
g53
(dp1157
sg62
g1082
sg55
(lp1158
g48
(g69
g50
NtRp1159
(dp1160
g53
(dp1161
g73
g74
ssg62
g1155
sg55
(lp1162
S'cmd_options'
p1163
asbag48
(g69
g50
NtRp1164
(dp1165
g53
(dp1166
g80
g81
ssg62
g1155
sg55
(lp1167
S':'
asbag48
(g69
g50
NtRp1168
(dp1169
g53
(dp1170
sg62
g1155
sg55
(lp1171
g48
(g49
g50
NtRp1172
(dp1173
g53
(dp1174
g61
I4
ssg62
g1168
sg55
(lp1175
S"<Values at 0x31fe5d0: {'verbose': False, 'ip': '127.0.0.1', 'shutdown_timeout': 5, 'taskbar': False, 'port': 8000, 'maxthreads': None, 'softcron': False, 'server_name': 'Swing', 'bpython': False, 'nogui': False, 'nocron': False, 'extcron': False, 'debuglevel': 30, 'test': None, 'folder': 'C:\\\\Users\\\\Atomico\\\\web2py', 'config': '', 'import_models': False, 'winservice': '', 'shell': None, 'run': '', 'log_filename': 'httpserver.log', 'args': [''], 'profiler_filename': None, 'ssl_private_key': '', 'password': '<ask>', 'request_queue_size': 5, 'ssl_certificate': '', 'cronjob': False, 'plain': False, 'quiet': False, 'interfaces': None, 'minthreads': None, 'timeout': 10, 'numthreads': None, 'nobanner': False, 'pid_filename': 'httpserver.pid'}>"
p1176
asbasbasbag48
(g64
g50
NtRp1177
(dp1178
g53
(dp1179
sg62
g1082
sg55
(lp1180
g48
(g69
g50
NtRp1181
(dp1182
g53
(dp1183
g73
g74
ssg62
g1177
sg55
(lp1184
S'content_length'
p1185
asbag48
(g69
g50
NtRp1186
(dp1187
g53
(dp1188
g80
g81
ssg62
g1177
sg55
(lp1189
S':'
asbag48
(g69
g50
NtRp1190
(dp1191
g53
(dp1192
sg62
g1177
sg55
(lp1193
g48
(g49
g50
NtRp1194
(dp1195
g53
(dp1196
g61
I4
ssg62
g1190
sg55
(lp1197
S'391'
p1198
asbasbasbag48
(g64
g50
NtRp1199
(dp1200
g53
(dp1201
sg62
g1082
sg55
(lp1202
g48
(g69
g50
NtRp1203
(dp1204
g53
(dp1205
g73
g74
ssg62
g1199
sg55
(lp1206
S'content_type'
p1207
asbag48
(g69
g50
NtRp1208
(dp1209
g53
(dp1210
g80
g81
ssg62
g1199
sg55
(lp1211
S':'
asbag48
(g69
g50
NtRp1212
(dp1213
g53
(dp1214
sg62
g1199
sg55
(lp1215
g48
(g49
g50
NtRp1216
(dp1217
g53
(dp1218
g61
I4
ssg62
g1212
sg55
(lp1219
S'multipart/form-data; boundary=---------------------------298663095330308'
p1220
asbasbasbag48
(g64
g50
NtRp1221
(dp1222
g53
(dp1223
sg62
g1082
sg55
(lp1224
g48
(g69
g50
NtRp1225
(dp1226
g53
(dp1227
g73
g74
ssg62
g1221
sg55
(lp1228
S'db_sessions'
p1229
asbag48
(g69
g50
NtRp1230
(dp1231
g53
(dp1232
g80
g81
ssg62
g1221
sg55
(lp1233
S':'
asbag48
(g69
g50
NtRp1234
(dp1235
g53
(dp1236
sg62
g1221
sg55
(lp1237
g48
(g49
g50
NtRp1238
(dp1239
g53
(dp1240
g61
I4
ssg62
g1234
sg55
(lp1241
S'set([])'
p1242
asbasbasbag48
(g64
g50
NtRp1243
(dp1244
g53
(dp1245
sg62
g1082
sg55
(lp1246
g48
(g69
g50
NtRp1247
(dp1248
g53
(dp1249
g73
g74
ssg62
g1243
sg55
(lp1250
S'debugging'
p1251
asbag48
(g69
g50
NtRp1252
(dp1253
g53
(dp1254
g80
g81
ssg62
g1243
sg55
(lp1255
S':'
asbag48
(g69
g50
NtRp1256
(dp1257
g53
(dp1258
sg62
g1243
sg55
(lp1259
g48
(g49
g50
NtRp1260
(dp1261
g53
(dp1262
g61
I4
ssg62
g1256
sg55
(lp1263
g91
asbasbasbag48
(g64
g50
NtRp1264
(dp1265
g53
(dp1266
sg62
g1082
sg55
(lp1267
g48
(g69
g50
NtRp1268
(dp1269
g53
(dp1270
g73
g74
ssg62
g1264
sg55
(lp1271
S'gluon_parent'
p1272
asbag48
(g69
g50
NtRp1273
(dp1274
g53
(dp1275
g80
g81
ssg62
g1264
sg55
(lp1276
S':'
asbag48
(g69
g50
NtRp1277
(dp1278
g53
(dp1279
sg62
g1264
sg55
(lp1280
g48
(g49
g50
NtRp1281
(dp1282
g53
(dp1283
g61
I4
ssg62
g1277
sg55
(lp1284
S'C:\\Users\\Atomico\\web2py'
p1285
asbasbasbag48
(g64
g50
NtRp1286
(dp1287
g53
(dp1288
sg62
g1082
sg55
(lp1289
g48
(g69
g50
NtRp1290
(dp1291
g53
(dp1292
g73
g74
ssg62
g1286
sg55
(lp1293
S'http_accept'
p1294
asbag48
(g69
g50
NtRp1295
(dp1296
g53
(dp1297
g80
g81
ssg62
g1286
sg55
(lp1298
S':'
asbag48
(g69
g50
NtRp1299
(dp1300
g53
(dp1301
sg62
g1286
sg55
(lp1302
g48
(g49
g50
NtRp1303
(dp1304
g53
(dp1305
g61
I4
ssg62
g1299
sg55
(lp1306
S'text/html,application/xhtml+xml,application/xml;q=0.9,*/*;q=0.8'
p1307
asbasbasbag48
(g64
g50
NtRp1308
(dp1309
g53
(dp1310
sg62
g1082
sg55
(lp1311
g48
(g69
g50
NtRp1312
(dp1313
g53
(dp1314
g73
g74
ssg62
g1308
sg55
(lp1315
S'http_accept_charset'
p1316
asbag48
(g69
g50
NtRp1317
(dp1318
g53
(dp1319
g80
g81
ssg62
g1308
sg55
(lp1320
S':'
asbag48
(g69
g50
NtRp1321
(dp1322
g53
(dp1323
sg62
g1308
sg55
(lp1324
g48
(g49
g50
NtRp1325
(dp1326
g53
(dp1327
g61
I4
ssg62
g1321
sg55
(lp1328
S'ISO-8859-1,utf-8;q=0.7,*;q=0.7'
p1329
asbasbasbag48
(g64
g50
NtRp1330
(dp1331
g53
(dp1332
sg62
g1082
sg55
(lp1333
g48
(g69
g50
NtRp1334
(dp1335
g53
(dp1336
g73
g74
ssg62
g1330
sg55
(lp1337
S'http_accept_encoding'
p1338
asbag48
(g69
g50
NtRp1339
(dp1340
g53
(dp1341
g80
g81
ssg62
g1330
sg55
(lp1342
S':'
asbag48
(g69
g50
NtRp1343
(dp1344
g53
(dp1345
sg62
g1330
sg55
(lp1346
g48
(g49
g50
NtRp1347
(dp1348
g53
(dp1349
g61
I4
ssg62
g1343
sg55
(lp1350
S'gzip, deflate'
p1351
asbasbasbag48
(g64
g50
NtRp1352
(dp1353
g53
(dp1354
sg62
g1082
sg55
(lp1355
g48
(g69
g50
NtRp1356
(dp1357
g53
(dp1358
g73
g74
ssg62
g1352
sg55
(lp1359
S'http_accept_language'
p1360
asbag48
(g69
g50
NtRp1361
(dp1362
g53
(dp1363
g80
g81
ssg62
g1352
sg55
(lp1364
S':'
asbag48
(g69
g50
NtRp1365
(dp1366
g53
(dp1367
sg62
g1352
sg55
(lp1368
g48
(g49
g50
NtRp1369
(dp1370
g53
(dp1371
g61
I4
ssg62
g1365
sg55
(lp1372
S'es-es,es;q=0.8,en-us;q=0.5,en;q=0.3'
p1373
asbasbasbag48
(g64
g50
NtRp1374
(dp1375
g53
(dp1376
sg62
g1082
sg55
(lp1377
g48
(g69
g50
NtRp1378
(dp1379
g53
(dp1380
g73
g74
ssg62
g1374
sg55
(lp1381
S'http_cache_control'
p1382
asbag48
(g69
g50
NtRp1383
(dp1384
g53
(dp1385
g80
g81
ssg62
g1374
sg55
(lp1386
S':'
asbag48
(g69
g50
NtRp1387
(dp1388
g53
(dp1389
sg62
g1374
sg55
(lp1390
g48
(g49
g50
NtRp1391
(dp1392
g53
(dp1393
g61
I4
ssg62
g1387
sg55
(lp1394
S'max-age=0'
p1395
asbasbasbag48
(g64
g50
NtRp1396
(dp1397
g53
(dp1398
sg62
g1082
sg55
(lp1399
g48
(g69
g50
NtRp1400
(dp1401
g53
(dp1402
g73
g74
ssg62
g1396
sg55
(lp1403
S'http_connection'
p1404
asbag48
(g69
g50
NtRp1405
(dp1406
g53
(dp1407
g80
g81
ssg62
g1396
sg55
(lp1408
S':'
asbag48
(g69
g50
NtRp1409
(dp1410
g53
(dp1411
sg62
g1396
sg55
(lp1412
g48
(g49
g50
NtRp1413
(dp1414
g53
(dp1415
g61
I4
ssg62
g1409
sg55
(lp1416
S'keep-alive'
p1417
asbasbasbag48
(g64
g50
NtRp1418
(dp1419
g53
(dp1420
sg62
g1082
sg55
(lp1421
g48
(g69
g50
NtRp1422
(dp1423
g53
(dp1424
g73
g74
ssg62
g1418
sg55
(lp1425
S'http_content_length'
p1426
asbag48
(g69
g50
NtRp1427
(dp1428
g53
(dp1429
g80
g81
ssg62
g1418
sg55
(lp1430
S':'
asbag48
(g69
g50
NtRp1431
(dp1432
g53
(dp1433
sg62
g1418
sg55
(lp1434
g48
(g49
g50
NtRp1435
(dp1436
g53
(dp1437
g61
I4
ssg62
g1431
sg55
(lp1438
g1198
asbasbasbag48
(g64
g50
NtRp1439
(dp1440
g53
(dp1441
sg62
g1082
sg55
(lp1442
g48
(g69
g50
NtRp1443
(dp1444
g53
(dp1445
g73
g74
ssg62
g1439
sg55
(lp1446
S'http_content_type'
p1447
asbag48
(g69
g50
NtRp1448
(dp1449
g53
(dp1450
g80
g81
ssg62
g1439
sg55
(lp1451
S':'
asbag48
(g69
g50
NtRp1452
(dp1453
g53
(dp1454
sg62
g1439
sg55
(lp1455
g48
(g49
g50
NtRp1456
(dp1457
g53
(dp1458
g61
I4
ssg62
g1452
sg55
(lp1459
g1220
asbasbasbag48
(g64
g50
NtRp1460
(dp1461
g53
(dp1462
sg62
g1082
sg55
(lp1463
g48
(g69
g50
NtRp1464
(dp1465
g53
(dp1466
g73
g74
ssg62
g1460
sg55
(lp1467
S'http_cookie'
p1468
asbag48
(g69
g50
NtRp1469
(dp1470
g53
(dp1471
g80
g81
ssg62
g1460
sg55
(lp1472
S':'
asbag48
(g69
g50
NtRp1473
(dp1474
g53
(dp1475
sg62
g1460
sg55
(lp1476
g48
(g49
g50
NtRp1477
(dp1478
g53
(dp1479
g61
I4
ssg62
g1473
sg55
(lp1480
S'session_id_welcome=127.0.0.1-d4a19c8f-3eb1-49d7-87c7-849a3de2f2be; session_id_admin=127.0.0.1-ab41072a-78d8-41d9-b0f6-43c9e78f0c91; session_id_desglosar_emails=127.0.0.1-78cf8050-df87-4502-afb9-ed0c3843b414; session_id_borrar2=127.0.0.1-7b2821ce-f980-4deb-be8f-1de8266b25b6; session_id_myappjav=127.0.0.1-c0868253-65dd-491c-a2e7-2dc9aaaa4724'
p1481
asbasbasbag48
(g64
g50
NtRp1482
(dp1483
g53
(dp1484
sg62
g1082
sg55
(lp1485
g48
(g69
g50
NtRp1486
(dp1487
g53
(dp1488
g73
g74
ssg62
g1482
sg55
(lp1489
S'http_host'
p1490
asbag48
(g69
g50
NtRp1491
(dp1492
g53
(dp1493
g80
g81
ssg62
g1482
sg55
(lp1494
S':'
asbag48
(g69
g50
NtRp1495
(dp1496
g53
(dp1497
sg62
g1482
sg55
(lp1498
g48
(g49
g50
NtRp1499
(dp1500
g53
(dp1501
g61
I4
ssg62
g1495
sg55
(lp1502
S'127.0.0.1:8000'
p1503
asbasbasbag48
(g64
g50
NtRp1504
(dp1505
g53
(dp1506
sg62
g1082
sg55
(lp1507
g48
(g69
g50
NtRp1508
(dp1509
g53
(dp1510
g73
g74
ssg62
g1504
sg55
(lp1511
S'http_referer'
p1512
asbag48
(g69
g50
NtRp1513
(dp1514
g53
(dp1515
g80
g81
ssg62
g1504
sg55
(lp1516
S':'
asbag48
(g69
g50
NtRp1517
(dp1518
g53
(dp1519
sg62
g1504
sg55
(lp1520
g48
(g49
g50
NtRp1521
(dp1522
g53
(dp1523
g61
I4
ssg62
g1517
sg55
(lp1524
S'http://127.0.0.1:8000/Desglosar_Emails/default/relaciones'
p1525
asbasbasbag48
(g64
g50
NtRp1526
(dp1527
g53
(dp1528
sg62
g1082
sg55
(lp1529
g48
(g69
g50
NtRp1530
(dp1531
g53
(dp1532
g73
g74
ssg62
g1526
sg55
(lp1533
S'http_user_agent'
p1534
asbag48
(g69
g50
NtRp1535
(dp1536
g53
(dp1537
g80
g81
ssg62
g1526
sg55
(lp1538
S':'
asbag48
(g69
g50
NtRp1539
(dp1540
g53
(dp1541
sg62
g1526
sg55
(lp1542
g48
(g49
g50
NtRp1543
(dp1544
g53
(dp1545
g61
I4
ssg62
g1539
sg55
(lp1546
S'Mozilla/5.0 (Windows NT 6.1; WOW64; rv:6.0.2) Gecko/20100101 Firefox/6.0.2'
p1547
asbasbasbag48
(g64
g50
NtRp1548
(dp1549
g53
(dp1550
sg62
g1082
sg55
(lp1551
g48
(g69
g50
NtRp1552
(dp1553
g53
(dp1554
g73
g74
ssg62
g1548
sg55
(lp1555
S'is_jython'
p1556
asbag48
(g69
g50
NtRp1557
(dp1558
g53
(dp1559
g80
g81
ssg62
g1548
sg55
(lp1560
S':'
asbag48
(g69
g50
NtRp1561
(dp1562
g53
(dp1563
sg62
g1548
sg55
(lp1564
g48
(g49
g50
NtRp1565
(dp1566
g53
(dp1567
g61
I4
ssg62
g1561
sg55
(lp1568
g91
asbasbasbag48
(g64
g50
NtRp1569
(dp1570
g53
(dp1571
sg62
g1082
sg55
(lp1572
g48
(g69
g50
NtRp1573
(dp1574
g53
(dp1575
g73
g74
ssg62
g1569
sg55
(lp1576
S'path_info'
p1577
asbag48
(g69
g50
NtRp1578
(dp1579
g53
(dp1580
g80
g81
ssg62
g1569
sg55
(lp1581
S':'
asbag48
(g69
g50
NtRp1582
(dp1583
g53
(dp1584
sg62
g1569
sg55
(lp1585
g48
(g49
g50
NtRp1586
(dp1587
g53
(dp1588
g61
I4
ssg62
g1582
sg55
(lp1589
S'/Desglosar_Emails/default/relaciones'
p1590
asbasbasbag48
(g64
g50
NtRp1591
(dp1592
g53
(dp1593
sg62
g1082
sg55
(lp1594
g48
(g69
g50
NtRp1595
(dp1596
g53
(dp1597
g73
g74
ssg62
g1591
sg55
(lp1598
S'query_string'
p1599
asbag48
(g69
g50
NtRp1600
(dp1601
g53
(dp1602
g80
g81
ssg62
g1591
sg55
(lp1603
S':'
asbag48
(g69
g50
NtRp1604
(dp1605
g53
(dp1606
sg62
g1591
sg55
(lp1607
g48
(g49
g50
NtRp1608
(dp1609
g53
(dp1610
g61
I4
ssg62
g1604
sg55
(lp1611
S''
asbasbasbag48
(g64
g50
NtRp1612
(dp1613
g53
(dp1614
sg62
g1082
sg55
(lp1615
g48
(g69
g50
NtRp1616
(dp1617
g53
(dp1618
g73
g74
ssg62
g1612
sg55
(lp1619
S'remote_addr'
p1620
asbag48
(g69
g50
NtRp1621
(dp1622
g53
(dp1623
g80
g81
ssg62
g1612
sg55
(lp1624
S':'
asbag48
(g69
g50
NtRp1625
(dp1626
g53
(dp1627
sg62
g1612
sg55
(lp1628
g48
(g49
g50
NtRp1629
(dp1630
g53
(dp1631
g61
I4
ssg62
g1625
sg55
(lp1632
g181
asbasbasbag48
(g64
g50
NtRp1633
(dp1634
g53
(dp1635
sg62
g1082
sg55
(lp1636
g48
(g69
g50
NtRp1637
(dp1638
g53
(dp1639
g73
g74
ssg62
g1633
sg55
(lp1640
S'remote_port'
p1641
asbag48
(g69
g50
NtRp1642
(dp1643
g53
(dp1644
g80
g81
ssg62
g1633
sg55
(lp1645
S':'
asbag48
(g69
g50
NtRp1646
(dp1647
g53
(dp1648
sg62
g1633
sg55
(lp1649
g48
(g49
g50
NtRp1650
(dp1651
g53
(dp1652
g61
I4
ssg62
g1646
sg55
(lp1653
S'50750'
p1654
asbasbasbag48
(g64
g50
NtRp1655
(dp1656
g53
(dp1657
sg62
g1082
sg55
(lp1658
g48
(g69
g50
NtRp1659
(dp1660
g53
(dp1661
g73
g74
ssg62
g1655
sg55
(lp1662
S'request_method'
p1663
asbag48
(g69
g50
NtRp1664
(dp1665
g53
(dp1666
g80
g81
ssg62
g1655
sg55
(lp1667
S':'
asbag48
(g69
g50
NtRp1668
(dp1669
g53
(dp1670
sg62
g1655
sg55
(lp1671
g48
(g49
g50
NtRp1672
(dp1673
g53
(dp1674
g61
I4
ssg62
g1668
sg55
(lp1675
S'POST'
p1676
asbasbasbag48
(g64
g50
NtRp1677
(dp1678
g53
(dp1679
sg62
g1082
sg55
(lp1680
g48
(g69
g50
NtRp1681
(dp1682
g53
(dp1683
g73
g74
ssg62
g1677
sg55
(lp1684
S'script_name'
p1685
asbag48
(g69
g50
NtRp1686
(dp1687
g53
(dp1688
g80
g81
ssg62
g1677
sg55
(lp1689
S':'
asbag48
(g69
g50
NtRp1690
(dp1691
g53
(dp1692
sg62
g1677
sg55
(lp1693
g48
(g49
g50
NtRp1694
(dp1695
g53
(dp1696
g61
I4
ssg62
g1690
sg55
(lp1697
S''
asbasbasbag48
(g64
g50
NtRp1698
(dp1699
g53
(dp1700
sg62
g1082
sg55
(lp1701
g48
(g69
g50
NtRp1702
(dp1703
g53
(dp1704
g73
g74
ssg62
g1698
sg55
(lp1705
S'server_name'
p1706
asbag48
(g69
g50
NtRp1707
(dp1708
g53
(dp1709
g80
g81
ssg62
g1698
sg55
(lp1710
S':'
asbag48
(g69
g50
NtRp1711
(dp1712
g53
(dp1713
sg62
g1698
sg55
(lp1714
g48
(g49
g50
NtRp1715
(dp1716
g53
(dp1717
g61
I4
ssg62
g1711
sg55
(lp1718
S'Swing'
p1719
asbasbasbag48
(g64
g50
NtRp1720
(dp1721
g53
(dp1722
sg62
g1082
sg55
(lp1723
g48
(g69
g50
NtRp1724
(dp1725
g53
(dp1726
g73
g74
ssg62
g1720
sg55
(lp1727
S'server_port'
p1728
asbag48
(g69
g50
NtRp1729
(dp1730
g53
(dp1731
g80
g81
ssg62
g1720
sg55
(lp1732
S':'
asbag48
(g69
g50
NtRp1733
(dp1734
g53
(dp1735
sg62
g1720
sg55
(lp1736
g48
(g49
g50
NtRp1737
(dp1738
g53
(dp1739
g61
I4
ssg62
g1733
sg55
(lp1740
S'8000'
p1741
asbasbasbag48
(g64
g50
NtRp1742
(dp1743
g53
(dp1744
sg62
g1082
sg55
(lp1745
g48
(g69
g50
NtRp1746
(dp1747
g53
(dp1748
g73
g74
ssg62
g1742
sg55
(lp1749
S'server_protocol'
p1750
asbag48
(g69
g50
NtRp1751
(dp1752
g53
(dp1753
g80
g81
ssg62
g1742
sg55
(lp1754
S':'
asbag48
(g69
g50
NtRp1755
(dp1756
g53
(dp1757
sg62
g1742
sg55
(lp1758
g48
(g49
g50
NtRp1759
(dp1760
g53
(dp1761
g61
I4
ssg62
g1755
sg55
(lp1762
S'HTTP/1.1'
p1763
asbasbasbag48
(g64
g50
NtRp1764
(dp1765
g53
(dp1766
sg62
g1082
sg55
(lp1767
g48
(g69
g50
NtRp1768
(dp1769
g53
(dp1770
g73
g74
ssg62
g1764
sg55
(lp1771
S'server_software'
p1772
asbag48
(g69
g50
NtRp1773
(dp1774
g53
(dp1775
g80
g81
ssg62
g1764
sg55
(lp1776
S':'
asbag48
(g69
g50
NtRp1777
(dp1778
g53
(dp1779
sg62
g1764
sg55
(lp1780
g48
(g49
g50
NtRp1781
(dp1782
g53
(dp1783
g61
I4
ssg62
g1777
sg55
(lp1784
S'Rocket 1.2.2'
p1785
asbasbasbag48
(g64
g50
NtRp1786
(dp1787
g53
(dp1788
sg62
g1082
sg55
(lp1789
g48
(g69
g50
NtRp1790
(dp1791
g53
(dp1792
g73
g74
ssg62
g1786
sg55
(lp1793
S'web2py_crontype'
p1794
asbag48
(g69
g50
NtRp1795
(dp1796
g53
(dp1797
g80
g81
ssg62
g1786
sg55
(lp1798
S':'
asbag48
(g69
g50
NtRp1799
(dp1800
g53
(dp1801
sg62
g1786
sg55
(lp1802
g48
(g49
g50
NtRp1803
(dp1804
g53
(dp1805
g61
I4
ssg62
g1799
sg55
(lp1806
S'hard'
p1807
asbasbasbag48
(g64
g50
NtRp1808
(dp1809
g53
(dp1810
sg62
g1082
sg55
(lp1811
g48
(g69
g50
NtRp1812
(dp1813
g53
(dp1814
g73
g74
ssg62
g1808
sg55
(lp1815
S'web2py_path'
p1816
asbag48
(g69
g50
NtRp1817
(dp1818
g53
(dp1819
g80
g81
ssg62
g1808
sg55
(lp1820
S':'
asbag48
(g69
g50
NtRp1821
(dp1822
g53
(dp1823
sg62
g1808
sg55
(lp1824
g48
(g49
g50
NtRp1825
(dp1826
g53
(dp1827
g61
I4
ssg62
g1821
sg55
(lp1828
g1129
asbasbasbag48
(g64
g50
NtRp1829
(dp1830
g53
(dp1831
sg62
g1082
sg55
(lp1832
g48
(g69
g50
NtRp1833
(dp1834
g53
(dp1835
g73
g74
ssg62
g1829
sg55
(lp1836
S'web2py_version'
p1837
asbag48
(g69
g50
NtRp1838
(dp1839
g53
(dp1840
g80
g81
ssg62
g1829
sg55
(lp1841
S':'
asbag48
(g69
g50
NtRp1842
(dp1843
g53
(dp1844
sg62
g1829
sg55
(lp1845
g48
(g49
g50
NtRp1846
(dp1847
g53
(dp1848
g61
I4
ssg62
g1842
sg55
(lp1849
S'Version 1.98.2 (2011-08-04 00:47:09)\n'
p1850
asbasbasbag48
(g64
g50
NtRp1851
(dp1852
g53
(dp1853
sg62
g1082
sg55
(lp1854
g48
(g69
g50
NtRp1855
(dp1856
g53
(dp1857
g73
g74
ssg62
g1851
sg55
(lp1858
S'wsgi_errors'
p1859
asbag48
(g69
g50
NtRp1860
(dp1861
g53
(dp1862
g80
g81
ssg62
g1851
sg55
(lp1863
S':'
asbag48
(g69
g50
NtRp1864
(dp1865
g53
(dp1866
sg62
g1851
sg55
(lp1867
g48
(g49
g50
NtRp1868
(dp1869
g53
(dp1870
g61
I4
ssg62
g1864
sg55
(lp1871
S"<open file '<stderr>', mode 'w' at 0x004200B0>"
p1872
asbasbasbag48
(g64
g50
NtRp1873
(dp1874
g53
(dp1875
sg62
g1082
sg55
(lp1876
g48
(g69
g50
NtRp1877
(dp1878
g53
(dp1879
g73
g74
ssg62
g1873
sg55
(lp1880
S'wsgi_file_wrapper'
p1881
asbag48
(g69
g50
NtRp1882
(dp1883
g53
(dp1884
g80
g81
ssg62
g1873
sg55
(lp1885
S':'
asbag48
(g69
g50
NtRp1886
(dp1887
g53
(dp1888
sg62
g1873
sg55
(lp1889
g48
(g49
g50
NtRp1890
(dp1891
g53
(dp1892
g61
I4
ssg62
g1886
sg55
(lp1893
S'<class gluon.rocket.FileWrapper at 0x031911B0>'
p1894
asbasbasbag48
(g64
g50
NtRp1895
(dp1896
g53
(dp1897
sg62
g1082
sg55
(lp1898
g48
(g69
g50
NtRp1899
(dp1900
g53
(dp1901
g73
g74
ssg62
g1895
sg55
(lp1902
S'wsgi_input'
p1903
asbag48
(g69
g50
NtRp1904
(dp1905
g53
(dp1906
g80
g81
ssg62
g1895
sg55
(lp1907
S':'
asbag48
(g69
g50
NtRp1908
(dp1909
g53
(dp1910
sg62
g1895
sg55
(lp1911
g48
(g49
g50
NtRp1912
(dp1913
g53
(dp1914
g61
I4
ssg62
g1908
sg55
(lp1915
S'<socket._fileobject object at 0x0809C330>'
p1916
asbasbasbag48
(g64
g50
NtRp1917
(dp1918
g53
(dp1919
sg62
g1082
sg55
(lp1920
g48
(g69
g50
NtRp1921
(dp1922
g53
(dp1923
g73
g74
ssg62
g1917
sg55
(lp1924
S'wsgi_multiprocess'
p1925
asbag48
(g69
g50
NtRp1926
(dp1927
g53
(dp1928
g80
g81
ssg62
g1917
sg55
(lp1929
S':'
asbag48
(g69
g50
NtRp1930
(dp1931
g53
(dp1932
sg62
g1917
sg55
(lp1933
g48
(g49
g50
NtRp1934
(dp1935
g53
(dp1936
g61
I4
ssg62
g1930
sg55
(lp1937
g91
asbasbasbag48
(g64
g50
NtRp1938
(dp1939
g53
(dp1940
sg62
g1082
sg55
(lp1941
g48
(g69
g50
NtRp1942
(dp1943
g53
(dp1944
g73
g74
ssg62
g1938
sg55
(lp1945
S'wsgi_multithread'
p1946
asbag48
(g69
g50
NtRp1947
(dp1948
g53
(dp1949
g80
g81
ssg62
g1938
sg55
(lp1950
S':'
asbag48
(g69
g50
NtRp1951
(dp1952
g53
(dp1953
sg62
g1938
sg55
(lp1954
g48
(g49
g50
NtRp1955
(dp1956
g53
(dp1957
g61
I4
ssg62
g1951
sg55
(lp1958
S'True'
p1959
asbasbasbag48
(g64
g50
NtRp1960
(dp1961
g53
(dp1962
sg62
g1082
sg55
(lp1963
g48
(g69
g50
NtRp1964
(dp1965
g53
(dp1966
g73
g74
ssg62
g1960
sg55
(lp1967
S'wsgi_run_once'
p1968
asbag48
(g69
g50
NtRp1969
(dp1970
g53
(dp1971
g80
g81
ssg62
g1960
sg55
(lp1972
S':'
asbag48
(g69
g50
NtRp1973
(dp1974
g53
(dp1975
sg62
g1960
sg55
(lp1976
g48
(g49
g50
NtRp1977
(dp1978
g53
(dp1979
g61
I4
ssg62
g1973
sg55
(lp1980
g91
asbasbasbag48
(g64
g50
NtRp1981
(dp1982
g53
(dp1983
sg62
g1082
sg55
(lp1984
g48
(g69
g50
NtRp1985
(dp1986
g53
(dp1987
g73
g74
ssg62
g1981
sg55
(lp1988
S'wsgi_url_scheme'
p1989
asbag48
(g69
g50
NtRp1990
(dp1991
g53
(dp1992
g80
g81
ssg62
g1981
sg55
(lp1993
S':'
asbag48
(g69
g50
NtRp1994
(dp1995
g53
(dp1996
sg62
g1981
sg55
(lp1997
g48
(g49
g50
NtRp1998
(dp1999
g53
(dp2000
g61
I4
ssg62
g1994
sg55
(lp2001
S'http'
p2002
asbasbasbag48
(g64
g50
NtRp2003
(dp2004
g53
(dp2005
sg62
g1082
sg55
(lp2006
g48
(g69
g50
NtRp2007
(dp2008
g53
(dp2009
g73
g74
ssg62
g2003
sg55
(lp2010
S'wsgi_version'
p2011
asbag48
(g69
g50
NtRp2012
(dp2013
g53
(dp2014
g80
g81
ssg62
g2003
sg55
(lp2015
S':'
asbag48
(g69
g50
NtRp2016
(dp2017
g53
(dp2018
sg62
g2003
sg55
(lp2019
g48
(g49
g50
NtRp2020
(dp2021
g53
(dp2022
g61
I4
ssg62
g2016
sg55
(lp2023
g48
(g57
g50
NtRp2024
(dp2025
g53
(dp2026
g61
I3
ssg62
Nsg55
(lp2027
g48
(g64
g50
NtRp2028
(dp2029
g53
(dp2030
sg62
g2024
sg55
(lp2031
g48
(g69
g50
NtRp2032
(dp2033
g53
(dp2034
sg62
g2028
sg55
(lp2035
g48
(g49
g50
NtRp2036
(dp2037
g53
(dp2038
g61
I3
ssg62
g2032
sg55
(lp2039
S'1'
asbasbasbag48
(g64
g50
NtRp2040
(dp2041
g53
(dp2042
sg62
g2024
sg55
(lp2043
g48
(g69
g50
NtRp2044
(dp2045
g53
(dp2046
sg62
g2040
sg55
(lp2047
g48
(g49
g50
NtRp2048
(dp2049
g53
(dp2050
g61
I3
ssg62
g2044
sg55
(lp2051
S'0'
asbasbasbasbasbasbasbasbasbasbasbag48
(g64
g50
NtRp2052
(dp2053
g53
(dp2054
sg62
g58
sg55
(lp2055
g48
(g69
g50
NtRp2056
(dp2057
g53
(dp2058
g73
g74
ssg62
g2052
sg55
(lp2059
S'extension'
p2060
asbag48
(g69
g50
NtRp2061
(dp2062
g53
(dp2063
g80
g81
ssg62
g2052
sg55
(lp2064
S':'
asbag48
(g69
g50
NtRp2065
(dp2066
g53
(dp2067
sg62
g2052
sg55
(lp2068
g48
(g49
g50
NtRp2069
(dp2070
g53
(dp2071
g61
I5
ssg62
g2065
sg55
(lp2072
S'html'
p2073
asbasbasbag48
(g64
g50
NtRp2074
(dp2075
g53
(dp2076
sg62
g58
sg55
(lp2077
g48
(g69
g50
NtRp2078
(dp2079
g53
(dp2080
g73
g74
ssg62
g2074
sg55
(lp2081
S'folder'
p2082
asbag48
(g69
g50
NtRp2083
(dp2084
g53
(dp2085
g80
g81
ssg62
g2074
sg55
(lp2086
S':'
asbag48
(g69
g50
NtRp2087
(dp2088
g53
(dp2089
sg62
g2074
sg55
(lp2090
g48
(g49
g50
NtRp2091
(dp2092
g53
(dp2093
g61
I5
ssg62
g2087
sg55
(lp2094
S'C:\\Users\\Atomico\\web2py\\applications\\Desglosar_Emails\\'
p2095
asbasbasbag48
(g64
g50
NtRp2096
(dp2097
g53
(dp2098
sg62
g58
sg55
(lp2099
g48
(g69
g50
NtRp2100
(dp2101
g53
(dp2102
g73
g74
ssg62
g2096
sg55
(lp2103
S'function'
p2104
asbag48
(g69
g50
NtRp2105
(dp2106
g53
(dp2107
g80
g81
ssg62
g2096
sg55
(lp2108
S':'
asbag48
(g69
g50
NtRp2109
(dp2110
g53
(dp2111
sg62
g2096
sg55
(lp2112
g48
(g49
g50
NtRp2113
(dp2114
g53
(dp2115
g61
I5
ssg62
g2109
sg55
(lp2116
S'relaciones'
p2117
asbasbasbag48
(g64
g50
NtRp2118
(dp2119
g53
(dp2120
sg62
g58
sg55
(lp2121
g48
(g69
g50
NtRp2122
(dp2123
g53
(dp2124
g73
g74
ssg62
g2118
sg55
(lp2125
S'get_vars'
p2126
asbag48
(g69
g50
NtRp2127
(dp2128
g53
(dp2129
g80
g81
ssg62
g2118
sg55
(lp2130
S':'
asbag48
(g69
g50
NtRp2131
(dp2132
g53
(dp2133
sg62
g2118
sg55
(lp2134
g48
(g49
g50
NtRp2135
(dp2136
g53
(dp2137
g61
I5
ssg62
g2131
sg55
(lp2138
g48
(g57
g50
NtRp2139
(dp2140
g53
(dp2141
g61
I4
ssg62
Nsg55
(lp2142
sbasbasbasbag48
(g64
g50
NtRp2143
(dp2144
g53
(dp2145
sg62
g58
sg55
(lp2146
g48
(g69
g50
NtRp2147
(dp2148
g53
(dp2149
g73
g74
ssg62
g2143
sg55
(lp2150
S'is_https'
p2151
asbag48
(g69
g50
NtRp2152
(dp2153
g53
(dp2154
g80
g81
ssg62
g2143
sg55
(lp2155
S':'
asbag48
(g69
g50
NtRp2156
(dp2157
g53
(dp2158
sg62
g2143
sg55
(lp2159
g48
(g49
g50
NtRp2160
(dp2161
g53
(dp2162
g61
I5
ssg62
g2156
sg55
(lp2163
g91
asbasbasbag48
(g64
g50
NtRp2164
(dp2165
g53
(dp2166
sg62
g58
sg55
(lp2167
g48
(g69
g50
NtRp2168
(dp2169
g53
(dp2170
g73
g74
ssg62
g2164
sg55
(lp2171
S'is_local'
p2172
asbag48
(g69
g50
NtRp2173
(dp2174
g53
(dp2175
g80
g81
ssg62
g2164
sg55
(lp2176
S':'
asbag48
(g69
g50
NtRp2177
(dp2178
g53
(dp2179
sg62
g2164
sg55
(lp2180
g48
(g49
g50
NtRp2181
(dp2182
g53
(dp2183
g61
I5
ssg62
g2177
sg55
(lp2184
g1959
asbasbasbag48
(g64
g50
NtRp2185
(dp2186
g53
(dp2187
sg62
g58
sg55
(lp2188
g48
(g69
g50
NtRp2189
(dp2190
g53
(dp2191
g73
g74
ssg62
g2185
sg55
(lp2192
S'is_restful'
p2193
asbag48
(g69
g50
NtRp2194
(dp2195
g53
(dp2196
g80
g81
ssg62
g2185
sg55
(lp2197
S':'
asbag48
(g69
g50
NtRp2198
(dp2199
g53
(dp2200
sg62
g2185
sg55
(lp2201
g48
(g49
g50
NtRp2202
(dp2203
g53
(dp2204
g61
I5
ssg62
g2198
sg55
(lp2205
g91
asbasbasbag48
(g64
g50
NtRp2206
(dp2207
g53
(dp2208
sg62
g58
sg55
(lp2209
g48
(g69
g50
NtRp2210
(dp2211
g53
(dp2212
g73
g74
ssg62
g2206
sg55
(lp2213
S'now'
p2214
asbag48
(g69
g50
NtRp2215
(dp2216
g53
(dp2217
g80
g81
ssg62
g2206
sg55
(lp2218
S':'
asbag48
(g69
g50
NtRp2219
(dp2220
g53
(dp2221
sg62
g2206
sg55
(lp2222
g48
(g49
g50
NtRp2223
(dp2224
g53
(dp2225
g61
I5
ssg62
g2219
sg55
(lp2226
S'datetime.datetime(2011, 9, 20, 13, 59, 47, 776000)'
p2227
asbasbasbag48
(g64
g50
NtRp2228
(dp2229
g53
(dp2230
sg62
g58
sg55
(lp2231
g48
(g69
g50
NtRp2232
(dp2233
g53
(dp2234
g73
g74
ssg62
g2228
sg55
(lp2235
S'post_vars'
p2236
asbag48
(g69
g50
NtRp2237
(dp2238
g53
(dp2239
g80
g81
ssg62
g2228
sg55
(lp2240
S':'
asbag48
(g69
g50
NtRp2241
(dp2242
g53
(dp2243
sg62
g2228
sg55
(lp2244
g48
(g49
g50
NtRp2245
(dp2246
g53
(dp2247
g61
I5
ssg62
g2241
sg55
(lp2248
g48
(g57
g50
NtRp2249
(dp2250
g53
(dp2251
g61
I4
ssg62
Nsg55
(lp2252
g48
(g64
g50
NtRp2253
(dp2254
g53
(dp2255
sg62
g2249
sg55
(lp2256
g48
(g69
g50
NtRp2257
(dp2258
g53
(dp2259
g73
g74
ssg62
g2253
sg55
(lp2260
S'argumentos'
p2261
asbag48
(g69
g50
NtRp2262
(dp2263
g53
(dp2264
g80
g81
ssg62
g2253
sg55
(lp2265
S':'
asbag48
(g69
g50
NtRp2266
(dp2267
g53
(dp2268
sg62
g2253
sg55
(lp2269
g48
(g49
g50
NtRp2270
(dp2271
g53
(dp2272
g61
I4
ssg62
g2266
sg55
(lp2273
S''
asbasbasbasbasbasbasbag48
(g64
g50
NtRp2274
(dp2275
g53
(dp2276
sg62
g58
sg55
(lp2277
g48
(g69
g50
NtRp2278
(dp2279
g53
(dp2280
g73
g74
ssg62
g2274
sg55
(lp2281
S'url'
p2282
asbag48
(g69
g50
NtRp2283
(dp2284
g53
(dp2285
g80
g81
ssg62
g2274
sg55
(lp2286
S':'
asbag48
(g69
g50
NtRp2287
(dp2288
g53
(dp2289
sg62
g2274
sg55
(lp2290
g48
(g49
g50
NtRp2291
(dp2292
g53
(dp2293
g61
I5
ssg62
g2287
sg55
(lp2294
S'/Desglosar_Emails/default/relaciones'
p2295
asbasbasbag48
(g64
g50
NtRp2296
(dp2297
g53
(dp2298
sg62
g58
sg55
(lp2299
g48
(g69
g50
NtRp2300
(dp2301
g53
(dp2302
g73
g74
ssg62
g2296
sg55
(lp2303
S'uuid'
p2304
asbag48
(g69
g50
NtRp2305
(dp2306
g53
(dp2307
g80
g81
ssg62
g2296
sg55
(lp2308
S':'
asbag48
(g69
g50
NtRp2309
(dp2310
g53
(dp2311
sg62
g2296
sg55
(lp2312
g48
(g49
g50
NtRp2313
(dp2314
g53
(dp2315
g61
I5
ssg62
g2309
sg55
(lp2316
S'Desglosar_Emails/127.0.0.1.2011-09-20.13-59-47.d128a26b-0e54-4d70-a4d9-987b81060a21'
p2317
asbasbasbag48
(g64
g50
NtRp2318
(dp2319
g53
(dp2320
sg62
g58
sg55
(lp2321
g48
(g69
g50
NtRp2322
(dp2323
g53
(dp2324
g73
g74
ssg62
g2318
sg55
(lp2325
S'vars'
p2326
asbag48
(g69
g50
NtRp2327
(dp2328
g53
(dp2329
g80
g81
ssg62
g2318
sg55
(lp2330
S':'
asbag48
(g69
g50
NtRp2331
(dp2332
g53
(dp2333
sg62
g2318
sg55
(lp2334
g48
(g49
g50
NtRp2335
(dp2336
g53
(dp2337
g61
I5
ssg62
g2331
sg55
(lp2338
g48
(g57
g50
NtRp2339
(dp2340
g53
(dp2341
g61
I4
ssg62
Nsg55
(lp2342
g48
(g64
g50
NtRp2343
(dp2344
g53
(dp2345
sg62
g2339
sg55
(lp2346
g48
(g69
g50
NtRp2347
(dp2348
g53
(dp2349
g73
g74
ssg62
g2343
sg55
(lp2350
g2261
asbag48
(g69
g50
NtRp2351
(dp2352
g53
(dp2353
g80
g81
ssg62
g2343
sg55
(lp2354
S':'
asbag48
(g69
g50
NtRp2355
(dp2356
g53
(dp2357
sg62
g2343
sg55
(lp2358
g48
(g49
g50
NtRp2359
(dp2360
g53
(dp2361
g61
I4
ssg62
g2355
sg55
(lp2362
S''
asbasbasbasbasbasbasbag48
(g64
g50
NtRp2363
(dp2364
g53
(dp2365
sg62
g58
sg55
(lp2366
g48
(g69
g50
NtRp2367
(dp2368
g53
(dp2369
g73
g74
ssg62
g2363
sg55
(lp2370
S'wsgi'
p2371
asbag48
(g69
g50
NtRp2372
(dp2373
g53
(dp2374
g80
g81
ssg62
g2363
sg55
(lp2375
S':'
asbag48
(g69
g50
NtRp2376
(dp2377
g53
(dp2378
sg62
g2363
sg55
(lp2379
g48
(g49
g50
NtRp2380
(dp2381
g53
(dp2382
g61
I5
ssg62
g2376
sg55
(lp2383
g48
(g57
g50
NtRp2384
(dp2385
g53
(dp2386
g61
I4
ssg62
Nsg55
(lp2387
g48
(g64
g50
NtRp2388
(dp2389
g53
(dp2390
sg62
g2384
sg55
(lp2391
g48
(g69
g50
NtRp2392
(dp2393
g53
(dp2394
g73
g74
ssg62
g2388
sg55
(lp2395
S'environ'
p2396
asbag48
(g69
g50
NtRp2397
(dp2398
g53
(dp2399
g80
g81
ssg62
g2388
sg55
(lp2400
S':'
asbag48
(g69
g50
NtRp2401
(dp2402
g53
(dp2403
sg62
g2388
sg55
(lp2404
g48
(g49
g50
NtRp2405
(dp2406
g53
(dp2407
g61
I4
ssg62
g2401
sg55
(lp2408
g48
(g57
g50
NtRp2409
(dp2410
g53
(dp2411
g61
I3
ssg62
Nsg55
(lp2412
g48
(g64
g50
NtRp2413
(dp2414
g53
(dp2415
sg62
g2409
sg55
(lp2416
g48
(g69
g50
NtRp2417
(dp2418
g53
(dp2419
g73
g74
ssg62
g2413
sg55
(lp2420
S'CONTENT_LENGTH'
p2421
asbag48
(g69
g50
NtRp2422
(dp2423
g53
(dp2424
g80
g81
ssg62
g2413
sg55
(lp2425
S':'
asbag48
(g69
g50
NtRp2426
(dp2427
g53
(dp2428
sg62
g2413
sg55
(lp2429
g48
(g49
g50
NtRp2430
(dp2431
g53
(dp2432
g61
I3
ssg62
g2426
sg55
(lp2433
g1198
asbasbasbag48
(g64
g50
NtRp2434
(dp2435
g53
(dp2436
sg62
g2409
sg55
(lp2437
g48
(g69
g50
NtRp2438
(dp2439
g53
(dp2440
g73
g74
ssg62
g2434
sg55
(lp2441
S'CONTENT_TYPE'
p2442
asbag48
(g69
g50
NtRp2443
(dp2444
g53
(dp2445
g80
g81
ssg62
g2434
sg55
(lp2446
S':'
asbag48
(g69
g50
NtRp2447
(dp2448
g53
(dp2449
sg62
g2434
sg55
(lp2450
g48
(g49
g50
NtRp2451
(dp2452
g53
(dp2453
g61
I3
ssg62
g2447
sg55
(lp2454
g1220
asbasbasbag48
(g64
g50
NtRp2455
(dp2456
g53
(dp2457
sg62
g2409
sg55
(lp2458
g48
(g69
g50
NtRp2459
(dp2460
g53
(dp2461
g73
g74
ssg62
g2455
sg55
(lp2462
S'HTTP_ACCEPT'
p2463
asbag48
(g69
g50
NtRp2464
(dp2465
g53
(dp2466
g80
g81
ssg62
g2455
sg55
(lp2467
S':'
asbag48
(g69
g50
NtRp2468
(dp2469
g53
(dp2470
sg62
g2455
sg55
(lp2471
g48
(g49
g50
NtRp2472
(dp2473
g53
(dp2474
g61
I3
ssg62
g2468
sg55
(lp2475
g1307
asbasbasbag48
(g64
g50
NtRp2476
(dp2477
g53
(dp2478
sg62
g2409
sg55
(lp2479
g48
(g69
g50
NtRp2480
(dp2481
g53
(dp2482
g73
g74
ssg62
g2476
sg55
(lp2483
S'HTTP_ACCEPT_CHARSET'
p2484
asbag48
(g69
g50
NtRp2485
(dp2486
g53
(dp2487
g80
g81
ssg62
g2476
sg55
(lp2488
S':'
asbag48
(g69
g50
NtRp2489
(dp2490
g53
(dp2491
sg62
g2476
sg55
(lp2492
g48
(g49
g50
NtRp2493
(dp2494
g53
(dp2495
g61
I3
ssg62
g2489
sg55
(lp2496
g1329
asbasbasbag48
(g64
g50
NtRp2497
(dp2498
g53
(dp2499
sg62
g2409
sg55
(lp2500
g48
(g69
g50
NtRp2501
(dp2502
g53
(dp2503
g73
g74
ssg62
g2497
sg55
(lp2504
S'HTTP_ACCEPT_ENCODING'
p2505
asbag48
(g69
g50
NtRp2506
(dp2507
g53
(dp2508
g80
g81
ssg62
g2497
sg55
(lp2509
S':'
asbag48
(g69
g50
NtRp2510
(dp2511
g53
(dp2512
sg62
g2497
sg55
(lp2513
g48
(g49
g50
NtRp2514
(dp2515
g53
(dp2516
g61
I3
ssg62
g2510
sg55
(lp2517
g1351
asbasbasbag48
(g64
g50
NtRp2518
(dp2519
g53
(dp2520
sg62
g2409
sg55
(lp2521
g48
(g69
g50
NtRp2522
(dp2523
g53
(dp2524
g73
g74
ssg62
g2518
sg55
(lp2525
S'HTTP_ACCEPT_LANGUAGE'
p2526
asbag48
(g69
g50
NtRp2527
(dp2528
g53
(dp2529
g80
g81
ssg62
g2518
sg55
(lp2530
S':'
asbag48
(g69
g50
NtRp2531
(dp2532
g53
(dp2533
sg62
g2518
sg55
(lp2534
g48
(g49
g50
NtRp2535
(dp2536
g53
(dp2537
g61
I3
ssg62
g2531
sg55
(lp2538
g1373
asbasbasbag48
(g64
g50
NtRp2539
(dp2540
g53
(dp2541
sg62
g2409
sg55
(lp2542
g48
(g69
g50
NtRp2543
(dp2544
g53
(dp2545
g73
g74
ssg62
g2539
sg55
(lp2546
S'HTTP_CACHE_CONTROL'
p2547
asbag48
(g69
g50
NtRp2548
(dp2549
g53
(dp2550
g80
g81
ssg62
g2539
sg55
(lp2551
S':'
asbag48
(g69
g50
NtRp2552
(dp2553
g53
(dp2554
sg62
g2539
sg55
(lp2555
g48
(g49
g50
NtRp2556
(dp2557
g53
(dp2558
g61
I3
ssg62
g2552
sg55
(lp2559
g1395
asbasbasbag48
(g64
g50
NtRp2560
(dp2561
g53
(dp2562
sg62
g2409
sg55
(lp2563
g48
(g69
g50
NtRp2564
(dp2565
g53
(dp2566
g73
g74
ssg62
g2560
sg55
(lp2567
S'HTTP_CONNECTION'
p2568
asbag48
(g69
g50
NtRp2569
(dp2570
g53
(dp2571
g80
g81
ssg62
g2560
sg55
(lp2572
S':'
asbag48
(g69
g50
NtRp2573
(dp2574
g53
(dp2575
sg62
g2560
sg55
(lp2576
g48
(g49
g50
NtRp2577
(dp2578
g53
(dp2579
g61
I3
ssg62
g2573
sg55
(lp2580
g1417
asbasbasbag48
(g64
g50
NtRp2581
(dp2582
g53
(dp2583
sg62
g2409
sg55
(lp2584
g48
(g69
g50
NtRp2585
(dp2586
g53
(dp2587
g73
g74
ssg62
g2581
sg55
(lp2588
S'HTTP_CONTENT_LENGTH'
p2589
asbag48
(g69
g50
NtRp2590
(dp2591
g53
(dp2592
g80
g81
ssg62
g2581
sg55
(lp2593
S':'
asbag48
(g69
g50
NtRp2594
(dp2595
g53
(dp2596
sg62
g2581
sg55
(lp2597
g48
(g49
g50
NtRp2598
(dp2599
g53
(dp2600
g61
I3
ssg62
g2594
sg55
(lp2601
g1198
asbasbasbag48
(g64
g50
NtRp2602
(dp2603
g53
(dp2604
sg62
g2409
sg55
(lp2605
g48
(g69
g50
NtRp2606
(dp2607
g53
(dp2608
g73
g74
ssg62
g2602
sg55
(lp2609
S'HTTP_CONTENT_TYPE'
p2610
asbag48
(g69
g50
NtRp2611
(dp2612
g53
(dp2613
g80
g81
ssg62
g2602
sg55
(lp2614
S':'
asbag48
(g69
g50
NtRp2615
(dp2616
g53
(dp2617
sg62
g2602
sg55
(lp2618
g48
(g49
g50
NtRp2619
(dp2620
g53
(dp2621
g61
I3
ssg62
g2615
sg55
(lp2622
g1220
asbasbasbag48
(g64
g50
NtRp2623
(dp2624
g53
(dp2625
sg62
g2409
sg55
(lp2626
g48
(g69
g50
NtRp2627
(dp2628
g53
(dp2629
g73
g74
ssg62
g2623
sg55
(lp2630
S'HTTP_COOKIE'
p2631
asbag48
(g69
g50
NtRp2632
(dp2633
g53
(dp2634
g80
g81
ssg62
g2623
sg55
(lp2635
S':'
asbag48
(g69
g50
NtRp2636
(dp2637
g53
(dp2638
sg62
g2623
sg55
(lp2639
g48
(g49
g50
NtRp2640
(dp2641
g53
(dp2642
g61
I3
ssg62
g2636
sg55
(lp2643
g1481
asbasbasbag48
(g64
g50
NtRp2644
(dp2645
g53
(dp2646
sg62
g2409
sg55
(lp2647
g48
(g69
g50
NtRp2648
(dp2649
g53
(dp2650
g73
g74
ssg62
g2644
sg55
(lp2651
S'HTTP_HOST'
p2652
asbag48
(g69
g50
NtRp2653
(dp2654
g53
(dp2655
g80
g81
ssg62
g2644
sg55
(lp2656
S':'
asbag48
(g69
g50
NtRp2657
(dp2658
g53
(dp2659
sg62
g2644
sg55
(lp2660
g48
(g49
g50
NtRp2661
(dp2662
g53
(dp2663
g61
I3
ssg62
g2657
sg55
(lp2664
g1503
asbasbasbag48
(g64
g50
NtRp2665
(dp2666
g53
(dp2667
sg62
g2409
sg55
(lp2668
g48
(g69
g50
NtRp2669
(dp2670
g53
(dp2671
g73
g74
ssg62
g2665
sg55
(lp2672
S'HTTP_REFERER'
p2673
asbag48
(g69
g50
NtRp2674
(dp2675
g53
(dp2676
g80
g81
ssg62
g2665
sg55
(lp2677
S':'
asbag48
(g69
g50
NtRp2678
(dp2679
g53
(dp2680
sg62
g2665
sg55
(lp2681
g48
(g49
g50
NtRp2682
(dp2683
g53
(dp2684
g61
I3
ssg62
g2678
sg55
(lp2685
g1525
asbasbasbag48
(g64
g50
NtRp2686
(dp2687
g53
(dp2688
sg62
g2409
sg55
(lp2689
g48
(g69
g50
NtRp2690
(dp2691
g53
(dp2692
g73
g74
ssg62
g2686
sg55
(lp2693
S'HTTP_USER_AGENT'
p2694
asbag48
(g69
g50
NtRp2695
(dp2696
g53
(dp2697
g80
g81
ssg62
g2686
sg55
(lp2698
S':'
asbag48
(g69
g50
NtRp2699
(dp2700
g53
(dp2701
sg62
g2686
sg55
(lp2702
g48
(g49
g50
NtRp2703
(dp2704
g53
(dp2705
g61
I3
ssg62
g2699
sg55
(lp2706
g1547
asbasbasbag48
(g64
g50
NtRp2707
(dp2708
g53
(dp2709
sg62
g2409
sg55
(lp2710
g48
(g69
g50
NtRp2711
(dp2712
g53
(dp2713
g73
g74
ssg62
g2707
sg55
(lp2714
S'PATH_INFO'
p2715
asbag48
(g69
g50
NtRp2716
(dp2717
g53
(dp2718
g80
g81
ssg62
g2707
sg55
(lp2719
S':'
asbag48
(g69
g50
NtRp2720
(dp2721
g53
(dp2722
sg62
g2707
sg55
(lp2723
g48
(g49
g50
NtRp2724
(dp2725
g53
(dp2726
g61
I3
ssg62
g2720
sg55
(lp2727
g1590
asbasbasbag48
(g64
g50
NtRp2728
(dp2729
g53
(dp2730
sg62
g2409
sg55
(lp2731
g48
(g69
g50
NtRp2732
(dp2733
g53
(dp2734
g73
g74
ssg62
g2728
sg55
(lp2735
S'QUERY_STRING'
p2736
asbag48
(g69
g50
NtRp2737
(dp2738
g53
(dp2739
g80
g81
ssg62
g2728
sg55
(lp2740
S':'
asbag48
(g69
g50
NtRp2741
(dp2742
g53
(dp2743
sg62
g2728
sg55
(lp2744
g48
(g49
g50
NtRp2745
(dp2746
g53
(dp2747
g61
I3
ssg62
g2741
sg55
(lp2748
S''
asbasbasbag48
(g64
g50
NtRp2749
(dp2750
g53
(dp2751
sg62
g2409
sg55
(lp2752
g48
(g69
g50
NtRp2753
(dp2754
g53
(dp2755
g73
g74
ssg62
g2749
sg55
(lp2756
S'REMOTE_ADDR'
p2757
asbag48
(g69
g50
NtRp2758
(dp2759
g53
(dp2760
g80
g81
ssg62
g2749
sg55
(lp2761
S':'
asbag48
(g69
g50
NtRp2762
(dp2763
g53
(dp2764
sg62
g2749
sg55
(lp2765
g48
(g49
g50
NtRp2766
(dp2767
g53
(dp2768
g61
I3
ssg62
g2762
sg55
(lp2769
g181
asbasbasbag48
(g64
g50
NtRp2770
(dp2771
g53
(dp2772
sg62
g2409
sg55
(lp2773
g48
(g69
g50
NtRp2774
(dp2775
g53
(dp2776
g73
g74
ssg62
g2770
sg55
(lp2777
S'REMOTE_PORT'
p2778
asbag48
(g69
g50
NtRp2779
(dp2780
g53
(dp2781
g80
g81
ssg62
g2770
sg55
(lp2782
S':'
asbag48
(g69
g50
NtRp2783
(dp2784
g53
(dp2785
sg62
g2770
sg55
(lp2786
g48
(g49
g50
NtRp2787
(dp2788
g53
(dp2789
g61
I3
ssg62
g2783
sg55
(lp2790
g1654
asbasbasbag48
(g64
g50
NtRp2791
(dp2792
g53
(dp2793
sg62
g2409
sg55
(lp2794
g48
(g69
g50
NtRp2795
(dp2796
g53
(dp2797
g73
g74
ssg62
g2791
sg55
(lp2798
S'REQUEST_METHOD'
p2799
asbag48
(g69
g50
NtRp2800
(dp2801
g53
(dp2802
g80
g81
ssg62
g2791
sg55
(lp2803
S':'
asbag48
(g69
g50
NtRp2804
(dp2805
g53
(dp2806
sg62
g2791
sg55
(lp2807
g48
(g49
g50
NtRp2808
(dp2809
g53
(dp2810
g61
I3
ssg62
g2804
sg55
(lp2811
g1676
asbasbasbag48
(g64
g50
NtRp2812
(dp2813
g53
(dp2814
sg62
g2409
sg55
(lp2815
g48
(g69
g50
NtRp2816
(dp2817
g53
(dp2818
g73
g74
ssg62
g2812
sg55
(lp2819
S'SCRIPT_NAME'
p2820
asbag48
(g69
g50
NtRp2821
(dp2822
g53
(dp2823
g80
g81
ssg62
g2812
sg55
(lp2824
S':'
asbag48
(g69
g50
NtRp2825
(dp2826
g53
(dp2827
sg62
g2812
sg55
(lp2828
g48
(g49
g50
NtRp2829
(dp2830
g53
(dp2831
g61
I3
ssg62
g2825
sg55
(lp2832
S''
asbasbasbag48
(g64
g50
NtRp2833
(dp2834
g53
(dp2835
sg62
g2409
sg55
(lp2836
g48
(g69
g50
NtRp2837
(dp2838
g53
(dp2839
g73
g74
ssg62
g2833
sg55
(lp2840
S'SERVER_NAME'
p2841
asbag48
(g69
g50
NtRp2842
(dp2843
g53
(dp2844
g80
g81
ssg62
g2833
sg55
(lp2845
S':'
asbag48
(g69
g50
NtRp2846
(dp2847
g53
(dp2848
sg62
g2833
sg55
(lp2849
g48
(g49
g50
NtRp2850
(dp2851
g53
(dp2852
g61
I3
ssg62
g2846
sg55
(lp2853
g1719
asbasbasbag48
(g64
g50
NtRp2854
(dp2855
g53
(dp2856
sg62
g2409
sg55
(lp2857
g48
(g69
g50
NtRp2858
(dp2859
g53
(dp2860
g73
g74
ssg62
g2854
sg55
(lp2861
S'SERVER_PORT'
p2862
asbag48
(g69
g50
NtRp2863
(dp2864
g53
(dp2865
g80
g81
ssg62
g2854
sg55
(lp2866
S':'
asbag48
(g69
g50
NtRp2867
(dp2868
g53
(dp2869
sg62
g2854
sg55
(lp2870
g48
(g49
g50
NtRp2871
(dp2872
g53
(dp2873
g61
I3
ssg62
g2867
sg55
(lp2874
g1741
asbasbasbag48
(g64
g50
NtRp2875
(dp2876
g53
(dp2877
sg62
g2409
sg55
(lp2878
g48
(g69
g50
NtRp2879
(dp2880
g53
(dp2881
g73
g74
ssg62
g2875
sg55
(lp2882
S'SERVER_PROTOCOL'
p2883
asbag48
(g69
g50
NtRp2884
(dp2885
g53
(dp2886
g80
g81
ssg62
g2875
sg55
(lp2887
S':'
asbag48
(g69
g50
NtRp2888
(dp2889
g53
(dp2890
sg62
g2875
sg55
(lp2891
g48
(g49
g50
NtRp2892
(dp2893
g53
(dp2894
g61
I3
ssg62
g2888
sg55
(lp2895
g1763
asbasbasbag48
(g64
g50
NtRp2896
(dp2897
g53
(dp2898
sg62
g2409
sg55
(lp2899
g48
(g69
g50
NtRp2900
(dp2901
g53
(dp2902
g73
g74
ssg62
g2896
sg55
(lp2903
S'SERVER_SOFTWARE'
p2904
asbag48
(g69
g50
NtRp2905
(dp2906
g53
(dp2907
g80
g81
ssg62
g2896
sg55
(lp2908
S':'
asbag48
(g69
g50
NtRp2909
(dp2910
g53
(dp2911
sg62
g2896
sg55
(lp2912
g48
(g49
g50
NtRp2913
(dp2914
g53
(dp2915
g61
I3
ssg62
g2909
sg55
(lp2916
g1785
asbasbasbag48
(g64
g50
NtRp2917
(dp2918
g53
(dp2919
sg62
g2409
sg55
(lp2920
g48
(g69
g50
NtRp2921
(dp2922
g53
(dp2923
g73
g74
ssg62
g2917
sg55
(lp2924
S'wsgi.errors'
p2925
asbag48
(g69
g50
NtRp2926
(dp2927
g53
(dp2928
g80
g81
ssg62
g2917
sg55
(lp2929
S':'
asbag48
(g69
g50
NtRp2930
(dp2931
g53
(dp2932
sg62
g2917
sg55
(lp2933
g48
(g49
g50
NtRp2934
(dp2935
g53
(dp2936
g61
I3
ssg62
g2930
sg55
(lp2937
S"<open file '<stderr>', mode 'w' at 0x004200B0>"
p2938
asbasbasbag48
(g64
g50
NtRp2939
(dp2940
g53
(dp2941
sg62
g2409
sg55
(lp2942
g48
(g69
g50
NtRp2943
(dp2944
g53
(dp2945
g73
g74
ssg62
g2939
sg55
(lp2946
S'wsgi.file_wrapper'
p2947
asbag48
(g69
g50
NtRp2948
(dp2949
g53
(dp2950
g80
g81
ssg62
g2939
sg55
(lp2951
S':'
asbag48
(g69
g50
NtRp2952
(dp2953
g53
(dp2954
sg62
g2939
sg55
(lp2955
g48
(g49
g50
NtRp2956
(dp2957
g53
(dp2958
g61
I3
ssg62
g2952
sg55
(lp2959
S'<class gluon.rocket.FileWrapper at 0x031911B0>'
p2960
asbasbasbag48
(g64
g50
NtRp2961
(dp2962
g53
(dp2963
sg62
g2409
sg55
(lp2964
g48
(g69
g50
NtRp2965
(dp2966
g53
(dp2967
g73
g74
ssg62
g2961
sg55
(lp2968
S'wsgi.input'
p2969
asbag48
(g69
g50
NtRp2970
(dp2971
g53
(dp2972
g80
g81
ssg62
g2961
sg55
(lp2973
S':'
asbag48
(g69
g50
NtRp2974
(dp2975
g53
(dp2976
sg62
g2961
sg55
(lp2977
g48
(g49
g50
NtRp2978
(dp2979
g53
(dp2980
g61
I3
ssg62
g2974
sg55
(lp2981
S"<open file '<fdopen>', mode 'w+b' at 0x07E94DE8>"
p2982
asbasbasbag48
(g64
g50
NtRp2983
(dp2984
g53
(dp2985
sg62
g2409
sg55
(lp2986
g48
(g69
g50
NtRp2987
(dp2988
g53
(dp2989
g73
g74
ssg62
g2983
sg55
(lp2990
S'wsgi.multiprocess'
p2991
asbag48
(g69
g50
NtRp2992
(dp2993
g53
(dp2994
g80
g81
ssg62
g2983
sg55
(lp2995
S':'
asbag48
(g69
g50
NtRp2996
(dp2997
g53
(dp2998
sg62
g2983
sg55
(lp2999
g48
(g49
g50
NtRp3000
(dp3001
g53
(dp3002
g61
I3
ssg62
g2996
sg55
(lp3003
g91
asbasbasbag48
(g64
g50
NtRp3004
(dp3005
g53
(dp3006
sg62
g2409
sg55
(lp3007
g48
(g69
g50
NtRp3008
(dp3009
g53
(dp3010
g73
g74
ssg62
g3004
sg55
(lp3011
S'wsgi.multithread'
p3012
asbag48
(g69
g50
NtRp3013
(dp3014
g53
(dp3015
g80
g81
ssg62
g3004
sg55
(lp3016
S':'
asbag48
(g69
g50
NtRp3017
(dp3018
g53
(dp3019
sg62
g3004
sg55
(lp3020
g48
(g49
g50
NtRp3021
(dp3022
g53
(dp3023
g61
I3
ssg62
g3017
sg55
(lp3024
g1959
asbasbasbag48
(g64
g50
NtRp3025
(dp3026
g53
(dp3027
sg62
g2409
sg55
(lp3028
g48
(g69
g50
NtRp3029
(dp3030
g53
(dp3031
g73
g74
ssg62
g3025
sg55
(lp3032
S'wsgi.run_once'
p3033
asbag48
(g69
g50
NtRp3034
(dp3035
g53
(dp3036
g80
g81
ssg62
g3025
sg55
(lp3037
S':'
asbag48
(g69
g50
NtRp3038
(dp3039
g53
(dp3040
sg62
g3025
sg55
(lp3041
g48
(g49
g50
NtRp3042
(dp3043
g53
(dp3044
g61
I3
ssg62
g3038
sg55
(lp3045
g91
asbasbasbag48
(g64
g50
NtRp3046
(dp3047
g53
(dp3048
sg62
g2409
sg55
(lp3049
g48
(g69
g50
NtRp3050
(dp3051
g53
(dp3052
g73
g74
ssg62
g3046
sg55
(lp3053
S'wsgi.url_scheme'
p3054
asbag48
(g69
g50
NtRp3055
(dp3056
g53
(dp3057
g80
g81
ssg62
g3046
sg55
(lp3058
S':'
asbag48
(g69
g50
NtRp3059
(dp3060
g53
(dp3061
sg62
g3046
sg55
(lp3062
g48
(g49
g50
NtRp3063
(dp3064
g53
(dp3065
g61
I3
ssg62
g3059
sg55
(lp3066
g2002
asbasbasbag48
(g64
g50
NtRp3067
(dp3068
g53
(dp3069
sg62
g2409
sg55
(lp3070
g48
(g69
g50
NtRp3071
(dp3072
g53
(dp3073
g73
g74
ssg62
g3067
sg55
(lp3074
S'wsgi.version'
p3075
asbag48
(g69
g50
NtRp3076
(dp3077
g53
(dp3078
g80
g81
ssg62
g3067
sg55
(lp3079
S':'
asbag48
(g69
g50
NtRp3080
(dp3081
g53
(dp3082
sg62
g3067
sg55
(lp3083
g48
(g49
g50
NtRp3084
(dp3085
g53
(dp3086
g61
I3
ssg62
g3080
sg55
(lp3087
S'1'
asbasbasbasbasbasbasbasbasbasbasbasbasbsS'frames'
p3088
(lp3089
(dp3090
S'file'
p3091
S'C:\\Users\\Atomico\\web2py\\gluon\\restricted.py'
p3092
sS'dump'
p3093
(dp3094
sS'lnum'
p3095
I192
sS'lines'
p3096
(dp3097
sS'call'
p3098
S'(code=\'response.write(\\\'<!DOCTYPE html>\\\\n<html lang="\\\', ...t   -->    \\\\n  </body>\\\\n</html>\\\\n\\\', escape=False)\', environment={\'A\': <class \'gluon.html.A\'>, \'B\': <class \'gluon.html.B\'>, \'BEAUTIFY\': <class \'gluon.html.BEAUTIFY\'>, \'BODY\': <class \'gluon.html.BODY\'>, \'BR\': <class \'gluon.html.BR\'>, \'BUTTON\': <class \'gluon.html.BUTTON\'>, \'CAT\': <class \'gluon.html.CAT\'>, \'CENTER\': <class \'gluon.html.CENTER\'>, \'CLEANUP\': <class \'gluon.validators.CLEANUP\'>, \'CODE\': <class \'gluon.html.CODE\'>, ...}, layer=r\'C:\\Users\\Atomico\\web2py\\applications\\Desglosar_Emails\\views\\default/relaciones.html\')'
p3099
sS'func'
p3100
S'restricted'
p3101
sa(dp3102
g3091
S'C:\\Users\\Atomico\\web2py\\applications\\Desglosar_Emails\\views\\default\\relaciones.html'
p3103
sg3093
(dp3104
sg3095
I110
sg3096
(dp3105
I101
S'response.write(cad)'
p3106
sI102
S"response.write('</h2>\\r\\nFormulario de Argumentos: ', escape=False)"
p3107
sI103
S'response.write(form)'
p3108
sI104
S"response.write('\\r\\n<br/>Formulario de Texto: ', escape=False)"
p3109
sI105
S'response.write(form2)'
p3110
sI106
S"response.write('\\r\\n\\r\\n', escape=False)"
p3111
sI107
S'import re'
p3112
sI108
S'p=re.compile("\\w")'
p3113
sI109
S"txt='mi perro tiene rabo'"
p3114
sI110
S'r=p.findall(texto)'
p3115
sI111
S"for i in r: response.write(i+'<br>',escape=False)"
p3116
sI112
S"response.write('Y ahora m\\xc3\\xa1s:<br/>\\r\\n', escape=False)"
p3117
sI113
S'response.write(r)'
p3118
sI114
S"response.write('\\r\\n', escape=False)"
p3119
sI115
S"response.write('\\t\\n\\t  </div>\\n\\t  <!-- content -->\\n\\n\\t  ', escape=False)"
p3120
sI116
S'if right_sidebar_enabled:'
p3121
sI117
S'    response.write(\'\\n          <div id="right_sidebar" \', escape=False)'
p3122
sI118
S'    response.write(XML(right_sidebar_style))'
p3123
sI119
S'    response.write(\' >\\n            <div style="padding: 4px;">\\n              \', escape=False)'
p3124
sI120
S"    response.write('Content Right Sidebar', escape=False)"
p3125
ssg3098
S'()'
p3126
sg3100
S'<module>'
p3127
sasS'pyver'
p3128
S'Python 2.5.4: C:\\Users\\Atomico\\web2py\\web2py.exe'
p3129
sS'session'
p3130
g48
(g49
g50
NtRp3131
(dp3132
g53
(dp3133
sg55
(lp3134
g48
(g57
g50
NtRp3135
(dp3136
g53
(dp3137
g61
I5
ssg62
Nsg55
(lp3138
g48
(g64
g50
NtRp3139
(dp3140
g53
(dp3141
sg62
g3135
sg55
(lp3142
g48
(g69
g50
NtRp3143
(dp3144
g53
(dp3145
g73
g74
ssg62
g3139
sg55
(lp3146
S'argumentos'
p3147
asbag48
(g69
g50
NtRp3148
(dp3149
g53
(dp3150
g80
g81
ssg62
g3139
sg55
(lp3151
S':'
asbag48
(g69
g50
NtRp3152
(dp3153
g53
(dp3154
sg62
g3139
sg55
(lp3155
g48
(g49
g50
NtRp3156
(dp3157
g53
(dp3158
g61
I5
ssg62
g3152
sg55
(lp3159
S''
asbasbasbag48
(g64
g50
NtRp3160
(dp3161
g53
(dp3162
sg62
g3135
sg55
(lp3163
g48
(g69
g50
NtRp3164
(dp3165
g53
(dp3166
g73
g74
ssg62
g3160
sg55
(lp3167
S'last_query'
p3168
asbag48
(g69
g50
NtRp3169
(dp3170
g53
(dp3171
g80
g81
ssg62
g3160
sg55
(lp3172
S':'
asbag48
(g69
g50
NtRp3173
(dp3174
g53
(dp3175
sg62
g3160
sg55
(lp3176
g48
(g49
g50
NtRp3177
(dp3178
g53
(dp3179
g61
I5
ssg62
g3173
sg55
(lp3180
S'db.contactos.id>0'
p3181
asbasbasbasbasbsS'etype'
p3182
S"<type 'exceptions.NameError'>"
p3183
sS'date'
p3184
S'Tue Sep 20 13:59:47 2011'
p3185
sS'response'
p3186
g48
(g49
g50
NtRp3187
(dp3188
g53
(dp3189
sg55
(lp3190
g48
(g57
g50
NtRp3191
(dp3192
g53
(dp3193
g61
I5
ssg62
Nsg55
(lp3194
g48
(g64
g50
NtRp3195
(dp3196
g53
(dp3197
sg62
g3191
sg55
(lp3198
g48
(g69
g50
NtRp3199
(dp3200
g53
(dp3201
g73
g74
ssg62
g3195
sg55
(lp3202
g146
asbag48
(g69
g50
NtRp3203
(dp3204
g53
(dp3205
g80
g81
ssg62
g3195
sg55
(lp3206
S':'
asbag48
(g69
g50
NtRp3207
(dp3208
g53
(dp3209
sg62
g3195
sg55
(lp3210
g48
(g49
g50
NtRp3211
(dp3212
g53
(dp3213
g61
I5
ssg62
g3207
sg55
(lp3214
S'<cStringIO.StringO object at 0x0825A580>'
p3215
asbasbasbag48
(g64
g50
NtRp3216
(dp3217
g53
(dp3218
sg62
g3191
sg55
(lp3219
g48
(g69
g50
NtRp3220
(dp3221
g53
(dp3222
g73
g74
ssg62
g3216
sg55
(lp3223
g212
asbag48
(g69
g50
NtRp3224
(dp3225
g53
(dp3226
g80
g81
ssg62
g3216
sg55
(lp3227
S':'
asbag48
(g69
g50
NtRp3228
(dp3229
g53
(dp3230
sg62
g3216
sg55
(lp3231
g48
(g49
g50
NtRp3232
(dp3233
g53
(dp3234
g61
I5
ssg62
g3228
sg55
(lp3235
g48
(g57
g50
NtRp3236
(dp3237
g53
(dp3238
g61
I4
ssg62
Nsg55
(lp3239
g48
(g64
g50
NtRp3240
(dp3241
g53
(dp3242
sg62
g3236
sg55
(lp3243
g48
(g69
g50
NtRp3244
(dp3245
g53
(dp3246
g73
g74
ssg62
g3240
sg55
(lp3247
S'session_id_desglosar_emails'
p3248
asbag48
(g69
g50
NtRp3249
(dp3250
g53
(dp3251
g80
g81
ssg62
g3240
sg55
(lp3252
S':'
asbag48
(g69
g50
NtRp3253
(dp3254
g53
(dp3255
sg62
g3240
sg55
(lp3256
g48
(g49
g50
NtRp3257
(dp3258
g53
(dp3259
g61
I4
ssg62
g3253
sg55
(lp3260
g48
(g57
g50
NtRp3261
(dp3262
g53
(dp3263
g61
I3
ssg62
Nsg55
(lp3264
g48
(g64
g50
NtRp3265
(dp3266
g53
(dp3267
sg62
g3261
sg55
(lp3268
g48
(g69
g50
NtRp3269
(dp3270
g53
(dp3271
g73
g74
ssg62
g3265
sg55
(lp3272
g262
asbag48
(g69
g50
NtRp3273
(dp3274
g53
(dp3275
g80
g81
ssg62
g3265
sg55
(lp3276
S':'
asbag48
(g69
g50
NtRp3277
(dp3278
g53
(dp3279
sg62
g3265
sg55
(lp3280
g48
(g49
g50
NtRp3281
(dp3282
g53
(dp3283
g61
I3
ssg62
g3277
sg55
(lp3284
S''
asbasbasbag48
(g64
g50
NtRp3285
(dp3286
g53
(dp3287
sg62
g3261
sg55
(lp3288
g48
(g69
g50
NtRp3289
(dp3290
g53
(dp3291
g73
g74
ssg62
g3285
sg55
(lp3292
g283
asbag48
(g69
g50
NtRp3293
(dp3294
g53
(dp3295
g80
g81
ssg62
g3285
sg55
(lp3296
S':'
asbag48
(g69
g50
NtRp3297
(dp3298
g53
(dp3299
sg62
g3285
sg55
(lp3300
g48
(g49
g50
NtRp3301
(dp3302
g53
(dp3303
g61
I3
ssg62
g3297
sg55
(lp3304
S''
asbasbasbag48
(g64
g50
NtRp3305
(dp3306
g53
(dp3307
sg62
g3261
sg55
(lp3308
g48
(g69
g50
NtRp3309
(dp3310
g53
(dp3311
g73
g74
ssg62
g3305
sg55
(lp3312
g304
asbag48
(g69
g50
NtRp3313
(dp3314
g53
(dp3315
g80
g81
ssg62
g3305
sg55
(lp3316
S':'
asbag48
(g69
g50
NtRp3317
(dp3318
g53
(dp3319
sg62
g3305
sg55
(lp3320
g48
(g49
g50
NtRp3321
(dp3322
g53
(dp3323
g61
I3
ssg62
g3317
sg55
(lp3324
S''
asbasbasbag48
(g64
g50
NtRp3325
(dp3326
g53
(dp3327
sg62
g3261
sg55
(lp3328
g48
(g69
g50
NtRp3329
(dp3330
g53
(dp3331
g73
g74
ssg62
g3325
sg55
(lp3332
g325
asbag48
(g69
g50
NtRp3333
(dp3334
g53
(dp3335
g80
g81
ssg62
g3325
sg55
(lp3336
S':'
asbag48
(g69
g50
NtRp3337
(dp3338
g53
(dp3339
sg62
g3325
sg55
(lp3340
g48
(g49
g50
NtRp3341
(dp3342
g53
(dp3343
g61
I3
ssg62
g3337
sg55
(lp3344
S''
asbasbasbag48
(g64
g50
NtRp3345
(dp3346
g53
(dp3347
sg62
g3261
sg55
(lp3348
g48
(g69
g50
NtRp3349
(dp3350
g53
(dp3351
g73
g74
ssg62
g3345
sg55
(lp3352
g346
asbag48
(g69
g50
NtRp3353
(dp3354
g53
(dp3355
g80
g81
ssg62
g3345
sg55
(lp3356
S':'
asbag48
(g69
g50
NtRp3357
(dp3358
g53
(dp3359
sg62
g3345
sg55
(lp3360
g48
(g49
g50
NtRp3361
(dp3362
g53
(dp3363
g61
I3
ssg62
g3357
sg55
(lp3364
S'/'
asbasbasbag48
(g64
g50
NtRp3365
(dp3366
g53
(dp3367
sg62
g3261
sg55
(lp3368
g48
(g69
g50
NtRp3369
(dp3370
g53
(dp3371
g73
g74
ssg62
g3365
sg55
(lp3372
g367
asbag48
(g69
g50
NtRp3373
(dp3374
g53
(dp3375
g80
g81
ssg62
g3365
sg55
(lp3376
S':'
asbag48
(g69
g50
NtRp3377
(dp3378
g53
(dp3379
sg62
g3365
sg55
(lp3380
g48
(g49
g50
NtRp3381
(dp3382
g53
(dp3383
g61
I3
ssg62
g3377
sg55
(lp3384
S''
asbasbasbag48
(g64
g50
NtRp3385
(dp3386
g53
(dp3387
sg62
g3261
sg55
(lp3388
g48
(g69
g50
NtRp3389
(dp3390
g53
(dp3391
g73
g74
ssg62
g3385
sg55
(lp3392
g388
asbag48
(g69
g50
NtRp3393
(dp3394
g53
(dp3395
g80
g81
ssg62
g3385
sg55
(lp3396
S':'
asbag48
(g69
g50
NtRp3397
(dp3398
g53
(dp3399
sg62
g3385
sg55
(lp3400
g48
(g49
g50
NtRp3401
(dp3402
g53
(dp3403
g61
I3
ssg62
g3397
sg55
(lp3404
S''
asbasbasbasbasbasbasbasbasbasbasbag48
(g64
g50
NtRp3405
(dp3406
g53
(dp3407
sg62
g3191
sg55
(lp3408
g48
(g69
g50
NtRp3409
(dp3410
g53
(dp3411
g73
g74
ssg62
g3405
sg55
(lp3412
S'files'
p3413
asbag48
(g69
g50
NtRp3414
(dp3415
g53
(dp3416
g80
g81
ssg62
g3405
sg55
(lp3417
S':'
asbag48
(g69
g50
NtRp3418
(dp3419
g53
(dp3420
sg62
g3405
sg55
(lp3421
g48
(g49
g50
NtRp3422
(dp3423
g53
(dp3424
g61
I5
ssg62
g3418
sg55
(lp3425
g48
(g57
g50
NtRp3426
(dp3427
g53
(dp3428
g61
I4
ssg62
Nsg55
(lp3429
g48
(g64
g50
NtRp3430
(dp3431
g53
(dp3432
sg62
g3426
sg55
(lp3433
g48
(g69
g50
NtRp3434
(dp3435
g53
(dp3436
sg62
g3430
sg55
(lp3437
g48
(g49
g50
NtRp3438
(dp3439
g53
(dp3440
g61
I4
ssg62
g3434
sg55
(lp3441
S'/Desglosar_Emails/static/js/jquery.js'
p3442
asbasbasbag48
(g64
g50
NtRp3443
(dp3444
g53
(dp3445
sg62
g3426
sg55
(lp3446
g48
(g69
g50
NtRp3447
(dp3448
g53
(dp3449
sg62
g3443
sg55
(lp3450
g48
(g49
g50
NtRp3451
(dp3452
g53
(dp3453
g61
I4
ssg62
g3447
sg55
(lp3454
S'/Desglosar_Emails/static/css/calendar.css'
p3455
asbasbasbag48
(g64
g50
NtRp3456
(dp3457
g53
(dp3458
sg62
g3426
sg55
(lp3459
g48
(g69
g50
NtRp3460
(dp3461
g53
(dp3462
sg62
g3456
sg55
(lp3463
g48
(g49
g50
NtRp3464
(dp3465
g53
(dp3466
g61
I4
ssg62
g3460
sg55
(lp3467
S'/Desglosar_Emails/static/js/calendar.js'
p3468
asbasbasbag48
(g64
g50
NtRp3469
(dp3470
g53
(dp3471
sg62
g3426
sg55
(lp3472
g48
(g69
g50
NtRp3473
(dp3474
g53
(dp3475
sg62
g3469
sg55
(lp3476
g48
(g49
g50
NtRp3477
(dp3478
g53
(dp3479
g61
I4
ssg62
g3473
sg55
(lp3480
S'/Desglosar_Emails/static/css/base.css'
p3481
asbasbasbag48
(g64
g50
NtRp3482
(dp3483
g53
(dp3484
sg62
g3426
sg55
(lp3485
g48
(g69
g50
NtRp3486
(dp3487
g53
(dp3488
sg62
g3482
sg55
(lp3489
g48
(g49
g50
NtRp3490
(dp3491
g53
(dp3492
g61
I4
ssg62
g3486
sg55
(lp3493
S'/Desglosar_Emails/static/css/superfish.css'
p3494
asbasbasbag48
(g64
g50
NtRp3495
(dp3496
g53
(dp3497
sg62
g3426
sg55
(lp3498
g48
(g69
g50
NtRp3499
(dp3500
g53
(dp3501
sg62
g3495
sg55
(lp3502
g48
(g49
g50
NtRp3503
(dp3504
g53
(dp3505
g61
I4
ssg62
g3499
sg55
(lp3506
S'/Desglosar_Emails/static/js/superfish.js'
p3507
asbasbasbasbasbasbasbag48
(g64
g50
NtRp3508
(dp3509
g53
(dp3510
sg62
g3191
sg55
(lp3511
g48
(g69
g50
NtRp3512
(dp3513
g53
(dp3514
g73
g74
ssg62
g3508
sg55
(lp3515
S'flash'
p3516
asbag48
(g69
g50
NtRp3517
(dp3518
g53
(dp3519
g80
g81
ssg62
g3508
sg55
(lp3520
S':'
asbag48
(g69
g50
NtRp3521
(dp3522
g53
(dp3523
sg62
g3508
sg55
(lp3524
g48
(g49
g50
NtRp3525
(dp3526
g53
(dp3527
g61
I5
ssg62
g3521
sg55
(lp3528
S''
asbasbasbag48
(g64
g50
NtRp3529
(dp3530
g53
(dp3531
sg62
g3191
sg55
(lp3532
g48
(g69
g50
NtRp3533
(dp3534
g53
(dp3535
g73
g74
ssg62
g3529
sg55
(lp3536
S'generic_patterns'
p3537
asbag48
(g69
g50
NtRp3538
(dp3539
g53
(dp3540
g80
g81
ssg62
g3529
sg55
(lp3541
S':'
asbag48
(g69
g50
NtRp3542
(dp3543
g53
(dp3544
sg62
g3529
sg55
(lp3545
g48
(g49
g50
NtRp3546
(dp3547
g53
(dp3548
g61
I5
ssg62
g3542
sg55
(lp3549
g48
(g57
g50
NtRp3550
(dp3551
g53
(dp3552
g61
I4
ssg62
Nsg55
(lp3553
sbasbasbasbag48
(g64
g50
NtRp3554
(dp3555
g53
(dp3556
sg62
g3191
sg55
(lp3557
g48
(g69
g50
NtRp3558
(dp3559
g53
(dp3560
g73
g74
ssg62
g3554
sg55
(lp3561
S'headers'
p3562
asbag48
(g69
g50
NtRp3563
(dp3564
g53
(dp3565
g80
g81
ssg62
g3554
sg55
(lp3566
S':'
asbag48
(g69
g50
NtRp3567
(dp3568
g53
(dp3569
sg62
g3554
sg55
(lp3570
g48
(g49
g50
NtRp3571
(dp3572
g53
(dp3573
g61
I5
ssg62
g3567
sg55
(lp3574
g48
(g57
g50
NtRp3575
(dp3576
g53
(dp3577
g61
I4
ssg62
Nsg55
(lp3578
g48
(g64
g50
NtRp3579
(dp3580
g53
(dp3581
sg62
g3575
sg55
(lp3582
g48
(g69
g50
NtRp3583
(dp3584
g53
(dp3585
g73
g74
ssg62
g3579
sg55
(lp3586
S'Cache-Control'
p3587
asbag48
(g69
g50
NtRp3588
(dp3589
g53
(dp3590
g80
g81
ssg62
g3579
sg55
(lp3591
S':'
asbag48
(g69
g50
NtRp3592
(dp3593
g53
(dp3594
sg62
g3579
sg55
(lp3595
g48
(g49
g50
NtRp3596
(dp3597
g53
(dp3598
g61
I4
ssg62
g3592
sg55
(lp3599
S'no-store, no-cache, must-revalidate, post-check=0, pre-check=0'
p3600
asbasbasbag48
(g64
g50
NtRp3601
(dp3602
g53
(dp3603
sg62
g3575
sg55
(lp3604
g48
(g69
g50
NtRp3605
(dp3606
g53
(dp3607
g73
g74
ssg62
g3601
sg55
(lp3608
S'Content-Type'
p3609
asbag48
(g69
g50
NtRp3610
(dp3611
g53
(dp3612
g80
g81
ssg62
g3601
sg55
(lp3613
S':'
asbag48
(g69
g50
NtRp3614
(dp3615
g53
(dp3616
sg62
g3601
sg55
(lp3617
g48
(g49
g50
NtRp3618
(dp3619
g53
(dp3620
g61
I4
ssg62
g3614
sg55
(lp3621
S'text/html; charset=utf-8'
p3622
asbasbasbag48
(g64
g50
NtRp3623
(dp3624
g53
(dp3625
sg62
g3575
sg55
(lp3626
g48
(g69
g50
NtRp3627
(dp3628
g53
(dp3629
g73
g74
ssg62
g3623
sg55
(lp3630
S'Expires'
p3631
asbag48
(g69
g50
NtRp3632
(dp3633
g53
(dp3634
g80
g81
ssg62
g3623
sg55
(lp3635
S':'
asbag48
(g69
g50
NtRp3636
(dp3637
g53
(dp3638
sg62
g3623
sg55
(lp3639
g48
(g49
g50
NtRp3640
(dp3641
g53
(dp3642
g61
I4
ssg62
g3636
sg55
(lp3643
S'Tue, 20 Sep 2011 11:59:47 GMT'
p3644
asbasbasbag48
(g64
g50
NtRp3645
(dp3646
g53
(dp3647
sg62
g3575
sg55
(lp3648
g48
(g69
g50
NtRp3649
(dp3650
g53
(dp3651
g73
g74
ssg62
g3645
sg55
(lp3652
S'Pragma'
p3653
asbag48
(g69
g50
NtRp3654
(dp3655
g53
(dp3656
g80
g81
ssg62
g3645
sg55
(lp3657
S':'
asbag48
(g69
g50
NtRp3658
(dp3659
g53
(dp3660
sg62
g3645
sg55
(lp3661
g48
(g49
g50
NtRp3662
(dp3663
g53
(dp3664
g61
I4
ssg62
g3658
sg55
(lp3665
S'no-cache'
p3666
asbasbasbag48
(g64
g50
NtRp3667
(dp3668
g53
(dp3669
sg62
g3575
sg55
(lp3670
g48
(g69
g50
NtRp3671
(dp3672
g53
(dp3673
g73
g74
ssg62
g3667
sg55
(lp3674
S'X-Powered-By'
p3675
asbag48
(g69
g50
NtRp3676
(dp3677
g53
(dp3678
g80
g81
ssg62
g3667
sg55
(lp3679
S':'
asbag48
(g69
g50
NtRp3680
(dp3681
g53
(dp3682
sg62
g3667
sg55
(lp3683
g48
(g49
g50
NtRp3684
(dp3685
g53
(dp3686
g61
I4
ssg62
g3680
sg55
(lp3687
S'web2py'
p3688
asbasbasbasbasbasbasbag48
(g64
g50
NtRp3689
(dp3690
g53
(dp3691
sg62
g3191
sg55
(lp3692
g48
(g69
g50
NtRp3693
(dp3694
g53
(dp3695
g73
g74
ssg62
g3689
sg55
(lp3696
S'menu'
p3697
asbag48
(g69
g50
NtRp3698
(dp3699
g53
(dp3700
g80
g81
ssg62
g3689
sg55
(lp3701
S':'
asbag48
(g69
g50
NtRp3702
(dp3703
g53
(dp3704
sg62
g3689
sg55
(lp3705
g48
(g49
g50
NtRp3706
(dp3707
g53
(dp3708
g61
I5
ssg62
g3702
sg55
(lp3709
g48
(g57
g50
NtRp3710
(dp3711
g53
(dp3712
g61
I4
ssg62
Nsg55
(lp3713
g48
(g64
g50
NtRp3714
(dp3715
g53
(dp3716
sg62
g3710
sg55
(lp3717
g48
(g69
g50
NtRp3718
(dp3719
g53
(dp3720
sg62
g3714
sg55
(lp3721
g48
(g49
g50
NtRp3722
(dp3723
g53
(dp3724
g61
I4
ssg62
g3718
sg55
(lp3725
g48
(g57
g50
NtRp3726
(dp3727
g53
(dp3728
g61
I3
ssg62
Nsg55
(lp3729
g48
(g64
g50
NtRp3730
(dp3731
g53
(dp3732
sg62
g3726
sg55
(lp3733
g48
(g69
g50
NtRp3734
(dp3735
g53
(dp3736
sg62
g3730
sg55
(lp3737
g48
(g49
g50
NtRp3738
(dp3739
g53
(dp3740
g61
I3
ssg62
g3734
sg55
(lp3741
cgluon.languages
lazyT_unpickle
p3742
(S't\x04\x00\x00\x00Home'
tRp3743
asbasbasbag48
(g64
g50
NtRp3744
(dp3745
g53
(dp3746
sg62
g3726
sg55
(lp3747
g48
(g69
g50
NtRp3748
(dp3749
g53
(dp3750
sg62
g3744
sg55
(lp3751
g48
(g49
g50
NtRp3752
(dp3753
g53
(dp3754
g61
I3
ssg62
g3748
sg55
(lp3755
g91
asbasbasbag48
(g64
g50
NtRp3756
(dp3757
g53
(dp3758
sg62
g3726
sg55
(lp3759
g48
(g69
g50
NtRp3760
(dp3761
g53
(dp3762
sg62
g3756
sg55
(lp3763
g48
(g49
g50
NtRp3764
(dp3765
g53
(dp3766
g61
I3
ssg62
g3760
sg55
(lp3767
S'/Desglosar_Emails/default/index'
p3768
asbasbasbag48
(g64
g50
NtRp3769
(dp3770
g53
(dp3771
sg62
g3726
sg55
(lp3772
g48
(g69
g50
NtRp3773
(dp3774
g53
(dp3775
sg62
g3769
sg55
(lp3776
g48
(g49
g50
NtRp3777
(dp3778
g53
(dp3779
g61
I3
ssg62
g3773
sg55
(lp3780
g48
(g57
g50
NtRp3781
(dp3782
g53
(dp3783
g61
I2
ssg62
Nsg55
(lp3784
sbasbasbasbasbasbasbasbag48
(g64
g50
NtRp3785
(dp3786
g53
(dp3787
sg62
g3710
sg55
(lp3788
g48
(g69
g50
NtRp3789
(dp3790
g53
(dp3791
sg62
g3785
sg55
(lp3792
g48
(g49
g50
NtRp3793
(dp3794
g53
(dp3795
g61
I4
ssg62
g3789
sg55
(lp3796
g48
(g57
g50
NtRp3797
(dp3798
g53
(dp3799
g61
I3
ssg62
Nsg55
(lp3800
g48
(g64
g50
NtRp3801
(dp3802
g53
(dp3803
sg62
g3797
sg55
(lp3804
g48
(g69
g50
NtRp3805
(dp3806
g53
(dp3807
sg62
g3801
sg55
(lp3808
g48
(g49
g50
NtRp3809
(dp3810
g53
(dp3811
g61
I3
ssg62
g3805
sg55
(lp3812
g3742
(S's\x08\x00\x00\x00This App'
tRp3813
asbasbasbag48
(g64
g50
NtRp3814
(dp3815
g53
(dp3816
sg62
g3797
sg55
(lp3817
g48
(g69
g50
NtRp3818
(dp3819
g53
(dp3820
sg62
g3814
sg55
(lp3821
g48
(g49
g50
NtRp3822
(dp3823
g53
(dp3824
g61
I3
ssg62
g3818
sg55
(lp3825
g91
asbasbasbag48
(g64
g50
NtRp3826
(dp3827
g53
(dp3828
sg62
g3797
sg55
(lp3829
g48
(g69
g50
NtRp3830
(dp3831
g53
(dp3832
sg62
g3826
sg55
(lp3833
g48
(g49
g50
NtRp3834
(dp3835
g53
(dp3836
g61
I3
ssg62
g3830
sg55
(lp3837
S'/admin/default/design/Desglosar_Emails'
p3838
asbasbasbag48
(g64
g50
NtRp3839
(dp3840
g53
(dp3841
sg62
g3797
sg55
(lp3842
g48
(g69
g50
NtRp3843
(dp3844
g53
(dp3845
sg62
g3839
sg55
(lp3846
g48
(g49
g50
NtRp3847
(dp3848
g53
(dp3849
g61
I3
ssg62
g3843
sg55
(lp3850
g48
(g57
g50
NtRp3851
(dp3852
g53
(dp3853
g61
I2
ssg62
Nsg55
(lp3854
g48
(g64
g50
NtRp3855
(dp3856
g53
(dp3857
sg62
g3851
sg55
(lp3858
g48
(g69
g50
NtRp3859
(dp3860
g53
(dp3861
sg62
g3855
sg55
(lp3862
g48
(g49
g50
NtRp3863
(dp3864
g53
(dp3865
g61
I2
ssg62
g3859
sg55
(lp3866
g48
(g57
g50
NtRp3867
(dp3868
g53
(dp3869
g61
I1
ssg62
Nsg55
(lp3870
g48
(g64
g50
NtRp3871
(dp3872
g53
(dp3873
sg62
g3867
sg55
(lp3874
g48
(g69
g50
NtRp3875
(dp3876
g53
(dp3877
sg62
g3871
sg55
(lp3878
g48
(g49
g50
NtRp3879
(dp3880
g53
(dp3881
g61
I1
ssg62
g3875
sg55
(lp3882
g3742
(S't\x0b\x00\x00\x00Controlador'
tRp3883
asbasbasbag48
(g64
g50
NtRp3884
(dp3885
g53
(dp3886
sg62
g3867
sg55
(lp3887
g48
(g69
g50
NtRp3888
(dp3889
g53
(dp3890
sg62
g3884
sg55
(lp3891
g48
(g49
g50
NtRp3892
(dp3893
g53
(dp3894
g61
I1
ssg62
g3888
sg55
(lp3895
I00
asbasbasbag48
(g64
g50
NtRp3896
(dp3897
g53
(dp3898
sg62
g3867
sg55
(lp3899
g48
(g69
g50
NtRp3900
(dp3901
g53
(dp3902
sg62
g3896
sg55
(lp3903
g48
(g49
g50
NtRp3904
(dp3905
g53
(dp3906
g61
I1
ssg62
g3900
sg55
(lp3907
S'/admin/default/edit/Desglosar_Emails/controllers/default.py'
p3908
asbasbasbasbasbasbasbag48
(g64
g50
NtRp3909
(dp3910
g53
(dp3911
sg62
g3851
sg55
(lp3912
g48
(g69
g50
NtRp3913
(dp3914
g53
(dp3915
sg62
g3909
sg55
(lp3916
g48
(g49
g50
NtRp3917
(dp3918
g53
(dp3919
g61
I2
ssg62
g3913
sg55
(lp3920
g48
(g57
g50
NtRp3921
(dp3922
g53
(dp3923
g61
I1
ssg62
Nsg55
(lp3924
g48
(g64
g50
NtRp3925
(dp3926
g53
(dp3927
sg62
g3921
sg55
(lp3928
g48
(g69
g50
NtRp3929
(dp3930
g53
(dp3931
sg62
g3925
sg55
(lp3932
g48
(g49
g50
NtRp3933
(dp3934
g53
(dp3935
g61
I1
ssg62
g3929
sg55
(lp3936
g3742
(S't\x05\x00\x00\x00Vista'
tRp3937
asbasbasbag48
(g64
g50
NtRp3938
(dp3939
g53
(dp3940
sg62
g3921
sg55
(lp3941
g48
(g69
g50
NtRp3942
(dp3943
g53
(dp3944
sg62
g3938
sg55
(lp3945
g48
(g49
g50
NtRp3946
(dp3947
g53
(dp3948
g61
I1
ssg62
g3942
sg55
(lp3949
I00
asbasbasbag48
(g64
g50
NtRp3950
(dp3951
g53
(dp3952
sg62
g3921
sg55
(lp3953
g48
(g69
g50
NtRp3954
(dp3955
g53
(dp3956
sg62
g3950
sg55
(lp3957
g48
(g49
g50
NtRp3958
(dp3959
g53
(dp3960
g61
I1
ssg62
g3954
sg55
(lp3961
S'/admin/default/edit/Desglosar_Emails/views/default/relaciones.html'
p3962
asbasbasbasbasbasbasbag48
(g64
g50
NtRp3963
(dp3964
g53
(dp3965
sg62
g3851
sg55
(lp3966
g48
(g69
g50
NtRp3967
(dp3968
g53
(dp3969
sg62
g3963
sg55
(lp3970
g48
(g49
g50
NtRp3971
(dp3972
g53
(dp3973
g61
I2
ssg62
g3967
sg55
(lp3974
g48
(g57
g50
NtRp3975
(dp3976
g53
(dp3977
g61
I1
ssg62
Nsg55
(lp3978
g48
(g64
g50
NtRp3979
(dp3980
g53
(dp3981
sg62
g3975
sg55
(lp3982
g48
(g69
g50
NtRp3983
(dp3984
g53
(dp3985
sg62
g3979
sg55
(lp3986
g48
(g49
g50
NtRp3987
(dp3988
g53
(dp3989
g61
I1
ssg62
g3983
sg55
(lp3990
g3742
(S's\x12\x00\x00\x00Dise\xc3\xb1o de p\xc3\xa1gina'
tRp3991
asbasbasbag48
(g64
g50
NtRp3992
(dp3993
g53
(dp3994
sg62
g3975
sg55
(lp3995
g48
(g69
g50
NtRp3996
(dp3997
g53
(dp3998
sg62
g3992
sg55
(lp3999
g48
(g49
g50
NtRp4000
(dp4001
g53
(dp4002
g61
I1
ssg62
g3996
sg55
(lp4003
I00
asbasbasbag48
(g64
g50
NtRp4004
(dp4005
g53
(dp4006
sg62
g3975
sg55
(lp4007
g48
(g69
g50
NtRp4008
(dp4009
g53
(dp4010
sg62
g4004
sg55
(lp4011
g48
(g49
g50
NtRp4012
(dp4013
g53
(dp4014
g61
I1
ssg62
g4008
sg55
(lp4015
S'/admin/default/edit/Desglosar_Emails/views/layout.html'
p4016
asbasbasbasbasbasbasbag48
(g64
g50
NtRp4017
(dp4018
g53
(dp4019
sg62
g3851
sg55
(lp4020
g48
(g69
g50
NtRp4021
(dp4022
g53
(dp4023
sg62
g4017
sg55
(lp4024
g48
(g49
g50
NtRp4025
(dp4026
g53
(dp4027
g61
I2
ssg62
g4021
sg55
(lp4028
g48
(g57
g50
NtRp4029
(dp4030
g53
(dp4031
g61
I1
ssg62
Nsg55
(lp4032
g48
(g64
g50
NtRp4033
(dp4034
g53
(dp4035
sg62
g4029
sg55
(lp4036
g48
(g69
g50
NtRp4037
(dp4038
g53
(dp4039
sg62
g4033
sg55
(lp4040
g48
(g49
g50
NtRp4041
(dp4042
g53
(dp4043
g61
I1
ssg62
g4037
sg55
(lp4044
g3742
(S's\x0e\x00\x00\x00Hoja de estilo'
tRp4045
asbasbasbag48
(g64
g50
NtRp4046
(dp4047
g53
(dp4048
sg62
g4029
sg55
(lp4049
g48
(g69
g50
NtRp4050
(dp4051
g53
(dp4052
sg62
g4046
sg55
(lp4053
g48
(g49
g50
NtRp4054
(dp4055
g53
(dp4056
g61
I1
ssg62
g4050
sg55
(lp4057
I00
asbasbasbag48
(g64
g50
NtRp4058
(dp4059
g53
(dp4060
sg62
g4029
sg55
(lp4061
g48
(g69
g50
NtRp4062
(dp4063
g53
(dp4064
sg62
g4058
sg55
(lp4065
g48
(g49
g50
NtRp4066
(dp4067
g53
(dp4068
g61
I1
ssg62
g4062
sg55
(lp4069
S'/admin/default/edit/Desglosar_Emails/static/base.css'
p4070
asbasbasbasbasbasbasbag48
(g64
g50
NtRp4071
(dp4072
g53
(dp4073
sg62
g3851
sg55
(lp4074
g48
(g69
g50
NtRp4075
(dp4076
g53
(dp4077
sg62
g4071
sg55
(lp4078
g48
(g49
g50
NtRp4079
(dp4080
g53
(dp4081
g61
I2
ssg62
g4075
sg55
(lp4082
g48
(g57
g50
NtRp4083
(dp4084
g53
(dp4085
g61
I1
ssg62
Nsg55
(lp4086
g48
(g64
g50
NtRp4087
(dp4088
g53
(dp4089
sg62
g4083
sg55
(lp4090
g48
(g69
g50
NtRp4091
(dp4092
g53
(dp4093
sg62
g4087
sg55
(lp4094
g48
(g49
g50
NtRp4095
(dp4096
g53
(dp4097
g61
I1
ssg62
g4091
sg55
(lp4098
g3742
(S's\x0b\x00\x00\x00Modelo "db"'
tRp4099
asbasbasbag48
(g64
g50
NtRp4100
(dp4101
g53
(dp4102
sg62
g4083
sg55
(lp4103
g48
(g69
g50
NtRp4104
(dp4105
g53
(dp4106
sg62
g4100
sg55
(lp4107
g48
(g49
g50
NtRp4108
(dp4109
g53
(dp4110
g61
I1
ssg62
g4104
sg55
(lp4111
I00
asbasbasbag48
(g64
g50
NtRp4112
(dp4113
g53
(dp4114
sg62
g4083
sg55
(lp4115
g48
(g69
g50
NtRp4116
(dp4117
g53
(dp4118
sg62
g4112
sg55
(lp4119
g48
(g49
g50
NtRp4120
(dp4121
g53
(dp4122
g61
I1
ssg62
g4116
sg55
(lp4123
S'/admin/default/edit/Desglosar_Emails/models/db.py'
p4124
asbasbasbasbasbasbasbag48
(g64
g50
NtRp4125
(dp4126
g53
(dp4127
sg62
g3851
sg55
(lp4128
g48
(g69
g50
NtRp4129
(dp4130
g53
(dp4131
sg62
g4125
sg55
(lp4132
g48
(g49
g50
NtRp4133
(dp4134
g53
(dp4135
g61
I2
ssg62
g4129
sg55
(lp4136
g48
(g57
g50
NtRp4137
(dp4138
g53
(dp4139
g61
I1
ssg62
Nsg55
(lp4140
g48
(g64
g50
NtRp4141
(dp4142
g53
(dp4143
sg62
g4137
sg55
(lp4144
g48
(g69
g50
NtRp4145
(dp4146
g53
(dp4147
sg62
g4141
sg55
(lp4148
g48
(g49
g50
NtRp4149
(dp4150
g53
(dp4151
g61
I1
ssg62
g4145
sg55
(lp4152
g3742
(S's\r\x00\x00\x00Modelo "menu"'
tRp4153
asbasbasbag48
(g64
g50
NtRp4154
(dp4155
g53
(dp4156
sg62
g4137
sg55
(lp4157
g48
(g69
g50
NtRp4158
(dp4159
g53
(dp4160
sg62
g4154
sg55
(lp4161
g48
(g49
g50
NtRp4162
(dp4163
g53
(dp4164
g61
I1
ssg62
g4158
sg55
(lp4165
I00
asbasbasbag48
(g64
g50
NtRp4166
(dp4167
g53
(dp4168
sg62
g4137
sg55
(lp4169
g48
(g69
g50
NtRp4170
(dp4171
g53
(dp4172
sg62
g4166
sg55
(lp4173
g48
(g49
g50
NtRp4174
(dp4175
g53
(dp4176
g61
I1
ssg62
g4170
sg55
(lp4177
S'/admin/default/edit/Desglosar_Emails/models/menu.py'
p4178
asbasbasbasbasbasbasbag48
(g64
g50
NtRp4179
(dp4180
g53
(dp4181
sg62
g3851
sg55
(lp4182
g48
(g69
g50
NtRp4183
(dp4184
g53
(dp4185
sg62
g4179
sg55
(lp4186
g48
(g49
g50
NtRp4187
(dp4188
g53
(dp4189
g61
I2
ssg62
g4183
sg55
(lp4190
g48
(g57
g50
NtRp4191
(dp4192
g53
(dp4193
g61
I1
ssg62
Nsg55
(lp4194
g48
(g64
g50
NtRp4195
(dp4196
g53
(dp4197
sg62
g4191
sg55
(lp4198
g48
(g69
g50
NtRp4199
(dp4200
g53
(dp4201
sg62
g4195
sg55
(lp4202
g48
(g49
g50
NtRp4203
(dp4204
g53
(dp4205
g61
I1
ssg62
g4199
sg55
(lp4206
g3742
(S's\r\x00\x00\x00Base de datos'
tRp4207
asbasbasbag48
(g64
g50
NtRp4208
(dp4209
g53
(dp4210
sg62
g4191
sg55
(lp4211
g48
(g69
g50
NtRp4212
(dp4213
g53
(dp4214
sg62
g4208
sg55
(lp4215
g48
(g49
g50
NtRp4216
(dp4217
g53
(dp4218
g61
I1
ssg62
g4212
sg55
(lp4219
I00
asbasbasbag48
(g64
g50
NtRp4220
(dp4221
g53
(dp4222
sg62
g4191
sg55
(lp4223
g48
(g69
g50
NtRp4224
(dp4225
g53
(dp4226
sg62
g4220
sg55
(lp4227
g48
(g49
g50
NtRp4228
(dp4229
g53
(dp4230
g61
I1
ssg62
g4224
sg55
(lp4231
S'/Desglosar_Emails/appadmin/index'
p4232
asbasbasbasbasbasbasbag48
(g64
g50
NtRp4233
(dp4234
g53
(dp4235
sg62
g3851
sg55
(lp4236
g48
(g69
g50
NtRp4237
(dp4238
g53
(dp4239
sg62
g4233
sg55
(lp4240
g48
(g49
g50
NtRp4241
(dp4242
g53
(dp4243
g61
I2
ssg62
g4237
sg55
(lp4244
g48
(g57
g50
NtRp4245
(dp4246
g53
(dp4247
g61
I1
ssg62
Nsg55
(lp4248
g48
(g64
g50
NtRp4249
(dp4250
g53
(dp4251
sg62
g4245
sg55
(lp4252
g48
(g69
g50
NtRp4253
(dp4254
g53
(dp4255
sg62
g4249
sg55
(lp4256
g48
(g49
g50
NtRp4257
(dp4258
g53
(dp4259
g61
I1
ssg62
g4253
sg55
(lp4260
g3742
(S't\x06\x00\x00\x00Errors'
tRp4261
asbasbasbag48
(g64
g50
NtRp4262
(dp4263
g53
(dp4264
sg62
g4245
sg55
(lp4265
g48
(g69
g50
NtRp4266
(dp4267
g53
(dp4268
sg62
g4262
sg55
(lp4269
g48
(g49
g50
NtRp4270
(dp4271
g53
(dp4272
g61
I1
ssg62
g4266
sg55
(lp4273
I00
asbasbasbag48
(g64
g50
NtRp4274
(dp4275
g53
(dp4276
sg62
g4245
sg55
(lp4277
g48
(g69
g50
NtRp4278
(dp4279
g53
(dp4280
sg62
g4274
sg55
(lp4281
g48
(g49
g50
NtRp4282
(dp4283
g53
(dp4284
g61
I1
ssg62
g4278
sg55
(lp4285
S'/admin/default/errors/Desglosar_Emails'
p4286
asbasbasbasbasbasbasbag48
(g64
g50
NtRp4287
(dp4288
g53
(dp4289
sg62
g3851
sg55
(lp4290
g48
(g69
g50
NtRp4291
(dp4292
g53
(dp4293
sg62
g4287
sg55
(lp4294
g48
(g49
g50
NtRp4295
(dp4296
g53
(dp4297
g61
I2
ssg62
g4291
sg55
(lp4298
g48
(g57
g50
NtRp4299
(dp4300
g53
(dp4301
g61
I1
ssg62
Nsg55
(lp4302
g48
(g64
g50
NtRp4303
(dp4304
g53
(dp4305
sg62
g4299
sg55
(lp4306
g48
(g69
g50
NtRp4307
(dp4308
g53
(dp4309
sg62
g4303
sg55
(lp4310
g48
(g49
g50
NtRp4311
(dp4312
g53
(dp4313
g61
I1
ssg62
g4307
sg55
(lp4314
g3742
(S's\t\x00\x00\x00Acerca de'
tRp4315
asbasbasbag48
(g64
g50
NtRp4316
(dp4317
g53
(dp4318
sg62
g4299
sg55
(lp4319
g48
(g69
g50
NtRp4320
(dp4321
g53
(dp4322
sg62
g4316
sg55
(lp4323
g48
(g49
g50
NtRp4324
(dp4325
g53
(dp4326
g61
I1
ssg62
g4320
sg55
(lp4327
I00
asbasbasbag48
(g64
g50
NtRp4328
(dp4329
g53
(dp4330
sg62
g4299
sg55
(lp4331
g48
(g69
g50
NtRp4332
(dp4333
g53
(dp4334
sg62
g4328
sg55
(lp4335
g48
(g49
g50
NtRp4336
(dp4337
g53
(dp4338
g61
I1
ssg62
g4332
sg55
(lp4339
S'/admin/default/about/Desglosar_Emails'
p4340
asbasbasbasbasbasbasbasbasbasbasbasbasbasbasbag48
(g64
g50
NtRp4341
(dp4342
g53
(dp4343
sg62
g3710
sg55
(lp4344
g48
(g69
g50
NtRp4345
(dp4346
g53
(dp4347
sg62
g4341
sg55
(lp4348
g48
(g49
g50
NtRp4349
(dp4350
g53
(dp4351
g61
I4
ssg62
g4345
sg55
(lp4352
g48
(g57
g50
NtRp4353
(dp4354
g53
(dp4355
g61
I3
ssg62
Nsg55
(lp4356
g48
(g64
g50
NtRp4357
(dp4358
g53
(dp4359
sg62
g4353
sg55
(lp4360
g48
(g69
g50
NtRp4361
(dp4362
g53
(dp4363
sg62
g4357
sg55
(lp4364
g48
(g49
g50
NtRp4365
(dp4366
g53
(dp4367
g61
I3
ssg62
g4361
sg55
(lp4368
g3742
(S't\t\x00\x00\x00Resources'
tRp4369
asbasbasbag48
(g64
g50
NtRp4370
(dp4371
g53
(dp4372
sg62
g4353
sg55
(lp4373
g48
(g69
g50
NtRp4374
(dp4375
g53
(dp4376
sg62
g4370
sg55
(lp4377
g48
(g49
g50
NtRp4378
(dp4379
g53
(dp4380
g61
I3
ssg62
g4374
sg55
(lp4381
g91
asbasbasbag48
(g64
g50
NtRp4382
(dp4383
g53
(dp4384
sg62
g4353
sg55
(lp4385
g48
(g69
g50
NtRp4386
(dp4387
g53
(dp4388
sg62
g4382
sg55
(lp4389
g48
(g49
g50
NtRp4390
(dp4391
g53
(dp4392
g61
I3
ssg62
g4386
sg55
(lp4393
S'None'
p4394
asbasbasbag48
(g64
g50
NtRp4395
(dp4396
g53
(dp4397
sg62
g4353
sg55
(lp4398
g48
(g69
g50
NtRp4399
(dp4400
g53
(dp4401
sg62
g4395
sg55
(lp4402
g48
(g49
g50
NtRp4403
(dp4404
g53
(dp4405
g61
I3
ssg62
g4399
sg55
(lp4406
g48
(g57
g50
NtRp4407
(dp4408
g53
(dp4409
g61
I2
ssg62
Nsg55
(lp4410
g48
(g64
g50
NtRp4411
(dp4412
g53
(dp4413
sg62
g4407
sg55
(lp4414
g48
(g69
g50
NtRp4415
(dp4416
g53
(dp4417
sg62
g4411
sg55
(lp4418
g48
(g49
g50
NtRp4419
(dp4420
g53
(dp4421
g61
I2
ssg62
g4415
sg55
(lp4422
g48
(g57
g50
NtRp4423
(dp4424
g53
(dp4425
g61
I1
ssg62
Nsg55
(lp4426
g48
(g64
g50
NtRp4427
(dp4428
g53
(dp4429
sg62
g4423
sg55
(lp4430
g48
(g69
g50
NtRp4431
(dp4432
g53
(dp4433
sg62
g4427
sg55
(lp4434
g48
(g49
g50
NtRp4435
(dp4436
g53
(dp4437
g61
I1
ssg62
g4431
sg55
(lp4438
g3742
(S's\x0e\x00\x00\x00Documentaci\xc3\xb3n'
tRp4439
asbasbasbag48
(g64
g50
NtRp4440
(dp4441
g53
(dp4442
sg62
g4423
sg55
(lp4443
g48
(g69
g50
NtRp4444
(dp4445
g53
(dp4446
sg62
g4440
sg55
(lp4447
g48
(g49
g50
NtRp4448
(dp4449
g53
(dp4450
g61
I1
ssg62
g4444
sg55
(lp4451
I00
asbasbasbag48
(g64
g50
NtRp4452
(dp4453
g53
(dp4454
sg62
g4423
sg55
(lp4455
g48
(g69
g50
NtRp4456
(dp4457
g53
(dp4458
sg62
g4452
sg55
(lp4459
g48
(g49
g50
NtRp4460
(dp4461
g53
(dp4462
g61
I1
ssg62
g4456
sg55
(lp4463
S'http://www.web2py.com/book'
p4464
asbasbasbag48
(g64
g50
NtRp4465
(dp4466
g53
(dp4467
sg62
g4423
sg55
(lp4468
g48
(g69
g50
NtRp4469
(dp4470
g53
(dp4471
sg62
g4465
sg55
(lp4472
g48
(g49
g50
NtRp4473
(dp4474
g53
(dp4475
g61
I1
ssg62
g4469
sg55
(lp4476
(lp4477
(g3742
(S't\x07\x00\x00\x00Preface'
tRp4478
I00
S'http://www.web2py.com/book/default/chapter/00'
tp4479
a(g3742
(S't\x0c\x00\x00\x00Introduction'
tRp4480
I00
S'http://www.web2py.com/book/default/chapter/01'
tp4481
a(g3742
(S't\x06\x00\x00\x00Python'
tRp4482
I00
S'http://www.web2py.com/book/default/chapter/02'
tp4483
a(g3742
(S't\x08\x00\x00\x00Overview'
tRp4484
I00
S'http://www.web2py.com/book/default/chapter/03'
tp4485
a(g3742
(S's\x08\x00\x00\x00The Core'
tRp4486
I00
S'http://www.web2py.com/book/default/chapter/04'
tp4487
a(g3742
(S's\t\x00\x00\x00The Views'
tRp4488
I00
S'http://www.web2py.com/book/default/chapter/05'
tp4489
a(g3742
(S's\r\x00\x00\x00Base de datos'
tRp4490
I00
S'http://www.web2py.com/book/default/chapter/06'
tp4491
a(g3742
(S's\x14\x00\x00\x00Forms and Validators'
tRp4492
I00
S'http://www.web2py.com/book/default/chapter/07'
tp4493
a(g3742
(S's\x0e\x00\x00\x00Access Control'
tRp4494
I00
S'http://www.web2py.com/book/default/chapter/08'
tp4495
a(g3742
(S't\x08\x00\x00\x00Services'
tRp4496
I00
S'http://www.web2py.com/book/default/chapter/09'
tp4497
a(g3742
(S's\x0c\x00\x00\x00Ajax Recipes'
tRp4498
I00
S'http://www.web2py.com/book/default/chapter/10'
tp4499
a(g3742
(S's\x12\x00\x00\x00Deployment Recipes'
tRp4500
I00
S'http://www.web2py.com/book/default/chapter/11'
tp4501
a(g3742
(S's\r\x00\x00\x00Other Recipes'
tRp4502
I00
S'http://www.web2py.com/book/default/chapter/12'
tp4503
a(g3742
(S's\r\x00\x00\x00Buy this book'
tRp4504
I00
S'http://stores.lulu.com/web2py'
tp4505
aasbasbasbasbasbasbasbag48
(g64
g50
NtRp4506
(dp4507
g53
(dp4508
sg62
g4407
sg55
(lp4509
g48
(g69
g50
NtRp4510
(dp4511
g53
(dp4512
sg62
g4506
sg55
(lp4513
g48
(g49
g50
NtRp4514
(dp4515
g53
(dp4516
g61
I2
ssg62
g4510
sg55
(lp4517
g48
(g57
g50
NtRp4518
(dp4519
g53
(dp4520
g61
I1
ssg62
Nsg55
(lp4521
g48
(g64
g50
NtRp4522
(dp4523
g53
(dp4524
sg62
g4518
sg55
(lp4525
g48
(g69
g50
NtRp4526
(dp4527
g53
(dp4528
sg62
g4522
sg55
(lp4529
g48
(g49
g50
NtRp4530
(dp4531
g53
(dp4532
g61
I1
ssg62
g4526
sg55
(lp4533
g3742
(S't\t\x00\x00\x00Community'
tRp4534
asbasbasbag48
(g64
g50
NtRp4535
(dp4536
g53
(dp4537
sg62
g4518
sg55
(lp4538
g48
(g69
g50
NtRp4539
(dp4540
g53
(dp4541
sg62
g4535
sg55
(lp4542
g48
(g49
g50
NtRp4543
(dp4544
g53
(dp4545
g61
I1
ssg62
g4539
sg55
(lp4546
I00
asbasbasbag48
(g64
g50
NtRp4547
(dp4548
g53
(dp4549
sg62
g4518
sg55
(lp4550
g48
(g69
g50
NtRp4551
(dp4552
g53
(dp4553
sg62
g4547
sg55
(lp4554
g48
(g49
g50
NtRp4555
(dp4556
g53
(dp4557
g61
I1
ssg62
g4551
sg55
(lp4558
Nasbasbasbag48
(g64
g50
NtRp4559
(dp4560
g53
(dp4561
sg62
g4518
sg55
(lp4562
g48
(g69
g50
NtRp4563
(dp4564
g53
(dp4565
sg62
g4559
sg55
(lp4566
g48
(g49
g50
NtRp4567
(dp4568
g53
(dp4569
g61
I1
ssg62
g4563
sg55
(lp4570
(lp4571
(g3742
(S't\x06\x00\x00\x00Groups'
tRp4572
I00
S'http://www.web2py.com/examples/default/usergroups'
tp4573
a(g3742
(S't\x07\x00\x00\x00Twitter'
tRp4574
I00
S'http://twitter.com/web2py'
tp4575
a(g3742
(S's\t\x00\x00\x00Live chat'
tRp4576
I00
S'http://mibbit.com/?channel=%23web2py&server=irc.mibbit.net'
tp4577
a(g3742
(S's\n\x00\x00\x00User Voice'
tRp4578
I00
S'http://web2py.uservoice.com/'
tp4579
aasbasbasbasbasbasbasbag48
(g64
g50
NtRp4580
(dp4581
g53
(dp4582
sg62
g4407
sg55
(lp4583
g48
(g69
g50
NtRp4584
(dp4585
g53
(dp4586
sg62
g4580
sg55
(lp4587
g48
(g49
g50
NtRp4588
(dp4589
g53
(dp4590
g61
I2
ssg62
g4584
sg55
(lp4591
g48
(g57
g50
NtRp4592
(dp4593
g53
(dp4594
g61
I1
ssg62
Nsg55
(lp4595
g48
(g64
g50
NtRp4596
(dp4597
g53
(dp4598
sg62
g4592
sg55
(lp4599
g48
(g69
g50
NtRp4600
(dp4601
g53
(dp4602
sg62
g4596
sg55
(lp4603
g48
(g49
g50
NtRp4604
(dp4605
g53
(dp4606
g61
I1
ssg62
g4600
sg55
(lp4607
g3742
(S't\x06\x00\x00\x00Web2py'
tRp4608
asbasbasbag48
(g64
g50
NtRp4609
(dp4610
g53
(dp4611
sg62
g4592
sg55
(lp4612
g48
(g69
g50
NtRp4613
(dp4614
g53
(dp4615
sg62
g4609
sg55
(lp4616
g48
(g49
g50
NtRp4617
(dp4618
g53
(dp4619
g61
I1
ssg62
g4613
sg55
(lp4620
I00
asbasbasbag48
(g64
g50
NtRp4621
(dp4622
g53
(dp4623
sg62
g4592
sg55
(lp4624
g48
(g69
g50
NtRp4625
(dp4626
g53
(dp4627
sg62
g4621
sg55
(lp4628
g48
(g49
g50
NtRp4629
(dp4630
g53
(dp4631
g61
I1
ssg62
g4625
sg55
(lp4632
S'http://www.web2py.com'
p4633
asbasbasbag48
(g64
g50
NtRp4634
(dp4635
g53
(dp4636
sg62
g4592
sg55
(lp4637
g48
(g69
g50
NtRp4638
(dp4639
g53
(dp4640
sg62
g4634
sg55
(lp4641
g48
(g49
g50
NtRp4642
(dp4643
g53
(dp4644
g61
I1
ssg62
g4638
sg55
(lp4645
(lp4646
(g3742
(S't\x08\x00\x00\x00Download'
tRp4647
I00
S'http://www.web2py.com/examples/default/download'
tp4648
a(g3742
(S't\x07\x00\x00\x00Support'
tRp4649
I00
S'http://www.web2py.com/examples/default/support'
tp4650
a(g3742
(S's\x0e\x00\x00\x00Quick Examples'
tRp4651
I00
S'http://web2py.com/examples/default/examples'
tp4652
a(g3742
(S't\x03\x00\x00\x00FAQ'
tRp4653
I00
S'http://web2py.com/AlterEgo'
tp4654
a(g3742
(S's\x11\x00\x00\x00Free Applications'
tRp4655
I00
S'http://web2py.com/appliances'
tp4656
a(g3742
(S't\x07\x00\x00\x00Plugins'
tRp4657
I00
S'http://web2py.com/plugins'
tp4658
a(g3742
(S't\x07\x00\x00\x00Recipes'
tRp4659
I00
S'http://web2pyslices.com/'
tp4660
a(g3742
(S't\x04\x00\x00\x00Demo'
tRp4661
I00
S'http://web2py.com/demo_admin'
tp4662
a(g3742
(S't\x08\x00\x00\x00Semantic'
tRp4663
I00
S'http://web2py.com/semantic'
tp4664
a(g3742
(S't\x07\x00\x00\x00Layouts'
tRp4665
I00
S'http://web2py.com/layouts'
tp4666
a(g3742
(S't\x06\x00\x00\x00Videos'
tRp4667
I00
S'http://www.web2py.com/examples/default/videos/'
tp4668
aasbasbasbasbasbasbasbasbasbasbasbasbasbasbasbasbasbasbasbag48
(g64
g50
NtRp4669
(dp4670
g53
(dp4671
sg62
g3191
sg55
(lp4672
g48
(g69
g50
NtRp4673
(dp4674
g53
(dp4675
g73
g74
ssg62
g4669
sg55
(lp4676
S'meta'
p4677
asbag48
(g69
g50
NtRp4678
(dp4679
g53
(dp4680
g80
g81
ssg62
g4669
sg55
(lp4681
S':'
asbag48
(g69
g50
NtRp4682
(dp4683
g53
(dp4684
sg62
g4669
sg55
(lp4685
g48
(g49
g50
NtRp4686
(dp4687
g53
(dp4688
g61
I5
ssg62
g4682
sg55
(lp4689
g48
(g57
g50
NtRp4690
(dp4691
g53
(dp4692
g61
I4
ssg62
Nsg55
(lp4693
g48
(g64
g50
NtRp4694
(dp4695
g53
(dp4696
sg62
g4690
sg55
(lp4697
g48
(g69
g50
NtRp4698
(dp4699
g53
(dp4700
g73
g74
ssg62
g4694
sg55
(lp4701
S'author'
p4702
asbag48
(g69
g50
NtRp4703
(dp4704
g53
(dp4705
g80
g81
ssg62
g4694
sg55
(lp4706
S':'
asbag48
(g69
g50
NtRp4707
(dp4708
g53
(dp4709
sg62
g4694
sg55
(lp4710
g48
(g49
g50
NtRp4711
(dp4712
g53
(dp4713
g61
I4
ssg62
g4707
sg55
(lp4714
S'you'
p4715
asbasbasbag48
(g64
g50
NtRp4716
(dp4717
g53
(dp4718
sg62
g4690
sg55
(lp4719
g48
(g69
g50
NtRp4720
(dp4721
g53
(dp4722
g73
g74
ssg62
g4716
sg55
(lp4723
S'copyright'
p4724
asbag48
(g69
g50
NtRp4725
(dp4726
g53
(dp4727
g80
g81
ssg62
g4716
sg55
(lp4728
S':'
asbag48
(g69
g50
NtRp4729
(dp4730
g53
(dp4731
sg62
g4716
sg55
(lp4732
g48
(g49
g50
NtRp4733
(dp4734
g53
(dp4735
g61
I4
ssg62
g4729
sg55
(lp4736
S'Copyright 2007-2010'
p4737
asbasbasbag48
(g64
g50
NtRp4738
(dp4739
g53
(dp4740
sg62
g4690
sg55
(lp4741
g48
(g69
g50
NtRp4742
(dp4743
g53
(dp4744
g73
g74
ssg62
g4738
sg55
(lp4745
S'description'
p4746
asbag48
(g69
g50
NtRp4747
(dp4748
g53
(dp4749
g80
g81
ssg62
g4738
sg55
(lp4750
S':'
asbag48
(g69
g50
NtRp4751
(dp4752
g53
(dp4753
sg62
g4738
sg55
(lp4754
g48
(g49
g50
NtRp4755
(dp4756
g53
(dp4757
g61
I4
ssg62
g4751
sg55
(lp4758
S'Free and open source full-stack enterprise framework for agile development of fast, scalable, secure and portable database-driven web-based applications. Written and programmable in Python'
p4759
asbasbasbag48
(g64
g50
NtRp4760
(dp4761
g53
(dp4762
sg62
g4690
sg55
(lp4763
g48
(g69
g50
NtRp4764
(dp4765
g53
(dp4766
g73
g74
ssg62
g4760
sg55
(lp4767
S'generator'
p4768
asbag48
(g69
g50
NtRp4769
(dp4770
g53
(dp4771
g80
g81
ssg62
g4760
sg55
(lp4772
S':'
asbag48
(g69
g50
NtRp4773
(dp4774
g53
(dp4775
sg62
g4760
sg55
(lp4776
g48
(g49
g50
NtRp4777
(dp4778
g53
(dp4779
g61
I4
ssg62
g4773
sg55
(lp4780
S'Web2py Enterprise Framework'
p4781
asbasbasbag48
(g64
g50
NtRp4782
(dp4783
g53
(dp4784
sg62
g4690
sg55
(lp4785
g48
(g69
g50
NtRp4786
(dp4787
g53
(dp4788
g73
g74
ssg62
g4782
sg55
(lp4789
S'keywords'
p4790
asbag48
(g69
g50
NtRp4791
(dp4792
g53
(dp4793
g80
g81
ssg62
g4782
sg55
(lp4794
S':'
asbag48
(g69
g50
NtRp4795
(dp4796
g53
(dp4797
sg62
g4782
sg55
(lp4798
g48
(g49
g50
NtRp4799
(dp4800
g53
(dp4801
g61
I4
ssg62
g4795
sg55
(lp4802
S'web2py, python, framework'
p4803
asbasbasbasbasbasbasbag48
(g64
g50
NtRp4804
(dp4805
g53
(dp4806
sg62
g3191
sg55
(lp4807
g48
(g69
g50
NtRp4808
(dp4809
g53
(dp4810
g73
g74
ssg62
g4804
sg55
(lp4811
S'postprocessing'
p4812
asbag48
(g69
g50
NtRp4813
(dp4814
g53
(dp4815
g80
g81
ssg62
g4804
sg55
(lp4816
S':'
asbag48
(g69
g50
NtRp4817
(dp4818
g53
(dp4819
sg62
g4804
sg55
(lp4820
g48
(g49
g50
NtRp4821
(dp4822
g53
(dp4823
g61
I5
ssg62
g4817
sg55
(lp4824
g48
(g57
g50
NtRp4825
(dp4826
g53
(dp4827
g61
I4
ssg62
Nsg55
(lp4828
sbasbasbasbag48
(g64
g50
NtRp4829
(dp4830
g53
(dp4831
sg62
g3191
sg55
(lp4832
g48
(g69
g50
NtRp4833
(dp4834
g53
(dp4835
g73
g74
ssg62
g4829
sg55
(lp4836
S'session_file'
p4837
asbag48
(g69
g50
NtRp4838
(dp4839
g53
(dp4840
g80
g81
ssg62
g4829
sg55
(lp4841
S':'
asbag48
(g69
g50
NtRp4842
(dp4843
g53
(dp4844
sg62
g4829
sg55
(lp4845
g48
(g49
g50
NtRp4846
(dp4847
g53
(dp4848
g61
I5
ssg62
g4842
sg55
(lp4849
S"<open file 'C:\\Users\\Atomico\\web2py\\applications\\Desglosar_Emails\\sessions\\127.0.0.1-78cf8050-df87-4502-afb9-ed0c3843b414', mode 'rb+' at 0x07C9B8D8>"
p4850
asbasbasbag48
(g64
g50
NtRp4851
(dp4852
g53
(dp4853
sg62
g3191
sg55
(lp4854
g48
(g69
g50
NtRp4855
(dp4856
g53
(dp4857
g73
g74
ssg62
g4851
sg55
(lp4858
S'session_filename'
p4859
asbag48
(g69
g50
NtRp4860
(dp4861
g53
(dp4862
g80
g81
ssg62
g4851
sg55
(lp4863
S':'
asbag48
(g69
g50
NtRp4864
(dp4865
g53
(dp4866
sg62
g4851
sg55
(lp4867
g48
(g49
g50
NtRp4868
(dp4869
g53
(dp4870
g61
I5
ssg62
g4864
sg55
(lp4871
S'C:\\Users\\Atomico\\web2py\\applications\\Desglosar_Emails\\sessions\\127.0.0.1-78cf8050-df87-4502-afb9-ed0c3843b414'
p4872
asbasbasbag48
(g64
g50
NtRp4873
(dp4874
g53
(dp4875
sg62
g3191
sg55
(lp4876
g48
(g69
g50
NtRp4877
(dp4878
g53
(dp4879
g73
g74
ssg62
g4873
sg55
(lp4880
S'session_id'
p4881
asbag48
(g69
g50
NtRp4882
(dp4883
g53
(dp4884
g80
g81
ssg62
g4873
sg55
(lp4885
S':'
asbag48
(g69
g50
NtRp4886
(dp4887
g53
(dp4888
sg62
g4873
sg55
(lp4889
g48
(g49
g50
NtRp4890
(dp4891
g53
(dp4892
g61
I5
ssg62
g4886
sg55
(lp4893
S'127.0.0.1-78cf8050-df87-4502-afb9-ed0c3843b414'
p4894
asbasbasbag48
(g64
g50
NtRp4895
(dp4896
g53
(dp4897
sg62
g3191
sg55
(lp4898
g48
(g69
g50
NtRp4899
(dp4900
g53
(dp4901
g73
g74
ssg62
g4895
sg55
(lp4902
S'session_id_name'
p4903
asbag48
(g69
g50
NtRp4904
(dp4905
g53
(dp4906
g80
g81
ssg62
g4895
sg55
(lp4907
S':'
asbag48
(g69
g50
NtRp4908
(dp4909
g53
(dp4910
sg62
g4895
sg55
(lp4911
g48
(g49
g50
NtRp4912
(dp4913
g53
(dp4914
g61
I5
ssg62
g4908
sg55
(lp4915
g3248
asbasbasbag48
(g64
g50
NtRp4916
(dp4917
g53
(dp4918
sg62
g3191
sg55
(lp4919
g48
(g69
g50
NtRp4920
(dp4921
g53
(dp4922
g73
g74
ssg62
g4916
sg55
(lp4923
S'session_locked'
p4924
asbag48
(g69
g50
NtRp4925
(dp4926
g53
(dp4927
g80
g81
ssg62
g4916
sg55
(lp4928
S':'
asbag48
(g69
g50
NtRp4929
(dp4930
g53
(dp4931
sg62
g4916
sg55
(lp4932
g48
(g49
g50
NtRp4933
(dp4934
g53
(dp4935
g61
I5
ssg62
g4929
sg55
(lp4936
g1959
asbasbasbag48
(g64
g50
NtRp4937
(dp4938
g53
(dp4939
sg62
g3191
sg55
(lp4940
g48
(g69
g50
NtRp4941
(dp4942
g53
(dp4943
g73
g74
ssg62
g4937
sg55
(lp4944
S'session_new'
p4945
asbag48
(g69
g50
NtRp4946
(dp4947
g53
(dp4948
g80
g81
ssg62
g4937
sg55
(lp4949
S':'
asbag48
(g69
g50
NtRp4950
(dp4951
g53
(dp4952
sg62
g4937
sg55
(lp4953
g48
(g49
g50
NtRp4954
(dp4955
g53
(dp4956
g61
I5
ssg62
g4950
sg55
(lp4957
g91
asbasbasbag48
(g64
g50
NtRp4958
(dp4959
g53
(dp4960
sg62
g3191
sg55
(lp4961
g48
(g69
g50
NtRp4962
(dp4963
g53
(dp4964
g73
g74
ssg62
g4958
sg55
(lp4965
S'status'
p4966
asbag48
(g69
g50
NtRp4967
(dp4968
g53
(dp4969
g80
g81
ssg62
g4958
sg55
(lp4970
S':'
asbag48
(g69
g50
NtRp4971
(dp4972
g53
(dp4973
sg62
g4958
sg55
(lp4974
g48
(g49
g50
NtRp4975
(dp4976
g53
(dp4977
g61
I5
ssg62
g4971
sg55
(lp4978
S'200'
p4979
asbasbasbag48
(g64
g50
NtRp4980
(dp4981
g53
(dp4982
sg62
g3191
sg55
(lp4983
g48
(g69
g50
NtRp4984
(dp4985
g53
(dp4986
g73
g74
ssg62
g4980
sg55
(lp4987
S'subtitle'
p4988
asbag48
(g69
g50
NtRp4989
(dp4990
g53
(dp4991
g80
g81
ssg62
g4980
sg55
(lp4992
S':'
asbag48
(g69
g50
NtRp4993
(dp4994
g53
(dp4995
sg62
g4980
sg55
(lp4996
g48
(g49
g50
NtRp4997
(dp4998
g53
(dp4999
g61
I5
ssg62
g4993
sg55
(lp5000
g3742
(S's\t\x00\x00\x00Adaptame!'
tRp5001
asbasbasbag48
(g64
g50
NtRp5002
(dp5003
g53
(dp5004
sg62
g3191
sg55
(lp5005
g48
(g69
g50
NtRp5006
(dp5007
g53
(dp5008
g73
g74
ssg62
g5002
sg55
(lp5009
S'title'
p5010
asbag48
(g69
g50
NtRp5011
(dp5012
g53
(dp5013
g80
g81
ssg62
g5002
sg55
(lp5014
S':'
asbag48
(g69
g50
NtRp5015
(dp5016
g53
(dp5017
sg62
g5002
sg55
(lp5018
g48
(g49
g50
NtRp5019
(dp5020
g53
(dp5021
g61
I5
ssg62
g5015
sg55
(lp5022
g113
asbasbasbag48
(g64
g50
NtRp5023
(dp5024
g53
(dp5025
sg62
g3191
sg55
(lp5026
g48
(g69
g50
NtRp5027
(dp5028
g53
(dp5029
g73
g74
ssg62
g5023
sg55
(lp5030
g2304
asbag48
(g69
g50
NtRp5031
(dp5032
g53
(dp5033
g80
g81
ssg62
g5023
sg55
(lp5034
S':'
asbag48
(g69
g50
NtRp5035
(dp5036
g53
(dp5037
sg62
g5023
sg55
(lp5038
g48
(g49
g50
NtRp5039
(dp5040
g53
(dp5041
g61
I5
ssg62
g5035
sg55
(lp5042
g2317
asbasbasbag48
(g64
g50
NtRp5043
(dp5044
g53
(dp5045
sg62
g3191
sg55
(lp5046
g48
(g69
g50
NtRp5047
(dp5048
g53
(dp5049
g73
g74
ssg62
g5043
sg55
(lp5050
S'view'
p5051
asbag48
(g69
g50
NtRp5052
(dp5053
g53
(dp5054
g80
g81
ssg62
g5043
sg55
(lp5055
S':'
asbag48
(g69
g50
NtRp5056
(dp5057
g53
(dp5058
sg62
g5043
sg55
(lp5059
g48
(g49
g50
NtRp5060
(dp5061
g53
(dp5062
g61
I5
ssg62
g5056
sg55
(lp5063
S'default/relaciones.html'
p5064
asbasbasbasbasbsS'locals'
p5065
(dp5066
S'OBJECT'
p5067
S"<class 'gluon.html.OBJECT'>"
p5068
sS'_file'
p5069
S"'/Desglosar_Emails/static/js/superfish.js'"
p5070
sS'SQLDB'
p5071
S"<class 'gluon.dal.DAL'>"
p5072
sg3130
S"<Storage {'_formkey[contactos/34]': 'f6636850-a8...fault]': '0ae1897a-e2dc-4c68-8217-0adaa8db029f'}>"
p5073
sS'LINK'
p5074
S"<class 'gluon.html.LINK'>"
p5075
sS'BR'
p5076
S"<class 'gluon.html.BR'>"
p5077
sS'local_import'
p5078
S'<function <lambda> at 0x07C9C230>'
p5079
sS'OPTGROUP'
p5080
S"<class 'gluon.html.OPTGROUP'>"
p5081
sS'PRE'
p5082
S"<class 'gluon.html.PRE'>"
p5083
sS'IS_INT_IN_RANGE'
p5084
S"<class 'gluon.validators.IS_INT_IN_RANGE'>"
p5085
sS'left_sidebar_enabled'
p5086
g91
sS'IS_LOWER'
p5087
S"<class 'gluon.validators.IS_LOWER'>"
p5088
sS'IS_STRONG'
p5089
S"<class 'gluon.validators.IS_STRONG'>"
p5090
sS'cache'
p5091
S'<gluon.cache.Cache object at 0x0825AF90>'
p5092
sS'IS_IN_DB'
p5093
S"<class 'gluon.validators.IS_IN_DB'>"
p5094
sS'TAG'
p5095
S'<gluon.html.__TAG__ object at 0x0295F710>'
p5096
sS'_k'
p5097
S'5'
sS'SQLField'
p5098
S"<class 'gluon.dal.Field'>"
p5099
sS'BODY'
p5100
S"<class 'gluon.html.BODY'>"
p5101
sS'IS_DATE_IN_RANGE'
p5102
S"<class 'gluon.validators.IS_DATE_IN_RANGE'>"
p5103
sS'TH'
p5104
S"<class 'gluon.html.TH'>"
p5105
sS'URL'
p5106
S'<function URL at 0x029B0870>'
p5107
sS'__file__'
p5108
S"r'C:\\Users\\Atomico\\web2py\\applications\\Desglosar_Emails\\views\\default/relaciones.html'"
p5109
sS'db'
p5110
S"<DAL {'persona': <Table {'ALL': <gluon.dal.SQLAL...ing_references': {}, '_uri': 'sqlite://mydb.db'}>"
p5111
sS'P'
S"<class 'gluon.html.P'>"
p5112
sS'TFOOT'
p5113
S"<class 'gluon.html.TFOOT'>"
p5114
sS'XHTML'
p5115
S"<class 'gluon.html.XHTML'>"
p5116
sS'ON'
p5117
g1959
sS'OL'
p5118
S"<class 'gluon.html.OL'>"
p5119
sS'TEXTAREA'
p5120
S"<class 'gluon.html.TEXTAREA'>"
p5121
sS'MENU'
p5122
S"<class 'gluon.html.MENU'>"
p5123
sS'_file0'
p5124
S"'/desglosar_emails/static/js/superfish.js'"
p5125
sS'p'
S'<_sre.SRE_Pattern object at 0x07DE0BF0>'
p5126
sS'LOAD'
p5127
S'<gluon.compileapp.LoadFactory object at 0x07CD2090>'
p5128
sS'CODE'
p5129
S"<class 'gluon.html.CODE'>"
p5130
sS'HTTP'
p5131
S"<class 'gluon.http.HTTP'>"
p5132
sS'HR'
p5133
S"<class 'gluon.html.HR'>"
p5134
sS'IS_DATETIME'
p5135
S"<class 'gluon.validators.IS_DATETIME'>"
p5136
sS'HEAD'
p5137
S"<class 'gluon.html.HEAD'>"
p5138
sS'LABEL'
p5139
S"<class 'gluon.html.LABEL'>"
p5140
sS'CLEANUP'
p5141
S"<class 'gluon.validators.CLEANUP'>"
p5142
sS'SELECT'
p5143
S"<class 'gluon.html.SELECT'>"
p5144
sS'CENTER'
p5145
S"<class 'gluon.html.CENTER'>"
p5146
sS'left_sidebar_style'
p5147
S'\'style="display: none;"\''
p5148
sS'form2'
p5149
S'<gluon.html.FORM object at 0x082C3890>'
p5150
sS'__builtins__'
p5151
S"{'ArithmeticError': <type 'exceptions.ArithmeticError'>, 'AssertionError': <type 'exceptions.AssertionError'>, 'AttributeError': <type 'exceptions.AttributeError'>, 'BaseException': <type 'exceptions.BaseException'>, 'DeprecationWarning': <type 'exceptions.DeprecationWarning'>, 'EOFError': <type 'exceptions.EOFError'>, 'Ellipsis': Ellipsis, 'EnvironmentError': <type 'exceptions.EnvironmentError'>, 'Exception': <type 'exceptions.Exception'>, 'False': False, ...}"
p5152
sS'IS_LIST_OF'
p5153
S"<class 'gluon.validators.IS_LIST_OF'>"
p5154
sS'SQLFORM'
p5155
S"<class 'gluon.sqlhtml.SQLFORM'>"
p5156
sS'_item'
p5157
S"'author'"
p5158
sS'EM'
p5159
S"<class 'gluon.html.EM'>"
p5160
sS'redirect'
p5161
S'<function redirect at 0x026393B0>'
p5162
sS'FIELDSET'
p5163
S"<class 'gluon.html.FIELDSET'>"
p5164
sS'IS_EQUAL_TO'
p5165
S"<class 'gluon.validators.IS_EQUAL_TO'>"
p5166
sS'embed64'
p5167
S'<function embed64 at 0x029B43B0>'
p5168
sS'INPUT'
p5169
S"<class 'gluon.html.INPUT'>"
p5170
sS'EMBED'
p5171
S"<class 'gluon.html.EMBED'>"
p5172
sS'FORM'
p5173
S"<class 'gluon.html.FORM'>"
p5174
sS'width_content'
p5175
S"'100%'"
p5176
sS'H2'
p5177
S"<class 'gluon.html.H2'>"
p5178
sS'H3'
p5179
S"<class 'gluon.html.H3'>"
p5180
sS'BUTTON'
p5181
S"<class 'gluon.html.BUTTON'>"
p5182
sS'H1'
p5183
S"<class 'gluon.html.H1'>"
p5184
sS'H6'
p5185
S"<class 'gluon.html.H6'>"
p5186
sS'H4'
p5187
S"<class 'gluon.html.H4'>"
p5188
sS'H5'
p5189
S"<class 'gluon.html.H5'>"
p5190
sS'UL'
p5191
S"<class 'gluon.html.UL'>"
p5192
sS'IS_UPPER'
p5193
S"<class 'gluon.validators.IS_UPPER'>"
p5194
sS'xmlescape'
p5195
S'<function xmlescape at 0x029B0830>'
p5196
sS'IS_TIME'
p5197
S"<class 'gluon.validators.IS_TIME'>"
p5198
sS'OPTION'
p5199
S"<class 'gluon.html.OPTION'>"
p5200
sS'TITLE'
p5201
S"<class 'gluon.html.TITLE'>"
p5202
sS'CRYPT'
p5203
S"<class 'gluon.validators.CRYPT'>"
p5204
sS'IS_EMPTY_OR'
p5205
S"<class 'gluon.validators.IS_EMPTY_OR'>"
p5206
sS'MARKMIN'
p5207
S"<class 'gluon.html.MARKMIN'>"
p5208
sS'txt'
p5209
S"'mi perro tiene rabo'"
p5210
sS'SCRIPT'
p5211
S"<class 'gluon.html.SCRIPT'>"
p5212
sS'TABLE'
p5213
S"<class 'gluon.html.TABLE'>"
p5214
sS'IS_IPV4'
p5215
S"<class 'gluon.validators.IS_IPV4'>"
p5216
sS'IS_LENGTH'
p5217
S"<class 'gluon.validators.IS_LENGTH'>"
p5218
sS'XML'
p5219
S"<class 'gluon.html.XML'>"
p5220
sS'B'
S"<class 'gluon.html.B'>"
p5221
sS'form'
p5222
S'<gluon.html.FORM object at 0x082C3C70>'
p5223
sS'SQLTABLE'
p5224
S"<class 'gluon.sqlhtml.SQLTABLE'>"
p5225
sS'IS_MATCH'
p5226
S"<class 'gluon.validators.IS_MATCH'>"
p5227
sS'IS_ALPHANUMERIC'
p5228
S"<class 'gluon.validators.IS_ALPHANUMERIC'>"
p5229
sS'SPAN'
p5230
S"<class 'gluon.html.SPAN'>"
p5231
sS'IS_SLUG'
p5232
S"<class 'gluon.validators.IS_SLUG'>"
p5233
sS'BEAUTIFY'
p5234
S"<class 'gluon.html.BEAUTIFY'>"
p5235
sS'META'
p5236
S"<class 'gluon.html.META'>"
p5237
sS'cad'
p5238
S"'Que si'"
p5239
sS'IS_DATE'
p5240
S"<class 'gluon.validators.IS_DATE'>"
p5241
sS'IS_EMAIL'
p5242
S"<class 'gluon.validators.IS_EMAIL'>"
p5243
sS'IS_NOT_EMPTY'
p5244
S"<class 'gluon.validators.IS_NOT_EMPTY'>"
p5245
sg47
S"<Storage {'is_local': True, 'function': 'relacio....13-59-47.d128a26b-0e54-4d70-a4d9-987b81060a21'}>"
p5246
sS'TBODY'
p5247
S"<class 'gluon.html.TBODY'>"
p5248
sS'CAT'
p5249
S"<class 'gluon.html.CAT'>"
p5250
sS'Field'
p5251
S"<class 'gluon.dal.Field'>"
p5252
sS'DIV'
p5253
S"<class 'gluon.html.DIV'>"
p5254
sS'LEGEND'
p5255
S"<class 'gluon.html.LEGEND'>"
p5256
sS'IMG'
p5257
S"<class 'gluon.html.IMG'>"
p5258
sS'DAL'
p5259
S"<class 'gluon.dal.DAL'>"
p5260
sS'TT'
p5261
S"<class 'gluon.html.TT'>"
p5262
sS'TR'
p5263
S"<class 'gluon.html.TR'>"
p5264
sS'LI'
p5265
S"<class 'gluon.html.LI'>"
p5266
sS'right_sidebar_enabled'
p5267
g91
sS'IFRAME'
p5268
S"<class 'gluon.html.IFRAME'>"
p5269
sS'TD'
p5270
S"<class 'gluon.html.TD'>"
p5271
sS'IS_URL'
p5272
S"<class 'gluon.validators.IS_URL'>"
p5273
sS'A'
S"<class 'gluon.html.A'>"
p5274
sS'STYLE'
p5275
S"<class 'gluon.html.STYLE'>"
p5276
sS'IS_DATETIME_IN_RANGE'
p5277
S"<class 'gluon.validators.IS_DATETIME_IN_RANGE'>"
p5278
sS'HTML'
p5279
S"<class 'gluon.html.HTML'>"
p5280
sS'IS_IMAGE'
p5281
S"<class 'gluon.validators.IS_IMAGE'>"
p5282
sS'I'
S"<class 'gluon.html.I'>"
p5283
sS'right_sidebar_style'
p5284
S'\'style="display: none;"\''
p5285
sS'IS_NOT_IN_DB'
p5286
S"<class 'gluon.validators.IS_NOT_IN_DB'>"
p5287
sg3186
S"<Storage {'body': <cStringIO.StringO object at 0... 0x07DF9C30>, 'view': 'default/relaciones.html'}>"
p5288
sS'THEAD'
p5289
S"<class 'gluon.html.THEAD'>"
p5290
sS'IS_NULL_OR'
p5291
S"<class 'gluon.validators.IS_EMPTY_OR'>"
p5292
sS'IS_FLOAT_IN_RANGE'
p5293
S"<class 'gluon.validators.IS_FLOAT_IN_RANGE'>"
p5294
sS'IS_EXPR'
p5295
S"<class 'gluon.validators.IS_EXPR'>"
p5296
sS'T'
S'<gluon.languages.translator object at 0x082C6B90>'
p5297
sS'IS_IN_SET'
p5298
S"<class 'gluon.validators.IS_IN_SET'>"
p5299
sS'IS_UPLOAD_FILENAME'
p5300
S"<class 'gluon.validators.IS_UPLOAD_FILENAME'>"
p5301
sS'style_content'
p5302
S'\'style="width: 100%"\''
p5303
sS're'
p5304
S"<module 're' from 'C:\\Users\\Atomico\\web2py\\library.zip\\re.pyc'>"
p5305
sS'IS_DECIMAL_IN_RANGE'
p5306
S"<class 'gluon.validators.IS_DECIMAL_IN_RANGE'>"
p5307
sssS'traceback'
p5308
S'Traceback (most recent call last):\n  File "gluon/restricted.py", line 192, in restricted\n  File "C:\\Users\\Atomico\\web2py\\applications\\Desglosar_Emails\\views\\default/relaciones.html", line 110, in <module>\nNameError: name \'texto\' is not defined\n'
p5309
s.