(dp1
S'output'
p2
S''
sS'layer'
p3
S'C:\\Users\\Atomico\\web2py\\applications\\Desglosar_Emails\\views\\default/entrada_mod3.html'
p4
sS'code'
p5
S'response.write(\'<!DOCTYPE html>\\n<html lang="\', escape=False)\nresponse.write(T.accepted_language or \'en\')\nresponse.write(\'" class="no-js"><!-- no-js need it for modernzr -->\\n  <head>\\n    \\n    <meta charset="utf-8" />\\t  \\t\\n    <!-- www.phpied.com/conditional-comments-block-downloads/ -->\\n    <!--[if IE]><![endif]-->    \\n    <!-- Always force latest IE rendering engine \\n\\t (even in intranet) & Chrome Frame \\n\\t Remove this if you use the .htaccess -->\\n    <meta http-equiv="X-UA-Compatible" content="IE=edge,chrome=1">\\n    \\n    <title>\', escape=False)\nresponse.write(response.title or request.application)\nresponse.write(\'</title>\\n    \\n    <!-- http://dev.w3.org/html5/markup/meta.name.html -->\\n    <meta name="application-name" content="\', escape=False)\nresponse.write(request.application)\nresponse.write(\'" />\\t\\n    \\n    <!-- Speaking of Google, don\\\'t forget to set your site up: \\n\\t http://google.com/webmasters -->\\n    <meta name="google-site-verification" content="" />\\n    \\n    <!--  Mobile Viewport Fix\\n\\t  j.mp/mobileviewport & davidbcalhoun.com/2010/viewport-metatag \\n\\t  device-width: Occupy full width of the screen in its current orientation\\n\\t  initial-scale = 1.0 retains dimensions instead of zooming out if page height > device height\\n\\t  maximum-scale = 1.0 retains dimensions instead of zooming in if page width < device width\\n      -->\\n    <meta name="viewport" content="width=device-width, initial-scale=1.0, maximum-scale=1.0">\\n    \\n    <!-- Place favicon.ico and apple-touch-icon.png in the root of your domain and delete these references -->\\n    <link rel="shortcut icon" href="\', escape=False)\nresponse.write(URL(\'static\',\'favicon.ico\'))\nresponse.write(\'" type="image/x-icon">\\n    <link rel="apple-touch-icon" href="\', escape=False)\nresponse.write(URL(\'static\',\'favicon.png\'))\nresponse.write(\'">\\n\\n    <!-- For the less-enabled mobile browsers like Opera Mini -->\\n    <link rel="stylesheet" media="handheld" href="\', escape=False)\nresponse.write(URL(\'static\',\'css/handheld.css\'))\nresponse.write(\'">\\n    \\n    <!-- All JavaScript at the bottom, except for Modernizr which enables HTML5 elements & feature detects -->\\n    <script src="\', escape=False)\nresponse.write(URL(\'static\',\'js/modernizr-1.7.min.js\'))\nresponse.write(\'"></script>\\n    \\n    \', escape=False)\n#------  require CSS and JS files for this page (read info in base.css) ------\nresponse.write(\'\\n    \', escape=False)\nresponse.files.append(URL(\'static\',\'css/base.css\'))\nresponse.write(\'\\n    \', escape=False)\nresponse.files.append(URL(\'static\',\'css/superfish.css\'))\nresponse.write(\'\\n    \', escape=False)\nresponse.files.append(URL(\'static\',\'js/superfish.js\'))\nresponse.write(\'\\n    \', escape=False)\n#------ include web2py specific js code (jquery, calendar, form stuff) ------\nresponse.write(\'\\n    \', escape=False)\nresponse.files.insert(0,URL(\'static\',\'js/jquery.js\'))\nresponse.files.insert(1,URL(\'static\',\'css/calendar.css\'))\nresponse.files.insert(2,URL(\'static\',\'js/calendar.js\'))\nfor _item in response.meta or []:\n    response.write(\'\\n     <meta name="\', escape=False)\n    response.write(_item)\n    response.write(\'" content="\', escape=False)\n    response.write(response.meta[_item])\n    response.write(\'" />\', escape=False)\n    pass\nfor _k,_file in enumerate(response.files or []):\n    if _file in response.files[:_k]:\n        continue\n    _file0=_file.lower().split(\'?\')[0]\n    if _file0.endswith(\'.css\'):\n        response.write(\'\\n     <link href="\', escape=False)\n        response.write(_file)\n        response.write(\'" rel="stylesheet" type="text/css" />\', escape=False)\n    elif _file0.endswith(\'.js\'):\n        response.write(\'\\n     <script src="\', escape=False)\n        response.write(_file)\n        response.write(\'" type="text/javascript"></script>\', escape=False)\n        pass\n    pass\nresponse.write(\'\\n    <script type="text/javascript"><!--\\n    // These variables are used by the web2py_ajax_init function in web2py_ajax.js (which is loaded below).\\n    var w2p_ajax_confirm_message = "\', escape=False)\nresponse.write(T(\'Are you sure you want to delete this object?\'))\nresponse.write(\'";\\n    var w2p_ajax_date_format = "\', escape=False)\nresponse.write(T(\'%Y-%m-%d\'))\nresponse.write(\'";\\n    var w2p_ajax_datetime_format = "\', escape=False)\nresponse.write(T(\'%Y-%m-%d %H:%M:%S\'))\nresponse.write(\'";\\n    //--></script>\\n    <script src="\', escape=False)\nresponse.write(URL(\'static\',\'js/web2py_ajax.js\'))\nresponse.write(\'" type="text/javascript"></script>\\n\', escape=False)\nresponse.write(\'\\n\\n    \', escape=False)\n#using sidebars need to know what sidebar you want to use\n#prior of using it, because of static width size of content, you can use\n#left_sidebar, right_sidebar, both or none (False left and right)\nleft_sidebar_enabled = globals().get(\'left_sidebar_enabled\',False)\nright_sidebar_enabled = globals().get(\'right_sidebar_enabled\',False)\nif left_sidebar_enabled and right_sidebar_enabled: width_content=\'63%\'\nelif left_sidebar_enabled != right_sidebar_enabled: width_content=\'740px\'\nelse: width_content=\'100%\'\nif left_sidebar_enabled: left_sidebar_style = \'style="display: block;"\'\nelse: left_sidebar_style = \'style="display: none;"\'\nif right_sidebar_enabled: right_sidebar_style = \'style="display: block;"\'\nelse: right_sidebar_style = \'style="display: none;"\'\nstyle_content = \'style="width: %s"\' % width_content\nresponse.write(\'\\n  </head>\\n  \\n  <!-- paulirish.com/2008/conditional-stylesheets-vs-css-hacks-answer-neither/ -->\\t\\n  <!--[if lt IE 7 ]> <body class="ie6"> <![endif]-->\\n  <!--[if IE 7 ]>    <body class="ie7"> <![endif]-->\\n  <!--[if IE 8 ]>    <body class="ie8"> <![endif]-->\\n  <!--[if IE 9 ]>    <body class="ie9"> <![endif]-->\\n  <!--[if (gt IE 9)|!(IE)]><!--> <body> <!--<![endif]-->\\n    \\n    <div class="flash">\', escape=False)\nresponse.write(response.flash or \'\')\nresponse.write(\'</div> <!-- notification div -->\\n    \\n    <div id="container">\\t      \\t\\t      \\t\\n      \\n      <div id="wrapper">\\t\\t\\n\\t\\n\\t<div id="header"> <!-- header and login nav -->\\n\\t  \', escape=False)\nresponse.write(\' <!-- this is default header -->\\n\\t  \', escape=False)\ntry:\n    response.write(auth.navbar(action=URL(\'default\',\'user\')))\nexcept:pass\nresponse.write(\'\\t\\t          \\n\\t  <h1><span id="appname">\', escape=False)\nresponse.write(request.application.capitalize())\nresponse.write(\'</span>App</h1>\\n\\t  <div style="clear: both;"></div><!-- Clear the divs -->\\n\\t  \', escape=False)\nresponse.write(\'\\t\\t\\t\\t  \\t\\t\\t\\t\\t  \\n\\t</div><!-- header  -->\\n\\t\\n\\t<div id="statusbar"><!-- statusbar is menu zone -->\\n\\t  \', escape=False)\nresponse.write(\' <!-- this is default statusbar -->\\n\\t  \', escape=False)\n#------ superfish menu ------\nresponse.write(\'\\n\\t  \', escape=False)\nresponse.write(MENU(response.menu,_class=\'sf-menu\'))\nresponse.write(\'\\n\\t  <script type="text/javascript">\\n\\t    jQuery(document).ready(function(){\\n\\t    jQuery(\\\'ul.sf-menu\\\').superfish();});\\n\\t  </script>\\n\\t  <div style="clear: both;"></div><!-- Clear the divs -->\\t\\n\\t  \', escape=False)\nresponse.write(\'\\t\\t\\t\\t\\n\\t</div><!-- statusbar -->\\n\\t\\n\\t<div id="page"> <!-- Here my central body -->\\t  \\n\\n\\t  \', escape=False)\nif left_sidebar_enabled:\n    response.write(\'\\n          <div id="left_sidebar" \', escape=False)\n    response.write(XML(left_sidebar_style))\n    response.write(\' >\\n            <div style="padding: 4px;">\\n\\t      \', escape=False)\n    response.write(\'Content Left Sidebar\', escape=False)\n    response.write(\'\\t\\t  \\n            </div>\\n          </div><!-- left_sidebar -->\\n\\t  \', escape=False)\n    pass\nresponse.write(\'\\n\\n\\t  <!-- content -->\\n\\t  <div id="content" \', escape=False)\nresponse.write(XML(style_content))\nresponse.write(\' >\\n\\t    \', escape=False)\nresponse.write(\'\\r\\n<h1>Esta es la plantilla default/entrada_mod3.html</h1>\\r\\n<h2>Formulario</h2>\\r\\n\', escape=False)\nresponse.write(form)\nresponse.write(\'\\r\\n<br/>\\r\\n<h3>Tratamientos</h3>\\r\\n\', escape=False)\ntextual=db(db.info4.id==1).select()[0]\ntxt=textual.texto\nresponse.write(len(txt))\nresponse.write(\'\\r\\n es la longitud del texto.\\r\\n<br/> Claro: \\r\\n\\r\\n\', escape=False)\nimport re\npattern=re.compile("[\\w|\xc3\xb1|\xc3\x91]+.\\w+.\\w+")\npatternemail=re.compile("@\\w+[.]\\w+")\nclavos=[\'(\',\')\',\',\',\';\',\' \']\nres=pattern.findall(txt)\nresponse.write(len(res))\nfor i in res: response.write(i+\'<br>\',escape=False)\nres2=patternemail.findall(txt)\nresponse.write(len(res2))\nfor i in res2: response.write(i)\ni=0\ncon=0\nwhile i<len(res):\n    if patternemail.search(res[i])!=False:\n        contactos[con].nombre=res[i]\n        contactos[con].email=res[i+1]\n        i=i+2\n    elif patternemail.search(res[i]):\n        contactos[con].email=res[i]\n        i=i+1\n    else: response.write(\'Aqu\xc3\xad hay un problema\')\n    pass\npass\nresponse.write(\' \\r\\n es la posf\\r\\n\', escape=False)\nresponse.write(\'\\t\\n\\t  </div>\\n\\t  <!-- content -->\\n\\n\\t  \', escape=False)\nif right_sidebar_enabled:\n    response.write(\'\\n          <div id="right_sidebar" \', escape=False)\n    response.write(XML(right_sidebar_style))\n    response.write(\' >\\n            <div style="padding: 4px;">\\n              \', escape=False)\n    response.write(\'Content Right Sidebar\', escape=False)\n    response.write(\'\\n            </div>\\n\\t  </div><!-- right_sidebar -->\\n          \', escape=False)\n    pass\nresponse.write(\'\\n\\n\\n\\t  <div style="clear: both;"></div><!-- Clear the divs -->\\n\\t  \\n\\t</div><!-- page -->\\t\\t\\t\\t\\t\\t\\t\\n\\t\\n\\t<div id="footer">\\n\\t  \', escape=False)\nresponse.write(\' <!-- this is default footer -->\\n\\t  <a href="http://www.web2py.com/" style="float: left; padding-right: 6px;">\\n\\t    <img src="\', escape=False)\nresponse.write(URL(\'static\',\'images/poweredby.png\'))\nresponse.write(\'"/>\\n\\t  </a>\\n\\t  \', escape=False)\nresponse.write(T(\'Copyright\'))\nresponse.write(\' &#169; 2010\\t\\t\\t\\t\\n\\t  <div style="clear: both;"></div><!-- Clear the divs -->\\n\\t  \', escape=False)\nresponse.write(\'\\n\\n\\t</div><!-- footer -->\\t\\t\\t\\n      </div><!-- wrapper -->\\n    </div><!-- container -->\\t\\t\\n    \\n    <!--[if lt IE 7 ]>\\n\\t<script src="\', escape=False)\nresponse.write(URL(\'static\',\'js/dd_belatedpng.js\'))\nresponse.write(\'"></script>\\n\\t<script> DD_belatedPNG.fix(\\\'img, .png_bg\\\'); //fix any <img> or .png_bg background-images </script>\\n\\t<![endif]-->\\n    \\n    <!-- asynchronous google analytics: mathiasbynens.be/notes/async-analytics-snippet \\n\\t change the UA-XXXXX-X to be your site\\\'s ID -->\\n    <!--   \\n\\t   <script>\\n\\t     var _gaq = [[\\\'_setAccount\\\', \\\'UA-XXXXX-X\\\'], [\\\'_trackPageview\\\']];\\n\\t     (function(d, t) {\\n\\t     var g = d.createElement(t),\\n\\t     s = d.getElementsByTagName(t)[0];\\n\\t     g.async = true;\\n\\t     g.src = \\\'//www.google-analytics.com/ga.js\\\';\\n\\t     s.parentNode.insertBefore(g, s);\\n\\t     })(document, \\\'script\\\');\\n\\t   </script>\\n\\t   -->    \\n  </body>\\n</html>\\n\', escape=False)'
p6
sS'snapshot'
p7
(dp8
S'exception'
p9
(dp10
S'__hash__'
p11
S"<method-wrapper '__hash__' of exceptions.NameError object at 0x0767E738>"
p12
sS'__setattr__'
p13
S"<method-wrapper '__setattr__' of exceptions.NameError object at 0x0767E738>"
p14
sS'__reduce_ex__'
p15
S'<built-in method __reduce_ex__ of exceptions.NameError object at 0x0767E738>'
p16
sS'__getslice__'
p17
S"<method-wrapper '__getslice__' of exceptions.NameError object at 0x0767E738>"
p18
sS'__getitem__'
p19
S"<method-wrapper '__getitem__' of exceptions.NameError object at 0x0767E738>"
p20
sS'__setstate__'
p21
S'<built-in method __setstate__ of exceptions.NameError object at 0x0767E738>'
p22
sS'__reduce__'
p23
S'<built-in method __reduce__ of exceptions.NameError object at 0x0767E738>'
p24
sS'__str__'
p25
S"<method-wrapper '__str__' of exceptions.NameError object at 0x0767E738>"
p26
sS'args'
p27
S'("name \'contactos\' is not defined",)'
p28
sS'__getattribute__'
p29
S"<method-wrapper '__getattribute__' of exceptions.NameError object at 0x0767E738>"
p30
sS'__class__'
p31
S"<type 'exceptions.NameError'>"
p32
sS'__delattr__'
p33
S"<method-wrapper '__delattr__' of exceptions.NameError object at 0x0767E738>"
p34
sS'__repr__'
p35
S"<method-wrapper '__repr__' of exceptions.NameError object at 0x0767E738>"
p36
sS'__dict__'
p37
S'{}'
p38
sS'__doc__'
p39
S"'Name not found globally.'"
p40
sS'__init__'
p41
S"<method-wrapper '__init__' of exceptions.NameError object at 0x0767E738>"
p42
sS'__new__'
p43
S'<built-in method __new__ of type object at 0x1E1CD8D8>'
p44
ssS'evalue'
p45
S"name 'contactos' is not defined"
p46
sS'request'
p47
ccopy_reg
_reconstructor
p48
(cgluon.html
BEAUTIFY
p49
c__builtin__
object
p50
NtRp51
(dp52
S'attributes'
p53
(dp54
sS'components'
p55
(lp56
g48
(cgluon.html
TABLE
p57
g50
NtRp58
(dp59
g53
(dp60
S'level'
p61
I5
ssS'parent'
p62
Nsg55
(lp63
g48
(cgluon.html
TR
p64
g50
NtRp65
(dp66
g53
(dp67
sg62
g58
sg55
(lp68
g48
(cgluon.html
TD
p69
g50
NtRp70
(dp71
g53
(dp72
S'_style'
p73
S'font-weight:bold;'
p74
ssg62
g65
sg55
(lp75
S'ajax'
p76
asbag48
(g69
g50
NtRp77
(dp78
g53
(dp79
S'_valign'
p80
S'top'
p81
ssg62
g65
sg55
(lp82
S':'
asbag48
(g69
g50
NtRp83
(dp84
g53
(dp85
sg62
g65
sg55
(lp86
g48
(g49
g50
NtRp87
(dp88
g53
(dp89
g61
I5
ssg62
g83
sg55
(lp90
S'False'
p91
asbasbasbag48
(g64
g50
NtRp92
(dp93
g53
(dp94
sg62
g58
sg55
(lp95
g48
(g69
g50
NtRp96
(dp97
g53
(dp98
g73
g74
ssg62
g92
sg55
(lp99
S'application'
p100
asbag48
(g69
g50
NtRp101
(dp102
g53
(dp103
g80
g81
ssg62
g92
sg55
(lp104
S':'
asbag48
(g69
g50
NtRp105
(dp106
g53
(dp107
sg62
g92
sg55
(lp108
g48
(g49
g50
NtRp109
(dp110
g53
(dp111
g61
I5
ssg62
g105
sg55
(lp112
S'Desglosar_Emails'
p113
asbasbasbag48
(g64
g50
NtRp114
(dp115
g53
(dp116
sg62
g58
sg55
(lp117
g48
(g69
g50
NtRp118
(dp119
g53
(dp120
g73
g74
ssg62
g114
sg55
(lp121
g27
asbag48
(g69
g50
NtRp122
(dp123
g53
(dp124
g80
g81
ssg62
g114
sg55
(lp125
S':'
asbag48
(g69
g50
NtRp126
(dp127
g53
(dp128
sg62
g114
sg55
(lp129
g48
(g49
g50
NtRp130
(dp131
g53
(dp132
g61
I5
ssg62
g126
sg55
(lp133
g48
(g57
g50
NtRp134
(dp135
g53
(dp136
g61
I4
ssg62
Nsg55
(lp137
sbasbasbasbag48
(g64
g50
NtRp138
(dp139
g53
(dp140
sg62
g58
sg55
(lp141
g48
(g69
g50
NtRp142
(dp143
g53
(dp144
g73
g74
ssg62
g138
sg55
(lp145
S'body'
p146
asbag48
(g69
g50
NtRp147
(dp148
g53
(dp149
g80
g81
ssg62
g138
sg55
(lp150
S':'
asbag48
(g69
g50
NtRp151
(dp152
g53
(dp153
sg62
g138
sg55
(lp154
g48
(g49
g50
NtRp155
(dp156
g53
(dp157
g61
I5
ssg62
g151
sg55
(lp158
S'<cStringIO.StringO object at 0x07CB7840>'
p159
asbasbasbag48
(g64
g50
NtRp160
(dp161
g53
(dp162
sg62
g58
sg55
(lp163
g48
(g69
g50
NtRp164
(dp165
g53
(dp166
g73
g74
ssg62
g160
sg55
(lp167
S'client'
p168
asbag48
(g69
g50
NtRp169
(dp170
g53
(dp171
g80
g81
ssg62
g160
sg55
(lp172
S':'
asbag48
(g69
g50
NtRp173
(dp174
g53
(dp175
sg62
g160
sg55
(lp176
g48
(g49
g50
NtRp177
(dp178
g53
(dp179
g61
I5
ssg62
g173
sg55
(lp180
S'127.0.0.1'
p181
asbasbasbag48
(g64
g50
NtRp182
(dp183
g53
(dp184
sg62
g58
sg55
(lp185
g48
(g69
g50
NtRp186
(dp187
g53
(dp188
g73
g74
ssg62
g182
sg55
(lp189
S'controller'
p190
asbag48
(g69
g50
NtRp191
(dp192
g53
(dp193
g80
g81
ssg62
g182
sg55
(lp194
S':'
asbag48
(g69
g50
NtRp195
(dp196
g53
(dp197
sg62
g182
sg55
(lp198
g48
(g49
g50
NtRp199
(dp200
g53
(dp201
g61
I5
ssg62
g195
sg55
(lp202
S'default'
p203
asbasbasbag48
(g64
g50
NtRp204
(dp205
g53
(dp206
sg62
g58
sg55
(lp207
g48
(g69
g50
NtRp208
(dp209
g53
(dp210
g73
g74
ssg62
g204
sg55
(lp211
S'cookies'
p212
asbag48
(g69
g50
NtRp213
(dp214
g53
(dp215
g80
g81
ssg62
g204
sg55
(lp216
S':'
asbag48
(g69
g50
NtRp217
(dp218
g53
(dp219
sg62
g204
sg55
(lp220
g48
(g49
g50
NtRp221
(dp222
g53
(dp223
g61
I5
ssg62
g217
sg55
(lp224
g48
(g57
g50
NtRp225
(dp226
g53
(dp227
g61
I4
ssg62
Nsg55
(lp228
g48
(g64
g50
NtRp229
(dp230
g53
(dp231
sg62
g225
sg55
(lp232
g48
(g69
g50
NtRp233
(dp234
g53
(dp235
g73
g74
ssg62
g229
sg55
(lp236
S'session_id_admin'
p237
asbag48
(g69
g50
NtRp238
(dp239
g53
(dp240
g80
g81
ssg62
g229
sg55
(lp241
S':'
asbag48
(g69
g50
NtRp242
(dp243
g53
(dp244
sg62
g229
sg55
(lp245
g48
(g49
g50
NtRp246
(dp247
g53
(dp248
g61
I4
ssg62
g242
sg55
(lp249
g48
(g57
g50
NtRp250
(dp251
g53
(dp252
g61
I3
ssg62
Nsg55
(lp253
g48
(g64
g50
NtRp254
(dp255
g53
(dp256
sg62
g250
sg55
(lp257
g48
(g69
g50
NtRp258
(dp259
g53
(dp260
g73
g74
ssg62
g254
sg55
(lp261
S'comment'
p262
asbag48
(g69
g50
NtRp263
(dp264
g53
(dp265
g80
g81
ssg62
g254
sg55
(lp266
S':'
asbag48
(g69
g50
NtRp267
(dp268
g53
(dp269
sg62
g254
sg55
(lp270
g48
(g49
g50
NtRp271
(dp272
g53
(dp273
g61
I3
ssg62
g267
sg55
(lp274
S''
asbasbasbag48
(g64
g50
NtRp275
(dp276
g53
(dp277
sg62
g250
sg55
(lp278
g48
(g69
g50
NtRp279
(dp280
g53
(dp281
g73
g74
ssg62
g275
sg55
(lp282
S'domain'
p283
asbag48
(g69
g50
NtRp284
(dp285
g53
(dp286
g80
g81
ssg62
g275
sg55
(lp287
S':'
asbag48
(g69
g50
NtRp288
(dp289
g53
(dp290
sg62
g275
sg55
(lp291
g48
(g49
g50
NtRp292
(dp293
g53
(dp294
g61
I3
ssg62
g288
sg55
(lp295
S''
asbasbasbag48
(g64
g50
NtRp296
(dp297
g53
(dp298
sg62
g250
sg55
(lp299
g48
(g69
g50
NtRp300
(dp301
g53
(dp302
g73
g74
ssg62
g296
sg55
(lp303
S'expires'
p304
asbag48
(g69
g50
NtRp305
(dp306
g53
(dp307
g80
g81
ssg62
g296
sg55
(lp308
S':'
asbag48
(g69
g50
NtRp309
(dp310
g53
(dp311
sg62
g296
sg55
(lp312
g48
(g49
g50
NtRp313
(dp314
g53
(dp315
g61
I3
ssg62
g309
sg55
(lp316
S''
asbasbasbag48
(g64
g50
NtRp317
(dp318
g53
(dp319
sg62
g250
sg55
(lp320
g48
(g69
g50
NtRp321
(dp322
g53
(dp323
g73
g74
ssg62
g317
sg55
(lp324
S'max-age'
p325
asbag48
(g69
g50
NtRp326
(dp327
g53
(dp328
g80
g81
ssg62
g317
sg55
(lp329
S':'
asbag48
(g69
g50
NtRp330
(dp331
g53
(dp332
sg62
g317
sg55
(lp333
g48
(g49
g50
NtRp334
(dp335
g53
(dp336
g61
I3
ssg62
g330
sg55
(lp337
S''
asbasbasbag48
(g64
g50
NtRp338
(dp339
g53
(dp340
sg62
g250
sg55
(lp341
g48
(g69
g50
NtRp342
(dp343
g53
(dp344
g73
g74
ssg62
g338
sg55
(lp345
S'path'
p346
asbag48
(g69
g50
NtRp347
(dp348
g53
(dp349
g80
g81
ssg62
g338
sg55
(lp350
S':'
asbag48
(g69
g50
NtRp351
(dp352
g53
(dp353
sg62
g338
sg55
(lp354
g48
(g49
g50
NtRp355
(dp356
g53
(dp357
g61
I3
ssg62
g351
sg55
(lp358
S''
asbasbasbag48
(g64
g50
NtRp359
(dp360
g53
(dp361
sg62
g250
sg55
(lp362
g48
(g69
g50
NtRp363
(dp364
g53
(dp365
g73
g74
ssg62
g359
sg55
(lp366
S'secure'
p367
asbag48
(g69
g50
NtRp368
(dp369
g53
(dp370
g80
g81
ssg62
g359
sg55
(lp371
S':'
asbag48
(g69
g50
NtRp372
(dp373
g53
(dp374
sg62
g359
sg55
(lp375
g48
(g49
g50
NtRp376
(dp377
g53
(dp378
g61
I3
ssg62
g372
sg55
(lp379
S''
asbasbasbag48
(g64
g50
NtRp380
(dp381
g53
(dp382
sg62
g250
sg55
(lp383
g48
(g69
g50
NtRp384
(dp385
g53
(dp386
g73
g74
ssg62
g380
sg55
(lp387
S'version'
p388
asbag48
(g69
g50
NtRp389
(dp390
g53
(dp391
g80
g81
ssg62
g380
sg55
(lp392
S':'
asbag48
(g69
g50
NtRp393
(dp394
g53
(dp395
sg62
g380
sg55
(lp396
g48
(g49
g50
NtRp397
(dp398
g53
(dp399
g61
I3
ssg62
g393
sg55
(lp400
S''
asbasbasbasbasbasbasbag48
(g64
g50
NtRp401
(dp402
g53
(dp403
sg62
g225
sg55
(lp404
g48
(g69
g50
NtRp405
(dp406
g53
(dp407
g73
g74
ssg62
g401
sg55
(lp408
S'session_id_borrar2'
p409
asbag48
(g69
g50
NtRp410
(dp411
g53
(dp412
g80
g81
ssg62
g401
sg55
(lp413
S':'
asbag48
(g69
g50
NtRp414
(dp415
g53
(dp416
sg62
g401
sg55
(lp417
g48
(g49
g50
NtRp418
(dp419
g53
(dp420
g61
I4
ssg62
g414
sg55
(lp421
g48
(g57
g50
NtRp422
(dp423
g53
(dp424
g61
I3
ssg62
Nsg55
(lp425
g48
(g64
g50
NtRp426
(dp427
g53
(dp428
sg62
g422
sg55
(lp429
g48
(g69
g50
NtRp430
(dp431
g53
(dp432
g73
g74
ssg62
g426
sg55
(lp433
g262
asbag48
(g69
g50
NtRp434
(dp435
g53
(dp436
g80
g81
ssg62
g426
sg55
(lp437
S':'
asbag48
(g69
g50
NtRp438
(dp439
g53
(dp440
sg62
g426
sg55
(lp441
g48
(g49
g50
NtRp442
(dp443
g53
(dp444
g61
I3
ssg62
g438
sg55
(lp445
S''
asbasbasbag48
(g64
g50
NtRp446
(dp447
g53
(dp448
sg62
g422
sg55
(lp449
g48
(g69
g50
NtRp450
(dp451
g53
(dp452
g73
g74
ssg62
g446
sg55
(lp453
g283
asbag48
(g69
g50
NtRp454
(dp455
g53
(dp456
g80
g81
ssg62
g446
sg55
(lp457
S':'
asbag48
(g69
g50
NtRp458
(dp459
g53
(dp460
sg62
g446
sg55
(lp461
g48
(g49
g50
NtRp462
(dp463
g53
(dp464
g61
I3
ssg62
g458
sg55
(lp465
S''
asbasbasbag48
(g64
g50
NtRp466
(dp467
g53
(dp468
sg62
g422
sg55
(lp469
g48
(g69
g50
NtRp470
(dp471
g53
(dp472
g73
g74
ssg62
g466
sg55
(lp473
g304
asbag48
(g69
g50
NtRp474
(dp475
g53
(dp476
g80
g81
ssg62
g466
sg55
(lp477
S':'
asbag48
(g69
g50
NtRp478
(dp479
g53
(dp480
sg62
g466
sg55
(lp481
g48
(g49
g50
NtRp482
(dp483
g53
(dp484
g61
I3
ssg62
g478
sg55
(lp485
S''
asbasbasbag48
(g64
g50
NtRp486
(dp487
g53
(dp488
sg62
g422
sg55
(lp489
g48
(g69
g50
NtRp490
(dp491
g53
(dp492
g73
g74
ssg62
g486
sg55
(lp493
g325
asbag48
(g69
g50
NtRp494
(dp495
g53
(dp496
g80
g81
ssg62
g486
sg55
(lp497
S':'
asbag48
(g69
g50
NtRp498
(dp499
g53
(dp500
sg62
g486
sg55
(lp501
g48
(g49
g50
NtRp502
(dp503
g53
(dp504
g61
I3
ssg62
g498
sg55
(lp505
S''
asbasbasbag48
(g64
g50
NtRp506
(dp507
g53
(dp508
sg62
g422
sg55
(lp509
g48
(g69
g50
NtRp510
(dp511
g53
(dp512
g73
g74
ssg62
g506
sg55
(lp513
g346
asbag48
(g69
g50
NtRp514
(dp515
g53
(dp516
g80
g81
ssg62
g506
sg55
(lp517
S':'
asbag48
(g69
g50
NtRp518
(dp519
g53
(dp520
sg62
g506
sg55
(lp521
g48
(g49
g50
NtRp522
(dp523
g53
(dp524
g61
I3
ssg62
g518
sg55
(lp525
S''
asbasbasbag48
(g64
g50
NtRp526
(dp527
g53
(dp528
sg62
g422
sg55
(lp529
g48
(g69
g50
NtRp530
(dp531
g53
(dp532
g73
g74
ssg62
g526
sg55
(lp533
g367
asbag48
(g69
g50
NtRp534
(dp535
g53
(dp536
g80
g81
ssg62
g526
sg55
(lp537
S':'
asbag48
(g69
g50
NtRp538
(dp539
g53
(dp540
sg62
g526
sg55
(lp541
g48
(g49
g50
NtRp542
(dp543
g53
(dp544
g61
I3
ssg62
g538
sg55
(lp545
S''
asbasbasbag48
(g64
g50
NtRp546
(dp547
g53
(dp548
sg62
g422
sg55
(lp549
g48
(g69
g50
NtRp550
(dp551
g53
(dp552
g73
g74
ssg62
g546
sg55
(lp553
g388
asbag48
(g69
g50
NtRp554
(dp555
g53
(dp556
g80
g81
ssg62
g546
sg55
(lp557
S':'
asbag48
(g69
g50
NtRp558
(dp559
g53
(dp560
sg62
g546
sg55
(lp561
g48
(g49
g50
NtRp562
(dp563
g53
(dp564
g61
I3
ssg62
g558
sg55
(lp565
S''
asbasbasbasbasbasbasbag48
(g64
g50
NtRp566
(dp567
g53
(dp568
sg62
g225
sg55
(lp569
g48
(g69
g50
NtRp570
(dp571
g53
(dp572
g73
g74
ssg62
g566
sg55
(lp573
S'session_id_cual_es_tu_nombre'
p574
asbag48
(g69
g50
NtRp575
(dp576
g53
(dp577
g80
g81
ssg62
g566
sg55
(lp578
S':'
asbag48
(g69
g50
NtRp579
(dp580
g53
(dp581
sg62
g566
sg55
(lp582
g48
(g49
g50
NtRp583
(dp584
g53
(dp585
g61
I4
ssg62
g579
sg55
(lp586
g48
(g57
g50
NtRp587
(dp588
g53
(dp589
g61
I3
ssg62
Nsg55
(lp590
g48
(g64
g50
NtRp591
(dp592
g53
(dp593
sg62
g587
sg55
(lp594
g48
(g69
g50
NtRp595
(dp596
g53
(dp597
g73
g74
ssg62
g591
sg55
(lp598
g262
asbag48
(g69
g50
NtRp599
(dp600
g53
(dp601
g80
g81
ssg62
g591
sg55
(lp602
S':'
asbag48
(g69
g50
NtRp603
(dp604
g53
(dp605
sg62
g591
sg55
(lp606
g48
(g49
g50
NtRp607
(dp608
g53
(dp609
g61
I3
ssg62
g603
sg55
(lp610
S''
asbasbasbag48
(g64
g50
NtRp611
(dp612
g53
(dp613
sg62
g587
sg55
(lp614
g48
(g69
g50
NtRp615
(dp616
g53
(dp617
g73
g74
ssg62
g611
sg55
(lp618
g283
asbag48
(g69
g50
NtRp619
(dp620
g53
(dp621
g80
g81
ssg62
g611
sg55
(lp622
S':'
asbag48
(g69
g50
NtRp623
(dp624
g53
(dp625
sg62
g611
sg55
(lp626
g48
(g49
g50
NtRp627
(dp628
g53
(dp629
g61
I3
ssg62
g623
sg55
(lp630
S''
asbasbasbag48
(g64
g50
NtRp631
(dp632
g53
(dp633
sg62
g587
sg55
(lp634
g48
(g69
g50
NtRp635
(dp636
g53
(dp637
g73
g74
ssg62
g631
sg55
(lp638
g304
asbag48
(g69
g50
NtRp639
(dp640
g53
(dp641
g80
g81
ssg62
g631
sg55
(lp642
S':'
asbag48
(g69
g50
NtRp643
(dp644
g53
(dp645
sg62
g631
sg55
(lp646
g48
(g49
g50
NtRp647
(dp648
g53
(dp649
g61
I3
ssg62
g643
sg55
(lp650
S''
asbasbasbag48
(g64
g50
NtRp651
(dp652
g53
(dp653
sg62
g587
sg55
(lp654
g48
(g69
g50
NtRp655
(dp656
g53
(dp657
g73
g74
ssg62
g651
sg55
(lp658
g325
asbag48
(g69
g50
NtRp659
(dp660
g53
(dp661
g80
g81
ssg62
g651
sg55
(lp662
S':'
asbag48
(g69
g50
NtRp663
(dp664
g53
(dp665
sg62
g651
sg55
(lp666
g48
(g49
g50
NtRp667
(dp668
g53
(dp669
g61
I3
ssg62
g663
sg55
(lp670
S''
asbasbasbag48
(g64
g50
NtRp671
(dp672
g53
(dp673
sg62
g587
sg55
(lp674
g48
(g69
g50
NtRp675
(dp676
g53
(dp677
g73
g74
ssg62
g671
sg55
(lp678
g346
asbag48
(g69
g50
NtRp679
(dp680
g53
(dp681
g80
g81
ssg62
g671
sg55
(lp682
S':'
asbag48
(g69
g50
NtRp683
(dp684
g53
(dp685
sg62
g671
sg55
(lp686
g48
(g49
g50
NtRp687
(dp688
g53
(dp689
g61
I3
ssg62
g683
sg55
(lp690
S''
asbasbasbag48
(g64
g50
NtRp691
(dp692
g53
(dp693
sg62
g587
sg55
(lp694
g48
(g69
g50
NtRp695
(dp696
g53
(dp697
g73
g74
ssg62
g691
sg55
(lp698
g367
asbag48
(g69
g50
NtRp699
(dp700
g53
(dp701
g80
g81
ssg62
g691
sg55
(lp702
S':'
asbag48
(g69
g50
NtRp703
(dp704
g53
(dp705
sg62
g691
sg55
(lp706
g48
(g49
g50
NtRp707
(dp708
g53
(dp709
g61
I3
ssg62
g703
sg55
(lp710
S''
asbasbasbag48
(g64
g50
NtRp711
(dp712
g53
(dp713
sg62
g587
sg55
(lp714
g48
(g69
g50
NtRp715
(dp716
g53
(dp717
g73
g74
ssg62
g711
sg55
(lp718
g388
asbag48
(g69
g50
NtRp719
(dp720
g53
(dp721
g80
g81
ssg62
g711
sg55
(lp722
S':'
asbag48
(g69
g50
NtRp723
(dp724
g53
(dp725
sg62
g711
sg55
(lp726
g48
(g49
g50
NtRp727
(dp728
g53
(dp729
g61
I3
ssg62
g723
sg55
(lp730
S''
asbasbasbasbasbasbasbag48
(g64
g50
NtRp731
(dp732
g53
(dp733
sg62
g225
sg55
(lp734
g48
(g69
g50
NtRp735
(dp736
g53
(dp737
g73
g74
ssg62
g731
sg55
(lp738
S'session_id_desglosar_emails'
p739
asbag48
(g69
g50
NtRp740
(dp741
g53
(dp742
g80
g81
ssg62
g731
sg55
(lp743
S':'
asbag48
(g69
g50
NtRp744
(dp745
g53
(dp746
sg62
g731
sg55
(lp747
g48
(g49
g50
NtRp748
(dp749
g53
(dp750
g61
I4
ssg62
g744
sg55
(lp751
g48
(g57
g50
NtRp752
(dp753
g53
(dp754
g61
I3
ssg62
Nsg55
(lp755
g48
(g64
g50
NtRp756
(dp757
g53
(dp758
sg62
g752
sg55
(lp759
g48
(g69
g50
NtRp760
(dp761
g53
(dp762
g73
g74
ssg62
g756
sg55
(lp763
g262
asbag48
(g69
g50
NtRp764
(dp765
g53
(dp766
g80
g81
ssg62
g756
sg55
(lp767
S':'
asbag48
(g69
g50
NtRp768
(dp769
g53
(dp770
sg62
g756
sg55
(lp771
g48
(g49
g50
NtRp772
(dp773
g53
(dp774
g61
I3
ssg62
g768
sg55
(lp775
S''
asbasbasbag48
(g64
g50
NtRp776
(dp777
g53
(dp778
sg62
g752
sg55
(lp779
g48
(g69
g50
NtRp780
(dp781
g53
(dp782
g73
g74
ssg62
g776
sg55
(lp783
g283
asbag48
(g69
g50
NtRp784
(dp785
g53
(dp786
g80
g81
ssg62
g776
sg55
(lp787
S':'
asbag48
(g69
g50
NtRp788
(dp789
g53
(dp790
sg62
g776
sg55
(lp791
g48
(g49
g50
NtRp792
(dp793
g53
(dp794
g61
I3
ssg62
g788
sg55
(lp795
S''
asbasbasbag48
(g64
g50
NtRp796
(dp797
g53
(dp798
sg62
g752
sg55
(lp799
g48
(g69
g50
NtRp800
(dp801
g53
(dp802
g73
g74
ssg62
g796
sg55
(lp803
g304
asbag48
(g69
g50
NtRp804
(dp805
g53
(dp806
g80
g81
ssg62
g796
sg55
(lp807
S':'
asbag48
(g69
g50
NtRp808
(dp809
g53
(dp810
sg62
g796
sg55
(lp811
g48
(g49
g50
NtRp812
(dp813
g53
(dp814
g61
I3
ssg62
g808
sg55
(lp815
S''
asbasbasbag48
(g64
g50
NtRp816
(dp817
g53
(dp818
sg62
g752
sg55
(lp819
g48
(g69
g50
NtRp820
(dp821
g53
(dp822
g73
g74
ssg62
g816
sg55
(lp823
g325
asbag48
(g69
g50
NtRp824
(dp825
g53
(dp826
g80
g81
ssg62
g816
sg55
(lp827
S':'
asbag48
(g69
g50
NtRp828
(dp829
g53
(dp830
sg62
g816
sg55
(lp831
g48
(g49
g50
NtRp832
(dp833
g53
(dp834
g61
I3
ssg62
g828
sg55
(lp835
S''
asbasbasbag48
(g64
g50
NtRp836
(dp837
g53
(dp838
sg62
g752
sg55
(lp839
g48
(g69
g50
NtRp840
(dp841
g53
(dp842
g73
g74
ssg62
g836
sg55
(lp843
g346
asbag48
(g69
g50
NtRp844
(dp845
g53
(dp846
g80
g81
ssg62
g836
sg55
(lp847
S':'
asbag48
(g69
g50
NtRp848
(dp849
g53
(dp850
sg62
g836
sg55
(lp851
g48
(g49
g50
NtRp852
(dp853
g53
(dp854
g61
I3
ssg62
g848
sg55
(lp855
S''
asbasbasbag48
(g64
g50
NtRp856
(dp857
g53
(dp858
sg62
g752
sg55
(lp859
g48
(g69
g50
NtRp860
(dp861
g53
(dp862
g73
g74
ssg62
g856
sg55
(lp863
g367
asbag48
(g69
g50
NtRp864
(dp865
g53
(dp866
g80
g81
ssg62
g856
sg55
(lp867
S':'
asbag48
(g69
g50
NtRp868
(dp869
g53
(dp870
sg62
g856
sg55
(lp871
g48
(g49
g50
NtRp872
(dp873
g53
(dp874
g61
I3
ssg62
g868
sg55
(lp875
S''
asbasbasbag48
(g64
g50
NtRp876
(dp877
g53
(dp878
sg62
g752
sg55
(lp879
g48
(g69
g50
NtRp880
(dp881
g53
(dp882
g73
g74
ssg62
g876
sg55
(lp883
g388
asbag48
(g69
g50
NtRp884
(dp885
g53
(dp886
g80
g81
ssg62
g876
sg55
(lp887
S':'
asbag48
(g69
g50
NtRp888
(dp889
g53
(dp890
sg62
g876
sg55
(lp891
g48
(g49
g50
NtRp892
(dp893
g53
(dp894
g61
I3
ssg62
g888
sg55
(lp895
S''
asbasbasbasbasbasbasbag48
(g64
g50
NtRp896
(dp897
g53
(dp898
sg62
g225
sg55
(lp899
g48
(g69
g50
NtRp900
(dp901
g53
(dp902
g73
g74
ssg62
g896
sg55
(lp903
S'session_id_hemoal'
p904
asbag48
(g69
g50
NtRp905
(dp906
g53
(dp907
g80
g81
ssg62
g896
sg55
(lp908
S':'
asbag48
(g69
g50
NtRp909
(dp910
g53
(dp911
sg62
g896
sg55
(lp912
g48
(g49
g50
NtRp913
(dp914
g53
(dp915
g61
I4
ssg62
g909
sg55
(lp916
g48
(g57
g50
NtRp917
(dp918
g53
(dp919
g61
I3
ssg62
Nsg55
(lp920
g48
(g64
g50
NtRp921
(dp922
g53
(dp923
sg62
g917
sg55
(lp924
g48
(g69
g50
NtRp925
(dp926
g53
(dp927
g73
g74
ssg62
g921
sg55
(lp928
g262
asbag48
(g69
g50
NtRp929
(dp930
g53
(dp931
g80
g81
ssg62
g921
sg55
(lp932
S':'
asbag48
(g69
g50
NtRp933
(dp934
g53
(dp935
sg62
g921
sg55
(lp936
g48
(g49
g50
NtRp937
(dp938
g53
(dp939
g61
I3
ssg62
g933
sg55
(lp940
S''
asbasbasbag48
(g64
g50
NtRp941
(dp942
g53
(dp943
sg62
g917
sg55
(lp944
g48
(g69
g50
NtRp945
(dp946
g53
(dp947
g73
g74
ssg62
g941
sg55
(lp948
g283
asbag48
(g69
g50
NtRp949
(dp950
g53
(dp951
g80
g81
ssg62
g941
sg55
(lp952
S':'
asbag48
(g69
g50
NtRp953
(dp954
g53
(dp955
sg62
g941
sg55
(lp956
g48
(g49
g50
NtRp957
(dp958
g53
(dp959
g61
I3
ssg62
g953
sg55
(lp960
S''
asbasbasbag48
(g64
g50
NtRp961
(dp962
g53
(dp963
sg62
g917
sg55
(lp964
g48
(g69
g50
NtRp965
(dp966
g53
(dp967
g73
g74
ssg62
g961
sg55
(lp968
g304
asbag48
(g69
g50
NtRp969
(dp970
g53
(dp971
g80
g81
ssg62
g961
sg55
(lp972
S':'
asbag48
(g69
g50
NtRp973
(dp974
g53
(dp975
sg62
g961
sg55
(lp976
g48
(g49
g50
NtRp977
(dp978
g53
(dp979
g61
I3
ssg62
g973
sg55
(lp980
S''
asbasbasbag48
(g64
g50
NtRp981
(dp982
g53
(dp983
sg62
g917
sg55
(lp984
g48
(g69
g50
NtRp985
(dp986
g53
(dp987
g73
g74
ssg62
g981
sg55
(lp988
g325
asbag48
(g69
g50
NtRp989
(dp990
g53
(dp991
g80
g81
ssg62
g981
sg55
(lp992
S':'
asbag48
(g69
g50
NtRp993
(dp994
g53
(dp995
sg62
g981
sg55
(lp996
g48
(g49
g50
NtRp997
(dp998
g53
(dp999
g61
I3
ssg62
g993
sg55
(lp1000
S''
asbasbasbag48
(g64
g50
NtRp1001
(dp1002
g53
(dp1003
sg62
g917
sg55
(lp1004
g48
(g69
g50
NtRp1005
(dp1006
g53
(dp1007
g73
g74
ssg62
g1001
sg55
(lp1008
g346
asbag48
(g69
g50
NtRp1009
(dp1010
g53
(dp1011
g80
g81
ssg62
g1001
sg55
(lp1012
S':'
asbag48
(g69
g50
NtRp1013
(dp1014
g53
(dp1015
sg62
g1001
sg55
(lp1016
g48
(g49
g50
NtRp1017
(dp1018
g53
(dp1019
g61
I3
ssg62
g1013
sg55
(lp1020
S''
asbasbasbag48
(g64
g50
NtRp1021
(dp1022
g53
(dp1023
sg62
g917
sg55
(lp1024
g48
(g69
g50
NtRp1025
(dp1026
g53
(dp1027
g73
g74
ssg62
g1021
sg55
(lp1028
g367
asbag48
(g69
g50
NtRp1029
(dp1030
g53
(dp1031
g80
g81
ssg62
g1021
sg55
(lp1032
S':'
asbag48
(g69
g50
NtRp1033
(dp1034
g53
(dp1035
sg62
g1021
sg55
(lp1036
g48
(g49
g50
NtRp1037
(dp1038
g53
(dp1039
g61
I3
ssg62
g1033
sg55
(lp1040
S''
asbasbasbag48
(g64
g50
NtRp1041
(dp1042
g53
(dp1043
sg62
g917
sg55
(lp1044
g48
(g69
g50
NtRp1045
(dp1046
g53
(dp1047
g73
g74
ssg62
g1041
sg55
(lp1048
g388
asbag48
(g69
g50
NtRp1049
(dp1050
g53
(dp1051
g80
g81
ssg62
g1041
sg55
(lp1052
S':'
asbag48
(g69
g50
NtRp1053
(dp1054
g53
(dp1055
sg62
g1041
sg55
(lp1056
g48
(g49
g50
NtRp1057
(dp1058
g53
(dp1059
g61
I3
ssg62
g1053
sg55
(lp1060
S''
asbasbasbasbasbasbasbag48
(g64
g50
NtRp1061
(dp1062
g53
(dp1063
sg62
g225
sg55
(lp1064
g48
(g69
g50
NtRp1065
(dp1066
g53
(dp1067
g73
g74
ssg62
g1061
sg55
(lp1068
S'session_id_listado_1'
p1069
asbag48
(g69
g50
NtRp1070
(dp1071
g53
(dp1072
g80
g81
ssg62
g1061
sg55
(lp1073
S':'
asbag48
(g69
g50
NtRp1074
(dp1075
g53
(dp1076
sg62
g1061
sg55
(lp1077
g48
(g49
g50
NtRp1078
(dp1079
g53
(dp1080
g61
I4
ssg62
g1074
sg55
(lp1081
g48
(g57
g50
NtRp1082
(dp1083
g53
(dp1084
g61
I3
ssg62
Nsg55
(lp1085
g48
(g64
g50
NtRp1086
(dp1087
g53
(dp1088
sg62
g1082
sg55
(lp1089
g48
(g69
g50
NtRp1090
(dp1091
g53
(dp1092
g73
g74
ssg62
g1086
sg55
(lp1093
g262
asbag48
(g69
g50
NtRp1094
(dp1095
g53
(dp1096
g80
g81
ssg62
g1086
sg55
(lp1097
S':'
asbag48
(g69
g50
NtRp1098
(dp1099
g53
(dp1100
sg62
g1086
sg55
(lp1101
g48
(g49
g50
NtRp1102
(dp1103
g53
(dp1104
g61
I3
ssg62
g1098
sg55
(lp1105
S''
asbasbasbag48
(g64
g50
NtRp1106
(dp1107
g53
(dp1108
sg62
g1082
sg55
(lp1109
g48
(g69
g50
NtRp1110
(dp1111
g53
(dp1112
g73
g74
ssg62
g1106
sg55
(lp1113
g283
asbag48
(g69
g50
NtRp1114
(dp1115
g53
(dp1116
g80
g81
ssg62
g1106
sg55
(lp1117
S':'
asbag48
(g69
g50
NtRp1118
(dp1119
g53
(dp1120
sg62
g1106
sg55
(lp1121
g48
(g49
g50
NtRp1122
(dp1123
g53
(dp1124
g61
I3
ssg62
g1118
sg55
(lp1125
S''
asbasbasbag48
(g64
g50
NtRp1126
(dp1127
g53
(dp1128
sg62
g1082
sg55
(lp1129
g48
(g69
g50
NtRp1130
(dp1131
g53
(dp1132
g73
g74
ssg62
g1126
sg55
(lp1133
g304
asbag48
(g69
g50
NtRp1134
(dp1135
g53
(dp1136
g80
g81
ssg62
g1126
sg55
(lp1137
S':'
asbag48
(g69
g50
NtRp1138
(dp1139
g53
(dp1140
sg62
g1126
sg55
(lp1141
g48
(g49
g50
NtRp1142
(dp1143
g53
(dp1144
g61
I3
ssg62
g1138
sg55
(lp1145
S''
asbasbasbag48
(g64
g50
NtRp1146
(dp1147
g53
(dp1148
sg62
g1082
sg55
(lp1149
g48
(g69
g50
NtRp1150
(dp1151
g53
(dp1152
g73
g74
ssg62
g1146
sg55
(lp1153
g325
asbag48
(g69
g50
NtRp1154
(dp1155
g53
(dp1156
g80
g81
ssg62
g1146
sg55
(lp1157
S':'
asbag48
(g69
g50
NtRp1158
(dp1159
g53
(dp1160
sg62
g1146
sg55
(lp1161
g48
(g49
g50
NtRp1162
(dp1163
g53
(dp1164
g61
I3
ssg62
g1158
sg55
(lp1165
S''
asbasbasbag48
(g64
g50
NtRp1166
(dp1167
g53
(dp1168
sg62
g1082
sg55
(lp1169
g48
(g69
g50
NtRp1170
(dp1171
g53
(dp1172
g73
g74
ssg62
g1166
sg55
(lp1173
g346
asbag48
(g69
g50
NtRp1174
(dp1175
g53
(dp1176
g80
g81
ssg62
g1166
sg55
(lp1177
S':'
asbag48
(g69
g50
NtRp1178
(dp1179
g53
(dp1180
sg62
g1166
sg55
(lp1181
g48
(g49
g50
NtRp1182
(dp1183
g53
(dp1184
g61
I3
ssg62
g1178
sg55
(lp1185
S''
asbasbasbag48
(g64
g50
NtRp1186
(dp1187
g53
(dp1188
sg62
g1082
sg55
(lp1189
g48
(g69
g50
NtRp1190
(dp1191
g53
(dp1192
g73
g74
ssg62
g1186
sg55
(lp1193
g367
asbag48
(g69
g50
NtRp1194
(dp1195
g53
(dp1196
g80
g81
ssg62
g1186
sg55
(lp1197
S':'
asbag48
(g69
g50
NtRp1198
(dp1199
g53
(dp1200
sg62
g1186
sg55
(lp1201
g48
(g49
g50
NtRp1202
(dp1203
g53
(dp1204
g61
I3
ssg62
g1198
sg55
(lp1205
S''
asbasbasbag48
(g64
g50
NtRp1206
(dp1207
g53
(dp1208
sg62
g1082
sg55
(lp1209
g48
(g69
g50
NtRp1210
(dp1211
g53
(dp1212
g73
g74
ssg62
g1206
sg55
(lp1213
g388
asbag48
(g69
g50
NtRp1214
(dp1215
g53
(dp1216
g80
g81
ssg62
g1206
sg55
(lp1217
S':'
asbag48
(g69
g50
NtRp1218
(dp1219
g53
(dp1220
sg62
g1206
sg55
(lp1221
g48
(g49
g50
NtRp1222
(dp1223
g53
(dp1224
g61
I3
ssg62
g1218
sg55
(lp1225
S''
asbasbasbasbasbasbasbag48
(g64
g50
NtRp1226
(dp1227
g53
(dp1228
sg62
g225
sg55
(lp1229
g48
(g69
g50
NtRp1230
(dp1231
g53
(dp1232
g73
g74
ssg62
g1226
sg55
(lp1233
S'session_id_myappjav'
p1234
asbag48
(g69
g50
NtRp1235
(dp1236
g53
(dp1237
g80
g81
ssg62
g1226
sg55
(lp1238
S':'
asbag48
(g69
g50
NtRp1239
(dp1240
g53
(dp1241
sg62
g1226
sg55
(lp1242
g48
(g49
g50
NtRp1243
(dp1244
g53
(dp1245
g61
I4
ssg62
g1239
sg55
(lp1246
g48
(g57
g50
NtRp1247
(dp1248
g53
(dp1249
g61
I3
ssg62
Nsg55
(lp1250
g48
(g64
g50
NtRp1251
(dp1252
g53
(dp1253
sg62
g1247
sg55
(lp1254
g48
(g69
g50
NtRp1255
(dp1256
g53
(dp1257
g73
g74
ssg62
g1251
sg55
(lp1258
g262
asbag48
(g69
g50
NtRp1259
(dp1260
g53
(dp1261
g80
g81
ssg62
g1251
sg55
(lp1262
S':'
asbag48
(g69
g50
NtRp1263
(dp1264
g53
(dp1265
sg62
g1251
sg55
(lp1266
g48
(g49
g50
NtRp1267
(dp1268
g53
(dp1269
g61
I3
ssg62
g1263
sg55
(lp1270
S''
asbasbasbag48
(g64
g50
NtRp1271
(dp1272
g53
(dp1273
sg62
g1247
sg55
(lp1274
g48
(g69
g50
NtRp1275
(dp1276
g53
(dp1277
g73
g74
ssg62
g1271
sg55
(lp1278
g283
asbag48
(g69
g50
NtRp1279
(dp1280
g53
(dp1281
g80
g81
ssg62
g1271
sg55
(lp1282
S':'
asbag48
(g69
g50
NtRp1283
(dp1284
g53
(dp1285
sg62
g1271
sg55
(lp1286
g48
(g49
g50
NtRp1287
(dp1288
g53
(dp1289
g61
I3
ssg62
g1283
sg55
(lp1290
S''
asbasbasbag48
(g64
g50
NtRp1291
(dp1292
g53
(dp1293
sg62
g1247
sg55
(lp1294
g48
(g69
g50
NtRp1295
(dp1296
g53
(dp1297
g73
g74
ssg62
g1291
sg55
(lp1298
g304
asbag48
(g69
g50
NtRp1299
(dp1300
g53
(dp1301
g80
g81
ssg62
g1291
sg55
(lp1302
S':'
asbag48
(g69
g50
NtRp1303
(dp1304
g53
(dp1305
sg62
g1291
sg55
(lp1306
g48
(g49
g50
NtRp1307
(dp1308
g53
(dp1309
g61
I3
ssg62
g1303
sg55
(lp1310
S''
asbasbasbag48
(g64
g50
NtRp1311
(dp1312
g53
(dp1313
sg62
g1247
sg55
(lp1314
g48
(g69
g50
NtRp1315
(dp1316
g53
(dp1317
g73
g74
ssg62
g1311
sg55
(lp1318
g325
asbag48
(g69
g50
NtRp1319
(dp1320
g53
(dp1321
g80
g81
ssg62
g1311
sg55
(lp1322
S':'
asbag48
(g69
g50
NtRp1323
(dp1324
g53
(dp1325
sg62
g1311
sg55
(lp1326
g48
(g49
g50
NtRp1327
(dp1328
g53
(dp1329
g61
I3
ssg62
g1323
sg55
(lp1330
S''
asbasbasbag48
(g64
g50
NtRp1331
(dp1332
g53
(dp1333
sg62
g1247
sg55
(lp1334
g48
(g69
g50
NtRp1335
(dp1336
g53
(dp1337
g73
g74
ssg62
g1331
sg55
(lp1338
g346
asbag48
(g69
g50
NtRp1339
(dp1340
g53
(dp1341
g80
g81
ssg62
g1331
sg55
(lp1342
S':'
asbag48
(g69
g50
NtRp1343
(dp1344
g53
(dp1345
sg62
g1331
sg55
(lp1346
g48
(g49
g50
NtRp1347
(dp1348
g53
(dp1349
g61
I3
ssg62
g1343
sg55
(lp1350
S''
asbasbasbag48
(g64
g50
NtRp1351
(dp1352
g53
(dp1353
sg62
g1247
sg55
(lp1354
g48
(g69
g50
NtRp1355
(dp1356
g53
(dp1357
g73
g74
ssg62
g1351
sg55
(lp1358
g367
asbag48
(g69
g50
NtRp1359
(dp1360
g53
(dp1361
g80
g81
ssg62
g1351
sg55
(lp1362
S':'
asbag48
(g69
g50
NtRp1363
(dp1364
g53
(dp1365
sg62
g1351
sg55
(lp1366
g48
(g49
g50
NtRp1367
(dp1368
g53
(dp1369
g61
I3
ssg62
g1363
sg55
(lp1370
S''
asbasbasbag48
(g64
g50
NtRp1371
(dp1372
g53
(dp1373
sg62
g1247
sg55
(lp1374
g48
(g69
g50
NtRp1375
(dp1376
g53
(dp1377
g73
g74
ssg62
g1371
sg55
(lp1378
g388
asbag48
(g69
g50
NtRp1379
(dp1380
g53
(dp1381
g80
g81
ssg62
g1371
sg55
(lp1382
S':'
asbag48
(g69
g50
NtRp1383
(dp1384
g53
(dp1385
sg62
g1371
sg55
(lp1386
g48
(g49
g50
NtRp1387
(dp1388
g53
(dp1389
g61
I3
ssg62
g1383
sg55
(lp1390
S''
asbasbasbasbasbasbasbag48
(g64
g50
NtRp1391
(dp1392
g53
(dp1393
sg62
g225
sg55
(lp1394
g48
(g69
g50
NtRp1395
(dp1396
g53
(dp1397
g73
g74
ssg62
g1391
sg55
(lp1398
S'session_id_welcome'
p1399
asbag48
(g69
g50
NtRp1400
(dp1401
g53
(dp1402
g80
g81
ssg62
g1391
sg55
(lp1403
S':'
asbag48
(g69
g50
NtRp1404
(dp1405
g53
(dp1406
sg62
g1391
sg55
(lp1407
g48
(g49
g50
NtRp1408
(dp1409
g53
(dp1410
g61
I4
ssg62
g1404
sg55
(lp1411
g48
(g57
g50
NtRp1412
(dp1413
g53
(dp1414
g61
I3
ssg62
Nsg55
(lp1415
g48
(g64
g50
NtRp1416
(dp1417
g53
(dp1418
sg62
g1412
sg55
(lp1419
g48
(g69
g50
NtRp1420
(dp1421
g53
(dp1422
g73
g74
ssg62
g1416
sg55
(lp1423
g262
asbag48
(g69
g50
NtRp1424
(dp1425
g53
(dp1426
g80
g81
ssg62
g1416
sg55
(lp1427
S':'
asbag48
(g69
g50
NtRp1428
(dp1429
g53
(dp1430
sg62
g1416
sg55
(lp1431
g48
(g49
g50
NtRp1432
(dp1433
g53
(dp1434
g61
I3
ssg62
g1428
sg55
(lp1435
S''
asbasbasbag48
(g64
g50
NtRp1436
(dp1437
g53
(dp1438
sg62
g1412
sg55
(lp1439
g48
(g69
g50
NtRp1440
(dp1441
g53
(dp1442
g73
g74
ssg62
g1436
sg55
(lp1443
g283
asbag48
(g69
g50
NtRp1444
(dp1445
g53
(dp1446
g80
g81
ssg62
g1436
sg55
(lp1447
S':'
asbag48
(g69
g50
NtRp1448
(dp1449
g53
(dp1450
sg62
g1436
sg55
(lp1451
g48
(g49
g50
NtRp1452
(dp1453
g53
(dp1454
g61
I3
ssg62
g1448
sg55
(lp1455
S''
asbasbasbag48
(g64
g50
NtRp1456
(dp1457
g53
(dp1458
sg62
g1412
sg55
(lp1459
g48
(g69
g50
NtRp1460
(dp1461
g53
(dp1462
g73
g74
ssg62
g1456
sg55
(lp1463
g304
asbag48
(g69
g50
NtRp1464
(dp1465
g53
(dp1466
g80
g81
ssg62
g1456
sg55
(lp1467
S':'
asbag48
(g69
g50
NtRp1468
(dp1469
g53
(dp1470
sg62
g1456
sg55
(lp1471
g48
(g49
g50
NtRp1472
(dp1473
g53
(dp1474
g61
I3
ssg62
g1468
sg55
(lp1475
S''
asbasbasbag48
(g64
g50
NtRp1476
(dp1477
g53
(dp1478
sg62
g1412
sg55
(lp1479
g48
(g69
g50
NtRp1480
(dp1481
g53
(dp1482
g73
g74
ssg62
g1476
sg55
(lp1483
g325
asbag48
(g69
g50
NtRp1484
(dp1485
g53
(dp1486
g80
g81
ssg62
g1476
sg55
(lp1487
S':'
asbag48
(g69
g50
NtRp1488
(dp1489
g53
(dp1490
sg62
g1476
sg55
(lp1491
g48
(g49
g50
NtRp1492
(dp1493
g53
(dp1494
g61
I3
ssg62
g1488
sg55
(lp1495
S''
asbasbasbag48
(g64
g50
NtRp1496
(dp1497
g53
(dp1498
sg62
g1412
sg55
(lp1499
g48
(g69
g50
NtRp1500
(dp1501
g53
(dp1502
g73
g74
ssg62
g1496
sg55
(lp1503
g346
asbag48
(g69
g50
NtRp1504
(dp1505
g53
(dp1506
g80
g81
ssg62
g1496
sg55
(lp1507
S':'
asbag48
(g69
g50
NtRp1508
(dp1509
g53
(dp1510
sg62
g1496
sg55
(lp1511
g48
(g49
g50
NtRp1512
(dp1513
g53
(dp1514
g61
I3
ssg62
g1508
sg55
(lp1515
S''
asbasbasbag48
(g64
g50
NtRp1516
(dp1517
g53
(dp1518
sg62
g1412
sg55
(lp1519
g48
(g69
g50
NtRp1520
(dp1521
g53
(dp1522
g73
g74
ssg62
g1516
sg55
(lp1523
g367
asbag48
(g69
g50
NtRp1524
(dp1525
g53
(dp1526
g80
g81
ssg62
g1516
sg55
(lp1527
S':'
asbag48
(g69
g50
NtRp1528
(dp1529
g53
(dp1530
sg62
g1516
sg55
(lp1531
g48
(g49
g50
NtRp1532
(dp1533
g53
(dp1534
g61
I3
ssg62
g1528
sg55
(lp1535
S''
asbasbasbag48
(g64
g50
NtRp1536
(dp1537
g53
(dp1538
sg62
g1412
sg55
(lp1539
g48
(g69
g50
NtRp1540
(dp1541
g53
(dp1542
g73
g74
ssg62
g1536
sg55
(lp1543
g388
asbag48
(g69
g50
NtRp1544
(dp1545
g53
(dp1546
g80
g81
ssg62
g1536
sg55
(lp1547
S':'
asbag48
(g69
g50
NtRp1548
(dp1549
g53
(dp1550
sg62
g1536
sg55
(lp1551
g48
(g49
g50
NtRp1552
(dp1553
g53
(dp1554
g61
I3
ssg62
g1548
sg55
(lp1555
S''
asbasbasbasbasbasbasbasbasbasbasbag48
(g64
g50
NtRp1556
(dp1557
g53
(dp1558
sg62
g58
sg55
(lp1559
g48
(g69
g50
NtRp1560
(dp1561
g53
(dp1562
g73
g74
ssg62
g1556
sg55
(lp1563
S'env'
p1564
asbag48
(g69
g50
NtRp1565
(dp1566
g53
(dp1567
g80
g81
ssg62
g1556
sg55
(lp1568
S':'
asbag48
(g69
g50
NtRp1569
(dp1570
g53
(dp1571
sg62
g1556
sg55
(lp1572
g48
(g49
g50
NtRp1573
(dp1574
g53
(dp1575
g61
I5
ssg62
g1569
sg55
(lp1576
g48
(g57
g50
NtRp1577
(dp1578
g53
(dp1579
g61
I4
ssg62
Nsg55
(lp1580
g48
(g64
g50
NtRp1581
(dp1582
g53
(dp1583
sg62
g1577
sg55
(lp1584
g48
(g69
g50
NtRp1585
(dp1586
g53
(dp1587
g73
g74
ssg62
g1581
sg55
(lp1588
S'app_folders'
p1589
asbag48
(g69
g50
NtRp1590
(dp1591
g53
(dp1592
g80
g81
ssg62
g1581
sg55
(lp1593
S':'
asbag48
(g69
g50
NtRp1594
(dp1595
g53
(dp1596
sg62
g1581
sg55
(lp1597
g48
(g49
g50
NtRp1598
(dp1599
g53
(dp1600
g61
I4
ssg62
g1594
sg55
(lp1601
S"set(['C:\\\\Users\\\\Atomico\\\\web2py\\\\applications\\\\Desglosar_Emails\\\\', 'C:\\\\Users\\\\Atomico\\\\web2py\\\\applications\\\\Cual_es_tu_nombre\\\\', 'C:\\\\Users\\\\Atomico\\\\web2py\\\\applications\\\\admin\\\\', 'C:\\\\Users\\\\Atomico\\\\web2py\\\\applications\\\\hemoal\\\\', 'C:\\\\Users\\\\Atomico\\\\web2py\\\\applications\\\\myAppJav\\\\', 'C:\\\\Users\\\\Atomico\\\\web2py\\\\applications\\\\welcome\\\\', 'C:\\\\Users\\\\Atomico\\\\web2py\\\\applications\\\\borrar2\\\\', 'C:\\\\Users\\\\Atomico\\\\web2py\\\\applications\\\\examples\\\\'])"
p1602
asbasbasbag48
(g64
g50
NtRp1603
(dp1604
g53
(dp1605
sg62
g1577
sg55
(lp1606
g48
(g69
g50
NtRp1607
(dp1608
g53
(dp1609
g73
g74
ssg62
g1603
sg55
(lp1610
S'applications_parent'
p1611
asbag48
(g69
g50
NtRp1612
(dp1613
g53
(dp1614
g80
g81
ssg62
g1603
sg55
(lp1615
S':'
asbag48
(g69
g50
NtRp1616
(dp1617
g53
(dp1618
sg62
g1603
sg55
(lp1619
g48
(g49
g50
NtRp1620
(dp1621
g53
(dp1622
g61
I4
ssg62
g1616
sg55
(lp1623
S'C:\\Users\\Atomico\\web2py'
p1624
asbasbasbag48
(g64
g50
NtRp1625
(dp1626
g53
(dp1627
sg62
g1577
sg55
(lp1628
g48
(g69
g50
NtRp1629
(dp1630
g53
(dp1631
g73
g74
ssg62
g1625
sg55
(lp1632
S'cmd_args'
p1633
asbag48
(g69
g50
NtRp1634
(dp1635
g53
(dp1636
g80
g81
ssg62
g1625
sg55
(lp1637
S':'
asbag48
(g69
g50
NtRp1638
(dp1639
g53
(dp1640
sg62
g1625
sg55
(lp1641
g48
(g49
g50
NtRp1642
(dp1643
g53
(dp1644
g61
I4
ssg62
g1638
sg55
(lp1645
g48
(g57
g50
NtRp1646
(dp1647
g53
(dp1648
g61
I3
ssg62
Nsg55
(lp1649
sbasbasbasbag48
(g64
g50
NtRp1650
(dp1651
g53
(dp1652
sg62
g1577
sg55
(lp1653
g48
(g69
g50
NtRp1654
(dp1655
g53
(dp1656
g73
g74
ssg62
g1650
sg55
(lp1657
S'cmd_options'
p1658
asbag48
(g69
g50
NtRp1659
(dp1660
g53
(dp1661
g80
g81
ssg62
g1650
sg55
(lp1662
S':'
asbag48
(g69
g50
NtRp1663
(dp1664
g53
(dp1665
sg62
g1650
sg55
(lp1666
g48
(g49
g50
NtRp1667
(dp1668
g53
(dp1669
g61
I4
ssg62
g1663
sg55
(lp1670
S"<Values at 0x306b620: {'verbose': False, 'ip': '127.0.0.1', 'shutdown_timeout': 5, 'taskbar': False, 'port': 8000, 'maxthreads': None, 'softcron': False, 'server_name': 'Swing', 'bpython': False, 'nogui': False, 'nocron': False, 'extcron': False, 'debuglevel': 30, 'test': None, 'folder': 'C:\\\\Users\\\\Atomico\\\\web2py', 'config': '', 'import_models': False, 'winservice': '', 'shell': None, 'run': '', 'log_filename': 'httpserver.log', 'args': [''], 'profiler_filename': None, 'ssl_private_key': '', 'password': '<ask>', 'request_queue_size': 5, 'ssl_certificate': '', 'cronjob': False, 'plain': False, 'quiet': False, 'interfaces': None, 'minthreads': None, 'timeout': 10, 'numthreads': None, 'nobanner': False, 'pid_filename': 'httpserver.pid'}>"
p1671
asbasbasbag48
(g64
g50
NtRp1672
(dp1673
g53
(dp1674
sg62
g1577
sg55
(lp1675
g48
(g69
g50
NtRp1676
(dp1677
g53
(dp1678
g73
g74
ssg62
g1672
sg55
(lp1679
S'db_sessions'
p1680
asbag48
(g69
g50
NtRp1681
(dp1682
g53
(dp1683
g80
g81
ssg62
g1672
sg55
(lp1684
S':'
asbag48
(g69
g50
NtRp1685
(dp1686
g53
(dp1687
sg62
g1672
sg55
(lp1688
g48
(g49
g50
NtRp1689
(dp1690
g53
(dp1691
g61
I4
ssg62
g1685
sg55
(lp1692
S'set([])'
p1693
asbasbasbag48
(g64
g50
NtRp1694
(dp1695
g53
(dp1696
sg62
g1577
sg55
(lp1697
g48
(g69
g50
NtRp1698
(dp1699
g53
(dp1700
g73
g74
ssg62
g1694
sg55
(lp1701
S'debugging'
p1702
asbag48
(g69
g50
NtRp1703
(dp1704
g53
(dp1705
g80
g81
ssg62
g1694
sg55
(lp1706
S':'
asbag48
(g69
g50
NtRp1707
(dp1708
g53
(dp1709
sg62
g1694
sg55
(lp1710
g48
(g49
g50
NtRp1711
(dp1712
g53
(dp1713
g61
I4
ssg62
g1707
sg55
(lp1714
g91
asbasbasbag48
(g64
g50
NtRp1715
(dp1716
g53
(dp1717
sg62
g1577
sg55
(lp1718
g48
(g69
g50
NtRp1719
(dp1720
g53
(dp1721
g73
g74
ssg62
g1715
sg55
(lp1722
S'gluon_parent'
p1723
asbag48
(g69
g50
NtRp1724
(dp1725
g53
(dp1726
g80
g81
ssg62
g1715
sg55
(lp1727
S':'
asbag48
(g69
g50
NtRp1728
(dp1729
g53
(dp1730
sg62
g1715
sg55
(lp1731
g48
(g49
g50
NtRp1732
(dp1733
g53
(dp1734
g61
I4
ssg62
g1728
sg55
(lp1735
S'C:\\Users\\Atomico\\web2py'
p1736
asbasbasbag48
(g64
g50
NtRp1737
(dp1738
g53
(dp1739
sg62
g1577
sg55
(lp1740
g48
(g69
g50
NtRp1741
(dp1742
g53
(dp1743
g73
g74
ssg62
g1737
sg55
(lp1744
S'http_accept'
p1745
asbag48
(g69
g50
NtRp1746
(dp1747
g53
(dp1748
g80
g81
ssg62
g1737
sg55
(lp1749
S':'
asbag48
(g69
g50
NtRp1750
(dp1751
g53
(dp1752
sg62
g1737
sg55
(lp1753
g48
(g49
g50
NtRp1754
(dp1755
g53
(dp1756
g61
I4
ssg62
g1750
sg55
(lp1757
S'text/html,application/xhtml+xml,application/xml;q=0.9,*/*;q=0.8'
p1758
asbasbasbag48
(g64
g50
NtRp1759
(dp1760
g53
(dp1761
sg62
g1577
sg55
(lp1762
g48
(g69
g50
NtRp1763
(dp1764
g53
(dp1765
g73
g74
ssg62
g1759
sg55
(lp1766
S'http_accept_charset'
p1767
asbag48
(g69
g50
NtRp1768
(dp1769
g53
(dp1770
g80
g81
ssg62
g1759
sg55
(lp1771
S':'
asbag48
(g69
g50
NtRp1772
(dp1773
g53
(dp1774
sg62
g1759
sg55
(lp1775
g48
(g49
g50
NtRp1776
(dp1777
g53
(dp1778
g61
I4
ssg62
g1772
sg55
(lp1779
S'ISO-8859-1,utf-8;q=0.7,*;q=0.7'
p1780
asbasbasbag48
(g64
g50
NtRp1781
(dp1782
g53
(dp1783
sg62
g1577
sg55
(lp1784
g48
(g69
g50
NtRp1785
(dp1786
g53
(dp1787
g73
g74
ssg62
g1781
sg55
(lp1788
S'http_accept_encoding'
p1789
asbag48
(g69
g50
NtRp1790
(dp1791
g53
(dp1792
g80
g81
ssg62
g1781
sg55
(lp1793
S':'
asbag48
(g69
g50
NtRp1794
(dp1795
g53
(dp1796
sg62
g1781
sg55
(lp1797
g48
(g49
g50
NtRp1798
(dp1799
g53
(dp1800
g61
I4
ssg62
g1794
sg55
(lp1801
S'gzip, deflate'
p1802
asbasbasbag48
(g64
g50
NtRp1803
(dp1804
g53
(dp1805
sg62
g1577
sg55
(lp1806
g48
(g69
g50
NtRp1807
(dp1808
g53
(dp1809
g73
g74
ssg62
g1803
sg55
(lp1810
S'http_accept_language'
p1811
asbag48
(g69
g50
NtRp1812
(dp1813
g53
(dp1814
g80
g81
ssg62
g1803
sg55
(lp1815
S':'
asbag48
(g69
g50
NtRp1816
(dp1817
g53
(dp1818
sg62
g1803
sg55
(lp1819
g48
(g49
g50
NtRp1820
(dp1821
g53
(dp1822
g61
I4
ssg62
g1816
sg55
(lp1823
S'es-es,es;q=0.8,en-us;q=0.5,en;q=0.3'
p1824
asbasbasbag48
(g64
g50
NtRp1825
(dp1826
g53
(dp1827
sg62
g1577
sg55
(lp1828
g48
(g69
g50
NtRp1829
(dp1830
g53
(dp1831
g73
g74
ssg62
g1825
sg55
(lp1832
S'http_connection'
p1833
asbag48
(g69
g50
NtRp1834
(dp1835
g53
(dp1836
g80
g81
ssg62
g1825
sg55
(lp1837
S':'
asbag48
(g69
g50
NtRp1838
(dp1839
g53
(dp1840
sg62
g1825
sg55
(lp1841
g48
(g49
g50
NtRp1842
(dp1843
g53
(dp1844
g61
I4
ssg62
g1838
sg55
(lp1845
S'keep-alive'
p1846
asbasbasbag48
(g64
g50
NtRp1847
(dp1848
g53
(dp1849
sg62
g1577
sg55
(lp1850
g48
(g69
g50
NtRp1851
(dp1852
g53
(dp1853
g73
g74
ssg62
g1847
sg55
(lp1854
S'http_cookie'
p1855
asbag48
(g69
g50
NtRp1856
(dp1857
g53
(dp1858
g80
g81
ssg62
g1847
sg55
(lp1859
S':'
asbag48
(g69
g50
NtRp1860
(dp1861
g53
(dp1862
sg62
g1847
sg55
(lp1863
g48
(g49
g50
NtRp1864
(dp1865
g53
(dp1866
g61
I4
ssg62
g1860
sg55
(lp1867
S'session_id_listado_1=127.0.0.1-477ec098-5436-4f6e-bfee-1a0bd88f6f9e; session_id_hemoal=127.0.0.1-442afb36-a73d-4692-979c-372017ada9e5; session_id_myappjav=127.0.0.1-b6da3776-a7b2-40a7-ab82-4eca2d3263a1; session_id_cual_es_tu_nombre=127.0.0.1-5e59e375-704d-4241-8b9c-5fd9f8c15773; session_id_welcome=127.0.0.1-082a2830-9bb6-4bfb-b2e2-4857b06c191e; session_id_borrar2=127.0.0.1-a9c92f68-d0b3-484c-889c-daaf25ccf891; session_id_admin=127.0.0.1-fa7dcb1d-044d-45ab-baf4-3f6c8db163e6; session_id_desglosar_emails=127.0.0.1-0a11b3b2-660c-433c-b71f-fc129286f26c'
p1868
asbasbasbag48
(g64
g50
NtRp1869
(dp1870
g53
(dp1871
sg62
g1577
sg55
(lp1872
g48
(g69
g50
NtRp1873
(dp1874
g53
(dp1875
g73
g74
ssg62
g1869
sg55
(lp1876
S'http_host'
p1877
asbag48
(g69
g50
NtRp1878
(dp1879
g53
(dp1880
g80
g81
ssg62
g1869
sg55
(lp1881
S':'
asbag48
(g69
g50
NtRp1882
(dp1883
g53
(dp1884
sg62
g1869
sg55
(lp1885
g48
(g49
g50
NtRp1886
(dp1887
g53
(dp1888
g61
I4
ssg62
g1882
sg55
(lp1889
S'127.0.0.1:8000'
p1890
asbasbasbag48
(g64
g50
NtRp1891
(dp1892
g53
(dp1893
sg62
g1577
sg55
(lp1894
g48
(g69
g50
NtRp1895
(dp1896
g53
(dp1897
g73
g74
ssg62
g1891
sg55
(lp1898
S'http_referer'
p1899
asbag48
(g69
g50
NtRp1900
(dp1901
g53
(dp1902
g80
g81
ssg62
g1891
sg55
(lp1903
S':'
asbag48
(g69
g50
NtRp1904
(dp1905
g53
(dp1906
sg62
g1891
sg55
(lp1907
g48
(g49
g50
NtRp1908
(dp1909
g53
(dp1910
g61
I4
ssg62
g1904
sg55
(lp1911
S'http://127.0.0.1:8000/admin/default/design/Desglosar_Emails'
p1912
asbasbasbag48
(g64
g50
NtRp1913
(dp1914
g53
(dp1915
sg62
g1577
sg55
(lp1916
g48
(g69
g50
NtRp1917
(dp1918
g53
(dp1919
g73
g74
ssg62
g1913
sg55
(lp1920
S'http_user_agent'
p1921
asbag48
(g69
g50
NtRp1922
(dp1923
g53
(dp1924
g80
g81
ssg62
g1913
sg55
(lp1925
S':'
asbag48
(g69
g50
NtRp1926
(dp1927
g53
(dp1928
sg62
g1913
sg55
(lp1929
g48
(g49
g50
NtRp1930
(dp1931
g53
(dp1932
g61
I4
ssg62
g1926
sg55
(lp1933
S'Mozilla/5.0 (Windows NT 6.1; WOW64; rv:6.0.2) Gecko/20100101 Firefox/6.0.2'
p1934
asbasbasbag48
(g64
g50
NtRp1935
(dp1936
g53
(dp1937
sg62
g1577
sg55
(lp1938
g48
(g69
g50
NtRp1939
(dp1940
g53
(dp1941
g73
g74
ssg62
g1935
sg55
(lp1942
S'is_jython'
p1943
asbag48
(g69
g50
NtRp1944
(dp1945
g53
(dp1946
g80
g81
ssg62
g1935
sg55
(lp1947
S':'
asbag48
(g69
g50
NtRp1948
(dp1949
g53
(dp1950
sg62
g1935
sg55
(lp1951
g48
(g49
g50
NtRp1952
(dp1953
g53
(dp1954
g61
I4
ssg62
g1948
sg55
(lp1955
g91
asbasbasbag48
(g64
g50
NtRp1956
(dp1957
g53
(dp1958
sg62
g1577
sg55
(lp1959
g48
(g69
g50
NtRp1960
(dp1961
g53
(dp1962
g73
g74
ssg62
g1956
sg55
(lp1963
S'path_info'
p1964
asbag48
(g69
g50
NtRp1965
(dp1966
g53
(dp1967
g80
g81
ssg62
g1956
sg55
(lp1968
S':'
asbag48
(g69
g50
NtRp1969
(dp1970
g53
(dp1971
sg62
g1956
sg55
(lp1972
g48
(g49
g50
NtRp1973
(dp1974
g53
(dp1975
g61
I4
ssg62
g1969
sg55
(lp1976
S'/Desglosar_Emails/default/entrada_mod3'
p1977
asbasbasbag48
(g64
g50
NtRp1978
(dp1979
g53
(dp1980
sg62
g1577
sg55
(lp1981
g48
(g69
g50
NtRp1982
(dp1983
g53
(dp1984
g73
g74
ssg62
g1978
sg55
(lp1985
S'query_string'
p1986
asbag48
(g69
g50
NtRp1987
(dp1988
g53
(dp1989
g80
g81
ssg62
g1978
sg55
(lp1990
S':'
asbag48
(g69
g50
NtRp1991
(dp1992
g53
(dp1993
sg62
g1978
sg55
(lp1994
g48
(g49
g50
NtRp1995
(dp1996
g53
(dp1997
g61
I4
ssg62
g1991
sg55
(lp1998
S''
asbasbasbag48
(g64
g50
NtRp1999
(dp2000
g53
(dp2001
sg62
g1577
sg55
(lp2002
g48
(g69
g50
NtRp2003
(dp2004
g53
(dp2005
g73
g74
ssg62
g1999
sg55
(lp2006
S'remote_addr'
p2007
asbag48
(g69
g50
NtRp2008
(dp2009
g53
(dp2010
g80
g81
ssg62
g1999
sg55
(lp2011
S':'
asbag48
(g69
g50
NtRp2012
(dp2013
g53
(dp2014
sg62
g1999
sg55
(lp2015
g48
(g49
g50
NtRp2016
(dp2017
g53
(dp2018
g61
I4
ssg62
g2012
sg55
(lp2019
g181
asbasbasbag48
(g64
g50
NtRp2020
(dp2021
g53
(dp2022
sg62
g1577
sg55
(lp2023
g48
(g69
g50
NtRp2024
(dp2025
g53
(dp2026
g73
g74
ssg62
g2020
sg55
(lp2027
S'remote_port'
p2028
asbag48
(g69
g50
NtRp2029
(dp2030
g53
(dp2031
g80
g81
ssg62
g2020
sg55
(lp2032
S':'
asbag48
(g69
g50
NtRp2033
(dp2034
g53
(dp2035
sg62
g2020
sg55
(lp2036
g48
(g49
g50
NtRp2037
(dp2038
g53
(dp2039
g61
I4
ssg62
g2033
sg55
(lp2040
S'58236'
p2041
asbasbasbag48
(g64
g50
NtRp2042
(dp2043
g53
(dp2044
sg62
g1577
sg55
(lp2045
g48
(g69
g50
NtRp2046
(dp2047
g53
(dp2048
g73
g74
ssg62
g2042
sg55
(lp2049
S'request_method'
p2050
asbag48
(g69
g50
NtRp2051
(dp2052
g53
(dp2053
g80
g81
ssg62
g2042
sg55
(lp2054
S':'
asbag48
(g69
g50
NtRp2055
(dp2056
g53
(dp2057
sg62
g2042
sg55
(lp2058
g48
(g49
g50
NtRp2059
(dp2060
g53
(dp2061
g61
I4
ssg62
g2055
sg55
(lp2062
S'GET'
p2063
asbasbasbag48
(g64
g50
NtRp2064
(dp2065
g53
(dp2066
sg62
g1577
sg55
(lp2067
g48
(g69
g50
NtRp2068
(dp2069
g53
(dp2070
g73
g74
ssg62
g2064
sg55
(lp2071
S'script_name'
p2072
asbag48
(g69
g50
NtRp2073
(dp2074
g53
(dp2075
g80
g81
ssg62
g2064
sg55
(lp2076
S':'
asbag48
(g69
g50
NtRp2077
(dp2078
g53
(dp2079
sg62
g2064
sg55
(lp2080
g48
(g49
g50
NtRp2081
(dp2082
g53
(dp2083
g61
I4
ssg62
g2077
sg55
(lp2084
S''
asbasbasbag48
(g64
g50
NtRp2085
(dp2086
g53
(dp2087
sg62
g1577
sg55
(lp2088
g48
(g69
g50
NtRp2089
(dp2090
g53
(dp2091
g73
g74
ssg62
g2085
sg55
(lp2092
S'server_name'
p2093
asbag48
(g69
g50
NtRp2094
(dp2095
g53
(dp2096
g80
g81
ssg62
g2085
sg55
(lp2097
S':'
asbag48
(g69
g50
NtRp2098
(dp2099
g53
(dp2100
sg62
g2085
sg55
(lp2101
g48
(g49
g50
NtRp2102
(dp2103
g53
(dp2104
g61
I4
ssg62
g2098
sg55
(lp2105
S'Swing'
p2106
asbasbasbag48
(g64
g50
NtRp2107
(dp2108
g53
(dp2109
sg62
g1577
sg55
(lp2110
g48
(g69
g50
NtRp2111
(dp2112
g53
(dp2113
g73
g74
ssg62
g2107
sg55
(lp2114
S'server_port'
p2115
asbag48
(g69
g50
NtRp2116
(dp2117
g53
(dp2118
g80
g81
ssg62
g2107
sg55
(lp2119
S':'
asbag48
(g69
g50
NtRp2120
(dp2121
g53
(dp2122
sg62
g2107
sg55
(lp2123
g48
(g49
g50
NtRp2124
(dp2125
g53
(dp2126
g61
I4
ssg62
g2120
sg55
(lp2127
S'8000'
p2128
asbasbasbag48
(g64
g50
NtRp2129
(dp2130
g53
(dp2131
sg62
g1577
sg55
(lp2132
g48
(g69
g50
NtRp2133
(dp2134
g53
(dp2135
g73
g74
ssg62
g2129
sg55
(lp2136
S'server_protocol'
p2137
asbag48
(g69
g50
NtRp2138
(dp2139
g53
(dp2140
g80
g81
ssg62
g2129
sg55
(lp2141
S':'
asbag48
(g69
g50
NtRp2142
(dp2143
g53
(dp2144
sg62
g2129
sg55
(lp2145
g48
(g49
g50
NtRp2146
(dp2147
g53
(dp2148
g61
I4
ssg62
g2142
sg55
(lp2149
S'HTTP/1.1'
p2150
asbasbasbag48
(g64
g50
NtRp2151
(dp2152
g53
(dp2153
sg62
g1577
sg55
(lp2154
g48
(g69
g50
NtRp2155
(dp2156
g53
(dp2157
g73
g74
ssg62
g2151
sg55
(lp2158
S'server_software'
p2159
asbag48
(g69
g50
NtRp2160
(dp2161
g53
(dp2162
g80
g81
ssg62
g2151
sg55
(lp2163
S':'
asbag48
(g69
g50
NtRp2164
(dp2165
g53
(dp2166
sg62
g2151
sg55
(lp2167
g48
(g49
g50
NtRp2168
(dp2169
g53
(dp2170
g61
I4
ssg62
g2164
sg55
(lp2171
S'Rocket 1.2.2'
p2172
asbasbasbag48
(g64
g50
NtRp2173
(dp2174
g53
(dp2175
sg62
g1577
sg55
(lp2176
g48
(g69
g50
NtRp2177
(dp2178
g53
(dp2179
g73
g74
ssg62
g2173
sg55
(lp2180
S'web2py_crontype'
p2181
asbag48
(g69
g50
NtRp2182
(dp2183
g53
(dp2184
g80
g81
ssg62
g2173
sg55
(lp2185
S':'
asbag48
(g69
g50
NtRp2186
(dp2187
g53
(dp2188
sg62
g2173
sg55
(lp2189
g48
(g49
g50
NtRp2190
(dp2191
g53
(dp2192
g61
I4
ssg62
g2186
sg55
(lp2193
S'hard'
p2194
asbasbasbag48
(g64
g50
NtRp2195
(dp2196
g53
(dp2197
sg62
g1577
sg55
(lp2198
g48
(g69
g50
NtRp2199
(dp2200
g53
(dp2201
g73
g74
ssg62
g2195
sg55
(lp2202
S'web2py_path'
p2203
asbag48
(g69
g50
NtRp2204
(dp2205
g53
(dp2206
g80
g81
ssg62
g2195
sg55
(lp2207
S':'
asbag48
(g69
g50
NtRp2208
(dp2209
g53
(dp2210
sg62
g2195
sg55
(lp2211
g48
(g49
g50
NtRp2212
(dp2213
g53
(dp2214
g61
I4
ssg62
g2208
sg55
(lp2215
g1624
asbasbasbag48
(g64
g50
NtRp2216
(dp2217
g53
(dp2218
sg62
g1577
sg55
(lp2219
g48
(g69
g50
NtRp2220
(dp2221
g53
(dp2222
g73
g74
ssg62
g2216
sg55
(lp2223
S'web2py_version'
p2224
asbag48
(g69
g50
NtRp2225
(dp2226
g53
(dp2227
g80
g81
ssg62
g2216
sg55
(lp2228
S':'
asbag48
(g69
g50
NtRp2229
(dp2230
g53
(dp2231
sg62
g2216
sg55
(lp2232
g48
(g49
g50
NtRp2233
(dp2234
g53
(dp2235
g61
I4
ssg62
g2229
sg55
(lp2236
S'Version 1.98.2 (2011-08-04 00:47:09)\n'
p2237
asbasbasbag48
(g64
g50
NtRp2238
(dp2239
g53
(dp2240
sg62
g1577
sg55
(lp2241
g48
(g69
g50
NtRp2242
(dp2243
g53
(dp2244
g73
g74
ssg62
g2238
sg55
(lp2245
S'wsgi_errors'
p2246
asbag48
(g69
g50
NtRp2247
(dp2248
g53
(dp2249
g80
g81
ssg62
g2238
sg55
(lp2250
S':'
asbag48
(g69
g50
NtRp2251
(dp2252
g53
(dp2253
sg62
g2238
sg55
(lp2254
g48
(g49
g50
NtRp2255
(dp2256
g53
(dp2257
g61
I4
ssg62
g2251
sg55
(lp2258
S"<open file '<stderr>', mode 'w' at 0x003100B0>"
p2259
asbasbasbag48
(g64
g50
NtRp2260
(dp2261
g53
(dp2262
sg62
g1577
sg55
(lp2263
g48
(g69
g50
NtRp2264
(dp2265
g53
(dp2266
g73
g74
ssg62
g2260
sg55
(lp2267
S'wsgi_file_wrapper'
p2268
asbag48
(g69
g50
NtRp2269
(dp2270
g53
(dp2271
g80
g81
ssg62
g2260
sg55
(lp2272
S':'
asbag48
(g69
g50
NtRp2273
(dp2274
g53
(dp2275
sg62
g2260
sg55
(lp2276
g48
(g49
g50
NtRp2277
(dp2278
g53
(dp2279
g61
I4
ssg62
g2273
sg55
(lp2280
S'<class gluon.rocket.FileWrapper at 0x02FFC1B0>'
p2281
asbasbasbag48
(g64
g50
NtRp2282
(dp2283
g53
(dp2284
sg62
g1577
sg55
(lp2285
g48
(g69
g50
NtRp2286
(dp2287
g53
(dp2288
g73
g74
ssg62
g2282
sg55
(lp2289
S'wsgi_input'
p2290
asbag48
(g69
g50
NtRp2291
(dp2292
g53
(dp2293
g80
g81
ssg62
g2282
sg55
(lp2294
S':'
asbag48
(g69
g50
NtRp2295
(dp2296
g53
(dp2297
sg62
g2282
sg55
(lp2298
g48
(g49
g50
NtRp2299
(dp2300
g53
(dp2301
g61
I4
ssg62
g2295
sg55
(lp2302
S'<socket._fileobject object at 0x0769A570>'
p2303
asbasbasbag48
(g64
g50
NtRp2304
(dp2305
g53
(dp2306
sg62
g1577
sg55
(lp2307
g48
(g69
g50
NtRp2308
(dp2309
g53
(dp2310
g73
g74
ssg62
g2304
sg55
(lp2311
S'wsgi_multiprocess'
p2312
asbag48
(g69
g50
NtRp2313
(dp2314
g53
(dp2315
g80
g81
ssg62
g2304
sg55
(lp2316
S':'
asbag48
(g69
g50
NtRp2317
(dp2318
g53
(dp2319
sg62
g2304
sg55
(lp2320
g48
(g49
g50
NtRp2321
(dp2322
g53
(dp2323
g61
I4
ssg62
g2317
sg55
(lp2324
g91
asbasbasbag48
(g64
g50
NtRp2325
(dp2326
g53
(dp2327
sg62
g1577
sg55
(lp2328
g48
(g69
g50
NtRp2329
(dp2330
g53
(dp2331
g73
g74
ssg62
g2325
sg55
(lp2332
S'wsgi_multithread'
p2333
asbag48
(g69
g50
NtRp2334
(dp2335
g53
(dp2336
g80
g81
ssg62
g2325
sg55
(lp2337
S':'
asbag48
(g69
g50
NtRp2338
(dp2339
g53
(dp2340
sg62
g2325
sg55
(lp2341
g48
(g49
g50
NtRp2342
(dp2343
g53
(dp2344
g61
I4
ssg62
g2338
sg55
(lp2345
S'True'
p2346
asbasbasbag48
(g64
g50
NtRp2347
(dp2348
g53
(dp2349
sg62
g1577
sg55
(lp2350
g48
(g69
g50
NtRp2351
(dp2352
g53
(dp2353
g73
g74
ssg62
g2347
sg55
(lp2354
S'wsgi_run_once'
p2355
asbag48
(g69
g50
NtRp2356
(dp2357
g53
(dp2358
g80
g81
ssg62
g2347
sg55
(lp2359
S':'
asbag48
(g69
g50
NtRp2360
(dp2361
g53
(dp2362
sg62
g2347
sg55
(lp2363
g48
(g49
g50
NtRp2364
(dp2365
g53
(dp2366
g61
I4
ssg62
g2360
sg55
(lp2367
g91
asbasbasbag48
(g64
g50
NtRp2368
(dp2369
g53
(dp2370
sg62
g1577
sg55
(lp2371
g48
(g69
g50
NtRp2372
(dp2373
g53
(dp2374
g73
g74
ssg62
g2368
sg55
(lp2375
S'wsgi_url_scheme'
p2376
asbag48
(g69
g50
NtRp2377
(dp2378
g53
(dp2379
g80
g81
ssg62
g2368
sg55
(lp2380
S':'
asbag48
(g69
g50
NtRp2381
(dp2382
g53
(dp2383
sg62
g2368
sg55
(lp2384
g48
(g49
g50
NtRp2385
(dp2386
g53
(dp2387
g61
I4
ssg62
g2381
sg55
(lp2388
S'http'
p2389
asbasbasbag48
(g64
g50
NtRp2390
(dp2391
g53
(dp2392
sg62
g1577
sg55
(lp2393
g48
(g69
g50
NtRp2394
(dp2395
g53
(dp2396
g73
g74
ssg62
g2390
sg55
(lp2397
S'wsgi_version'
p2398
asbag48
(g69
g50
NtRp2399
(dp2400
g53
(dp2401
g80
g81
ssg62
g2390
sg55
(lp2402
S':'
asbag48
(g69
g50
NtRp2403
(dp2404
g53
(dp2405
sg62
g2390
sg55
(lp2406
g48
(g49
g50
NtRp2407
(dp2408
g53
(dp2409
g61
I4
ssg62
g2403
sg55
(lp2410
g48
(g57
g50
NtRp2411
(dp2412
g53
(dp2413
g61
I3
ssg62
Nsg55
(lp2414
g48
(g64
g50
NtRp2415
(dp2416
g53
(dp2417
sg62
g2411
sg55
(lp2418
g48
(g69
g50
NtRp2419
(dp2420
g53
(dp2421
sg62
g2415
sg55
(lp2422
g48
(g49
g50
NtRp2423
(dp2424
g53
(dp2425
g61
I3
ssg62
g2419
sg55
(lp2426
S'1'
asbasbasbag48
(g64
g50
NtRp2427
(dp2428
g53
(dp2429
sg62
g2411
sg55
(lp2430
g48
(g69
g50
NtRp2431
(dp2432
g53
(dp2433
sg62
g2427
sg55
(lp2434
g48
(g49
g50
NtRp2435
(dp2436
g53
(dp2437
g61
I3
ssg62
g2431
sg55
(lp2438
S'0'
asbasbasbasbasbasbasbasbasbasbasbag48
(g64
g50
NtRp2439
(dp2440
g53
(dp2441
sg62
g58
sg55
(lp2442
g48
(g69
g50
NtRp2443
(dp2444
g53
(dp2445
g73
g74
ssg62
g2439
sg55
(lp2446
S'extension'
p2447
asbag48
(g69
g50
NtRp2448
(dp2449
g53
(dp2450
g80
g81
ssg62
g2439
sg55
(lp2451
S':'
asbag48
(g69
g50
NtRp2452
(dp2453
g53
(dp2454
sg62
g2439
sg55
(lp2455
g48
(g49
g50
NtRp2456
(dp2457
g53
(dp2458
g61
I5
ssg62
g2452
sg55
(lp2459
S'html'
p2460
asbasbasbag48
(g64
g50
NtRp2461
(dp2462
g53
(dp2463
sg62
g58
sg55
(lp2464
g48
(g69
g50
NtRp2465
(dp2466
g53
(dp2467
g73
g74
ssg62
g2461
sg55
(lp2468
S'folder'
p2469
asbag48
(g69
g50
NtRp2470
(dp2471
g53
(dp2472
g80
g81
ssg62
g2461
sg55
(lp2473
S':'
asbag48
(g69
g50
NtRp2474
(dp2475
g53
(dp2476
sg62
g2461
sg55
(lp2477
g48
(g49
g50
NtRp2478
(dp2479
g53
(dp2480
g61
I5
ssg62
g2474
sg55
(lp2481
S'C:\\Users\\Atomico\\web2py\\applications\\Desglosar_Emails\\'
p2482
asbasbasbag48
(g64
g50
NtRp2483
(dp2484
g53
(dp2485
sg62
g58
sg55
(lp2486
g48
(g69
g50
NtRp2487
(dp2488
g53
(dp2489
g73
g74
ssg62
g2483
sg55
(lp2490
S'function'
p2491
asbag48
(g69
g50
NtRp2492
(dp2493
g53
(dp2494
g80
g81
ssg62
g2483
sg55
(lp2495
S':'
asbag48
(g69
g50
NtRp2496
(dp2497
g53
(dp2498
sg62
g2483
sg55
(lp2499
g48
(g49
g50
NtRp2500
(dp2501
g53
(dp2502
g61
I5
ssg62
g2496
sg55
(lp2503
S'entrada_mod3'
p2504
asbasbasbag48
(g64
g50
NtRp2505
(dp2506
g53
(dp2507
sg62
g58
sg55
(lp2508
g48
(g69
g50
NtRp2509
(dp2510
g53
(dp2511
g73
g74
ssg62
g2505
sg55
(lp2512
S'get_vars'
p2513
asbag48
(g69
g50
NtRp2514
(dp2515
g53
(dp2516
g80
g81
ssg62
g2505
sg55
(lp2517
S':'
asbag48
(g69
g50
NtRp2518
(dp2519
g53
(dp2520
sg62
g2505
sg55
(lp2521
g48
(g49
g50
NtRp2522
(dp2523
g53
(dp2524
g61
I5
ssg62
g2518
sg55
(lp2525
g48
(g57
g50
NtRp2526
(dp2527
g53
(dp2528
g61
I4
ssg62
Nsg55
(lp2529
sbasbasbasbag48
(g64
g50
NtRp2530
(dp2531
g53
(dp2532
sg62
g58
sg55
(lp2533
g48
(g69
g50
NtRp2534
(dp2535
g53
(dp2536
g73
g74
ssg62
g2530
sg55
(lp2537
S'is_https'
p2538
asbag48
(g69
g50
NtRp2539
(dp2540
g53
(dp2541
g80
g81
ssg62
g2530
sg55
(lp2542
S':'
asbag48
(g69
g50
NtRp2543
(dp2544
g53
(dp2545
sg62
g2530
sg55
(lp2546
g48
(g49
g50
NtRp2547
(dp2548
g53
(dp2549
g61
I5
ssg62
g2543
sg55
(lp2550
g91
asbasbasbag48
(g64
g50
NtRp2551
(dp2552
g53
(dp2553
sg62
g58
sg55
(lp2554
g48
(g69
g50
NtRp2555
(dp2556
g53
(dp2557
g73
g74
ssg62
g2551
sg55
(lp2558
S'is_local'
p2559
asbag48
(g69
g50
NtRp2560
(dp2561
g53
(dp2562
g80
g81
ssg62
g2551
sg55
(lp2563
S':'
asbag48
(g69
g50
NtRp2564
(dp2565
g53
(dp2566
sg62
g2551
sg55
(lp2567
g48
(g49
g50
NtRp2568
(dp2569
g53
(dp2570
g61
I5
ssg62
g2564
sg55
(lp2571
g2346
asbasbasbag48
(g64
g50
NtRp2572
(dp2573
g53
(dp2574
sg62
g58
sg55
(lp2575
g48
(g69
g50
NtRp2576
(dp2577
g53
(dp2578
g73
g74
ssg62
g2572
sg55
(lp2579
S'is_restful'
p2580
asbag48
(g69
g50
NtRp2581
(dp2582
g53
(dp2583
g80
g81
ssg62
g2572
sg55
(lp2584
S':'
asbag48
(g69
g50
NtRp2585
(dp2586
g53
(dp2587
sg62
g2572
sg55
(lp2588
g48
(g49
g50
NtRp2589
(dp2590
g53
(dp2591
g61
I5
ssg62
g2585
sg55
(lp2592
g91
asbasbasbag48
(g64
g50
NtRp2593
(dp2594
g53
(dp2595
sg62
g58
sg55
(lp2596
g48
(g69
g50
NtRp2597
(dp2598
g53
(dp2599
g73
g74
ssg62
g2593
sg55
(lp2600
S'now'
p2601
asbag48
(g69
g50
NtRp2602
(dp2603
g53
(dp2604
g80
g81
ssg62
g2593
sg55
(lp2605
S':'
asbag48
(g69
g50
NtRp2606
(dp2607
g53
(dp2608
sg62
g2593
sg55
(lp2609
g48
(g49
g50
NtRp2610
(dp2611
g53
(dp2612
g61
I5
ssg62
g2606
sg55
(lp2613
S'datetime.datetime(2011, 9, 20, 6, 28, 11, 941000)'
p2614
asbasbasbag48
(g64
g50
NtRp2615
(dp2616
g53
(dp2617
sg62
g58
sg55
(lp2618
g48
(g69
g50
NtRp2619
(dp2620
g53
(dp2621
g73
g74
ssg62
g2615
sg55
(lp2622
S'post_vars'
p2623
asbag48
(g69
g50
NtRp2624
(dp2625
g53
(dp2626
g80
g81
ssg62
g2615
sg55
(lp2627
S':'
asbag48
(g69
g50
NtRp2628
(dp2629
g53
(dp2630
sg62
g2615
sg55
(lp2631
g48
(g49
g50
NtRp2632
(dp2633
g53
(dp2634
g61
I5
ssg62
g2628
sg55
(lp2635
g48
(g57
g50
NtRp2636
(dp2637
g53
(dp2638
g61
I4
ssg62
Nsg55
(lp2639
sbasbasbasbag48
(g64
g50
NtRp2640
(dp2641
g53
(dp2642
sg62
g58
sg55
(lp2643
g48
(g69
g50
NtRp2644
(dp2645
g53
(dp2646
g73
g74
ssg62
g2640
sg55
(lp2647
S'url'
p2648
asbag48
(g69
g50
NtRp2649
(dp2650
g53
(dp2651
g80
g81
ssg62
g2640
sg55
(lp2652
S':'
asbag48
(g69
g50
NtRp2653
(dp2654
g53
(dp2655
sg62
g2640
sg55
(lp2656
g48
(g49
g50
NtRp2657
(dp2658
g53
(dp2659
g61
I5
ssg62
g2653
sg55
(lp2660
S'/Desglosar_Emails/default/entrada_mod3'
p2661
asbasbasbag48
(g64
g50
NtRp2662
(dp2663
g53
(dp2664
sg62
g58
sg55
(lp2665
g48
(g69
g50
NtRp2666
(dp2667
g53
(dp2668
g73
g74
ssg62
g2662
sg55
(lp2669
S'uuid'
p2670
asbag48
(g69
g50
NtRp2671
(dp2672
g53
(dp2673
g80
g81
ssg62
g2662
sg55
(lp2674
S':'
asbag48
(g69
g50
NtRp2675
(dp2676
g53
(dp2677
sg62
g2662
sg55
(lp2678
g48
(g49
g50
NtRp2679
(dp2680
g53
(dp2681
g61
I5
ssg62
g2675
sg55
(lp2682
S'Desglosar_Emails/127.0.0.1.2011-09-20.06-28-11.b852265b-c845-4e8c-a8b3-1a0b6a0814b9'
p2683
asbasbasbag48
(g64
g50
NtRp2684
(dp2685
g53
(dp2686
sg62
g58
sg55
(lp2687
g48
(g69
g50
NtRp2688
(dp2689
g53
(dp2690
g73
g74
ssg62
g2684
sg55
(lp2691
S'vars'
p2692
asbag48
(g69
g50
NtRp2693
(dp2694
g53
(dp2695
g80
g81
ssg62
g2684
sg55
(lp2696
S':'
asbag48
(g69
g50
NtRp2697
(dp2698
g53
(dp2699
sg62
g2684
sg55
(lp2700
g48
(g49
g50
NtRp2701
(dp2702
g53
(dp2703
g61
I5
ssg62
g2697
sg55
(lp2704
g48
(g57
g50
NtRp2705
(dp2706
g53
(dp2707
g61
I4
ssg62
Nsg55
(lp2708
sbasbasbasbag48
(g64
g50
NtRp2709
(dp2710
g53
(dp2711
sg62
g58
sg55
(lp2712
g48
(g69
g50
NtRp2713
(dp2714
g53
(dp2715
g73
g74
ssg62
g2709
sg55
(lp2716
S'wsgi'
p2717
asbag48
(g69
g50
NtRp2718
(dp2719
g53
(dp2720
g80
g81
ssg62
g2709
sg55
(lp2721
S':'
asbag48
(g69
g50
NtRp2722
(dp2723
g53
(dp2724
sg62
g2709
sg55
(lp2725
g48
(g49
g50
NtRp2726
(dp2727
g53
(dp2728
g61
I5
ssg62
g2722
sg55
(lp2729
g48
(g57
g50
NtRp2730
(dp2731
g53
(dp2732
g61
I4
ssg62
Nsg55
(lp2733
g48
(g64
g50
NtRp2734
(dp2735
g53
(dp2736
sg62
g2730
sg55
(lp2737
g48
(g69
g50
NtRp2738
(dp2739
g53
(dp2740
g73
g74
ssg62
g2734
sg55
(lp2741
S'environ'
p2742
asbag48
(g69
g50
NtRp2743
(dp2744
g53
(dp2745
g80
g81
ssg62
g2734
sg55
(lp2746
S':'
asbag48
(g69
g50
NtRp2747
(dp2748
g53
(dp2749
sg62
g2734
sg55
(lp2750
g48
(g49
g50
NtRp2751
(dp2752
g53
(dp2753
g61
I4
ssg62
g2747
sg55
(lp2754
g48
(g57
g50
NtRp2755
(dp2756
g53
(dp2757
g61
I3
ssg62
Nsg55
(lp2758
g48
(g64
g50
NtRp2759
(dp2760
g53
(dp2761
sg62
g2755
sg55
(lp2762
g48
(g69
g50
NtRp2763
(dp2764
g53
(dp2765
g73
g74
ssg62
g2759
sg55
(lp2766
S'HTTP_ACCEPT'
p2767
asbag48
(g69
g50
NtRp2768
(dp2769
g53
(dp2770
g80
g81
ssg62
g2759
sg55
(lp2771
S':'
asbag48
(g69
g50
NtRp2772
(dp2773
g53
(dp2774
sg62
g2759
sg55
(lp2775
g48
(g49
g50
NtRp2776
(dp2777
g53
(dp2778
g61
I3
ssg62
g2772
sg55
(lp2779
g1758
asbasbasbag48
(g64
g50
NtRp2780
(dp2781
g53
(dp2782
sg62
g2755
sg55
(lp2783
g48
(g69
g50
NtRp2784
(dp2785
g53
(dp2786
g73
g74
ssg62
g2780
sg55
(lp2787
S'HTTP_ACCEPT_CHARSET'
p2788
asbag48
(g69
g50
NtRp2789
(dp2790
g53
(dp2791
g80
g81
ssg62
g2780
sg55
(lp2792
S':'
asbag48
(g69
g50
NtRp2793
(dp2794
g53
(dp2795
sg62
g2780
sg55
(lp2796
g48
(g49
g50
NtRp2797
(dp2798
g53
(dp2799
g61
I3
ssg62
g2793
sg55
(lp2800
g1780
asbasbasbag48
(g64
g50
NtRp2801
(dp2802
g53
(dp2803
sg62
g2755
sg55
(lp2804
g48
(g69
g50
NtRp2805
(dp2806
g53
(dp2807
g73
g74
ssg62
g2801
sg55
(lp2808
S'HTTP_ACCEPT_ENCODING'
p2809
asbag48
(g69
g50
NtRp2810
(dp2811
g53
(dp2812
g80
g81
ssg62
g2801
sg55
(lp2813
S':'
asbag48
(g69
g50
NtRp2814
(dp2815
g53
(dp2816
sg62
g2801
sg55
(lp2817
g48
(g49
g50
NtRp2818
(dp2819
g53
(dp2820
g61
I3
ssg62
g2814
sg55
(lp2821
g1802
asbasbasbag48
(g64
g50
NtRp2822
(dp2823
g53
(dp2824
sg62
g2755
sg55
(lp2825
g48
(g69
g50
NtRp2826
(dp2827
g53
(dp2828
g73
g74
ssg62
g2822
sg55
(lp2829
S'HTTP_ACCEPT_LANGUAGE'
p2830
asbag48
(g69
g50
NtRp2831
(dp2832
g53
(dp2833
g80
g81
ssg62
g2822
sg55
(lp2834
S':'
asbag48
(g69
g50
NtRp2835
(dp2836
g53
(dp2837
sg62
g2822
sg55
(lp2838
g48
(g49
g50
NtRp2839
(dp2840
g53
(dp2841
g61
I3
ssg62
g2835
sg55
(lp2842
g1824
asbasbasbag48
(g64
g50
NtRp2843
(dp2844
g53
(dp2845
sg62
g2755
sg55
(lp2846
g48
(g69
g50
NtRp2847
(dp2848
g53
(dp2849
g73
g74
ssg62
g2843
sg55
(lp2850
S'HTTP_CONNECTION'
p2851
asbag48
(g69
g50
NtRp2852
(dp2853
g53
(dp2854
g80
g81
ssg62
g2843
sg55
(lp2855
S':'
asbag48
(g69
g50
NtRp2856
(dp2857
g53
(dp2858
sg62
g2843
sg55
(lp2859
g48
(g49
g50
NtRp2860
(dp2861
g53
(dp2862
g61
I3
ssg62
g2856
sg55
(lp2863
g1846
asbasbasbag48
(g64
g50
NtRp2864
(dp2865
g53
(dp2866
sg62
g2755
sg55
(lp2867
g48
(g69
g50
NtRp2868
(dp2869
g53
(dp2870
g73
g74
ssg62
g2864
sg55
(lp2871
S'HTTP_COOKIE'
p2872
asbag48
(g69
g50
NtRp2873
(dp2874
g53
(dp2875
g80
g81
ssg62
g2864
sg55
(lp2876
S':'
asbag48
(g69
g50
NtRp2877
(dp2878
g53
(dp2879
sg62
g2864
sg55
(lp2880
g48
(g49
g50
NtRp2881
(dp2882
g53
(dp2883
g61
I3
ssg62
g2877
sg55
(lp2884
g1868
asbasbasbag48
(g64
g50
NtRp2885
(dp2886
g53
(dp2887
sg62
g2755
sg55
(lp2888
g48
(g69
g50
NtRp2889
(dp2890
g53
(dp2891
g73
g74
ssg62
g2885
sg55
(lp2892
S'HTTP_HOST'
p2893
asbag48
(g69
g50
NtRp2894
(dp2895
g53
(dp2896
g80
g81
ssg62
g2885
sg55
(lp2897
S':'
asbag48
(g69
g50
NtRp2898
(dp2899
g53
(dp2900
sg62
g2885
sg55
(lp2901
g48
(g49
g50
NtRp2902
(dp2903
g53
(dp2904
g61
I3
ssg62
g2898
sg55
(lp2905
g1890
asbasbasbag48
(g64
g50
NtRp2906
(dp2907
g53
(dp2908
sg62
g2755
sg55
(lp2909
g48
(g69
g50
NtRp2910
(dp2911
g53
(dp2912
g73
g74
ssg62
g2906
sg55
(lp2913
S'HTTP_REFERER'
p2914
asbag48
(g69
g50
NtRp2915
(dp2916
g53
(dp2917
g80
g81
ssg62
g2906
sg55
(lp2918
S':'
asbag48
(g69
g50
NtRp2919
(dp2920
g53
(dp2921
sg62
g2906
sg55
(lp2922
g48
(g49
g50
NtRp2923
(dp2924
g53
(dp2925
g61
I3
ssg62
g2919
sg55
(lp2926
g1912
asbasbasbag48
(g64
g50
NtRp2927
(dp2928
g53
(dp2929
sg62
g2755
sg55
(lp2930
g48
(g69
g50
NtRp2931
(dp2932
g53
(dp2933
g73
g74
ssg62
g2927
sg55
(lp2934
S'HTTP_USER_AGENT'
p2935
asbag48
(g69
g50
NtRp2936
(dp2937
g53
(dp2938
g80
g81
ssg62
g2927
sg55
(lp2939
S':'
asbag48
(g69
g50
NtRp2940
(dp2941
g53
(dp2942
sg62
g2927
sg55
(lp2943
g48
(g49
g50
NtRp2944
(dp2945
g53
(dp2946
g61
I3
ssg62
g2940
sg55
(lp2947
g1934
asbasbasbag48
(g64
g50
NtRp2948
(dp2949
g53
(dp2950
sg62
g2755
sg55
(lp2951
g48
(g69
g50
NtRp2952
(dp2953
g53
(dp2954
g73
g74
ssg62
g2948
sg55
(lp2955
S'PATH_INFO'
p2956
asbag48
(g69
g50
NtRp2957
(dp2958
g53
(dp2959
g80
g81
ssg62
g2948
sg55
(lp2960
S':'
asbag48
(g69
g50
NtRp2961
(dp2962
g53
(dp2963
sg62
g2948
sg55
(lp2964
g48
(g49
g50
NtRp2965
(dp2966
g53
(dp2967
g61
I3
ssg62
g2961
sg55
(lp2968
g1977
asbasbasbag48
(g64
g50
NtRp2969
(dp2970
g53
(dp2971
sg62
g2755
sg55
(lp2972
g48
(g69
g50
NtRp2973
(dp2974
g53
(dp2975
g73
g74
ssg62
g2969
sg55
(lp2976
S'QUERY_STRING'
p2977
asbag48
(g69
g50
NtRp2978
(dp2979
g53
(dp2980
g80
g81
ssg62
g2969
sg55
(lp2981
S':'
asbag48
(g69
g50
NtRp2982
(dp2983
g53
(dp2984
sg62
g2969
sg55
(lp2985
g48
(g49
g50
NtRp2986
(dp2987
g53
(dp2988
g61
I3
ssg62
g2982
sg55
(lp2989
S''
asbasbasbag48
(g64
g50
NtRp2990
(dp2991
g53
(dp2992
sg62
g2755
sg55
(lp2993
g48
(g69
g50
NtRp2994
(dp2995
g53
(dp2996
g73
g74
ssg62
g2990
sg55
(lp2997
S'REMOTE_ADDR'
p2998
asbag48
(g69
g50
NtRp2999
(dp3000
g53
(dp3001
g80
g81
ssg62
g2990
sg55
(lp3002
S':'
asbag48
(g69
g50
NtRp3003
(dp3004
g53
(dp3005
sg62
g2990
sg55
(lp3006
g48
(g49
g50
NtRp3007
(dp3008
g53
(dp3009
g61
I3
ssg62
g3003
sg55
(lp3010
g181
asbasbasbag48
(g64
g50
NtRp3011
(dp3012
g53
(dp3013
sg62
g2755
sg55
(lp3014
g48
(g69
g50
NtRp3015
(dp3016
g53
(dp3017
g73
g74
ssg62
g3011
sg55
(lp3018
S'REMOTE_PORT'
p3019
asbag48
(g69
g50
NtRp3020
(dp3021
g53
(dp3022
g80
g81
ssg62
g3011
sg55
(lp3023
S':'
asbag48
(g69
g50
NtRp3024
(dp3025
g53
(dp3026
sg62
g3011
sg55
(lp3027
g48
(g49
g50
NtRp3028
(dp3029
g53
(dp3030
g61
I3
ssg62
g3024
sg55
(lp3031
g2041
asbasbasbag48
(g64
g50
NtRp3032
(dp3033
g53
(dp3034
sg62
g2755
sg55
(lp3035
g48
(g69
g50
NtRp3036
(dp3037
g53
(dp3038
g73
g74
ssg62
g3032
sg55
(lp3039
S'REQUEST_METHOD'
p3040
asbag48
(g69
g50
NtRp3041
(dp3042
g53
(dp3043
g80
g81
ssg62
g3032
sg55
(lp3044
S':'
asbag48
(g69
g50
NtRp3045
(dp3046
g53
(dp3047
sg62
g3032
sg55
(lp3048
g48
(g49
g50
NtRp3049
(dp3050
g53
(dp3051
g61
I3
ssg62
g3045
sg55
(lp3052
g2063
asbasbasbag48
(g64
g50
NtRp3053
(dp3054
g53
(dp3055
sg62
g2755
sg55
(lp3056
g48
(g69
g50
NtRp3057
(dp3058
g53
(dp3059
g73
g74
ssg62
g3053
sg55
(lp3060
S'SCRIPT_NAME'
p3061
asbag48
(g69
g50
NtRp3062
(dp3063
g53
(dp3064
g80
g81
ssg62
g3053
sg55
(lp3065
S':'
asbag48
(g69
g50
NtRp3066
(dp3067
g53
(dp3068
sg62
g3053
sg55
(lp3069
g48
(g49
g50
NtRp3070
(dp3071
g53
(dp3072
g61
I3
ssg62
g3066
sg55
(lp3073
S''
asbasbasbag48
(g64
g50
NtRp3074
(dp3075
g53
(dp3076
sg62
g2755
sg55
(lp3077
g48
(g69
g50
NtRp3078
(dp3079
g53
(dp3080
g73
g74
ssg62
g3074
sg55
(lp3081
S'SERVER_NAME'
p3082
asbag48
(g69
g50
NtRp3083
(dp3084
g53
(dp3085
g80
g81
ssg62
g3074
sg55
(lp3086
S':'
asbag48
(g69
g50
NtRp3087
(dp3088
g53
(dp3089
sg62
g3074
sg55
(lp3090
g48
(g49
g50
NtRp3091
(dp3092
g53
(dp3093
g61
I3
ssg62
g3087
sg55
(lp3094
g2106
asbasbasbag48
(g64
g50
NtRp3095
(dp3096
g53
(dp3097
sg62
g2755
sg55
(lp3098
g48
(g69
g50
NtRp3099
(dp3100
g53
(dp3101
g73
g74
ssg62
g3095
sg55
(lp3102
S'SERVER_PORT'
p3103
asbag48
(g69
g50
NtRp3104
(dp3105
g53
(dp3106
g80
g81
ssg62
g3095
sg55
(lp3107
S':'
asbag48
(g69
g50
NtRp3108
(dp3109
g53
(dp3110
sg62
g3095
sg55
(lp3111
g48
(g49
g50
NtRp3112
(dp3113
g53
(dp3114
g61
I3
ssg62
g3108
sg55
(lp3115
g2128
asbasbasbag48
(g64
g50
NtRp3116
(dp3117
g53
(dp3118
sg62
g2755
sg55
(lp3119
g48
(g69
g50
NtRp3120
(dp3121
g53
(dp3122
g73
g74
ssg62
g3116
sg55
(lp3123
S'SERVER_PROTOCOL'
p3124
asbag48
(g69
g50
NtRp3125
(dp3126
g53
(dp3127
g80
g81
ssg62
g3116
sg55
(lp3128
S':'
asbag48
(g69
g50
NtRp3129
(dp3130
g53
(dp3131
sg62
g3116
sg55
(lp3132
g48
(g49
g50
NtRp3133
(dp3134
g53
(dp3135
g61
I3
ssg62
g3129
sg55
(lp3136
g2150
asbasbasbag48
(g64
g50
NtRp3137
(dp3138
g53
(dp3139
sg62
g2755
sg55
(lp3140
g48
(g69
g50
NtRp3141
(dp3142
g53
(dp3143
g73
g74
ssg62
g3137
sg55
(lp3144
S'SERVER_SOFTWARE'
p3145
asbag48
(g69
g50
NtRp3146
(dp3147
g53
(dp3148
g80
g81
ssg62
g3137
sg55
(lp3149
S':'
asbag48
(g69
g50
NtRp3150
(dp3151
g53
(dp3152
sg62
g3137
sg55
(lp3153
g48
(g49
g50
NtRp3154
(dp3155
g53
(dp3156
g61
I3
ssg62
g3150
sg55
(lp3157
g2172
asbasbasbag48
(g64
g50
NtRp3158
(dp3159
g53
(dp3160
sg62
g2755
sg55
(lp3161
g48
(g69
g50
NtRp3162
(dp3163
g53
(dp3164
g73
g74
ssg62
g3158
sg55
(lp3165
S'wsgi.errors'
p3166
asbag48
(g69
g50
NtRp3167
(dp3168
g53
(dp3169
g80
g81
ssg62
g3158
sg55
(lp3170
S':'
asbag48
(g69
g50
NtRp3171
(dp3172
g53
(dp3173
sg62
g3158
sg55
(lp3174
g48
(g49
g50
NtRp3175
(dp3176
g53
(dp3177
g61
I3
ssg62
g3171
sg55
(lp3178
S"<open file '<stderr>', mode 'w' at 0x003100B0>"
p3179
asbasbasbag48
(g64
g50
NtRp3180
(dp3181
g53
(dp3182
sg62
g2755
sg55
(lp3183
g48
(g69
g50
NtRp3184
(dp3185
g53
(dp3186
g73
g74
ssg62
g3180
sg55
(lp3187
S'wsgi.file_wrapper'
p3188
asbag48
(g69
g50
NtRp3189
(dp3190
g53
(dp3191
g80
g81
ssg62
g3180
sg55
(lp3192
S':'
asbag48
(g69
g50
NtRp3193
(dp3194
g53
(dp3195
sg62
g3180
sg55
(lp3196
g48
(g49
g50
NtRp3197
(dp3198
g53
(dp3199
g61
I3
ssg62
g3193
sg55
(lp3200
S'<class gluon.rocket.FileWrapper at 0x02FFC1B0>'
p3201
asbasbasbag48
(g64
g50
NtRp3202
(dp3203
g53
(dp3204
sg62
g2755
sg55
(lp3205
g48
(g69
g50
NtRp3206
(dp3207
g53
(dp3208
g73
g74
ssg62
g3202
sg55
(lp3209
S'wsgi.input'
p3210
asbag48
(g69
g50
NtRp3211
(dp3212
g53
(dp3213
g80
g81
ssg62
g3202
sg55
(lp3214
S':'
asbag48
(g69
g50
NtRp3215
(dp3216
g53
(dp3217
sg62
g3202
sg55
(lp3218
g48
(g49
g50
NtRp3219
(dp3220
g53
(dp3221
g61
I3
ssg62
g3215
sg55
(lp3222
S'<cStringIO.StringO object at 0x07CB7840>'
p3223
asbasbasbag48
(g64
g50
NtRp3224
(dp3225
g53
(dp3226
sg62
g2755
sg55
(lp3227
g48
(g69
g50
NtRp3228
(dp3229
g53
(dp3230
g73
g74
ssg62
g3224
sg55
(lp3231
S'wsgi.multiprocess'
p3232
asbag48
(g69
g50
NtRp3233
(dp3234
g53
(dp3235
g80
g81
ssg62
g3224
sg55
(lp3236
S':'
asbag48
(g69
g50
NtRp3237
(dp3238
g53
(dp3239
sg62
g3224
sg55
(lp3240
g48
(g49
g50
NtRp3241
(dp3242
g53
(dp3243
g61
I3
ssg62
g3237
sg55
(lp3244
g91
asbasbasbag48
(g64
g50
NtRp3245
(dp3246
g53
(dp3247
sg62
g2755
sg55
(lp3248
g48
(g69
g50
NtRp3249
(dp3250
g53
(dp3251
g73
g74
ssg62
g3245
sg55
(lp3252
S'wsgi.multithread'
p3253
asbag48
(g69
g50
NtRp3254
(dp3255
g53
(dp3256
g80
g81
ssg62
g3245
sg55
(lp3257
S':'
asbag48
(g69
g50
NtRp3258
(dp3259
g53
(dp3260
sg62
g3245
sg55
(lp3261
g48
(g49
g50
NtRp3262
(dp3263
g53
(dp3264
g61
I3
ssg62
g3258
sg55
(lp3265
g2346
asbasbasbag48
(g64
g50
NtRp3266
(dp3267
g53
(dp3268
sg62
g2755
sg55
(lp3269
g48
(g69
g50
NtRp3270
(dp3271
g53
(dp3272
g73
g74
ssg62
g3266
sg55
(lp3273
S'wsgi.run_once'
p3274
asbag48
(g69
g50
NtRp3275
(dp3276
g53
(dp3277
g80
g81
ssg62
g3266
sg55
(lp3278
S':'
asbag48
(g69
g50
NtRp3279
(dp3280
g53
(dp3281
sg62
g3266
sg55
(lp3282
g48
(g49
g50
NtRp3283
(dp3284
g53
(dp3285
g61
I3
ssg62
g3279
sg55
(lp3286
g91
asbasbasbag48
(g64
g50
NtRp3287
(dp3288
g53
(dp3289
sg62
g2755
sg55
(lp3290
g48
(g69
g50
NtRp3291
(dp3292
g53
(dp3293
g73
g74
ssg62
g3287
sg55
(lp3294
S'wsgi.url_scheme'
p3295
asbag48
(g69
g50
NtRp3296
(dp3297
g53
(dp3298
g80
g81
ssg62
g3287
sg55
(lp3299
S':'
asbag48
(g69
g50
NtRp3300
(dp3301
g53
(dp3302
sg62
g3287
sg55
(lp3303
g48
(g49
g50
NtRp3304
(dp3305
g53
(dp3306
g61
I3
ssg62
g3300
sg55
(lp3307
g2389
asbasbasbag48
(g64
g50
NtRp3308
(dp3309
g53
(dp3310
sg62
g2755
sg55
(lp3311
g48
(g69
g50
NtRp3312
(dp3313
g53
(dp3314
g73
g74
ssg62
g3308
sg55
(lp3315
S'wsgi.version'
p3316
asbag48
(g69
g50
NtRp3317
(dp3318
g53
(dp3319
g80
g81
ssg62
g3308
sg55
(lp3320
S':'
asbag48
(g69
g50
NtRp3321
(dp3322
g53
(dp3323
sg62
g3308
sg55
(lp3324
g48
(g49
g50
NtRp3325
(dp3326
g53
(dp3327
g61
I3
ssg62
g3321
sg55
(lp3328
S'1'
asbasbasbasbasbasbasbasbasbasbasbasbasbsS'frames'
p3329
(lp3330
(dp3331
S'file'
p3332
S'C:\\Users\\Atomico\\web2py\\gluon\\restricted.py'
p3333
sS'dump'
p3334
(dp3335
sS'lnum'
p3336
I192
sS'lines'
p3337
(dp3338
sS'call'
p3339
S'(code=\'response.write(\\\'<!DOCTYPE html>\\\\n<html lang="\\\', ...t   -->    \\\\n  </body>\\\\n</html>\\\\n\\\', escape=False)\', environment={\'A\': <class \'gluon.html.A\'>, \'B\': <class \'gluon.html.B\'>, \'BEAUTIFY\': <class \'gluon.html.BEAUTIFY\'>, \'BODY\': <class \'gluon.html.BODY\'>, \'BR\': <class \'gluon.html.BR\'>, \'BUTTON\': <class \'gluon.html.BUTTON\'>, \'CAT\': <class \'gluon.html.CAT\'>, \'CENTER\': <class \'gluon.html.CENTER\'>, \'CLEANUP\': <class \'gluon.validators.CLEANUP\'>, \'CODE\': <class \'gluon.html.CODE\'>, ...}, layer=r\'C:\\Users\\Atomico\\web2py\\applications\\Desglosar_Emails\\views\\default/entrada_mod3.html\')'
p3340
sS'func'
p3341
S'restricted'
p3342
sa(dp3343
g3332
S'C:\\Users\\Atomico\\web2py\\applications\\Desglosar_Emails\\views\\default\\entrada_mod3.html'
p3344
sg3334
(dp3345
sg3336
I121
sg3337
(dp3346
I128
S'    pass'
p3347
sI129
S'pass'
p3348
sI130
S"response.write(' \\r\\n es la posf\\r\\n', escape=False)"
p3349
sI131
S"response.write('\\t\\n\\t  </div>\\n\\t  <!-- content -->\\n\\n\\t  ', escape=False)"
p3350
sI112
S'response.write(len(res))'
p3351
sI113
S"for i in res: response.write(i+'<br>',escape=False)"
p3352
sI114
S'res2=patternemail.findall(txt)'
p3353
sI115
S'response.write(len(res2))'
p3354
sI116
S'for i in res2: response.write(i)'
p3355
sI117
S'i=0'
p3356
sI118
S'con=0'
p3357
sI119
S'while i<len(res):'
p3358
sI120
S'    if patternemail.search(res[i])!=False:'
p3359
sI121
S'        contactos[con].nombre=res[i]'
p3360
sI122
S'        contactos[con].email=res[i+1]'
p3361
sI123
S'        i=i+2'
p3362
sI124
S'    elif patternemail.search(res[i]):'
p3363
sI125
S'        contactos[con].email=res[i]'
p3364
sI126
S'        i=i+1'
p3365
sI127
S"    else: response.write('Aqu\xc3\xad hay un problema')"
p3366
ssg3339
S'()'
p3367
sg3341
S'<module>'
p3368
sasS'pyver'
p3369
S'Python 2.5.4: C:\\Users\\Atomico\\web2py\\web2py.exe'
p3370
sS'session'
p3371
g48
(g49
g50
NtRp3372
(dp3373
g53
(dp3374
sg55
(lp3375
g48
(g57
g50
NtRp3376
(dp3377
g53
(dp3378
g61
I5
ssg62
Nsg55
(lp3379
g48
(g64
g50
NtRp3380
(dp3381
g53
(dp3382
sg62
g3376
sg55
(lp3383
g48
(g69
g50
NtRp3384
(dp3385
g53
(dp3386
g73
g74
ssg62
g3380
sg55
(lp3387
S'last_query'
p3388
asbag48
(g69
g50
NtRp3389
(dp3390
g53
(dp3391
g80
g81
ssg62
g3380
sg55
(lp3392
S':'
asbag48
(g69
g50
NtRp3393
(dp3394
g53
(dp3395
sg62
g3380
sg55
(lp3396
g48
(g49
g50
NtRp3397
(dp3398
g53
(dp3399
g61
I5
ssg62
g3393
sg55
(lp3400
S'db.info4.id>0'
p3401
asbasbasbasbasbsS'etype'
p3402
S"<type 'exceptions.NameError'>"
p3403
sS'date'
p3404
S'Tue Sep 20 06:28:12 2011'
p3405
sS'response'
p3406
g48
(g49
g50
NtRp3407
(dp3408
g53
(dp3409
sg55
(lp3410
g48
(g57
g50
NtRp3411
(dp3412
g53
(dp3413
g61
I5
ssg62
Nsg55
(lp3414
g48
(g64
g50
NtRp3415
(dp3416
g53
(dp3417
sg62
g3411
sg55
(lp3418
g48
(g69
g50
NtRp3419
(dp3420
g53
(dp3421
g73
g74
ssg62
g3415
sg55
(lp3422
g146
asbag48
(g69
g50
NtRp3423
(dp3424
g53
(dp3425
g80
g81
ssg62
g3415
sg55
(lp3426
S':'
asbag48
(g69
g50
NtRp3427
(dp3428
g53
(dp3429
sg62
g3415
sg55
(lp3430
g48
(g49
g50
NtRp3431
(dp3432
g53
(dp3433
g61
I5
ssg62
g3427
sg55
(lp3434
S'<cStringIO.StringO object at 0x07CB7700>'
p3435
asbasbasbag48
(g64
g50
NtRp3436
(dp3437
g53
(dp3438
sg62
g3411
sg55
(lp3439
g48
(g69
g50
NtRp3440
(dp3441
g53
(dp3442
g73
g74
ssg62
g3436
sg55
(lp3443
g212
asbag48
(g69
g50
NtRp3444
(dp3445
g53
(dp3446
g80
g81
ssg62
g3436
sg55
(lp3447
S':'
asbag48
(g69
g50
NtRp3448
(dp3449
g53
(dp3450
sg62
g3436
sg55
(lp3451
g48
(g49
g50
NtRp3452
(dp3453
g53
(dp3454
g61
I5
ssg62
g3448
sg55
(lp3455
g48
(g57
g50
NtRp3456
(dp3457
g53
(dp3458
g61
I4
ssg62
Nsg55
(lp3459
g48
(g64
g50
NtRp3460
(dp3461
g53
(dp3462
sg62
g3456
sg55
(lp3463
g48
(g69
g50
NtRp3464
(dp3465
g53
(dp3466
g73
g74
ssg62
g3460
sg55
(lp3467
S'session_id_desglosar_emails'
p3468
asbag48
(g69
g50
NtRp3469
(dp3470
g53
(dp3471
g80
g81
ssg62
g3460
sg55
(lp3472
S':'
asbag48
(g69
g50
NtRp3473
(dp3474
g53
(dp3475
sg62
g3460
sg55
(lp3476
g48
(g49
g50
NtRp3477
(dp3478
g53
(dp3479
g61
I4
ssg62
g3473
sg55
(lp3480
g48
(g57
g50
NtRp3481
(dp3482
g53
(dp3483
g61
I3
ssg62
Nsg55
(lp3484
g48
(g64
g50
NtRp3485
(dp3486
g53
(dp3487
sg62
g3481
sg55
(lp3488
g48
(g69
g50
NtRp3489
(dp3490
g53
(dp3491
g73
g74
ssg62
g3485
sg55
(lp3492
g262
asbag48
(g69
g50
NtRp3493
(dp3494
g53
(dp3495
g80
g81
ssg62
g3485
sg55
(lp3496
S':'
asbag48
(g69
g50
NtRp3497
(dp3498
g53
(dp3499
sg62
g3485
sg55
(lp3500
g48
(g49
g50
NtRp3501
(dp3502
g53
(dp3503
g61
I3
ssg62
g3497
sg55
(lp3504
S''
asbasbasbag48
(g64
g50
NtRp3505
(dp3506
g53
(dp3507
sg62
g3481
sg55
(lp3508
g48
(g69
g50
NtRp3509
(dp3510
g53
(dp3511
g73
g74
ssg62
g3505
sg55
(lp3512
g283
asbag48
(g69
g50
NtRp3513
(dp3514
g53
(dp3515
g80
g81
ssg62
g3505
sg55
(lp3516
S':'
asbag48
(g69
g50
NtRp3517
(dp3518
g53
(dp3519
sg62
g3505
sg55
(lp3520
g48
(g49
g50
NtRp3521
(dp3522
g53
(dp3523
g61
I3
ssg62
g3517
sg55
(lp3524
S''
asbasbasbag48
(g64
g50
NtRp3525
(dp3526
g53
(dp3527
sg62
g3481
sg55
(lp3528
g48
(g69
g50
NtRp3529
(dp3530
g53
(dp3531
g73
g74
ssg62
g3525
sg55
(lp3532
g304
asbag48
(g69
g50
NtRp3533
(dp3534
g53
(dp3535
g80
g81
ssg62
g3525
sg55
(lp3536
S':'
asbag48
(g69
g50
NtRp3537
(dp3538
g53
(dp3539
sg62
g3525
sg55
(lp3540
g48
(g49
g50
NtRp3541
(dp3542
g53
(dp3543
g61
I3
ssg62
g3537
sg55
(lp3544
S''
asbasbasbag48
(g64
g50
NtRp3545
(dp3546
g53
(dp3547
sg62
g3481
sg55
(lp3548
g48
(g69
g50
NtRp3549
(dp3550
g53
(dp3551
g73
g74
ssg62
g3545
sg55
(lp3552
g325
asbag48
(g69
g50
NtRp3553
(dp3554
g53
(dp3555
g80
g81
ssg62
g3545
sg55
(lp3556
S':'
asbag48
(g69
g50
NtRp3557
(dp3558
g53
(dp3559
sg62
g3545
sg55
(lp3560
g48
(g49
g50
NtRp3561
(dp3562
g53
(dp3563
g61
I3
ssg62
g3557
sg55
(lp3564
S''
asbasbasbag48
(g64
g50
NtRp3565
(dp3566
g53
(dp3567
sg62
g3481
sg55
(lp3568
g48
(g69
g50
NtRp3569
(dp3570
g53
(dp3571
g73
g74
ssg62
g3565
sg55
(lp3572
g346
asbag48
(g69
g50
NtRp3573
(dp3574
g53
(dp3575
g80
g81
ssg62
g3565
sg55
(lp3576
S':'
asbag48
(g69
g50
NtRp3577
(dp3578
g53
(dp3579
sg62
g3565
sg55
(lp3580
g48
(g49
g50
NtRp3581
(dp3582
g53
(dp3583
g61
I3
ssg62
g3577
sg55
(lp3584
S'/'
asbasbasbag48
(g64
g50
NtRp3585
(dp3586
g53
(dp3587
sg62
g3481
sg55
(lp3588
g48
(g69
g50
NtRp3589
(dp3590
g53
(dp3591
g73
g74
ssg62
g3585
sg55
(lp3592
g367
asbag48
(g69
g50
NtRp3593
(dp3594
g53
(dp3595
g80
g81
ssg62
g3585
sg55
(lp3596
S':'
asbag48
(g69
g50
NtRp3597
(dp3598
g53
(dp3599
sg62
g3585
sg55
(lp3600
g48
(g49
g50
NtRp3601
(dp3602
g53
(dp3603
g61
I3
ssg62
g3597
sg55
(lp3604
S''
asbasbasbag48
(g64
g50
NtRp3605
(dp3606
g53
(dp3607
sg62
g3481
sg55
(lp3608
g48
(g69
g50
NtRp3609
(dp3610
g53
(dp3611
g73
g74
ssg62
g3605
sg55
(lp3612
g388
asbag48
(g69
g50
NtRp3613
(dp3614
g53
(dp3615
g80
g81
ssg62
g3605
sg55
(lp3616
S':'
asbag48
(g69
g50
NtRp3617
(dp3618
g53
(dp3619
sg62
g3605
sg55
(lp3620
g48
(g49
g50
NtRp3621
(dp3622
g53
(dp3623
g61
I3
ssg62
g3617
sg55
(lp3624
S''
asbasbasbasbasbasbasbasbasbasbasbag48
(g64
g50
NtRp3625
(dp3626
g53
(dp3627
sg62
g3411
sg55
(lp3628
g48
(g69
g50
NtRp3629
(dp3630
g53
(dp3631
g73
g74
ssg62
g3625
sg55
(lp3632
S'files'
p3633
asbag48
(g69
g50
NtRp3634
(dp3635
g53
(dp3636
g80
g81
ssg62
g3625
sg55
(lp3637
S':'
asbag48
(g69
g50
NtRp3638
(dp3639
g53
(dp3640
sg62
g3625
sg55
(lp3641
g48
(g49
g50
NtRp3642
(dp3643
g53
(dp3644
g61
I5
ssg62
g3638
sg55
(lp3645
g48
(g57
g50
NtRp3646
(dp3647
g53
(dp3648
g61
I4
ssg62
Nsg55
(lp3649
g48
(g64
g50
NtRp3650
(dp3651
g53
(dp3652
sg62
g3646
sg55
(lp3653
g48
(g69
g50
NtRp3654
(dp3655
g53
(dp3656
sg62
g3650
sg55
(lp3657
g48
(g49
g50
NtRp3658
(dp3659
g53
(dp3660
g61
I4
ssg62
g3654
sg55
(lp3661
S'/Desglosar_Emails/static/js/jquery.js'
p3662
asbasbasbag48
(g64
g50
NtRp3663
(dp3664
g53
(dp3665
sg62
g3646
sg55
(lp3666
g48
(g69
g50
NtRp3667
(dp3668
g53
(dp3669
sg62
g3663
sg55
(lp3670
g48
(g49
g50
NtRp3671
(dp3672
g53
(dp3673
g61
I4
ssg62
g3667
sg55
(lp3674
S'/Desglosar_Emails/static/css/calendar.css'
p3675
asbasbasbag48
(g64
g50
NtRp3676
(dp3677
g53
(dp3678
sg62
g3646
sg55
(lp3679
g48
(g69
g50
NtRp3680
(dp3681
g53
(dp3682
sg62
g3676
sg55
(lp3683
g48
(g49
g50
NtRp3684
(dp3685
g53
(dp3686
g61
I4
ssg62
g3680
sg55
(lp3687
S'/Desglosar_Emails/static/js/calendar.js'
p3688
asbasbasbag48
(g64
g50
NtRp3689
(dp3690
g53
(dp3691
sg62
g3646
sg55
(lp3692
g48
(g69
g50
NtRp3693
(dp3694
g53
(dp3695
sg62
g3689
sg55
(lp3696
g48
(g49
g50
NtRp3697
(dp3698
g53
(dp3699
g61
I4
ssg62
g3693
sg55
(lp3700
S'/Desglosar_Emails/static/css/base.css'
p3701
asbasbasbag48
(g64
g50
NtRp3702
(dp3703
g53
(dp3704
sg62
g3646
sg55
(lp3705
g48
(g69
g50
NtRp3706
(dp3707
g53
(dp3708
sg62
g3702
sg55
(lp3709
g48
(g49
g50
NtRp3710
(dp3711
g53
(dp3712
g61
I4
ssg62
g3706
sg55
(lp3713
S'/Desglosar_Emails/static/css/superfish.css'
p3714
asbasbasbag48
(g64
g50
NtRp3715
(dp3716
g53
(dp3717
sg62
g3646
sg55
(lp3718
g48
(g69
g50
NtRp3719
(dp3720
g53
(dp3721
sg62
g3715
sg55
(lp3722
g48
(g49
g50
NtRp3723
(dp3724
g53
(dp3725
g61
I4
ssg62
g3719
sg55
(lp3726
S'/Desglosar_Emails/static/js/superfish.js'
p3727
asbasbasbasbasbasbasbag48
(g64
g50
NtRp3728
(dp3729
g53
(dp3730
sg62
g3411
sg55
(lp3731
g48
(g69
g50
NtRp3732
(dp3733
g53
(dp3734
g73
g74
ssg62
g3728
sg55
(lp3735
S'flash'
p3736
asbag48
(g69
g50
NtRp3737
(dp3738
g53
(dp3739
g80
g81
ssg62
g3728
sg55
(lp3740
S':'
asbag48
(g69
g50
NtRp3741
(dp3742
g53
(dp3743
sg62
g3728
sg55
(lp3744
g48
(g49
g50
NtRp3745
(dp3746
g53
(dp3747
g61
I5
ssg62
g3741
sg55
(lp3748
S''
asbasbasbag48
(g64
g50
NtRp3749
(dp3750
g53
(dp3751
sg62
g3411
sg55
(lp3752
g48
(g69
g50
NtRp3753
(dp3754
g53
(dp3755
g73
g74
ssg62
g3749
sg55
(lp3756
S'generic_patterns'
p3757
asbag48
(g69
g50
NtRp3758
(dp3759
g53
(dp3760
g80
g81
ssg62
g3749
sg55
(lp3761
S':'
asbag48
(g69
g50
NtRp3762
(dp3763
g53
(dp3764
sg62
g3749
sg55
(lp3765
g48
(g49
g50
NtRp3766
(dp3767
g53
(dp3768
g61
I5
ssg62
g3762
sg55
(lp3769
g48
(g57
g50
NtRp3770
(dp3771
g53
(dp3772
g61
I4
ssg62
Nsg55
(lp3773
sbasbasbasbag48
(g64
g50
NtRp3774
(dp3775
g53
(dp3776
sg62
g3411
sg55
(lp3777
g48
(g69
g50
NtRp3778
(dp3779
g53
(dp3780
g73
g74
ssg62
g3774
sg55
(lp3781
S'headers'
p3782
asbag48
(g69
g50
NtRp3783
(dp3784
g53
(dp3785
g80
g81
ssg62
g3774
sg55
(lp3786
S':'
asbag48
(g69
g50
NtRp3787
(dp3788
g53
(dp3789
sg62
g3774
sg55
(lp3790
g48
(g49
g50
NtRp3791
(dp3792
g53
(dp3793
g61
I5
ssg62
g3787
sg55
(lp3794
g48
(g57
g50
NtRp3795
(dp3796
g53
(dp3797
g61
I4
ssg62
Nsg55
(lp3798
g48
(g64
g50
NtRp3799
(dp3800
g53
(dp3801
sg62
g3795
sg55
(lp3802
g48
(g69
g50
NtRp3803
(dp3804
g53
(dp3805
g73
g74
ssg62
g3799
sg55
(lp3806
S'Cache-Control'
p3807
asbag48
(g69
g50
NtRp3808
(dp3809
g53
(dp3810
g80
g81
ssg62
g3799
sg55
(lp3811
S':'
asbag48
(g69
g50
NtRp3812
(dp3813
g53
(dp3814
sg62
g3799
sg55
(lp3815
g48
(g49
g50
NtRp3816
(dp3817
g53
(dp3818
g61
I4
ssg62
g3812
sg55
(lp3819
S'no-store, no-cache, must-revalidate, post-check=0, pre-check=0'
p3820
asbasbasbag48
(g64
g50
NtRp3821
(dp3822
g53
(dp3823
sg62
g3795
sg55
(lp3824
g48
(g69
g50
NtRp3825
(dp3826
g53
(dp3827
g73
g74
ssg62
g3821
sg55
(lp3828
S'Content-Type'
p3829
asbag48
(g69
g50
NtRp3830
(dp3831
g53
(dp3832
g80
g81
ssg62
g3821
sg55
(lp3833
S':'
asbag48
(g69
g50
NtRp3834
(dp3835
g53
(dp3836
sg62
g3821
sg55
(lp3837
g48
(g49
g50
NtRp3838
(dp3839
g53
(dp3840
g61
I4
ssg62
g3834
sg55
(lp3841
S'text/html; charset=utf-8'
p3842
asbasbasbag48
(g64
g50
NtRp3843
(dp3844
g53
(dp3845
sg62
g3795
sg55
(lp3846
g48
(g69
g50
NtRp3847
(dp3848
g53
(dp3849
g73
g74
ssg62
g3843
sg55
(lp3850
S'Expires'
p3851
asbag48
(g69
g50
NtRp3852
(dp3853
g53
(dp3854
g80
g81
ssg62
g3843
sg55
(lp3855
S':'
asbag48
(g69
g50
NtRp3856
(dp3857
g53
(dp3858
sg62
g3843
sg55
(lp3859
g48
(g49
g50
NtRp3860
(dp3861
g53
(dp3862
g61
I4
ssg62
g3856
sg55
(lp3863
S'Tue, 20 Sep 2011 04:28:11 GMT'
p3864
asbasbasbag48
(g64
g50
NtRp3865
(dp3866
g53
(dp3867
sg62
g3795
sg55
(lp3868
g48
(g69
g50
NtRp3869
(dp3870
g53
(dp3871
g73
g74
ssg62
g3865
sg55
(lp3872
S'Pragma'
p3873
asbag48
(g69
g50
NtRp3874
(dp3875
g53
(dp3876
g80
g81
ssg62
g3865
sg55
(lp3877
S':'
asbag48
(g69
g50
NtRp3878
(dp3879
g53
(dp3880
sg62
g3865
sg55
(lp3881
g48
(g49
g50
NtRp3882
(dp3883
g53
(dp3884
g61
I4
ssg62
g3878
sg55
(lp3885
S'no-cache'
p3886
asbasbasbag48
(g64
g50
NtRp3887
(dp3888
g53
(dp3889
sg62
g3795
sg55
(lp3890
g48
(g69
g50
NtRp3891
(dp3892
g53
(dp3893
g73
g74
ssg62
g3887
sg55
(lp3894
S'X-Powered-By'
p3895
asbag48
(g69
g50
NtRp3896
(dp3897
g53
(dp3898
g80
g81
ssg62
g3887
sg55
(lp3899
S':'
asbag48
(g69
g50
NtRp3900
(dp3901
g53
(dp3902
sg62
g3887
sg55
(lp3903
g48
(g49
g50
NtRp3904
(dp3905
g53
(dp3906
g61
I4
ssg62
g3900
sg55
(lp3907
S'web2py'
p3908
asbasbasbasbasbasbasbag48
(g64
g50
NtRp3909
(dp3910
g53
(dp3911
sg62
g3411
sg55
(lp3912
g48
(g69
g50
NtRp3913
(dp3914
g53
(dp3915
g73
g74
ssg62
g3909
sg55
(lp3916
S'menu'
p3917
asbag48
(g69
g50
NtRp3918
(dp3919
g53
(dp3920
g80
g81
ssg62
g3909
sg55
(lp3921
S':'
asbag48
(g69
g50
NtRp3922
(dp3923
g53
(dp3924
sg62
g3909
sg55
(lp3925
g48
(g49
g50
NtRp3926
(dp3927
g53
(dp3928
g61
I5
ssg62
g3922
sg55
(lp3929
g48
(g57
g50
NtRp3930
(dp3931
g53
(dp3932
g61
I4
ssg62
Nsg55
(lp3933
g48
(g64
g50
NtRp3934
(dp3935
g53
(dp3936
sg62
g3930
sg55
(lp3937
g48
(g69
g50
NtRp3938
(dp3939
g53
(dp3940
sg62
g3934
sg55
(lp3941
g48
(g49
g50
NtRp3942
(dp3943
g53
(dp3944
g61
I4
ssg62
g3938
sg55
(lp3945
g48
(g57
g50
NtRp3946
(dp3947
g53
(dp3948
g61
I3
ssg62
Nsg55
(lp3949
g48
(g64
g50
NtRp3950
(dp3951
g53
(dp3952
sg62
g3946
sg55
(lp3953
g48
(g69
g50
NtRp3954
(dp3955
g53
(dp3956
sg62
g3950
sg55
(lp3957
g48
(g49
g50
NtRp3958
(dp3959
g53
(dp3960
g61
I3
ssg62
g3954
sg55
(lp3961
cgluon.languages
lazyT_unpickle
p3962
(S't\x04\x00\x00\x00Home'
tRp3963
asbasbasbag48
(g64
g50
NtRp3964
(dp3965
g53
(dp3966
sg62
g3946
sg55
(lp3967
g48
(g69
g50
NtRp3968
(dp3969
g53
(dp3970
sg62
g3964
sg55
(lp3971
g48
(g49
g50
NtRp3972
(dp3973
g53
(dp3974
g61
I3
ssg62
g3968
sg55
(lp3975
g91
asbasbasbag48
(g64
g50
NtRp3976
(dp3977
g53
(dp3978
sg62
g3946
sg55
(lp3979
g48
(g69
g50
NtRp3980
(dp3981
g53
(dp3982
sg62
g3976
sg55
(lp3983
g48
(g49
g50
NtRp3984
(dp3985
g53
(dp3986
g61
I3
ssg62
g3980
sg55
(lp3987
S'/Desglosar_Emails/default/index'
p3988
asbasbasbag48
(g64
g50
NtRp3989
(dp3990
g53
(dp3991
sg62
g3946
sg55
(lp3992
g48
(g69
g50
NtRp3993
(dp3994
g53
(dp3995
sg62
g3989
sg55
(lp3996
g48
(g49
g50
NtRp3997
(dp3998
g53
(dp3999
g61
I3
ssg62
g3993
sg55
(lp4000
g48
(g57
g50
NtRp4001
(dp4002
g53
(dp4003
g61
I2
ssg62
Nsg55
(lp4004
sbasbasbasbasbasbasbasbag48
(g64
g50
NtRp4005
(dp4006
g53
(dp4007
sg62
g3930
sg55
(lp4008
g48
(g69
g50
NtRp4009
(dp4010
g53
(dp4011
sg62
g4005
sg55
(lp4012
g48
(g49
g50
NtRp4013
(dp4014
g53
(dp4015
g61
I4
ssg62
g4009
sg55
(lp4016
g48
(g57
g50
NtRp4017
(dp4018
g53
(dp4019
g61
I3
ssg62
Nsg55
(lp4020
g48
(g64
g50
NtRp4021
(dp4022
g53
(dp4023
sg62
g4017
sg55
(lp4024
g48
(g69
g50
NtRp4025
(dp4026
g53
(dp4027
sg62
g4021
sg55
(lp4028
g48
(g49
g50
NtRp4029
(dp4030
g53
(dp4031
g61
I3
ssg62
g4025
sg55
(lp4032
g3962
(S's\x08\x00\x00\x00This App'
tRp4033
asbasbasbag48
(g64
g50
NtRp4034
(dp4035
g53
(dp4036
sg62
g4017
sg55
(lp4037
g48
(g69
g50
NtRp4038
(dp4039
g53
(dp4040
sg62
g4034
sg55
(lp4041
g48
(g49
g50
NtRp4042
(dp4043
g53
(dp4044
g61
I3
ssg62
g4038
sg55
(lp4045
g91
asbasbasbag48
(g64
g50
NtRp4046
(dp4047
g53
(dp4048
sg62
g4017
sg55
(lp4049
g48
(g69
g50
NtRp4050
(dp4051
g53
(dp4052
sg62
g4046
sg55
(lp4053
g48
(g49
g50
NtRp4054
(dp4055
g53
(dp4056
g61
I3
ssg62
g4050
sg55
(lp4057
S'/admin/default/design/Desglosar_Emails'
p4058
asbasbasbag48
(g64
g50
NtRp4059
(dp4060
g53
(dp4061
sg62
g4017
sg55
(lp4062
g48
(g69
g50
NtRp4063
(dp4064
g53
(dp4065
sg62
g4059
sg55
(lp4066
g48
(g49
g50
NtRp4067
(dp4068
g53
(dp4069
g61
I3
ssg62
g4063
sg55
(lp4070
g48
(g57
g50
NtRp4071
(dp4072
g53
(dp4073
g61
I2
ssg62
Nsg55
(lp4074
g48
(g64
g50
NtRp4075
(dp4076
g53
(dp4077
sg62
g4071
sg55
(lp4078
g48
(g69
g50
NtRp4079
(dp4080
g53
(dp4081
sg62
g4075
sg55
(lp4082
g48
(g49
g50
NtRp4083
(dp4084
g53
(dp4085
g61
I2
ssg62
g4079
sg55
(lp4086
g48
(g57
g50
NtRp4087
(dp4088
g53
(dp4089
g61
I1
ssg62
Nsg55
(lp4090
g48
(g64
g50
NtRp4091
(dp4092
g53
(dp4093
sg62
g4087
sg55
(lp4094
g48
(g69
g50
NtRp4095
(dp4096
g53
(dp4097
sg62
g4091
sg55
(lp4098
g48
(g49
g50
NtRp4099
(dp4100
g53
(dp4101
g61
I1
ssg62
g4095
sg55
(lp4102
g3962
(S't\x0b\x00\x00\x00Controlador'
tRp4103
asbasbasbag48
(g64
g50
NtRp4104
(dp4105
g53
(dp4106
sg62
g4087
sg55
(lp4107
g48
(g69
g50
NtRp4108
(dp4109
g53
(dp4110
sg62
g4104
sg55
(lp4111
g48
(g49
g50
NtRp4112
(dp4113
g53
(dp4114
g61
I1
ssg62
g4108
sg55
(lp4115
I00
asbasbasbag48
(g64
g50
NtRp4116
(dp4117
g53
(dp4118
sg62
g4087
sg55
(lp4119
g48
(g69
g50
NtRp4120
(dp4121
g53
(dp4122
sg62
g4116
sg55
(lp4123
g48
(g49
g50
NtRp4124
(dp4125
g53
(dp4126
g61
I1
ssg62
g4120
sg55
(lp4127
S'/admin/default/edit/Desglosar_Emails/controllers/default.py'
p4128
asbasbasbasbasbasbasbag48
(g64
g50
NtRp4129
(dp4130
g53
(dp4131
sg62
g4071
sg55
(lp4132
g48
(g69
g50
NtRp4133
(dp4134
g53
(dp4135
sg62
g4129
sg55
(lp4136
g48
(g49
g50
NtRp4137
(dp4138
g53
(dp4139
g61
I2
ssg62
g4133
sg55
(lp4140
g48
(g57
g50
NtRp4141
(dp4142
g53
(dp4143
g61
I1
ssg62
Nsg55
(lp4144
g48
(g64
g50
NtRp4145
(dp4146
g53
(dp4147
sg62
g4141
sg55
(lp4148
g48
(g69
g50
NtRp4149
(dp4150
g53
(dp4151
sg62
g4145
sg55
(lp4152
g48
(g49
g50
NtRp4153
(dp4154
g53
(dp4155
g61
I1
ssg62
g4149
sg55
(lp4156
g3962
(S't\x05\x00\x00\x00Vista'
tRp4157
asbasbasbag48
(g64
g50
NtRp4158
(dp4159
g53
(dp4160
sg62
g4141
sg55
(lp4161
g48
(g69
g50
NtRp4162
(dp4163
g53
(dp4164
sg62
g4158
sg55
(lp4165
g48
(g49
g50
NtRp4166
(dp4167
g53
(dp4168
g61
I1
ssg62
g4162
sg55
(lp4169
I00
asbasbasbag48
(g64
g50
NtRp4170
(dp4171
g53
(dp4172
sg62
g4141
sg55
(lp4173
g48
(g69
g50
NtRp4174
(dp4175
g53
(dp4176
sg62
g4170
sg55
(lp4177
g48
(g49
g50
NtRp4178
(dp4179
g53
(dp4180
g61
I1
ssg62
g4174
sg55
(lp4181
S'/admin/default/edit/Desglosar_Emails/views/default/entrada_mod3.html'
p4182
asbasbasbasbasbasbasbag48
(g64
g50
NtRp4183
(dp4184
g53
(dp4185
sg62
g4071
sg55
(lp4186
g48
(g69
g50
NtRp4187
(dp4188
g53
(dp4189
sg62
g4183
sg55
(lp4190
g48
(g49
g50
NtRp4191
(dp4192
g53
(dp4193
g61
I2
ssg62
g4187
sg55
(lp4194
g48
(g57
g50
NtRp4195
(dp4196
g53
(dp4197
g61
I1
ssg62
Nsg55
(lp4198
g48
(g64
g50
NtRp4199
(dp4200
g53
(dp4201
sg62
g4195
sg55
(lp4202
g48
(g69
g50
NtRp4203
(dp4204
g53
(dp4205
sg62
g4199
sg55
(lp4206
g48
(g49
g50
NtRp4207
(dp4208
g53
(dp4209
g61
I1
ssg62
g4203
sg55
(lp4210
g3962
(S's\x12\x00\x00\x00Dise\xc3\xb1o de p\xc3\xa1gina'
tRp4211
asbasbasbag48
(g64
g50
NtRp4212
(dp4213
g53
(dp4214
sg62
g4195
sg55
(lp4215
g48
(g69
g50
NtRp4216
(dp4217
g53
(dp4218
sg62
g4212
sg55
(lp4219
g48
(g49
g50
NtRp4220
(dp4221
g53
(dp4222
g61
I1
ssg62
g4216
sg55
(lp4223
I00
asbasbasbag48
(g64
g50
NtRp4224
(dp4225
g53
(dp4226
sg62
g4195
sg55
(lp4227
g48
(g69
g50
NtRp4228
(dp4229
g53
(dp4230
sg62
g4224
sg55
(lp4231
g48
(g49
g50
NtRp4232
(dp4233
g53
(dp4234
g61
I1
ssg62
g4228
sg55
(lp4235
S'/admin/default/edit/Desglosar_Emails/views/layout.html'
p4236
asbasbasbasbasbasbasbag48
(g64
g50
NtRp4237
(dp4238
g53
(dp4239
sg62
g4071
sg55
(lp4240
g48
(g69
g50
NtRp4241
(dp4242
g53
(dp4243
sg62
g4237
sg55
(lp4244
g48
(g49
g50
NtRp4245
(dp4246
g53
(dp4247
g61
I2
ssg62
g4241
sg55
(lp4248
g48
(g57
g50
NtRp4249
(dp4250
g53
(dp4251
g61
I1
ssg62
Nsg55
(lp4252
g48
(g64
g50
NtRp4253
(dp4254
g53
(dp4255
sg62
g4249
sg55
(lp4256
g48
(g69
g50
NtRp4257
(dp4258
g53
(dp4259
sg62
g4253
sg55
(lp4260
g48
(g49
g50
NtRp4261
(dp4262
g53
(dp4263
g61
I1
ssg62
g4257
sg55
(lp4264
g3962
(S's\x0e\x00\x00\x00Hoja de estilo'
tRp4265
asbasbasbag48
(g64
g50
NtRp4266
(dp4267
g53
(dp4268
sg62
g4249
sg55
(lp4269
g48
(g69
g50
NtRp4270
(dp4271
g53
(dp4272
sg62
g4266
sg55
(lp4273
g48
(g49
g50
NtRp4274
(dp4275
g53
(dp4276
g61
I1
ssg62
g4270
sg55
(lp4277
I00
asbasbasbag48
(g64
g50
NtRp4278
(dp4279
g53
(dp4280
sg62
g4249
sg55
(lp4281
g48
(g69
g50
NtRp4282
(dp4283
g53
(dp4284
sg62
g4278
sg55
(lp4285
g48
(g49
g50
NtRp4286
(dp4287
g53
(dp4288
g61
I1
ssg62
g4282
sg55
(lp4289
S'/admin/default/edit/Desglosar_Emails/static/base.css'
p4290
asbasbasbasbasbasbasbag48
(g64
g50
NtRp4291
(dp4292
g53
(dp4293
sg62
g4071
sg55
(lp4294
g48
(g69
g50
NtRp4295
(dp4296
g53
(dp4297
sg62
g4291
sg55
(lp4298
g48
(g49
g50
NtRp4299
(dp4300
g53
(dp4301
g61
I2
ssg62
g4295
sg55
(lp4302
g48
(g57
g50
NtRp4303
(dp4304
g53
(dp4305
g61
I1
ssg62
Nsg55
(lp4306
g48
(g64
g50
NtRp4307
(dp4308
g53
(dp4309
sg62
g4303
sg55
(lp4310
g48
(g69
g50
NtRp4311
(dp4312
g53
(dp4313
sg62
g4307
sg55
(lp4314
g48
(g49
g50
NtRp4315
(dp4316
g53
(dp4317
g61
I1
ssg62
g4311
sg55
(lp4318
g3962
(S's\x0b\x00\x00\x00Modelo "db"'
tRp4319
asbasbasbag48
(g64
g50
NtRp4320
(dp4321
g53
(dp4322
sg62
g4303
sg55
(lp4323
g48
(g69
g50
NtRp4324
(dp4325
g53
(dp4326
sg62
g4320
sg55
(lp4327
g48
(g49
g50
NtRp4328
(dp4329
g53
(dp4330
g61
I1
ssg62
g4324
sg55
(lp4331
I00
asbasbasbag48
(g64
g50
NtRp4332
(dp4333
g53
(dp4334
sg62
g4303
sg55
(lp4335
g48
(g69
g50
NtRp4336
(dp4337
g53
(dp4338
sg62
g4332
sg55
(lp4339
g48
(g49
g50
NtRp4340
(dp4341
g53
(dp4342
g61
I1
ssg62
g4336
sg55
(lp4343
S'/admin/default/edit/Desglosar_Emails/models/db.py'
p4344
asbasbasbasbasbasbasbag48
(g64
g50
NtRp4345
(dp4346
g53
(dp4347
sg62
g4071
sg55
(lp4348
g48
(g69
g50
NtRp4349
(dp4350
g53
(dp4351
sg62
g4345
sg55
(lp4352
g48
(g49
g50
NtRp4353
(dp4354
g53
(dp4355
g61
I2
ssg62
g4349
sg55
(lp4356
g48
(g57
g50
NtRp4357
(dp4358
g53
(dp4359
g61
I1
ssg62
Nsg55
(lp4360
g48
(g64
g50
NtRp4361
(dp4362
g53
(dp4363
sg62
g4357
sg55
(lp4364
g48
(g69
g50
NtRp4365
(dp4366
g53
(dp4367
sg62
g4361
sg55
(lp4368
g48
(g49
g50
NtRp4369
(dp4370
g53
(dp4371
g61
I1
ssg62
g4365
sg55
(lp4372
g3962
(S's\r\x00\x00\x00Modelo "menu"'
tRp4373
asbasbasbag48
(g64
g50
NtRp4374
(dp4375
g53
(dp4376
sg62
g4357
sg55
(lp4377
g48
(g69
g50
NtRp4378
(dp4379
g53
(dp4380
sg62
g4374
sg55
(lp4381
g48
(g49
g50
NtRp4382
(dp4383
g53
(dp4384
g61
I1
ssg62
g4378
sg55
(lp4385
I00
asbasbasbag48
(g64
g50
NtRp4386
(dp4387
g53
(dp4388
sg62
g4357
sg55
(lp4389
g48
(g69
g50
NtRp4390
(dp4391
g53
(dp4392
sg62
g4386
sg55
(lp4393
g48
(g49
g50
NtRp4394
(dp4395
g53
(dp4396
g61
I1
ssg62
g4390
sg55
(lp4397
S'/admin/default/edit/Desglosar_Emails/models/menu.py'
p4398
asbasbasbasbasbasbasbag48
(g64
g50
NtRp4399
(dp4400
g53
(dp4401
sg62
g4071
sg55
(lp4402
g48
(g69
g50
NtRp4403
(dp4404
g53
(dp4405
sg62
g4399
sg55
(lp4406
g48
(g49
g50
NtRp4407
(dp4408
g53
(dp4409
g61
I2
ssg62
g4403
sg55
(lp4410
g48
(g57
g50
NtRp4411
(dp4412
g53
(dp4413
g61
I1
ssg62
Nsg55
(lp4414
g48
(g64
g50
NtRp4415
(dp4416
g53
(dp4417
sg62
g4411
sg55
(lp4418
g48
(g69
g50
NtRp4419
(dp4420
g53
(dp4421
sg62
g4415
sg55
(lp4422
g48
(g49
g50
NtRp4423
(dp4424
g53
(dp4425
g61
I1
ssg62
g4419
sg55
(lp4426
g3962
(S's\r\x00\x00\x00Base de datos'
tRp4427
asbasbasbag48
(g64
g50
NtRp4428
(dp4429
g53
(dp4430
sg62
g4411
sg55
(lp4431
g48
(g69
g50
NtRp4432
(dp4433
g53
(dp4434
sg62
g4428
sg55
(lp4435
g48
(g49
g50
NtRp4436
(dp4437
g53
(dp4438
g61
I1
ssg62
g4432
sg55
(lp4439
I00
asbasbasbag48
(g64
g50
NtRp4440
(dp4441
g53
(dp4442
sg62
g4411
sg55
(lp4443
g48
(g69
g50
NtRp4444
(dp4445
g53
(dp4446
sg62
g4440
sg55
(lp4447
g48
(g49
g50
NtRp4448
(dp4449
g53
(dp4450
g61
I1
ssg62
g4444
sg55
(lp4451
S'/Desglosar_Emails/appadmin/index'
p4452
asbasbasbasbasbasbasbag48
(g64
g50
NtRp4453
(dp4454
g53
(dp4455
sg62
g4071
sg55
(lp4456
g48
(g69
g50
NtRp4457
(dp4458
g53
(dp4459
sg62
g4453
sg55
(lp4460
g48
(g49
g50
NtRp4461
(dp4462
g53
(dp4463
g61
I2
ssg62
g4457
sg55
(lp4464
g48
(g57
g50
NtRp4465
(dp4466
g53
(dp4467
g61
I1
ssg62
Nsg55
(lp4468
g48
(g64
g50
NtRp4469
(dp4470
g53
(dp4471
sg62
g4465
sg55
(lp4472
g48
(g69
g50
NtRp4473
(dp4474
g53
(dp4475
sg62
g4469
sg55
(lp4476
g48
(g49
g50
NtRp4477
(dp4478
g53
(dp4479
g61
I1
ssg62
g4473
sg55
(lp4480
g3962
(S't\x06\x00\x00\x00Errors'
tRp4481
asbasbasbag48
(g64
g50
NtRp4482
(dp4483
g53
(dp4484
sg62
g4465
sg55
(lp4485
g48
(g69
g50
NtRp4486
(dp4487
g53
(dp4488
sg62
g4482
sg55
(lp4489
g48
(g49
g50
NtRp4490
(dp4491
g53
(dp4492
g61
I1
ssg62
g4486
sg55
(lp4493
I00
asbasbasbag48
(g64
g50
NtRp4494
(dp4495
g53
(dp4496
sg62
g4465
sg55
(lp4497
g48
(g69
g50
NtRp4498
(dp4499
g53
(dp4500
sg62
g4494
sg55
(lp4501
g48
(g49
g50
NtRp4502
(dp4503
g53
(dp4504
g61
I1
ssg62
g4498
sg55
(lp4505
S'/admin/default/errors/Desglosar_Emails'
p4506
asbasbasbasbasbasbasbag48
(g64
g50
NtRp4507
(dp4508
g53
(dp4509
sg62
g4071
sg55
(lp4510
g48
(g69
g50
NtRp4511
(dp4512
g53
(dp4513
sg62
g4507
sg55
(lp4514
g48
(g49
g50
NtRp4515
(dp4516
g53
(dp4517
g61
I2
ssg62
g4511
sg55
(lp4518
g48
(g57
g50
NtRp4519
(dp4520
g53
(dp4521
g61
I1
ssg62
Nsg55
(lp4522
g48
(g64
g50
NtRp4523
(dp4524
g53
(dp4525
sg62
g4519
sg55
(lp4526
g48
(g69
g50
NtRp4527
(dp4528
g53
(dp4529
sg62
g4523
sg55
(lp4530
g48
(g49
g50
NtRp4531
(dp4532
g53
(dp4533
g61
I1
ssg62
g4527
sg55
(lp4534
g3962
(S's\t\x00\x00\x00Acerca de'
tRp4535
asbasbasbag48
(g64
g50
NtRp4536
(dp4537
g53
(dp4538
sg62
g4519
sg55
(lp4539
g48
(g69
g50
NtRp4540
(dp4541
g53
(dp4542
sg62
g4536
sg55
(lp4543
g48
(g49
g50
NtRp4544
(dp4545
g53
(dp4546
g61
I1
ssg62
g4540
sg55
(lp4547
I00
asbasbasbag48
(g64
g50
NtRp4548
(dp4549
g53
(dp4550
sg62
g4519
sg55
(lp4551
g48
(g69
g50
NtRp4552
(dp4553
g53
(dp4554
sg62
g4548
sg55
(lp4555
g48
(g49
g50
NtRp4556
(dp4557
g53
(dp4558
g61
I1
ssg62
g4552
sg55
(lp4559
S'/admin/default/about/Desglosar_Emails'
p4560
asbasbasbasbasbasbasbasbasbasbasbasbasbasbasbag48
(g64
g50
NtRp4561
(dp4562
g53
(dp4563
sg62
g3930
sg55
(lp4564
g48
(g69
g50
NtRp4565
(dp4566
g53
(dp4567
sg62
g4561
sg55
(lp4568
g48
(g49
g50
NtRp4569
(dp4570
g53
(dp4571
g61
I4
ssg62
g4565
sg55
(lp4572
g48
(g57
g50
NtRp4573
(dp4574
g53
(dp4575
g61
I3
ssg62
Nsg55
(lp4576
g48
(g64
g50
NtRp4577
(dp4578
g53
(dp4579
sg62
g4573
sg55
(lp4580
g48
(g69
g50
NtRp4581
(dp4582
g53
(dp4583
sg62
g4577
sg55
(lp4584
g48
(g49
g50
NtRp4585
(dp4586
g53
(dp4587
g61
I3
ssg62
g4581
sg55
(lp4588
g3962
(S't\t\x00\x00\x00Resources'
tRp4589
asbasbasbag48
(g64
g50
NtRp4590
(dp4591
g53
(dp4592
sg62
g4573
sg55
(lp4593
g48
(g69
g50
NtRp4594
(dp4595
g53
(dp4596
sg62
g4590
sg55
(lp4597
g48
(g49
g50
NtRp4598
(dp4599
g53
(dp4600
g61
I3
ssg62
g4594
sg55
(lp4601
g91
asbasbasbag48
(g64
g50
NtRp4602
(dp4603
g53
(dp4604
sg62
g4573
sg55
(lp4605
g48
(g69
g50
NtRp4606
(dp4607
g53
(dp4608
sg62
g4602
sg55
(lp4609
g48
(g49
g50
NtRp4610
(dp4611
g53
(dp4612
g61
I3
ssg62
g4606
sg55
(lp4613
S'None'
p4614
asbasbasbag48
(g64
g50
NtRp4615
(dp4616
g53
(dp4617
sg62
g4573
sg55
(lp4618
g48
(g69
g50
NtRp4619
(dp4620
g53
(dp4621
sg62
g4615
sg55
(lp4622
g48
(g49
g50
NtRp4623
(dp4624
g53
(dp4625
g61
I3
ssg62
g4619
sg55
(lp4626
g48
(g57
g50
NtRp4627
(dp4628
g53
(dp4629
g61
I2
ssg62
Nsg55
(lp4630
g48
(g64
g50
NtRp4631
(dp4632
g53
(dp4633
sg62
g4627
sg55
(lp4634
g48
(g69
g50
NtRp4635
(dp4636
g53
(dp4637
sg62
g4631
sg55
(lp4638
g48
(g49
g50
NtRp4639
(dp4640
g53
(dp4641
g61
I2
ssg62
g4635
sg55
(lp4642
g48
(g57
g50
NtRp4643
(dp4644
g53
(dp4645
g61
I1
ssg62
Nsg55
(lp4646
g48
(g64
g50
NtRp4647
(dp4648
g53
(dp4649
sg62
g4643
sg55
(lp4650
g48
(g69
g50
NtRp4651
(dp4652
g53
(dp4653
sg62
g4647
sg55
(lp4654
g48
(g49
g50
NtRp4655
(dp4656
g53
(dp4657
g61
I1
ssg62
g4651
sg55
(lp4658
g3962
(S's\x0e\x00\x00\x00Documentaci\xc3\xb3n'
tRp4659
asbasbasbag48
(g64
g50
NtRp4660
(dp4661
g53
(dp4662
sg62
g4643
sg55
(lp4663
g48
(g69
g50
NtRp4664
(dp4665
g53
(dp4666
sg62
g4660
sg55
(lp4667
g48
(g49
g50
NtRp4668
(dp4669
g53
(dp4670
g61
I1
ssg62
g4664
sg55
(lp4671
I00
asbasbasbag48
(g64
g50
NtRp4672
(dp4673
g53
(dp4674
sg62
g4643
sg55
(lp4675
g48
(g69
g50
NtRp4676
(dp4677
g53
(dp4678
sg62
g4672
sg55
(lp4679
g48
(g49
g50
NtRp4680
(dp4681
g53
(dp4682
g61
I1
ssg62
g4676
sg55
(lp4683
S'http://www.web2py.com/book'
p4684
asbasbasbag48
(g64
g50
NtRp4685
(dp4686
g53
(dp4687
sg62
g4643
sg55
(lp4688
g48
(g69
g50
NtRp4689
(dp4690
g53
(dp4691
sg62
g4685
sg55
(lp4692
g48
(g49
g50
NtRp4693
(dp4694
g53
(dp4695
g61
I1
ssg62
g4689
sg55
(lp4696
(lp4697
(g3962
(S't\x07\x00\x00\x00Preface'
tRp4698
I00
S'http://www.web2py.com/book/default/chapter/00'
tp4699
a(g3962
(S't\x0c\x00\x00\x00Introduction'
tRp4700
I00
S'http://www.web2py.com/book/default/chapter/01'
tp4701
a(g3962
(S't\x06\x00\x00\x00Python'
tRp4702
I00
S'http://www.web2py.com/book/default/chapter/02'
tp4703
a(g3962
(S't\x08\x00\x00\x00Overview'
tRp4704
I00
S'http://www.web2py.com/book/default/chapter/03'
tp4705
a(g3962
(S's\x08\x00\x00\x00The Core'
tRp4706
I00
S'http://www.web2py.com/book/default/chapter/04'
tp4707
a(g3962
(S's\t\x00\x00\x00The Views'
tRp4708
I00
S'http://www.web2py.com/book/default/chapter/05'
tp4709
a(g3962
(S's\r\x00\x00\x00Base de datos'
tRp4710
I00
S'http://www.web2py.com/book/default/chapter/06'
tp4711
a(g3962
(S's\x14\x00\x00\x00Forms and Validators'
tRp4712
I00
S'http://www.web2py.com/book/default/chapter/07'
tp4713
a(g3962
(S's\x0e\x00\x00\x00Access Control'
tRp4714
I00
S'http://www.web2py.com/book/default/chapter/08'
tp4715
a(g3962
(S't\x08\x00\x00\x00Services'
tRp4716
I00
S'http://www.web2py.com/book/default/chapter/09'
tp4717
a(g3962
(S's\x0c\x00\x00\x00Ajax Recipes'
tRp4718
I00
S'http://www.web2py.com/book/default/chapter/10'
tp4719
a(g3962
(S's\x12\x00\x00\x00Deployment Recipes'
tRp4720
I00
S'http://www.web2py.com/book/default/chapter/11'
tp4721
a(g3962
(S's\r\x00\x00\x00Other Recipes'
tRp4722
I00
S'http://www.web2py.com/book/default/chapter/12'
tp4723
a(g3962
(S's\r\x00\x00\x00Buy this book'
tRp4724
I00
S'http://stores.lulu.com/web2py'
tp4725
aasbasbasbasbasbasbasbag48
(g64
g50
NtRp4726
(dp4727
g53
(dp4728
sg62
g4627
sg55
(lp4729
g48
(g69
g50
NtRp4730
(dp4731
g53
(dp4732
sg62
g4726
sg55
(lp4733
g48
(g49
g50
NtRp4734
(dp4735
g53
(dp4736
g61
I2
ssg62
g4730
sg55
(lp4737
g48
(g57
g50
NtRp4738
(dp4739
g53
(dp4740
g61
I1
ssg62
Nsg55
(lp4741
g48
(g64
g50
NtRp4742
(dp4743
g53
(dp4744
sg62
g4738
sg55
(lp4745
g48
(g69
g50
NtRp4746
(dp4747
g53
(dp4748
sg62
g4742
sg55
(lp4749
g48
(g49
g50
NtRp4750
(dp4751
g53
(dp4752
g61
I1
ssg62
g4746
sg55
(lp4753
g3962
(S't\t\x00\x00\x00Community'
tRp4754
asbasbasbag48
(g64
g50
NtRp4755
(dp4756
g53
(dp4757
sg62
g4738
sg55
(lp4758
g48
(g69
g50
NtRp4759
(dp4760
g53
(dp4761
sg62
g4755
sg55
(lp4762
g48
(g49
g50
NtRp4763
(dp4764
g53
(dp4765
g61
I1
ssg62
g4759
sg55
(lp4766
I00
asbasbasbag48
(g64
g50
NtRp4767
(dp4768
g53
(dp4769
sg62
g4738
sg55
(lp4770
g48
(g69
g50
NtRp4771
(dp4772
g53
(dp4773
sg62
g4767
sg55
(lp4774
g48
(g49
g50
NtRp4775
(dp4776
g53
(dp4777
g61
I1
ssg62
g4771
sg55
(lp4778
Nasbasbasbag48
(g64
g50
NtRp4779
(dp4780
g53
(dp4781
sg62
g4738
sg55
(lp4782
g48
(g69
g50
NtRp4783
(dp4784
g53
(dp4785
sg62
g4779
sg55
(lp4786
g48
(g49
g50
NtRp4787
(dp4788
g53
(dp4789
g61
I1
ssg62
g4783
sg55
(lp4790
(lp4791
(g3962
(S't\x06\x00\x00\x00Groups'
tRp4792
I00
S'http://www.web2py.com/examples/default/usergroups'
tp4793
a(g3962
(S't\x07\x00\x00\x00Twitter'
tRp4794
I00
S'http://twitter.com/web2py'
tp4795
a(g3962
(S's\t\x00\x00\x00Live chat'
tRp4796
I00
S'http://mibbit.com/?channel=%23web2py&server=irc.mibbit.net'
tp4797
a(g3962
(S's\n\x00\x00\x00User Voice'
tRp4798
I00
S'http://web2py.uservoice.com/'
tp4799
aasbasbasbasbasbasbasbag48
(g64
g50
NtRp4800
(dp4801
g53
(dp4802
sg62
g4627
sg55
(lp4803
g48
(g69
g50
NtRp4804
(dp4805
g53
(dp4806
sg62
g4800
sg55
(lp4807
g48
(g49
g50
NtRp4808
(dp4809
g53
(dp4810
g61
I2
ssg62
g4804
sg55
(lp4811
g48
(g57
g50
NtRp4812
(dp4813
g53
(dp4814
g61
I1
ssg62
Nsg55
(lp4815
g48
(g64
g50
NtRp4816
(dp4817
g53
(dp4818
sg62
g4812
sg55
(lp4819
g48
(g69
g50
NtRp4820
(dp4821
g53
(dp4822
sg62
g4816
sg55
(lp4823
g48
(g49
g50
NtRp4824
(dp4825
g53
(dp4826
g61
I1
ssg62
g4820
sg55
(lp4827
g3962
(S't\x06\x00\x00\x00Web2py'
tRp4828
asbasbasbag48
(g64
g50
NtRp4829
(dp4830
g53
(dp4831
sg62
g4812
sg55
(lp4832
g48
(g69
g50
NtRp4833
(dp4834
g53
(dp4835
sg62
g4829
sg55
(lp4836
g48
(g49
g50
NtRp4837
(dp4838
g53
(dp4839
g61
I1
ssg62
g4833
sg55
(lp4840
I00
asbasbasbag48
(g64
g50
NtRp4841
(dp4842
g53
(dp4843
sg62
g4812
sg55
(lp4844
g48
(g69
g50
NtRp4845
(dp4846
g53
(dp4847
sg62
g4841
sg55
(lp4848
g48
(g49
g50
NtRp4849
(dp4850
g53
(dp4851
g61
I1
ssg62
g4845
sg55
(lp4852
S'http://www.web2py.com'
p4853
asbasbasbag48
(g64
g50
NtRp4854
(dp4855
g53
(dp4856
sg62
g4812
sg55
(lp4857
g48
(g69
g50
NtRp4858
(dp4859
g53
(dp4860
sg62
g4854
sg55
(lp4861
g48
(g49
g50
NtRp4862
(dp4863
g53
(dp4864
g61
I1
ssg62
g4858
sg55
(lp4865
(lp4866
(g3962
(S't\x08\x00\x00\x00Download'
tRp4867
I00
S'http://www.web2py.com/examples/default/download'
tp4868
a(g3962
(S't\x07\x00\x00\x00Support'
tRp4869
I00
S'http://www.web2py.com/examples/default/support'
tp4870
a(g3962
(S's\x0e\x00\x00\x00Quick Examples'
tRp4871
I00
S'http://web2py.com/examples/default/examples'
tp4872
a(g3962
(S't\x03\x00\x00\x00FAQ'
tRp4873
I00
S'http://web2py.com/AlterEgo'
tp4874
a(g3962
(S's\x11\x00\x00\x00Free Applications'
tRp4875
I00
S'http://web2py.com/appliances'
tp4876
a(g3962
(S't\x07\x00\x00\x00Plugins'
tRp4877
I00
S'http://web2py.com/plugins'
tp4878
a(g3962
(S't\x07\x00\x00\x00Recipes'
tRp4879
I00
S'http://web2pyslices.com/'
tp4880
a(g3962
(S't\x04\x00\x00\x00Demo'
tRp4881
I00
S'http://web2py.com/demo_admin'
tp4882
a(g3962
(S't\x08\x00\x00\x00Semantic'
tRp4883
I00
S'http://web2py.com/semantic'
tp4884
a(g3962
(S't\x07\x00\x00\x00Layouts'
tRp4885
I00
S'http://web2py.com/layouts'
tp4886
a(g3962
(S't\x06\x00\x00\x00Videos'
tRp4887
I00
S'http://www.web2py.com/examples/default/videos/'
tp4888
aasbasbasbasbasbasbasbasbasbasbasbasbasbasbasbasbasbasbasbag48
(g64
g50
NtRp4889
(dp4890
g53
(dp4891
sg62
g3411
sg55
(lp4892
g48
(g69
g50
NtRp4893
(dp4894
g53
(dp4895
g73
g74
ssg62
g4889
sg55
(lp4896
S'meta'
p4897
asbag48
(g69
g50
NtRp4898
(dp4899
g53
(dp4900
g80
g81
ssg62
g4889
sg55
(lp4901
S':'
asbag48
(g69
g50
NtRp4902
(dp4903
g53
(dp4904
sg62
g4889
sg55
(lp4905
g48
(g49
g50
NtRp4906
(dp4907
g53
(dp4908
g61
I5
ssg62
g4902
sg55
(lp4909
g48
(g57
g50
NtRp4910
(dp4911
g53
(dp4912
g61
I4
ssg62
Nsg55
(lp4913
g48
(g64
g50
NtRp4914
(dp4915
g53
(dp4916
sg62
g4910
sg55
(lp4917
g48
(g69
g50
NtRp4918
(dp4919
g53
(dp4920
g73
g74
ssg62
g4914
sg55
(lp4921
S'author'
p4922
asbag48
(g69
g50
NtRp4923
(dp4924
g53
(dp4925
g80
g81
ssg62
g4914
sg55
(lp4926
S':'
asbag48
(g69
g50
NtRp4927
(dp4928
g53
(dp4929
sg62
g4914
sg55
(lp4930
g48
(g49
g50
NtRp4931
(dp4932
g53
(dp4933
g61
I4
ssg62
g4927
sg55
(lp4934
S'you'
p4935
asbasbasbag48
(g64
g50
NtRp4936
(dp4937
g53
(dp4938
sg62
g4910
sg55
(lp4939
g48
(g69
g50
NtRp4940
(dp4941
g53
(dp4942
g73
g74
ssg62
g4936
sg55
(lp4943
S'copyright'
p4944
asbag48
(g69
g50
NtRp4945
(dp4946
g53
(dp4947
g80
g81
ssg62
g4936
sg55
(lp4948
S':'
asbag48
(g69
g50
NtRp4949
(dp4950
g53
(dp4951
sg62
g4936
sg55
(lp4952
g48
(g49
g50
NtRp4953
(dp4954
g53
(dp4955
g61
I4
ssg62
g4949
sg55
(lp4956
S'Copyright 2007-2010'
p4957
asbasbasbag48
(g64
g50
NtRp4958
(dp4959
g53
(dp4960
sg62
g4910
sg55
(lp4961
g48
(g69
g50
NtRp4962
(dp4963
g53
(dp4964
g73
g74
ssg62
g4958
sg55
(lp4965
S'description'
p4966
asbag48
(g69
g50
NtRp4967
(dp4968
g53
(dp4969
g80
g81
ssg62
g4958
sg55
(lp4970
S':'
asbag48
(g69
g50
NtRp4971
(dp4972
g53
(dp4973
sg62
g4958
sg55
(lp4974
g48
(g49
g50
NtRp4975
(dp4976
g53
(dp4977
g61
I4
ssg62
g4971
sg55
(lp4978
S'Free and open source full-stack enterprise framework for agile development of fast, scalable, secure and portable database-driven web-based applications. Written and programmable in Python'
p4979
asbasbasbag48
(g64
g50
NtRp4980
(dp4981
g53
(dp4982
sg62
g4910
sg55
(lp4983
g48
(g69
g50
NtRp4984
(dp4985
g53
(dp4986
g73
g74
ssg62
g4980
sg55
(lp4987
S'generator'
p4988
asbag48
(g69
g50
NtRp4989
(dp4990
g53
(dp4991
g80
g81
ssg62
g4980
sg55
(lp4992
S':'
asbag48
(g69
g50
NtRp4993
(dp4994
g53
(dp4995
sg62
g4980
sg55
(lp4996
g48
(g49
g50
NtRp4997
(dp4998
g53
(dp4999
g61
I4
ssg62
g4993
sg55
(lp5000
S'Web2py Enterprise Framework'
p5001
asbasbasbag48
(g64
g50
NtRp5002
(dp5003
g53
(dp5004
sg62
g4910
sg55
(lp5005
g48
(g69
g50
NtRp5006
(dp5007
g53
(dp5008
g73
g74
ssg62
g5002
sg55
(lp5009
S'keywords'
p5010
asbag48
(g69
g50
NtRp5011
(dp5012
g53
(dp5013
g80
g81
ssg62
g5002
sg55
(lp5014
S':'
asbag48
(g69
g50
NtRp5015
(dp5016
g53
(dp5017
sg62
g5002
sg55
(lp5018
g48
(g49
g50
NtRp5019
(dp5020
g53
(dp5021
g61
I4
ssg62
g5015
sg55
(lp5022
S'web2py, python, framework'
p5023
asbasbasbasbasbasbasbag48
(g64
g50
NtRp5024
(dp5025
g53
(dp5026
sg62
g3411
sg55
(lp5027
g48
(g69
g50
NtRp5028
(dp5029
g53
(dp5030
g73
g74
ssg62
g5024
sg55
(lp5031
S'postprocessing'
p5032
asbag48
(g69
g50
NtRp5033
(dp5034
g53
(dp5035
g80
g81
ssg62
g5024
sg55
(lp5036
S':'
asbag48
(g69
g50
NtRp5037
(dp5038
g53
(dp5039
sg62
g5024
sg55
(lp5040
g48
(g49
g50
NtRp5041
(dp5042
g53
(dp5043
g61
I5
ssg62
g5037
sg55
(lp5044
g48
(g57
g50
NtRp5045
(dp5046
g53
(dp5047
g61
I4
ssg62
Nsg55
(lp5048
sbasbasbasbag48
(g64
g50
NtRp5049
(dp5050
g53
(dp5051
sg62
g3411
sg55
(lp5052
g48
(g69
g50
NtRp5053
(dp5054
g53
(dp5055
g73
g74
ssg62
g5049
sg55
(lp5056
S'session_file'
p5057
asbag48
(g69
g50
NtRp5058
(dp5059
g53
(dp5060
g80
g81
ssg62
g5049
sg55
(lp5061
S':'
asbag48
(g69
g50
NtRp5062
(dp5063
g53
(dp5064
sg62
g5049
sg55
(lp5065
g48
(g49
g50
NtRp5066
(dp5067
g53
(dp5068
g61
I5
ssg62
g5062
sg55
(lp5069
S"<open file 'C:\\Users\\Atomico\\web2py\\applications\\Desglosar_Emails\\sessions\\127.0.0.1-0a11b3b2-660c-433c-b71f-fc129286f26c', mode 'rb+' at 0x0756EBF0>"
p5070
asbasbasbag48
(g64
g50
NtRp5071
(dp5072
g53
(dp5073
sg62
g3411
sg55
(lp5074
g48
(g69
g50
NtRp5075
(dp5076
g53
(dp5077
g73
g74
ssg62
g5071
sg55
(lp5078
S'session_filename'
p5079
asbag48
(g69
g50
NtRp5080
(dp5081
g53
(dp5082
g80
g81
ssg62
g5071
sg55
(lp5083
S':'
asbag48
(g69
g50
NtRp5084
(dp5085
g53
(dp5086
sg62
g5071
sg55
(lp5087
g48
(g49
g50
NtRp5088
(dp5089
g53
(dp5090
g61
I5
ssg62
g5084
sg55
(lp5091
S'C:\\Users\\Atomico\\web2py\\applications\\Desglosar_Emails\\sessions\\127.0.0.1-0a11b3b2-660c-433c-b71f-fc129286f26c'
p5092
asbasbasbag48
(g64
g50
NtRp5093
(dp5094
g53
(dp5095
sg62
g3411
sg55
(lp5096
g48
(g69
g50
NtRp5097
(dp5098
g53
(dp5099
g73
g74
ssg62
g5093
sg55
(lp5100
S'session_id'
p5101
asbag48
(g69
g50
NtRp5102
(dp5103
g53
(dp5104
g80
g81
ssg62
g5093
sg55
(lp5105
S':'
asbag48
(g69
g50
NtRp5106
(dp5107
g53
(dp5108
sg62
g5093
sg55
(lp5109
g48
(g49
g50
NtRp5110
(dp5111
g53
(dp5112
g61
I5
ssg62
g5106
sg55
(lp5113
S'127.0.0.1-0a11b3b2-660c-433c-b71f-fc129286f26c'
p5114
asbasbasbag48
(g64
g50
NtRp5115
(dp5116
g53
(dp5117
sg62
g3411
sg55
(lp5118
g48
(g69
g50
NtRp5119
(dp5120
g53
(dp5121
g73
g74
ssg62
g5115
sg55
(lp5122
S'session_id_name'
p5123
asbag48
(g69
g50
NtRp5124
(dp5125
g53
(dp5126
g80
g81
ssg62
g5115
sg55
(lp5127
S':'
asbag48
(g69
g50
NtRp5128
(dp5129
g53
(dp5130
sg62
g5115
sg55
(lp5131
g48
(g49
g50
NtRp5132
(dp5133
g53
(dp5134
g61
I5
ssg62
g5128
sg55
(lp5135
g3468
asbasbasbag48
(g64
g50
NtRp5136
(dp5137
g53
(dp5138
sg62
g3411
sg55
(lp5139
g48
(g69
g50
NtRp5140
(dp5141
g53
(dp5142
g73
g74
ssg62
g5136
sg55
(lp5143
S'session_locked'
p5144
asbag48
(g69
g50
NtRp5145
(dp5146
g53
(dp5147
g80
g81
ssg62
g5136
sg55
(lp5148
S':'
asbag48
(g69
g50
NtRp5149
(dp5150
g53
(dp5151
sg62
g5136
sg55
(lp5152
g48
(g49
g50
NtRp5153
(dp5154
g53
(dp5155
g61
I5
ssg62
g5149
sg55
(lp5156
g2346
asbasbasbag48
(g64
g50
NtRp5157
(dp5158
g53
(dp5159
sg62
g3411
sg55
(lp5160
g48
(g69
g50
NtRp5161
(dp5162
g53
(dp5163
g73
g74
ssg62
g5157
sg55
(lp5164
S'session_new'
p5165
asbag48
(g69
g50
NtRp5166
(dp5167
g53
(dp5168
g80
g81
ssg62
g5157
sg55
(lp5169
S':'
asbag48
(g69
g50
NtRp5170
(dp5171
g53
(dp5172
sg62
g5157
sg55
(lp5173
g48
(g49
g50
NtRp5174
(dp5175
g53
(dp5176
g61
I5
ssg62
g5170
sg55
(lp5177
g91
asbasbasbag48
(g64
g50
NtRp5178
(dp5179
g53
(dp5180
sg62
g3411
sg55
(lp5181
g48
(g69
g50
NtRp5182
(dp5183
g53
(dp5184
g73
g74
ssg62
g5178
sg55
(lp5185
S'status'
p5186
asbag48
(g69
g50
NtRp5187
(dp5188
g53
(dp5189
g80
g81
ssg62
g5178
sg55
(lp5190
S':'
asbag48
(g69
g50
NtRp5191
(dp5192
g53
(dp5193
sg62
g5178
sg55
(lp5194
g48
(g49
g50
NtRp5195
(dp5196
g53
(dp5197
g61
I5
ssg62
g5191
sg55
(lp5198
S'200'
p5199
asbasbasbag48
(g64
g50
NtRp5200
(dp5201
g53
(dp5202
sg62
g3411
sg55
(lp5203
g48
(g69
g50
NtRp5204
(dp5205
g53
(dp5206
g73
g74
ssg62
g5200
sg55
(lp5207
S'subtitle'
p5208
asbag48
(g69
g50
NtRp5209
(dp5210
g53
(dp5211
g80
g81
ssg62
g5200
sg55
(lp5212
S':'
asbag48
(g69
g50
NtRp5213
(dp5214
g53
(dp5215
sg62
g5200
sg55
(lp5216
g48
(g49
g50
NtRp5217
(dp5218
g53
(dp5219
g61
I5
ssg62
g5213
sg55
(lp5220
g3962
(S's\t\x00\x00\x00Adaptame!'
tRp5221
asbasbasbag48
(g64
g50
NtRp5222
(dp5223
g53
(dp5224
sg62
g3411
sg55
(lp5225
g48
(g69
g50
NtRp5226
(dp5227
g53
(dp5228
g73
g74
ssg62
g5222
sg55
(lp5229
S'title'
p5230
asbag48
(g69
g50
NtRp5231
(dp5232
g53
(dp5233
g80
g81
ssg62
g5222
sg55
(lp5234
S':'
asbag48
(g69
g50
NtRp5235
(dp5236
g53
(dp5237
sg62
g5222
sg55
(lp5238
g48
(g49
g50
NtRp5239
(dp5240
g53
(dp5241
g61
I5
ssg62
g5235
sg55
(lp5242
g113
asbasbasbag48
(g64
g50
NtRp5243
(dp5244
g53
(dp5245
sg62
g3411
sg55
(lp5246
g48
(g69
g50
NtRp5247
(dp5248
g53
(dp5249
g73
g74
ssg62
g5243
sg55
(lp5250
g2670
asbag48
(g69
g50
NtRp5251
(dp5252
g53
(dp5253
g80
g81
ssg62
g5243
sg55
(lp5254
S':'
asbag48
(g69
g50
NtRp5255
(dp5256
g53
(dp5257
sg62
g5243
sg55
(lp5258
g48
(g49
g50
NtRp5259
(dp5260
g53
(dp5261
g61
I5
ssg62
g5255
sg55
(lp5262
g2683
asbasbasbag48
(g64
g50
NtRp5263
(dp5264
g53
(dp5265
sg62
g3411
sg55
(lp5266
g48
(g69
g50
NtRp5267
(dp5268
g53
(dp5269
g73
g74
ssg62
g5263
sg55
(lp5270
S'view'
p5271
asbag48
(g69
g50
NtRp5272
(dp5273
g53
(dp5274
g80
g81
ssg62
g5263
sg55
(lp5275
S':'
asbag48
(g69
g50
NtRp5276
(dp5277
g53
(dp5278
sg62
g5263
sg55
(lp5279
g48
(g49
g50
NtRp5280
(dp5281
g53
(dp5282
g61
I5
ssg62
g5276
sg55
(lp5283
S'default/entrada_mod3.html'
p5284
asbasbasbasbasbsS'locals'
p5285
(dp5286
S'OBJECT'
p5287
S"<class 'gluon.html.OBJECT'>"
p5288
sS'_file'
p5289
S"'/Desglosar_Emails/static/js/superfish.js'"
p5290
sS'SQLDB'
p5291
S"<class 'gluon.dal.DAL'>"
p5292
sg3371
S"<Storage {'_formkey[info4/create]': '9462acfc-e5...reate]': '8e64454b-c140-4083-85f9-d732a0a4f4cc'}>"
p5293
sS'LINK'
p5294
S"<class 'gluon.html.LINK'>"
p5295
sS'BR'
p5296
S"<class 'gluon.html.BR'>"
p5297
sS'local_import'
p5298
S'<function <lambda> at 0x08231F30>'
p5299
sS'OPTGROUP'
p5300
S"<class 'gluon.html.OPTGROUP'>"
p5301
sS'PRE'
p5302
S"<class 'gluon.html.PRE'>"
p5303
sS'IS_INT_IN_RANGE'
p5304
S"<class 'gluon.validators.IS_INT_IN_RANGE'>"
p5305
sS'left_sidebar_enabled'
p5306
g91
sS'IS_LOWER'
p5307
S"<class 'gluon.validators.IS_LOWER'>"
p5308
sS'IS_STRONG'
p5309
S"<class 'gluon.validators.IS_STRONG'>"
p5310
sS'cache'
p5311
S'<gluon.cache.Cache object at 0x07CB7830>'
p5312
sS'IS_IN_DB'
p5313
S"<class 'gluon.validators.IS_IN_DB'>"
p5314
sS'TAG'
p5315
S'<gluon.html.__TAG__ object at 0x026EA730>'
p5316
sS'_k'
p5317
S'5'
sS'SQLField'
p5318
S"<class 'gluon.dal.Field'>"
p5319
sS'BODY'
p5320
S"<class 'gluon.html.BODY'>"
p5321
sS'IS_DATE_IN_RANGE'
p5322
S"<class 'gluon.validators.IS_DATE_IN_RANGE'>"
p5323
sS'TH'
p5324
S"<class 'gluon.html.TH'>"
p5325
sS'URL'
p5326
S'<function URL at 0x02740870>'
p5327
sS'__file__'
p5328
S"r'C:\\Users\\Atomico\\web2py\\applications\\Desglosar_Emails\\views\\default/entrada_mod3.html'"
p5329
sS'db'
p5330
S"<DAL {'persona': <Table {'ALL': <gluon.dal.SQLAL...ing_references': {}, '_uri': 'sqlite://mydb.db'}>"
p5331
sS'P'
S"<class 'gluon.html.P'>"
p5332
sS'TFOOT'
p5333
S"<class 'gluon.html.TFOOT'>"
p5334
sS'clavos'
p5335
S"['(', ')', ',', ';', ' ']"
p5336
sS'XHTML'
p5337
S"<class 'gluon.html.XHTML'>"
p5338
sS'patternemail'
p5339
S'<_sre.SRE_Pattern object at 0x0924F2C0>'
p5340
sS'ON'
p5341
g2346
sS'OL'
p5342
S"<class 'gluon.html.OL'>"
p5343
sS'TEXTAREA'
p5344
S"<class 'gluon.html.TEXTAREA'>"
p5345
sS'MENU'
p5346
S"<class 'gluon.html.MENU'>"
p5347
sS'_file0'
p5348
S"'/desglosar_emails/static/js/superfish.js'"
p5349
sS'LOAD'
p5350
S'<gluon.compileapp.LoadFactory object at 0x07CB7B10>'
p5351
sS'CODE'
p5352
S"<class 'gluon.html.CODE'>"
p5353
sS'HTTP'
p5354
S"<class 'gluon.http.HTTP'>"
p5355
sS'HR'
p5356
S"<class 'gluon.html.HR'>"
p5357
sS'IS_DATETIME'
p5358
S"<class 'gluon.validators.IS_DATETIME'>"
p5359
sS'HEAD'
p5360
S"<class 'gluon.html.HEAD'>"
p5361
sS'LABEL'
p5362
S"<class 'gluon.html.LABEL'>"
p5363
sS'CLEANUP'
p5364
S"<class 'gluon.validators.CLEANUP'>"
p5365
sS'SELECT'
p5366
S"<class 'gluon.html.SELECT'>"
p5367
sS'CENTER'
p5368
S"<class 'gluon.html.CENTER'>"
p5369
sS'left_sidebar_style'
p5370
S'\'style="display: none;"\''
p5371
sS'pattern'
p5372
S'<_sre.SRE_Pattern object at 0x0932ED10>'
p5373
sS'__builtins__'
p5374
S"{'ArithmeticError': <type 'exceptions.ArithmeticError'>, 'AssertionError': <type 'exceptions.AssertionError'>, 'AttributeError': <type 'exceptions.AttributeError'>, 'BaseException': <type 'exceptions.BaseException'>, 'DeprecationWarning': <type 'exceptions.DeprecationWarning'>, 'EOFError': <type 'exceptions.EOFError'>, 'Ellipsis': Ellipsis, 'EnvironmentError': <type 'exceptions.EnvironmentError'>, 'Exception': <type 'exceptions.Exception'>, 'False': False, ...}"
p5375
sS'IS_LIST_OF'
p5376
S"<class 'gluon.validators.IS_LIST_OF'>"
p5377
sS'SQLFORM'
p5378
S"<class 'gluon.sqlhtml.SQLFORM'>"
p5379
sS'_item'
p5380
S"'author'"
p5381
sS'EM'
p5382
S"<class 'gluon.html.EM'>"
p5383
sS'redirect'
p5384
S'<function redirect at 0x024EB3B0>'
p5385
sS'FIELDSET'
p5386
S"<class 'gluon.html.FIELDSET'>"
p5387
sS'IS_EQUAL_TO'
p5388
S"<class 'gluon.validators.IS_EQUAL_TO'>"
p5389
sS'embed64'
p5390
S'<function embed64 at 0x027443B0>'
p5391
sS'INPUT'
p5392
S"<class 'gluon.html.INPUT'>"
p5393
sS'EMBED'
p5394
S"<class 'gluon.html.EMBED'>"
p5395
sS'FORM'
p5396
S"<class 'gluon.html.FORM'>"
p5397
sS'width_content'
p5398
S"'100%'"
p5399
sS'H2'
p5400
S"<class 'gluon.html.H2'>"
p5401
sS'H3'
p5402
S"<class 'gluon.html.H3'>"
p5403
sS'BUTTON'
p5404
S"<class 'gluon.html.BUTTON'>"
p5405
sS'H1'
p5406
S"<class 'gluon.html.H1'>"
p5407
sS'H6'
p5408
S"<class 'gluon.html.H6'>"
p5409
sS'H4'
p5410
S"<class 'gluon.html.H4'>"
p5411
sS'H5'
p5412
S"<class 'gluon.html.H5'>"
p5413
sS'UL'
p5414
S"<class 'gluon.html.UL'>"
p5415
sS'IS_UPPER'
p5416
S"<class 'gluon.validators.IS_UPPER'>"
p5417
sS'xmlescape'
p5418
S'<function xmlescape at 0x02740830>'
p5419
sS'IS_TIME'
p5420
S"<class 'gluon.validators.IS_TIME'>"
p5421
sS'con'
p5422
S'0'
sS'OPTION'
p5423
S"<class 'gluon.html.OPTION'>"
p5424
sS'TITLE'
p5425
S"<class 'gluon.html.TITLE'>"
p5426
sS'CRYPT'
p5427
S"<class 'gluon.validators.CRYPT'>"
p5428
sS'IS_EMPTY_OR'
p5429
S"<class 'gluon.validators.IS_EMPTY_OR'>"
p5430
sS'MARKMIN'
p5431
S"<class 'gluon.html.MARKMIN'>"
p5432
sS'txt'
p5433
S"'onkicaronki@hotmail.com, cecilia.prada@fastwebne...alnet.net); Bibi (bibianaperezsolano@hotmail.com)'"
p5434
sS'SCRIPT'
p5435
S"<class 'gluon.html.SCRIPT'>"
p5436
sS'textual'
p5437
S"<Row {'update_record': <function <lambda> at 0x0...et.net); Bibi (bibianaperezsolano@hotmail.com)'}>"
p5438
sS'TABLE'
p5439
S"<class 'gluon.html.TABLE'>"
p5440
sS'IS_IPV4'
p5441
S"<class 'gluon.validators.IS_IPV4'>"
p5442
sS'IS_LENGTH'
p5443
S"<class 'gluon.validators.IS_LENGTH'>"
p5444
sS'XML'
p5445
S"<class 'gluon.html.XML'>"
p5446
sS'B'
S"<class 'gluon.html.B'>"
p5447
sS'form'
p5448
S'<gluon.sqlhtml.SQLFORM object at 0x07FE8F50>'
p5449
sS'SQLTABLE'
p5450
S"<class 'gluon.sqlhtml.SQLTABLE'>"
p5451
sS'IS_MATCH'
p5452
S"<class 'gluon.validators.IS_MATCH'>"
p5453
sS'IS_ALPHANUMERIC'
p5454
S"<class 'gluon.validators.IS_ALPHANUMERIC'>"
p5455
sS'SPAN'
p5456
S"<class 'gluon.html.SPAN'>"
p5457
sS'IS_SLUG'
p5458
S"<class 'gluon.validators.IS_SLUG'>"
p5459
sS'BEAUTIFY'
p5460
S"<class 'gluon.html.BEAUTIFY'>"
p5461
sS'META'
p5462
S"<class 'gluon.html.META'>"
p5463
sS'IS_DATE'
p5464
S"<class 'gluon.validators.IS_DATE'>"
p5465
sS'IS_EMAIL'
p5466
S"<class 'gluon.validators.IS_EMAIL'>"
p5467
sS'IS_NOT_EMPTY'
p5468
S"<class 'gluon.validators.IS_NOT_EMPTY'>"
p5469
sg47
S"<Storage {'is_local': True, 'function': 'entrada....06-28-11.b852265b-c845-4e8c-a8b3-1a0b6a0814b9'}>"
p5470
sS'TBODY'
p5471
S"<class 'gluon.html.TBODY'>"
p5472
sS'CAT'
p5473
S"<class 'gluon.html.CAT'>"
p5474
sS'Field'
p5475
S"<class 'gluon.dal.Field'>"
p5476
sS'DIV'
p5477
S"<class 'gluon.html.DIV'>"
p5478
sS'LEGEND'
p5479
S"<class 'gluon.html.LEGEND'>"
p5480
sS'IMG'
p5481
S"<class 'gluon.html.IMG'>"
p5482
sS'DAL'
p5483
S"<class 'gluon.dal.DAL'>"
p5484
sS'TT'
p5485
S"<class 'gluon.html.TT'>"
p5486
sS'TR'
p5487
S"<class 'gluon.html.TR'>"
p5488
sS'LI'
p5489
S"<class 'gluon.html.LI'>"
p5490
sS'right_sidebar_enabled'
p5491
g91
sS'res2'
p5492
S"['@hotmail.com', '@fastwebnet.it', '@gmail.com', '@yahoo.es', '@hotmail.com', '@euskalnet.net', '@ashland.com', '@hotmail.com', '@hotmail.com', '@hotmail.com', '@hotmail.com', '@hotmail.com', '@hotmail.com', '@hotmail.com', '@euskaltel.net', '@hotmail.com', '@yahoo.es', '@hotmail.com', '@hotmail.com', '@hotmail.com', ...]"
p5493
sS'IFRAME'
p5494
S"<class 'gluon.html.IFRAME'>"
p5495
sS'TD'
p5496
S"<class 'gluon.html.TD'>"
p5497
sS'IS_URL'
p5498
S"<class 'gluon.validators.IS_URL'>"
p5499
sS'A'
S"<class 'gluon.html.A'>"
p5500
sS'STYLE'
p5501
S"<class 'gluon.html.STYLE'>"
p5502
sS'IS_DATETIME_IN_RANGE'
p5503
S"<class 'gluon.validators.IS_DATETIME_IN_RANGE'>"
p5504
sS'HTML'
p5505
S"<class 'gluon.html.HTML'>"
p5506
sS'IS_IMAGE'
p5507
S"<class 'gluon.validators.IS_IMAGE'>"
p5508
sS'I'
S"<class 'gluon.html.I'>"
p5509
sS'right_sidebar_style'
p5510
S'\'style="display: none;"\''
p5511
sS'IS_NOT_IN_DB'
p5512
S"<class 'gluon.validators.IS_NOT_IN_DB'>"
p5513
sg3406
S"<Storage {'body': <cStringIO.StringO object at 0...x07D86570>, 'view': 'default/entrada_mod3.html'}>"
p5514
sS'THEAD'
p5515
S"<class 'gluon.html.THEAD'>"
p5516
sS'IS_NULL_OR'
p5517
S"<class 'gluon.validators.IS_EMPTY_OR'>"
p5518
sS'i'
S'0'
sS'IS_FLOAT_IN_RANGE'
p5519
S"<class 'gluon.validators.IS_FLOAT_IN_RANGE'>"
p5520
sS'IS_EXPR'
p5521
S"<class 'gluon.validators.IS_EXPR'>"
p5522
sS'T'
S'<gluon.languages.translator object at 0x07CB7E10>'
p5523
sS'IS_IN_SET'
p5524
S"<class 'gluon.validators.IS_IN_SET'>"
p5525
sS'IS_UPLOAD_FILENAME'
p5526
S"<class 'gluon.validators.IS_UPLOAD_FILENAME'>"
p5527
sS'res'
p5528
S"['onkicaronki@hotmail.com', 'cecilia.prada@fastwebnet', 'gallo.moa@gmail', 'ferrer_chinchilla@yahoo.es', 'RESTI', 'restign@hotmail.com', 'Natacion', 'enebel1@euskalnet.net', 'Natacion', 'Jose Manuel', 'jmprieto@ashland.com', 'Natacion', 'cdnmeatzaldea@hotmail.com', 'Mikel', 'mikelvitores7@hotmail.com', 'Maite', 'maitemoran1@hotmail.com', 'Luisma', 'lmfullaondo@hotmail.com', 'Luis Angel', ...]"
p5529
sS'style_content'
p5530
S'\'style="width: 100%"\''
p5531
sS're'
p5532
S"<module 're' from 'C:\\Users\\Atomico\\web2py\\library.zip\\re.pyc'>"
p5533
sS'IS_DECIMAL_IN_RANGE'
p5534
S"<class 'gluon.validators.IS_DECIMAL_IN_RANGE'>"
p5535
sssS'traceback'
p5536
S'Traceback (most recent call last):\n  File "gluon/restricted.py", line 192, in restricted\n  File "C:\\Users\\Atomico\\web2py\\applications\\Desglosar_Emails\\views\\default/entrada_mod3.html", line 121, in <module>\nNameError: name \'contactos\' is not defined\n'
p5537
s.