(dp1
S'output'
p2
S''
sS'layer'
p3
S'C:\\Users\\Atomico\\web2py\\applications\\Desglosar_Emails\\views\\default/entrada_mod3.html'
p4
sS'code'
p5
S'response.write(\'<!DOCTYPE html>\\n<html lang="\', escape=False)\nresponse.write(T.accepted_language or \'en\')\nresponse.write(\'" class="no-js"><!-- no-js need it for modernzr -->\\n  <head>\\n    \\n    <meta charset="utf-8" />\\t  \\t\\n    <!-- www.phpied.com/conditional-comments-block-downloads/ -->\\n    <!--[if IE]><![endif]-->    \\n    <!-- Always force latest IE rendering engine \\n\\t (even in intranet) & Chrome Frame \\n\\t Remove this if you use the .htaccess -->\\n    <meta http-equiv="X-UA-Compatible" content="IE=edge,chrome=1">\\n    \\n    <title>\', escape=False)\nresponse.write(response.title or request.application)\nresponse.write(\'</title>\\n    \\n    <!-- http://dev.w3.org/html5/markup/meta.name.html -->\\n    <meta name="application-name" content="\', escape=False)\nresponse.write(request.application)\nresponse.write(\'" />\\t\\n    \\n    <!-- Speaking of Google, don\\\'t forget to set your site up: \\n\\t http://google.com/webmasters -->\\n    <meta name="google-site-verification" content="" />\\n    \\n    <!--  Mobile Viewport Fix\\n\\t  j.mp/mobileviewport & davidbcalhoun.com/2010/viewport-metatag \\n\\t  device-width: Occupy full width of the screen in its current orientation\\n\\t  initial-scale = 1.0 retains dimensions instead of zooming out if page height > device height\\n\\t  maximum-scale = 1.0 retains dimensions instead of zooming in if page width < device width\\n      -->\\n    <meta name="viewport" content="width=device-width, initial-scale=1.0, maximum-scale=1.0">\\n    \\n    <!-- Place favicon.ico and apple-touch-icon.png in the root of your domain and delete these references -->\\n    <link rel="shortcut icon" href="\', escape=False)\nresponse.write(URL(\'static\',\'favicon.ico\'))\nresponse.write(\'" type="image/x-icon">\\n    <link rel="apple-touch-icon" href="\', escape=False)\nresponse.write(URL(\'static\',\'favicon.png\'))\nresponse.write(\'">\\n\\n    <!-- For the less-enabled mobile browsers like Opera Mini -->\\n    <link rel="stylesheet" media="handheld" href="\', escape=False)\nresponse.write(URL(\'static\',\'css/handheld.css\'))\nresponse.write(\'">\\n    \\n    <!-- All JavaScript at the bottom, except for Modernizr which enables HTML5 elements & feature detects -->\\n    <script src="\', escape=False)\nresponse.write(URL(\'static\',\'js/modernizr-1.7.min.js\'))\nresponse.write(\'"></script>\\n    \\n    \', escape=False)\n#------  require CSS and JS files for this page (read info in base.css) ------\nresponse.write(\'\\n    \', escape=False)\nresponse.files.append(URL(\'static\',\'css/base.css\'))\nresponse.write(\'\\n    \', escape=False)\nresponse.files.append(URL(\'static\',\'css/superfish.css\'))\nresponse.write(\'\\n    \', escape=False)\nresponse.files.append(URL(\'static\',\'js/superfish.js\'))\nresponse.write(\'\\n    \', escape=False)\n#------ include web2py specific js code (jquery, calendar, form stuff) ------\nresponse.write(\'\\n    \', escape=False)\nresponse.files.insert(0,URL(\'static\',\'js/jquery.js\'))\nresponse.files.insert(1,URL(\'static\',\'css/calendar.css\'))\nresponse.files.insert(2,URL(\'static\',\'js/calendar.js\'))\nfor _item in response.meta or []:\n    response.write(\'\\n     <meta name="\', escape=False)\n    response.write(_item)\n    response.write(\'" content="\', escape=False)\n    response.write(response.meta[_item])\n    response.write(\'" />\', escape=False)\n    pass\nfor _k,_file in enumerate(response.files or []):\n    if _file in response.files[:_k]:\n        continue\n    _file0=_file.lower().split(\'?\')[0]\n    if _file0.endswith(\'.css\'):\n        response.write(\'\\n     <link href="\', escape=False)\n        response.write(_file)\n        response.write(\'" rel="stylesheet" type="text/css" />\', escape=False)\n    elif _file0.endswith(\'.js\'):\n        response.write(\'\\n     <script src="\', escape=False)\n        response.write(_file)\n        response.write(\'" type="text/javascript"></script>\', escape=False)\n        pass\n    pass\nresponse.write(\'\\n    <script type="text/javascript"><!--\\n    // These variables are used by the web2py_ajax_init function in web2py_ajax.js (which is loaded below).\\n    var w2p_ajax_confirm_message = "\', escape=False)\nresponse.write(T(\'Are you sure you want to delete this object?\'))\nresponse.write(\'";\\n    var w2p_ajax_date_format = "\', escape=False)\nresponse.write(T(\'%Y-%m-%d\'))\nresponse.write(\'";\\n    var w2p_ajax_datetime_format = "\', escape=False)\nresponse.write(T(\'%Y-%m-%d %H:%M:%S\'))\nresponse.write(\'";\\n    //--></script>\\n    <script src="\', escape=False)\nresponse.write(URL(\'static\',\'js/web2py_ajax.js\'))\nresponse.write(\'" type="text/javascript"></script>\\n\', escape=False)\nresponse.write(\'\\n\\n    \', escape=False)\n#using sidebars need to know what sidebar you want to use\n#prior of using it, because of static width size of content, you can use\n#left_sidebar, right_sidebar, both or none (False left and right)\nleft_sidebar_enabled = globals().get(\'left_sidebar_enabled\',False)\nright_sidebar_enabled = globals().get(\'right_sidebar_enabled\',False)\nif left_sidebar_enabled and right_sidebar_enabled: width_content=\'63%\'\nelif left_sidebar_enabled != right_sidebar_enabled: width_content=\'740px\'\nelse: width_content=\'100%\'\nif left_sidebar_enabled: left_sidebar_style = \'style="display: block;"\'\nelse: left_sidebar_style = \'style="display: none;"\'\nif right_sidebar_enabled: right_sidebar_style = \'style="display: block;"\'\nelse: right_sidebar_style = \'style="display: none;"\'\nstyle_content = \'style="width: %s"\' % width_content\nresponse.write(\'\\n  </head>\\n  \\n  <!-- paulirish.com/2008/conditional-stylesheets-vs-css-hacks-answer-neither/ -->\\t\\n  <!--[if lt IE 7 ]> <body class="ie6"> <![endif]-->\\n  <!--[if IE 7 ]>    <body class="ie7"> <![endif]-->\\n  <!--[if IE 8 ]>    <body class="ie8"> <![endif]-->\\n  <!--[if IE 9 ]>    <body class="ie9"> <![endif]-->\\n  <!--[if (gt IE 9)|!(IE)]><!--> <body> <!--<![endif]-->\\n    \\n    <div class="flash">\', escape=False)\nresponse.write(response.flash or \'\')\nresponse.write(\'</div> <!-- notification div -->\\n    \\n    <div id="container">\\t      \\t\\t      \\t\\n      \\n      <div id="wrapper">\\t\\t\\n\\t\\n\\t<div id="header"> <!-- header and login nav -->\\n\\t  \', escape=False)\nresponse.write(\' <!-- this is default header -->\\n\\t  \', escape=False)\ntry:\n    response.write(auth.navbar(action=URL(\'default\',\'user\')))\nexcept:pass\nresponse.write(\'\\t\\t          \\n\\t  <h1><span id="appname">\', escape=False)\nresponse.write(request.application.capitalize())\nresponse.write(\'</span>App</h1>\\n\\t  <div style="clear: both;"></div><!-- Clear the divs -->\\n\\t  \', escape=False)\nresponse.write(\'\\t\\t\\t\\t  \\t\\t\\t\\t\\t  \\n\\t</div><!-- header  -->\\n\\t\\n\\t<div id="statusbar"><!-- statusbar is menu zone -->\\n\\t  \', escape=False)\nresponse.write(\' <!-- this is default statusbar -->\\n\\t  \', escape=False)\n#------ superfish menu ------\nresponse.write(\'\\n\\t  \', escape=False)\nresponse.write(MENU(response.menu,_class=\'sf-menu\'))\nresponse.write(\'\\n\\t  <script type="text/javascript">\\n\\t    jQuery(document).ready(function(){\\n\\t    jQuery(\\\'ul.sf-menu\\\').superfish();});\\n\\t  </script>\\n\\t  <div style="clear: both;"></div><!-- Clear the divs -->\\t\\n\\t  \', escape=False)\nresponse.write(\'\\t\\t\\t\\t\\n\\t</div><!-- statusbar -->\\n\\t\\n\\t<div id="page"> <!-- Here my central body -->\\t  \\n\\n\\t  \', escape=False)\nif left_sidebar_enabled:\n    response.write(\'\\n          <div id="left_sidebar" \', escape=False)\n    response.write(XML(left_sidebar_style))\n    response.write(\' >\\n            <div style="padding: 4px;">\\n\\t      \', escape=False)\n    response.write(\'Content Left Sidebar\', escape=False)\n    response.write(\'\\t\\t  \\n            </div>\\n          </div><!-- left_sidebar -->\\n\\t  \', escape=False)\n    pass\nresponse.write(\'\\n\\n\\t  <!-- content -->\\n\\t  <div id="content" \', escape=False)\nresponse.write(XML(style_content))\nresponse.write(\' >\\n\\t    \', escape=False)\nresponse.write(\'\\r\\n<h1>Esta es la plantilla default/entrada_mod3.html</h1>\\r\\n<h2>Formulario</h2>\\r\\n\', escape=False)\nresponse.write(form)\nresponse.write(\'\\r\\n<br/>\\r\\n<h3>Tratamientos</h3>\\r\\n\', escape=False)\nencontrado=False\ncont=0\ntxt=db.info2.texto\nfor i in range(len(db.info2.texto)):\n    if encontrado==False and txt[i]==\'@\':\n        encontrado=True\n        posf=i\n    else: pass\n    pass\nresponse.write(posf)\nresponse.write(\' \\r\\n es la posf\\r\\n\', escape=False)\nresponse.write(\'\\t\\n\\t  </div>\\n\\t  <!-- content -->\\n\\n\\t  \', escape=False)\nif right_sidebar_enabled:\n    response.write(\'\\n          <div id="right_sidebar" \', escape=False)\n    response.write(XML(right_sidebar_style))\n    response.write(\' >\\n            <div style="padding: 4px;">\\n              \', escape=False)\n    response.write(\'Content Right Sidebar\', escape=False)\n    response.write(\'\\n            </div>\\n\\t  </div><!-- right_sidebar -->\\n          \', escape=False)\n    pass\nresponse.write(\'\\n\\n\\n\\t  <div style="clear: both;"></div><!-- Clear the divs -->\\n\\t  \\n\\t</div><!-- page -->\\t\\t\\t\\t\\t\\t\\t\\n\\t\\n\\t<div id="footer">\\n\\t  \', escape=False)\nresponse.write(\' <!-- this is default footer -->\\n\\t  <a href="http://www.web2py.com/" style="float: left; padding-right: 6px;">\\n\\t    <img src="\', escape=False)\nresponse.write(URL(\'static\',\'images/poweredby.png\'))\nresponse.write(\'"/>\\n\\t  </a>\\n\\t  \', escape=False)\nresponse.write(T(\'Copyright\'))\nresponse.write(\' &#169; 2010\\t\\t\\t\\t\\n\\t  <div style="clear: both;"></div><!-- Clear the divs -->\\n\\t  \', escape=False)\nresponse.write(\'\\n\\n\\t</div><!-- footer -->\\t\\t\\t\\n      </div><!-- wrapper -->\\n    </div><!-- container -->\\t\\t\\n    \\n    <!--[if lt IE 7 ]>\\n\\t<script src="\', escape=False)\nresponse.write(URL(\'static\',\'js/dd_belatedpng.js\'))\nresponse.write(\'"></script>\\n\\t<script> DD_belatedPNG.fix(\\\'img, .png_bg\\\'); //fix any <img> or .png_bg background-images </script>\\n\\t<![endif]-->\\n    \\n    <!-- asynchronous google analytics: mathiasbynens.be/notes/async-analytics-snippet \\n\\t change the UA-XXXXX-X to be your site\\\'s ID -->\\n    <!--   \\n\\t   <script>\\n\\t     var _gaq = [[\\\'_setAccount\\\', \\\'UA-XXXXX-X\\\'], [\\\'_trackPageview\\\']];\\n\\t     (function(d, t) {\\n\\t     var g = d.createElement(t),\\n\\t     s = d.getElementsByTagName(t)[0];\\n\\t     g.async = true;\\n\\t     g.src = \\\'//www.google-analytics.com/ga.js\\\';\\n\\t     s.parentNode.insertBefore(g, s);\\n\\t     })(document, \\\'script\\\');\\n\\t   </script>\\n\\t   -->    \\n  </body>\\n</html>\\n\', escape=False)'
p6
sS'snapshot'
p7
(dp8
S'exception'
p9
(dp10
S'__hash__'
p11
S"<method-wrapper '__hash__' of exceptions.TypeError object at 0x07A88710>"
p12
sS'__setattr__'
p13
S"<method-wrapper '__setattr__' of exceptions.TypeError object at 0x07A88710>"
p14
sS'__reduce_ex__'
p15
S'<built-in method __reduce_ex__ of exceptions.TypeError object at 0x07A88710>'
p16
sS'__getslice__'
p17
S"<method-wrapper '__getslice__' of exceptions.TypeError object at 0x07A88710>"
p18
sS'__getitem__'
p19
S"<method-wrapper '__getitem__' of exceptions.TypeError object at 0x07A88710>"
p20
sS'__setstate__'
p21
S'<built-in method __setstate__ of exceptions.TypeError object at 0x07A88710>'
p22
sS'__reduce__'
p23
S'<built-in method __reduce__ of exceptions.TypeError object at 0x07A88710>'
p24
sS'__str__'
p25
S"<method-wrapper '__str__' of exceptions.TypeError object at 0x07A88710>"
p26
sS'args'
p27
S'("object of type \'Field\' has no len()",)'
p28
sS'__getattribute__'
p29
S"<method-wrapper '__getattribute__' of exceptions.TypeError object at 0x07A88710>"
p30
sS'__class__'
p31
S"<type 'exceptions.TypeError'>"
p32
sS'__delattr__'
p33
S"<method-wrapper '__delattr__' of exceptions.TypeError object at 0x07A88710>"
p34
sS'__repr__'
p35
S"<method-wrapper '__repr__' of exceptions.TypeError object at 0x07A88710>"
p36
sS'__dict__'
p37
S'{}'
p38
sS'__doc__'
p39
S"'Inappropriate argument type.'"
p40
sS'__init__'
p41
S"<method-wrapper '__init__' of exceptions.TypeError object at 0x07A88710>"
p42
sS'__new__'
p43
S'<built-in method __new__ of type object at 0x1E1CCD78>'
p44
ssS'evalue'
p45
S"object of type 'Field' has no len()"
p46
sS'request'
p47
ccopy_reg
_reconstructor
p48
(cgluon.html
BEAUTIFY
p49
c__builtin__
object
p50
NtRp51
(dp52
S'attributes'
p53
(dp54
sS'components'
p55
(lp56
g48
(cgluon.html
TABLE
p57
g50
NtRp58
(dp59
g53
(dp60
S'level'
p61
I5
ssS'parent'
p62
Nsg55
(lp63
g48
(cgluon.html
TR
p64
g50
NtRp65
(dp66
g53
(dp67
sg62
g58
sg55
(lp68
g48
(cgluon.html
TD
p69
g50
NtRp70
(dp71
g53
(dp72
S'_style'
p73
S'font-weight:bold;'
p74
ssg62
g65
sg55
(lp75
S'ajax'
p76
asbag48
(g69
g50
NtRp77
(dp78
g53
(dp79
S'_valign'
p80
S'top'
p81
ssg62
g65
sg55
(lp82
S':'
asbag48
(g69
g50
NtRp83
(dp84
g53
(dp85
sg62
g65
sg55
(lp86
g48
(g49
g50
NtRp87
(dp88
g53
(dp89
g61
I5
ssg62
g83
sg55
(lp90
S'False'
p91
asbasbasbag48
(g64
g50
NtRp92
(dp93
g53
(dp94
sg62
g58
sg55
(lp95
g48
(g69
g50
NtRp96
(dp97
g53
(dp98
g73
g74
ssg62
g92
sg55
(lp99
S'application'
p100
asbag48
(g69
g50
NtRp101
(dp102
g53
(dp103
g80
g81
ssg62
g92
sg55
(lp104
S':'
asbag48
(g69
g50
NtRp105
(dp106
g53
(dp107
sg62
g92
sg55
(lp108
g48
(g49
g50
NtRp109
(dp110
g53
(dp111
g61
I5
ssg62
g105
sg55
(lp112
S'Desglosar_Emails'
p113
asbasbasbag48
(g64
g50
NtRp114
(dp115
g53
(dp116
sg62
g58
sg55
(lp117
g48
(g69
g50
NtRp118
(dp119
g53
(dp120
g73
g74
ssg62
g114
sg55
(lp121
g27
asbag48
(g69
g50
NtRp122
(dp123
g53
(dp124
g80
g81
ssg62
g114
sg55
(lp125
S':'
asbag48
(g69
g50
NtRp126
(dp127
g53
(dp128
sg62
g114
sg55
(lp129
g48
(g49
g50
NtRp130
(dp131
g53
(dp132
g61
I5
ssg62
g126
sg55
(lp133
g48
(g57
g50
NtRp134
(dp135
g53
(dp136
g61
I4
ssg62
Nsg55
(lp137
sbasbasbasbag48
(g64
g50
NtRp138
(dp139
g53
(dp140
sg62
g58
sg55
(lp141
g48
(g69
g50
NtRp142
(dp143
g53
(dp144
g73
g74
ssg62
g138
sg55
(lp145
S'body'
p146
asbag48
(g69
g50
NtRp147
(dp148
g53
(dp149
g80
g81
ssg62
g138
sg55
(lp150
S':'
asbag48
(g69
g50
NtRp151
(dp152
g53
(dp153
sg62
g138
sg55
(lp154
g48
(g49
g50
NtRp155
(dp156
g53
(dp157
g61
I5
ssg62
g151
sg55
(lp158
S'<cStringIO.StringO object at 0x08F70EE0>'
p159
asbasbasbag48
(g64
g50
NtRp160
(dp161
g53
(dp162
sg62
g58
sg55
(lp163
g48
(g69
g50
NtRp164
(dp165
g53
(dp166
g73
g74
ssg62
g160
sg55
(lp167
S'client'
p168
asbag48
(g69
g50
NtRp169
(dp170
g53
(dp171
g80
g81
ssg62
g160
sg55
(lp172
S':'
asbag48
(g69
g50
NtRp173
(dp174
g53
(dp175
sg62
g160
sg55
(lp176
g48
(g49
g50
NtRp177
(dp178
g53
(dp179
g61
I5
ssg62
g173
sg55
(lp180
S'127.0.0.1'
p181
asbasbasbag48
(g64
g50
NtRp182
(dp183
g53
(dp184
sg62
g58
sg55
(lp185
g48
(g69
g50
NtRp186
(dp187
g53
(dp188
g73
g74
ssg62
g182
sg55
(lp189
S'controller'
p190
asbag48
(g69
g50
NtRp191
(dp192
g53
(dp193
g80
g81
ssg62
g182
sg55
(lp194
S':'
asbag48
(g69
g50
NtRp195
(dp196
g53
(dp197
sg62
g182
sg55
(lp198
g48
(g49
g50
NtRp199
(dp200
g53
(dp201
g61
I5
ssg62
g195
sg55
(lp202
S'default'
p203
asbasbasbag48
(g64
g50
NtRp204
(dp205
g53
(dp206
sg62
g58
sg55
(lp207
g48
(g69
g50
NtRp208
(dp209
g53
(dp210
g73
g74
ssg62
g204
sg55
(lp211
S'cookies'
p212
asbag48
(g69
g50
NtRp213
(dp214
g53
(dp215
g80
g81
ssg62
g204
sg55
(lp216
S':'
asbag48
(g69
g50
NtRp217
(dp218
g53
(dp219
sg62
g204
sg55
(lp220
g48
(g49
g50
NtRp221
(dp222
g53
(dp223
g61
I5
ssg62
g217
sg55
(lp224
g48
(g57
g50
NtRp225
(dp226
g53
(dp227
g61
I4
ssg62
Nsg55
(lp228
g48
(g64
g50
NtRp229
(dp230
g53
(dp231
sg62
g225
sg55
(lp232
g48
(g69
g50
NtRp233
(dp234
g53
(dp235
g73
g74
ssg62
g229
sg55
(lp236
S'session_id_admin'
p237
asbag48
(g69
g50
NtRp238
(dp239
g53
(dp240
g80
g81
ssg62
g229
sg55
(lp241
S':'
asbag48
(g69
g50
NtRp242
(dp243
g53
(dp244
sg62
g229
sg55
(lp245
g48
(g49
g50
NtRp246
(dp247
g53
(dp248
g61
I4
ssg62
g242
sg55
(lp249
g48
(g57
g50
NtRp250
(dp251
g53
(dp252
g61
I3
ssg62
Nsg55
(lp253
g48
(g64
g50
NtRp254
(dp255
g53
(dp256
sg62
g250
sg55
(lp257
g48
(g69
g50
NtRp258
(dp259
g53
(dp260
g73
g74
ssg62
g254
sg55
(lp261
S'comment'
p262
asbag48
(g69
g50
NtRp263
(dp264
g53
(dp265
g80
g81
ssg62
g254
sg55
(lp266
S':'
asbag48
(g69
g50
NtRp267
(dp268
g53
(dp269
sg62
g254
sg55
(lp270
g48
(g49
g50
NtRp271
(dp272
g53
(dp273
g61
I3
ssg62
g267
sg55
(lp274
S''
asbasbasbag48
(g64
g50
NtRp275
(dp276
g53
(dp277
sg62
g250
sg55
(lp278
g48
(g69
g50
NtRp279
(dp280
g53
(dp281
g73
g74
ssg62
g275
sg55
(lp282
S'domain'
p283
asbag48
(g69
g50
NtRp284
(dp285
g53
(dp286
g80
g81
ssg62
g275
sg55
(lp287
S':'
asbag48
(g69
g50
NtRp288
(dp289
g53
(dp290
sg62
g275
sg55
(lp291
g48
(g49
g50
NtRp292
(dp293
g53
(dp294
g61
I3
ssg62
g288
sg55
(lp295
S''
asbasbasbag48
(g64
g50
NtRp296
(dp297
g53
(dp298
sg62
g250
sg55
(lp299
g48
(g69
g50
NtRp300
(dp301
g53
(dp302
g73
g74
ssg62
g296
sg55
(lp303
S'expires'
p304
asbag48
(g69
g50
NtRp305
(dp306
g53
(dp307
g80
g81
ssg62
g296
sg55
(lp308
S':'
asbag48
(g69
g50
NtRp309
(dp310
g53
(dp311
sg62
g296
sg55
(lp312
g48
(g49
g50
NtRp313
(dp314
g53
(dp315
g61
I3
ssg62
g309
sg55
(lp316
S''
asbasbasbag48
(g64
g50
NtRp317
(dp318
g53
(dp319
sg62
g250
sg55
(lp320
g48
(g69
g50
NtRp321
(dp322
g53
(dp323
g73
g74
ssg62
g317
sg55
(lp324
S'max-age'
p325
asbag48
(g69
g50
NtRp326
(dp327
g53
(dp328
g80
g81
ssg62
g317
sg55
(lp329
S':'
asbag48
(g69
g50
NtRp330
(dp331
g53
(dp332
sg62
g317
sg55
(lp333
g48
(g49
g50
NtRp334
(dp335
g53
(dp336
g61
I3
ssg62
g330
sg55
(lp337
S''
asbasbasbag48
(g64
g50
NtRp338
(dp339
g53
(dp340
sg62
g250
sg55
(lp341
g48
(g69
g50
NtRp342
(dp343
g53
(dp344
g73
g74
ssg62
g338
sg55
(lp345
S'path'
p346
asbag48
(g69
g50
NtRp347
(dp348
g53
(dp349
g80
g81
ssg62
g338
sg55
(lp350
S':'
asbag48
(g69
g50
NtRp351
(dp352
g53
(dp353
sg62
g338
sg55
(lp354
g48
(g49
g50
NtRp355
(dp356
g53
(dp357
g61
I3
ssg62
g351
sg55
(lp358
S''
asbasbasbag48
(g64
g50
NtRp359
(dp360
g53
(dp361
sg62
g250
sg55
(lp362
g48
(g69
g50
NtRp363
(dp364
g53
(dp365
g73
g74
ssg62
g359
sg55
(lp366
S'secure'
p367
asbag48
(g69
g50
NtRp368
(dp369
g53
(dp370
g80
g81
ssg62
g359
sg55
(lp371
S':'
asbag48
(g69
g50
NtRp372
(dp373
g53
(dp374
sg62
g359
sg55
(lp375
g48
(g49
g50
NtRp376
(dp377
g53
(dp378
g61
I3
ssg62
g372
sg55
(lp379
S''
asbasbasbag48
(g64
g50
NtRp380
(dp381
g53
(dp382
sg62
g250
sg55
(lp383
g48
(g69
g50
NtRp384
(dp385
g53
(dp386
g73
g74
ssg62
g380
sg55
(lp387
S'version'
p388
asbag48
(g69
g50
NtRp389
(dp390
g53
(dp391
g80
g81
ssg62
g380
sg55
(lp392
S':'
asbag48
(g69
g50
NtRp393
(dp394
g53
(dp395
sg62
g380
sg55
(lp396
g48
(g49
g50
NtRp397
(dp398
g53
(dp399
g61
I3
ssg62
g393
sg55
(lp400
S''
asbasbasbasbasbasbasbag48
(g64
g50
NtRp401
(dp402
g53
(dp403
sg62
g225
sg55
(lp404
g48
(g69
g50
NtRp405
(dp406
g53
(dp407
g73
g74
ssg62
g401
sg55
(lp408
S'session_id_cual_es_tu_nombre'
p409
asbag48
(g69
g50
NtRp410
(dp411
g53
(dp412
g80
g81
ssg62
g401
sg55
(lp413
S':'
asbag48
(g69
g50
NtRp414
(dp415
g53
(dp416
sg62
g401
sg55
(lp417
g48
(g49
g50
NtRp418
(dp419
g53
(dp420
g61
I4
ssg62
g414
sg55
(lp421
g48
(g57
g50
NtRp422
(dp423
g53
(dp424
g61
I3
ssg62
Nsg55
(lp425
g48
(g64
g50
NtRp426
(dp427
g53
(dp428
sg62
g422
sg55
(lp429
g48
(g69
g50
NtRp430
(dp431
g53
(dp432
g73
g74
ssg62
g426
sg55
(lp433
g262
asbag48
(g69
g50
NtRp434
(dp435
g53
(dp436
g80
g81
ssg62
g426
sg55
(lp437
S':'
asbag48
(g69
g50
NtRp438
(dp439
g53
(dp440
sg62
g426
sg55
(lp441
g48
(g49
g50
NtRp442
(dp443
g53
(dp444
g61
I3
ssg62
g438
sg55
(lp445
S''
asbasbasbag48
(g64
g50
NtRp446
(dp447
g53
(dp448
sg62
g422
sg55
(lp449
g48
(g69
g50
NtRp450
(dp451
g53
(dp452
g73
g74
ssg62
g446
sg55
(lp453
g283
asbag48
(g69
g50
NtRp454
(dp455
g53
(dp456
g80
g81
ssg62
g446
sg55
(lp457
S':'
asbag48
(g69
g50
NtRp458
(dp459
g53
(dp460
sg62
g446
sg55
(lp461
g48
(g49
g50
NtRp462
(dp463
g53
(dp464
g61
I3
ssg62
g458
sg55
(lp465
S''
asbasbasbag48
(g64
g50
NtRp466
(dp467
g53
(dp468
sg62
g422
sg55
(lp469
g48
(g69
g50
NtRp470
(dp471
g53
(dp472
g73
g74
ssg62
g466
sg55
(lp473
g304
asbag48
(g69
g50
NtRp474
(dp475
g53
(dp476
g80
g81
ssg62
g466
sg55
(lp477
S':'
asbag48
(g69
g50
NtRp478
(dp479
g53
(dp480
sg62
g466
sg55
(lp481
g48
(g49
g50
NtRp482
(dp483
g53
(dp484
g61
I3
ssg62
g478
sg55
(lp485
S''
asbasbasbag48
(g64
g50
NtRp486
(dp487
g53
(dp488
sg62
g422
sg55
(lp489
g48
(g69
g50
NtRp490
(dp491
g53
(dp492
g73
g74
ssg62
g486
sg55
(lp493
g325
asbag48
(g69
g50
NtRp494
(dp495
g53
(dp496
g80
g81
ssg62
g486
sg55
(lp497
S':'
asbag48
(g69
g50
NtRp498
(dp499
g53
(dp500
sg62
g486
sg55
(lp501
g48
(g49
g50
NtRp502
(dp503
g53
(dp504
g61
I3
ssg62
g498
sg55
(lp505
S''
asbasbasbag48
(g64
g50
NtRp506
(dp507
g53
(dp508
sg62
g422
sg55
(lp509
g48
(g69
g50
NtRp510
(dp511
g53
(dp512
g73
g74
ssg62
g506
sg55
(lp513
g346
asbag48
(g69
g50
NtRp514
(dp515
g53
(dp516
g80
g81
ssg62
g506
sg55
(lp517
S':'
asbag48
(g69
g50
NtRp518
(dp519
g53
(dp520
sg62
g506
sg55
(lp521
g48
(g49
g50
NtRp522
(dp523
g53
(dp524
g61
I3
ssg62
g518
sg55
(lp525
S''
asbasbasbag48
(g64
g50
NtRp526
(dp527
g53
(dp528
sg62
g422
sg55
(lp529
g48
(g69
g50
NtRp530
(dp531
g53
(dp532
g73
g74
ssg62
g526
sg55
(lp533
g367
asbag48
(g69
g50
NtRp534
(dp535
g53
(dp536
g80
g81
ssg62
g526
sg55
(lp537
S':'
asbag48
(g69
g50
NtRp538
(dp539
g53
(dp540
sg62
g526
sg55
(lp541
g48
(g49
g50
NtRp542
(dp543
g53
(dp544
g61
I3
ssg62
g538
sg55
(lp545
S''
asbasbasbag48
(g64
g50
NtRp546
(dp547
g53
(dp548
sg62
g422
sg55
(lp549
g48
(g69
g50
NtRp550
(dp551
g53
(dp552
g73
g74
ssg62
g546
sg55
(lp553
g388
asbag48
(g69
g50
NtRp554
(dp555
g53
(dp556
g80
g81
ssg62
g546
sg55
(lp557
S':'
asbag48
(g69
g50
NtRp558
(dp559
g53
(dp560
sg62
g546
sg55
(lp561
g48
(g49
g50
NtRp562
(dp563
g53
(dp564
g61
I3
ssg62
g558
sg55
(lp565
S''
asbasbasbasbasbasbasbag48
(g64
g50
NtRp566
(dp567
g53
(dp568
sg62
g225
sg55
(lp569
g48
(g69
g50
NtRp570
(dp571
g53
(dp572
g73
g74
ssg62
g566
sg55
(lp573
S'session_id_desglosar_emails'
p574
asbag48
(g69
g50
NtRp575
(dp576
g53
(dp577
g80
g81
ssg62
g566
sg55
(lp578
S':'
asbag48
(g69
g50
NtRp579
(dp580
g53
(dp581
sg62
g566
sg55
(lp582
g48
(g49
g50
NtRp583
(dp584
g53
(dp585
g61
I4
ssg62
g579
sg55
(lp586
g48
(g57
g50
NtRp587
(dp588
g53
(dp589
g61
I3
ssg62
Nsg55
(lp590
g48
(g64
g50
NtRp591
(dp592
g53
(dp593
sg62
g587
sg55
(lp594
g48
(g69
g50
NtRp595
(dp596
g53
(dp597
g73
g74
ssg62
g591
sg55
(lp598
g262
asbag48
(g69
g50
NtRp599
(dp600
g53
(dp601
g80
g81
ssg62
g591
sg55
(lp602
S':'
asbag48
(g69
g50
NtRp603
(dp604
g53
(dp605
sg62
g591
sg55
(lp606
g48
(g49
g50
NtRp607
(dp608
g53
(dp609
g61
I3
ssg62
g603
sg55
(lp610
S''
asbasbasbag48
(g64
g50
NtRp611
(dp612
g53
(dp613
sg62
g587
sg55
(lp614
g48
(g69
g50
NtRp615
(dp616
g53
(dp617
g73
g74
ssg62
g611
sg55
(lp618
g283
asbag48
(g69
g50
NtRp619
(dp620
g53
(dp621
g80
g81
ssg62
g611
sg55
(lp622
S':'
asbag48
(g69
g50
NtRp623
(dp624
g53
(dp625
sg62
g611
sg55
(lp626
g48
(g49
g50
NtRp627
(dp628
g53
(dp629
g61
I3
ssg62
g623
sg55
(lp630
S''
asbasbasbag48
(g64
g50
NtRp631
(dp632
g53
(dp633
sg62
g587
sg55
(lp634
g48
(g69
g50
NtRp635
(dp636
g53
(dp637
g73
g74
ssg62
g631
sg55
(lp638
g304
asbag48
(g69
g50
NtRp639
(dp640
g53
(dp641
g80
g81
ssg62
g631
sg55
(lp642
S':'
asbag48
(g69
g50
NtRp643
(dp644
g53
(dp645
sg62
g631
sg55
(lp646
g48
(g49
g50
NtRp647
(dp648
g53
(dp649
g61
I3
ssg62
g643
sg55
(lp650
S''
asbasbasbag48
(g64
g50
NtRp651
(dp652
g53
(dp653
sg62
g587
sg55
(lp654
g48
(g69
g50
NtRp655
(dp656
g53
(dp657
g73
g74
ssg62
g651
sg55
(lp658
g325
asbag48
(g69
g50
NtRp659
(dp660
g53
(dp661
g80
g81
ssg62
g651
sg55
(lp662
S':'
asbag48
(g69
g50
NtRp663
(dp664
g53
(dp665
sg62
g651
sg55
(lp666
g48
(g49
g50
NtRp667
(dp668
g53
(dp669
g61
I3
ssg62
g663
sg55
(lp670
S''
asbasbasbag48
(g64
g50
NtRp671
(dp672
g53
(dp673
sg62
g587
sg55
(lp674
g48
(g69
g50
NtRp675
(dp676
g53
(dp677
g73
g74
ssg62
g671
sg55
(lp678
g346
asbag48
(g69
g50
NtRp679
(dp680
g53
(dp681
g80
g81
ssg62
g671
sg55
(lp682
S':'
asbag48
(g69
g50
NtRp683
(dp684
g53
(dp685
sg62
g671
sg55
(lp686
g48
(g49
g50
NtRp687
(dp688
g53
(dp689
g61
I3
ssg62
g683
sg55
(lp690
S''
asbasbasbag48
(g64
g50
NtRp691
(dp692
g53
(dp693
sg62
g587
sg55
(lp694
g48
(g69
g50
NtRp695
(dp696
g53
(dp697
g73
g74
ssg62
g691
sg55
(lp698
g367
asbag48
(g69
g50
NtRp699
(dp700
g53
(dp701
g80
g81
ssg62
g691
sg55
(lp702
S':'
asbag48
(g69
g50
NtRp703
(dp704
g53
(dp705
sg62
g691
sg55
(lp706
g48
(g49
g50
NtRp707
(dp708
g53
(dp709
g61
I3
ssg62
g703
sg55
(lp710
S''
asbasbasbag48
(g64
g50
NtRp711
(dp712
g53
(dp713
sg62
g587
sg55
(lp714
g48
(g69
g50
NtRp715
(dp716
g53
(dp717
g73
g74
ssg62
g711
sg55
(lp718
g388
asbag48
(g69
g50
NtRp719
(dp720
g53
(dp721
g80
g81
ssg62
g711
sg55
(lp722
S':'
asbag48
(g69
g50
NtRp723
(dp724
g53
(dp725
sg62
g711
sg55
(lp726
g48
(g49
g50
NtRp727
(dp728
g53
(dp729
g61
I3
ssg62
g723
sg55
(lp730
S''
asbasbasbasbasbasbasbag48
(g64
g50
NtRp731
(dp732
g53
(dp733
sg62
g225
sg55
(lp734
g48
(g69
g50
NtRp735
(dp736
g53
(dp737
g73
g74
ssg62
g731
sg55
(lp738
S'session_id_hemoal'
p739
asbag48
(g69
g50
NtRp740
(dp741
g53
(dp742
g80
g81
ssg62
g731
sg55
(lp743
S':'
asbag48
(g69
g50
NtRp744
(dp745
g53
(dp746
sg62
g731
sg55
(lp747
g48
(g49
g50
NtRp748
(dp749
g53
(dp750
g61
I4
ssg62
g744
sg55
(lp751
g48
(g57
g50
NtRp752
(dp753
g53
(dp754
g61
I3
ssg62
Nsg55
(lp755
g48
(g64
g50
NtRp756
(dp757
g53
(dp758
sg62
g752
sg55
(lp759
g48
(g69
g50
NtRp760
(dp761
g53
(dp762
g73
g74
ssg62
g756
sg55
(lp763
g262
asbag48
(g69
g50
NtRp764
(dp765
g53
(dp766
g80
g81
ssg62
g756
sg55
(lp767
S':'
asbag48
(g69
g50
NtRp768
(dp769
g53
(dp770
sg62
g756
sg55
(lp771
g48
(g49
g50
NtRp772
(dp773
g53
(dp774
g61
I3
ssg62
g768
sg55
(lp775
S''
asbasbasbag48
(g64
g50
NtRp776
(dp777
g53
(dp778
sg62
g752
sg55
(lp779
g48
(g69
g50
NtRp780
(dp781
g53
(dp782
g73
g74
ssg62
g776
sg55
(lp783
g283
asbag48
(g69
g50
NtRp784
(dp785
g53
(dp786
g80
g81
ssg62
g776
sg55
(lp787
S':'
asbag48
(g69
g50
NtRp788
(dp789
g53
(dp790
sg62
g776
sg55
(lp791
g48
(g49
g50
NtRp792
(dp793
g53
(dp794
g61
I3
ssg62
g788
sg55
(lp795
S''
asbasbasbag48
(g64
g50
NtRp796
(dp797
g53
(dp798
sg62
g752
sg55
(lp799
g48
(g69
g50
NtRp800
(dp801
g53
(dp802
g73
g74
ssg62
g796
sg55
(lp803
g304
asbag48
(g69
g50
NtRp804
(dp805
g53
(dp806
g80
g81
ssg62
g796
sg55
(lp807
S':'
asbag48
(g69
g50
NtRp808
(dp809
g53
(dp810
sg62
g796
sg55
(lp811
g48
(g49
g50
NtRp812
(dp813
g53
(dp814
g61
I3
ssg62
g808
sg55
(lp815
S''
asbasbasbag48
(g64
g50
NtRp816
(dp817
g53
(dp818
sg62
g752
sg55
(lp819
g48
(g69
g50
NtRp820
(dp821
g53
(dp822
g73
g74
ssg62
g816
sg55
(lp823
g325
asbag48
(g69
g50
NtRp824
(dp825
g53
(dp826
g80
g81
ssg62
g816
sg55
(lp827
S':'
asbag48
(g69
g50
NtRp828
(dp829
g53
(dp830
sg62
g816
sg55
(lp831
g48
(g49
g50
NtRp832
(dp833
g53
(dp834
g61
I3
ssg62
g828
sg55
(lp835
S''
asbasbasbag48
(g64
g50
NtRp836
(dp837
g53
(dp838
sg62
g752
sg55
(lp839
g48
(g69
g50
NtRp840
(dp841
g53
(dp842
g73
g74
ssg62
g836
sg55
(lp843
g346
asbag48
(g69
g50
NtRp844
(dp845
g53
(dp846
g80
g81
ssg62
g836
sg55
(lp847
S':'
asbag48
(g69
g50
NtRp848
(dp849
g53
(dp850
sg62
g836
sg55
(lp851
g48
(g49
g50
NtRp852
(dp853
g53
(dp854
g61
I3
ssg62
g848
sg55
(lp855
S''
asbasbasbag48
(g64
g50
NtRp856
(dp857
g53
(dp858
sg62
g752
sg55
(lp859
g48
(g69
g50
NtRp860
(dp861
g53
(dp862
g73
g74
ssg62
g856
sg55
(lp863
g367
asbag48
(g69
g50
NtRp864
(dp865
g53
(dp866
g80
g81
ssg62
g856
sg55
(lp867
S':'
asbag48
(g69
g50
NtRp868
(dp869
g53
(dp870
sg62
g856
sg55
(lp871
g48
(g49
g50
NtRp872
(dp873
g53
(dp874
g61
I3
ssg62
g868
sg55
(lp875
S''
asbasbasbag48
(g64
g50
NtRp876
(dp877
g53
(dp878
sg62
g752
sg55
(lp879
g48
(g69
g50
NtRp880
(dp881
g53
(dp882
g73
g74
ssg62
g876
sg55
(lp883
g388
asbag48
(g69
g50
NtRp884
(dp885
g53
(dp886
g80
g81
ssg62
g876
sg55
(lp887
S':'
asbag48
(g69
g50
NtRp888
(dp889
g53
(dp890
sg62
g876
sg55
(lp891
g48
(g49
g50
NtRp892
(dp893
g53
(dp894
g61
I3
ssg62
g888
sg55
(lp895
S''
asbasbasbasbasbasbasbag48
(g64
g50
NtRp896
(dp897
g53
(dp898
sg62
g225
sg55
(lp899
g48
(g69
g50
NtRp900
(dp901
g53
(dp902
g73
g74
ssg62
g896
sg55
(lp903
S'session_id_listado_1'
p904
asbag48
(g69
g50
NtRp905
(dp906
g53
(dp907
g80
g81
ssg62
g896
sg55
(lp908
S':'
asbag48
(g69
g50
NtRp909
(dp910
g53
(dp911
sg62
g896
sg55
(lp912
g48
(g49
g50
NtRp913
(dp914
g53
(dp915
g61
I4
ssg62
g909
sg55
(lp916
g48
(g57
g50
NtRp917
(dp918
g53
(dp919
g61
I3
ssg62
Nsg55
(lp920
g48
(g64
g50
NtRp921
(dp922
g53
(dp923
sg62
g917
sg55
(lp924
g48
(g69
g50
NtRp925
(dp926
g53
(dp927
g73
g74
ssg62
g921
sg55
(lp928
g262
asbag48
(g69
g50
NtRp929
(dp930
g53
(dp931
g80
g81
ssg62
g921
sg55
(lp932
S':'
asbag48
(g69
g50
NtRp933
(dp934
g53
(dp935
sg62
g921
sg55
(lp936
g48
(g49
g50
NtRp937
(dp938
g53
(dp939
g61
I3
ssg62
g933
sg55
(lp940
S''
asbasbasbag48
(g64
g50
NtRp941
(dp942
g53
(dp943
sg62
g917
sg55
(lp944
g48
(g69
g50
NtRp945
(dp946
g53
(dp947
g73
g74
ssg62
g941
sg55
(lp948
g283
asbag48
(g69
g50
NtRp949
(dp950
g53
(dp951
g80
g81
ssg62
g941
sg55
(lp952
S':'
asbag48
(g69
g50
NtRp953
(dp954
g53
(dp955
sg62
g941
sg55
(lp956
g48
(g49
g50
NtRp957
(dp958
g53
(dp959
g61
I3
ssg62
g953
sg55
(lp960
S''
asbasbasbag48
(g64
g50
NtRp961
(dp962
g53
(dp963
sg62
g917
sg55
(lp964
g48
(g69
g50
NtRp965
(dp966
g53
(dp967
g73
g74
ssg62
g961
sg55
(lp968
g304
asbag48
(g69
g50
NtRp969
(dp970
g53
(dp971
g80
g81
ssg62
g961
sg55
(lp972
S':'
asbag48
(g69
g50
NtRp973
(dp974
g53
(dp975
sg62
g961
sg55
(lp976
g48
(g49
g50
NtRp977
(dp978
g53
(dp979
g61
I3
ssg62
g973
sg55
(lp980
S''
asbasbasbag48
(g64
g50
NtRp981
(dp982
g53
(dp983
sg62
g917
sg55
(lp984
g48
(g69
g50
NtRp985
(dp986
g53
(dp987
g73
g74
ssg62
g981
sg55
(lp988
g325
asbag48
(g69
g50
NtRp989
(dp990
g53
(dp991
g80
g81
ssg62
g981
sg55
(lp992
S':'
asbag48
(g69
g50
NtRp993
(dp994
g53
(dp995
sg62
g981
sg55
(lp996
g48
(g49
g50
NtRp997
(dp998
g53
(dp999
g61
I3
ssg62
g993
sg55
(lp1000
S''
asbasbasbag48
(g64
g50
NtRp1001
(dp1002
g53
(dp1003
sg62
g917
sg55
(lp1004
g48
(g69
g50
NtRp1005
(dp1006
g53
(dp1007
g73
g74
ssg62
g1001
sg55
(lp1008
g346
asbag48
(g69
g50
NtRp1009
(dp1010
g53
(dp1011
g80
g81
ssg62
g1001
sg55
(lp1012
S':'
asbag48
(g69
g50
NtRp1013
(dp1014
g53
(dp1015
sg62
g1001
sg55
(lp1016
g48
(g49
g50
NtRp1017
(dp1018
g53
(dp1019
g61
I3
ssg62
g1013
sg55
(lp1020
S''
asbasbasbag48
(g64
g50
NtRp1021
(dp1022
g53
(dp1023
sg62
g917
sg55
(lp1024
g48
(g69
g50
NtRp1025
(dp1026
g53
(dp1027
g73
g74
ssg62
g1021
sg55
(lp1028
g367
asbag48
(g69
g50
NtRp1029
(dp1030
g53
(dp1031
g80
g81
ssg62
g1021
sg55
(lp1032
S':'
asbag48
(g69
g50
NtRp1033
(dp1034
g53
(dp1035
sg62
g1021
sg55
(lp1036
g48
(g49
g50
NtRp1037
(dp1038
g53
(dp1039
g61
I3
ssg62
g1033
sg55
(lp1040
S''
asbasbasbag48
(g64
g50
NtRp1041
(dp1042
g53
(dp1043
sg62
g917
sg55
(lp1044
g48
(g69
g50
NtRp1045
(dp1046
g53
(dp1047
g73
g74
ssg62
g1041
sg55
(lp1048
g388
asbag48
(g69
g50
NtRp1049
(dp1050
g53
(dp1051
g80
g81
ssg62
g1041
sg55
(lp1052
S':'
asbag48
(g69
g50
NtRp1053
(dp1054
g53
(dp1055
sg62
g1041
sg55
(lp1056
g48
(g49
g50
NtRp1057
(dp1058
g53
(dp1059
g61
I3
ssg62
g1053
sg55
(lp1060
S''
asbasbasbasbasbasbasbag48
(g64
g50
NtRp1061
(dp1062
g53
(dp1063
sg62
g225
sg55
(lp1064
g48
(g69
g50
NtRp1065
(dp1066
g53
(dp1067
g73
g74
ssg62
g1061
sg55
(lp1068
S'session_id_myappjav'
p1069
asbag48
(g69
g50
NtRp1070
(dp1071
g53
(dp1072
g80
g81
ssg62
g1061
sg55
(lp1073
S':'
asbag48
(g69
g50
NtRp1074
(dp1075
g53
(dp1076
sg62
g1061
sg55
(lp1077
g48
(g49
g50
NtRp1078
(dp1079
g53
(dp1080
g61
I4
ssg62
g1074
sg55
(lp1081
g48
(g57
g50
NtRp1082
(dp1083
g53
(dp1084
g61
I3
ssg62
Nsg55
(lp1085
g48
(g64
g50
NtRp1086
(dp1087
g53
(dp1088
sg62
g1082
sg55
(lp1089
g48
(g69
g50
NtRp1090
(dp1091
g53
(dp1092
g73
g74
ssg62
g1086
sg55
(lp1093
g262
asbag48
(g69
g50
NtRp1094
(dp1095
g53
(dp1096
g80
g81
ssg62
g1086
sg55
(lp1097
S':'
asbag48
(g69
g50
NtRp1098
(dp1099
g53
(dp1100
sg62
g1086
sg55
(lp1101
g48
(g49
g50
NtRp1102
(dp1103
g53
(dp1104
g61
I3
ssg62
g1098
sg55
(lp1105
S''
asbasbasbag48
(g64
g50
NtRp1106
(dp1107
g53
(dp1108
sg62
g1082
sg55
(lp1109
g48
(g69
g50
NtRp1110
(dp1111
g53
(dp1112
g73
g74
ssg62
g1106
sg55
(lp1113
g283
asbag48
(g69
g50
NtRp1114
(dp1115
g53
(dp1116
g80
g81
ssg62
g1106
sg55
(lp1117
S':'
asbag48
(g69
g50
NtRp1118
(dp1119
g53
(dp1120
sg62
g1106
sg55
(lp1121
g48
(g49
g50
NtRp1122
(dp1123
g53
(dp1124
g61
I3
ssg62
g1118
sg55
(lp1125
S''
asbasbasbag48
(g64
g50
NtRp1126
(dp1127
g53
(dp1128
sg62
g1082
sg55
(lp1129
g48
(g69
g50
NtRp1130
(dp1131
g53
(dp1132
g73
g74
ssg62
g1126
sg55
(lp1133
g304
asbag48
(g69
g50
NtRp1134
(dp1135
g53
(dp1136
g80
g81
ssg62
g1126
sg55
(lp1137
S':'
asbag48
(g69
g50
NtRp1138
(dp1139
g53
(dp1140
sg62
g1126
sg55
(lp1141
g48
(g49
g50
NtRp1142
(dp1143
g53
(dp1144
g61
I3
ssg62
g1138
sg55
(lp1145
S''
asbasbasbag48
(g64
g50
NtRp1146
(dp1147
g53
(dp1148
sg62
g1082
sg55
(lp1149
g48
(g69
g50
NtRp1150
(dp1151
g53
(dp1152
g73
g74
ssg62
g1146
sg55
(lp1153
g325
asbag48
(g69
g50
NtRp1154
(dp1155
g53
(dp1156
g80
g81
ssg62
g1146
sg55
(lp1157
S':'
asbag48
(g69
g50
NtRp1158
(dp1159
g53
(dp1160
sg62
g1146
sg55
(lp1161
g48
(g49
g50
NtRp1162
(dp1163
g53
(dp1164
g61
I3
ssg62
g1158
sg55
(lp1165
S''
asbasbasbag48
(g64
g50
NtRp1166
(dp1167
g53
(dp1168
sg62
g1082
sg55
(lp1169
g48
(g69
g50
NtRp1170
(dp1171
g53
(dp1172
g73
g74
ssg62
g1166
sg55
(lp1173
g346
asbag48
(g69
g50
NtRp1174
(dp1175
g53
(dp1176
g80
g81
ssg62
g1166
sg55
(lp1177
S':'
asbag48
(g69
g50
NtRp1178
(dp1179
g53
(dp1180
sg62
g1166
sg55
(lp1181
g48
(g49
g50
NtRp1182
(dp1183
g53
(dp1184
g61
I3
ssg62
g1178
sg55
(lp1185
S''
asbasbasbag48
(g64
g50
NtRp1186
(dp1187
g53
(dp1188
sg62
g1082
sg55
(lp1189
g48
(g69
g50
NtRp1190
(dp1191
g53
(dp1192
g73
g74
ssg62
g1186
sg55
(lp1193
g367
asbag48
(g69
g50
NtRp1194
(dp1195
g53
(dp1196
g80
g81
ssg62
g1186
sg55
(lp1197
S':'
asbag48
(g69
g50
NtRp1198
(dp1199
g53
(dp1200
sg62
g1186
sg55
(lp1201
g48
(g49
g50
NtRp1202
(dp1203
g53
(dp1204
g61
I3
ssg62
g1198
sg55
(lp1205
S''
asbasbasbag48
(g64
g50
NtRp1206
(dp1207
g53
(dp1208
sg62
g1082
sg55
(lp1209
g48
(g69
g50
NtRp1210
(dp1211
g53
(dp1212
g73
g74
ssg62
g1206
sg55
(lp1213
g388
asbag48
(g69
g50
NtRp1214
(dp1215
g53
(dp1216
g80
g81
ssg62
g1206
sg55
(lp1217
S':'
asbag48
(g69
g50
NtRp1218
(dp1219
g53
(dp1220
sg62
g1206
sg55
(lp1221
g48
(g49
g50
NtRp1222
(dp1223
g53
(dp1224
g61
I3
ssg62
g1218
sg55
(lp1225
S''
asbasbasbasbasbasbasbag48
(g64
g50
NtRp1226
(dp1227
g53
(dp1228
sg62
g225
sg55
(lp1229
g48
(g69
g50
NtRp1230
(dp1231
g53
(dp1232
g73
g74
ssg62
g1226
sg55
(lp1233
S'session_id_welcome'
p1234
asbag48
(g69
g50
NtRp1235
(dp1236
g53
(dp1237
g80
g81
ssg62
g1226
sg55
(lp1238
S':'
asbag48
(g69
g50
NtRp1239
(dp1240
g53
(dp1241
sg62
g1226
sg55
(lp1242
g48
(g49
g50
NtRp1243
(dp1244
g53
(dp1245
g61
I4
ssg62
g1239
sg55
(lp1246
g48
(g57
g50
NtRp1247
(dp1248
g53
(dp1249
g61
I3
ssg62
Nsg55
(lp1250
g48
(g64
g50
NtRp1251
(dp1252
g53
(dp1253
sg62
g1247
sg55
(lp1254
g48
(g69
g50
NtRp1255
(dp1256
g53
(dp1257
g73
g74
ssg62
g1251
sg55
(lp1258
g262
asbag48
(g69
g50
NtRp1259
(dp1260
g53
(dp1261
g80
g81
ssg62
g1251
sg55
(lp1262
S':'
asbag48
(g69
g50
NtRp1263
(dp1264
g53
(dp1265
sg62
g1251
sg55
(lp1266
g48
(g49
g50
NtRp1267
(dp1268
g53
(dp1269
g61
I3
ssg62
g1263
sg55
(lp1270
S''
asbasbasbag48
(g64
g50
NtRp1271
(dp1272
g53
(dp1273
sg62
g1247
sg55
(lp1274
g48
(g69
g50
NtRp1275
(dp1276
g53
(dp1277
g73
g74
ssg62
g1271
sg55
(lp1278
g283
asbag48
(g69
g50
NtRp1279
(dp1280
g53
(dp1281
g80
g81
ssg62
g1271
sg55
(lp1282
S':'
asbag48
(g69
g50
NtRp1283
(dp1284
g53
(dp1285
sg62
g1271
sg55
(lp1286
g48
(g49
g50
NtRp1287
(dp1288
g53
(dp1289
g61
I3
ssg62
g1283
sg55
(lp1290
S''
asbasbasbag48
(g64
g50
NtRp1291
(dp1292
g53
(dp1293
sg62
g1247
sg55
(lp1294
g48
(g69
g50
NtRp1295
(dp1296
g53
(dp1297
g73
g74
ssg62
g1291
sg55
(lp1298
g304
asbag48
(g69
g50
NtRp1299
(dp1300
g53
(dp1301
g80
g81
ssg62
g1291
sg55
(lp1302
S':'
asbag48
(g69
g50
NtRp1303
(dp1304
g53
(dp1305
sg62
g1291
sg55
(lp1306
g48
(g49
g50
NtRp1307
(dp1308
g53
(dp1309
g61
I3
ssg62
g1303
sg55
(lp1310
S''
asbasbasbag48
(g64
g50
NtRp1311
(dp1312
g53
(dp1313
sg62
g1247
sg55
(lp1314
g48
(g69
g50
NtRp1315
(dp1316
g53
(dp1317
g73
g74
ssg62
g1311
sg55
(lp1318
g325
asbag48
(g69
g50
NtRp1319
(dp1320
g53
(dp1321
g80
g81
ssg62
g1311
sg55
(lp1322
S':'
asbag48
(g69
g50
NtRp1323
(dp1324
g53
(dp1325
sg62
g1311
sg55
(lp1326
g48
(g49
g50
NtRp1327
(dp1328
g53
(dp1329
g61
I3
ssg62
g1323
sg55
(lp1330
S''
asbasbasbag48
(g64
g50
NtRp1331
(dp1332
g53
(dp1333
sg62
g1247
sg55
(lp1334
g48
(g69
g50
NtRp1335
(dp1336
g53
(dp1337
g73
g74
ssg62
g1331
sg55
(lp1338
g346
asbag48
(g69
g50
NtRp1339
(dp1340
g53
(dp1341
g80
g81
ssg62
g1331
sg55
(lp1342
S':'
asbag48
(g69
g50
NtRp1343
(dp1344
g53
(dp1345
sg62
g1331
sg55
(lp1346
g48
(g49
g50
NtRp1347
(dp1348
g53
(dp1349
g61
I3
ssg62
g1343
sg55
(lp1350
S''
asbasbasbag48
(g64
g50
NtRp1351
(dp1352
g53
(dp1353
sg62
g1247
sg55
(lp1354
g48
(g69
g50
NtRp1355
(dp1356
g53
(dp1357
g73
g74
ssg62
g1351
sg55
(lp1358
g367
asbag48
(g69
g50
NtRp1359
(dp1360
g53
(dp1361
g80
g81
ssg62
g1351
sg55
(lp1362
S':'
asbag48
(g69
g50
NtRp1363
(dp1364
g53
(dp1365
sg62
g1351
sg55
(lp1366
g48
(g49
g50
NtRp1367
(dp1368
g53
(dp1369
g61
I3
ssg62
g1363
sg55
(lp1370
S''
asbasbasbag48
(g64
g50
NtRp1371
(dp1372
g53
(dp1373
sg62
g1247
sg55
(lp1374
g48
(g69
g50
NtRp1375
(dp1376
g53
(dp1377
g73
g74
ssg62
g1371
sg55
(lp1378
g388
asbag48
(g69
g50
NtRp1379
(dp1380
g53
(dp1381
g80
g81
ssg62
g1371
sg55
(lp1382
S':'
asbag48
(g69
g50
NtRp1383
(dp1384
g53
(dp1385
sg62
g1371
sg55
(lp1386
g48
(g49
g50
NtRp1387
(dp1388
g53
(dp1389
g61
I3
ssg62
g1383
sg55
(lp1390
S''
asbasbasbasbasbasbasbasbasbasbasbag48
(g64
g50
NtRp1391
(dp1392
g53
(dp1393
sg62
g58
sg55
(lp1394
g48
(g69
g50
NtRp1395
(dp1396
g53
(dp1397
g73
g74
ssg62
g1391
sg55
(lp1398
S'env'
p1399
asbag48
(g69
g50
NtRp1400
(dp1401
g53
(dp1402
g80
g81
ssg62
g1391
sg55
(lp1403
S':'
asbag48
(g69
g50
NtRp1404
(dp1405
g53
(dp1406
sg62
g1391
sg55
(lp1407
g48
(g49
g50
NtRp1408
(dp1409
g53
(dp1410
g61
I5
ssg62
g1404
sg55
(lp1411
g48
(g57
g50
NtRp1412
(dp1413
g53
(dp1414
g61
I4
ssg62
Nsg55
(lp1415
g48
(g64
g50
NtRp1416
(dp1417
g53
(dp1418
sg62
g1412
sg55
(lp1419
g48
(g69
g50
NtRp1420
(dp1421
g53
(dp1422
g73
g74
ssg62
g1416
sg55
(lp1423
S'app_folders'
p1424
asbag48
(g69
g50
NtRp1425
(dp1426
g53
(dp1427
g80
g81
ssg62
g1416
sg55
(lp1428
S':'
asbag48
(g69
g50
NtRp1429
(dp1430
g53
(dp1431
sg62
g1416
sg55
(lp1432
g48
(g49
g50
NtRp1433
(dp1434
g53
(dp1435
g61
I4
ssg62
g1429
sg55
(lp1436
S"set(['C:\\\\Users\\\\Atomico\\\\web2py\\\\applications\\\\Desglosar_Emails\\\\', 'C:\\\\Users\\\\Atomico\\\\web2py\\\\applications\\\\Cual_es_tu_nombre\\\\', 'C:\\\\Users\\\\Atomico\\\\web2py\\\\applications\\\\admin\\\\', 'C:\\\\Users\\\\Atomico\\\\web2py\\\\applications\\\\hemoal\\\\', 'C:\\\\Users\\\\Atomico\\\\web2py\\\\applications\\\\myAppJav\\\\', 'C:\\\\Users\\\\Atomico\\\\web2py\\\\applications\\\\welcome\\\\', 'C:\\\\Users\\\\Atomico\\\\web2py\\\\applications\\\\examples\\\\'])"
p1437
asbasbasbag48
(g64
g50
NtRp1438
(dp1439
g53
(dp1440
sg62
g1412
sg55
(lp1441
g48
(g69
g50
NtRp1442
(dp1443
g53
(dp1444
g73
g74
ssg62
g1438
sg55
(lp1445
S'applications_parent'
p1446
asbag48
(g69
g50
NtRp1447
(dp1448
g53
(dp1449
g80
g81
ssg62
g1438
sg55
(lp1450
S':'
asbag48
(g69
g50
NtRp1451
(dp1452
g53
(dp1453
sg62
g1438
sg55
(lp1454
g48
(g49
g50
NtRp1455
(dp1456
g53
(dp1457
g61
I4
ssg62
g1451
sg55
(lp1458
S'C:\\Users\\Atomico\\web2py'
p1459
asbasbasbag48
(g64
g50
NtRp1460
(dp1461
g53
(dp1462
sg62
g1412
sg55
(lp1463
g48
(g69
g50
NtRp1464
(dp1465
g53
(dp1466
g73
g74
ssg62
g1460
sg55
(lp1467
S'cmd_args'
p1468
asbag48
(g69
g50
NtRp1469
(dp1470
g53
(dp1471
g80
g81
ssg62
g1460
sg55
(lp1472
S':'
asbag48
(g69
g50
NtRp1473
(dp1474
g53
(dp1475
sg62
g1460
sg55
(lp1476
g48
(g49
g50
NtRp1477
(dp1478
g53
(dp1479
g61
I4
ssg62
g1473
sg55
(lp1480
g48
(g57
g50
NtRp1481
(dp1482
g53
(dp1483
g61
I3
ssg62
Nsg55
(lp1484
sbasbasbasbag48
(g64
g50
NtRp1485
(dp1486
g53
(dp1487
sg62
g1412
sg55
(lp1488
g48
(g69
g50
NtRp1489
(dp1490
g53
(dp1491
g73
g74
ssg62
g1485
sg55
(lp1492
S'cmd_options'
p1493
asbag48
(g69
g50
NtRp1494
(dp1495
g53
(dp1496
g80
g81
ssg62
g1485
sg55
(lp1497
S':'
asbag48
(g69
g50
NtRp1498
(dp1499
g53
(dp1500
sg62
g1485
sg55
(lp1501
g48
(g49
g50
NtRp1502
(dp1503
g53
(dp1504
g61
I4
ssg62
g1498
sg55
(lp1505
S"<Values at 0x306b620: {'verbose': False, 'ip': '127.0.0.1', 'shutdown_timeout': 5, 'taskbar': False, 'port': 8000, 'maxthreads': None, 'softcron': False, 'server_name': 'Swing', 'bpython': False, 'nogui': False, 'nocron': False, 'extcron': False, 'debuglevel': 30, 'test': None, 'folder': 'C:\\\\Users\\\\Atomico\\\\web2py', 'config': '', 'import_models': False, 'winservice': '', 'shell': None, 'run': '', 'log_filename': 'httpserver.log', 'args': [''], 'profiler_filename': None, 'ssl_private_key': '', 'password': '<ask>', 'request_queue_size': 5, 'ssl_certificate': '', 'cronjob': False, 'plain': False, 'quiet': False, 'interfaces': None, 'minthreads': None, 'timeout': 10, 'numthreads': None, 'nobanner': False, 'pid_filename': 'httpserver.pid'}>"
p1506
asbasbasbag48
(g64
g50
NtRp1507
(dp1508
g53
(dp1509
sg62
g1412
sg55
(lp1510
g48
(g69
g50
NtRp1511
(dp1512
g53
(dp1513
g73
g74
ssg62
g1507
sg55
(lp1514
S'db_sessions'
p1515
asbag48
(g69
g50
NtRp1516
(dp1517
g53
(dp1518
g80
g81
ssg62
g1507
sg55
(lp1519
S':'
asbag48
(g69
g50
NtRp1520
(dp1521
g53
(dp1522
sg62
g1507
sg55
(lp1523
g48
(g49
g50
NtRp1524
(dp1525
g53
(dp1526
g61
I4
ssg62
g1520
sg55
(lp1527
S'set([])'
p1528
asbasbasbag48
(g64
g50
NtRp1529
(dp1530
g53
(dp1531
sg62
g1412
sg55
(lp1532
g48
(g69
g50
NtRp1533
(dp1534
g53
(dp1535
g73
g74
ssg62
g1529
sg55
(lp1536
S'debugging'
p1537
asbag48
(g69
g50
NtRp1538
(dp1539
g53
(dp1540
g80
g81
ssg62
g1529
sg55
(lp1541
S':'
asbag48
(g69
g50
NtRp1542
(dp1543
g53
(dp1544
sg62
g1529
sg55
(lp1545
g48
(g49
g50
NtRp1546
(dp1547
g53
(dp1548
g61
I4
ssg62
g1542
sg55
(lp1549
g91
asbasbasbag48
(g64
g50
NtRp1550
(dp1551
g53
(dp1552
sg62
g1412
sg55
(lp1553
g48
(g69
g50
NtRp1554
(dp1555
g53
(dp1556
g73
g74
ssg62
g1550
sg55
(lp1557
S'gluon_parent'
p1558
asbag48
(g69
g50
NtRp1559
(dp1560
g53
(dp1561
g80
g81
ssg62
g1550
sg55
(lp1562
S':'
asbag48
(g69
g50
NtRp1563
(dp1564
g53
(dp1565
sg62
g1550
sg55
(lp1566
g48
(g49
g50
NtRp1567
(dp1568
g53
(dp1569
g61
I4
ssg62
g1563
sg55
(lp1570
S'C:\\Users\\Atomico\\web2py'
p1571
asbasbasbag48
(g64
g50
NtRp1572
(dp1573
g53
(dp1574
sg62
g1412
sg55
(lp1575
g48
(g69
g50
NtRp1576
(dp1577
g53
(dp1578
g73
g74
ssg62
g1572
sg55
(lp1579
S'http_accept'
p1580
asbag48
(g69
g50
NtRp1581
(dp1582
g53
(dp1583
g80
g81
ssg62
g1572
sg55
(lp1584
S':'
asbag48
(g69
g50
NtRp1585
(dp1586
g53
(dp1587
sg62
g1572
sg55
(lp1588
g48
(g49
g50
NtRp1589
(dp1590
g53
(dp1591
g61
I4
ssg62
g1585
sg55
(lp1592
S'text/html,application/xhtml+xml,application/xml;q=0.9,*/*;q=0.8'
p1593
asbasbasbag48
(g64
g50
NtRp1594
(dp1595
g53
(dp1596
sg62
g1412
sg55
(lp1597
g48
(g69
g50
NtRp1598
(dp1599
g53
(dp1600
g73
g74
ssg62
g1594
sg55
(lp1601
S'http_accept_charset'
p1602
asbag48
(g69
g50
NtRp1603
(dp1604
g53
(dp1605
g80
g81
ssg62
g1594
sg55
(lp1606
S':'
asbag48
(g69
g50
NtRp1607
(dp1608
g53
(dp1609
sg62
g1594
sg55
(lp1610
g48
(g49
g50
NtRp1611
(dp1612
g53
(dp1613
g61
I4
ssg62
g1607
sg55
(lp1614
S'ISO-8859-1,utf-8;q=0.7,*;q=0.7'
p1615
asbasbasbag48
(g64
g50
NtRp1616
(dp1617
g53
(dp1618
sg62
g1412
sg55
(lp1619
g48
(g69
g50
NtRp1620
(dp1621
g53
(dp1622
g73
g74
ssg62
g1616
sg55
(lp1623
S'http_accept_encoding'
p1624
asbag48
(g69
g50
NtRp1625
(dp1626
g53
(dp1627
g80
g81
ssg62
g1616
sg55
(lp1628
S':'
asbag48
(g69
g50
NtRp1629
(dp1630
g53
(dp1631
sg62
g1616
sg55
(lp1632
g48
(g49
g50
NtRp1633
(dp1634
g53
(dp1635
g61
I4
ssg62
g1629
sg55
(lp1636
S'gzip, deflate'
p1637
asbasbasbag48
(g64
g50
NtRp1638
(dp1639
g53
(dp1640
sg62
g1412
sg55
(lp1641
g48
(g69
g50
NtRp1642
(dp1643
g53
(dp1644
g73
g74
ssg62
g1638
sg55
(lp1645
S'http_accept_language'
p1646
asbag48
(g69
g50
NtRp1647
(dp1648
g53
(dp1649
g80
g81
ssg62
g1638
sg55
(lp1650
S':'
asbag48
(g69
g50
NtRp1651
(dp1652
g53
(dp1653
sg62
g1638
sg55
(lp1654
g48
(g49
g50
NtRp1655
(dp1656
g53
(dp1657
g61
I4
ssg62
g1651
sg55
(lp1658
S'es-es,es;q=0.8,en-us;q=0.5,en;q=0.3'
p1659
asbasbasbag48
(g64
g50
NtRp1660
(dp1661
g53
(dp1662
sg62
g1412
sg55
(lp1663
g48
(g69
g50
NtRp1664
(dp1665
g53
(dp1666
g73
g74
ssg62
g1660
sg55
(lp1667
S'http_connection'
p1668
asbag48
(g69
g50
NtRp1669
(dp1670
g53
(dp1671
g80
g81
ssg62
g1660
sg55
(lp1672
S':'
asbag48
(g69
g50
NtRp1673
(dp1674
g53
(dp1675
sg62
g1660
sg55
(lp1676
g48
(g49
g50
NtRp1677
(dp1678
g53
(dp1679
g61
I4
ssg62
g1673
sg55
(lp1680
S'keep-alive'
p1681
asbasbasbag48
(g64
g50
NtRp1682
(dp1683
g53
(dp1684
sg62
g1412
sg55
(lp1685
g48
(g69
g50
NtRp1686
(dp1687
g53
(dp1688
g73
g74
ssg62
g1682
sg55
(lp1689
S'http_cookie'
p1690
asbag48
(g69
g50
NtRp1691
(dp1692
g53
(dp1693
g80
g81
ssg62
g1682
sg55
(lp1694
S':'
asbag48
(g69
g50
NtRp1695
(dp1696
g53
(dp1697
sg62
g1682
sg55
(lp1698
g48
(g49
g50
NtRp1699
(dp1700
g53
(dp1701
g61
I4
ssg62
g1695
sg55
(lp1702
S'session_id_welcome=127.0.0.1-082a2830-9bb6-4bfb-b2e2-4857b06c191e; session_id_admin=127.0.0.1-ce80bfda-0413-4fd2-9d21-852a6661b1f5; session_id_listado_1=127.0.0.1-477ec098-5436-4f6e-bfee-1a0bd88f6f9e; session_id_desglosar_emails=127.0.0.1-0a11b3b2-660c-433c-b71f-fc129286f26c; session_id_hemoal=127.0.0.1-442afb36-a73d-4692-979c-372017ada9e5; session_id_myappjav=127.0.0.1-b6da3776-a7b2-40a7-ab82-4eca2d3263a1; session_id_cual_es_tu_nombre=127.0.0.1-5e59e375-704d-4241-8b9c-5fd9f8c15773'
p1703
asbasbasbag48
(g64
g50
NtRp1704
(dp1705
g53
(dp1706
sg62
g1412
sg55
(lp1707
g48
(g69
g50
NtRp1708
(dp1709
g53
(dp1710
g73
g74
ssg62
g1704
sg55
(lp1711
S'http_host'
p1712
asbag48
(g69
g50
NtRp1713
(dp1714
g53
(dp1715
g80
g81
ssg62
g1704
sg55
(lp1716
S':'
asbag48
(g69
g50
NtRp1717
(dp1718
g53
(dp1719
sg62
g1704
sg55
(lp1720
g48
(g49
g50
NtRp1721
(dp1722
g53
(dp1723
g61
I4
ssg62
g1717
sg55
(lp1724
S'127.0.0.1:8000'
p1725
asbasbasbag48
(g64
g50
NtRp1726
(dp1727
g53
(dp1728
sg62
g1412
sg55
(lp1729
g48
(g69
g50
NtRp1730
(dp1731
g53
(dp1732
g73
g74
ssg62
g1726
sg55
(lp1733
S'http_referer'
p1734
asbag48
(g69
g50
NtRp1735
(dp1736
g53
(dp1737
g80
g81
ssg62
g1726
sg55
(lp1738
S':'
asbag48
(g69
g50
NtRp1739
(dp1740
g53
(dp1741
sg62
g1726
sg55
(lp1742
g48
(g49
g50
NtRp1743
(dp1744
g53
(dp1745
g61
I4
ssg62
g1739
sg55
(lp1746
S'http://127.0.0.1:8000/admin/default/design/Desglosar_Emails'
p1747
asbasbasbag48
(g64
g50
NtRp1748
(dp1749
g53
(dp1750
sg62
g1412
sg55
(lp1751
g48
(g69
g50
NtRp1752
(dp1753
g53
(dp1754
g73
g74
ssg62
g1748
sg55
(lp1755
S'http_user_agent'
p1756
asbag48
(g69
g50
NtRp1757
(dp1758
g53
(dp1759
g80
g81
ssg62
g1748
sg55
(lp1760
S':'
asbag48
(g69
g50
NtRp1761
(dp1762
g53
(dp1763
sg62
g1748
sg55
(lp1764
g48
(g49
g50
NtRp1765
(dp1766
g53
(dp1767
g61
I4
ssg62
g1761
sg55
(lp1768
S'Mozilla/5.0 (Windows NT 6.1; WOW64; rv:6.0.2) Gecko/20100101 Firefox/6.0.2'
p1769
asbasbasbag48
(g64
g50
NtRp1770
(dp1771
g53
(dp1772
sg62
g1412
sg55
(lp1773
g48
(g69
g50
NtRp1774
(dp1775
g53
(dp1776
g73
g74
ssg62
g1770
sg55
(lp1777
S'is_jython'
p1778
asbag48
(g69
g50
NtRp1779
(dp1780
g53
(dp1781
g80
g81
ssg62
g1770
sg55
(lp1782
S':'
asbag48
(g69
g50
NtRp1783
(dp1784
g53
(dp1785
sg62
g1770
sg55
(lp1786
g48
(g49
g50
NtRp1787
(dp1788
g53
(dp1789
g61
I4
ssg62
g1783
sg55
(lp1790
g91
asbasbasbag48
(g64
g50
NtRp1791
(dp1792
g53
(dp1793
sg62
g1412
sg55
(lp1794
g48
(g69
g50
NtRp1795
(dp1796
g53
(dp1797
g73
g74
ssg62
g1791
sg55
(lp1798
S'path_info'
p1799
asbag48
(g69
g50
NtRp1800
(dp1801
g53
(dp1802
g80
g81
ssg62
g1791
sg55
(lp1803
S':'
asbag48
(g69
g50
NtRp1804
(dp1805
g53
(dp1806
sg62
g1791
sg55
(lp1807
g48
(g49
g50
NtRp1808
(dp1809
g53
(dp1810
g61
I4
ssg62
g1804
sg55
(lp1811
S'/Desglosar_Emails/default/entrada_mod3'
p1812
asbasbasbag48
(g64
g50
NtRp1813
(dp1814
g53
(dp1815
sg62
g1412
sg55
(lp1816
g48
(g69
g50
NtRp1817
(dp1818
g53
(dp1819
g73
g74
ssg62
g1813
sg55
(lp1820
S'query_string'
p1821
asbag48
(g69
g50
NtRp1822
(dp1823
g53
(dp1824
g80
g81
ssg62
g1813
sg55
(lp1825
S':'
asbag48
(g69
g50
NtRp1826
(dp1827
g53
(dp1828
sg62
g1813
sg55
(lp1829
g48
(g49
g50
NtRp1830
(dp1831
g53
(dp1832
g61
I4
ssg62
g1826
sg55
(lp1833
S''
asbasbasbag48
(g64
g50
NtRp1834
(dp1835
g53
(dp1836
sg62
g1412
sg55
(lp1837
g48
(g69
g50
NtRp1838
(dp1839
g53
(dp1840
g73
g74
ssg62
g1834
sg55
(lp1841
S'remote_addr'
p1842
asbag48
(g69
g50
NtRp1843
(dp1844
g53
(dp1845
g80
g81
ssg62
g1834
sg55
(lp1846
S':'
asbag48
(g69
g50
NtRp1847
(dp1848
g53
(dp1849
sg62
g1834
sg55
(lp1850
g48
(g49
g50
NtRp1851
(dp1852
g53
(dp1853
g61
I4
ssg62
g1847
sg55
(lp1854
g181
asbasbasbag48
(g64
g50
NtRp1855
(dp1856
g53
(dp1857
sg62
g1412
sg55
(lp1858
g48
(g69
g50
NtRp1859
(dp1860
g53
(dp1861
g73
g74
ssg62
g1855
sg55
(lp1862
S'remote_port'
p1863
asbag48
(g69
g50
NtRp1864
(dp1865
g53
(dp1866
g80
g81
ssg62
g1855
sg55
(lp1867
S':'
asbag48
(g69
g50
NtRp1868
(dp1869
g53
(dp1870
sg62
g1855
sg55
(lp1871
g48
(g49
g50
NtRp1872
(dp1873
g53
(dp1874
g61
I4
ssg62
g1868
sg55
(lp1875
S'59491'
p1876
asbasbasbag48
(g64
g50
NtRp1877
(dp1878
g53
(dp1879
sg62
g1412
sg55
(lp1880
g48
(g69
g50
NtRp1881
(dp1882
g53
(dp1883
g73
g74
ssg62
g1877
sg55
(lp1884
S'request_method'
p1885
asbag48
(g69
g50
NtRp1886
(dp1887
g53
(dp1888
g80
g81
ssg62
g1877
sg55
(lp1889
S':'
asbag48
(g69
g50
NtRp1890
(dp1891
g53
(dp1892
sg62
g1877
sg55
(lp1893
g48
(g49
g50
NtRp1894
(dp1895
g53
(dp1896
g61
I4
ssg62
g1890
sg55
(lp1897
S'GET'
p1898
asbasbasbag48
(g64
g50
NtRp1899
(dp1900
g53
(dp1901
sg62
g1412
sg55
(lp1902
g48
(g69
g50
NtRp1903
(dp1904
g53
(dp1905
g73
g74
ssg62
g1899
sg55
(lp1906
S'script_name'
p1907
asbag48
(g69
g50
NtRp1908
(dp1909
g53
(dp1910
g80
g81
ssg62
g1899
sg55
(lp1911
S':'
asbag48
(g69
g50
NtRp1912
(dp1913
g53
(dp1914
sg62
g1899
sg55
(lp1915
g48
(g49
g50
NtRp1916
(dp1917
g53
(dp1918
g61
I4
ssg62
g1912
sg55
(lp1919
S''
asbasbasbag48
(g64
g50
NtRp1920
(dp1921
g53
(dp1922
sg62
g1412
sg55
(lp1923
g48
(g69
g50
NtRp1924
(dp1925
g53
(dp1926
g73
g74
ssg62
g1920
sg55
(lp1927
S'server_name'
p1928
asbag48
(g69
g50
NtRp1929
(dp1930
g53
(dp1931
g80
g81
ssg62
g1920
sg55
(lp1932
S':'
asbag48
(g69
g50
NtRp1933
(dp1934
g53
(dp1935
sg62
g1920
sg55
(lp1936
g48
(g49
g50
NtRp1937
(dp1938
g53
(dp1939
g61
I4
ssg62
g1933
sg55
(lp1940
S'Swing'
p1941
asbasbasbag48
(g64
g50
NtRp1942
(dp1943
g53
(dp1944
sg62
g1412
sg55
(lp1945
g48
(g69
g50
NtRp1946
(dp1947
g53
(dp1948
g73
g74
ssg62
g1942
sg55
(lp1949
S'server_port'
p1950
asbag48
(g69
g50
NtRp1951
(dp1952
g53
(dp1953
g80
g81
ssg62
g1942
sg55
(lp1954
S':'
asbag48
(g69
g50
NtRp1955
(dp1956
g53
(dp1957
sg62
g1942
sg55
(lp1958
g48
(g49
g50
NtRp1959
(dp1960
g53
(dp1961
g61
I4
ssg62
g1955
sg55
(lp1962
S'8000'
p1963
asbasbasbag48
(g64
g50
NtRp1964
(dp1965
g53
(dp1966
sg62
g1412
sg55
(lp1967
g48
(g69
g50
NtRp1968
(dp1969
g53
(dp1970
g73
g74
ssg62
g1964
sg55
(lp1971
S'server_protocol'
p1972
asbag48
(g69
g50
NtRp1973
(dp1974
g53
(dp1975
g80
g81
ssg62
g1964
sg55
(lp1976
S':'
asbag48
(g69
g50
NtRp1977
(dp1978
g53
(dp1979
sg62
g1964
sg55
(lp1980
g48
(g49
g50
NtRp1981
(dp1982
g53
(dp1983
g61
I4
ssg62
g1977
sg55
(lp1984
S'HTTP/1.1'
p1985
asbasbasbag48
(g64
g50
NtRp1986
(dp1987
g53
(dp1988
sg62
g1412
sg55
(lp1989
g48
(g69
g50
NtRp1990
(dp1991
g53
(dp1992
g73
g74
ssg62
g1986
sg55
(lp1993
S'server_software'
p1994
asbag48
(g69
g50
NtRp1995
(dp1996
g53
(dp1997
g80
g81
ssg62
g1986
sg55
(lp1998
S':'
asbag48
(g69
g50
NtRp1999
(dp2000
g53
(dp2001
sg62
g1986
sg55
(lp2002
g48
(g49
g50
NtRp2003
(dp2004
g53
(dp2005
g61
I4
ssg62
g1999
sg55
(lp2006
S'Rocket 1.2.2'
p2007
asbasbasbag48
(g64
g50
NtRp2008
(dp2009
g53
(dp2010
sg62
g1412
sg55
(lp2011
g48
(g69
g50
NtRp2012
(dp2013
g53
(dp2014
g73
g74
ssg62
g2008
sg55
(lp2015
S'web2py_crontype'
p2016
asbag48
(g69
g50
NtRp2017
(dp2018
g53
(dp2019
g80
g81
ssg62
g2008
sg55
(lp2020
S':'
asbag48
(g69
g50
NtRp2021
(dp2022
g53
(dp2023
sg62
g2008
sg55
(lp2024
g48
(g49
g50
NtRp2025
(dp2026
g53
(dp2027
g61
I4
ssg62
g2021
sg55
(lp2028
S'hard'
p2029
asbasbasbag48
(g64
g50
NtRp2030
(dp2031
g53
(dp2032
sg62
g1412
sg55
(lp2033
g48
(g69
g50
NtRp2034
(dp2035
g53
(dp2036
g73
g74
ssg62
g2030
sg55
(lp2037
S'web2py_path'
p2038
asbag48
(g69
g50
NtRp2039
(dp2040
g53
(dp2041
g80
g81
ssg62
g2030
sg55
(lp2042
S':'
asbag48
(g69
g50
NtRp2043
(dp2044
g53
(dp2045
sg62
g2030
sg55
(lp2046
g48
(g49
g50
NtRp2047
(dp2048
g53
(dp2049
g61
I4
ssg62
g2043
sg55
(lp2050
g1459
asbasbasbag48
(g64
g50
NtRp2051
(dp2052
g53
(dp2053
sg62
g1412
sg55
(lp2054
g48
(g69
g50
NtRp2055
(dp2056
g53
(dp2057
g73
g74
ssg62
g2051
sg55
(lp2058
S'web2py_version'
p2059
asbag48
(g69
g50
NtRp2060
(dp2061
g53
(dp2062
g80
g81
ssg62
g2051
sg55
(lp2063
S':'
asbag48
(g69
g50
NtRp2064
(dp2065
g53
(dp2066
sg62
g2051
sg55
(lp2067
g48
(g49
g50
NtRp2068
(dp2069
g53
(dp2070
g61
I4
ssg62
g2064
sg55
(lp2071
S'Version 1.98.2 (2011-08-04 00:47:09)\n'
p2072
asbasbasbag48
(g64
g50
NtRp2073
(dp2074
g53
(dp2075
sg62
g1412
sg55
(lp2076
g48
(g69
g50
NtRp2077
(dp2078
g53
(dp2079
g73
g74
ssg62
g2073
sg55
(lp2080
S'wsgi_errors'
p2081
asbag48
(g69
g50
NtRp2082
(dp2083
g53
(dp2084
g80
g81
ssg62
g2073
sg55
(lp2085
S':'
asbag48
(g69
g50
NtRp2086
(dp2087
g53
(dp2088
sg62
g2073
sg55
(lp2089
g48
(g49
g50
NtRp2090
(dp2091
g53
(dp2092
g61
I4
ssg62
g2086
sg55
(lp2093
S"<open file '<stderr>', mode 'w' at 0x003100B0>"
p2094
asbasbasbag48
(g64
g50
NtRp2095
(dp2096
g53
(dp2097
sg62
g1412
sg55
(lp2098
g48
(g69
g50
NtRp2099
(dp2100
g53
(dp2101
g73
g74
ssg62
g2095
sg55
(lp2102
S'wsgi_file_wrapper'
p2103
asbag48
(g69
g50
NtRp2104
(dp2105
g53
(dp2106
g80
g81
ssg62
g2095
sg55
(lp2107
S':'
asbag48
(g69
g50
NtRp2108
(dp2109
g53
(dp2110
sg62
g2095
sg55
(lp2111
g48
(g49
g50
NtRp2112
(dp2113
g53
(dp2114
g61
I4
ssg62
g2108
sg55
(lp2115
S'<class gluon.rocket.FileWrapper at 0x02FFC1B0>'
p2116
asbasbasbag48
(g64
g50
NtRp2117
(dp2118
g53
(dp2119
sg62
g1412
sg55
(lp2120
g48
(g69
g50
NtRp2121
(dp2122
g53
(dp2123
g73
g74
ssg62
g2117
sg55
(lp2124
S'wsgi_input'
p2125
asbag48
(g69
g50
NtRp2126
(dp2127
g53
(dp2128
g80
g81
ssg62
g2117
sg55
(lp2129
S':'
asbag48
(g69
g50
NtRp2130
(dp2131
g53
(dp2132
sg62
g2117
sg55
(lp2133
g48
(g49
g50
NtRp2134
(dp2135
g53
(dp2136
g61
I4
ssg62
g2130
sg55
(lp2137
S'<socket._fileobject object at 0x08054230>'
p2138
asbasbasbag48
(g64
g50
NtRp2139
(dp2140
g53
(dp2141
sg62
g1412
sg55
(lp2142
g48
(g69
g50
NtRp2143
(dp2144
g53
(dp2145
g73
g74
ssg62
g2139
sg55
(lp2146
S'wsgi_multiprocess'
p2147
asbag48
(g69
g50
NtRp2148
(dp2149
g53
(dp2150
g80
g81
ssg62
g2139
sg55
(lp2151
S':'
asbag48
(g69
g50
NtRp2152
(dp2153
g53
(dp2154
sg62
g2139
sg55
(lp2155
g48
(g49
g50
NtRp2156
(dp2157
g53
(dp2158
g61
I4
ssg62
g2152
sg55
(lp2159
g91
asbasbasbag48
(g64
g50
NtRp2160
(dp2161
g53
(dp2162
sg62
g1412
sg55
(lp2163
g48
(g69
g50
NtRp2164
(dp2165
g53
(dp2166
g73
g74
ssg62
g2160
sg55
(lp2167
S'wsgi_multithread'
p2168
asbag48
(g69
g50
NtRp2169
(dp2170
g53
(dp2171
g80
g81
ssg62
g2160
sg55
(lp2172
S':'
asbag48
(g69
g50
NtRp2173
(dp2174
g53
(dp2175
sg62
g2160
sg55
(lp2176
g48
(g49
g50
NtRp2177
(dp2178
g53
(dp2179
g61
I4
ssg62
g2173
sg55
(lp2180
S'True'
p2181
asbasbasbag48
(g64
g50
NtRp2182
(dp2183
g53
(dp2184
sg62
g1412
sg55
(lp2185
g48
(g69
g50
NtRp2186
(dp2187
g53
(dp2188
g73
g74
ssg62
g2182
sg55
(lp2189
S'wsgi_run_once'
p2190
asbag48
(g69
g50
NtRp2191
(dp2192
g53
(dp2193
g80
g81
ssg62
g2182
sg55
(lp2194
S':'
asbag48
(g69
g50
NtRp2195
(dp2196
g53
(dp2197
sg62
g2182
sg55
(lp2198
g48
(g49
g50
NtRp2199
(dp2200
g53
(dp2201
g61
I4
ssg62
g2195
sg55
(lp2202
g91
asbasbasbag48
(g64
g50
NtRp2203
(dp2204
g53
(dp2205
sg62
g1412
sg55
(lp2206
g48
(g69
g50
NtRp2207
(dp2208
g53
(dp2209
g73
g74
ssg62
g2203
sg55
(lp2210
S'wsgi_url_scheme'
p2211
asbag48
(g69
g50
NtRp2212
(dp2213
g53
(dp2214
g80
g81
ssg62
g2203
sg55
(lp2215
S':'
asbag48
(g69
g50
NtRp2216
(dp2217
g53
(dp2218
sg62
g2203
sg55
(lp2219
g48
(g49
g50
NtRp2220
(dp2221
g53
(dp2222
g61
I4
ssg62
g2216
sg55
(lp2223
S'http'
p2224
asbasbasbag48
(g64
g50
NtRp2225
(dp2226
g53
(dp2227
sg62
g1412
sg55
(lp2228
g48
(g69
g50
NtRp2229
(dp2230
g53
(dp2231
g73
g74
ssg62
g2225
sg55
(lp2232
S'wsgi_version'
p2233
asbag48
(g69
g50
NtRp2234
(dp2235
g53
(dp2236
g80
g81
ssg62
g2225
sg55
(lp2237
S':'
asbag48
(g69
g50
NtRp2238
(dp2239
g53
(dp2240
sg62
g2225
sg55
(lp2241
g48
(g49
g50
NtRp2242
(dp2243
g53
(dp2244
g61
I4
ssg62
g2238
sg55
(lp2245
g48
(g57
g50
NtRp2246
(dp2247
g53
(dp2248
g61
I3
ssg62
Nsg55
(lp2249
g48
(g64
g50
NtRp2250
(dp2251
g53
(dp2252
sg62
g2246
sg55
(lp2253
g48
(g69
g50
NtRp2254
(dp2255
g53
(dp2256
sg62
g2250
sg55
(lp2257
g48
(g49
g50
NtRp2258
(dp2259
g53
(dp2260
g61
I3
ssg62
g2254
sg55
(lp2261
S'1'
asbasbasbag48
(g64
g50
NtRp2262
(dp2263
g53
(dp2264
sg62
g2246
sg55
(lp2265
g48
(g69
g50
NtRp2266
(dp2267
g53
(dp2268
sg62
g2262
sg55
(lp2269
g48
(g49
g50
NtRp2270
(dp2271
g53
(dp2272
g61
I3
ssg62
g2266
sg55
(lp2273
S'0'
asbasbasbasbasbasbasbasbasbasbasbag48
(g64
g50
NtRp2274
(dp2275
g53
(dp2276
sg62
g58
sg55
(lp2277
g48
(g69
g50
NtRp2278
(dp2279
g53
(dp2280
g73
g74
ssg62
g2274
sg55
(lp2281
S'extension'
p2282
asbag48
(g69
g50
NtRp2283
(dp2284
g53
(dp2285
g80
g81
ssg62
g2274
sg55
(lp2286
S':'
asbag48
(g69
g50
NtRp2287
(dp2288
g53
(dp2289
sg62
g2274
sg55
(lp2290
g48
(g49
g50
NtRp2291
(dp2292
g53
(dp2293
g61
I5
ssg62
g2287
sg55
(lp2294
S'html'
p2295
asbasbasbag48
(g64
g50
NtRp2296
(dp2297
g53
(dp2298
sg62
g58
sg55
(lp2299
g48
(g69
g50
NtRp2300
(dp2301
g53
(dp2302
g73
g74
ssg62
g2296
sg55
(lp2303
S'folder'
p2304
asbag48
(g69
g50
NtRp2305
(dp2306
g53
(dp2307
g80
g81
ssg62
g2296
sg55
(lp2308
S':'
asbag48
(g69
g50
NtRp2309
(dp2310
g53
(dp2311
sg62
g2296
sg55
(lp2312
g48
(g49
g50
NtRp2313
(dp2314
g53
(dp2315
g61
I5
ssg62
g2309
sg55
(lp2316
S'C:\\Users\\Atomico\\web2py\\applications\\Desglosar_Emails\\'
p2317
asbasbasbag48
(g64
g50
NtRp2318
(dp2319
g53
(dp2320
sg62
g58
sg55
(lp2321
g48
(g69
g50
NtRp2322
(dp2323
g53
(dp2324
g73
g74
ssg62
g2318
sg55
(lp2325
S'function'
p2326
asbag48
(g69
g50
NtRp2327
(dp2328
g53
(dp2329
g80
g81
ssg62
g2318
sg55
(lp2330
S':'
asbag48
(g69
g50
NtRp2331
(dp2332
g53
(dp2333
sg62
g2318
sg55
(lp2334
g48
(g49
g50
NtRp2335
(dp2336
g53
(dp2337
g61
I5
ssg62
g2331
sg55
(lp2338
S'entrada_mod3'
p2339
asbasbasbag48
(g64
g50
NtRp2340
(dp2341
g53
(dp2342
sg62
g58
sg55
(lp2343
g48
(g69
g50
NtRp2344
(dp2345
g53
(dp2346
g73
g74
ssg62
g2340
sg55
(lp2347
S'get_vars'
p2348
asbag48
(g69
g50
NtRp2349
(dp2350
g53
(dp2351
g80
g81
ssg62
g2340
sg55
(lp2352
S':'
asbag48
(g69
g50
NtRp2353
(dp2354
g53
(dp2355
sg62
g2340
sg55
(lp2356
g48
(g49
g50
NtRp2357
(dp2358
g53
(dp2359
g61
I5
ssg62
g2353
sg55
(lp2360
g48
(g57
g50
NtRp2361
(dp2362
g53
(dp2363
g61
I4
ssg62
Nsg55
(lp2364
sbasbasbasbag48
(g64
g50
NtRp2365
(dp2366
g53
(dp2367
sg62
g58
sg55
(lp2368
g48
(g69
g50
NtRp2369
(dp2370
g53
(dp2371
g73
g74
ssg62
g2365
sg55
(lp2372
S'is_https'
p2373
asbag48
(g69
g50
NtRp2374
(dp2375
g53
(dp2376
g80
g81
ssg62
g2365
sg55
(lp2377
S':'
asbag48
(g69
g50
NtRp2378
(dp2379
g53
(dp2380
sg62
g2365
sg55
(lp2381
g48
(g49
g50
NtRp2382
(dp2383
g53
(dp2384
g61
I5
ssg62
g2378
sg55
(lp2385
g91
asbasbasbag48
(g64
g50
NtRp2386
(dp2387
g53
(dp2388
sg62
g58
sg55
(lp2389
g48
(g69
g50
NtRp2390
(dp2391
g53
(dp2392
g73
g74
ssg62
g2386
sg55
(lp2393
S'is_local'
p2394
asbag48
(g69
g50
NtRp2395
(dp2396
g53
(dp2397
g80
g81
ssg62
g2386
sg55
(lp2398
S':'
asbag48
(g69
g50
NtRp2399
(dp2400
g53
(dp2401
sg62
g2386
sg55
(lp2402
g48
(g49
g50
NtRp2403
(dp2404
g53
(dp2405
g61
I5
ssg62
g2399
sg55
(lp2406
g2181
asbasbasbag48
(g64
g50
NtRp2407
(dp2408
g53
(dp2409
sg62
g58
sg55
(lp2410
g48
(g69
g50
NtRp2411
(dp2412
g53
(dp2413
g73
g74
ssg62
g2407
sg55
(lp2414
S'is_restful'
p2415
asbag48
(g69
g50
NtRp2416
(dp2417
g53
(dp2418
g80
g81
ssg62
g2407
sg55
(lp2419
S':'
asbag48
(g69
g50
NtRp2420
(dp2421
g53
(dp2422
sg62
g2407
sg55
(lp2423
g48
(g49
g50
NtRp2424
(dp2425
g53
(dp2426
g61
I5
ssg62
g2420
sg55
(lp2427
g91
asbasbasbag48
(g64
g50
NtRp2428
(dp2429
g53
(dp2430
sg62
g58
sg55
(lp2431
g48
(g69
g50
NtRp2432
(dp2433
g53
(dp2434
g73
g74
ssg62
g2428
sg55
(lp2435
S'now'
p2436
asbag48
(g69
g50
NtRp2437
(dp2438
g53
(dp2439
g80
g81
ssg62
g2428
sg55
(lp2440
S':'
asbag48
(g69
g50
NtRp2441
(dp2442
g53
(dp2443
sg62
g2428
sg55
(lp2444
g48
(g49
g50
NtRp2445
(dp2446
g53
(dp2447
g61
I5
ssg62
g2441
sg55
(lp2448
S'datetime.datetime(2011, 9, 19, 14, 56, 47, 150000)'
p2449
asbasbasbag48
(g64
g50
NtRp2450
(dp2451
g53
(dp2452
sg62
g58
sg55
(lp2453
g48
(g69
g50
NtRp2454
(dp2455
g53
(dp2456
g73
g74
ssg62
g2450
sg55
(lp2457
S'post_vars'
p2458
asbag48
(g69
g50
NtRp2459
(dp2460
g53
(dp2461
g80
g81
ssg62
g2450
sg55
(lp2462
S':'
asbag48
(g69
g50
NtRp2463
(dp2464
g53
(dp2465
sg62
g2450
sg55
(lp2466
g48
(g49
g50
NtRp2467
(dp2468
g53
(dp2469
g61
I5
ssg62
g2463
sg55
(lp2470
g48
(g57
g50
NtRp2471
(dp2472
g53
(dp2473
g61
I4
ssg62
Nsg55
(lp2474
sbasbasbasbag48
(g64
g50
NtRp2475
(dp2476
g53
(dp2477
sg62
g58
sg55
(lp2478
g48
(g69
g50
NtRp2479
(dp2480
g53
(dp2481
g73
g74
ssg62
g2475
sg55
(lp2482
S'url'
p2483
asbag48
(g69
g50
NtRp2484
(dp2485
g53
(dp2486
g80
g81
ssg62
g2475
sg55
(lp2487
S':'
asbag48
(g69
g50
NtRp2488
(dp2489
g53
(dp2490
sg62
g2475
sg55
(lp2491
g48
(g49
g50
NtRp2492
(dp2493
g53
(dp2494
g61
I5
ssg62
g2488
sg55
(lp2495
S'/Desglosar_Emails/default/entrada_mod3'
p2496
asbasbasbag48
(g64
g50
NtRp2497
(dp2498
g53
(dp2499
sg62
g58
sg55
(lp2500
g48
(g69
g50
NtRp2501
(dp2502
g53
(dp2503
g73
g74
ssg62
g2497
sg55
(lp2504
S'uuid'
p2505
asbag48
(g69
g50
NtRp2506
(dp2507
g53
(dp2508
g80
g81
ssg62
g2497
sg55
(lp2509
S':'
asbag48
(g69
g50
NtRp2510
(dp2511
g53
(dp2512
sg62
g2497
sg55
(lp2513
g48
(g49
g50
NtRp2514
(dp2515
g53
(dp2516
g61
I5
ssg62
g2510
sg55
(lp2517
S'Desglosar_Emails/127.0.0.1.2011-09-19.14-56-47.6c837b36-fcaa-4fac-a9c4-f3394d973bb6'
p2518
asbasbasbag48
(g64
g50
NtRp2519
(dp2520
g53
(dp2521
sg62
g58
sg55
(lp2522
g48
(g69
g50
NtRp2523
(dp2524
g53
(dp2525
g73
g74
ssg62
g2519
sg55
(lp2526
S'vars'
p2527
asbag48
(g69
g50
NtRp2528
(dp2529
g53
(dp2530
g80
g81
ssg62
g2519
sg55
(lp2531
S':'
asbag48
(g69
g50
NtRp2532
(dp2533
g53
(dp2534
sg62
g2519
sg55
(lp2535
g48
(g49
g50
NtRp2536
(dp2537
g53
(dp2538
g61
I5
ssg62
g2532
sg55
(lp2539
g48
(g57
g50
NtRp2540
(dp2541
g53
(dp2542
g61
I4
ssg62
Nsg55
(lp2543
sbasbasbasbag48
(g64
g50
NtRp2544
(dp2545
g53
(dp2546
sg62
g58
sg55
(lp2547
g48
(g69
g50
NtRp2548
(dp2549
g53
(dp2550
g73
g74
ssg62
g2544
sg55
(lp2551
S'wsgi'
p2552
asbag48
(g69
g50
NtRp2553
(dp2554
g53
(dp2555
g80
g81
ssg62
g2544
sg55
(lp2556
S':'
asbag48
(g69
g50
NtRp2557
(dp2558
g53
(dp2559
sg62
g2544
sg55
(lp2560
g48
(g49
g50
NtRp2561
(dp2562
g53
(dp2563
g61
I5
ssg62
g2557
sg55
(lp2564
g48
(g57
g50
NtRp2565
(dp2566
g53
(dp2567
g61
I4
ssg62
Nsg55
(lp2568
g48
(g64
g50
NtRp2569
(dp2570
g53
(dp2571
sg62
g2565
sg55
(lp2572
g48
(g69
g50
NtRp2573
(dp2574
g53
(dp2575
g73
g74
ssg62
g2569
sg55
(lp2576
S'environ'
p2577
asbag48
(g69
g50
NtRp2578
(dp2579
g53
(dp2580
g80
g81
ssg62
g2569
sg55
(lp2581
S':'
asbag48
(g69
g50
NtRp2582
(dp2583
g53
(dp2584
sg62
g2569
sg55
(lp2585
g48
(g49
g50
NtRp2586
(dp2587
g53
(dp2588
g61
I4
ssg62
g2582
sg55
(lp2589
g48
(g57
g50
NtRp2590
(dp2591
g53
(dp2592
g61
I3
ssg62
Nsg55
(lp2593
g48
(g64
g50
NtRp2594
(dp2595
g53
(dp2596
sg62
g2590
sg55
(lp2597
g48
(g69
g50
NtRp2598
(dp2599
g53
(dp2600
g73
g74
ssg62
g2594
sg55
(lp2601
S'HTTP_ACCEPT'
p2602
asbag48
(g69
g50
NtRp2603
(dp2604
g53
(dp2605
g80
g81
ssg62
g2594
sg55
(lp2606
S':'
asbag48
(g69
g50
NtRp2607
(dp2608
g53
(dp2609
sg62
g2594
sg55
(lp2610
g48
(g49
g50
NtRp2611
(dp2612
g53
(dp2613
g61
I3
ssg62
g2607
sg55
(lp2614
g1593
asbasbasbag48
(g64
g50
NtRp2615
(dp2616
g53
(dp2617
sg62
g2590
sg55
(lp2618
g48
(g69
g50
NtRp2619
(dp2620
g53
(dp2621
g73
g74
ssg62
g2615
sg55
(lp2622
S'HTTP_ACCEPT_CHARSET'
p2623
asbag48
(g69
g50
NtRp2624
(dp2625
g53
(dp2626
g80
g81
ssg62
g2615
sg55
(lp2627
S':'
asbag48
(g69
g50
NtRp2628
(dp2629
g53
(dp2630
sg62
g2615
sg55
(lp2631
g48
(g49
g50
NtRp2632
(dp2633
g53
(dp2634
g61
I3
ssg62
g2628
sg55
(lp2635
g1615
asbasbasbag48
(g64
g50
NtRp2636
(dp2637
g53
(dp2638
sg62
g2590
sg55
(lp2639
g48
(g69
g50
NtRp2640
(dp2641
g53
(dp2642
g73
g74
ssg62
g2636
sg55
(lp2643
S'HTTP_ACCEPT_ENCODING'
p2644
asbag48
(g69
g50
NtRp2645
(dp2646
g53
(dp2647
g80
g81
ssg62
g2636
sg55
(lp2648
S':'
asbag48
(g69
g50
NtRp2649
(dp2650
g53
(dp2651
sg62
g2636
sg55
(lp2652
g48
(g49
g50
NtRp2653
(dp2654
g53
(dp2655
g61
I3
ssg62
g2649
sg55
(lp2656
g1637
asbasbasbag48
(g64
g50
NtRp2657
(dp2658
g53
(dp2659
sg62
g2590
sg55
(lp2660
g48
(g69
g50
NtRp2661
(dp2662
g53
(dp2663
g73
g74
ssg62
g2657
sg55
(lp2664
S'HTTP_ACCEPT_LANGUAGE'
p2665
asbag48
(g69
g50
NtRp2666
(dp2667
g53
(dp2668
g80
g81
ssg62
g2657
sg55
(lp2669
S':'
asbag48
(g69
g50
NtRp2670
(dp2671
g53
(dp2672
sg62
g2657
sg55
(lp2673
g48
(g49
g50
NtRp2674
(dp2675
g53
(dp2676
g61
I3
ssg62
g2670
sg55
(lp2677
g1659
asbasbasbag48
(g64
g50
NtRp2678
(dp2679
g53
(dp2680
sg62
g2590
sg55
(lp2681
g48
(g69
g50
NtRp2682
(dp2683
g53
(dp2684
g73
g74
ssg62
g2678
sg55
(lp2685
S'HTTP_CONNECTION'
p2686
asbag48
(g69
g50
NtRp2687
(dp2688
g53
(dp2689
g80
g81
ssg62
g2678
sg55
(lp2690
S':'
asbag48
(g69
g50
NtRp2691
(dp2692
g53
(dp2693
sg62
g2678
sg55
(lp2694
g48
(g49
g50
NtRp2695
(dp2696
g53
(dp2697
g61
I3
ssg62
g2691
sg55
(lp2698
g1681
asbasbasbag48
(g64
g50
NtRp2699
(dp2700
g53
(dp2701
sg62
g2590
sg55
(lp2702
g48
(g69
g50
NtRp2703
(dp2704
g53
(dp2705
g73
g74
ssg62
g2699
sg55
(lp2706
S'HTTP_COOKIE'
p2707
asbag48
(g69
g50
NtRp2708
(dp2709
g53
(dp2710
g80
g81
ssg62
g2699
sg55
(lp2711
S':'
asbag48
(g69
g50
NtRp2712
(dp2713
g53
(dp2714
sg62
g2699
sg55
(lp2715
g48
(g49
g50
NtRp2716
(dp2717
g53
(dp2718
g61
I3
ssg62
g2712
sg55
(lp2719
g1703
asbasbasbag48
(g64
g50
NtRp2720
(dp2721
g53
(dp2722
sg62
g2590
sg55
(lp2723
g48
(g69
g50
NtRp2724
(dp2725
g53
(dp2726
g73
g74
ssg62
g2720
sg55
(lp2727
S'HTTP_HOST'
p2728
asbag48
(g69
g50
NtRp2729
(dp2730
g53
(dp2731
g80
g81
ssg62
g2720
sg55
(lp2732
S':'
asbag48
(g69
g50
NtRp2733
(dp2734
g53
(dp2735
sg62
g2720
sg55
(lp2736
g48
(g49
g50
NtRp2737
(dp2738
g53
(dp2739
g61
I3
ssg62
g2733
sg55
(lp2740
g1725
asbasbasbag48
(g64
g50
NtRp2741
(dp2742
g53
(dp2743
sg62
g2590
sg55
(lp2744
g48
(g69
g50
NtRp2745
(dp2746
g53
(dp2747
g73
g74
ssg62
g2741
sg55
(lp2748
S'HTTP_REFERER'
p2749
asbag48
(g69
g50
NtRp2750
(dp2751
g53
(dp2752
g80
g81
ssg62
g2741
sg55
(lp2753
S':'
asbag48
(g69
g50
NtRp2754
(dp2755
g53
(dp2756
sg62
g2741
sg55
(lp2757
g48
(g49
g50
NtRp2758
(dp2759
g53
(dp2760
g61
I3
ssg62
g2754
sg55
(lp2761
g1747
asbasbasbag48
(g64
g50
NtRp2762
(dp2763
g53
(dp2764
sg62
g2590
sg55
(lp2765
g48
(g69
g50
NtRp2766
(dp2767
g53
(dp2768
g73
g74
ssg62
g2762
sg55
(lp2769
S'HTTP_USER_AGENT'
p2770
asbag48
(g69
g50
NtRp2771
(dp2772
g53
(dp2773
g80
g81
ssg62
g2762
sg55
(lp2774
S':'
asbag48
(g69
g50
NtRp2775
(dp2776
g53
(dp2777
sg62
g2762
sg55
(lp2778
g48
(g49
g50
NtRp2779
(dp2780
g53
(dp2781
g61
I3
ssg62
g2775
sg55
(lp2782
g1769
asbasbasbag48
(g64
g50
NtRp2783
(dp2784
g53
(dp2785
sg62
g2590
sg55
(lp2786
g48
(g69
g50
NtRp2787
(dp2788
g53
(dp2789
g73
g74
ssg62
g2783
sg55
(lp2790
S'PATH_INFO'
p2791
asbag48
(g69
g50
NtRp2792
(dp2793
g53
(dp2794
g80
g81
ssg62
g2783
sg55
(lp2795
S':'
asbag48
(g69
g50
NtRp2796
(dp2797
g53
(dp2798
sg62
g2783
sg55
(lp2799
g48
(g49
g50
NtRp2800
(dp2801
g53
(dp2802
g61
I3
ssg62
g2796
sg55
(lp2803
g1812
asbasbasbag48
(g64
g50
NtRp2804
(dp2805
g53
(dp2806
sg62
g2590
sg55
(lp2807
g48
(g69
g50
NtRp2808
(dp2809
g53
(dp2810
g73
g74
ssg62
g2804
sg55
(lp2811
S'QUERY_STRING'
p2812
asbag48
(g69
g50
NtRp2813
(dp2814
g53
(dp2815
g80
g81
ssg62
g2804
sg55
(lp2816
S':'
asbag48
(g69
g50
NtRp2817
(dp2818
g53
(dp2819
sg62
g2804
sg55
(lp2820
g48
(g49
g50
NtRp2821
(dp2822
g53
(dp2823
g61
I3
ssg62
g2817
sg55
(lp2824
S''
asbasbasbag48
(g64
g50
NtRp2825
(dp2826
g53
(dp2827
sg62
g2590
sg55
(lp2828
g48
(g69
g50
NtRp2829
(dp2830
g53
(dp2831
g73
g74
ssg62
g2825
sg55
(lp2832
S'REMOTE_ADDR'
p2833
asbag48
(g69
g50
NtRp2834
(dp2835
g53
(dp2836
g80
g81
ssg62
g2825
sg55
(lp2837
S':'
asbag48
(g69
g50
NtRp2838
(dp2839
g53
(dp2840
sg62
g2825
sg55
(lp2841
g48
(g49
g50
NtRp2842
(dp2843
g53
(dp2844
g61
I3
ssg62
g2838
sg55
(lp2845
g181
asbasbasbag48
(g64
g50
NtRp2846
(dp2847
g53
(dp2848
sg62
g2590
sg55
(lp2849
g48
(g69
g50
NtRp2850
(dp2851
g53
(dp2852
g73
g74
ssg62
g2846
sg55
(lp2853
S'REMOTE_PORT'
p2854
asbag48
(g69
g50
NtRp2855
(dp2856
g53
(dp2857
g80
g81
ssg62
g2846
sg55
(lp2858
S':'
asbag48
(g69
g50
NtRp2859
(dp2860
g53
(dp2861
sg62
g2846
sg55
(lp2862
g48
(g49
g50
NtRp2863
(dp2864
g53
(dp2865
g61
I3
ssg62
g2859
sg55
(lp2866
g1876
asbasbasbag48
(g64
g50
NtRp2867
(dp2868
g53
(dp2869
sg62
g2590
sg55
(lp2870
g48
(g69
g50
NtRp2871
(dp2872
g53
(dp2873
g73
g74
ssg62
g2867
sg55
(lp2874
S'REQUEST_METHOD'
p2875
asbag48
(g69
g50
NtRp2876
(dp2877
g53
(dp2878
g80
g81
ssg62
g2867
sg55
(lp2879
S':'
asbag48
(g69
g50
NtRp2880
(dp2881
g53
(dp2882
sg62
g2867
sg55
(lp2883
g48
(g49
g50
NtRp2884
(dp2885
g53
(dp2886
g61
I3
ssg62
g2880
sg55
(lp2887
g1898
asbasbasbag48
(g64
g50
NtRp2888
(dp2889
g53
(dp2890
sg62
g2590
sg55
(lp2891
g48
(g69
g50
NtRp2892
(dp2893
g53
(dp2894
g73
g74
ssg62
g2888
sg55
(lp2895
S'SCRIPT_NAME'
p2896
asbag48
(g69
g50
NtRp2897
(dp2898
g53
(dp2899
g80
g81
ssg62
g2888
sg55
(lp2900
S':'
asbag48
(g69
g50
NtRp2901
(dp2902
g53
(dp2903
sg62
g2888
sg55
(lp2904
g48
(g49
g50
NtRp2905
(dp2906
g53
(dp2907
g61
I3
ssg62
g2901
sg55
(lp2908
S''
asbasbasbag48
(g64
g50
NtRp2909
(dp2910
g53
(dp2911
sg62
g2590
sg55
(lp2912
g48
(g69
g50
NtRp2913
(dp2914
g53
(dp2915
g73
g74
ssg62
g2909
sg55
(lp2916
S'SERVER_NAME'
p2917
asbag48
(g69
g50
NtRp2918
(dp2919
g53
(dp2920
g80
g81
ssg62
g2909
sg55
(lp2921
S':'
asbag48
(g69
g50
NtRp2922
(dp2923
g53
(dp2924
sg62
g2909
sg55
(lp2925
g48
(g49
g50
NtRp2926
(dp2927
g53
(dp2928
g61
I3
ssg62
g2922
sg55
(lp2929
g1941
asbasbasbag48
(g64
g50
NtRp2930
(dp2931
g53
(dp2932
sg62
g2590
sg55
(lp2933
g48
(g69
g50
NtRp2934
(dp2935
g53
(dp2936
g73
g74
ssg62
g2930
sg55
(lp2937
S'SERVER_PORT'
p2938
asbag48
(g69
g50
NtRp2939
(dp2940
g53
(dp2941
g80
g81
ssg62
g2930
sg55
(lp2942
S':'
asbag48
(g69
g50
NtRp2943
(dp2944
g53
(dp2945
sg62
g2930
sg55
(lp2946
g48
(g49
g50
NtRp2947
(dp2948
g53
(dp2949
g61
I3
ssg62
g2943
sg55
(lp2950
g1963
asbasbasbag48
(g64
g50
NtRp2951
(dp2952
g53
(dp2953
sg62
g2590
sg55
(lp2954
g48
(g69
g50
NtRp2955
(dp2956
g53
(dp2957
g73
g74
ssg62
g2951
sg55
(lp2958
S'SERVER_PROTOCOL'
p2959
asbag48
(g69
g50
NtRp2960
(dp2961
g53
(dp2962
g80
g81
ssg62
g2951
sg55
(lp2963
S':'
asbag48
(g69
g50
NtRp2964
(dp2965
g53
(dp2966
sg62
g2951
sg55
(lp2967
g48
(g49
g50
NtRp2968
(dp2969
g53
(dp2970
g61
I3
ssg62
g2964
sg55
(lp2971
g1985
asbasbasbag48
(g64
g50
NtRp2972
(dp2973
g53
(dp2974
sg62
g2590
sg55
(lp2975
g48
(g69
g50
NtRp2976
(dp2977
g53
(dp2978
g73
g74
ssg62
g2972
sg55
(lp2979
S'SERVER_SOFTWARE'
p2980
asbag48
(g69
g50
NtRp2981
(dp2982
g53
(dp2983
g80
g81
ssg62
g2972
sg55
(lp2984
S':'
asbag48
(g69
g50
NtRp2985
(dp2986
g53
(dp2987
sg62
g2972
sg55
(lp2988
g48
(g49
g50
NtRp2989
(dp2990
g53
(dp2991
g61
I3
ssg62
g2985
sg55
(lp2992
g2007
asbasbasbag48
(g64
g50
NtRp2993
(dp2994
g53
(dp2995
sg62
g2590
sg55
(lp2996
g48
(g69
g50
NtRp2997
(dp2998
g53
(dp2999
g73
g74
ssg62
g2993
sg55
(lp3000
S'wsgi.errors'
p3001
asbag48
(g69
g50
NtRp3002
(dp3003
g53
(dp3004
g80
g81
ssg62
g2993
sg55
(lp3005
S':'
asbag48
(g69
g50
NtRp3006
(dp3007
g53
(dp3008
sg62
g2993
sg55
(lp3009
g48
(g49
g50
NtRp3010
(dp3011
g53
(dp3012
g61
I3
ssg62
g3006
sg55
(lp3013
S"<open file '<stderr>', mode 'w' at 0x003100B0>"
p3014
asbasbasbag48
(g64
g50
NtRp3015
(dp3016
g53
(dp3017
sg62
g2590
sg55
(lp3018
g48
(g69
g50
NtRp3019
(dp3020
g53
(dp3021
g73
g74
ssg62
g3015
sg55
(lp3022
S'wsgi.file_wrapper'
p3023
asbag48
(g69
g50
NtRp3024
(dp3025
g53
(dp3026
g80
g81
ssg62
g3015
sg55
(lp3027
S':'
asbag48
(g69
g50
NtRp3028
(dp3029
g53
(dp3030
sg62
g3015
sg55
(lp3031
g48
(g49
g50
NtRp3032
(dp3033
g53
(dp3034
g61
I3
ssg62
g3028
sg55
(lp3035
S'<class gluon.rocket.FileWrapper at 0x02FFC1B0>'
p3036
asbasbasbag48
(g64
g50
NtRp3037
(dp3038
g53
(dp3039
sg62
g2590
sg55
(lp3040
g48
(g69
g50
NtRp3041
(dp3042
g53
(dp3043
g73
g74
ssg62
g3037
sg55
(lp3044
S'wsgi.input'
p3045
asbag48
(g69
g50
NtRp3046
(dp3047
g53
(dp3048
g80
g81
ssg62
g3037
sg55
(lp3049
S':'
asbag48
(g69
g50
NtRp3050
(dp3051
g53
(dp3052
sg62
g3037
sg55
(lp3053
g48
(g49
g50
NtRp3054
(dp3055
g53
(dp3056
g61
I3
ssg62
g3050
sg55
(lp3057
S'<cStringIO.StringO object at 0x08F70EE0>'
p3058
asbasbasbag48
(g64
g50
NtRp3059
(dp3060
g53
(dp3061
sg62
g2590
sg55
(lp3062
g48
(g69
g50
NtRp3063
(dp3064
g53
(dp3065
g73
g74
ssg62
g3059
sg55
(lp3066
S'wsgi.multiprocess'
p3067
asbag48
(g69
g50
NtRp3068
(dp3069
g53
(dp3070
g80
g81
ssg62
g3059
sg55
(lp3071
S':'
asbag48
(g69
g50
NtRp3072
(dp3073
g53
(dp3074
sg62
g3059
sg55
(lp3075
g48
(g49
g50
NtRp3076
(dp3077
g53
(dp3078
g61
I3
ssg62
g3072
sg55
(lp3079
g91
asbasbasbag48
(g64
g50
NtRp3080
(dp3081
g53
(dp3082
sg62
g2590
sg55
(lp3083
g48
(g69
g50
NtRp3084
(dp3085
g53
(dp3086
g73
g74
ssg62
g3080
sg55
(lp3087
S'wsgi.multithread'
p3088
asbag48
(g69
g50
NtRp3089
(dp3090
g53
(dp3091
g80
g81
ssg62
g3080
sg55
(lp3092
S':'
asbag48
(g69
g50
NtRp3093
(dp3094
g53
(dp3095
sg62
g3080
sg55
(lp3096
g48
(g49
g50
NtRp3097
(dp3098
g53
(dp3099
g61
I3
ssg62
g3093
sg55
(lp3100
g2181
asbasbasbag48
(g64
g50
NtRp3101
(dp3102
g53
(dp3103
sg62
g2590
sg55
(lp3104
g48
(g69
g50
NtRp3105
(dp3106
g53
(dp3107
g73
g74
ssg62
g3101
sg55
(lp3108
S'wsgi.run_once'
p3109
asbag48
(g69
g50
NtRp3110
(dp3111
g53
(dp3112
g80
g81
ssg62
g3101
sg55
(lp3113
S':'
asbag48
(g69
g50
NtRp3114
(dp3115
g53
(dp3116
sg62
g3101
sg55
(lp3117
g48
(g49
g50
NtRp3118
(dp3119
g53
(dp3120
g61
I3
ssg62
g3114
sg55
(lp3121
g91
asbasbasbag48
(g64
g50
NtRp3122
(dp3123
g53
(dp3124
sg62
g2590
sg55
(lp3125
g48
(g69
g50
NtRp3126
(dp3127
g53
(dp3128
g73
g74
ssg62
g3122
sg55
(lp3129
S'wsgi.url_scheme'
p3130
asbag48
(g69
g50
NtRp3131
(dp3132
g53
(dp3133
g80
g81
ssg62
g3122
sg55
(lp3134
S':'
asbag48
(g69
g50
NtRp3135
(dp3136
g53
(dp3137
sg62
g3122
sg55
(lp3138
g48
(g49
g50
NtRp3139
(dp3140
g53
(dp3141
g61
I3
ssg62
g3135
sg55
(lp3142
g2224
asbasbasbag48
(g64
g50
NtRp3143
(dp3144
g53
(dp3145
sg62
g2590
sg55
(lp3146
g48
(g69
g50
NtRp3147
(dp3148
g53
(dp3149
g73
g74
ssg62
g3143
sg55
(lp3150
S'wsgi.version'
p3151
asbag48
(g69
g50
NtRp3152
(dp3153
g53
(dp3154
g80
g81
ssg62
g3143
sg55
(lp3155
S':'
asbag48
(g69
g50
NtRp3156
(dp3157
g53
(dp3158
sg62
g3143
sg55
(lp3159
g48
(g49
g50
NtRp3160
(dp3161
g53
(dp3162
g61
I3
ssg62
g3156
sg55
(lp3163
S'1'
asbasbasbasbasbasbasbasbasbasbasbasbasbsS'frames'
p3164
(lp3165
(dp3166
S'file'
p3167
S'C:\\Users\\Atomico\\web2py\\gluon\\restricted.py'
p3168
sS'dump'
p3169
(dp3170
sS'lnum'
p3171
I192
sS'lines'
p3172
(dp3173
sS'call'
p3174
S'(code=\'response.write(\\\'<!DOCTYPE html>\\\\n<html lang="\\\', ...t   -->    \\\\n  </body>\\\\n</html>\\\\n\\\', escape=False)\', environment={\'A\': <class \'gluon.html.A\'>, \'B\': <class \'gluon.html.B\'>, \'BEAUTIFY\': <class \'gluon.html.BEAUTIFY\'>, \'BODY\': <class \'gluon.html.BODY\'>, \'BR\': <class \'gluon.html.BR\'>, \'BUTTON\': <class \'gluon.html.BUTTON\'>, \'CAT\': <class \'gluon.html.CAT\'>, \'CENTER\': <class \'gluon.html.CENTER\'>, \'CLEANUP\': <class \'gluon.validators.CLEANUP\'>, \'CODE\': <class \'gluon.html.CODE\'>, ...}, layer=r\'C:\\Users\\Atomico\\web2py\\applications\\Desglosar_Emails\\views\\default/entrada_mod3.html\')'
p3175
sS'func'
p3176
S'restricted'
p3177
sa(dp3178
g3167
S'C:\\Users\\Atomico\\web2py\\applications\\Desglosar_Emails\\views\\default\\entrada_mod3.html'
p3179
sg3169
(dp3180
sg3171
I106
sg3172
(dp3181
I97
S'response.write(\'\\n\\n\\t  <!-- content -->\\n\\t  <div id="content" \', escape=False)'
p3182
sI98
S'response.write(XML(style_content))'
p3183
sI99
S"response.write(' >\\n\\t    ', escape=False)"
p3184
sI100
S"response.write('\\r\\n<h1>Esta es la plantilla default/entrada_mod3.html</h1>\\r\\n<h2>Formulario</h2>\\r\\n', escape=False)"
p3185
sI101
S'response.write(form)'
p3186
sI102
S"response.write('\\r\\n<br/>\\r\\n<h3>Tratamientos</h3>\\r\\n', escape=False)"
p3187
sI103
S'encontrado=False'
p3188
sI104
S'cont=0'
p3189
sI105
S'txt=db.info2.texto'
p3190
sI106
S'for i in range(len(db.info2.texto)):'
p3191
sI107
S"    if encontrado==False and txt[i]=='@':"
p3192
sI108
S'        encontrado=True'
p3193
sI109
S'        posf=i'
p3194
sI110
S'    else: pass'
p3195
sI111
S'    pass'
p3196
sI112
S'response.write(posf)'
p3197
sI113
S"response.write(' \\r\\n es la posf\\r\\n', escape=False)"
p3198
sI114
S"response.write('\\t\\n\\t  </div>\\n\\t  <!-- content -->\\n\\n\\t  ', escape=False)"
p3199
sI115
S'if right_sidebar_enabled:'
p3200
sI116
S'    response.write(\'\\n          <div id="right_sidebar" \', escape=False)'
p3201
ssg3174
S'()'
p3202
sg3176
S'<module>'
p3203
sasS'pyver'
p3204
S'Python 2.5.4: C:\\Users\\Atomico\\web2py\\web2py.exe'
p3205
sS'session'
p3206
g48
(g49
g50
NtRp3207
(dp3208
g53
(dp3209
sg55
(lp3210
g48
(g57
g50
NtRp3211
(dp3212
g53
(dp3213
g61
I5
ssg62
Nsg55
(lp3214
g48
(g64
g50
NtRp3215
(dp3216
g53
(dp3217
sg62
g3211
sg55
(lp3218
g48
(g69
g50
NtRp3219
(dp3220
g53
(dp3221
g73
g74
ssg62
g3215
sg55
(lp3222
S'last_query'
p3223
asbag48
(g69
g50
NtRp3224
(dp3225
g53
(dp3226
g80
g81
ssg62
g3215
sg55
(lp3227
S':'
asbag48
(g69
g50
NtRp3228
(dp3229
g53
(dp3230
sg62
g3215
sg55
(lp3231
g48
(g49
g50
NtRp3232
(dp3233
g53
(dp3234
g61
I5
ssg62
g3228
sg55
(lp3235
S'db.info2.id>0'
p3236
asbasbasbasbasbsS'etype'
p3237
S"<type 'exceptions.TypeError'>"
p3238
sS'date'
p3239
S'Mon Sep 19 14:56:47 2011'
p3240
sS'response'
p3241
g48
(g49
g50
NtRp3242
(dp3243
g53
(dp3244
sg55
(lp3245
g48
(g57
g50
NtRp3246
(dp3247
g53
(dp3248
g61
I5
ssg62
Nsg55
(lp3249
g48
(g64
g50
NtRp3250
(dp3251
g53
(dp3252
sg62
g3246
sg55
(lp3253
g48
(g69
g50
NtRp3254
(dp3255
g53
(dp3256
g73
g74
ssg62
g3250
sg55
(lp3257
g146
asbag48
(g69
g50
NtRp3258
(dp3259
g53
(dp3260
g80
g81
ssg62
g3250
sg55
(lp3261
S':'
asbag48
(g69
g50
NtRp3262
(dp3263
g53
(dp3264
sg62
g3250
sg55
(lp3265
g48
(g49
g50
NtRp3266
(dp3267
g53
(dp3268
g61
I5
ssg62
g3262
sg55
(lp3269
S'<cStringIO.StringO object at 0x08F701E0>'
p3270
asbasbasbag48
(g64
g50
NtRp3271
(dp3272
g53
(dp3273
sg62
g3246
sg55
(lp3274
g48
(g69
g50
NtRp3275
(dp3276
g53
(dp3277
g73
g74
ssg62
g3271
sg55
(lp3278
g212
asbag48
(g69
g50
NtRp3279
(dp3280
g53
(dp3281
g80
g81
ssg62
g3271
sg55
(lp3282
S':'
asbag48
(g69
g50
NtRp3283
(dp3284
g53
(dp3285
sg62
g3271
sg55
(lp3286
g48
(g49
g50
NtRp3287
(dp3288
g53
(dp3289
g61
I5
ssg62
g3283
sg55
(lp3290
g48
(g57
g50
NtRp3291
(dp3292
g53
(dp3293
g61
I4
ssg62
Nsg55
(lp3294
g48
(g64
g50
NtRp3295
(dp3296
g53
(dp3297
sg62
g3291
sg55
(lp3298
g48
(g69
g50
NtRp3299
(dp3300
g53
(dp3301
g73
g74
ssg62
g3295
sg55
(lp3302
S'session_id_desglosar_emails'
p3303
asbag48
(g69
g50
NtRp3304
(dp3305
g53
(dp3306
g80
g81
ssg62
g3295
sg55
(lp3307
S':'
asbag48
(g69
g50
NtRp3308
(dp3309
g53
(dp3310
sg62
g3295
sg55
(lp3311
g48
(g49
g50
NtRp3312
(dp3313
g53
(dp3314
g61
I4
ssg62
g3308
sg55
(lp3315
g48
(g57
g50
NtRp3316
(dp3317
g53
(dp3318
g61
I3
ssg62
Nsg55
(lp3319
g48
(g64
g50
NtRp3320
(dp3321
g53
(dp3322
sg62
g3316
sg55
(lp3323
g48
(g69
g50
NtRp3324
(dp3325
g53
(dp3326
g73
g74
ssg62
g3320
sg55
(lp3327
g262
asbag48
(g69
g50
NtRp3328
(dp3329
g53
(dp3330
g80
g81
ssg62
g3320
sg55
(lp3331
S':'
asbag48
(g69
g50
NtRp3332
(dp3333
g53
(dp3334
sg62
g3320
sg55
(lp3335
g48
(g49
g50
NtRp3336
(dp3337
g53
(dp3338
g61
I3
ssg62
g3332
sg55
(lp3339
S''
asbasbasbag48
(g64
g50
NtRp3340
(dp3341
g53
(dp3342
sg62
g3316
sg55
(lp3343
g48
(g69
g50
NtRp3344
(dp3345
g53
(dp3346
g73
g74
ssg62
g3340
sg55
(lp3347
g283
asbag48
(g69
g50
NtRp3348
(dp3349
g53
(dp3350
g80
g81
ssg62
g3340
sg55
(lp3351
S':'
asbag48
(g69
g50
NtRp3352
(dp3353
g53
(dp3354
sg62
g3340
sg55
(lp3355
g48
(g49
g50
NtRp3356
(dp3357
g53
(dp3358
g61
I3
ssg62
g3352
sg55
(lp3359
S''
asbasbasbag48
(g64
g50
NtRp3360
(dp3361
g53
(dp3362
sg62
g3316
sg55
(lp3363
g48
(g69
g50
NtRp3364
(dp3365
g53
(dp3366
g73
g74
ssg62
g3360
sg55
(lp3367
g304
asbag48
(g69
g50
NtRp3368
(dp3369
g53
(dp3370
g80
g81
ssg62
g3360
sg55
(lp3371
S':'
asbag48
(g69
g50
NtRp3372
(dp3373
g53
(dp3374
sg62
g3360
sg55
(lp3375
g48
(g49
g50
NtRp3376
(dp3377
g53
(dp3378
g61
I3
ssg62
g3372
sg55
(lp3379
S''
asbasbasbag48
(g64
g50
NtRp3380
(dp3381
g53
(dp3382
sg62
g3316
sg55
(lp3383
g48
(g69
g50
NtRp3384
(dp3385
g53
(dp3386
g73
g74
ssg62
g3380
sg55
(lp3387
g325
asbag48
(g69
g50
NtRp3388
(dp3389
g53
(dp3390
g80
g81
ssg62
g3380
sg55
(lp3391
S':'
asbag48
(g69
g50
NtRp3392
(dp3393
g53
(dp3394
sg62
g3380
sg55
(lp3395
g48
(g49
g50
NtRp3396
(dp3397
g53
(dp3398
g61
I3
ssg62
g3392
sg55
(lp3399
S''
asbasbasbag48
(g64
g50
NtRp3400
(dp3401
g53
(dp3402
sg62
g3316
sg55
(lp3403
g48
(g69
g50
NtRp3404
(dp3405
g53
(dp3406
g73
g74
ssg62
g3400
sg55
(lp3407
g346
asbag48
(g69
g50
NtRp3408
(dp3409
g53
(dp3410
g80
g81
ssg62
g3400
sg55
(lp3411
S':'
asbag48
(g69
g50
NtRp3412
(dp3413
g53
(dp3414
sg62
g3400
sg55
(lp3415
g48
(g49
g50
NtRp3416
(dp3417
g53
(dp3418
g61
I3
ssg62
g3412
sg55
(lp3419
S'/'
asbasbasbag48
(g64
g50
NtRp3420
(dp3421
g53
(dp3422
sg62
g3316
sg55
(lp3423
g48
(g69
g50
NtRp3424
(dp3425
g53
(dp3426
g73
g74
ssg62
g3420
sg55
(lp3427
g367
asbag48
(g69
g50
NtRp3428
(dp3429
g53
(dp3430
g80
g81
ssg62
g3420
sg55
(lp3431
S':'
asbag48
(g69
g50
NtRp3432
(dp3433
g53
(dp3434
sg62
g3420
sg55
(lp3435
g48
(g49
g50
NtRp3436
(dp3437
g53
(dp3438
g61
I3
ssg62
g3432
sg55
(lp3439
S''
asbasbasbag48
(g64
g50
NtRp3440
(dp3441
g53
(dp3442
sg62
g3316
sg55
(lp3443
g48
(g69
g50
NtRp3444
(dp3445
g53
(dp3446
g73
g74
ssg62
g3440
sg55
(lp3447
g388
asbag48
(g69
g50
NtRp3448
(dp3449
g53
(dp3450
g80
g81
ssg62
g3440
sg55
(lp3451
S':'
asbag48
(g69
g50
NtRp3452
(dp3453
g53
(dp3454
sg62
g3440
sg55
(lp3455
g48
(g49
g50
NtRp3456
(dp3457
g53
(dp3458
g61
I3
ssg62
g3452
sg55
(lp3459
S''
asbasbasbasbasbasbasbasbasbasbasbag48
(g64
g50
NtRp3460
(dp3461
g53
(dp3462
sg62
g3246
sg55
(lp3463
g48
(g69
g50
NtRp3464
(dp3465
g53
(dp3466
g73
g74
ssg62
g3460
sg55
(lp3467
S'files'
p3468
asbag48
(g69
g50
NtRp3469
(dp3470
g53
(dp3471
g80
g81
ssg62
g3460
sg55
(lp3472
S':'
asbag48
(g69
g50
NtRp3473
(dp3474
g53
(dp3475
sg62
g3460
sg55
(lp3476
g48
(g49
g50
NtRp3477
(dp3478
g53
(dp3479
g61
I5
ssg62
g3473
sg55
(lp3480
g48
(g57
g50
NtRp3481
(dp3482
g53
(dp3483
g61
I4
ssg62
Nsg55
(lp3484
g48
(g64
g50
NtRp3485
(dp3486
g53
(dp3487
sg62
g3481
sg55
(lp3488
g48
(g69
g50
NtRp3489
(dp3490
g53
(dp3491
sg62
g3485
sg55
(lp3492
g48
(g49
g50
NtRp3493
(dp3494
g53
(dp3495
g61
I4
ssg62
g3489
sg55
(lp3496
S'/Desglosar_Emails/static/js/jquery.js'
p3497
asbasbasbag48
(g64
g50
NtRp3498
(dp3499
g53
(dp3500
sg62
g3481
sg55
(lp3501
g48
(g69
g50
NtRp3502
(dp3503
g53
(dp3504
sg62
g3498
sg55
(lp3505
g48
(g49
g50
NtRp3506
(dp3507
g53
(dp3508
g61
I4
ssg62
g3502
sg55
(lp3509
S'/Desglosar_Emails/static/css/calendar.css'
p3510
asbasbasbag48
(g64
g50
NtRp3511
(dp3512
g53
(dp3513
sg62
g3481
sg55
(lp3514
g48
(g69
g50
NtRp3515
(dp3516
g53
(dp3517
sg62
g3511
sg55
(lp3518
g48
(g49
g50
NtRp3519
(dp3520
g53
(dp3521
g61
I4
ssg62
g3515
sg55
(lp3522
S'/Desglosar_Emails/static/js/calendar.js'
p3523
asbasbasbag48
(g64
g50
NtRp3524
(dp3525
g53
(dp3526
sg62
g3481
sg55
(lp3527
g48
(g69
g50
NtRp3528
(dp3529
g53
(dp3530
sg62
g3524
sg55
(lp3531
g48
(g49
g50
NtRp3532
(dp3533
g53
(dp3534
g61
I4
ssg62
g3528
sg55
(lp3535
S'/Desglosar_Emails/static/css/base.css'
p3536
asbasbasbag48
(g64
g50
NtRp3537
(dp3538
g53
(dp3539
sg62
g3481
sg55
(lp3540
g48
(g69
g50
NtRp3541
(dp3542
g53
(dp3543
sg62
g3537
sg55
(lp3544
g48
(g49
g50
NtRp3545
(dp3546
g53
(dp3547
g61
I4
ssg62
g3541
sg55
(lp3548
S'/Desglosar_Emails/static/css/superfish.css'
p3549
asbasbasbag48
(g64
g50
NtRp3550
(dp3551
g53
(dp3552
sg62
g3481
sg55
(lp3553
g48
(g69
g50
NtRp3554
(dp3555
g53
(dp3556
sg62
g3550
sg55
(lp3557
g48
(g49
g50
NtRp3558
(dp3559
g53
(dp3560
g61
I4
ssg62
g3554
sg55
(lp3561
S'/Desglosar_Emails/static/js/superfish.js'
p3562
asbasbasbasbasbasbasbag48
(g64
g50
NtRp3563
(dp3564
g53
(dp3565
sg62
g3246
sg55
(lp3566
g48
(g69
g50
NtRp3567
(dp3568
g53
(dp3569
g73
g74
ssg62
g3563
sg55
(lp3570
S'flash'
p3571
asbag48
(g69
g50
NtRp3572
(dp3573
g53
(dp3574
g80
g81
ssg62
g3563
sg55
(lp3575
S':'
asbag48
(g69
g50
NtRp3576
(dp3577
g53
(dp3578
sg62
g3563
sg55
(lp3579
g48
(g49
g50
NtRp3580
(dp3581
g53
(dp3582
g61
I5
ssg62
g3576
sg55
(lp3583
S''
asbasbasbag48
(g64
g50
NtRp3584
(dp3585
g53
(dp3586
sg62
g3246
sg55
(lp3587
g48
(g69
g50
NtRp3588
(dp3589
g53
(dp3590
g73
g74
ssg62
g3584
sg55
(lp3591
S'generic_patterns'
p3592
asbag48
(g69
g50
NtRp3593
(dp3594
g53
(dp3595
g80
g81
ssg62
g3584
sg55
(lp3596
S':'
asbag48
(g69
g50
NtRp3597
(dp3598
g53
(dp3599
sg62
g3584
sg55
(lp3600
g48
(g49
g50
NtRp3601
(dp3602
g53
(dp3603
g61
I5
ssg62
g3597
sg55
(lp3604
g48
(g57
g50
NtRp3605
(dp3606
g53
(dp3607
g61
I4
ssg62
Nsg55
(lp3608
sbasbasbasbag48
(g64
g50
NtRp3609
(dp3610
g53
(dp3611
sg62
g3246
sg55
(lp3612
g48
(g69
g50
NtRp3613
(dp3614
g53
(dp3615
g73
g74
ssg62
g3609
sg55
(lp3616
S'headers'
p3617
asbag48
(g69
g50
NtRp3618
(dp3619
g53
(dp3620
g80
g81
ssg62
g3609
sg55
(lp3621
S':'
asbag48
(g69
g50
NtRp3622
(dp3623
g53
(dp3624
sg62
g3609
sg55
(lp3625
g48
(g49
g50
NtRp3626
(dp3627
g53
(dp3628
g61
I5
ssg62
g3622
sg55
(lp3629
g48
(g57
g50
NtRp3630
(dp3631
g53
(dp3632
g61
I4
ssg62
Nsg55
(lp3633
g48
(g64
g50
NtRp3634
(dp3635
g53
(dp3636
sg62
g3630
sg55
(lp3637
g48
(g69
g50
NtRp3638
(dp3639
g53
(dp3640
g73
g74
ssg62
g3634
sg55
(lp3641
S'Cache-Control'
p3642
asbag48
(g69
g50
NtRp3643
(dp3644
g53
(dp3645
g80
g81
ssg62
g3634
sg55
(lp3646
S':'
asbag48
(g69
g50
NtRp3647
(dp3648
g53
(dp3649
sg62
g3634
sg55
(lp3650
g48
(g49
g50
NtRp3651
(dp3652
g53
(dp3653
g61
I4
ssg62
g3647
sg55
(lp3654
S'no-store, no-cache, must-revalidate, post-check=0, pre-check=0'
p3655
asbasbasbag48
(g64
g50
NtRp3656
(dp3657
g53
(dp3658
sg62
g3630
sg55
(lp3659
g48
(g69
g50
NtRp3660
(dp3661
g53
(dp3662
g73
g74
ssg62
g3656
sg55
(lp3663
S'Content-Type'
p3664
asbag48
(g69
g50
NtRp3665
(dp3666
g53
(dp3667
g80
g81
ssg62
g3656
sg55
(lp3668
S':'
asbag48
(g69
g50
NtRp3669
(dp3670
g53
(dp3671
sg62
g3656
sg55
(lp3672
g48
(g49
g50
NtRp3673
(dp3674
g53
(dp3675
g61
I4
ssg62
g3669
sg55
(lp3676
S'text/html; charset=utf-8'
p3677
asbasbasbag48
(g64
g50
NtRp3678
(dp3679
g53
(dp3680
sg62
g3630
sg55
(lp3681
g48
(g69
g50
NtRp3682
(dp3683
g53
(dp3684
g73
g74
ssg62
g3678
sg55
(lp3685
S'Expires'
p3686
asbag48
(g69
g50
NtRp3687
(dp3688
g53
(dp3689
g80
g81
ssg62
g3678
sg55
(lp3690
S':'
asbag48
(g69
g50
NtRp3691
(dp3692
g53
(dp3693
sg62
g3678
sg55
(lp3694
g48
(g49
g50
NtRp3695
(dp3696
g53
(dp3697
g61
I4
ssg62
g3691
sg55
(lp3698
S'Mon, 19 Sep 2011 12:56:47 GMT'
p3699
asbasbasbag48
(g64
g50
NtRp3700
(dp3701
g53
(dp3702
sg62
g3630
sg55
(lp3703
g48
(g69
g50
NtRp3704
(dp3705
g53
(dp3706
g73
g74
ssg62
g3700
sg55
(lp3707
S'Pragma'
p3708
asbag48
(g69
g50
NtRp3709
(dp3710
g53
(dp3711
g80
g81
ssg62
g3700
sg55
(lp3712
S':'
asbag48
(g69
g50
NtRp3713
(dp3714
g53
(dp3715
sg62
g3700
sg55
(lp3716
g48
(g49
g50
NtRp3717
(dp3718
g53
(dp3719
g61
I4
ssg62
g3713
sg55
(lp3720
S'no-cache'
p3721
asbasbasbag48
(g64
g50
NtRp3722
(dp3723
g53
(dp3724
sg62
g3630
sg55
(lp3725
g48
(g69
g50
NtRp3726
(dp3727
g53
(dp3728
g73
g74
ssg62
g3722
sg55
(lp3729
S'X-Powered-By'
p3730
asbag48
(g69
g50
NtRp3731
(dp3732
g53
(dp3733
g80
g81
ssg62
g3722
sg55
(lp3734
S':'
asbag48
(g69
g50
NtRp3735
(dp3736
g53
(dp3737
sg62
g3722
sg55
(lp3738
g48
(g49
g50
NtRp3739
(dp3740
g53
(dp3741
g61
I4
ssg62
g3735
sg55
(lp3742
S'web2py'
p3743
asbasbasbasbasbasbasbag48
(g64
g50
NtRp3744
(dp3745
g53
(dp3746
sg62
g3246
sg55
(lp3747
g48
(g69
g50
NtRp3748
(dp3749
g53
(dp3750
g73
g74
ssg62
g3744
sg55
(lp3751
S'menu'
p3752
asbag48
(g69
g50
NtRp3753
(dp3754
g53
(dp3755
g80
g81
ssg62
g3744
sg55
(lp3756
S':'
asbag48
(g69
g50
NtRp3757
(dp3758
g53
(dp3759
sg62
g3744
sg55
(lp3760
g48
(g49
g50
NtRp3761
(dp3762
g53
(dp3763
g61
I5
ssg62
g3757
sg55
(lp3764
g48
(g57
g50
NtRp3765
(dp3766
g53
(dp3767
g61
I4
ssg62
Nsg55
(lp3768
g48
(g64
g50
NtRp3769
(dp3770
g53
(dp3771
sg62
g3765
sg55
(lp3772
g48
(g69
g50
NtRp3773
(dp3774
g53
(dp3775
sg62
g3769
sg55
(lp3776
g48
(g49
g50
NtRp3777
(dp3778
g53
(dp3779
g61
I4
ssg62
g3773
sg55
(lp3780
g48
(g57
g50
NtRp3781
(dp3782
g53
(dp3783
g61
I3
ssg62
Nsg55
(lp3784
g48
(g64
g50
NtRp3785
(dp3786
g53
(dp3787
sg62
g3781
sg55
(lp3788
g48
(g69
g50
NtRp3789
(dp3790
g53
(dp3791
sg62
g3785
sg55
(lp3792
g48
(g49
g50
NtRp3793
(dp3794
g53
(dp3795
g61
I3
ssg62
g3789
sg55
(lp3796
cgluon.languages
lazyT_unpickle
p3797
(S't\x04\x00\x00\x00Home'
tRp3798
asbasbasbag48
(g64
g50
NtRp3799
(dp3800
g53
(dp3801
sg62
g3781
sg55
(lp3802
g48
(g69
g50
NtRp3803
(dp3804
g53
(dp3805
sg62
g3799
sg55
(lp3806
g48
(g49
g50
NtRp3807
(dp3808
g53
(dp3809
g61
I3
ssg62
g3803
sg55
(lp3810
g91
asbasbasbag48
(g64
g50
NtRp3811
(dp3812
g53
(dp3813
sg62
g3781
sg55
(lp3814
g48
(g69
g50
NtRp3815
(dp3816
g53
(dp3817
sg62
g3811
sg55
(lp3818
g48
(g49
g50
NtRp3819
(dp3820
g53
(dp3821
g61
I3
ssg62
g3815
sg55
(lp3822
S'/Desglosar_Emails/default/index'
p3823
asbasbasbag48
(g64
g50
NtRp3824
(dp3825
g53
(dp3826
sg62
g3781
sg55
(lp3827
g48
(g69
g50
NtRp3828
(dp3829
g53
(dp3830
sg62
g3824
sg55
(lp3831
g48
(g49
g50
NtRp3832
(dp3833
g53
(dp3834
g61
I3
ssg62
g3828
sg55
(lp3835
g48
(g57
g50
NtRp3836
(dp3837
g53
(dp3838
g61
I2
ssg62
Nsg55
(lp3839
sbasbasbasbasbasbasbasbag48
(g64
g50
NtRp3840
(dp3841
g53
(dp3842
sg62
g3765
sg55
(lp3843
g48
(g69
g50
NtRp3844
(dp3845
g53
(dp3846
sg62
g3840
sg55
(lp3847
g48
(g49
g50
NtRp3848
(dp3849
g53
(dp3850
g61
I4
ssg62
g3844
sg55
(lp3851
g48
(g57
g50
NtRp3852
(dp3853
g53
(dp3854
g61
I3
ssg62
Nsg55
(lp3855
g48
(g64
g50
NtRp3856
(dp3857
g53
(dp3858
sg62
g3852
sg55
(lp3859
g48
(g69
g50
NtRp3860
(dp3861
g53
(dp3862
sg62
g3856
sg55
(lp3863
g48
(g49
g50
NtRp3864
(dp3865
g53
(dp3866
g61
I3
ssg62
g3860
sg55
(lp3867
g3797
(S's\x08\x00\x00\x00This App'
tRp3868
asbasbasbag48
(g64
g50
NtRp3869
(dp3870
g53
(dp3871
sg62
g3852
sg55
(lp3872
g48
(g69
g50
NtRp3873
(dp3874
g53
(dp3875
sg62
g3869
sg55
(lp3876
g48
(g49
g50
NtRp3877
(dp3878
g53
(dp3879
g61
I3
ssg62
g3873
sg55
(lp3880
g91
asbasbasbag48
(g64
g50
NtRp3881
(dp3882
g53
(dp3883
sg62
g3852
sg55
(lp3884
g48
(g69
g50
NtRp3885
(dp3886
g53
(dp3887
sg62
g3881
sg55
(lp3888
g48
(g49
g50
NtRp3889
(dp3890
g53
(dp3891
g61
I3
ssg62
g3885
sg55
(lp3892
S'/admin/default/design/Desglosar_Emails'
p3893
asbasbasbag48
(g64
g50
NtRp3894
(dp3895
g53
(dp3896
sg62
g3852
sg55
(lp3897
g48
(g69
g50
NtRp3898
(dp3899
g53
(dp3900
sg62
g3894
sg55
(lp3901
g48
(g49
g50
NtRp3902
(dp3903
g53
(dp3904
g61
I3
ssg62
g3898
sg55
(lp3905
g48
(g57
g50
NtRp3906
(dp3907
g53
(dp3908
g61
I2
ssg62
Nsg55
(lp3909
g48
(g64
g50
NtRp3910
(dp3911
g53
(dp3912
sg62
g3906
sg55
(lp3913
g48
(g69
g50
NtRp3914
(dp3915
g53
(dp3916
sg62
g3910
sg55
(lp3917
g48
(g49
g50
NtRp3918
(dp3919
g53
(dp3920
g61
I2
ssg62
g3914
sg55
(lp3921
g48
(g57
g50
NtRp3922
(dp3923
g53
(dp3924
g61
I1
ssg62
Nsg55
(lp3925
g48
(g64
g50
NtRp3926
(dp3927
g53
(dp3928
sg62
g3922
sg55
(lp3929
g48
(g69
g50
NtRp3930
(dp3931
g53
(dp3932
sg62
g3926
sg55
(lp3933
g48
(g49
g50
NtRp3934
(dp3935
g53
(dp3936
g61
I1
ssg62
g3930
sg55
(lp3937
g3797
(S't\x0b\x00\x00\x00Controlador'
tRp3938
asbasbasbag48
(g64
g50
NtRp3939
(dp3940
g53
(dp3941
sg62
g3922
sg55
(lp3942
g48
(g69
g50
NtRp3943
(dp3944
g53
(dp3945
sg62
g3939
sg55
(lp3946
g48
(g49
g50
NtRp3947
(dp3948
g53
(dp3949
g61
I1
ssg62
g3943
sg55
(lp3950
I00
asbasbasbag48
(g64
g50
NtRp3951
(dp3952
g53
(dp3953
sg62
g3922
sg55
(lp3954
g48
(g69
g50
NtRp3955
(dp3956
g53
(dp3957
sg62
g3951
sg55
(lp3958
g48
(g49
g50
NtRp3959
(dp3960
g53
(dp3961
g61
I1
ssg62
g3955
sg55
(lp3962
S'/admin/default/edit/Desglosar_Emails/controllers/default.py'
p3963
asbasbasbasbasbasbasbag48
(g64
g50
NtRp3964
(dp3965
g53
(dp3966
sg62
g3906
sg55
(lp3967
g48
(g69
g50
NtRp3968
(dp3969
g53
(dp3970
sg62
g3964
sg55
(lp3971
g48
(g49
g50
NtRp3972
(dp3973
g53
(dp3974
g61
I2
ssg62
g3968
sg55
(lp3975
g48
(g57
g50
NtRp3976
(dp3977
g53
(dp3978
g61
I1
ssg62
Nsg55
(lp3979
g48
(g64
g50
NtRp3980
(dp3981
g53
(dp3982
sg62
g3976
sg55
(lp3983
g48
(g69
g50
NtRp3984
(dp3985
g53
(dp3986
sg62
g3980
sg55
(lp3987
g48
(g49
g50
NtRp3988
(dp3989
g53
(dp3990
g61
I1
ssg62
g3984
sg55
(lp3991
g3797
(S't\x05\x00\x00\x00Vista'
tRp3992
asbasbasbag48
(g64
g50
NtRp3993
(dp3994
g53
(dp3995
sg62
g3976
sg55
(lp3996
g48
(g69
g50
NtRp3997
(dp3998
g53
(dp3999
sg62
g3993
sg55
(lp4000
g48
(g49
g50
NtRp4001
(dp4002
g53
(dp4003
g61
I1
ssg62
g3997
sg55
(lp4004
I00
asbasbasbag48
(g64
g50
NtRp4005
(dp4006
g53
(dp4007
sg62
g3976
sg55
(lp4008
g48
(g69
g50
NtRp4009
(dp4010
g53
(dp4011
sg62
g4005
sg55
(lp4012
g48
(g49
g50
NtRp4013
(dp4014
g53
(dp4015
g61
I1
ssg62
g4009
sg55
(lp4016
S'/admin/default/edit/Desglosar_Emails/views/default/entrada_mod3.html'
p4017
asbasbasbasbasbasbasbag48
(g64
g50
NtRp4018
(dp4019
g53
(dp4020
sg62
g3906
sg55
(lp4021
g48
(g69
g50
NtRp4022
(dp4023
g53
(dp4024
sg62
g4018
sg55
(lp4025
g48
(g49
g50
NtRp4026
(dp4027
g53
(dp4028
g61
I2
ssg62
g4022
sg55
(lp4029
g48
(g57
g50
NtRp4030
(dp4031
g53
(dp4032
g61
I1
ssg62
Nsg55
(lp4033
g48
(g64
g50
NtRp4034
(dp4035
g53
(dp4036
sg62
g4030
sg55
(lp4037
g48
(g69
g50
NtRp4038
(dp4039
g53
(dp4040
sg62
g4034
sg55
(lp4041
g48
(g49
g50
NtRp4042
(dp4043
g53
(dp4044
g61
I1
ssg62
g4038
sg55
(lp4045
g3797
(S's\x12\x00\x00\x00Dise\xc3\xb1o de p\xc3\xa1gina'
tRp4046
asbasbasbag48
(g64
g50
NtRp4047
(dp4048
g53
(dp4049
sg62
g4030
sg55
(lp4050
g48
(g69
g50
NtRp4051
(dp4052
g53
(dp4053
sg62
g4047
sg55
(lp4054
g48
(g49
g50
NtRp4055
(dp4056
g53
(dp4057
g61
I1
ssg62
g4051
sg55
(lp4058
I00
asbasbasbag48
(g64
g50
NtRp4059
(dp4060
g53
(dp4061
sg62
g4030
sg55
(lp4062
g48
(g69
g50
NtRp4063
(dp4064
g53
(dp4065
sg62
g4059
sg55
(lp4066
g48
(g49
g50
NtRp4067
(dp4068
g53
(dp4069
g61
I1
ssg62
g4063
sg55
(lp4070
S'/admin/default/edit/Desglosar_Emails/views/layout.html'
p4071
asbasbasbasbasbasbasbag48
(g64
g50
NtRp4072
(dp4073
g53
(dp4074
sg62
g3906
sg55
(lp4075
g48
(g69
g50
NtRp4076
(dp4077
g53
(dp4078
sg62
g4072
sg55
(lp4079
g48
(g49
g50
NtRp4080
(dp4081
g53
(dp4082
g61
I2
ssg62
g4076
sg55
(lp4083
g48
(g57
g50
NtRp4084
(dp4085
g53
(dp4086
g61
I1
ssg62
Nsg55
(lp4087
g48
(g64
g50
NtRp4088
(dp4089
g53
(dp4090
sg62
g4084
sg55
(lp4091
g48
(g69
g50
NtRp4092
(dp4093
g53
(dp4094
sg62
g4088
sg55
(lp4095
g48
(g49
g50
NtRp4096
(dp4097
g53
(dp4098
g61
I1
ssg62
g4092
sg55
(lp4099
g3797
(S's\x0e\x00\x00\x00Hoja de estilo'
tRp4100
asbasbasbag48
(g64
g50
NtRp4101
(dp4102
g53
(dp4103
sg62
g4084
sg55
(lp4104
g48
(g69
g50
NtRp4105
(dp4106
g53
(dp4107
sg62
g4101
sg55
(lp4108
g48
(g49
g50
NtRp4109
(dp4110
g53
(dp4111
g61
I1
ssg62
g4105
sg55
(lp4112
I00
asbasbasbag48
(g64
g50
NtRp4113
(dp4114
g53
(dp4115
sg62
g4084
sg55
(lp4116
g48
(g69
g50
NtRp4117
(dp4118
g53
(dp4119
sg62
g4113
sg55
(lp4120
g48
(g49
g50
NtRp4121
(dp4122
g53
(dp4123
g61
I1
ssg62
g4117
sg55
(lp4124
S'/admin/default/edit/Desglosar_Emails/static/base.css'
p4125
asbasbasbasbasbasbasbag48
(g64
g50
NtRp4126
(dp4127
g53
(dp4128
sg62
g3906
sg55
(lp4129
g48
(g69
g50
NtRp4130
(dp4131
g53
(dp4132
sg62
g4126
sg55
(lp4133
g48
(g49
g50
NtRp4134
(dp4135
g53
(dp4136
g61
I2
ssg62
g4130
sg55
(lp4137
g48
(g57
g50
NtRp4138
(dp4139
g53
(dp4140
g61
I1
ssg62
Nsg55
(lp4141
g48
(g64
g50
NtRp4142
(dp4143
g53
(dp4144
sg62
g4138
sg55
(lp4145
g48
(g69
g50
NtRp4146
(dp4147
g53
(dp4148
sg62
g4142
sg55
(lp4149
g48
(g49
g50
NtRp4150
(dp4151
g53
(dp4152
g61
I1
ssg62
g4146
sg55
(lp4153
g3797
(S's\x0b\x00\x00\x00Modelo "db"'
tRp4154
asbasbasbag48
(g64
g50
NtRp4155
(dp4156
g53
(dp4157
sg62
g4138
sg55
(lp4158
g48
(g69
g50
NtRp4159
(dp4160
g53
(dp4161
sg62
g4155
sg55
(lp4162
g48
(g49
g50
NtRp4163
(dp4164
g53
(dp4165
g61
I1
ssg62
g4159
sg55
(lp4166
I00
asbasbasbag48
(g64
g50
NtRp4167
(dp4168
g53
(dp4169
sg62
g4138
sg55
(lp4170
g48
(g69
g50
NtRp4171
(dp4172
g53
(dp4173
sg62
g4167
sg55
(lp4174
g48
(g49
g50
NtRp4175
(dp4176
g53
(dp4177
g61
I1
ssg62
g4171
sg55
(lp4178
S'/admin/default/edit/Desglosar_Emails/models/db.py'
p4179
asbasbasbasbasbasbasbag48
(g64
g50
NtRp4180
(dp4181
g53
(dp4182
sg62
g3906
sg55
(lp4183
g48
(g69
g50
NtRp4184
(dp4185
g53
(dp4186
sg62
g4180
sg55
(lp4187
g48
(g49
g50
NtRp4188
(dp4189
g53
(dp4190
g61
I2
ssg62
g4184
sg55
(lp4191
g48
(g57
g50
NtRp4192
(dp4193
g53
(dp4194
g61
I1
ssg62
Nsg55
(lp4195
g48
(g64
g50
NtRp4196
(dp4197
g53
(dp4198
sg62
g4192
sg55
(lp4199
g48
(g69
g50
NtRp4200
(dp4201
g53
(dp4202
sg62
g4196
sg55
(lp4203
g48
(g49
g50
NtRp4204
(dp4205
g53
(dp4206
g61
I1
ssg62
g4200
sg55
(lp4207
g3797
(S's\r\x00\x00\x00Modelo "menu"'
tRp4208
asbasbasbag48
(g64
g50
NtRp4209
(dp4210
g53
(dp4211
sg62
g4192
sg55
(lp4212
g48
(g69
g50
NtRp4213
(dp4214
g53
(dp4215
sg62
g4209
sg55
(lp4216
g48
(g49
g50
NtRp4217
(dp4218
g53
(dp4219
g61
I1
ssg62
g4213
sg55
(lp4220
I00
asbasbasbag48
(g64
g50
NtRp4221
(dp4222
g53
(dp4223
sg62
g4192
sg55
(lp4224
g48
(g69
g50
NtRp4225
(dp4226
g53
(dp4227
sg62
g4221
sg55
(lp4228
g48
(g49
g50
NtRp4229
(dp4230
g53
(dp4231
g61
I1
ssg62
g4225
sg55
(lp4232
S'/admin/default/edit/Desglosar_Emails/models/menu.py'
p4233
asbasbasbasbasbasbasbag48
(g64
g50
NtRp4234
(dp4235
g53
(dp4236
sg62
g3906
sg55
(lp4237
g48
(g69
g50
NtRp4238
(dp4239
g53
(dp4240
sg62
g4234
sg55
(lp4241
g48
(g49
g50
NtRp4242
(dp4243
g53
(dp4244
g61
I2
ssg62
g4238
sg55
(lp4245
g48
(g57
g50
NtRp4246
(dp4247
g53
(dp4248
g61
I1
ssg62
Nsg55
(lp4249
g48
(g64
g50
NtRp4250
(dp4251
g53
(dp4252
sg62
g4246
sg55
(lp4253
g48
(g69
g50
NtRp4254
(dp4255
g53
(dp4256
sg62
g4250
sg55
(lp4257
g48
(g49
g50
NtRp4258
(dp4259
g53
(dp4260
g61
I1
ssg62
g4254
sg55
(lp4261
g3797
(S's\r\x00\x00\x00Base de datos'
tRp4262
asbasbasbag48
(g64
g50
NtRp4263
(dp4264
g53
(dp4265
sg62
g4246
sg55
(lp4266
g48
(g69
g50
NtRp4267
(dp4268
g53
(dp4269
sg62
g4263
sg55
(lp4270
g48
(g49
g50
NtRp4271
(dp4272
g53
(dp4273
g61
I1
ssg62
g4267
sg55
(lp4274
I00
asbasbasbag48
(g64
g50
NtRp4275
(dp4276
g53
(dp4277
sg62
g4246
sg55
(lp4278
g48
(g69
g50
NtRp4279
(dp4280
g53
(dp4281
sg62
g4275
sg55
(lp4282
g48
(g49
g50
NtRp4283
(dp4284
g53
(dp4285
g61
I1
ssg62
g4279
sg55
(lp4286
S'/Desglosar_Emails/appadmin/index'
p4287
asbasbasbasbasbasbasbag48
(g64
g50
NtRp4288
(dp4289
g53
(dp4290
sg62
g3906
sg55
(lp4291
g48
(g69
g50
NtRp4292
(dp4293
g53
(dp4294
sg62
g4288
sg55
(lp4295
g48
(g49
g50
NtRp4296
(dp4297
g53
(dp4298
g61
I2
ssg62
g4292
sg55
(lp4299
g48
(g57
g50
NtRp4300
(dp4301
g53
(dp4302
g61
I1
ssg62
Nsg55
(lp4303
g48
(g64
g50
NtRp4304
(dp4305
g53
(dp4306
sg62
g4300
sg55
(lp4307
g48
(g69
g50
NtRp4308
(dp4309
g53
(dp4310
sg62
g4304
sg55
(lp4311
g48
(g49
g50
NtRp4312
(dp4313
g53
(dp4314
g61
I1
ssg62
g4308
sg55
(lp4315
g3797
(S't\x06\x00\x00\x00Errors'
tRp4316
asbasbasbag48
(g64
g50
NtRp4317
(dp4318
g53
(dp4319
sg62
g4300
sg55
(lp4320
g48
(g69
g50
NtRp4321
(dp4322
g53
(dp4323
sg62
g4317
sg55
(lp4324
g48
(g49
g50
NtRp4325
(dp4326
g53
(dp4327
g61
I1
ssg62
g4321
sg55
(lp4328
I00
asbasbasbag48
(g64
g50
NtRp4329
(dp4330
g53
(dp4331
sg62
g4300
sg55
(lp4332
g48
(g69
g50
NtRp4333
(dp4334
g53
(dp4335
sg62
g4329
sg55
(lp4336
g48
(g49
g50
NtRp4337
(dp4338
g53
(dp4339
g61
I1
ssg62
g4333
sg55
(lp4340
S'/admin/default/errors/Desglosar_Emails'
p4341
asbasbasbasbasbasbasbag48
(g64
g50
NtRp4342
(dp4343
g53
(dp4344
sg62
g3906
sg55
(lp4345
g48
(g69
g50
NtRp4346
(dp4347
g53
(dp4348
sg62
g4342
sg55
(lp4349
g48
(g49
g50
NtRp4350
(dp4351
g53
(dp4352
g61
I2
ssg62
g4346
sg55
(lp4353
g48
(g57
g50
NtRp4354
(dp4355
g53
(dp4356
g61
I1
ssg62
Nsg55
(lp4357
g48
(g64
g50
NtRp4358
(dp4359
g53
(dp4360
sg62
g4354
sg55
(lp4361
g48
(g69
g50
NtRp4362
(dp4363
g53
(dp4364
sg62
g4358
sg55
(lp4365
g48
(g49
g50
NtRp4366
(dp4367
g53
(dp4368
g61
I1
ssg62
g4362
sg55
(lp4369
g3797
(S's\t\x00\x00\x00Acerca de'
tRp4370
asbasbasbag48
(g64
g50
NtRp4371
(dp4372
g53
(dp4373
sg62
g4354
sg55
(lp4374
g48
(g69
g50
NtRp4375
(dp4376
g53
(dp4377
sg62
g4371
sg55
(lp4378
g48
(g49
g50
NtRp4379
(dp4380
g53
(dp4381
g61
I1
ssg62
g4375
sg55
(lp4382
I00
asbasbasbag48
(g64
g50
NtRp4383
(dp4384
g53
(dp4385
sg62
g4354
sg55
(lp4386
g48
(g69
g50
NtRp4387
(dp4388
g53
(dp4389
sg62
g4383
sg55
(lp4390
g48
(g49
g50
NtRp4391
(dp4392
g53
(dp4393
g61
I1
ssg62
g4387
sg55
(lp4394
S'/admin/default/about/Desglosar_Emails'
p4395
asbasbasbasbasbasbasbasbasbasbasbasbasbasbasbag48
(g64
g50
NtRp4396
(dp4397
g53
(dp4398
sg62
g3765
sg55
(lp4399
g48
(g69
g50
NtRp4400
(dp4401
g53
(dp4402
sg62
g4396
sg55
(lp4403
g48
(g49
g50
NtRp4404
(dp4405
g53
(dp4406
g61
I4
ssg62
g4400
sg55
(lp4407
g48
(g57
g50
NtRp4408
(dp4409
g53
(dp4410
g61
I3
ssg62
Nsg55
(lp4411
g48
(g64
g50
NtRp4412
(dp4413
g53
(dp4414
sg62
g4408
sg55
(lp4415
g48
(g69
g50
NtRp4416
(dp4417
g53
(dp4418
sg62
g4412
sg55
(lp4419
g48
(g49
g50
NtRp4420
(dp4421
g53
(dp4422
g61
I3
ssg62
g4416
sg55
(lp4423
g3797
(S't\t\x00\x00\x00Resources'
tRp4424
asbasbasbag48
(g64
g50
NtRp4425
(dp4426
g53
(dp4427
sg62
g4408
sg55
(lp4428
g48
(g69
g50
NtRp4429
(dp4430
g53
(dp4431
sg62
g4425
sg55
(lp4432
g48
(g49
g50
NtRp4433
(dp4434
g53
(dp4435
g61
I3
ssg62
g4429
sg55
(lp4436
g91
asbasbasbag48
(g64
g50
NtRp4437
(dp4438
g53
(dp4439
sg62
g4408
sg55
(lp4440
g48
(g69
g50
NtRp4441
(dp4442
g53
(dp4443
sg62
g4437
sg55
(lp4444
g48
(g49
g50
NtRp4445
(dp4446
g53
(dp4447
g61
I3
ssg62
g4441
sg55
(lp4448
S'None'
p4449
asbasbasbag48
(g64
g50
NtRp4450
(dp4451
g53
(dp4452
sg62
g4408
sg55
(lp4453
g48
(g69
g50
NtRp4454
(dp4455
g53
(dp4456
sg62
g4450
sg55
(lp4457
g48
(g49
g50
NtRp4458
(dp4459
g53
(dp4460
g61
I3
ssg62
g4454
sg55
(lp4461
g48
(g57
g50
NtRp4462
(dp4463
g53
(dp4464
g61
I2
ssg62
Nsg55
(lp4465
g48
(g64
g50
NtRp4466
(dp4467
g53
(dp4468
sg62
g4462
sg55
(lp4469
g48
(g69
g50
NtRp4470
(dp4471
g53
(dp4472
sg62
g4466
sg55
(lp4473
g48
(g49
g50
NtRp4474
(dp4475
g53
(dp4476
g61
I2
ssg62
g4470
sg55
(lp4477
g48
(g57
g50
NtRp4478
(dp4479
g53
(dp4480
g61
I1
ssg62
Nsg55
(lp4481
g48
(g64
g50
NtRp4482
(dp4483
g53
(dp4484
sg62
g4478
sg55
(lp4485
g48
(g69
g50
NtRp4486
(dp4487
g53
(dp4488
sg62
g4482
sg55
(lp4489
g48
(g49
g50
NtRp4490
(dp4491
g53
(dp4492
g61
I1
ssg62
g4486
sg55
(lp4493
g3797
(S's\x0e\x00\x00\x00Documentaci\xc3\xb3n'
tRp4494
asbasbasbag48
(g64
g50
NtRp4495
(dp4496
g53
(dp4497
sg62
g4478
sg55
(lp4498
g48
(g69
g50
NtRp4499
(dp4500
g53
(dp4501
sg62
g4495
sg55
(lp4502
g48
(g49
g50
NtRp4503
(dp4504
g53
(dp4505
g61
I1
ssg62
g4499
sg55
(lp4506
I00
asbasbasbag48
(g64
g50
NtRp4507
(dp4508
g53
(dp4509
sg62
g4478
sg55
(lp4510
g48
(g69
g50
NtRp4511
(dp4512
g53
(dp4513
sg62
g4507
sg55
(lp4514
g48
(g49
g50
NtRp4515
(dp4516
g53
(dp4517
g61
I1
ssg62
g4511
sg55
(lp4518
S'http://www.web2py.com/book'
p4519
asbasbasbag48
(g64
g50
NtRp4520
(dp4521
g53
(dp4522
sg62
g4478
sg55
(lp4523
g48
(g69
g50
NtRp4524
(dp4525
g53
(dp4526
sg62
g4520
sg55
(lp4527
g48
(g49
g50
NtRp4528
(dp4529
g53
(dp4530
g61
I1
ssg62
g4524
sg55
(lp4531
(lp4532
(g3797
(S't\x07\x00\x00\x00Preface'
tRp4533
I00
S'http://www.web2py.com/book/default/chapter/00'
tp4534
a(g3797
(S't\x0c\x00\x00\x00Introduction'
tRp4535
I00
S'http://www.web2py.com/book/default/chapter/01'
tp4536
a(g3797
(S't\x06\x00\x00\x00Python'
tRp4537
I00
S'http://www.web2py.com/book/default/chapter/02'
tp4538
a(g3797
(S't\x08\x00\x00\x00Overview'
tRp4539
I00
S'http://www.web2py.com/book/default/chapter/03'
tp4540
a(g3797
(S's\x08\x00\x00\x00The Core'
tRp4541
I00
S'http://www.web2py.com/book/default/chapter/04'
tp4542
a(g3797
(S's\t\x00\x00\x00The Views'
tRp4543
I00
S'http://www.web2py.com/book/default/chapter/05'
tp4544
a(g3797
(S's\r\x00\x00\x00Base de datos'
tRp4545
I00
S'http://www.web2py.com/book/default/chapter/06'
tp4546
a(g3797
(S's\x14\x00\x00\x00Forms and Validators'
tRp4547
I00
S'http://www.web2py.com/book/default/chapter/07'
tp4548
a(g3797
(S's\x0e\x00\x00\x00Access Control'
tRp4549
I00
S'http://www.web2py.com/book/default/chapter/08'
tp4550
a(g3797
(S't\x08\x00\x00\x00Services'
tRp4551
I00
S'http://www.web2py.com/book/default/chapter/09'
tp4552
a(g3797
(S's\x0c\x00\x00\x00Ajax Recipes'
tRp4553
I00
S'http://www.web2py.com/book/default/chapter/10'
tp4554
a(g3797
(S's\x12\x00\x00\x00Deployment Recipes'
tRp4555
I00
S'http://www.web2py.com/book/default/chapter/11'
tp4556
a(g3797
(S's\r\x00\x00\x00Other Recipes'
tRp4557
I00
S'http://www.web2py.com/book/default/chapter/12'
tp4558
a(g3797
(S's\r\x00\x00\x00Buy this book'
tRp4559
I00
S'http://stores.lulu.com/web2py'
tp4560
aasbasbasbasbasbasbasbag48
(g64
g50
NtRp4561
(dp4562
g53
(dp4563
sg62
g4462
sg55
(lp4564
g48
(g69
g50
NtRp4565
(dp4566
g53
(dp4567
sg62
g4561
sg55
(lp4568
g48
(g49
g50
NtRp4569
(dp4570
g53
(dp4571
g61
I2
ssg62
g4565
sg55
(lp4572
g48
(g57
g50
NtRp4573
(dp4574
g53
(dp4575
g61
I1
ssg62
Nsg55
(lp4576
g48
(g64
g50
NtRp4577
(dp4578
g53
(dp4579
sg62
g4573
sg55
(lp4580
g48
(g69
g50
NtRp4581
(dp4582
g53
(dp4583
sg62
g4577
sg55
(lp4584
g48
(g49
g50
NtRp4585
(dp4586
g53
(dp4587
g61
I1
ssg62
g4581
sg55
(lp4588
g3797
(S't\t\x00\x00\x00Community'
tRp4589
asbasbasbag48
(g64
g50
NtRp4590
(dp4591
g53
(dp4592
sg62
g4573
sg55
(lp4593
g48
(g69
g50
NtRp4594
(dp4595
g53
(dp4596
sg62
g4590
sg55
(lp4597
g48
(g49
g50
NtRp4598
(dp4599
g53
(dp4600
g61
I1
ssg62
g4594
sg55
(lp4601
I00
asbasbasbag48
(g64
g50
NtRp4602
(dp4603
g53
(dp4604
sg62
g4573
sg55
(lp4605
g48
(g69
g50
NtRp4606
(dp4607
g53
(dp4608
sg62
g4602
sg55
(lp4609
g48
(g49
g50
NtRp4610
(dp4611
g53
(dp4612
g61
I1
ssg62
g4606
sg55
(lp4613
Nasbasbasbag48
(g64
g50
NtRp4614
(dp4615
g53
(dp4616
sg62
g4573
sg55
(lp4617
g48
(g69
g50
NtRp4618
(dp4619
g53
(dp4620
sg62
g4614
sg55
(lp4621
g48
(g49
g50
NtRp4622
(dp4623
g53
(dp4624
g61
I1
ssg62
g4618
sg55
(lp4625
(lp4626
(g3797
(S't\x06\x00\x00\x00Groups'
tRp4627
I00
S'http://www.web2py.com/examples/default/usergroups'
tp4628
a(g3797
(S't\x07\x00\x00\x00Twitter'
tRp4629
I00
S'http://twitter.com/web2py'
tp4630
a(g3797
(S's\t\x00\x00\x00Live chat'
tRp4631
I00
S'http://mibbit.com/?channel=%23web2py&server=irc.mibbit.net'
tp4632
a(g3797
(S's\n\x00\x00\x00User Voice'
tRp4633
I00
S'http://web2py.uservoice.com/'
tp4634
aasbasbasbasbasbasbasbag48
(g64
g50
NtRp4635
(dp4636
g53
(dp4637
sg62
g4462
sg55
(lp4638
g48
(g69
g50
NtRp4639
(dp4640
g53
(dp4641
sg62
g4635
sg55
(lp4642
g48
(g49
g50
NtRp4643
(dp4644
g53
(dp4645
g61
I2
ssg62
g4639
sg55
(lp4646
g48
(g57
g50
NtRp4647
(dp4648
g53
(dp4649
g61
I1
ssg62
Nsg55
(lp4650
g48
(g64
g50
NtRp4651
(dp4652
g53
(dp4653
sg62
g4647
sg55
(lp4654
g48
(g69
g50
NtRp4655
(dp4656
g53
(dp4657
sg62
g4651
sg55
(lp4658
g48
(g49
g50
NtRp4659
(dp4660
g53
(dp4661
g61
I1
ssg62
g4655
sg55
(lp4662
g3797
(S't\x06\x00\x00\x00Web2py'
tRp4663
asbasbasbag48
(g64
g50
NtRp4664
(dp4665
g53
(dp4666
sg62
g4647
sg55
(lp4667
g48
(g69
g50
NtRp4668
(dp4669
g53
(dp4670
sg62
g4664
sg55
(lp4671
g48
(g49
g50
NtRp4672
(dp4673
g53
(dp4674
g61
I1
ssg62
g4668
sg55
(lp4675
I00
asbasbasbag48
(g64
g50
NtRp4676
(dp4677
g53
(dp4678
sg62
g4647
sg55
(lp4679
g48
(g69
g50
NtRp4680
(dp4681
g53
(dp4682
sg62
g4676
sg55
(lp4683
g48
(g49
g50
NtRp4684
(dp4685
g53
(dp4686
g61
I1
ssg62
g4680
sg55
(lp4687
S'http://www.web2py.com'
p4688
asbasbasbag48
(g64
g50
NtRp4689
(dp4690
g53
(dp4691
sg62
g4647
sg55
(lp4692
g48
(g69
g50
NtRp4693
(dp4694
g53
(dp4695
sg62
g4689
sg55
(lp4696
g48
(g49
g50
NtRp4697
(dp4698
g53
(dp4699
g61
I1
ssg62
g4693
sg55
(lp4700
(lp4701
(g3797
(S't\x08\x00\x00\x00Download'
tRp4702
I00
S'http://www.web2py.com/examples/default/download'
tp4703
a(g3797
(S't\x07\x00\x00\x00Support'
tRp4704
I00
S'http://www.web2py.com/examples/default/support'
tp4705
a(g3797
(S's\x0e\x00\x00\x00Quick Examples'
tRp4706
I00
S'http://web2py.com/examples/default/examples'
tp4707
a(g3797
(S't\x03\x00\x00\x00FAQ'
tRp4708
I00
S'http://web2py.com/AlterEgo'
tp4709
a(g3797
(S's\x11\x00\x00\x00Free Applications'
tRp4710
I00
S'http://web2py.com/appliances'
tp4711
a(g3797
(S't\x07\x00\x00\x00Plugins'
tRp4712
I00
S'http://web2py.com/plugins'
tp4713
a(g3797
(S't\x07\x00\x00\x00Recipes'
tRp4714
I00
S'http://web2pyslices.com/'
tp4715
a(g3797
(S't\x04\x00\x00\x00Demo'
tRp4716
I00
S'http://web2py.com/demo_admin'
tp4717
a(g3797
(S't\x08\x00\x00\x00Semantic'
tRp4718
I00
S'http://web2py.com/semantic'
tp4719
a(g3797
(S't\x07\x00\x00\x00Layouts'
tRp4720
I00
S'http://web2py.com/layouts'
tp4721
a(g3797
(S't\x06\x00\x00\x00Videos'
tRp4722
I00
S'http://www.web2py.com/examples/default/videos/'
tp4723
aasbasbasbasbasbasbasbasbasbasbasbasbasbasbasbasbasbasbasbag48
(g64
g50
NtRp4724
(dp4725
g53
(dp4726
sg62
g3246
sg55
(lp4727
g48
(g69
g50
NtRp4728
(dp4729
g53
(dp4730
g73
g74
ssg62
g4724
sg55
(lp4731
S'meta'
p4732
asbag48
(g69
g50
NtRp4733
(dp4734
g53
(dp4735
g80
g81
ssg62
g4724
sg55
(lp4736
S':'
asbag48
(g69
g50
NtRp4737
(dp4738
g53
(dp4739
sg62
g4724
sg55
(lp4740
g48
(g49
g50
NtRp4741
(dp4742
g53
(dp4743
g61
I5
ssg62
g4737
sg55
(lp4744
g48
(g57
g50
NtRp4745
(dp4746
g53
(dp4747
g61
I4
ssg62
Nsg55
(lp4748
g48
(g64
g50
NtRp4749
(dp4750
g53
(dp4751
sg62
g4745
sg55
(lp4752
g48
(g69
g50
NtRp4753
(dp4754
g53
(dp4755
g73
g74
ssg62
g4749
sg55
(lp4756
S'author'
p4757
asbag48
(g69
g50
NtRp4758
(dp4759
g53
(dp4760
g80
g81
ssg62
g4749
sg55
(lp4761
S':'
asbag48
(g69
g50
NtRp4762
(dp4763
g53
(dp4764
sg62
g4749
sg55
(lp4765
g48
(g49
g50
NtRp4766
(dp4767
g53
(dp4768
g61
I4
ssg62
g4762
sg55
(lp4769
S'you'
p4770
asbasbasbag48
(g64
g50
NtRp4771
(dp4772
g53
(dp4773
sg62
g4745
sg55
(lp4774
g48
(g69
g50
NtRp4775
(dp4776
g53
(dp4777
g73
g74
ssg62
g4771
sg55
(lp4778
S'copyright'
p4779
asbag48
(g69
g50
NtRp4780
(dp4781
g53
(dp4782
g80
g81
ssg62
g4771
sg55
(lp4783
S':'
asbag48
(g69
g50
NtRp4784
(dp4785
g53
(dp4786
sg62
g4771
sg55
(lp4787
g48
(g49
g50
NtRp4788
(dp4789
g53
(dp4790
g61
I4
ssg62
g4784
sg55
(lp4791
S'Copyright 2007-2010'
p4792
asbasbasbag48
(g64
g50
NtRp4793
(dp4794
g53
(dp4795
sg62
g4745
sg55
(lp4796
g48
(g69
g50
NtRp4797
(dp4798
g53
(dp4799
g73
g74
ssg62
g4793
sg55
(lp4800
S'description'
p4801
asbag48
(g69
g50
NtRp4802
(dp4803
g53
(dp4804
g80
g81
ssg62
g4793
sg55
(lp4805
S':'
asbag48
(g69
g50
NtRp4806
(dp4807
g53
(dp4808
sg62
g4793
sg55
(lp4809
g48
(g49
g50
NtRp4810
(dp4811
g53
(dp4812
g61
I4
ssg62
g4806
sg55
(lp4813
S'Free and open source full-stack enterprise framework for agile development of fast, scalable, secure and portable database-driven web-based applications. Written and programmable in Python'
p4814
asbasbasbag48
(g64
g50
NtRp4815
(dp4816
g53
(dp4817
sg62
g4745
sg55
(lp4818
g48
(g69
g50
NtRp4819
(dp4820
g53
(dp4821
g73
g74
ssg62
g4815
sg55
(lp4822
S'generator'
p4823
asbag48
(g69
g50
NtRp4824
(dp4825
g53
(dp4826
g80
g81
ssg62
g4815
sg55
(lp4827
S':'
asbag48
(g69
g50
NtRp4828
(dp4829
g53
(dp4830
sg62
g4815
sg55
(lp4831
g48
(g49
g50
NtRp4832
(dp4833
g53
(dp4834
g61
I4
ssg62
g4828
sg55
(lp4835
S'Web2py Enterprise Framework'
p4836
asbasbasbag48
(g64
g50
NtRp4837
(dp4838
g53
(dp4839
sg62
g4745
sg55
(lp4840
g48
(g69
g50
NtRp4841
(dp4842
g53
(dp4843
g73
g74
ssg62
g4837
sg55
(lp4844
S'keywords'
p4845
asbag48
(g69
g50
NtRp4846
(dp4847
g53
(dp4848
g80
g81
ssg62
g4837
sg55
(lp4849
S':'
asbag48
(g69
g50
NtRp4850
(dp4851
g53
(dp4852
sg62
g4837
sg55
(lp4853
g48
(g49
g50
NtRp4854
(dp4855
g53
(dp4856
g61
I4
ssg62
g4850
sg55
(lp4857
S'web2py, python, framework'
p4858
asbasbasbasbasbasbasbag48
(g64
g50
NtRp4859
(dp4860
g53
(dp4861
sg62
g3246
sg55
(lp4862
g48
(g69
g50
NtRp4863
(dp4864
g53
(dp4865
g73
g74
ssg62
g4859
sg55
(lp4866
S'postprocessing'
p4867
asbag48
(g69
g50
NtRp4868
(dp4869
g53
(dp4870
g80
g81
ssg62
g4859
sg55
(lp4871
S':'
asbag48
(g69
g50
NtRp4872
(dp4873
g53
(dp4874
sg62
g4859
sg55
(lp4875
g48
(g49
g50
NtRp4876
(dp4877
g53
(dp4878
g61
I5
ssg62
g4872
sg55
(lp4879
g48
(g57
g50
NtRp4880
(dp4881
g53
(dp4882
g61
I4
ssg62
Nsg55
(lp4883
sbasbasbasbag48
(g64
g50
NtRp4884
(dp4885
g53
(dp4886
sg62
g3246
sg55
(lp4887
g48
(g69
g50
NtRp4888
(dp4889
g53
(dp4890
g73
g74
ssg62
g4884
sg55
(lp4891
S'session_file'
p4892
asbag48
(g69
g50
NtRp4893
(dp4894
g53
(dp4895
g80
g81
ssg62
g4884
sg55
(lp4896
S':'
asbag48
(g69
g50
NtRp4897
(dp4898
g53
(dp4899
sg62
g4884
sg55
(lp4900
g48
(g49
g50
NtRp4901
(dp4902
g53
(dp4903
g61
I5
ssg62
g4897
sg55
(lp4904
S"<open file 'C:\\Users\\Atomico\\web2py\\applications\\Desglosar_Emails\\sessions\\127.0.0.1-0a11b3b2-660c-433c-b71f-fc129286f26c', mode 'rb+' at 0x07935EC0>"
p4905
asbasbasbag48
(g64
g50
NtRp4906
(dp4907
g53
(dp4908
sg62
g3246
sg55
(lp4909
g48
(g69
g50
NtRp4910
(dp4911
g53
(dp4912
g73
g74
ssg62
g4906
sg55
(lp4913
S'session_filename'
p4914
asbag48
(g69
g50
NtRp4915
(dp4916
g53
(dp4917
g80
g81
ssg62
g4906
sg55
(lp4918
S':'
asbag48
(g69
g50
NtRp4919
(dp4920
g53
(dp4921
sg62
g4906
sg55
(lp4922
g48
(g49
g50
NtRp4923
(dp4924
g53
(dp4925
g61
I5
ssg62
g4919
sg55
(lp4926
S'C:\\Users\\Atomico\\web2py\\applications\\Desglosar_Emails\\sessions\\127.0.0.1-0a11b3b2-660c-433c-b71f-fc129286f26c'
p4927
asbasbasbag48
(g64
g50
NtRp4928
(dp4929
g53
(dp4930
sg62
g3246
sg55
(lp4931
g48
(g69
g50
NtRp4932
(dp4933
g53
(dp4934
g73
g74
ssg62
g4928
sg55
(lp4935
S'session_id'
p4936
asbag48
(g69
g50
NtRp4937
(dp4938
g53
(dp4939
g80
g81
ssg62
g4928
sg55
(lp4940
S':'
asbag48
(g69
g50
NtRp4941
(dp4942
g53
(dp4943
sg62
g4928
sg55
(lp4944
g48
(g49
g50
NtRp4945
(dp4946
g53
(dp4947
g61
I5
ssg62
g4941
sg55
(lp4948
S'127.0.0.1-0a11b3b2-660c-433c-b71f-fc129286f26c'
p4949
asbasbasbag48
(g64
g50
NtRp4950
(dp4951
g53
(dp4952
sg62
g3246
sg55
(lp4953
g48
(g69
g50
NtRp4954
(dp4955
g53
(dp4956
g73
g74
ssg62
g4950
sg55
(lp4957
S'session_id_name'
p4958
asbag48
(g69
g50
NtRp4959
(dp4960
g53
(dp4961
g80
g81
ssg62
g4950
sg55
(lp4962
S':'
asbag48
(g69
g50
NtRp4963
(dp4964
g53
(dp4965
sg62
g4950
sg55
(lp4966
g48
(g49
g50
NtRp4967
(dp4968
g53
(dp4969
g61
I5
ssg62
g4963
sg55
(lp4970
g3303
asbasbasbag48
(g64
g50
NtRp4971
(dp4972
g53
(dp4973
sg62
g3246
sg55
(lp4974
g48
(g69
g50
NtRp4975
(dp4976
g53
(dp4977
g73
g74
ssg62
g4971
sg55
(lp4978
S'session_locked'
p4979
asbag48
(g69
g50
NtRp4980
(dp4981
g53
(dp4982
g80
g81
ssg62
g4971
sg55
(lp4983
S':'
asbag48
(g69
g50
NtRp4984
(dp4985
g53
(dp4986
sg62
g4971
sg55
(lp4987
g48
(g49
g50
NtRp4988
(dp4989
g53
(dp4990
g61
I5
ssg62
g4984
sg55
(lp4991
g2181
asbasbasbag48
(g64
g50
NtRp4992
(dp4993
g53
(dp4994
sg62
g3246
sg55
(lp4995
g48
(g69
g50
NtRp4996
(dp4997
g53
(dp4998
g73
g74
ssg62
g4992
sg55
(lp4999
S'session_new'
p5000
asbag48
(g69
g50
NtRp5001
(dp5002
g53
(dp5003
g80
g81
ssg62
g4992
sg55
(lp5004
S':'
asbag48
(g69
g50
NtRp5005
(dp5006
g53
(dp5007
sg62
g4992
sg55
(lp5008
g48
(g49
g50
NtRp5009
(dp5010
g53
(dp5011
g61
I5
ssg62
g5005
sg55
(lp5012
g91
asbasbasbag48
(g64
g50
NtRp5013
(dp5014
g53
(dp5015
sg62
g3246
sg55
(lp5016
g48
(g69
g50
NtRp5017
(dp5018
g53
(dp5019
g73
g74
ssg62
g5013
sg55
(lp5020
S'status'
p5021
asbag48
(g69
g50
NtRp5022
(dp5023
g53
(dp5024
g80
g81
ssg62
g5013
sg55
(lp5025
S':'
asbag48
(g69
g50
NtRp5026
(dp5027
g53
(dp5028
sg62
g5013
sg55
(lp5029
g48
(g49
g50
NtRp5030
(dp5031
g53
(dp5032
g61
I5
ssg62
g5026
sg55
(lp5033
S'200'
p5034
asbasbasbag48
(g64
g50
NtRp5035
(dp5036
g53
(dp5037
sg62
g3246
sg55
(lp5038
g48
(g69
g50
NtRp5039
(dp5040
g53
(dp5041
g73
g74
ssg62
g5035
sg55
(lp5042
S'subtitle'
p5043
asbag48
(g69
g50
NtRp5044
(dp5045
g53
(dp5046
g80
g81
ssg62
g5035
sg55
(lp5047
S':'
asbag48
(g69
g50
NtRp5048
(dp5049
g53
(dp5050
sg62
g5035
sg55
(lp5051
g48
(g49
g50
NtRp5052
(dp5053
g53
(dp5054
g61
I5
ssg62
g5048
sg55
(lp5055
g3797
(S's\t\x00\x00\x00Adaptame!'
tRp5056
asbasbasbag48
(g64
g50
NtRp5057
(dp5058
g53
(dp5059
sg62
g3246
sg55
(lp5060
g48
(g69
g50
NtRp5061
(dp5062
g53
(dp5063
g73
g74
ssg62
g5057
sg55
(lp5064
S'title'
p5065
asbag48
(g69
g50
NtRp5066
(dp5067
g53
(dp5068
g80
g81
ssg62
g5057
sg55
(lp5069
S':'
asbag48
(g69
g50
NtRp5070
(dp5071
g53
(dp5072
sg62
g5057
sg55
(lp5073
g48
(g49
g50
NtRp5074
(dp5075
g53
(dp5076
g61
I5
ssg62
g5070
sg55
(lp5077
g113
asbasbasbag48
(g64
g50
NtRp5078
(dp5079
g53
(dp5080
sg62
g3246
sg55
(lp5081
g48
(g69
g50
NtRp5082
(dp5083
g53
(dp5084
g73
g74
ssg62
g5078
sg55
(lp5085
g2505
asbag48
(g69
g50
NtRp5086
(dp5087
g53
(dp5088
g80
g81
ssg62
g5078
sg55
(lp5089
S':'
asbag48
(g69
g50
NtRp5090
(dp5091
g53
(dp5092
sg62
g5078
sg55
(lp5093
g48
(g49
g50
NtRp5094
(dp5095
g53
(dp5096
g61
I5
ssg62
g5090
sg55
(lp5097
g2518
asbasbasbag48
(g64
g50
NtRp5098
(dp5099
g53
(dp5100
sg62
g3246
sg55
(lp5101
g48
(g69
g50
NtRp5102
(dp5103
g53
(dp5104
g73
g74
ssg62
g5098
sg55
(lp5105
S'view'
p5106
asbag48
(g69
g50
NtRp5107
(dp5108
g53
(dp5109
g80
g81
ssg62
g5098
sg55
(lp5110
S':'
asbag48
(g69
g50
NtRp5111
(dp5112
g53
(dp5113
sg62
g5098
sg55
(lp5114
g48
(g49
g50
NtRp5115
(dp5116
g53
(dp5117
g61
I5
ssg62
g5111
sg55
(lp5118
S'default/entrada_mod3.html'
p5119
asbasbasbasbasbsS'locals'
p5120
(dp5121
S'OBJECT'
p5122
S"<class 'gluon.html.OBJECT'>"
p5123
sS'_file'
p5124
S"'/Desglosar_Emails/static/js/superfish.js'"
p5125
sS'SQLDB'
p5126
S"<class 'gluon.dal.DAL'>"
p5127
sg3206
S"<Storage {'_Session__hash': 'o\\x10d\\xb8+\\x14.\\x9...reate]': '8e64454b-c140-4083-85f9-d732a0a4f4cc'}>"
p5128
sS'LINK'
p5129
S"<class 'gluon.html.LINK'>"
p5130
sS'BR'
p5131
S"<class 'gluon.html.BR'>"
p5132
sS'local_import'
p5133
S'<function <lambda> at 0x089EC2F0>'
p5134
sS'OPTGROUP'
p5135
S"<class 'gluon.html.OPTGROUP'>"
p5136
sS'encontrado'
p5137
g91
sS'PRE'
p5138
S"<class 'gluon.html.PRE'>"
p5139
sS'IS_INT_IN_RANGE'
p5140
S"<class 'gluon.validators.IS_INT_IN_RANGE'>"
p5141
sS'left_sidebar_enabled'
p5142
g91
sS'IS_LOWER'
p5143
S"<class 'gluon.validators.IS_LOWER'>"
p5144
sS'IS_STRONG'
p5145
S"<class 'gluon.validators.IS_STRONG'>"
p5146
sS'cache'
p5147
S'<gluon.cache.Cache object at 0x08F706B0>'
p5148
sS'IS_IN_DB'
p5149
S"<class 'gluon.validators.IS_IN_DB'>"
p5150
sS'TAG'
p5151
S'<gluon.html.__TAG__ object at 0x026EA730>'
p5152
sS'_k'
p5153
S'5'
sS'SQLField'
p5154
S"<class 'gluon.dal.Field'>"
p5155
sS'BODY'
p5156
S"<class 'gluon.html.BODY'>"
p5157
sS'IS_DATE_IN_RANGE'
p5158
S"<class 'gluon.validators.IS_DATE_IN_RANGE'>"
p5159
sS'TH'
p5160
S"<class 'gluon.html.TH'>"
p5161
sS'URL'
p5162
S'<function URL at 0x02740870>'
p5163
sS'__file__'
p5164
S"r'C:\\Users\\Atomico\\web2py\\applications\\Desglosar_Emails\\views\\default/entrada_mod3.html'"
p5165
sS'db'
p5166
S"<DAL {'_db_codec': 'UTF-8', 'info2': <Table {'AL...ing_references': {}, '_uri': 'sqlite://mydb.db'}>"
p5167
sS'P'
S"<class 'gluon.html.P'>"
p5168
sS'TFOOT'
p5169
S"<class 'gluon.html.TFOOT'>"
p5170
sS'XHTML'
p5171
S"<class 'gluon.html.XHTML'>"
p5172
sS'ON'
p5173
g2181
sS'OL'
p5174
S"<class 'gluon.html.OL'>"
p5175
sS'TEXTAREA'
p5176
S"<class 'gluon.html.TEXTAREA'>"
p5177
sS'MENU'
p5178
S"<class 'gluon.html.MENU'>"
p5179
sS'_file0'
p5180
S"'/desglosar_emails/static/js/superfish.js'"
p5181
sS'LOAD'
p5182
S'<gluon.compileapp.LoadFactory object at 0x08F70610>'
p5183
sS'CODE'
p5184
S"<class 'gluon.html.CODE'>"
p5185
sS'HTTP'
p5186
S"<class 'gluon.http.HTTP'>"
p5187
sS'HR'
p5188
S"<class 'gluon.html.HR'>"
p5189
sS'IS_DATETIME'
p5190
S"<class 'gluon.validators.IS_DATETIME'>"
p5191
sS'HEAD'
p5192
S"<class 'gluon.html.HEAD'>"
p5193
sS'LABEL'
p5194
S"<class 'gluon.html.LABEL'>"
p5195
sS'CLEANUP'
p5196
S"<class 'gluon.validators.CLEANUP'>"
p5197
sS'SELECT'
p5198
S"<class 'gluon.html.SELECT'>"
p5199
sS'CENTER'
p5200
S"<class 'gluon.html.CENTER'>"
p5201
sS'left_sidebar_style'
p5202
S'\'style="display: none;"\''
p5203
sS'__builtins__'
p5204
S"{'ArithmeticError': <type 'exceptions.ArithmeticError'>, 'AssertionError': <type 'exceptions.AssertionError'>, 'AttributeError': <type 'exceptions.AttributeError'>, 'BaseException': <type 'exceptions.BaseException'>, 'DeprecationWarning': <type 'exceptions.DeprecationWarning'>, 'EOFError': <type 'exceptions.EOFError'>, 'Ellipsis': Ellipsis, 'EnvironmentError': <type 'exceptions.EnvironmentError'>, 'Exception': <type 'exceptions.Exception'>, 'False': False, ...}"
p5205
sS'IS_LIST_OF'
p5206
S"<class 'gluon.validators.IS_LIST_OF'>"
p5207
sS'SQLFORM'
p5208
S"<class 'gluon.sqlhtml.SQLFORM'>"
p5209
sS'_item'
p5210
S"'author'"
p5211
sS'EM'
p5212
S"<class 'gluon.html.EM'>"
p5213
sS'redirect'
p5214
S'<function redirect at 0x024EB3B0>'
p5215
sS'FIELDSET'
p5216
S"<class 'gluon.html.FIELDSET'>"
p5217
sS'IS_EQUAL_TO'
p5218
S"<class 'gluon.validators.IS_EQUAL_TO'>"
p5219
sS'embed64'
p5220
S'<function embed64 at 0x027443B0>'
p5221
sS'INPUT'
p5222
S"<class 'gluon.html.INPUT'>"
p5223
sS'EMBED'
p5224
S"<class 'gluon.html.EMBED'>"
p5225
sS'FORM'
p5226
S"<class 'gluon.html.FORM'>"
p5227
sS'width_content'
p5228
S"'100%'"
p5229
sS'H2'
p5230
S"<class 'gluon.html.H2'>"
p5231
sS'H3'
p5232
S"<class 'gluon.html.H3'>"
p5233
sS'BUTTON'
p5234
S"<class 'gluon.html.BUTTON'>"
p5235
sS'H1'
p5236
S"<class 'gluon.html.H1'>"
p5237
sS'H6'
p5238
S"<class 'gluon.html.H6'>"
p5239
sS'H4'
p5240
S"<class 'gluon.html.H4'>"
p5241
sS'H5'
p5242
S"<class 'gluon.html.H5'>"
p5243
sS'UL'
p5244
S"<class 'gluon.html.UL'>"
p5245
sS'IS_UPPER'
p5246
S"<class 'gluon.validators.IS_UPPER'>"
p5247
sS'xmlescape'
p5248
S'<function xmlescape at 0x02740830>'
p5249
sS'IS_TIME'
p5250
S"<class 'gluon.validators.IS_TIME'>"
p5251
sS'OPTION'
p5252
S"<class 'gluon.html.OPTION'>"
p5253
sS'TITLE'
p5254
S"<class 'gluon.html.TITLE'>"
p5255
sS'CRYPT'
p5256
S"<class 'gluon.validators.CRYPT'>"
p5257
sS'IS_EMPTY_OR'
p5258
S"<class 'gluon.validators.IS_EMPTY_OR'>"
p5259
sS'MARKMIN'
p5260
S"<class 'gluon.html.MARKMIN'>"
p5261
sS'cont'
p5262
S'0'
sS'txt'
p5263
S'<gluon.dal.Field object at 0x07581310>'
p5264
sS'SCRIPT'
p5265
S"<class 'gluon.html.SCRIPT'>"
p5266
sS'TABLE'
p5267
S"<class 'gluon.html.TABLE'>"
p5268
sS'IS_IPV4'
p5269
S"<class 'gluon.validators.IS_IPV4'>"
p5270
sS'IS_LENGTH'
p5271
S"<class 'gluon.validators.IS_LENGTH'>"
p5272
sS'XML'
p5273
S"<class 'gluon.html.XML'>"
p5274
sS'B'
S"<class 'gluon.html.B'>"
p5275
sS'form'
p5276
S'<gluon.sqlhtml.SQLFORM object at 0x08DBF3D0>'
p5277
sS'SQLTABLE'
p5278
S"<class 'gluon.sqlhtml.SQLTABLE'>"
p5279
sS'IS_MATCH'
p5280
S"<class 'gluon.validators.IS_MATCH'>"
p5281
sS'IS_ALPHANUMERIC'
p5282
S"<class 'gluon.validators.IS_ALPHANUMERIC'>"
p5283
sS'SPAN'
p5284
S"<class 'gluon.html.SPAN'>"
p5285
sS'IS_SLUG'
p5286
S"<class 'gluon.validators.IS_SLUG'>"
p5287
sS'BEAUTIFY'
p5288
S"<class 'gluon.html.BEAUTIFY'>"
p5289
sS'META'
p5290
S"<class 'gluon.html.META'>"
p5291
sS'IS_DATE'
p5292
S"<class 'gluon.validators.IS_DATE'>"
p5293
sS'IS_EMAIL'
p5294
S"<class 'gluon.validators.IS_EMAIL'>"
p5295
sS'IS_NOT_EMPTY'
p5296
S"<class 'gluon.validators.IS_NOT_EMPTY'>"
p5297
sg47
S"<Storage {'is_local': True, 'function': 'entrada....14-56-47.6c837b36-fcaa-4fac-a9c4-f3394d973bb6'}>"
p5298
sS'TBODY'
p5299
S"<class 'gluon.html.TBODY'>"
p5300
sS'CAT'
p5301
S"<class 'gluon.html.CAT'>"
p5302
sS'Field'
p5303
S"<class 'gluon.dal.Field'>"
p5304
sS'DIV'
p5305
S"<class 'gluon.html.DIV'>"
p5306
sS'LEGEND'
p5307
S"<class 'gluon.html.LEGEND'>"
p5308
sS'IMG'
p5309
S"<class 'gluon.html.IMG'>"
p5310
sS'DAL'
p5311
S"<class 'gluon.dal.DAL'>"
p5312
sS'TT'
p5313
S"<class 'gluon.html.TT'>"
p5314
sS'TR'
p5315
S"<class 'gluon.html.TR'>"
p5316
sS'LI'
p5317
S"<class 'gluon.html.LI'>"
p5318
sS'right_sidebar_enabled'
p5319
g91
sS'IFRAME'
p5320
S"<class 'gluon.html.IFRAME'>"
p5321
sS'TD'
p5322
S"<class 'gluon.html.TD'>"
p5323
sS'IS_URL'
p5324
S"<class 'gluon.validators.IS_URL'>"
p5325
sS'A'
S"<class 'gluon.html.A'>"
p5326
sS'STYLE'
p5327
S"<class 'gluon.html.STYLE'>"
p5328
sS'IS_DATETIME_IN_RANGE'
p5329
S"<class 'gluon.validators.IS_DATETIME_IN_RANGE'>"
p5330
sS'HTML'
p5331
S"<class 'gluon.html.HTML'>"
p5332
sS'IS_IMAGE'
p5333
S"<class 'gluon.validators.IS_IMAGE'>"
p5334
sS'I'
S"<class 'gluon.html.I'>"
p5335
sS'right_sidebar_style'
p5336
S'\'style="display: none;"\''
p5337
sS'IS_NOT_IN_DB'
p5338
S"<class 'gluon.validators.IS_NOT_IN_DB'>"
p5339
sg3241
S"<Storage {'body': <cStringIO.StringO object at 0...x089EC3F0>, 'view': 'default/entrada_mod3.html'}>"
p5340
sS'THEAD'
p5341
S"<class 'gluon.html.THEAD'>"
p5342
sS'IS_NULL_OR'
p5343
S"<class 'gluon.validators.IS_EMPTY_OR'>"
p5344
sS'IS_FLOAT_IN_RANGE'
p5345
S"<class 'gluon.validators.IS_FLOAT_IN_RANGE'>"
p5346
sS'IS_EXPR'
p5347
S"<class 'gluon.validators.IS_EXPR'>"
p5348
sS'T'
S'<gluon.languages.translator object at 0x08F70AF0>'
p5349
sS'IS_IN_SET'
p5350
S"<class 'gluon.validators.IS_IN_SET'>"
p5351
sS'IS_UPLOAD_FILENAME'
p5352
S"<class 'gluon.validators.IS_UPLOAD_FILENAME'>"
p5353
sS'style_content'
p5354
S'\'style="width: 100%"\''
p5355
sS'IS_DECIMAL_IN_RANGE'
p5356
S"<class 'gluon.validators.IS_DECIMAL_IN_RANGE'>"
p5357
sssS'traceback'
p5358
S'Traceback (most recent call last):\n  File "gluon/restricted.py", line 192, in restricted\n  File "C:\\Users\\Atomico\\web2py\\applications\\Desglosar_Emails\\views\\default/entrada_mod3.html", line 106, in <module>\nTypeError: object of type \'Field\' has no len()\n'
p5359
s.