(dp1
S'output'
p2
S''
sS'layer'
p3
S'C:\\Users\\Atomico\\web2py\\applications\\Desglosar_Emails\\views\\default/entrada_mod3.html'
p4
sS'code'
p5
S'response.write(\'<!DOCTYPE html>\\n<html lang="\', escape=False)\nresponse.write(T.accepted_language or \'en\')\nresponse.write(\'" class="no-js"><!-- no-js need it for modernzr -->\\n  <head>\\n    \\n    <meta charset="utf-8" />\\t  \\t\\n    <!-- www.phpied.com/conditional-comments-block-downloads/ -->\\n    <!--[if IE]><![endif]-->    \\n    <!-- Always force latest IE rendering engine \\n\\t (even in intranet) & Chrome Frame \\n\\t Remove this if you use the .htaccess -->\\n    <meta http-equiv="X-UA-Compatible" content="IE=edge,chrome=1">\\n    \\n    <title>\', escape=False)\nresponse.write(response.title or request.application)\nresponse.write(\'</title>\\n    \\n    <!-- http://dev.w3.org/html5/markup/meta.name.html -->\\n    <meta name="application-name" content="\', escape=False)\nresponse.write(request.application)\nresponse.write(\'" />\\t\\n    \\n    <!-- Speaking of Google, don\\\'t forget to set your site up: \\n\\t http://google.com/webmasters -->\\n    <meta name="google-site-verification" content="" />\\n    \\n    <!--  Mobile Viewport Fix\\n\\t  j.mp/mobileviewport & davidbcalhoun.com/2010/viewport-metatag \\n\\t  device-width: Occupy full width of the screen in its current orientation\\n\\t  initial-scale = 1.0 retains dimensions instead of zooming out if page height > device height\\n\\t  maximum-scale = 1.0 retains dimensions instead of zooming in if page width < device width\\n      -->\\n    <meta name="viewport" content="width=device-width, initial-scale=1.0, maximum-scale=1.0">\\n    \\n    <!-- Place favicon.ico and apple-touch-icon.png in the root of your domain and delete these references -->\\n    <link rel="shortcut icon" href="\', escape=False)\nresponse.write(URL(\'static\',\'favicon.ico\'))\nresponse.write(\'" type="image/x-icon">\\n    <link rel="apple-touch-icon" href="\', escape=False)\nresponse.write(URL(\'static\',\'favicon.png\'))\nresponse.write(\'">\\n\\n    <!-- For the less-enabled mobile browsers like Opera Mini -->\\n    <link rel="stylesheet" media="handheld" href="\', escape=False)\nresponse.write(URL(\'static\',\'css/handheld.css\'))\nresponse.write(\'">\\n    \\n    <!-- All JavaScript at the bottom, except for Modernizr which enables HTML5 elements & feature detects -->\\n    <script src="\', escape=False)\nresponse.write(URL(\'static\',\'js/modernizr-1.7.min.js\'))\nresponse.write(\'"></script>\\n    \\n    \', escape=False)\n#------  require CSS and JS files for this page (read info in base.css) ------\nresponse.write(\'\\n    \', escape=False)\nresponse.files.append(URL(\'static\',\'css/base.css\'))\nresponse.write(\'\\n    \', escape=False)\nresponse.files.append(URL(\'static\',\'css/superfish.css\'))\nresponse.write(\'\\n    \', escape=False)\nresponse.files.append(URL(\'static\',\'js/superfish.js\'))\nresponse.write(\'\\n    \', escape=False)\n#------ include web2py specific js code (jquery, calendar, form stuff) ------\nresponse.write(\'\\n    \', escape=False)\nresponse.files.insert(0,URL(\'static\',\'js/jquery.js\'))\nresponse.files.insert(1,URL(\'static\',\'css/calendar.css\'))\nresponse.files.insert(2,URL(\'static\',\'js/calendar.js\'))\nfor _item in response.meta or []:\n    response.write(\'\\n     <meta name="\', escape=False)\n    response.write(_item)\n    response.write(\'" content="\', escape=False)\n    response.write(response.meta[_item])\n    response.write(\'" />\', escape=False)\n    pass\nfor _k,_file in enumerate(response.files or []):\n    if _file in response.files[:_k]:\n        continue\n    _file0=_file.lower().split(\'?\')[0]\n    if _file0.endswith(\'.css\'):\n        response.write(\'\\n     <link href="\', escape=False)\n        response.write(_file)\n        response.write(\'" rel="stylesheet" type="text/css" />\', escape=False)\n    elif _file0.endswith(\'.js\'):\n        response.write(\'\\n     <script src="\', escape=False)\n        response.write(_file)\n        response.write(\'" type="text/javascript"></script>\', escape=False)\n        pass\n    pass\nresponse.write(\'\\n    <script type="text/javascript"><!--\\n    // These variables are used by the web2py_ajax_init function in web2py_ajax.js (which is loaded below).\\n    var w2p_ajax_confirm_message = "\', escape=False)\nresponse.write(T(\'Are you sure you want to delete this object?\'))\nresponse.write(\'";\\n    var w2p_ajax_date_format = "\', escape=False)\nresponse.write(T(\'%Y-%m-%d\'))\nresponse.write(\'";\\n    var w2p_ajax_datetime_format = "\', escape=False)\nresponse.write(T(\'%Y-%m-%d %H:%M:%S\'))\nresponse.write(\'";\\n    //--></script>\\n    <script src="\', escape=False)\nresponse.write(URL(\'static\',\'js/web2py_ajax.js\'))\nresponse.write(\'" type="text/javascript"></script>\\n\', escape=False)\nresponse.write(\'\\n\\n    \', escape=False)\n#using sidebars need to know what sidebar you want to use\n#prior of using it, because of static width size of content, you can use\n#left_sidebar, right_sidebar, both or none (False left and right)\nleft_sidebar_enabled = globals().get(\'left_sidebar_enabled\',False)\nright_sidebar_enabled = globals().get(\'right_sidebar_enabled\',False)\nif left_sidebar_enabled and right_sidebar_enabled: width_content=\'63%\'\nelif left_sidebar_enabled != right_sidebar_enabled: width_content=\'740px\'\nelse: width_content=\'100%\'\nif left_sidebar_enabled: left_sidebar_style = \'style="display: block;"\'\nelse: left_sidebar_style = \'style="display: none;"\'\nif right_sidebar_enabled: right_sidebar_style = \'style="display: block;"\'\nelse: right_sidebar_style = \'style="display: none;"\'\nstyle_content = \'style="width: %s"\' % width_content\nresponse.write(\'\\n  </head>\\n  \\n  <!-- paulirish.com/2008/conditional-stylesheets-vs-css-hacks-answer-neither/ -->\\t\\n  <!--[if lt IE 7 ]> <body class="ie6"> <![endif]-->\\n  <!--[if IE 7 ]>    <body class="ie7"> <![endif]-->\\n  <!--[if IE 8 ]>    <body class="ie8"> <![endif]-->\\n  <!--[if IE 9 ]>    <body class="ie9"> <![endif]-->\\n  <!--[if (gt IE 9)|!(IE)]><!--> <body> <!--<![endif]-->\\n    \\n    <div class="flash">\', escape=False)\nresponse.write(response.flash or \'\')\nresponse.write(\'</div> <!-- notification div -->\\n    \\n    <div id="container">\\t      \\t\\t      \\t\\n      \\n      <div id="wrapper">\\t\\t\\n\\t\\n\\t<div id="header"> <!-- header and login nav -->\\n\\t  \', escape=False)\nresponse.write(\' <!-- this is default header -->\\n\\t  \', escape=False)\ntry:\n    response.write(auth.navbar(action=URL(\'default\',\'user\')))\nexcept:pass\nresponse.write(\'\\t\\t          \\n\\t  <h1><span id="appname">\', escape=False)\nresponse.write(request.application.capitalize())\nresponse.write(\'</span>App</h1>\\n\\t  <div style="clear: both;"></div><!-- Clear the divs -->\\n\\t  \', escape=False)\nresponse.write(\'\\t\\t\\t\\t  \\t\\t\\t\\t\\t  \\n\\t</div><!-- header  -->\\n\\t\\n\\t<div id="statusbar"><!-- statusbar is menu zone -->\\n\\t  \', escape=False)\nresponse.write(\' <!-- this is default statusbar -->\\n\\t  \', escape=False)\n#------ superfish menu ------\nresponse.write(\'\\n\\t  \', escape=False)\nresponse.write(MENU(response.menu,_class=\'sf-menu\'))\nresponse.write(\'\\n\\t  <script type="text/javascript">\\n\\t    jQuery(document).ready(function(){\\n\\t    jQuery(\\\'ul.sf-menu\\\').superfish();});\\n\\t  </script>\\n\\t  <div style="clear: both;"></div><!-- Clear the divs -->\\t\\n\\t  \', escape=False)\nresponse.write(\'\\t\\t\\t\\t\\n\\t</div><!-- statusbar -->\\n\\t\\n\\t<div id="page"> <!-- Here my central body -->\\t  \\n\\n\\t  \', escape=False)\nif left_sidebar_enabled:\n    response.write(\'\\n          <div id="left_sidebar" \', escape=False)\n    response.write(XML(left_sidebar_style))\n    response.write(\' >\\n            <div style="padding: 4px;">\\n\\t      \', escape=False)\n    response.write(\'Content Left Sidebar\', escape=False)\n    response.write(\'\\t\\t  \\n            </div>\\n          </div><!-- left_sidebar -->\\n\\t  \', escape=False)\n    pass\nresponse.write(\'\\n\\n\\t  <!-- content -->\\n\\t  <div id="content" \', escape=False)\nresponse.write(XML(style_content))\nresponse.write(\' >\\n\\t    \', escape=False)\nresponse.write(\'\\r\\n<h1>Esta es la plantilla default/entrada_mod3.html</h1>\\r\\n<h2>Formulario</h2>\\r\\n\', escape=False)\nresponse.write(form)\nresponse.write(\'\\r\\n<br/>\\r\\n<h3>Tratamientos</h3>\\r\\n\', escape=False)\nencontrado=False\ncont=0\ntxt=db.info2.texto\n<<!--\nfor i in range(len(txt)):\n    if encontrado==False and txt[i]==\'@\':\n        encontrado=True\n        posf=i\n    else: pass\n    pass\nresponse.write(posf)-->\nresponse.write(\' \\r\\n es la posf\\r\\n\', escape=False)\nresponse.write(\'\\t\\n\\t  </div>\\n\\t  <!-- content -->\\n\\n\\t  \', escape=False)\nif right_sidebar_enabled:\n    response.write(\'\\n          <div id="right_sidebar" \', escape=False)\n    response.write(XML(right_sidebar_style))\n    response.write(\' >\\n            <div style="padding: 4px;">\\n              \', escape=False)\n    response.write(\'Content Right Sidebar\', escape=False)\n    response.write(\'\\n            </div>\\n\\t  </div><!-- right_sidebar -->\\n          \', escape=False)\n    pass\nresponse.write(\'\\n\\n\\n\\t  <div style="clear: both;"></div><!-- Clear the divs -->\\n\\t  \\n\\t</div><!-- page -->\\t\\t\\t\\t\\t\\t\\t\\n\\t\\n\\t<div id="footer">\\n\\t  \', escape=False)\nresponse.write(\' <!-- this is default footer -->\\n\\t  <a href="http://www.web2py.com/" style="float: left; padding-right: 6px;">\\n\\t    <img src="\', escape=False)\nresponse.write(URL(\'static\',\'images/poweredby.png\'))\nresponse.write(\'"/>\\n\\t  </a>\\n\\t  \', escape=False)\nresponse.write(T(\'Copyright\'))\nresponse.write(\' &#169; 2010\\t\\t\\t\\t\\n\\t  <div style="clear: both;"></div><!-- Clear the divs -->\\n\\t  \', escape=False)\nresponse.write(\'\\n\\n\\t</div><!-- footer -->\\t\\t\\t\\n      </div><!-- wrapper -->\\n    </div><!-- container -->\\t\\t\\n    \\n    <!--[if lt IE 7 ]>\\n\\t<script src="\', escape=False)\nresponse.write(URL(\'static\',\'js/dd_belatedpng.js\'))\nresponse.write(\'"></script>\\n\\t<script> DD_belatedPNG.fix(\\\'img, .png_bg\\\'); //fix any <img> or .png_bg background-images </script>\\n\\t<![endif]-->\\n    \\n    <!-- asynchronous google analytics: mathiasbynens.be/notes/async-analytics-snippet \\n\\t change the UA-XXXXX-X to be your site\\\'s ID -->\\n    <!--   \\n\\t   <script>\\n\\t     var _gaq = [[\\\'_setAccount\\\', \\\'UA-XXXXX-X\\\'], [\\\'_trackPageview\\\']];\\n\\t     (function(d, t) {\\n\\t     var g = d.createElement(t),\\n\\t     s = d.getElementsByTagName(t)[0];\\n\\t     g.async = true;\\n\\t     g.src = \\\'//www.google-analytics.com/ga.js\\\';\\n\\t     s.parentNode.insertBefore(g, s);\\n\\t     })(document, \\\'script\\\');\\n\\t   </script>\\n\\t   -->    \\n  </body>\\n</html>\\n\', escape=False)'
p6
sS'snapshot'
p7
(dp8
S'exception'
p9
(dp10
S'__getslice__'
p11
S"<method-wrapper '__getslice__' of exceptions.SyntaxError object at 0x0755F470>"
p12
sS'text'
p13
S"'<<!--\\n'"
p14
sS'__str__'
p15
S"<method-wrapper '__str__' of exceptions.SyntaxError object at 0x0755F470>"
p16
sS'__reduce__'
p17
S'<built-in method __reduce__ of exceptions.SyntaxError object at 0x0755F470>'
p18
sS'__dict__'
p19
S'{}'
p20
sS'__init__'
p21
S"<method-wrapper '__init__' of exceptions.SyntaxError object at 0x0755F470>"
p22
sS'__setattr__'
p23
S"<method-wrapper '__setattr__' of exceptions.SyntaxError object at 0x0755F470>"
p24
sS'__reduce_ex__'
p25
S'<built-in method __reduce_ex__ of exceptions.SyntaxError object at 0x0755F470>'
p26
sS'__new__'
p27
S'<built-in method __new__ of type object at 0x1E1CDBD0>'
p28
sS'__class__'
p29
S"<type 'exceptions.SyntaxError'>"
p30
sS'filename'
p31
S"r'C:\\Users\\Atomico\\web2py\\applications\\Desglosar_Emails\\views\\default/entrada_mod3.html'"
p32
sS'lineno'
p33
S'106'
p34
sS'msg'
p35
S"'invalid syntax'"
p36
sS'__doc__'
p37
S"'Invalid syntax.'"
p38
sS'__getitem__'
p39
S"<method-wrapper '__getitem__' of exceptions.SyntaxError object at 0x0755F470>"
p40
sS'__setstate__'
p41
S'<built-in method __setstate__ of exceptions.SyntaxError object at 0x0755F470>'
p42
sS'__getattribute__'
p43
S"<method-wrapper '__getattribute__' of exceptions.SyntaxError object at 0x0755F470>"
p44
sS'print_file_and_line'
p45
S'None'
p46
sS'args'
p47
S"('invalid syntax', (r'C:\\Users\\Atomico\\web2py\\applications\\Desglosar_Emails\\views\\default/entrada_mod3.html', 106, 2, '<<!--\\n'))"
p48
sS'offset'
p49
S'2'
sS'__delattr__'
p50
S"<method-wrapper '__delattr__' of exceptions.SyntaxError object at 0x0755F470>"
p51
sS'__repr__'
p52
S"<method-wrapper '__repr__' of exceptions.SyntaxError object at 0x0755F470>"
p53
sS'__hash__'
p54
S"<method-wrapper '__hash__' of exceptions.SyntaxError object at 0x0755F470>"
p55
ssS'evalue'
p56
S'invalid syntax (default/entrada_mod3.html, line 106)'
p57
sS'request'
p58
ccopy_reg
_reconstructor
p59
(cgluon.html
BEAUTIFY
p60
c__builtin__
object
p61
NtRp62
(dp63
S'attributes'
p64
(dp65
sS'components'
p66
(lp67
g59
(cgluon.html
TABLE
p68
g61
NtRp69
(dp70
g64
(dp71
S'level'
p72
I5
ssS'parent'
p73
Nsg66
(lp74
g59
(cgluon.html
TR
p75
g61
NtRp76
(dp77
g64
(dp78
sg73
g69
sg66
(lp79
g59
(cgluon.html
TD
p80
g61
NtRp81
(dp82
g64
(dp83
S'_style'
p84
S'font-weight:bold;'
p85
ssg73
g76
sg66
(lp86
S'ajax'
p87
asbag59
(g80
g61
NtRp88
(dp89
g64
(dp90
S'_valign'
p91
S'top'
p92
ssg73
g76
sg66
(lp93
S':'
asbag59
(g80
g61
NtRp94
(dp95
g64
(dp96
sg73
g76
sg66
(lp97
g59
(g60
g61
NtRp98
(dp99
g64
(dp100
g72
I5
ssg73
g94
sg66
(lp101
S'False'
p102
asbasbasbag59
(g75
g61
NtRp103
(dp104
g64
(dp105
sg73
g69
sg66
(lp106
g59
(g80
g61
NtRp107
(dp108
g64
(dp109
g84
g85
ssg73
g103
sg66
(lp110
S'application'
p111
asbag59
(g80
g61
NtRp112
(dp113
g64
(dp114
g91
g92
ssg73
g103
sg66
(lp115
S':'
asbag59
(g80
g61
NtRp116
(dp117
g64
(dp118
sg73
g103
sg66
(lp119
g59
(g60
g61
NtRp120
(dp121
g64
(dp122
g72
I5
ssg73
g116
sg66
(lp123
S'Desglosar_Emails'
p124
asbasbasbag59
(g75
g61
NtRp125
(dp126
g64
(dp127
sg73
g69
sg66
(lp128
g59
(g80
g61
NtRp129
(dp130
g64
(dp131
g84
g85
ssg73
g125
sg66
(lp132
g47
asbag59
(g80
g61
NtRp133
(dp134
g64
(dp135
g91
g92
ssg73
g125
sg66
(lp136
S':'
asbag59
(g80
g61
NtRp137
(dp138
g64
(dp139
sg73
g125
sg66
(lp140
g59
(g60
g61
NtRp141
(dp142
g64
(dp143
g72
I5
ssg73
g137
sg66
(lp144
g59
(g68
g61
NtRp145
(dp146
g64
(dp147
g72
I4
ssg73
Nsg66
(lp148
sbasbasbasbag59
(g75
g61
NtRp149
(dp150
g64
(dp151
sg73
g69
sg66
(lp152
g59
(g80
g61
NtRp153
(dp154
g64
(dp155
g84
g85
ssg73
g149
sg66
(lp156
S'body'
p157
asbag59
(g80
g61
NtRp158
(dp159
g64
(dp160
g91
g92
ssg73
g149
sg66
(lp161
S':'
asbag59
(g80
g61
NtRp162
(dp163
g64
(dp164
sg73
g149
sg66
(lp165
g59
(g60
g61
NtRp166
(dp167
g64
(dp168
g72
I5
ssg73
g162
sg66
(lp169
S'<cStringIO.StringO object at 0x07CC1540>'
p170
asbasbasbag59
(g75
g61
NtRp171
(dp172
g64
(dp173
sg73
g69
sg66
(lp174
g59
(g80
g61
NtRp175
(dp176
g64
(dp177
g84
g85
ssg73
g171
sg66
(lp178
S'client'
p179
asbag59
(g80
g61
NtRp180
(dp181
g64
(dp182
g91
g92
ssg73
g171
sg66
(lp183
S':'
asbag59
(g80
g61
NtRp184
(dp185
g64
(dp186
sg73
g171
sg66
(lp187
g59
(g60
g61
NtRp188
(dp189
g64
(dp190
g72
I5
ssg73
g184
sg66
(lp191
S'127.0.0.1'
p192
asbasbasbag59
(g75
g61
NtRp193
(dp194
g64
(dp195
sg73
g69
sg66
(lp196
g59
(g80
g61
NtRp197
(dp198
g64
(dp199
g84
g85
ssg73
g193
sg66
(lp200
S'controller'
p201
asbag59
(g80
g61
NtRp202
(dp203
g64
(dp204
g91
g92
ssg73
g193
sg66
(lp205
S':'
asbag59
(g80
g61
NtRp206
(dp207
g64
(dp208
sg73
g193
sg66
(lp209
g59
(g60
g61
NtRp210
(dp211
g64
(dp212
g72
I5
ssg73
g206
sg66
(lp213
S'default'
p214
asbasbasbag59
(g75
g61
NtRp215
(dp216
g64
(dp217
sg73
g69
sg66
(lp218
g59
(g80
g61
NtRp219
(dp220
g64
(dp221
g84
g85
ssg73
g215
sg66
(lp222
S'cookies'
p223
asbag59
(g80
g61
NtRp224
(dp225
g64
(dp226
g91
g92
ssg73
g215
sg66
(lp227
S':'
asbag59
(g80
g61
NtRp228
(dp229
g64
(dp230
sg73
g215
sg66
(lp231
g59
(g60
g61
NtRp232
(dp233
g64
(dp234
g72
I5
ssg73
g228
sg66
(lp235
g59
(g68
g61
NtRp236
(dp237
g64
(dp238
g72
I4
ssg73
Nsg66
(lp239
g59
(g75
g61
NtRp240
(dp241
g64
(dp242
sg73
g236
sg66
(lp243
g59
(g80
g61
NtRp244
(dp245
g64
(dp246
g84
g85
ssg73
g240
sg66
(lp247
S'session_id_admin'
p248
asbag59
(g80
g61
NtRp249
(dp250
g64
(dp251
g91
g92
ssg73
g240
sg66
(lp252
S':'
asbag59
(g80
g61
NtRp253
(dp254
g64
(dp255
sg73
g240
sg66
(lp256
g59
(g60
g61
NtRp257
(dp258
g64
(dp259
g72
I4
ssg73
g253
sg66
(lp260
g59
(g68
g61
NtRp261
(dp262
g64
(dp263
g72
I3
ssg73
Nsg66
(lp264
g59
(g75
g61
NtRp265
(dp266
g64
(dp267
sg73
g261
sg66
(lp268
g59
(g80
g61
NtRp269
(dp270
g64
(dp271
g84
g85
ssg73
g265
sg66
(lp272
S'comment'
p273
asbag59
(g80
g61
NtRp274
(dp275
g64
(dp276
g91
g92
ssg73
g265
sg66
(lp277
S':'
asbag59
(g80
g61
NtRp278
(dp279
g64
(dp280
sg73
g265
sg66
(lp281
g59
(g60
g61
NtRp282
(dp283
g64
(dp284
g72
I3
ssg73
g278
sg66
(lp285
S''
asbasbasbag59
(g75
g61
NtRp286
(dp287
g64
(dp288
sg73
g261
sg66
(lp289
g59
(g80
g61
NtRp290
(dp291
g64
(dp292
g84
g85
ssg73
g286
sg66
(lp293
S'domain'
p294
asbag59
(g80
g61
NtRp295
(dp296
g64
(dp297
g91
g92
ssg73
g286
sg66
(lp298
S':'
asbag59
(g80
g61
NtRp299
(dp300
g64
(dp301
sg73
g286
sg66
(lp302
g59
(g60
g61
NtRp303
(dp304
g64
(dp305
g72
I3
ssg73
g299
sg66
(lp306
S''
asbasbasbag59
(g75
g61
NtRp307
(dp308
g64
(dp309
sg73
g261
sg66
(lp310
g59
(g80
g61
NtRp311
(dp312
g64
(dp313
g84
g85
ssg73
g307
sg66
(lp314
S'expires'
p315
asbag59
(g80
g61
NtRp316
(dp317
g64
(dp318
g91
g92
ssg73
g307
sg66
(lp319
S':'
asbag59
(g80
g61
NtRp320
(dp321
g64
(dp322
sg73
g307
sg66
(lp323
g59
(g60
g61
NtRp324
(dp325
g64
(dp326
g72
I3
ssg73
g320
sg66
(lp327
S''
asbasbasbag59
(g75
g61
NtRp328
(dp329
g64
(dp330
sg73
g261
sg66
(lp331
g59
(g80
g61
NtRp332
(dp333
g64
(dp334
g84
g85
ssg73
g328
sg66
(lp335
S'max-age'
p336
asbag59
(g80
g61
NtRp337
(dp338
g64
(dp339
g91
g92
ssg73
g328
sg66
(lp340
S':'
asbag59
(g80
g61
NtRp341
(dp342
g64
(dp343
sg73
g328
sg66
(lp344
g59
(g60
g61
NtRp345
(dp346
g64
(dp347
g72
I3
ssg73
g341
sg66
(lp348
S''
asbasbasbag59
(g75
g61
NtRp349
(dp350
g64
(dp351
sg73
g261
sg66
(lp352
g59
(g80
g61
NtRp353
(dp354
g64
(dp355
g84
g85
ssg73
g349
sg66
(lp356
S'path'
p357
asbag59
(g80
g61
NtRp358
(dp359
g64
(dp360
g91
g92
ssg73
g349
sg66
(lp361
S':'
asbag59
(g80
g61
NtRp362
(dp363
g64
(dp364
sg73
g349
sg66
(lp365
g59
(g60
g61
NtRp366
(dp367
g64
(dp368
g72
I3
ssg73
g362
sg66
(lp369
S''
asbasbasbag59
(g75
g61
NtRp370
(dp371
g64
(dp372
sg73
g261
sg66
(lp373
g59
(g80
g61
NtRp374
(dp375
g64
(dp376
g84
g85
ssg73
g370
sg66
(lp377
S'secure'
p378
asbag59
(g80
g61
NtRp379
(dp380
g64
(dp381
g91
g92
ssg73
g370
sg66
(lp382
S':'
asbag59
(g80
g61
NtRp383
(dp384
g64
(dp385
sg73
g370
sg66
(lp386
g59
(g60
g61
NtRp387
(dp388
g64
(dp389
g72
I3
ssg73
g383
sg66
(lp390
S''
asbasbasbag59
(g75
g61
NtRp391
(dp392
g64
(dp393
sg73
g261
sg66
(lp394
g59
(g80
g61
NtRp395
(dp396
g64
(dp397
g84
g85
ssg73
g391
sg66
(lp398
S'version'
p399
asbag59
(g80
g61
NtRp400
(dp401
g64
(dp402
g91
g92
ssg73
g391
sg66
(lp403
S':'
asbag59
(g80
g61
NtRp404
(dp405
g64
(dp406
sg73
g391
sg66
(lp407
g59
(g60
g61
NtRp408
(dp409
g64
(dp410
g72
I3
ssg73
g404
sg66
(lp411
S''
asbasbasbasbasbasbasbag59
(g75
g61
NtRp412
(dp413
g64
(dp414
sg73
g236
sg66
(lp415
g59
(g80
g61
NtRp416
(dp417
g64
(dp418
g84
g85
ssg73
g412
sg66
(lp419
S'session_id_cual_es_tu_nombre'
p420
asbag59
(g80
g61
NtRp421
(dp422
g64
(dp423
g91
g92
ssg73
g412
sg66
(lp424
S':'
asbag59
(g80
g61
NtRp425
(dp426
g64
(dp427
sg73
g412
sg66
(lp428
g59
(g60
g61
NtRp429
(dp430
g64
(dp431
g72
I4
ssg73
g425
sg66
(lp432
g59
(g68
g61
NtRp433
(dp434
g64
(dp435
g72
I3
ssg73
Nsg66
(lp436
g59
(g75
g61
NtRp437
(dp438
g64
(dp439
sg73
g433
sg66
(lp440
g59
(g80
g61
NtRp441
(dp442
g64
(dp443
g84
g85
ssg73
g437
sg66
(lp444
g273
asbag59
(g80
g61
NtRp445
(dp446
g64
(dp447
g91
g92
ssg73
g437
sg66
(lp448
S':'
asbag59
(g80
g61
NtRp449
(dp450
g64
(dp451
sg73
g437
sg66
(lp452
g59
(g60
g61
NtRp453
(dp454
g64
(dp455
g72
I3
ssg73
g449
sg66
(lp456
S''
asbasbasbag59
(g75
g61
NtRp457
(dp458
g64
(dp459
sg73
g433
sg66
(lp460
g59
(g80
g61
NtRp461
(dp462
g64
(dp463
g84
g85
ssg73
g457
sg66
(lp464
g294
asbag59
(g80
g61
NtRp465
(dp466
g64
(dp467
g91
g92
ssg73
g457
sg66
(lp468
S':'
asbag59
(g80
g61
NtRp469
(dp470
g64
(dp471
sg73
g457
sg66
(lp472
g59
(g60
g61
NtRp473
(dp474
g64
(dp475
g72
I3
ssg73
g469
sg66
(lp476
S''
asbasbasbag59
(g75
g61
NtRp477
(dp478
g64
(dp479
sg73
g433
sg66
(lp480
g59
(g80
g61
NtRp481
(dp482
g64
(dp483
g84
g85
ssg73
g477
sg66
(lp484
g315
asbag59
(g80
g61
NtRp485
(dp486
g64
(dp487
g91
g92
ssg73
g477
sg66
(lp488
S':'
asbag59
(g80
g61
NtRp489
(dp490
g64
(dp491
sg73
g477
sg66
(lp492
g59
(g60
g61
NtRp493
(dp494
g64
(dp495
g72
I3
ssg73
g489
sg66
(lp496
S''
asbasbasbag59
(g75
g61
NtRp497
(dp498
g64
(dp499
sg73
g433
sg66
(lp500
g59
(g80
g61
NtRp501
(dp502
g64
(dp503
g84
g85
ssg73
g497
sg66
(lp504
g336
asbag59
(g80
g61
NtRp505
(dp506
g64
(dp507
g91
g92
ssg73
g497
sg66
(lp508
S':'
asbag59
(g80
g61
NtRp509
(dp510
g64
(dp511
sg73
g497
sg66
(lp512
g59
(g60
g61
NtRp513
(dp514
g64
(dp515
g72
I3
ssg73
g509
sg66
(lp516
S''
asbasbasbag59
(g75
g61
NtRp517
(dp518
g64
(dp519
sg73
g433
sg66
(lp520
g59
(g80
g61
NtRp521
(dp522
g64
(dp523
g84
g85
ssg73
g517
sg66
(lp524
g357
asbag59
(g80
g61
NtRp525
(dp526
g64
(dp527
g91
g92
ssg73
g517
sg66
(lp528
S':'
asbag59
(g80
g61
NtRp529
(dp530
g64
(dp531
sg73
g517
sg66
(lp532
g59
(g60
g61
NtRp533
(dp534
g64
(dp535
g72
I3
ssg73
g529
sg66
(lp536
S''
asbasbasbag59
(g75
g61
NtRp537
(dp538
g64
(dp539
sg73
g433
sg66
(lp540
g59
(g80
g61
NtRp541
(dp542
g64
(dp543
g84
g85
ssg73
g537
sg66
(lp544
g378
asbag59
(g80
g61
NtRp545
(dp546
g64
(dp547
g91
g92
ssg73
g537
sg66
(lp548
S':'
asbag59
(g80
g61
NtRp549
(dp550
g64
(dp551
sg73
g537
sg66
(lp552
g59
(g60
g61
NtRp553
(dp554
g64
(dp555
g72
I3
ssg73
g549
sg66
(lp556
S''
asbasbasbag59
(g75
g61
NtRp557
(dp558
g64
(dp559
sg73
g433
sg66
(lp560
g59
(g80
g61
NtRp561
(dp562
g64
(dp563
g84
g85
ssg73
g557
sg66
(lp564
g399
asbag59
(g80
g61
NtRp565
(dp566
g64
(dp567
g91
g92
ssg73
g557
sg66
(lp568
S':'
asbag59
(g80
g61
NtRp569
(dp570
g64
(dp571
sg73
g557
sg66
(lp572
g59
(g60
g61
NtRp573
(dp574
g64
(dp575
g72
I3
ssg73
g569
sg66
(lp576
S''
asbasbasbasbasbasbasbag59
(g75
g61
NtRp577
(dp578
g64
(dp579
sg73
g236
sg66
(lp580
g59
(g80
g61
NtRp581
(dp582
g64
(dp583
g84
g85
ssg73
g577
sg66
(lp584
S'session_id_desglosar_emails'
p585
asbag59
(g80
g61
NtRp586
(dp587
g64
(dp588
g91
g92
ssg73
g577
sg66
(lp589
S':'
asbag59
(g80
g61
NtRp590
(dp591
g64
(dp592
sg73
g577
sg66
(lp593
g59
(g60
g61
NtRp594
(dp595
g64
(dp596
g72
I4
ssg73
g590
sg66
(lp597
g59
(g68
g61
NtRp598
(dp599
g64
(dp600
g72
I3
ssg73
Nsg66
(lp601
g59
(g75
g61
NtRp602
(dp603
g64
(dp604
sg73
g598
sg66
(lp605
g59
(g80
g61
NtRp606
(dp607
g64
(dp608
g84
g85
ssg73
g602
sg66
(lp609
g273
asbag59
(g80
g61
NtRp610
(dp611
g64
(dp612
g91
g92
ssg73
g602
sg66
(lp613
S':'
asbag59
(g80
g61
NtRp614
(dp615
g64
(dp616
sg73
g602
sg66
(lp617
g59
(g60
g61
NtRp618
(dp619
g64
(dp620
g72
I3
ssg73
g614
sg66
(lp621
S''
asbasbasbag59
(g75
g61
NtRp622
(dp623
g64
(dp624
sg73
g598
sg66
(lp625
g59
(g80
g61
NtRp626
(dp627
g64
(dp628
g84
g85
ssg73
g622
sg66
(lp629
g294
asbag59
(g80
g61
NtRp630
(dp631
g64
(dp632
g91
g92
ssg73
g622
sg66
(lp633
S':'
asbag59
(g80
g61
NtRp634
(dp635
g64
(dp636
sg73
g622
sg66
(lp637
g59
(g60
g61
NtRp638
(dp639
g64
(dp640
g72
I3
ssg73
g634
sg66
(lp641
S''
asbasbasbag59
(g75
g61
NtRp642
(dp643
g64
(dp644
sg73
g598
sg66
(lp645
g59
(g80
g61
NtRp646
(dp647
g64
(dp648
g84
g85
ssg73
g642
sg66
(lp649
g315
asbag59
(g80
g61
NtRp650
(dp651
g64
(dp652
g91
g92
ssg73
g642
sg66
(lp653
S':'
asbag59
(g80
g61
NtRp654
(dp655
g64
(dp656
sg73
g642
sg66
(lp657
g59
(g60
g61
NtRp658
(dp659
g64
(dp660
g72
I3
ssg73
g654
sg66
(lp661
S''
asbasbasbag59
(g75
g61
NtRp662
(dp663
g64
(dp664
sg73
g598
sg66
(lp665
g59
(g80
g61
NtRp666
(dp667
g64
(dp668
g84
g85
ssg73
g662
sg66
(lp669
g336
asbag59
(g80
g61
NtRp670
(dp671
g64
(dp672
g91
g92
ssg73
g662
sg66
(lp673
S':'
asbag59
(g80
g61
NtRp674
(dp675
g64
(dp676
sg73
g662
sg66
(lp677
g59
(g60
g61
NtRp678
(dp679
g64
(dp680
g72
I3
ssg73
g674
sg66
(lp681
S''
asbasbasbag59
(g75
g61
NtRp682
(dp683
g64
(dp684
sg73
g598
sg66
(lp685
g59
(g80
g61
NtRp686
(dp687
g64
(dp688
g84
g85
ssg73
g682
sg66
(lp689
g357
asbag59
(g80
g61
NtRp690
(dp691
g64
(dp692
g91
g92
ssg73
g682
sg66
(lp693
S':'
asbag59
(g80
g61
NtRp694
(dp695
g64
(dp696
sg73
g682
sg66
(lp697
g59
(g60
g61
NtRp698
(dp699
g64
(dp700
g72
I3
ssg73
g694
sg66
(lp701
S''
asbasbasbag59
(g75
g61
NtRp702
(dp703
g64
(dp704
sg73
g598
sg66
(lp705
g59
(g80
g61
NtRp706
(dp707
g64
(dp708
g84
g85
ssg73
g702
sg66
(lp709
g378
asbag59
(g80
g61
NtRp710
(dp711
g64
(dp712
g91
g92
ssg73
g702
sg66
(lp713
S':'
asbag59
(g80
g61
NtRp714
(dp715
g64
(dp716
sg73
g702
sg66
(lp717
g59
(g60
g61
NtRp718
(dp719
g64
(dp720
g72
I3
ssg73
g714
sg66
(lp721
S''
asbasbasbag59
(g75
g61
NtRp722
(dp723
g64
(dp724
sg73
g598
sg66
(lp725
g59
(g80
g61
NtRp726
(dp727
g64
(dp728
g84
g85
ssg73
g722
sg66
(lp729
g399
asbag59
(g80
g61
NtRp730
(dp731
g64
(dp732
g91
g92
ssg73
g722
sg66
(lp733
S':'
asbag59
(g80
g61
NtRp734
(dp735
g64
(dp736
sg73
g722
sg66
(lp737
g59
(g60
g61
NtRp738
(dp739
g64
(dp740
g72
I3
ssg73
g734
sg66
(lp741
S''
asbasbasbasbasbasbasbag59
(g75
g61
NtRp742
(dp743
g64
(dp744
sg73
g236
sg66
(lp745
g59
(g80
g61
NtRp746
(dp747
g64
(dp748
g84
g85
ssg73
g742
sg66
(lp749
S'session_id_hemoal'
p750
asbag59
(g80
g61
NtRp751
(dp752
g64
(dp753
g91
g92
ssg73
g742
sg66
(lp754
S':'
asbag59
(g80
g61
NtRp755
(dp756
g64
(dp757
sg73
g742
sg66
(lp758
g59
(g60
g61
NtRp759
(dp760
g64
(dp761
g72
I4
ssg73
g755
sg66
(lp762
g59
(g68
g61
NtRp763
(dp764
g64
(dp765
g72
I3
ssg73
Nsg66
(lp766
g59
(g75
g61
NtRp767
(dp768
g64
(dp769
sg73
g763
sg66
(lp770
g59
(g80
g61
NtRp771
(dp772
g64
(dp773
g84
g85
ssg73
g767
sg66
(lp774
g273
asbag59
(g80
g61
NtRp775
(dp776
g64
(dp777
g91
g92
ssg73
g767
sg66
(lp778
S':'
asbag59
(g80
g61
NtRp779
(dp780
g64
(dp781
sg73
g767
sg66
(lp782
g59
(g60
g61
NtRp783
(dp784
g64
(dp785
g72
I3
ssg73
g779
sg66
(lp786
S''
asbasbasbag59
(g75
g61
NtRp787
(dp788
g64
(dp789
sg73
g763
sg66
(lp790
g59
(g80
g61
NtRp791
(dp792
g64
(dp793
g84
g85
ssg73
g787
sg66
(lp794
g294
asbag59
(g80
g61
NtRp795
(dp796
g64
(dp797
g91
g92
ssg73
g787
sg66
(lp798
S':'
asbag59
(g80
g61
NtRp799
(dp800
g64
(dp801
sg73
g787
sg66
(lp802
g59
(g60
g61
NtRp803
(dp804
g64
(dp805
g72
I3
ssg73
g799
sg66
(lp806
S''
asbasbasbag59
(g75
g61
NtRp807
(dp808
g64
(dp809
sg73
g763
sg66
(lp810
g59
(g80
g61
NtRp811
(dp812
g64
(dp813
g84
g85
ssg73
g807
sg66
(lp814
g315
asbag59
(g80
g61
NtRp815
(dp816
g64
(dp817
g91
g92
ssg73
g807
sg66
(lp818
S':'
asbag59
(g80
g61
NtRp819
(dp820
g64
(dp821
sg73
g807
sg66
(lp822
g59
(g60
g61
NtRp823
(dp824
g64
(dp825
g72
I3
ssg73
g819
sg66
(lp826
S''
asbasbasbag59
(g75
g61
NtRp827
(dp828
g64
(dp829
sg73
g763
sg66
(lp830
g59
(g80
g61
NtRp831
(dp832
g64
(dp833
g84
g85
ssg73
g827
sg66
(lp834
g336
asbag59
(g80
g61
NtRp835
(dp836
g64
(dp837
g91
g92
ssg73
g827
sg66
(lp838
S':'
asbag59
(g80
g61
NtRp839
(dp840
g64
(dp841
sg73
g827
sg66
(lp842
g59
(g60
g61
NtRp843
(dp844
g64
(dp845
g72
I3
ssg73
g839
sg66
(lp846
S''
asbasbasbag59
(g75
g61
NtRp847
(dp848
g64
(dp849
sg73
g763
sg66
(lp850
g59
(g80
g61
NtRp851
(dp852
g64
(dp853
g84
g85
ssg73
g847
sg66
(lp854
g357
asbag59
(g80
g61
NtRp855
(dp856
g64
(dp857
g91
g92
ssg73
g847
sg66
(lp858
S':'
asbag59
(g80
g61
NtRp859
(dp860
g64
(dp861
sg73
g847
sg66
(lp862
g59
(g60
g61
NtRp863
(dp864
g64
(dp865
g72
I3
ssg73
g859
sg66
(lp866
S''
asbasbasbag59
(g75
g61
NtRp867
(dp868
g64
(dp869
sg73
g763
sg66
(lp870
g59
(g80
g61
NtRp871
(dp872
g64
(dp873
g84
g85
ssg73
g867
sg66
(lp874
g378
asbag59
(g80
g61
NtRp875
(dp876
g64
(dp877
g91
g92
ssg73
g867
sg66
(lp878
S':'
asbag59
(g80
g61
NtRp879
(dp880
g64
(dp881
sg73
g867
sg66
(lp882
g59
(g60
g61
NtRp883
(dp884
g64
(dp885
g72
I3
ssg73
g879
sg66
(lp886
S''
asbasbasbag59
(g75
g61
NtRp887
(dp888
g64
(dp889
sg73
g763
sg66
(lp890
g59
(g80
g61
NtRp891
(dp892
g64
(dp893
g84
g85
ssg73
g887
sg66
(lp894
g399
asbag59
(g80
g61
NtRp895
(dp896
g64
(dp897
g91
g92
ssg73
g887
sg66
(lp898
S':'
asbag59
(g80
g61
NtRp899
(dp900
g64
(dp901
sg73
g887
sg66
(lp902
g59
(g60
g61
NtRp903
(dp904
g64
(dp905
g72
I3
ssg73
g899
sg66
(lp906
S''
asbasbasbasbasbasbasbag59
(g75
g61
NtRp907
(dp908
g64
(dp909
sg73
g236
sg66
(lp910
g59
(g80
g61
NtRp911
(dp912
g64
(dp913
g84
g85
ssg73
g907
sg66
(lp914
S'session_id_listado_1'
p915
asbag59
(g80
g61
NtRp916
(dp917
g64
(dp918
g91
g92
ssg73
g907
sg66
(lp919
S':'
asbag59
(g80
g61
NtRp920
(dp921
g64
(dp922
sg73
g907
sg66
(lp923
g59
(g60
g61
NtRp924
(dp925
g64
(dp926
g72
I4
ssg73
g920
sg66
(lp927
g59
(g68
g61
NtRp928
(dp929
g64
(dp930
g72
I3
ssg73
Nsg66
(lp931
g59
(g75
g61
NtRp932
(dp933
g64
(dp934
sg73
g928
sg66
(lp935
g59
(g80
g61
NtRp936
(dp937
g64
(dp938
g84
g85
ssg73
g932
sg66
(lp939
g273
asbag59
(g80
g61
NtRp940
(dp941
g64
(dp942
g91
g92
ssg73
g932
sg66
(lp943
S':'
asbag59
(g80
g61
NtRp944
(dp945
g64
(dp946
sg73
g932
sg66
(lp947
g59
(g60
g61
NtRp948
(dp949
g64
(dp950
g72
I3
ssg73
g944
sg66
(lp951
S''
asbasbasbag59
(g75
g61
NtRp952
(dp953
g64
(dp954
sg73
g928
sg66
(lp955
g59
(g80
g61
NtRp956
(dp957
g64
(dp958
g84
g85
ssg73
g952
sg66
(lp959
g294
asbag59
(g80
g61
NtRp960
(dp961
g64
(dp962
g91
g92
ssg73
g952
sg66
(lp963
S':'
asbag59
(g80
g61
NtRp964
(dp965
g64
(dp966
sg73
g952
sg66
(lp967
g59
(g60
g61
NtRp968
(dp969
g64
(dp970
g72
I3
ssg73
g964
sg66
(lp971
S''
asbasbasbag59
(g75
g61
NtRp972
(dp973
g64
(dp974
sg73
g928
sg66
(lp975
g59
(g80
g61
NtRp976
(dp977
g64
(dp978
g84
g85
ssg73
g972
sg66
(lp979
g315
asbag59
(g80
g61
NtRp980
(dp981
g64
(dp982
g91
g92
ssg73
g972
sg66
(lp983
S':'
asbag59
(g80
g61
NtRp984
(dp985
g64
(dp986
sg73
g972
sg66
(lp987
g59
(g60
g61
NtRp988
(dp989
g64
(dp990
g72
I3
ssg73
g984
sg66
(lp991
S''
asbasbasbag59
(g75
g61
NtRp992
(dp993
g64
(dp994
sg73
g928
sg66
(lp995
g59
(g80
g61
NtRp996
(dp997
g64
(dp998
g84
g85
ssg73
g992
sg66
(lp999
g336
asbag59
(g80
g61
NtRp1000
(dp1001
g64
(dp1002
g91
g92
ssg73
g992
sg66
(lp1003
S':'
asbag59
(g80
g61
NtRp1004
(dp1005
g64
(dp1006
sg73
g992
sg66
(lp1007
g59
(g60
g61
NtRp1008
(dp1009
g64
(dp1010
g72
I3
ssg73
g1004
sg66
(lp1011
S''
asbasbasbag59
(g75
g61
NtRp1012
(dp1013
g64
(dp1014
sg73
g928
sg66
(lp1015
g59
(g80
g61
NtRp1016
(dp1017
g64
(dp1018
g84
g85
ssg73
g1012
sg66
(lp1019
g357
asbag59
(g80
g61
NtRp1020
(dp1021
g64
(dp1022
g91
g92
ssg73
g1012
sg66
(lp1023
S':'
asbag59
(g80
g61
NtRp1024
(dp1025
g64
(dp1026
sg73
g1012
sg66
(lp1027
g59
(g60
g61
NtRp1028
(dp1029
g64
(dp1030
g72
I3
ssg73
g1024
sg66
(lp1031
S''
asbasbasbag59
(g75
g61
NtRp1032
(dp1033
g64
(dp1034
sg73
g928
sg66
(lp1035
g59
(g80
g61
NtRp1036
(dp1037
g64
(dp1038
g84
g85
ssg73
g1032
sg66
(lp1039
g378
asbag59
(g80
g61
NtRp1040
(dp1041
g64
(dp1042
g91
g92
ssg73
g1032
sg66
(lp1043
S':'
asbag59
(g80
g61
NtRp1044
(dp1045
g64
(dp1046
sg73
g1032
sg66
(lp1047
g59
(g60
g61
NtRp1048
(dp1049
g64
(dp1050
g72
I3
ssg73
g1044
sg66
(lp1051
S''
asbasbasbag59
(g75
g61
NtRp1052
(dp1053
g64
(dp1054
sg73
g928
sg66
(lp1055
g59
(g80
g61
NtRp1056
(dp1057
g64
(dp1058
g84
g85
ssg73
g1052
sg66
(lp1059
g399
asbag59
(g80
g61
NtRp1060
(dp1061
g64
(dp1062
g91
g92
ssg73
g1052
sg66
(lp1063
S':'
asbag59
(g80
g61
NtRp1064
(dp1065
g64
(dp1066
sg73
g1052
sg66
(lp1067
g59
(g60
g61
NtRp1068
(dp1069
g64
(dp1070
g72
I3
ssg73
g1064
sg66
(lp1071
S''
asbasbasbasbasbasbasbag59
(g75
g61
NtRp1072
(dp1073
g64
(dp1074
sg73
g236
sg66
(lp1075
g59
(g80
g61
NtRp1076
(dp1077
g64
(dp1078
g84
g85
ssg73
g1072
sg66
(lp1079
S'session_id_myappjav'
p1080
asbag59
(g80
g61
NtRp1081
(dp1082
g64
(dp1083
g91
g92
ssg73
g1072
sg66
(lp1084
S':'
asbag59
(g80
g61
NtRp1085
(dp1086
g64
(dp1087
sg73
g1072
sg66
(lp1088
g59
(g60
g61
NtRp1089
(dp1090
g64
(dp1091
g72
I4
ssg73
g1085
sg66
(lp1092
g59
(g68
g61
NtRp1093
(dp1094
g64
(dp1095
g72
I3
ssg73
Nsg66
(lp1096
g59
(g75
g61
NtRp1097
(dp1098
g64
(dp1099
sg73
g1093
sg66
(lp1100
g59
(g80
g61
NtRp1101
(dp1102
g64
(dp1103
g84
g85
ssg73
g1097
sg66
(lp1104
g273
asbag59
(g80
g61
NtRp1105
(dp1106
g64
(dp1107
g91
g92
ssg73
g1097
sg66
(lp1108
S':'
asbag59
(g80
g61
NtRp1109
(dp1110
g64
(dp1111
sg73
g1097
sg66
(lp1112
g59
(g60
g61
NtRp1113
(dp1114
g64
(dp1115
g72
I3
ssg73
g1109
sg66
(lp1116
S''
asbasbasbag59
(g75
g61
NtRp1117
(dp1118
g64
(dp1119
sg73
g1093
sg66
(lp1120
g59
(g80
g61
NtRp1121
(dp1122
g64
(dp1123
g84
g85
ssg73
g1117
sg66
(lp1124
g294
asbag59
(g80
g61
NtRp1125
(dp1126
g64
(dp1127
g91
g92
ssg73
g1117
sg66
(lp1128
S':'
asbag59
(g80
g61
NtRp1129
(dp1130
g64
(dp1131
sg73
g1117
sg66
(lp1132
g59
(g60
g61
NtRp1133
(dp1134
g64
(dp1135
g72
I3
ssg73
g1129
sg66
(lp1136
S''
asbasbasbag59
(g75
g61
NtRp1137
(dp1138
g64
(dp1139
sg73
g1093
sg66
(lp1140
g59
(g80
g61
NtRp1141
(dp1142
g64
(dp1143
g84
g85
ssg73
g1137
sg66
(lp1144
g315
asbag59
(g80
g61
NtRp1145
(dp1146
g64
(dp1147
g91
g92
ssg73
g1137
sg66
(lp1148
S':'
asbag59
(g80
g61
NtRp1149
(dp1150
g64
(dp1151
sg73
g1137
sg66
(lp1152
g59
(g60
g61
NtRp1153
(dp1154
g64
(dp1155
g72
I3
ssg73
g1149
sg66
(lp1156
S''
asbasbasbag59
(g75
g61
NtRp1157
(dp1158
g64
(dp1159
sg73
g1093
sg66
(lp1160
g59
(g80
g61
NtRp1161
(dp1162
g64
(dp1163
g84
g85
ssg73
g1157
sg66
(lp1164
g336
asbag59
(g80
g61
NtRp1165
(dp1166
g64
(dp1167
g91
g92
ssg73
g1157
sg66
(lp1168
S':'
asbag59
(g80
g61
NtRp1169
(dp1170
g64
(dp1171
sg73
g1157
sg66
(lp1172
g59
(g60
g61
NtRp1173
(dp1174
g64
(dp1175
g72
I3
ssg73
g1169
sg66
(lp1176
S''
asbasbasbag59
(g75
g61
NtRp1177
(dp1178
g64
(dp1179
sg73
g1093
sg66
(lp1180
g59
(g80
g61
NtRp1181
(dp1182
g64
(dp1183
g84
g85
ssg73
g1177
sg66
(lp1184
g357
asbag59
(g80
g61
NtRp1185
(dp1186
g64
(dp1187
g91
g92
ssg73
g1177
sg66
(lp1188
S':'
asbag59
(g80
g61
NtRp1189
(dp1190
g64
(dp1191
sg73
g1177
sg66
(lp1192
g59
(g60
g61
NtRp1193
(dp1194
g64
(dp1195
g72
I3
ssg73
g1189
sg66
(lp1196
S''
asbasbasbag59
(g75
g61
NtRp1197
(dp1198
g64
(dp1199
sg73
g1093
sg66
(lp1200
g59
(g80
g61
NtRp1201
(dp1202
g64
(dp1203
g84
g85
ssg73
g1197
sg66
(lp1204
g378
asbag59
(g80
g61
NtRp1205
(dp1206
g64
(dp1207
g91
g92
ssg73
g1197
sg66
(lp1208
S':'
asbag59
(g80
g61
NtRp1209
(dp1210
g64
(dp1211
sg73
g1197
sg66
(lp1212
g59
(g60
g61
NtRp1213
(dp1214
g64
(dp1215
g72
I3
ssg73
g1209
sg66
(lp1216
S''
asbasbasbag59
(g75
g61
NtRp1217
(dp1218
g64
(dp1219
sg73
g1093
sg66
(lp1220
g59
(g80
g61
NtRp1221
(dp1222
g64
(dp1223
g84
g85
ssg73
g1217
sg66
(lp1224
g399
asbag59
(g80
g61
NtRp1225
(dp1226
g64
(dp1227
g91
g92
ssg73
g1217
sg66
(lp1228
S':'
asbag59
(g80
g61
NtRp1229
(dp1230
g64
(dp1231
sg73
g1217
sg66
(lp1232
g59
(g60
g61
NtRp1233
(dp1234
g64
(dp1235
g72
I3
ssg73
g1229
sg66
(lp1236
S''
asbasbasbasbasbasbasbag59
(g75
g61
NtRp1237
(dp1238
g64
(dp1239
sg73
g236
sg66
(lp1240
g59
(g80
g61
NtRp1241
(dp1242
g64
(dp1243
g84
g85
ssg73
g1237
sg66
(lp1244
S'session_id_welcome'
p1245
asbag59
(g80
g61
NtRp1246
(dp1247
g64
(dp1248
g91
g92
ssg73
g1237
sg66
(lp1249
S':'
asbag59
(g80
g61
NtRp1250
(dp1251
g64
(dp1252
sg73
g1237
sg66
(lp1253
g59
(g60
g61
NtRp1254
(dp1255
g64
(dp1256
g72
I4
ssg73
g1250
sg66
(lp1257
g59
(g68
g61
NtRp1258
(dp1259
g64
(dp1260
g72
I3
ssg73
Nsg66
(lp1261
g59
(g75
g61
NtRp1262
(dp1263
g64
(dp1264
sg73
g1258
sg66
(lp1265
g59
(g80
g61
NtRp1266
(dp1267
g64
(dp1268
g84
g85
ssg73
g1262
sg66
(lp1269
g273
asbag59
(g80
g61
NtRp1270
(dp1271
g64
(dp1272
g91
g92
ssg73
g1262
sg66
(lp1273
S':'
asbag59
(g80
g61
NtRp1274
(dp1275
g64
(dp1276
sg73
g1262
sg66
(lp1277
g59
(g60
g61
NtRp1278
(dp1279
g64
(dp1280
g72
I3
ssg73
g1274
sg66
(lp1281
S''
asbasbasbag59
(g75
g61
NtRp1282
(dp1283
g64
(dp1284
sg73
g1258
sg66
(lp1285
g59
(g80
g61
NtRp1286
(dp1287
g64
(dp1288
g84
g85
ssg73
g1282
sg66
(lp1289
g294
asbag59
(g80
g61
NtRp1290
(dp1291
g64
(dp1292
g91
g92
ssg73
g1282
sg66
(lp1293
S':'
asbag59
(g80
g61
NtRp1294
(dp1295
g64
(dp1296
sg73
g1282
sg66
(lp1297
g59
(g60
g61
NtRp1298
(dp1299
g64
(dp1300
g72
I3
ssg73
g1294
sg66
(lp1301
S''
asbasbasbag59
(g75
g61
NtRp1302
(dp1303
g64
(dp1304
sg73
g1258
sg66
(lp1305
g59
(g80
g61
NtRp1306
(dp1307
g64
(dp1308
g84
g85
ssg73
g1302
sg66
(lp1309
g315
asbag59
(g80
g61
NtRp1310
(dp1311
g64
(dp1312
g91
g92
ssg73
g1302
sg66
(lp1313
S':'
asbag59
(g80
g61
NtRp1314
(dp1315
g64
(dp1316
sg73
g1302
sg66
(lp1317
g59
(g60
g61
NtRp1318
(dp1319
g64
(dp1320
g72
I3
ssg73
g1314
sg66
(lp1321
S''
asbasbasbag59
(g75
g61
NtRp1322
(dp1323
g64
(dp1324
sg73
g1258
sg66
(lp1325
g59
(g80
g61
NtRp1326
(dp1327
g64
(dp1328
g84
g85
ssg73
g1322
sg66
(lp1329
g336
asbag59
(g80
g61
NtRp1330
(dp1331
g64
(dp1332
g91
g92
ssg73
g1322
sg66
(lp1333
S':'
asbag59
(g80
g61
NtRp1334
(dp1335
g64
(dp1336
sg73
g1322
sg66
(lp1337
g59
(g60
g61
NtRp1338
(dp1339
g64
(dp1340
g72
I3
ssg73
g1334
sg66
(lp1341
S''
asbasbasbag59
(g75
g61
NtRp1342
(dp1343
g64
(dp1344
sg73
g1258
sg66
(lp1345
g59
(g80
g61
NtRp1346
(dp1347
g64
(dp1348
g84
g85
ssg73
g1342
sg66
(lp1349
g357
asbag59
(g80
g61
NtRp1350
(dp1351
g64
(dp1352
g91
g92
ssg73
g1342
sg66
(lp1353
S':'
asbag59
(g80
g61
NtRp1354
(dp1355
g64
(dp1356
sg73
g1342
sg66
(lp1357
g59
(g60
g61
NtRp1358
(dp1359
g64
(dp1360
g72
I3
ssg73
g1354
sg66
(lp1361
S''
asbasbasbag59
(g75
g61
NtRp1362
(dp1363
g64
(dp1364
sg73
g1258
sg66
(lp1365
g59
(g80
g61
NtRp1366
(dp1367
g64
(dp1368
g84
g85
ssg73
g1362
sg66
(lp1369
g378
asbag59
(g80
g61
NtRp1370
(dp1371
g64
(dp1372
g91
g92
ssg73
g1362
sg66
(lp1373
S':'
asbag59
(g80
g61
NtRp1374
(dp1375
g64
(dp1376
sg73
g1362
sg66
(lp1377
g59
(g60
g61
NtRp1378
(dp1379
g64
(dp1380
g72
I3
ssg73
g1374
sg66
(lp1381
S''
asbasbasbag59
(g75
g61
NtRp1382
(dp1383
g64
(dp1384
sg73
g1258
sg66
(lp1385
g59
(g80
g61
NtRp1386
(dp1387
g64
(dp1388
g84
g85
ssg73
g1382
sg66
(lp1389
g399
asbag59
(g80
g61
NtRp1390
(dp1391
g64
(dp1392
g91
g92
ssg73
g1382
sg66
(lp1393
S':'
asbag59
(g80
g61
NtRp1394
(dp1395
g64
(dp1396
sg73
g1382
sg66
(lp1397
g59
(g60
g61
NtRp1398
(dp1399
g64
(dp1400
g72
I3
ssg73
g1394
sg66
(lp1401
S''
asbasbasbasbasbasbasbasbasbasbasbag59
(g75
g61
NtRp1402
(dp1403
g64
(dp1404
sg73
g69
sg66
(lp1405
g59
(g80
g61
NtRp1406
(dp1407
g64
(dp1408
g84
g85
ssg73
g1402
sg66
(lp1409
S'env'
p1410
asbag59
(g80
g61
NtRp1411
(dp1412
g64
(dp1413
g91
g92
ssg73
g1402
sg66
(lp1414
S':'
asbag59
(g80
g61
NtRp1415
(dp1416
g64
(dp1417
sg73
g1402
sg66
(lp1418
g59
(g60
g61
NtRp1419
(dp1420
g64
(dp1421
g72
I5
ssg73
g1415
sg66
(lp1422
g59
(g68
g61
NtRp1423
(dp1424
g64
(dp1425
g72
I4
ssg73
Nsg66
(lp1426
g59
(g75
g61
NtRp1427
(dp1428
g64
(dp1429
sg73
g1423
sg66
(lp1430
g59
(g80
g61
NtRp1431
(dp1432
g64
(dp1433
g84
g85
ssg73
g1427
sg66
(lp1434
S'app_folders'
p1435
asbag59
(g80
g61
NtRp1436
(dp1437
g64
(dp1438
g91
g92
ssg73
g1427
sg66
(lp1439
S':'
asbag59
(g80
g61
NtRp1440
(dp1441
g64
(dp1442
sg73
g1427
sg66
(lp1443
g59
(g60
g61
NtRp1444
(dp1445
g64
(dp1446
g72
I4
ssg73
g1440
sg66
(lp1447
S"set(['C:\\\\Users\\\\Atomico\\\\web2py\\\\applications\\\\Desglosar_Emails\\\\', 'C:\\\\Users\\\\Atomico\\\\web2py\\\\applications\\\\Cual_es_tu_nombre\\\\', 'C:\\\\Users\\\\Atomico\\\\web2py\\\\applications\\\\admin\\\\', 'C:\\\\Users\\\\Atomico\\\\web2py\\\\applications\\\\hemoal\\\\', 'C:\\\\Users\\\\Atomico\\\\web2py\\\\applications\\\\myAppJav\\\\', 'C:\\\\Users\\\\Atomico\\\\web2py\\\\applications\\\\welcome\\\\', 'C:\\\\Users\\\\Atomico\\\\web2py\\\\applications\\\\examples\\\\'])"
p1448
asbasbasbag59
(g75
g61
NtRp1449
(dp1450
g64
(dp1451
sg73
g1423
sg66
(lp1452
g59
(g80
g61
NtRp1453
(dp1454
g64
(dp1455
g84
g85
ssg73
g1449
sg66
(lp1456
S'applications_parent'
p1457
asbag59
(g80
g61
NtRp1458
(dp1459
g64
(dp1460
g91
g92
ssg73
g1449
sg66
(lp1461
S':'
asbag59
(g80
g61
NtRp1462
(dp1463
g64
(dp1464
sg73
g1449
sg66
(lp1465
g59
(g60
g61
NtRp1466
(dp1467
g64
(dp1468
g72
I4
ssg73
g1462
sg66
(lp1469
S'C:\\Users\\Atomico\\web2py'
p1470
asbasbasbag59
(g75
g61
NtRp1471
(dp1472
g64
(dp1473
sg73
g1423
sg66
(lp1474
g59
(g80
g61
NtRp1475
(dp1476
g64
(dp1477
g84
g85
ssg73
g1471
sg66
(lp1478
S'cmd_args'
p1479
asbag59
(g80
g61
NtRp1480
(dp1481
g64
(dp1482
g91
g92
ssg73
g1471
sg66
(lp1483
S':'
asbag59
(g80
g61
NtRp1484
(dp1485
g64
(dp1486
sg73
g1471
sg66
(lp1487
g59
(g60
g61
NtRp1488
(dp1489
g64
(dp1490
g72
I4
ssg73
g1484
sg66
(lp1491
g59
(g68
g61
NtRp1492
(dp1493
g64
(dp1494
g72
I3
ssg73
Nsg66
(lp1495
sbasbasbasbag59
(g75
g61
NtRp1496
(dp1497
g64
(dp1498
sg73
g1423
sg66
(lp1499
g59
(g80
g61
NtRp1500
(dp1501
g64
(dp1502
g84
g85
ssg73
g1496
sg66
(lp1503
S'cmd_options'
p1504
asbag59
(g80
g61
NtRp1505
(dp1506
g64
(dp1507
g91
g92
ssg73
g1496
sg66
(lp1508
S':'
asbag59
(g80
g61
NtRp1509
(dp1510
g64
(dp1511
sg73
g1496
sg66
(lp1512
g59
(g60
g61
NtRp1513
(dp1514
g64
(dp1515
g72
I4
ssg73
g1509
sg66
(lp1516
S"<Values at 0x306b620: {'verbose': False, 'ip': '127.0.0.1', 'shutdown_timeout': 5, 'taskbar': False, 'port': 8000, 'maxthreads': None, 'softcron': False, 'server_name': 'Swing', 'bpython': False, 'nogui': False, 'nocron': False, 'extcron': False, 'debuglevel': 30, 'test': None, 'folder': 'C:\\\\Users\\\\Atomico\\\\web2py', 'config': '', 'import_models': False, 'winservice': '', 'shell': None, 'run': '', 'log_filename': 'httpserver.log', 'args': [''], 'profiler_filename': None, 'ssl_private_key': '', 'password': '<ask>', 'request_queue_size': 5, 'ssl_certificate': '', 'cronjob': False, 'plain': False, 'quiet': False, 'interfaces': None, 'minthreads': None, 'timeout': 10, 'numthreads': None, 'nobanner': False, 'pid_filename': 'httpserver.pid'}>"
p1517
asbasbasbag59
(g75
g61
NtRp1518
(dp1519
g64
(dp1520
sg73
g1423
sg66
(lp1521
g59
(g80
g61
NtRp1522
(dp1523
g64
(dp1524
g84
g85
ssg73
g1518
sg66
(lp1525
S'db_sessions'
p1526
asbag59
(g80
g61
NtRp1527
(dp1528
g64
(dp1529
g91
g92
ssg73
g1518
sg66
(lp1530
S':'
asbag59
(g80
g61
NtRp1531
(dp1532
g64
(dp1533
sg73
g1518
sg66
(lp1534
g59
(g60
g61
NtRp1535
(dp1536
g64
(dp1537
g72
I4
ssg73
g1531
sg66
(lp1538
S'set([])'
p1539
asbasbasbag59
(g75
g61
NtRp1540
(dp1541
g64
(dp1542
sg73
g1423
sg66
(lp1543
g59
(g80
g61
NtRp1544
(dp1545
g64
(dp1546
g84
g85
ssg73
g1540
sg66
(lp1547
S'debugging'
p1548
asbag59
(g80
g61
NtRp1549
(dp1550
g64
(dp1551
g91
g92
ssg73
g1540
sg66
(lp1552
S':'
asbag59
(g80
g61
NtRp1553
(dp1554
g64
(dp1555
sg73
g1540
sg66
(lp1556
g59
(g60
g61
NtRp1557
(dp1558
g64
(dp1559
g72
I4
ssg73
g1553
sg66
(lp1560
g102
asbasbasbag59
(g75
g61
NtRp1561
(dp1562
g64
(dp1563
sg73
g1423
sg66
(lp1564
g59
(g80
g61
NtRp1565
(dp1566
g64
(dp1567
g84
g85
ssg73
g1561
sg66
(lp1568
S'gluon_parent'
p1569
asbag59
(g80
g61
NtRp1570
(dp1571
g64
(dp1572
g91
g92
ssg73
g1561
sg66
(lp1573
S':'
asbag59
(g80
g61
NtRp1574
(dp1575
g64
(dp1576
sg73
g1561
sg66
(lp1577
g59
(g60
g61
NtRp1578
(dp1579
g64
(dp1580
g72
I4
ssg73
g1574
sg66
(lp1581
S'C:\\Users\\Atomico\\web2py'
p1582
asbasbasbag59
(g75
g61
NtRp1583
(dp1584
g64
(dp1585
sg73
g1423
sg66
(lp1586
g59
(g80
g61
NtRp1587
(dp1588
g64
(dp1589
g84
g85
ssg73
g1583
sg66
(lp1590
S'http_accept'
p1591
asbag59
(g80
g61
NtRp1592
(dp1593
g64
(dp1594
g91
g92
ssg73
g1583
sg66
(lp1595
S':'
asbag59
(g80
g61
NtRp1596
(dp1597
g64
(dp1598
sg73
g1583
sg66
(lp1599
g59
(g60
g61
NtRp1600
(dp1601
g64
(dp1602
g72
I4
ssg73
g1596
sg66
(lp1603
S'text/html,application/xhtml+xml,application/xml;q=0.9,*/*;q=0.8'
p1604
asbasbasbag59
(g75
g61
NtRp1605
(dp1606
g64
(dp1607
sg73
g1423
sg66
(lp1608
g59
(g80
g61
NtRp1609
(dp1610
g64
(dp1611
g84
g85
ssg73
g1605
sg66
(lp1612
S'http_accept_charset'
p1613
asbag59
(g80
g61
NtRp1614
(dp1615
g64
(dp1616
g91
g92
ssg73
g1605
sg66
(lp1617
S':'
asbag59
(g80
g61
NtRp1618
(dp1619
g64
(dp1620
sg73
g1605
sg66
(lp1621
g59
(g60
g61
NtRp1622
(dp1623
g64
(dp1624
g72
I4
ssg73
g1618
sg66
(lp1625
S'ISO-8859-1,utf-8;q=0.7,*;q=0.7'
p1626
asbasbasbag59
(g75
g61
NtRp1627
(dp1628
g64
(dp1629
sg73
g1423
sg66
(lp1630
g59
(g80
g61
NtRp1631
(dp1632
g64
(dp1633
g84
g85
ssg73
g1627
sg66
(lp1634
S'http_accept_encoding'
p1635
asbag59
(g80
g61
NtRp1636
(dp1637
g64
(dp1638
g91
g92
ssg73
g1627
sg66
(lp1639
S':'
asbag59
(g80
g61
NtRp1640
(dp1641
g64
(dp1642
sg73
g1627
sg66
(lp1643
g59
(g60
g61
NtRp1644
(dp1645
g64
(dp1646
g72
I4
ssg73
g1640
sg66
(lp1647
S'gzip, deflate'
p1648
asbasbasbag59
(g75
g61
NtRp1649
(dp1650
g64
(dp1651
sg73
g1423
sg66
(lp1652
g59
(g80
g61
NtRp1653
(dp1654
g64
(dp1655
g84
g85
ssg73
g1649
sg66
(lp1656
S'http_accept_language'
p1657
asbag59
(g80
g61
NtRp1658
(dp1659
g64
(dp1660
g91
g92
ssg73
g1649
sg66
(lp1661
S':'
asbag59
(g80
g61
NtRp1662
(dp1663
g64
(dp1664
sg73
g1649
sg66
(lp1665
g59
(g60
g61
NtRp1666
(dp1667
g64
(dp1668
g72
I4
ssg73
g1662
sg66
(lp1669
S'es-es,es;q=0.8,en-us;q=0.5,en;q=0.3'
p1670
asbasbasbag59
(g75
g61
NtRp1671
(dp1672
g64
(dp1673
sg73
g1423
sg66
(lp1674
g59
(g80
g61
NtRp1675
(dp1676
g64
(dp1677
g84
g85
ssg73
g1671
sg66
(lp1678
S'http_cache_control'
p1679
asbag59
(g80
g61
NtRp1680
(dp1681
g64
(dp1682
g91
g92
ssg73
g1671
sg66
(lp1683
S':'
asbag59
(g80
g61
NtRp1684
(dp1685
g64
(dp1686
sg73
g1671
sg66
(lp1687
g59
(g60
g61
NtRp1688
(dp1689
g64
(dp1690
g72
I4
ssg73
g1684
sg66
(lp1691
S'max-age=0'
p1692
asbasbasbag59
(g75
g61
NtRp1693
(dp1694
g64
(dp1695
sg73
g1423
sg66
(lp1696
g59
(g80
g61
NtRp1697
(dp1698
g64
(dp1699
g84
g85
ssg73
g1693
sg66
(lp1700
S'http_connection'
p1701
asbag59
(g80
g61
NtRp1702
(dp1703
g64
(dp1704
g91
g92
ssg73
g1693
sg66
(lp1705
S':'
asbag59
(g80
g61
NtRp1706
(dp1707
g64
(dp1708
sg73
g1693
sg66
(lp1709
g59
(g60
g61
NtRp1710
(dp1711
g64
(dp1712
g72
I4
ssg73
g1706
sg66
(lp1713
S'keep-alive'
p1714
asbasbasbag59
(g75
g61
NtRp1715
(dp1716
g64
(dp1717
sg73
g1423
sg66
(lp1718
g59
(g80
g61
NtRp1719
(dp1720
g64
(dp1721
g84
g85
ssg73
g1715
sg66
(lp1722
S'http_cookie'
p1723
asbag59
(g80
g61
NtRp1724
(dp1725
g64
(dp1726
g91
g92
ssg73
g1715
sg66
(lp1727
S':'
asbag59
(g80
g61
NtRp1728
(dp1729
g64
(dp1730
sg73
g1715
sg66
(lp1731
g59
(g60
g61
NtRp1732
(dp1733
g64
(dp1734
g72
I4
ssg73
g1728
sg66
(lp1735
S'session_id_welcome=127.0.0.1-082a2830-9bb6-4bfb-b2e2-4857b06c191e; session_id_admin=127.0.0.1-ce80bfda-0413-4fd2-9d21-852a6661b1f5; session_id_listado_1=127.0.0.1-477ec098-5436-4f6e-bfee-1a0bd88f6f9e; session_id_desglosar_emails=127.0.0.1-0a11b3b2-660c-433c-b71f-fc129286f26c; session_id_hemoal=127.0.0.1-442afb36-a73d-4692-979c-372017ada9e5; session_id_myappjav=127.0.0.1-b6da3776-a7b2-40a7-ab82-4eca2d3263a1; session_id_cual_es_tu_nombre=127.0.0.1-5e59e375-704d-4241-8b9c-5fd9f8c15773'
p1736
asbasbasbag59
(g75
g61
NtRp1737
(dp1738
g64
(dp1739
sg73
g1423
sg66
(lp1740
g59
(g80
g61
NtRp1741
(dp1742
g64
(dp1743
g84
g85
ssg73
g1737
sg66
(lp1744
S'http_host'
p1745
asbag59
(g80
g61
NtRp1746
(dp1747
g64
(dp1748
g91
g92
ssg73
g1737
sg66
(lp1749
S':'
asbag59
(g80
g61
NtRp1750
(dp1751
g64
(dp1752
sg73
g1737
sg66
(lp1753
g59
(g60
g61
NtRp1754
(dp1755
g64
(dp1756
g72
I4
ssg73
g1750
sg66
(lp1757
S'127.0.0.1:8000'
p1758
asbasbasbag59
(g75
g61
NtRp1759
(dp1760
g64
(dp1761
sg73
g1423
sg66
(lp1762
g59
(g80
g61
NtRp1763
(dp1764
g64
(dp1765
g84
g85
ssg73
g1759
sg66
(lp1766
S'http_referer'
p1767
asbag59
(g80
g61
NtRp1768
(dp1769
g64
(dp1770
g91
g92
ssg73
g1759
sg66
(lp1771
S':'
asbag59
(g80
g61
NtRp1772
(dp1773
g64
(dp1774
sg73
g1759
sg66
(lp1775
g59
(g60
g61
NtRp1776
(dp1777
g64
(dp1778
g72
I4
ssg73
g1772
sg66
(lp1779
S'http://127.0.0.1:8000/admin/default/design/Desglosar_Emails'
p1780
asbasbasbag59
(g75
g61
NtRp1781
(dp1782
g64
(dp1783
sg73
g1423
sg66
(lp1784
g59
(g80
g61
NtRp1785
(dp1786
g64
(dp1787
g84
g85
ssg73
g1781
sg66
(lp1788
S'http_user_agent'
p1789
asbag59
(g80
g61
NtRp1790
(dp1791
g64
(dp1792
g91
g92
ssg73
g1781
sg66
(lp1793
S':'
asbag59
(g80
g61
NtRp1794
(dp1795
g64
(dp1796
sg73
g1781
sg66
(lp1797
g59
(g60
g61
NtRp1798
(dp1799
g64
(dp1800
g72
I4
ssg73
g1794
sg66
(lp1801
S'Mozilla/5.0 (Windows NT 6.1; WOW64; rv:6.0.2) Gecko/20100101 Firefox/6.0.2'
p1802
asbasbasbag59
(g75
g61
NtRp1803
(dp1804
g64
(dp1805
sg73
g1423
sg66
(lp1806
g59
(g80
g61
NtRp1807
(dp1808
g64
(dp1809
g84
g85
ssg73
g1803
sg66
(lp1810
S'is_jython'
p1811
asbag59
(g80
g61
NtRp1812
(dp1813
g64
(dp1814
g91
g92
ssg73
g1803
sg66
(lp1815
S':'
asbag59
(g80
g61
NtRp1816
(dp1817
g64
(dp1818
sg73
g1803
sg66
(lp1819
g59
(g60
g61
NtRp1820
(dp1821
g64
(dp1822
g72
I4
ssg73
g1816
sg66
(lp1823
g102
asbasbasbag59
(g75
g61
NtRp1824
(dp1825
g64
(dp1826
sg73
g1423
sg66
(lp1827
g59
(g80
g61
NtRp1828
(dp1829
g64
(dp1830
g84
g85
ssg73
g1824
sg66
(lp1831
S'path_info'
p1832
asbag59
(g80
g61
NtRp1833
(dp1834
g64
(dp1835
g91
g92
ssg73
g1824
sg66
(lp1836
S':'
asbag59
(g80
g61
NtRp1837
(dp1838
g64
(dp1839
sg73
g1824
sg66
(lp1840
g59
(g60
g61
NtRp1841
(dp1842
g64
(dp1843
g72
I4
ssg73
g1837
sg66
(lp1844
S'/Desglosar_Emails/default/entrada_mod3'
p1845
asbasbasbag59
(g75
g61
NtRp1846
(dp1847
g64
(dp1848
sg73
g1423
sg66
(lp1849
g59
(g80
g61
NtRp1850
(dp1851
g64
(dp1852
g84
g85
ssg73
g1846
sg66
(lp1853
S'query_string'
p1854
asbag59
(g80
g61
NtRp1855
(dp1856
g64
(dp1857
g91
g92
ssg73
g1846
sg66
(lp1858
S':'
asbag59
(g80
g61
NtRp1859
(dp1860
g64
(dp1861
sg73
g1846
sg66
(lp1862
g59
(g60
g61
NtRp1863
(dp1864
g64
(dp1865
g72
I4
ssg73
g1859
sg66
(lp1866
S''
asbasbasbag59
(g75
g61
NtRp1867
(dp1868
g64
(dp1869
sg73
g1423
sg66
(lp1870
g59
(g80
g61
NtRp1871
(dp1872
g64
(dp1873
g84
g85
ssg73
g1867
sg66
(lp1874
S'remote_addr'
p1875
asbag59
(g80
g61
NtRp1876
(dp1877
g64
(dp1878
g91
g92
ssg73
g1867
sg66
(lp1879
S':'
asbag59
(g80
g61
NtRp1880
(dp1881
g64
(dp1882
sg73
g1867
sg66
(lp1883
g59
(g60
g61
NtRp1884
(dp1885
g64
(dp1886
g72
I4
ssg73
g1880
sg66
(lp1887
g192
asbasbasbag59
(g75
g61
NtRp1888
(dp1889
g64
(dp1890
sg73
g1423
sg66
(lp1891
g59
(g80
g61
NtRp1892
(dp1893
g64
(dp1894
g84
g85
ssg73
g1888
sg66
(lp1895
S'remote_port'
p1896
asbag59
(g80
g61
NtRp1897
(dp1898
g64
(dp1899
g91
g92
ssg73
g1888
sg66
(lp1900
S':'
asbag59
(g80
g61
NtRp1901
(dp1902
g64
(dp1903
sg73
g1888
sg66
(lp1904
g59
(g60
g61
NtRp1905
(dp1906
g64
(dp1907
g72
I4
ssg73
g1901
sg66
(lp1908
S'59513'
p1909
asbasbasbag59
(g75
g61
NtRp1910
(dp1911
g64
(dp1912
sg73
g1423
sg66
(lp1913
g59
(g80
g61
NtRp1914
(dp1915
g64
(dp1916
g84
g85
ssg73
g1910
sg66
(lp1917
S'request_method'
p1918
asbag59
(g80
g61
NtRp1919
(dp1920
g64
(dp1921
g91
g92
ssg73
g1910
sg66
(lp1922
S':'
asbag59
(g80
g61
NtRp1923
(dp1924
g64
(dp1925
sg73
g1910
sg66
(lp1926
g59
(g60
g61
NtRp1927
(dp1928
g64
(dp1929
g72
I4
ssg73
g1923
sg66
(lp1930
S'GET'
p1931
asbasbasbag59
(g75
g61
NtRp1932
(dp1933
g64
(dp1934
sg73
g1423
sg66
(lp1935
g59
(g80
g61
NtRp1936
(dp1937
g64
(dp1938
g84
g85
ssg73
g1932
sg66
(lp1939
S'script_name'
p1940
asbag59
(g80
g61
NtRp1941
(dp1942
g64
(dp1943
g91
g92
ssg73
g1932
sg66
(lp1944
S':'
asbag59
(g80
g61
NtRp1945
(dp1946
g64
(dp1947
sg73
g1932
sg66
(lp1948
g59
(g60
g61
NtRp1949
(dp1950
g64
(dp1951
g72
I4
ssg73
g1945
sg66
(lp1952
S''
asbasbasbag59
(g75
g61
NtRp1953
(dp1954
g64
(dp1955
sg73
g1423
sg66
(lp1956
g59
(g80
g61
NtRp1957
(dp1958
g64
(dp1959
g84
g85
ssg73
g1953
sg66
(lp1960
S'server_name'
p1961
asbag59
(g80
g61
NtRp1962
(dp1963
g64
(dp1964
g91
g92
ssg73
g1953
sg66
(lp1965
S':'
asbag59
(g80
g61
NtRp1966
(dp1967
g64
(dp1968
sg73
g1953
sg66
(lp1969
g59
(g60
g61
NtRp1970
(dp1971
g64
(dp1972
g72
I4
ssg73
g1966
sg66
(lp1973
S'Swing'
p1974
asbasbasbag59
(g75
g61
NtRp1975
(dp1976
g64
(dp1977
sg73
g1423
sg66
(lp1978
g59
(g80
g61
NtRp1979
(dp1980
g64
(dp1981
g84
g85
ssg73
g1975
sg66
(lp1982
S'server_port'
p1983
asbag59
(g80
g61
NtRp1984
(dp1985
g64
(dp1986
g91
g92
ssg73
g1975
sg66
(lp1987
S':'
asbag59
(g80
g61
NtRp1988
(dp1989
g64
(dp1990
sg73
g1975
sg66
(lp1991
g59
(g60
g61
NtRp1992
(dp1993
g64
(dp1994
g72
I4
ssg73
g1988
sg66
(lp1995
S'8000'
p1996
asbasbasbag59
(g75
g61
NtRp1997
(dp1998
g64
(dp1999
sg73
g1423
sg66
(lp2000
g59
(g80
g61
NtRp2001
(dp2002
g64
(dp2003
g84
g85
ssg73
g1997
sg66
(lp2004
S'server_protocol'
p2005
asbag59
(g80
g61
NtRp2006
(dp2007
g64
(dp2008
g91
g92
ssg73
g1997
sg66
(lp2009
S':'
asbag59
(g80
g61
NtRp2010
(dp2011
g64
(dp2012
sg73
g1997
sg66
(lp2013
g59
(g60
g61
NtRp2014
(dp2015
g64
(dp2016
g72
I4
ssg73
g2010
sg66
(lp2017
S'HTTP/1.1'
p2018
asbasbasbag59
(g75
g61
NtRp2019
(dp2020
g64
(dp2021
sg73
g1423
sg66
(lp2022
g59
(g80
g61
NtRp2023
(dp2024
g64
(dp2025
g84
g85
ssg73
g2019
sg66
(lp2026
S'server_software'
p2027
asbag59
(g80
g61
NtRp2028
(dp2029
g64
(dp2030
g91
g92
ssg73
g2019
sg66
(lp2031
S':'
asbag59
(g80
g61
NtRp2032
(dp2033
g64
(dp2034
sg73
g2019
sg66
(lp2035
g59
(g60
g61
NtRp2036
(dp2037
g64
(dp2038
g72
I4
ssg73
g2032
sg66
(lp2039
S'Rocket 1.2.2'
p2040
asbasbasbag59
(g75
g61
NtRp2041
(dp2042
g64
(dp2043
sg73
g1423
sg66
(lp2044
g59
(g80
g61
NtRp2045
(dp2046
g64
(dp2047
g84
g85
ssg73
g2041
sg66
(lp2048
S'web2py_crontype'
p2049
asbag59
(g80
g61
NtRp2050
(dp2051
g64
(dp2052
g91
g92
ssg73
g2041
sg66
(lp2053
S':'
asbag59
(g80
g61
NtRp2054
(dp2055
g64
(dp2056
sg73
g2041
sg66
(lp2057
g59
(g60
g61
NtRp2058
(dp2059
g64
(dp2060
g72
I4
ssg73
g2054
sg66
(lp2061
S'hard'
p2062
asbasbasbag59
(g75
g61
NtRp2063
(dp2064
g64
(dp2065
sg73
g1423
sg66
(lp2066
g59
(g80
g61
NtRp2067
(dp2068
g64
(dp2069
g84
g85
ssg73
g2063
sg66
(lp2070
S'web2py_path'
p2071
asbag59
(g80
g61
NtRp2072
(dp2073
g64
(dp2074
g91
g92
ssg73
g2063
sg66
(lp2075
S':'
asbag59
(g80
g61
NtRp2076
(dp2077
g64
(dp2078
sg73
g2063
sg66
(lp2079
g59
(g60
g61
NtRp2080
(dp2081
g64
(dp2082
g72
I4
ssg73
g2076
sg66
(lp2083
g1470
asbasbasbag59
(g75
g61
NtRp2084
(dp2085
g64
(dp2086
sg73
g1423
sg66
(lp2087
g59
(g80
g61
NtRp2088
(dp2089
g64
(dp2090
g84
g85
ssg73
g2084
sg66
(lp2091
S'web2py_version'
p2092
asbag59
(g80
g61
NtRp2093
(dp2094
g64
(dp2095
g91
g92
ssg73
g2084
sg66
(lp2096
S':'
asbag59
(g80
g61
NtRp2097
(dp2098
g64
(dp2099
sg73
g2084
sg66
(lp2100
g59
(g60
g61
NtRp2101
(dp2102
g64
(dp2103
g72
I4
ssg73
g2097
sg66
(lp2104
S'Version 1.98.2 (2011-08-04 00:47:09)\n'
p2105
asbasbasbag59
(g75
g61
NtRp2106
(dp2107
g64
(dp2108
sg73
g1423
sg66
(lp2109
g59
(g80
g61
NtRp2110
(dp2111
g64
(dp2112
g84
g85
ssg73
g2106
sg66
(lp2113
S'wsgi_errors'
p2114
asbag59
(g80
g61
NtRp2115
(dp2116
g64
(dp2117
g91
g92
ssg73
g2106
sg66
(lp2118
S':'
asbag59
(g80
g61
NtRp2119
(dp2120
g64
(dp2121
sg73
g2106
sg66
(lp2122
g59
(g60
g61
NtRp2123
(dp2124
g64
(dp2125
g72
I4
ssg73
g2119
sg66
(lp2126
S"<open file '<stderr>', mode 'w' at 0x003100B0>"
p2127
asbasbasbag59
(g75
g61
NtRp2128
(dp2129
g64
(dp2130
sg73
g1423
sg66
(lp2131
g59
(g80
g61
NtRp2132
(dp2133
g64
(dp2134
g84
g85
ssg73
g2128
sg66
(lp2135
S'wsgi_file_wrapper'
p2136
asbag59
(g80
g61
NtRp2137
(dp2138
g64
(dp2139
g91
g92
ssg73
g2128
sg66
(lp2140
S':'
asbag59
(g80
g61
NtRp2141
(dp2142
g64
(dp2143
sg73
g2128
sg66
(lp2144
g59
(g60
g61
NtRp2145
(dp2146
g64
(dp2147
g72
I4
ssg73
g2141
sg66
(lp2148
S'<class gluon.rocket.FileWrapper at 0x02FFC1B0>'
p2149
asbasbasbag59
(g75
g61
NtRp2150
(dp2151
g64
(dp2152
sg73
g1423
sg66
(lp2153
g59
(g80
g61
NtRp2154
(dp2155
g64
(dp2156
g84
g85
ssg73
g2150
sg66
(lp2157
S'wsgi_input'
p2158
asbag59
(g80
g61
NtRp2159
(dp2160
g64
(dp2161
g91
g92
ssg73
g2150
sg66
(lp2162
S':'
asbag59
(g80
g61
NtRp2163
(dp2164
g64
(dp2165
sg73
g2150
sg66
(lp2166
g59
(g60
g61
NtRp2167
(dp2168
g64
(dp2169
g72
I4
ssg73
g2163
sg66
(lp2170
S'<socket._fileobject object at 0x075828B0>'
p2171
asbasbasbag59
(g75
g61
NtRp2172
(dp2173
g64
(dp2174
sg73
g1423
sg66
(lp2175
g59
(g80
g61
NtRp2176
(dp2177
g64
(dp2178
g84
g85
ssg73
g2172
sg66
(lp2179
S'wsgi_multiprocess'
p2180
asbag59
(g80
g61
NtRp2181
(dp2182
g64
(dp2183
g91
g92
ssg73
g2172
sg66
(lp2184
S':'
asbag59
(g80
g61
NtRp2185
(dp2186
g64
(dp2187
sg73
g2172
sg66
(lp2188
g59
(g60
g61
NtRp2189
(dp2190
g64
(dp2191
g72
I4
ssg73
g2185
sg66
(lp2192
g102
asbasbasbag59
(g75
g61
NtRp2193
(dp2194
g64
(dp2195
sg73
g1423
sg66
(lp2196
g59
(g80
g61
NtRp2197
(dp2198
g64
(dp2199
g84
g85
ssg73
g2193
sg66
(lp2200
S'wsgi_multithread'
p2201
asbag59
(g80
g61
NtRp2202
(dp2203
g64
(dp2204
g91
g92
ssg73
g2193
sg66
(lp2205
S':'
asbag59
(g80
g61
NtRp2206
(dp2207
g64
(dp2208
sg73
g2193
sg66
(lp2209
g59
(g60
g61
NtRp2210
(dp2211
g64
(dp2212
g72
I4
ssg73
g2206
sg66
(lp2213
S'True'
p2214
asbasbasbag59
(g75
g61
NtRp2215
(dp2216
g64
(dp2217
sg73
g1423
sg66
(lp2218
g59
(g80
g61
NtRp2219
(dp2220
g64
(dp2221
g84
g85
ssg73
g2215
sg66
(lp2222
S'wsgi_run_once'
p2223
asbag59
(g80
g61
NtRp2224
(dp2225
g64
(dp2226
g91
g92
ssg73
g2215
sg66
(lp2227
S':'
asbag59
(g80
g61
NtRp2228
(dp2229
g64
(dp2230
sg73
g2215
sg66
(lp2231
g59
(g60
g61
NtRp2232
(dp2233
g64
(dp2234
g72
I4
ssg73
g2228
sg66
(lp2235
g102
asbasbasbag59
(g75
g61
NtRp2236
(dp2237
g64
(dp2238
sg73
g1423
sg66
(lp2239
g59
(g80
g61
NtRp2240
(dp2241
g64
(dp2242
g84
g85
ssg73
g2236
sg66
(lp2243
S'wsgi_url_scheme'
p2244
asbag59
(g80
g61
NtRp2245
(dp2246
g64
(dp2247
g91
g92
ssg73
g2236
sg66
(lp2248
S':'
asbag59
(g80
g61
NtRp2249
(dp2250
g64
(dp2251
sg73
g2236
sg66
(lp2252
g59
(g60
g61
NtRp2253
(dp2254
g64
(dp2255
g72
I4
ssg73
g2249
sg66
(lp2256
S'http'
p2257
asbasbasbag59
(g75
g61
NtRp2258
(dp2259
g64
(dp2260
sg73
g1423
sg66
(lp2261
g59
(g80
g61
NtRp2262
(dp2263
g64
(dp2264
g84
g85
ssg73
g2258
sg66
(lp2265
S'wsgi_version'
p2266
asbag59
(g80
g61
NtRp2267
(dp2268
g64
(dp2269
g91
g92
ssg73
g2258
sg66
(lp2270
S':'
asbag59
(g80
g61
NtRp2271
(dp2272
g64
(dp2273
sg73
g2258
sg66
(lp2274
g59
(g60
g61
NtRp2275
(dp2276
g64
(dp2277
g72
I4
ssg73
g2271
sg66
(lp2278
g59
(g68
g61
NtRp2279
(dp2280
g64
(dp2281
g72
I3
ssg73
Nsg66
(lp2282
g59
(g75
g61
NtRp2283
(dp2284
g64
(dp2285
sg73
g2279
sg66
(lp2286
g59
(g80
g61
NtRp2287
(dp2288
g64
(dp2289
sg73
g2283
sg66
(lp2290
g59
(g60
g61
NtRp2291
(dp2292
g64
(dp2293
g72
I3
ssg73
g2287
sg66
(lp2294
S'1'
asbasbasbag59
(g75
g61
NtRp2295
(dp2296
g64
(dp2297
sg73
g2279
sg66
(lp2298
g59
(g80
g61
NtRp2299
(dp2300
g64
(dp2301
sg73
g2295
sg66
(lp2302
g59
(g60
g61
NtRp2303
(dp2304
g64
(dp2305
g72
I3
ssg73
g2299
sg66
(lp2306
S'0'
asbasbasbasbasbasbasbasbasbasbasbag59
(g75
g61
NtRp2307
(dp2308
g64
(dp2309
sg73
g69
sg66
(lp2310
g59
(g80
g61
NtRp2311
(dp2312
g64
(dp2313
g84
g85
ssg73
g2307
sg66
(lp2314
S'extension'
p2315
asbag59
(g80
g61
NtRp2316
(dp2317
g64
(dp2318
g91
g92
ssg73
g2307
sg66
(lp2319
S':'
asbag59
(g80
g61
NtRp2320
(dp2321
g64
(dp2322
sg73
g2307
sg66
(lp2323
g59
(g60
g61
NtRp2324
(dp2325
g64
(dp2326
g72
I5
ssg73
g2320
sg66
(lp2327
S'html'
p2328
asbasbasbag59
(g75
g61
NtRp2329
(dp2330
g64
(dp2331
sg73
g69
sg66
(lp2332
g59
(g80
g61
NtRp2333
(dp2334
g64
(dp2335
g84
g85
ssg73
g2329
sg66
(lp2336
S'folder'
p2337
asbag59
(g80
g61
NtRp2338
(dp2339
g64
(dp2340
g91
g92
ssg73
g2329
sg66
(lp2341
S':'
asbag59
(g80
g61
NtRp2342
(dp2343
g64
(dp2344
sg73
g2329
sg66
(lp2345
g59
(g60
g61
NtRp2346
(dp2347
g64
(dp2348
g72
I5
ssg73
g2342
sg66
(lp2349
S'C:\\Users\\Atomico\\web2py\\applications\\Desglosar_Emails\\'
p2350
asbasbasbag59
(g75
g61
NtRp2351
(dp2352
g64
(dp2353
sg73
g69
sg66
(lp2354
g59
(g80
g61
NtRp2355
(dp2356
g64
(dp2357
g84
g85
ssg73
g2351
sg66
(lp2358
S'function'
p2359
asbag59
(g80
g61
NtRp2360
(dp2361
g64
(dp2362
g91
g92
ssg73
g2351
sg66
(lp2363
S':'
asbag59
(g80
g61
NtRp2364
(dp2365
g64
(dp2366
sg73
g2351
sg66
(lp2367
g59
(g60
g61
NtRp2368
(dp2369
g64
(dp2370
g72
I5
ssg73
g2364
sg66
(lp2371
S'entrada_mod3'
p2372
asbasbasbag59
(g75
g61
NtRp2373
(dp2374
g64
(dp2375
sg73
g69
sg66
(lp2376
g59
(g80
g61
NtRp2377
(dp2378
g64
(dp2379
g84
g85
ssg73
g2373
sg66
(lp2380
S'get_vars'
p2381
asbag59
(g80
g61
NtRp2382
(dp2383
g64
(dp2384
g91
g92
ssg73
g2373
sg66
(lp2385
S':'
asbag59
(g80
g61
NtRp2386
(dp2387
g64
(dp2388
sg73
g2373
sg66
(lp2389
g59
(g60
g61
NtRp2390
(dp2391
g64
(dp2392
g72
I5
ssg73
g2386
sg66
(lp2393
g59
(g68
g61
NtRp2394
(dp2395
g64
(dp2396
g72
I4
ssg73
Nsg66
(lp2397
sbasbasbasbag59
(g75
g61
NtRp2398
(dp2399
g64
(dp2400
sg73
g69
sg66
(lp2401
g59
(g80
g61
NtRp2402
(dp2403
g64
(dp2404
g84
g85
ssg73
g2398
sg66
(lp2405
S'is_https'
p2406
asbag59
(g80
g61
NtRp2407
(dp2408
g64
(dp2409
g91
g92
ssg73
g2398
sg66
(lp2410
S':'
asbag59
(g80
g61
NtRp2411
(dp2412
g64
(dp2413
sg73
g2398
sg66
(lp2414
g59
(g60
g61
NtRp2415
(dp2416
g64
(dp2417
g72
I5
ssg73
g2411
sg66
(lp2418
g102
asbasbasbag59
(g75
g61
NtRp2419
(dp2420
g64
(dp2421
sg73
g69
sg66
(lp2422
g59
(g80
g61
NtRp2423
(dp2424
g64
(dp2425
g84
g85
ssg73
g2419
sg66
(lp2426
S'is_local'
p2427
asbag59
(g80
g61
NtRp2428
(dp2429
g64
(dp2430
g91
g92
ssg73
g2419
sg66
(lp2431
S':'
asbag59
(g80
g61
NtRp2432
(dp2433
g64
(dp2434
sg73
g2419
sg66
(lp2435
g59
(g60
g61
NtRp2436
(dp2437
g64
(dp2438
g72
I5
ssg73
g2432
sg66
(lp2439
g2214
asbasbasbag59
(g75
g61
NtRp2440
(dp2441
g64
(dp2442
sg73
g69
sg66
(lp2443
g59
(g80
g61
NtRp2444
(dp2445
g64
(dp2446
g84
g85
ssg73
g2440
sg66
(lp2447
S'is_restful'
p2448
asbag59
(g80
g61
NtRp2449
(dp2450
g64
(dp2451
g91
g92
ssg73
g2440
sg66
(lp2452
S':'
asbag59
(g80
g61
NtRp2453
(dp2454
g64
(dp2455
sg73
g2440
sg66
(lp2456
g59
(g60
g61
NtRp2457
(dp2458
g64
(dp2459
g72
I5
ssg73
g2453
sg66
(lp2460
g102
asbasbasbag59
(g75
g61
NtRp2461
(dp2462
g64
(dp2463
sg73
g69
sg66
(lp2464
g59
(g80
g61
NtRp2465
(dp2466
g64
(dp2467
g84
g85
ssg73
g2461
sg66
(lp2468
S'now'
p2469
asbag59
(g80
g61
NtRp2470
(dp2471
g64
(dp2472
g91
g92
ssg73
g2461
sg66
(lp2473
S':'
asbag59
(g80
g61
NtRp2474
(dp2475
g64
(dp2476
sg73
g2461
sg66
(lp2477
g59
(g60
g61
NtRp2478
(dp2479
g64
(dp2480
g72
I5
ssg73
g2474
sg66
(lp2481
S'datetime.datetime(2011, 9, 19, 14, 59, 9, 631000)'
p2482
asbasbasbag59
(g75
g61
NtRp2483
(dp2484
g64
(dp2485
sg73
g69
sg66
(lp2486
g59
(g80
g61
NtRp2487
(dp2488
g64
(dp2489
g84
g85
ssg73
g2483
sg66
(lp2490
S'post_vars'
p2491
asbag59
(g80
g61
NtRp2492
(dp2493
g64
(dp2494
g91
g92
ssg73
g2483
sg66
(lp2495
S':'
asbag59
(g80
g61
NtRp2496
(dp2497
g64
(dp2498
sg73
g2483
sg66
(lp2499
g59
(g60
g61
NtRp2500
(dp2501
g64
(dp2502
g72
I5
ssg73
g2496
sg66
(lp2503
g59
(g68
g61
NtRp2504
(dp2505
g64
(dp2506
g72
I4
ssg73
Nsg66
(lp2507
sbasbasbasbag59
(g75
g61
NtRp2508
(dp2509
g64
(dp2510
sg73
g69
sg66
(lp2511
g59
(g80
g61
NtRp2512
(dp2513
g64
(dp2514
g84
g85
ssg73
g2508
sg66
(lp2515
S'url'
p2516
asbag59
(g80
g61
NtRp2517
(dp2518
g64
(dp2519
g91
g92
ssg73
g2508
sg66
(lp2520
S':'
asbag59
(g80
g61
NtRp2521
(dp2522
g64
(dp2523
sg73
g2508
sg66
(lp2524
g59
(g60
g61
NtRp2525
(dp2526
g64
(dp2527
g72
I5
ssg73
g2521
sg66
(lp2528
S'/Desglosar_Emails/default/entrada_mod3'
p2529
asbasbasbag59
(g75
g61
NtRp2530
(dp2531
g64
(dp2532
sg73
g69
sg66
(lp2533
g59
(g80
g61
NtRp2534
(dp2535
g64
(dp2536
g84
g85
ssg73
g2530
sg66
(lp2537
S'uuid'
p2538
asbag59
(g80
g61
NtRp2539
(dp2540
g64
(dp2541
g91
g92
ssg73
g2530
sg66
(lp2542
S':'
asbag59
(g80
g61
NtRp2543
(dp2544
g64
(dp2545
sg73
g2530
sg66
(lp2546
g59
(g60
g61
NtRp2547
(dp2548
g64
(dp2549
g72
I5
ssg73
g2543
sg66
(lp2550
S'Desglosar_Emails/127.0.0.1.2011-09-19.14-59-09.c8187df2-9e65-4d7f-af6b-a08ceeff24ee'
p2551
asbasbasbag59
(g75
g61
NtRp2552
(dp2553
g64
(dp2554
sg73
g69
sg66
(lp2555
g59
(g80
g61
NtRp2556
(dp2557
g64
(dp2558
g84
g85
ssg73
g2552
sg66
(lp2559
S'vars'
p2560
asbag59
(g80
g61
NtRp2561
(dp2562
g64
(dp2563
g91
g92
ssg73
g2552
sg66
(lp2564
S':'
asbag59
(g80
g61
NtRp2565
(dp2566
g64
(dp2567
sg73
g2552
sg66
(lp2568
g59
(g60
g61
NtRp2569
(dp2570
g64
(dp2571
g72
I5
ssg73
g2565
sg66
(lp2572
g59
(g68
g61
NtRp2573
(dp2574
g64
(dp2575
g72
I4
ssg73
Nsg66
(lp2576
sbasbasbasbag59
(g75
g61
NtRp2577
(dp2578
g64
(dp2579
sg73
g69
sg66
(lp2580
g59
(g80
g61
NtRp2581
(dp2582
g64
(dp2583
g84
g85
ssg73
g2577
sg66
(lp2584
S'wsgi'
p2585
asbag59
(g80
g61
NtRp2586
(dp2587
g64
(dp2588
g91
g92
ssg73
g2577
sg66
(lp2589
S':'
asbag59
(g80
g61
NtRp2590
(dp2591
g64
(dp2592
sg73
g2577
sg66
(lp2593
g59
(g60
g61
NtRp2594
(dp2595
g64
(dp2596
g72
I5
ssg73
g2590
sg66
(lp2597
g59
(g68
g61
NtRp2598
(dp2599
g64
(dp2600
g72
I4
ssg73
Nsg66
(lp2601
g59
(g75
g61
NtRp2602
(dp2603
g64
(dp2604
sg73
g2598
sg66
(lp2605
g59
(g80
g61
NtRp2606
(dp2607
g64
(dp2608
g84
g85
ssg73
g2602
sg66
(lp2609
S'environ'
p2610
asbag59
(g80
g61
NtRp2611
(dp2612
g64
(dp2613
g91
g92
ssg73
g2602
sg66
(lp2614
S':'
asbag59
(g80
g61
NtRp2615
(dp2616
g64
(dp2617
sg73
g2602
sg66
(lp2618
g59
(g60
g61
NtRp2619
(dp2620
g64
(dp2621
g72
I4
ssg73
g2615
sg66
(lp2622
g59
(g68
g61
NtRp2623
(dp2624
g64
(dp2625
g72
I3
ssg73
Nsg66
(lp2626
g59
(g75
g61
NtRp2627
(dp2628
g64
(dp2629
sg73
g2623
sg66
(lp2630
g59
(g80
g61
NtRp2631
(dp2632
g64
(dp2633
g84
g85
ssg73
g2627
sg66
(lp2634
S'HTTP_ACCEPT'
p2635
asbag59
(g80
g61
NtRp2636
(dp2637
g64
(dp2638
g91
g92
ssg73
g2627
sg66
(lp2639
S':'
asbag59
(g80
g61
NtRp2640
(dp2641
g64
(dp2642
sg73
g2627
sg66
(lp2643
g59
(g60
g61
NtRp2644
(dp2645
g64
(dp2646
g72
I3
ssg73
g2640
sg66
(lp2647
g1604
asbasbasbag59
(g75
g61
NtRp2648
(dp2649
g64
(dp2650
sg73
g2623
sg66
(lp2651
g59
(g80
g61
NtRp2652
(dp2653
g64
(dp2654
g84
g85
ssg73
g2648
sg66
(lp2655
S'HTTP_ACCEPT_CHARSET'
p2656
asbag59
(g80
g61
NtRp2657
(dp2658
g64
(dp2659
g91
g92
ssg73
g2648
sg66
(lp2660
S':'
asbag59
(g80
g61
NtRp2661
(dp2662
g64
(dp2663
sg73
g2648
sg66
(lp2664
g59
(g60
g61
NtRp2665
(dp2666
g64
(dp2667
g72
I3
ssg73
g2661
sg66
(lp2668
g1626
asbasbasbag59
(g75
g61
NtRp2669
(dp2670
g64
(dp2671
sg73
g2623
sg66
(lp2672
g59
(g80
g61
NtRp2673
(dp2674
g64
(dp2675
g84
g85
ssg73
g2669
sg66
(lp2676
S'HTTP_ACCEPT_ENCODING'
p2677
asbag59
(g80
g61
NtRp2678
(dp2679
g64
(dp2680
g91
g92
ssg73
g2669
sg66
(lp2681
S':'
asbag59
(g80
g61
NtRp2682
(dp2683
g64
(dp2684
sg73
g2669
sg66
(lp2685
g59
(g60
g61
NtRp2686
(dp2687
g64
(dp2688
g72
I3
ssg73
g2682
sg66
(lp2689
g1648
asbasbasbag59
(g75
g61
NtRp2690
(dp2691
g64
(dp2692
sg73
g2623
sg66
(lp2693
g59
(g80
g61
NtRp2694
(dp2695
g64
(dp2696
g84
g85
ssg73
g2690
sg66
(lp2697
S'HTTP_ACCEPT_LANGUAGE'
p2698
asbag59
(g80
g61
NtRp2699
(dp2700
g64
(dp2701
g91
g92
ssg73
g2690
sg66
(lp2702
S':'
asbag59
(g80
g61
NtRp2703
(dp2704
g64
(dp2705
sg73
g2690
sg66
(lp2706
g59
(g60
g61
NtRp2707
(dp2708
g64
(dp2709
g72
I3
ssg73
g2703
sg66
(lp2710
g1670
asbasbasbag59
(g75
g61
NtRp2711
(dp2712
g64
(dp2713
sg73
g2623
sg66
(lp2714
g59
(g80
g61
NtRp2715
(dp2716
g64
(dp2717
g84
g85
ssg73
g2711
sg66
(lp2718
S'HTTP_CACHE_CONTROL'
p2719
asbag59
(g80
g61
NtRp2720
(dp2721
g64
(dp2722
g91
g92
ssg73
g2711
sg66
(lp2723
S':'
asbag59
(g80
g61
NtRp2724
(dp2725
g64
(dp2726
sg73
g2711
sg66
(lp2727
g59
(g60
g61
NtRp2728
(dp2729
g64
(dp2730
g72
I3
ssg73
g2724
sg66
(lp2731
g1692
asbasbasbag59
(g75
g61
NtRp2732
(dp2733
g64
(dp2734
sg73
g2623
sg66
(lp2735
g59
(g80
g61
NtRp2736
(dp2737
g64
(dp2738
g84
g85
ssg73
g2732
sg66
(lp2739
S'HTTP_CONNECTION'
p2740
asbag59
(g80
g61
NtRp2741
(dp2742
g64
(dp2743
g91
g92
ssg73
g2732
sg66
(lp2744
S':'
asbag59
(g80
g61
NtRp2745
(dp2746
g64
(dp2747
sg73
g2732
sg66
(lp2748
g59
(g60
g61
NtRp2749
(dp2750
g64
(dp2751
g72
I3
ssg73
g2745
sg66
(lp2752
g1714
asbasbasbag59
(g75
g61
NtRp2753
(dp2754
g64
(dp2755
sg73
g2623
sg66
(lp2756
g59
(g80
g61
NtRp2757
(dp2758
g64
(dp2759
g84
g85
ssg73
g2753
sg66
(lp2760
S'HTTP_COOKIE'
p2761
asbag59
(g80
g61
NtRp2762
(dp2763
g64
(dp2764
g91
g92
ssg73
g2753
sg66
(lp2765
S':'
asbag59
(g80
g61
NtRp2766
(dp2767
g64
(dp2768
sg73
g2753
sg66
(lp2769
g59
(g60
g61
NtRp2770
(dp2771
g64
(dp2772
g72
I3
ssg73
g2766
sg66
(lp2773
g1736
asbasbasbag59
(g75
g61
NtRp2774
(dp2775
g64
(dp2776
sg73
g2623
sg66
(lp2777
g59
(g80
g61
NtRp2778
(dp2779
g64
(dp2780
g84
g85
ssg73
g2774
sg66
(lp2781
S'HTTP_HOST'
p2782
asbag59
(g80
g61
NtRp2783
(dp2784
g64
(dp2785
g91
g92
ssg73
g2774
sg66
(lp2786
S':'
asbag59
(g80
g61
NtRp2787
(dp2788
g64
(dp2789
sg73
g2774
sg66
(lp2790
g59
(g60
g61
NtRp2791
(dp2792
g64
(dp2793
g72
I3
ssg73
g2787
sg66
(lp2794
g1758
asbasbasbag59
(g75
g61
NtRp2795
(dp2796
g64
(dp2797
sg73
g2623
sg66
(lp2798
g59
(g80
g61
NtRp2799
(dp2800
g64
(dp2801
g84
g85
ssg73
g2795
sg66
(lp2802
S'HTTP_REFERER'
p2803
asbag59
(g80
g61
NtRp2804
(dp2805
g64
(dp2806
g91
g92
ssg73
g2795
sg66
(lp2807
S':'
asbag59
(g80
g61
NtRp2808
(dp2809
g64
(dp2810
sg73
g2795
sg66
(lp2811
g59
(g60
g61
NtRp2812
(dp2813
g64
(dp2814
g72
I3
ssg73
g2808
sg66
(lp2815
g1780
asbasbasbag59
(g75
g61
NtRp2816
(dp2817
g64
(dp2818
sg73
g2623
sg66
(lp2819
g59
(g80
g61
NtRp2820
(dp2821
g64
(dp2822
g84
g85
ssg73
g2816
sg66
(lp2823
S'HTTP_USER_AGENT'
p2824
asbag59
(g80
g61
NtRp2825
(dp2826
g64
(dp2827
g91
g92
ssg73
g2816
sg66
(lp2828
S':'
asbag59
(g80
g61
NtRp2829
(dp2830
g64
(dp2831
sg73
g2816
sg66
(lp2832
g59
(g60
g61
NtRp2833
(dp2834
g64
(dp2835
g72
I3
ssg73
g2829
sg66
(lp2836
g1802
asbasbasbag59
(g75
g61
NtRp2837
(dp2838
g64
(dp2839
sg73
g2623
sg66
(lp2840
g59
(g80
g61
NtRp2841
(dp2842
g64
(dp2843
g84
g85
ssg73
g2837
sg66
(lp2844
S'PATH_INFO'
p2845
asbag59
(g80
g61
NtRp2846
(dp2847
g64
(dp2848
g91
g92
ssg73
g2837
sg66
(lp2849
S':'
asbag59
(g80
g61
NtRp2850
(dp2851
g64
(dp2852
sg73
g2837
sg66
(lp2853
g59
(g60
g61
NtRp2854
(dp2855
g64
(dp2856
g72
I3
ssg73
g2850
sg66
(lp2857
g1845
asbasbasbag59
(g75
g61
NtRp2858
(dp2859
g64
(dp2860
sg73
g2623
sg66
(lp2861
g59
(g80
g61
NtRp2862
(dp2863
g64
(dp2864
g84
g85
ssg73
g2858
sg66
(lp2865
S'QUERY_STRING'
p2866
asbag59
(g80
g61
NtRp2867
(dp2868
g64
(dp2869
g91
g92
ssg73
g2858
sg66
(lp2870
S':'
asbag59
(g80
g61
NtRp2871
(dp2872
g64
(dp2873
sg73
g2858
sg66
(lp2874
g59
(g60
g61
NtRp2875
(dp2876
g64
(dp2877
g72
I3
ssg73
g2871
sg66
(lp2878
S''
asbasbasbag59
(g75
g61
NtRp2879
(dp2880
g64
(dp2881
sg73
g2623
sg66
(lp2882
g59
(g80
g61
NtRp2883
(dp2884
g64
(dp2885
g84
g85
ssg73
g2879
sg66
(lp2886
S'REMOTE_ADDR'
p2887
asbag59
(g80
g61
NtRp2888
(dp2889
g64
(dp2890
g91
g92
ssg73
g2879
sg66
(lp2891
S':'
asbag59
(g80
g61
NtRp2892
(dp2893
g64
(dp2894
sg73
g2879
sg66
(lp2895
g59
(g60
g61
NtRp2896
(dp2897
g64
(dp2898
g72
I3
ssg73
g2892
sg66
(lp2899
g192
asbasbasbag59
(g75
g61
NtRp2900
(dp2901
g64
(dp2902
sg73
g2623
sg66
(lp2903
g59
(g80
g61
NtRp2904
(dp2905
g64
(dp2906
g84
g85
ssg73
g2900
sg66
(lp2907
S'REMOTE_PORT'
p2908
asbag59
(g80
g61
NtRp2909
(dp2910
g64
(dp2911
g91
g92
ssg73
g2900
sg66
(lp2912
S':'
asbag59
(g80
g61
NtRp2913
(dp2914
g64
(dp2915
sg73
g2900
sg66
(lp2916
g59
(g60
g61
NtRp2917
(dp2918
g64
(dp2919
g72
I3
ssg73
g2913
sg66
(lp2920
g1909
asbasbasbag59
(g75
g61
NtRp2921
(dp2922
g64
(dp2923
sg73
g2623
sg66
(lp2924
g59
(g80
g61
NtRp2925
(dp2926
g64
(dp2927
g84
g85
ssg73
g2921
sg66
(lp2928
S'REQUEST_METHOD'
p2929
asbag59
(g80
g61
NtRp2930
(dp2931
g64
(dp2932
g91
g92
ssg73
g2921
sg66
(lp2933
S':'
asbag59
(g80
g61
NtRp2934
(dp2935
g64
(dp2936
sg73
g2921
sg66
(lp2937
g59
(g60
g61
NtRp2938
(dp2939
g64
(dp2940
g72
I3
ssg73
g2934
sg66
(lp2941
g1931
asbasbasbag59
(g75
g61
NtRp2942
(dp2943
g64
(dp2944
sg73
g2623
sg66
(lp2945
g59
(g80
g61
NtRp2946
(dp2947
g64
(dp2948
g84
g85
ssg73
g2942
sg66
(lp2949
S'SCRIPT_NAME'
p2950
asbag59
(g80
g61
NtRp2951
(dp2952
g64
(dp2953
g91
g92
ssg73
g2942
sg66
(lp2954
S':'
asbag59
(g80
g61
NtRp2955
(dp2956
g64
(dp2957
sg73
g2942
sg66
(lp2958
g59
(g60
g61
NtRp2959
(dp2960
g64
(dp2961
g72
I3
ssg73
g2955
sg66
(lp2962
S''
asbasbasbag59
(g75
g61
NtRp2963
(dp2964
g64
(dp2965
sg73
g2623
sg66
(lp2966
g59
(g80
g61
NtRp2967
(dp2968
g64
(dp2969
g84
g85
ssg73
g2963
sg66
(lp2970
S'SERVER_NAME'
p2971
asbag59
(g80
g61
NtRp2972
(dp2973
g64
(dp2974
g91
g92
ssg73
g2963
sg66
(lp2975
S':'
asbag59
(g80
g61
NtRp2976
(dp2977
g64
(dp2978
sg73
g2963
sg66
(lp2979
g59
(g60
g61
NtRp2980
(dp2981
g64
(dp2982
g72
I3
ssg73
g2976
sg66
(lp2983
g1974
asbasbasbag59
(g75
g61
NtRp2984
(dp2985
g64
(dp2986
sg73
g2623
sg66
(lp2987
g59
(g80
g61
NtRp2988
(dp2989
g64
(dp2990
g84
g85
ssg73
g2984
sg66
(lp2991
S'SERVER_PORT'
p2992
asbag59
(g80
g61
NtRp2993
(dp2994
g64
(dp2995
g91
g92
ssg73
g2984
sg66
(lp2996
S':'
asbag59
(g80
g61
NtRp2997
(dp2998
g64
(dp2999
sg73
g2984
sg66
(lp3000
g59
(g60
g61
NtRp3001
(dp3002
g64
(dp3003
g72
I3
ssg73
g2997
sg66
(lp3004
g1996
asbasbasbag59
(g75
g61
NtRp3005
(dp3006
g64
(dp3007
sg73
g2623
sg66
(lp3008
g59
(g80
g61
NtRp3009
(dp3010
g64
(dp3011
g84
g85
ssg73
g3005
sg66
(lp3012
S'SERVER_PROTOCOL'
p3013
asbag59
(g80
g61
NtRp3014
(dp3015
g64
(dp3016
g91
g92
ssg73
g3005
sg66
(lp3017
S':'
asbag59
(g80
g61
NtRp3018
(dp3019
g64
(dp3020
sg73
g3005
sg66
(lp3021
g59
(g60
g61
NtRp3022
(dp3023
g64
(dp3024
g72
I3
ssg73
g3018
sg66
(lp3025
g2018
asbasbasbag59
(g75
g61
NtRp3026
(dp3027
g64
(dp3028
sg73
g2623
sg66
(lp3029
g59
(g80
g61
NtRp3030
(dp3031
g64
(dp3032
g84
g85
ssg73
g3026
sg66
(lp3033
S'SERVER_SOFTWARE'
p3034
asbag59
(g80
g61
NtRp3035
(dp3036
g64
(dp3037
g91
g92
ssg73
g3026
sg66
(lp3038
S':'
asbag59
(g80
g61
NtRp3039
(dp3040
g64
(dp3041
sg73
g3026
sg66
(lp3042
g59
(g60
g61
NtRp3043
(dp3044
g64
(dp3045
g72
I3
ssg73
g3039
sg66
(lp3046
g2040
asbasbasbag59
(g75
g61
NtRp3047
(dp3048
g64
(dp3049
sg73
g2623
sg66
(lp3050
g59
(g80
g61
NtRp3051
(dp3052
g64
(dp3053
g84
g85
ssg73
g3047
sg66
(lp3054
S'wsgi.errors'
p3055
asbag59
(g80
g61
NtRp3056
(dp3057
g64
(dp3058
g91
g92
ssg73
g3047
sg66
(lp3059
S':'
asbag59
(g80
g61
NtRp3060
(dp3061
g64
(dp3062
sg73
g3047
sg66
(lp3063
g59
(g60
g61
NtRp3064
(dp3065
g64
(dp3066
g72
I3
ssg73
g3060
sg66
(lp3067
S"<open file '<stderr>', mode 'w' at 0x003100B0>"
p3068
asbasbasbag59
(g75
g61
NtRp3069
(dp3070
g64
(dp3071
sg73
g2623
sg66
(lp3072
g59
(g80
g61
NtRp3073
(dp3074
g64
(dp3075
g84
g85
ssg73
g3069
sg66
(lp3076
S'wsgi.file_wrapper'
p3077
asbag59
(g80
g61
NtRp3078
(dp3079
g64
(dp3080
g91
g92
ssg73
g3069
sg66
(lp3081
S':'
asbag59
(g80
g61
NtRp3082
(dp3083
g64
(dp3084
sg73
g3069
sg66
(lp3085
g59
(g60
g61
NtRp3086
(dp3087
g64
(dp3088
g72
I3
ssg73
g3082
sg66
(lp3089
S'<class gluon.rocket.FileWrapper at 0x02FFC1B0>'
p3090
asbasbasbag59
(g75
g61
NtRp3091
(dp3092
g64
(dp3093
sg73
g2623
sg66
(lp3094
g59
(g80
g61
NtRp3095
(dp3096
g64
(dp3097
g84
g85
ssg73
g3091
sg66
(lp3098
S'wsgi.input'
p3099
asbag59
(g80
g61
NtRp3100
(dp3101
g64
(dp3102
g91
g92
ssg73
g3091
sg66
(lp3103
S':'
asbag59
(g80
g61
NtRp3104
(dp3105
g64
(dp3106
sg73
g3091
sg66
(lp3107
g59
(g60
g61
NtRp3108
(dp3109
g64
(dp3110
g72
I3
ssg73
g3104
sg66
(lp3111
S'<cStringIO.StringO object at 0x07CC1540>'
p3112
asbasbasbag59
(g75
g61
NtRp3113
(dp3114
g64
(dp3115
sg73
g2623
sg66
(lp3116
g59
(g80
g61
NtRp3117
(dp3118
g64
(dp3119
g84
g85
ssg73
g3113
sg66
(lp3120
S'wsgi.multiprocess'
p3121
asbag59
(g80
g61
NtRp3122
(dp3123
g64
(dp3124
g91
g92
ssg73
g3113
sg66
(lp3125
S':'
asbag59
(g80
g61
NtRp3126
(dp3127
g64
(dp3128
sg73
g3113
sg66
(lp3129
g59
(g60
g61
NtRp3130
(dp3131
g64
(dp3132
g72
I3
ssg73
g3126
sg66
(lp3133
g102
asbasbasbag59
(g75
g61
NtRp3134
(dp3135
g64
(dp3136
sg73
g2623
sg66
(lp3137
g59
(g80
g61
NtRp3138
(dp3139
g64
(dp3140
g84
g85
ssg73
g3134
sg66
(lp3141
S'wsgi.multithread'
p3142
asbag59
(g80
g61
NtRp3143
(dp3144
g64
(dp3145
g91
g92
ssg73
g3134
sg66
(lp3146
S':'
asbag59
(g80
g61
NtRp3147
(dp3148
g64
(dp3149
sg73
g3134
sg66
(lp3150
g59
(g60
g61
NtRp3151
(dp3152
g64
(dp3153
g72
I3
ssg73
g3147
sg66
(lp3154
g2214
asbasbasbag59
(g75
g61
NtRp3155
(dp3156
g64
(dp3157
sg73
g2623
sg66
(lp3158
g59
(g80
g61
NtRp3159
(dp3160
g64
(dp3161
g84
g85
ssg73
g3155
sg66
(lp3162
S'wsgi.run_once'
p3163
asbag59
(g80
g61
NtRp3164
(dp3165
g64
(dp3166
g91
g92
ssg73
g3155
sg66
(lp3167
S':'
asbag59
(g80
g61
NtRp3168
(dp3169
g64
(dp3170
sg73
g3155
sg66
(lp3171
g59
(g60
g61
NtRp3172
(dp3173
g64
(dp3174
g72
I3
ssg73
g3168
sg66
(lp3175
g102
asbasbasbag59
(g75
g61
NtRp3176
(dp3177
g64
(dp3178
sg73
g2623
sg66
(lp3179
g59
(g80
g61
NtRp3180
(dp3181
g64
(dp3182
g84
g85
ssg73
g3176
sg66
(lp3183
S'wsgi.url_scheme'
p3184
asbag59
(g80
g61
NtRp3185
(dp3186
g64
(dp3187
g91
g92
ssg73
g3176
sg66
(lp3188
S':'
asbag59
(g80
g61
NtRp3189
(dp3190
g64
(dp3191
sg73
g3176
sg66
(lp3192
g59
(g60
g61
NtRp3193
(dp3194
g64
(dp3195
g72
I3
ssg73
g3189
sg66
(lp3196
g2257
asbasbasbag59
(g75
g61
NtRp3197
(dp3198
g64
(dp3199
sg73
g2623
sg66
(lp3200
g59
(g80
g61
NtRp3201
(dp3202
g64
(dp3203
g84
g85
ssg73
g3197
sg66
(lp3204
S'wsgi.version'
p3205
asbag59
(g80
g61
NtRp3206
(dp3207
g64
(dp3208
g91
g92
ssg73
g3197
sg66
(lp3209
S':'
asbag59
(g80
g61
NtRp3210
(dp3211
g64
(dp3212
sg73
g3197
sg66
(lp3213
g59
(g60
g61
NtRp3214
(dp3215
g64
(dp3216
g72
I3
ssg73
g3210
sg66
(lp3217
S'1'
asbasbasbasbasbasbasbasbasbasbasbasbasbsS'frames'
p3218
(lp3219
(dp3220
S'file'
p3221
S'C:\\Users\\Atomico\\web2py\\gluon\\restricted.py'
p3222
sS'dump'
p3223
(dp3224
sS'lnum'
p3225
I191
sS'lines'
p3226
(dp3227
sS'call'
p3228
S'(code=\'response.write(\\\'<!DOCTYPE html>\\\\n<html lang="\\\', ...t   -->    \\\\n  </body>\\\\n</html>\\\\n\\\', escape=False)\', environment={\'A\': <class \'gluon.html.A\'>, \'B\': <class \'gluon.html.B\'>, \'BEAUTIFY\': <class \'gluon.html.BEAUTIFY\'>, \'BODY\': <class \'gluon.html.BODY\'>, \'BR\': <class \'gluon.html.BR\'>, \'BUTTON\': <class \'gluon.html.BUTTON\'>, \'CAT\': <class \'gluon.html.CAT\'>, \'CENTER\': <class \'gluon.html.CENTER\'>, \'CLEANUP\': <class \'gluon.validators.CLEANUP\'>, \'CODE\': <class \'gluon.html.CODE\'>, ...}, layer=r\'C:\\Users\\Atomico\\web2py\\applications\\Desglosar_Emails\\views\\default/entrada_mod3.html\')'
p3229
sS'func'
p3230
S'restricted'
p3231
sa(dp3232
g3221
S'C:\\Users\\Atomico\\web2py\\gluon\\restricted.py'
p3233
sg3223
(dp3234
sg3225
I178
sg3226
(dp3235
sg3228
S'(code=\'response.write(\\\'<!DOCTYPE html>\\\\n<html lang="\\\', ...t   -->    \\\\n  </body>\\\\n</html>\\\\n\\\', escape=False)\', layer=r\'C:\\Users\\Atomico\\web2py\\applications\\Desglosar_Emails\\views\\default/entrada_mod3.html\')'
p3236
sg3230
S'compile2'
p3237
sasS'pyver'
p3238
S'Python 2.5.4: C:\\Users\\Atomico\\web2py\\web2py.exe'
p3239
sS'session'
p3240
g59
(g60
g61
NtRp3241
(dp3242
g64
(dp3243
sg66
(lp3244
g59
(g68
g61
NtRp3245
(dp3246
g64
(dp3247
g72
I5
ssg73
Nsg66
(lp3248
g59
(g75
g61
NtRp3249
(dp3250
g64
(dp3251
sg73
g3245
sg66
(lp3252
g59
(g80
g61
NtRp3253
(dp3254
g64
(dp3255
g84
g85
ssg73
g3249
sg66
(lp3256
S'last_query'
p3257
asbag59
(g80
g61
NtRp3258
(dp3259
g64
(dp3260
g91
g92
ssg73
g3249
sg66
(lp3261
S':'
asbag59
(g80
g61
NtRp3262
(dp3263
g64
(dp3264
sg73
g3249
sg66
(lp3265
g59
(g60
g61
NtRp3266
(dp3267
g64
(dp3268
g72
I5
ssg73
g3262
sg66
(lp3269
S'db.info2.id>0'
p3270
asbasbasbasbasbsS'etype'
p3271
S"<type 'exceptions.SyntaxError'>"
p3272
sS'date'
p3273
S'Mon Sep 19 14:59:09 2011'
p3274
sS'response'
p3275
g59
(g60
g61
NtRp3276
(dp3277
g64
(dp3278
sg66
(lp3279
g59
(g68
g61
NtRp3280
(dp3281
g64
(dp3282
g72
I5
ssg73
Nsg66
(lp3283
g59
(g75
g61
NtRp3284
(dp3285
g64
(dp3286
sg73
g3280
sg66
(lp3287
g59
(g80
g61
NtRp3288
(dp3289
g64
(dp3290
g84
g85
ssg73
g3284
sg66
(lp3291
g157
asbag59
(g80
g61
NtRp3292
(dp3293
g64
(dp3294
g91
g92
ssg73
g3284
sg66
(lp3295
S':'
asbag59
(g80
g61
NtRp3296
(dp3297
g64
(dp3298
sg73
g3284
sg66
(lp3299
g59
(g60
g61
NtRp3300
(dp3301
g64
(dp3302
g72
I5
ssg73
g3296
sg66
(lp3303
S'<cStringIO.StringO object at 0x07744540>'
p3304
asbasbasbag59
(g75
g61
NtRp3305
(dp3306
g64
(dp3307
sg73
g3280
sg66
(lp3308
g59
(g80
g61
NtRp3309
(dp3310
g64
(dp3311
g84
g85
ssg73
g3305
sg66
(lp3312
g223
asbag59
(g80
g61
NtRp3313
(dp3314
g64
(dp3315
g91
g92
ssg73
g3305
sg66
(lp3316
S':'
asbag59
(g80
g61
NtRp3317
(dp3318
g64
(dp3319
sg73
g3305
sg66
(lp3320
g59
(g60
g61
NtRp3321
(dp3322
g64
(dp3323
g72
I5
ssg73
g3317
sg66
(lp3324
g59
(g68
g61
NtRp3325
(dp3326
g64
(dp3327
g72
I4
ssg73
Nsg66
(lp3328
g59
(g75
g61
NtRp3329
(dp3330
g64
(dp3331
sg73
g3325
sg66
(lp3332
g59
(g80
g61
NtRp3333
(dp3334
g64
(dp3335
g84
g85
ssg73
g3329
sg66
(lp3336
S'session_id_desglosar_emails'
p3337
asbag59
(g80
g61
NtRp3338
(dp3339
g64
(dp3340
g91
g92
ssg73
g3329
sg66
(lp3341
S':'
asbag59
(g80
g61
NtRp3342
(dp3343
g64
(dp3344
sg73
g3329
sg66
(lp3345
g59
(g60
g61
NtRp3346
(dp3347
g64
(dp3348
g72
I4
ssg73
g3342
sg66
(lp3349
g59
(g68
g61
NtRp3350
(dp3351
g64
(dp3352
g72
I3
ssg73
Nsg66
(lp3353
g59
(g75
g61
NtRp3354
(dp3355
g64
(dp3356
sg73
g3350
sg66
(lp3357
g59
(g80
g61
NtRp3358
(dp3359
g64
(dp3360
g84
g85
ssg73
g3354
sg66
(lp3361
g273
asbag59
(g80
g61
NtRp3362
(dp3363
g64
(dp3364
g91
g92
ssg73
g3354
sg66
(lp3365
S':'
asbag59
(g80
g61
NtRp3366
(dp3367
g64
(dp3368
sg73
g3354
sg66
(lp3369
g59
(g60
g61
NtRp3370
(dp3371
g64
(dp3372
g72
I3
ssg73
g3366
sg66
(lp3373
S''
asbasbasbag59
(g75
g61
NtRp3374
(dp3375
g64
(dp3376
sg73
g3350
sg66
(lp3377
g59
(g80
g61
NtRp3378
(dp3379
g64
(dp3380
g84
g85
ssg73
g3374
sg66
(lp3381
g294
asbag59
(g80
g61
NtRp3382
(dp3383
g64
(dp3384
g91
g92
ssg73
g3374
sg66
(lp3385
S':'
asbag59
(g80
g61
NtRp3386
(dp3387
g64
(dp3388
sg73
g3374
sg66
(lp3389
g59
(g60
g61
NtRp3390
(dp3391
g64
(dp3392
g72
I3
ssg73
g3386
sg66
(lp3393
S''
asbasbasbag59
(g75
g61
NtRp3394
(dp3395
g64
(dp3396
sg73
g3350
sg66
(lp3397
g59
(g80
g61
NtRp3398
(dp3399
g64
(dp3400
g84
g85
ssg73
g3394
sg66
(lp3401
g315
asbag59
(g80
g61
NtRp3402
(dp3403
g64
(dp3404
g91
g92
ssg73
g3394
sg66
(lp3405
S':'
asbag59
(g80
g61
NtRp3406
(dp3407
g64
(dp3408
sg73
g3394
sg66
(lp3409
g59
(g60
g61
NtRp3410
(dp3411
g64
(dp3412
g72
I3
ssg73
g3406
sg66
(lp3413
S''
asbasbasbag59
(g75
g61
NtRp3414
(dp3415
g64
(dp3416
sg73
g3350
sg66
(lp3417
g59
(g80
g61
NtRp3418
(dp3419
g64
(dp3420
g84
g85
ssg73
g3414
sg66
(lp3421
g336
asbag59
(g80
g61
NtRp3422
(dp3423
g64
(dp3424
g91
g92
ssg73
g3414
sg66
(lp3425
S':'
asbag59
(g80
g61
NtRp3426
(dp3427
g64
(dp3428
sg73
g3414
sg66
(lp3429
g59
(g60
g61
NtRp3430
(dp3431
g64
(dp3432
g72
I3
ssg73
g3426
sg66
(lp3433
S''
asbasbasbag59
(g75
g61
NtRp3434
(dp3435
g64
(dp3436
sg73
g3350
sg66
(lp3437
g59
(g80
g61
NtRp3438
(dp3439
g64
(dp3440
g84
g85
ssg73
g3434
sg66
(lp3441
g357
asbag59
(g80
g61
NtRp3442
(dp3443
g64
(dp3444
g91
g92
ssg73
g3434
sg66
(lp3445
S':'
asbag59
(g80
g61
NtRp3446
(dp3447
g64
(dp3448
sg73
g3434
sg66
(lp3449
g59
(g60
g61
NtRp3450
(dp3451
g64
(dp3452
g72
I3
ssg73
g3446
sg66
(lp3453
S'/'
asbasbasbag59
(g75
g61
NtRp3454
(dp3455
g64
(dp3456
sg73
g3350
sg66
(lp3457
g59
(g80
g61
NtRp3458
(dp3459
g64
(dp3460
g84
g85
ssg73
g3454
sg66
(lp3461
g378
asbag59
(g80
g61
NtRp3462
(dp3463
g64
(dp3464
g91
g92
ssg73
g3454
sg66
(lp3465
S':'
asbag59
(g80
g61
NtRp3466
(dp3467
g64
(dp3468
sg73
g3454
sg66
(lp3469
g59
(g60
g61
NtRp3470
(dp3471
g64
(dp3472
g72
I3
ssg73
g3466
sg66
(lp3473
S''
asbasbasbag59
(g75
g61
NtRp3474
(dp3475
g64
(dp3476
sg73
g3350
sg66
(lp3477
g59
(g80
g61
NtRp3478
(dp3479
g64
(dp3480
g84
g85
ssg73
g3474
sg66
(lp3481
g399
asbag59
(g80
g61
NtRp3482
(dp3483
g64
(dp3484
g91
g92
ssg73
g3474
sg66
(lp3485
S':'
asbag59
(g80
g61
NtRp3486
(dp3487
g64
(dp3488
sg73
g3474
sg66
(lp3489
g59
(g60
g61
NtRp3490
(dp3491
g64
(dp3492
g72
I3
ssg73
g3486
sg66
(lp3493
S''
asbasbasbasbasbasbasbasbasbasbasbag59
(g75
g61
NtRp3494
(dp3495
g64
(dp3496
sg73
g3280
sg66
(lp3497
g59
(g80
g61
NtRp3498
(dp3499
g64
(dp3500
g84
g85
ssg73
g3494
sg66
(lp3501
S'files'
p3502
asbag59
(g80
g61
NtRp3503
(dp3504
g64
(dp3505
g91
g92
ssg73
g3494
sg66
(lp3506
S':'
asbag59
(g80
g61
NtRp3507
(dp3508
g64
(dp3509
sg73
g3494
sg66
(lp3510
g59
(g60
g61
NtRp3511
(dp3512
g64
(dp3513
g72
I5
ssg73
g3507
sg66
(lp3514
g59
(g68
g61
NtRp3515
(dp3516
g64
(dp3517
g72
I4
ssg73
Nsg66
(lp3518
sbasbasbasbag59
(g75
g61
NtRp3519
(dp3520
g64
(dp3521
sg73
g3280
sg66
(lp3522
g59
(g80
g61
NtRp3523
(dp3524
g64
(dp3525
g84
g85
ssg73
g3519
sg66
(lp3526
S'flash'
p3527
asbag59
(g80
g61
NtRp3528
(dp3529
g64
(dp3530
g91
g92
ssg73
g3519
sg66
(lp3531
S':'
asbag59
(g80
g61
NtRp3532
(dp3533
g64
(dp3534
sg73
g3519
sg66
(lp3535
g59
(g60
g61
NtRp3536
(dp3537
g64
(dp3538
g72
I5
ssg73
g3532
sg66
(lp3539
S''
asbasbasbag59
(g75
g61
NtRp3540
(dp3541
g64
(dp3542
sg73
g3280
sg66
(lp3543
g59
(g80
g61
NtRp3544
(dp3545
g64
(dp3546
g84
g85
ssg73
g3540
sg66
(lp3547
S'generic_patterns'
p3548
asbag59
(g80
g61
NtRp3549
(dp3550
g64
(dp3551
g91
g92
ssg73
g3540
sg66
(lp3552
S':'
asbag59
(g80
g61
NtRp3553
(dp3554
g64
(dp3555
sg73
g3540
sg66
(lp3556
g59
(g60
g61
NtRp3557
(dp3558
g64
(dp3559
g72
I5
ssg73
g3553
sg66
(lp3560
g59
(g68
g61
NtRp3561
(dp3562
g64
(dp3563
g72
I4
ssg73
Nsg66
(lp3564
sbasbasbasbag59
(g75
g61
NtRp3565
(dp3566
g64
(dp3567
sg73
g3280
sg66
(lp3568
g59
(g80
g61
NtRp3569
(dp3570
g64
(dp3571
g84
g85
ssg73
g3565
sg66
(lp3572
S'headers'
p3573
asbag59
(g80
g61
NtRp3574
(dp3575
g64
(dp3576
g91
g92
ssg73
g3565
sg66
(lp3577
S':'
asbag59
(g80
g61
NtRp3578
(dp3579
g64
(dp3580
sg73
g3565
sg66
(lp3581
g59
(g60
g61
NtRp3582
(dp3583
g64
(dp3584
g72
I5
ssg73
g3578
sg66
(lp3585
g59
(g68
g61
NtRp3586
(dp3587
g64
(dp3588
g72
I4
ssg73
Nsg66
(lp3589
g59
(g75
g61
NtRp3590
(dp3591
g64
(dp3592
sg73
g3586
sg66
(lp3593
g59
(g80
g61
NtRp3594
(dp3595
g64
(dp3596
g84
g85
ssg73
g3590
sg66
(lp3597
S'Cache-Control'
p3598
asbag59
(g80
g61
NtRp3599
(dp3600
g64
(dp3601
g91
g92
ssg73
g3590
sg66
(lp3602
S':'
asbag59
(g80
g61
NtRp3603
(dp3604
g64
(dp3605
sg73
g3590
sg66
(lp3606
g59
(g60
g61
NtRp3607
(dp3608
g64
(dp3609
g72
I4
ssg73
g3603
sg66
(lp3610
S'no-store, no-cache, must-revalidate, post-check=0, pre-check=0'
p3611
asbasbasbag59
(g75
g61
NtRp3612
(dp3613
g64
(dp3614
sg73
g3586
sg66
(lp3615
g59
(g80
g61
NtRp3616
(dp3617
g64
(dp3618
g84
g85
ssg73
g3612
sg66
(lp3619
S'Content-Type'
p3620
asbag59
(g80
g61
NtRp3621
(dp3622
g64
(dp3623
g91
g92
ssg73
g3612
sg66
(lp3624
S':'
asbag59
(g80
g61
NtRp3625
(dp3626
g64
(dp3627
sg73
g3612
sg66
(lp3628
g59
(g60
g61
NtRp3629
(dp3630
g64
(dp3631
g72
I4
ssg73
g3625
sg66
(lp3632
S'text/html; charset=utf-8'
p3633
asbasbasbag59
(g75
g61
NtRp3634
(dp3635
g64
(dp3636
sg73
g3586
sg66
(lp3637
g59
(g80
g61
NtRp3638
(dp3639
g64
(dp3640
g84
g85
ssg73
g3634
sg66
(lp3641
S'Expires'
p3642
asbag59
(g80
g61
NtRp3643
(dp3644
g64
(dp3645
g91
g92
ssg73
g3634
sg66
(lp3646
S':'
asbag59
(g80
g61
NtRp3647
(dp3648
g64
(dp3649
sg73
g3634
sg66
(lp3650
g59
(g60
g61
NtRp3651
(dp3652
g64
(dp3653
g72
I4
ssg73
g3647
sg66
(lp3654
S'Mon, 19 Sep 2011 12:59:09 GMT'
p3655
asbasbasbag59
(g75
g61
NtRp3656
(dp3657
g64
(dp3658
sg73
g3586
sg66
(lp3659
g59
(g80
g61
NtRp3660
(dp3661
g64
(dp3662
g84
g85
ssg73
g3656
sg66
(lp3663
S'Pragma'
p3664
asbag59
(g80
g61
NtRp3665
(dp3666
g64
(dp3667
g91
g92
ssg73
g3656
sg66
(lp3668
S':'
asbag59
(g80
g61
NtRp3669
(dp3670
g64
(dp3671
sg73
g3656
sg66
(lp3672
g59
(g60
g61
NtRp3673
(dp3674
g64
(dp3675
g72
I4
ssg73
g3669
sg66
(lp3676
S'no-cache'
p3677
asbasbasbag59
(g75
g61
NtRp3678
(dp3679
g64
(dp3680
sg73
g3586
sg66
(lp3681
g59
(g80
g61
NtRp3682
(dp3683
g64
(dp3684
g84
g85
ssg73
g3678
sg66
(lp3685
S'X-Powered-By'
p3686
asbag59
(g80
g61
NtRp3687
(dp3688
g64
(dp3689
g91
g92
ssg73
g3678
sg66
(lp3690
S':'
asbag59
(g80
g61
NtRp3691
(dp3692
g64
(dp3693
sg73
g3678
sg66
(lp3694
g59
(g60
g61
NtRp3695
(dp3696
g64
(dp3697
g72
I4
ssg73
g3691
sg66
(lp3698
S'web2py'
p3699
asbasbasbasbasbasbasbag59
(g75
g61
NtRp3700
(dp3701
g64
(dp3702
sg73
g3280
sg66
(lp3703
g59
(g80
g61
NtRp3704
(dp3705
g64
(dp3706
g84
g85
ssg73
g3700
sg66
(lp3707
S'menu'
p3708
asbag59
(g80
g61
NtRp3709
(dp3710
g64
(dp3711
g91
g92
ssg73
g3700
sg66
(lp3712
S':'
asbag59
(g80
g61
NtRp3713
(dp3714
g64
(dp3715
sg73
g3700
sg66
(lp3716
g59
(g60
g61
NtRp3717
(dp3718
g64
(dp3719
g72
I5
ssg73
g3713
sg66
(lp3720
g59
(g68
g61
NtRp3721
(dp3722
g64
(dp3723
g72
I4
ssg73
Nsg66
(lp3724
g59
(g75
g61
NtRp3725
(dp3726
g64
(dp3727
sg73
g3721
sg66
(lp3728
g59
(g80
g61
NtRp3729
(dp3730
g64
(dp3731
sg73
g3725
sg66
(lp3732
g59
(g60
g61
NtRp3733
(dp3734
g64
(dp3735
g72
I4
ssg73
g3729
sg66
(lp3736
g59
(g68
g61
NtRp3737
(dp3738
g64
(dp3739
g72
I3
ssg73
Nsg66
(lp3740
g59
(g75
g61
NtRp3741
(dp3742
g64
(dp3743
sg73
g3737
sg66
(lp3744
g59
(g80
g61
NtRp3745
(dp3746
g64
(dp3747
sg73
g3741
sg66
(lp3748
g59
(g60
g61
NtRp3749
(dp3750
g64
(dp3751
g72
I3
ssg73
g3745
sg66
(lp3752
cgluon.languages
lazyT_unpickle
p3753
(S't\x04\x00\x00\x00Home'
tRp3754
asbasbasbag59
(g75
g61
NtRp3755
(dp3756
g64
(dp3757
sg73
g3737
sg66
(lp3758
g59
(g80
g61
NtRp3759
(dp3760
g64
(dp3761
sg73
g3755
sg66
(lp3762
g59
(g60
g61
NtRp3763
(dp3764
g64
(dp3765
g72
I3
ssg73
g3759
sg66
(lp3766
g102
asbasbasbag59
(g75
g61
NtRp3767
(dp3768
g64
(dp3769
sg73
g3737
sg66
(lp3770
g59
(g80
g61
NtRp3771
(dp3772
g64
(dp3773
sg73
g3767
sg66
(lp3774
g59
(g60
g61
NtRp3775
(dp3776
g64
(dp3777
g72
I3
ssg73
g3771
sg66
(lp3778
S'/Desglosar_Emails/default/index'
p3779
asbasbasbag59
(g75
g61
NtRp3780
(dp3781
g64
(dp3782
sg73
g3737
sg66
(lp3783
g59
(g80
g61
NtRp3784
(dp3785
g64
(dp3786
sg73
g3780
sg66
(lp3787
g59
(g60
g61
NtRp3788
(dp3789
g64
(dp3790
g72
I3
ssg73
g3784
sg66
(lp3791
g59
(g68
g61
NtRp3792
(dp3793
g64
(dp3794
g72
I2
ssg73
Nsg66
(lp3795
sbasbasbasbasbasbasbasbag59
(g75
g61
NtRp3796
(dp3797
g64
(dp3798
sg73
g3721
sg66
(lp3799
g59
(g80
g61
NtRp3800
(dp3801
g64
(dp3802
sg73
g3796
sg66
(lp3803
g59
(g60
g61
NtRp3804
(dp3805
g64
(dp3806
g72
I4
ssg73
g3800
sg66
(lp3807
g59
(g68
g61
NtRp3808
(dp3809
g64
(dp3810
g72
I3
ssg73
Nsg66
(lp3811
g59
(g75
g61
NtRp3812
(dp3813
g64
(dp3814
sg73
g3808
sg66
(lp3815
g59
(g80
g61
NtRp3816
(dp3817
g64
(dp3818
sg73
g3812
sg66
(lp3819
g59
(g60
g61
NtRp3820
(dp3821
g64
(dp3822
g72
I3
ssg73
g3816
sg66
(lp3823
g3753
(S's\x08\x00\x00\x00This App'
tRp3824
asbasbasbag59
(g75
g61
NtRp3825
(dp3826
g64
(dp3827
sg73
g3808
sg66
(lp3828
g59
(g80
g61
NtRp3829
(dp3830
g64
(dp3831
sg73
g3825
sg66
(lp3832
g59
(g60
g61
NtRp3833
(dp3834
g64
(dp3835
g72
I3
ssg73
g3829
sg66
(lp3836
g102
asbasbasbag59
(g75
g61
NtRp3837
(dp3838
g64
(dp3839
sg73
g3808
sg66
(lp3840
g59
(g80
g61
NtRp3841
(dp3842
g64
(dp3843
sg73
g3837
sg66
(lp3844
g59
(g60
g61
NtRp3845
(dp3846
g64
(dp3847
g72
I3
ssg73
g3841
sg66
(lp3848
S'/admin/default/design/Desglosar_Emails'
p3849
asbasbasbag59
(g75
g61
NtRp3850
(dp3851
g64
(dp3852
sg73
g3808
sg66
(lp3853
g59
(g80
g61
NtRp3854
(dp3855
g64
(dp3856
sg73
g3850
sg66
(lp3857
g59
(g60
g61
NtRp3858
(dp3859
g64
(dp3860
g72
I3
ssg73
g3854
sg66
(lp3861
g59
(g68
g61
NtRp3862
(dp3863
g64
(dp3864
g72
I2
ssg73
Nsg66
(lp3865
g59
(g75
g61
NtRp3866
(dp3867
g64
(dp3868
sg73
g3862
sg66
(lp3869
g59
(g80
g61
NtRp3870
(dp3871
g64
(dp3872
sg73
g3866
sg66
(lp3873
g59
(g60
g61
NtRp3874
(dp3875
g64
(dp3876
g72
I2
ssg73
g3870
sg66
(lp3877
g59
(g68
g61
NtRp3878
(dp3879
g64
(dp3880
g72
I1
ssg73
Nsg66
(lp3881
g59
(g75
g61
NtRp3882
(dp3883
g64
(dp3884
sg73
g3878
sg66
(lp3885
g59
(g80
g61
NtRp3886
(dp3887
g64
(dp3888
sg73
g3882
sg66
(lp3889
g59
(g60
g61
NtRp3890
(dp3891
g64
(dp3892
g72
I1
ssg73
g3886
sg66
(lp3893
g3753
(S't\x0b\x00\x00\x00Controlador'
tRp3894
asbasbasbag59
(g75
g61
NtRp3895
(dp3896
g64
(dp3897
sg73
g3878
sg66
(lp3898
g59
(g80
g61
NtRp3899
(dp3900
g64
(dp3901
sg73
g3895
sg66
(lp3902
g59
(g60
g61
NtRp3903
(dp3904
g64
(dp3905
g72
I1
ssg73
g3899
sg66
(lp3906
I00
asbasbasbag59
(g75
g61
NtRp3907
(dp3908
g64
(dp3909
sg73
g3878
sg66
(lp3910
g59
(g80
g61
NtRp3911
(dp3912
g64
(dp3913
sg73
g3907
sg66
(lp3914
g59
(g60
g61
NtRp3915
(dp3916
g64
(dp3917
g72
I1
ssg73
g3911
sg66
(lp3918
S'/admin/default/edit/Desglosar_Emails/controllers/default.py'
p3919
asbasbasbasbasbasbasbag59
(g75
g61
NtRp3920
(dp3921
g64
(dp3922
sg73
g3862
sg66
(lp3923
g59
(g80
g61
NtRp3924
(dp3925
g64
(dp3926
sg73
g3920
sg66
(lp3927
g59
(g60
g61
NtRp3928
(dp3929
g64
(dp3930
g72
I2
ssg73
g3924
sg66
(lp3931
g59
(g68
g61
NtRp3932
(dp3933
g64
(dp3934
g72
I1
ssg73
Nsg66
(lp3935
g59
(g75
g61
NtRp3936
(dp3937
g64
(dp3938
sg73
g3932
sg66
(lp3939
g59
(g80
g61
NtRp3940
(dp3941
g64
(dp3942
sg73
g3936
sg66
(lp3943
g59
(g60
g61
NtRp3944
(dp3945
g64
(dp3946
g72
I1
ssg73
g3940
sg66
(lp3947
g3753
(S't\x05\x00\x00\x00Vista'
tRp3948
asbasbasbag59
(g75
g61
NtRp3949
(dp3950
g64
(dp3951
sg73
g3932
sg66
(lp3952
g59
(g80
g61
NtRp3953
(dp3954
g64
(dp3955
sg73
g3949
sg66
(lp3956
g59
(g60
g61
NtRp3957
(dp3958
g64
(dp3959
g72
I1
ssg73
g3953
sg66
(lp3960
I00
asbasbasbag59
(g75
g61
NtRp3961
(dp3962
g64
(dp3963
sg73
g3932
sg66
(lp3964
g59
(g80
g61
NtRp3965
(dp3966
g64
(dp3967
sg73
g3961
sg66
(lp3968
g59
(g60
g61
NtRp3969
(dp3970
g64
(dp3971
g72
I1
ssg73
g3965
sg66
(lp3972
S'/admin/default/edit/Desglosar_Emails/views/default/entrada_mod3.html'
p3973
asbasbasbasbasbasbasbag59
(g75
g61
NtRp3974
(dp3975
g64
(dp3976
sg73
g3862
sg66
(lp3977
g59
(g80
g61
NtRp3978
(dp3979
g64
(dp3980
sg73
g3974
sg66
(lp3981
g59
(g60
g61
NtRp3982
(dp3983
g64
(dp3984
g72
I2
ssg73
g3978
sg66
(lp3985
g59
(g68
g61
NtRp3986
(dp3987
g64
(dp3988
g72
I1
ssg73
Nsg66
(lp3989
g59
(g75
g61
NtRp3990
(dp3991
g64
(dp3992
sg73
g3986
sg66
(lp3993
g59
(g80
g61
NtRp3994
(dp3995
g64
(dp3996
sg73
g3990
sg66
(lp3997
g59
(g60
g61
NtRp3998
(dp3999
g64
(dp4000
g72
I1
ssg73
g3994
sg66
(lp4001
g3753
(S's\x12\x00\x00\x00Dise\xc3\xb1o de p\xc3\xa1gina'
tRp4002
asbasbasbag59
(g75
g61
NtRp4003
(dp4004
g64
(dp4005
sg73
g3986
sg66
(lp4006
g59
(g80
g61
NtRp4007
(dp4008
g64
(dp4009
sg73
g4003
sg66
(lp4010
g59
(g60
g61
NtRp4011
(dp4012
g64
(dp4013
g72
I1
ssg73
g4007
sg66
(lp4014
I00
asbasbasbag59
(g75
g61
NtRp4015
(dp4016
g64
(dp4017
sg73
g3986
sg66
(lp4018
g59
(g80
g61
NtRp4019
(dp4020
g64
(dp4021
sg73
g4015
sg66
(lp4022
g59
(g60
g61
NtRp4023
(dp4024
g64
(dp4025
g72
I1
ssg73
g4019
sg66
(lp4026
S'/admin/default/edit/Desglosar_Emails/views/layout.html'
p4027
asbasbasbasbasbasbasbag59
(g75
g61
NtRp4028
(dp4029
g64
(dp4030
sg73
g3862
sg66
(lp4031
g59
(g80
g61
NtRp4032
(dp4033
g64
(dp4034
sg73
g4028
sg66
(lp4035
g59
(g60
g61
NtRp4036
(dp4037
g64
(dp4038
g72
I2
ssg73
g4032
sg66
(lp4039
g59
(g68
g61
NtRp4040
(dp4041
g64
(dp4042
g72
I1
ssg73
Nsg66
(lp4043
g59
(g75
g61
NtRp4044
(dp4045
g64
(dp4046
sg73
g4040
sg66
(lp4047
g59
(g80
g61
NtRp4048
(dp4049
g64
(dp4050
sg73
g4044
sg66
(lp4051
g59
(g60
g61
NtRp4052
(dp4053
g64
(dp4054
g72
I1
ssg73
g4048
sg66
(lp4055
g3753
(S's\x0e\x00\x00\x00Hoja de estilo'
tRp4056
asbasbasbag59
(g75
g61
NtRp4057
(dp4058
g64
(dp4059
sg73
g4040
sg66
(lp4060
g59
(g80
g61
NtRp4061
(dp4062
g64
(dp4063
sg73
g4057
sg66
(lp4064
g59
(g60
g61
NtRp4065
(dp4066
g64
(dp4067
g72
I1
ssg73
g4061
sg66
(lp4068
I00
asbasbasbag59
(g75
g61
NtRp4069
(dp4070
g64
(dp4071
sg73
g4040
sg66
(lp4072
g59
(g80
g61
NtRp4073
(dp4074
g64
(dp4075
sg73
g4069
sg66
(lp4076
g59
(g60
g61
NtRp4077
(dp4078
g64
(dp4079
g72
I1
ssg73
g4073
sg66
(lp4080
S'/admin/default/edit/Desglosar_Emails/static/base.css'
p4081
asbasbasbasbasbasbasbag59
(g75
g61
NtRp4082
(dp4083
g64
(dp4084
sg73
g3862
sg66
(lp4085
g59
(g80
g61
NtRp4086
(dp4087
g64
(dp4088
sg73
g4082
sg66
(lp4089
g59
(g60
g61
NtRp4090
(dp4091
g64
(dp4092
g72
I2
ssg73
g4086
sg66
(lp4093
g59
(g68
g61
NtRp4094
(dp4095
g64
(dp4096
g72
I1
ssg73
Nsg66
(lp4097
g59
(g75
g61
NtRp4098
(dp4099
g64
(dp4100
sg73
g4094
sg66
(lp4101
g59
(g80
g61
NtRp4102
(dp4103
g64
(dp4104
sg73
g4098
sg66
(lp4105
g59
(g60
g61
NtRp4106
(dp4107
g64
(dp4108
g72
I1
ssg73
g4102
sg66
(lp4109
g3753
(S's\x0b\x00\x00\x00Modelo "db"'
tRp4110
asbasbasbag59
(g75
g61
NtRp4111
(dp4112
g64
(dp4113
sg73
g4094
sg66
(lp4114
g59
(g80
g61
NtRp4115
(dp4116
g64
(dp4117
sg73
g4111
sg66
(lp4118
g59
(g60
g61
NtRp4119
(dp4120
g64
(dp4121
g72
I1
ssg73
g4115
sg66
(lp4122
I00
asbasbasbag59
(g75
g61
NtRp4123
(dp4124
g64
(dp4125
sg73
g4094
sg66
(lp4126
g59
(g80
g61
NtRp4127
(dp4128
g64
(dp4129
sg73
g4123
sg66
(lp4130
g59
(g60
g61
NtRp4131
(dp4132
g64
(dp4133
g72
I1
ssg73
g4127
sg66
(lp4134
S'/admin/default/edit/Desglosar_Emails/models/db.py'
p4135
asbasbasbasbasbasbasbag59
(g75
g61
NtRp4136
(dp4137
g64
(dp4138
sg73
g3862
sg66
(lp4139
g59
(g80
g61
NtRp4140
(dp4141
g64
(dp4142
sg73
g4136
sg66
(lp4143
g59
(g60
g61
NtRp4144
(dp4145
g64
(dp4146
g72
I2
ssg73
g4140
sg66
(lp4147
g59
(g68
g61
NtRp4148
(dp4149
g64
(dp4150
g72
I1
ssg73
Nsg66
(lp4151
g59
(g75
g61
NtRp4152
(dp4153
g64
(dp4154
sg73
g4148
sg66
(lp4155
g59
(g80
g61
NtRp4156
(dp4157
g64
(dp4158
sg73
g4152
sg66
(lp4159
g59
(g60
g61
NtRp4160
(dp4161
g64
(dp4162
g72
I1
ssg73
g4156
sg66
(lp4163
g3753
(S's\r\x00\x00\x00Modelo "menu"'
tRp4164
asbasbasbag59
(g75
g61
NtRp4165
(dp4166
g64
(dp4167
sg73
g4148
sg66
(lp4168
g59
(g80
g61
NtRp4169
(dp4170
g64
(dp4171
sg73
g4165
sg66
(lp4172
g59
(g60
g61
NtRp4173
(dp4174
g64
(dp4175
g72
I1
ssg73
g4169
sg66
(lp4176
I00
asbasbasbag59
(g75
g61
NtRp4177
(dp4178
g64
(dp4179
sg73
g4148
sg66
(lp4180
g59
(g80
g61
NtRp4181
(dp4182
g64
(dp4183
sg73
g4177
sg66
(lp4184
g59
(g60
g61
NtRp4185
(dp4186
g64
(dp4187
g72
I1
ssg73
g4181
sg66
(lp4188
S'/admin/default/edit/Desglosar_Emails/models/menu.py'
p4189
asbasbasbasbasbasbasbag59
(g75
g61
NtRp4190
(dp4191
g64
(dp4192
sg73
g3862
sg66
(lp4193
g59
(g80
g61
NtRp4194
(dp4195
g64
(dp4196
sg73
g4190
sg66
(lp4197
g59
(g60
g61
NtRp4198
(dp4199
g64
(dp4200
g72
I2
ssg73
g4194
sg66
(lp4201
g59
(g68
g61
NtRp4202
(dp4203
g64
(dp4204
g72
I1
ssg73
Nsg66
(lp4205
g59
(g75
g61
NtRp4206
(dp4207
g64
(dp4208
sg73
g4202
sg66
(lp4209
g59
(g80
g61
NtRp4210
(dp4211
g64
(dp4212
sg73
g4206
sg66
(lp4213
g59
(g60
g61
NtRp4214
(dp4215
g64
(dp4216
g72
I1
ssg73
g4210
sg66
(lp4217
g3753
(S's\r\x00\x00\x00Base de datos'
tRp4218
asbasbasbag59
(g75
g61
NtRp4219
(dp4220
g64
(dp4221
sg73
g4202
sg66
(lp4222
g59
(g80
g61
NtRp4223
(dp4224
g64
(dp4225
sg73
g4219
sg66
(lp4226
g59
(g60
g61
NtRp4227
(dp4228
g64
(dp4229
g72
I1
ssg73
g4223
sg66
(lp4230
I00
asbasbasbag59
(g75
g61
NtRp4231
(dp4232
g64
(dp4233
sg73
g4202
sg66
(lp4234
g59
(g80
g61
NtRp4235
(dp4236
g64
(dp4237
sg73
g4231
sg66
(lp4238
g59
(g60
g61
NtRp4239
(dp4240
g64
(dp4241
g72
I1
ssg73
g4235
sg66
(lp4242
S'/Desglosar_Emails/appadmin/index'
p4243
asbasbasbasbasbasbasbag59
(g75
g61
NtRp4244
(dp4245
g64
(dp4246
sg73
g3862
sg66
(lp4247
g59
(g80
g61
NtRp4248
(dp4249
g64
(dp4250
sg73
g4244
sg66
(lp4251
g59
(g60
g61
NtRp4252
(dp4253
g64
(dp4254
g72
I2
ssg73
g4248
sg66
(lp4255
g59
(g68
g61
NtRp4256
(dp4257
g64
(dp4258
g72
I1
ssg73
Nsg66
(lp4259
g59
(g75
g61
NtRp4260
(dp4261
g64
(dp4262
sg73
g4256
sg66
(lp4263
g59
(g80
g61
NtRp4264
(dp4265
g64
(dp4266
sg73
g4260
sg66
(lp4267
g59
(g60
g61
NtRp4268
(dp4269
g64
(dp4270
g72
I1
ssg73
g4264
sg66
(lp4271
g3753
(S't\x06\x00\x00\x00Errors'
tRp4272
asbasbasbag59
(g75
g61
NtRp4273
(dp4274
g64
(dp4275
sg73
g4256
sg66
(lp4276
g59
(g80
g61
NtRp4277
(dp4278
g64
(dp4279
sg73
g4273
sg66
(lp4280
g59
(g60
g61
NtRp4281
(dp4282
g64
(dp4283
g72
I1
ssg73
g4277
sg66
(lp4284
I00
asbasbasbag59
(g75
g61
NtRp4285
(dp4286
g64
(dp4287
sg73
g4256
sg66
(lp4288
g59
(g80
g61
NtRp4289
(dp4290
g64
(dp4291
sg73
g4285
sg66
(lp4292
g59
(g60
g61
NtRp4293
(dp4294
g64
(dp4295
g72
I1
ssg73
g4289
sg66
(lp4296
S'/admin/default/errors/Desglosar_Emails'
p4297
asbasbasbasbasbasbasbag59
(g75
g61
NtRp4298
(dp4299
g64
(dp4300
sg73
g3862
sg66
(lp4301
g59
(g80
g61
NtRp4302
(dp4303
g64
(dp4304
sg73
g4298
sg66
(lp4305
g59
(g60
g61
NtRp4306
(dp4307
g64
(dp4308
g72
I2
ssg73
g4302
sg66
(lp4309
g59
(g68
g61
NtRp4310
(dp4311
g64
(dp4312
g72
I1
ssg73
Nsg66
(lp4313
g59
(g75
g61
NtRp4314
(dp4315
g64
(dp4316
sg73
g4310
sg66
(lp4317
g59
(g80
g61
NtRp4318
(dp4319
g64
(dp4320
sg73
g4314
sg66
(lp4321
g59
(g60
g61
NtRp4322
(dp4323
g64
(dp4324
g72
I1
ssg73
g4318
sg66
(lp4325
g3753
(S's\t\x00\x00\x00Acerca de'
tRp4326
asbasbasbag59
(g75
g61
NtRp4327
(dp4328
g64
(dp4329
sg73
g4310
sg66
(lp4330
g59
(g80
g61
NtRp4331
(dp4332
g64
(dp4333
sg73
g4327
sg66
(lp4334
g59
(g60
g61
NtRp4335
(dp4336
g64
(dp4337
g72
I1
ssg73
g4331
sg66
(lp4338
I00
asbasbasbag59
(g75
g61
NtRp4339
(dp4340
g64
(dp4341
sg73
g4310
sg66
(lp4342
g59
(g80
g61
NtRp4343
(dp4344
g64
(dp4345
sg73
g4339
sg66
(lp4346
g59
(g60
g61
NtRp4347
(dp4348
g64
(dp4349
g72
I1
ssg73
g4343
sg66
(lp4350
S'/admin/default/about/Desglosar_Emails'
p4351
asbasbasbasbasbasbasbasbasbasbasbasbasbasbasbag59
(g75
g61
NtRp4352
(dp4353
g64
(dp4354
sg73
g3721
sg66
(lp4355
g59
(g80
g61
NtRp4356
(dp4357
g64
(dp4358
sg73
g4352
sg66
(lp4359
g59
(g60
g61
NtRp4360
(dp4361
g64
(dp4362
g72
I4
ssg73
g4356
sg66
(lp4363
g59
(g68
g61
NtRp4364
(dp4365
g64
(dp4366
g72
I3
ssg73
Nsg66
(lp4367
g59
(g75
g61
NtRp4368
(dp4369
g64
(dp4370
sg73
g4364
sg66
(lp4371
g59
(g80
g61
NtRp4372
(dp4373
g64
(dp4374
sg73
g4368
sg66
(lp4375
g59
(g60
g61
NtRp4376
(dp4377
g64
(dp4378
g72
I3
ssg73
g4372
sg66
(lp4379
g3753
(S't\t\x00\x00\x00Resources'
tRp4380
asbasbasbag59
(g75
g61
NtRp4381
(dp4382
g64
(dp4383
sg73
g4364
sg66
(lp4384
g59
(g80
g61
NtRp4385
(dp4386
g64
(dp4387
sg73
g4381
sg66
(lp4388
g59
(g60
g61
NtRp4389
(dp4390
g64
(dp4391
g72
I3
ssg73
g4385
sg66
(lp4392
g102
asbasbasbag59
(g75
g61
NtRp4393
(dp4394
g64
(dp4395
sg73
g4364
sg66
(lp4396
g59
(g80
g61
NtRp4397
(dp4398
g64
(dp4399
sg73
g4393
sg66
(lp4400
g59
(g60
g61
NtRp4401
(dp4402
g64
(dp4403
g72
I3
ssg73
g4397
sg66
(lp4404
S'None'
p4405
asbasbasbag59
(g75
g61
NtRp4406
(dp4407
g64
(dp4408
sg73
g4364
sg66
(lp4409
g59
(g80
g61
NtRp4410
(dp4411
g64
(dp4412
sg73
g4406
sg66
(lp4413
g59
(g60
g61
NtRp4414
(dp4415
g64
(dp4416
g72
I3
ssg73
g4410
sg66
(lp4417
g59
(g68
g61
NtRp4418
(dp4419
g64
(dp4420
g72
I2
ssg73
Nsg66
(lp4421
g59
(g75
g61
NtRp4422
(dp4423
g64
(dp4424
sg73
g4418
sg66
(lp4425
g59
(g80
g61
NtRp4426
(dp4427
g64
(dp4428
sg73
g4422
sg66
(lp4429
g59
(g60
g61
NtRp4430
(dp4431
g64
(dp4432
g72
I2
ssg73
g4426
sg66
(lp4433
g59
(g68
g61
NtRp4434
(dp4435
g64
(dp4436
g72
I1
ssg73
Nsg66
(lp4437
g59
(g75
g61
NtRp4438
(dp4439
g64
(dp4440
sg73
g4434
sg66
(lp4441
g59
(g80
g61
NtRp4442
(dp4443
g64
(dp4444
sg73
g4438
sg66
(lp4445
g59
(g60
g61
NtRp4446
(dp4447
g64
(dp4448
g72
I1
ssg73
g4442
sg66
(lp4449
g3753
(S's\x0e\x00\x00\x00Documentaci\xc3\xb3n'
tRp4450
asbasbasbag59
(g75
g61
NtRp4451
(dp4452
g64
(dp4453
sg73
g4434
sg66
(lp4454
g59
(g80
g61
NtRp4455
(dp4456
g64
(dp4457
sg73
g4451
sg66
(lp4458
g59
(g60
g61
NtRp4459
(dp4460
g64
(dp4461
g72
I1
ssg73
g4455
sg66
(lp4462
I00
asbasbasbag59
(g75
g61
NtRp4463
(dp4464
g64
(dp4465
sg73
g4434
sg66
(lp4466
g59
(g80
g61
NtRp4467
(dp4468
g64
(dp4469
sg73
g4463
sg66
(lp4470
g59
(g60
g61
NtRp4471
(dp4472
g64
(dp4473
g72
I1
ssg73
g4467
sg66
(lp4474
S'http://www.web2py.com/book'
p4475
asbasbasbag59
(g75
g61
NtRp4476
(dp4477
g64
(dp4478
sg73
g4434
sg66
(lp4479
g59
(g80
g61
NtRp4480
(dp4481
g64
(dp4482
sg73
g4476
sg66
(lp4483
g59
(g60
g61
NtRp4484
(dp4485
g64
(dp4486
g72
I1
ssg73
g4480
sg66
(lp4487
(lp4488
(g3753
(S't\x07\x00\x00\x00Preface'
tRp4489
I00
S'http://www.web2py.com/book/default/chapter/00'
tp4490
a(g3753
(S't\x0c\x00\x00\x00Introduction'
tRp4491
I00
S'http://www.web2py.com/book/default/chapter/01'
tp4492
a(g3753
(S't\x06\x00\x00\x00Python'
tRp4493
I00
S'http://www.web2py.com/book/default/chapter/02'
tp4494
a(g3753
(S't\x08\x00\x00\x00Overview'
tRp4495
I00
S'http://www.web2py.com/book/default/chapter/03'
tp4496
a(g3753
(S's\x08\x00\x00\x00The Core'
tRp4497
I00
S'http://www.web2py.com/book/default/chapter/04'
tp4498
a(g3753
(S's\t\x00\x00\x00The Views'
tRp4499
I00
S'http://www.web2py.com/book/default/chapter/05'
tp4500
a(g3753
(S's\r\x00\x00\x00Base de datos'
tRp4501
I00
S'http://www.web2py.com/book/default/chapter/06'
tp4502
a(g3753
(S's\x14\x00\x00\x00Forms and Validators'
tRp4503
I00
S'http://www.web2py.com/book/default/chapter/07'
tp4504
a(g3753
(S's\x0e\x00\x00\x00Access Control'
tRp4505
I00
S'http://www.web2py.com/book/default/chapter/08'
tp4506
a(g3753
(S't\x08\x00\x00\x00Services'
tRp4507
I00
S'http://www.web2py.com/book/default/chapter/09'
tp4508
a(g3753
(S's\x0c\x00\x00\x00Ajax Recipes'
tRp4509
I00
S'http://www.web2py.com/book/default/chapter/10'
tp4510
a(g3753
(S's\x12\x00\x00\x00Deployment Recipes'
tRp4511
I00
S'http://www.web2py.com/book/default/chapter/11'
tp4512
a(g3753
(S's\r\x00\x00\x00Other Recipes'
tRp4513
I00
S'http://www.web2py.com/book/default/chapter/12'
tp4514
a(g3753
(S's\r\x00\x00\x00Buy this book'
tRp4515
I00
S'http://stores.lulu.com/web2py'
tp4516
aasbasbasbasbasbasbasbag59
(g75
g61
NtRp4517
(dp4518
g64
(dp4519
sg73
g4418
sg66
(lp4520
g59
(g80
g61
NtRp4521
(dp4522
g64
(dp4523
sg73
g4517
sg66
(lp4524
g59
(g60
g61
NtRp4525
(dp4526
g64
(dp4527
g72
I2
ssg73
g4521
sg66
(lp4528
g59
(g68
g61
NtRp4529
(dp4530
g64
(dp4531
g72
I1
ssg73
Nsg66
(lp4532
g59
(g75
g61
NtRp4533
(dp4534
g64
(dp4535
sg73
g4529
sg66
(lp4536
g59
(g80
g61
NtRp4537
(dp4538
g64
(dp4539
sg73
g4533
sg66
(lp4540
g59
(g60
g61
NtRp4541
(dp4542
g64
(dp4543
g72
I1
ssg73
g4537
sg66
(lp4544
g3753
(S't\t\x00\x00\x00Community'
tRp4545
asbasbasbag59
(g75
g61
NtRp4546
(dp4547
g64
(dp4548
sg73
g4529
sg66
(lp4549
g59
(g80
g61
NtRp4550
(dp4551
g64
(dp4552
sg73
g4546
sg66
(lp4553
g59
(g60
g61
NtRp4554
(dp4555
g64
(dp4556
g72
I1
ssg73
g4550
sg66
(lp4557
I00
asbasbasbag59
(g75
g61
NtRp4558
(dp4559
g64
(dp4560
sg73
g4529
sg66
(lp4561
g59
(g80
g61
NtRp4562
(dp4563
g64
(dp4564
sg73
g4558
sg66
(lp4565
g59
(g60
g61
NtRp4566
(dp4567
g64
(dp4568
g72
I1
ssg73
g4562
sg66
(lp4569
Nasbasbasbag59
(g75
g61
NtRp4570
(dp4571
g64
(dp4572
sg73
g4529
sg66
(lp4573
g59
(g80
g61
NtRp4574
(dp4575
g64
(dp4576
sg73
g4570
sg66
(lp4577
g59
(g60
g61
NtRp4578
(dp4579
g64
(dp4580
g72
I1
ssg73
g4574
sg66
(lp4581
(lp4582
(g3753
(S't\x06\x00\x00\x00Groups'
tRp4583
I00
S'http://www.web2py.com/examples/default/usergroups'
tp4584
a(g3753
(S't\x07\x00\x00\x00Twitter'
tRp4585
I00
S'http://twitter.com/web2py'
tp4586
a(g3753
(S's\t\x00\x00\x00Live chat'
tRp4587
I00
S'http://mibbit.com/?channel=%23web2py&server=irc.mibbit.net'
tp4588
a(g3753
(S's\n\x00\x00\x00User Voice'
tRp4589
I00
S'http://web2py.uservoice.com/'
tp4590
aasbasbasbasbasbasbasbag59
(g75
g61
NtRp4591
(dp4592
g64
(dp4593
sg73
g4418
sg66
(lp4594
g59
(g80
g61
NtRp4595
(dp4596
g64
(dp4597
sg73
g4591
sg66
(lp4598
g59
(g60
g61
NtRp4599
(dp4600
g64
(dp4601
g72
I2
ssg73
g4595
sg66
(lp4602
g59
(g68
g61
NtRp4603
(dp4604
g64
(dp4605
g72
I1
ssg73
Nsg66
(lp4606
g59
(g75
g61
NtRp4607
(dp4608
g64
(dp4609
sg73
g4603
sg66
(lp4610
g59
(g80
g61
NtRp4611
(dp4612
g64
(dp4613
sg73
g4607
sg66
(lp4614
g59
(g60
g61
NtRp4615
(dp4616
g64
(dp4617
g72
I1
ssg73
g4611
sg66
(lp4618
g3753
(S't\x06\x00\x00\x00Web2py'
tRp4619
asbasbasbag59
(g75
g61
NtRp4620
(dp4621
g64
(dp4622
sg73
g4603
sg66
(lp4623
g59
(g80
g61
NtRp4624
(dp4625
g64
(dp4626
sg73
g4620
sg66
(lp4627
g59
(g60
g61
NtRp4628
(dp4629
g64
(dp4630
g72
I1
ssg73
g4624
sg66
(lp4631
I00
asbasbasbag59
(g75
g61
NtRp4632
(dp4633
g64
(dp4634
sg73
g4603
sg66
(lp4635
g59
(g80
g61
NtRp4636
(dp4637
g64
(dp4638
sg73
g4632
sg66
(lp4639
g59
(g60
g61
NtRp4640
(dp4641
g64
(dp4642
g72
I1
ssg73
g4636
sg66
(lp4643
S'http://www.web2py.com'
p4644
asbasbasbag59
(g75
g61
NtRp4645
(dp4646
g64
(dp4647
sg73
g4603
sg66
(lp4648
g59
(g80
g61
NtRp4649
(dp4650
g64
(dp4651
sg73
g4645
sg66
(lp4652
g59
(g60
g61
NtRp4653
(dp4654
g64
(dp4655
g72
I1
ssg73
g4649
sg66
(lp4656
(lp4657
(g3753
(S't\x08\x00\x00\x00Download'
tRp4658
I00
S'http://www.web2py.com/examples/default/download'
tp4659
a(g3753
(S't\x07\x00\x00\x00Support'
tRp4660
I00
S'http://www.web2py.com/examples/default/support'
tp4661
a(g3753
(S's\x0e\x00\x00\x00Quick Examples'
tRp4662
I00
S'http://web2py.com/examples/default/examples'
tp4663
a(g3753
(S't\x03\x00\x00\x00FAQ'
tRp4664
I00
S'http://web2py.com/AlterEgo'
tp4665
a(g3753
(S's\x11\x00\x00\x00Free Applications'
tRp4666
I00
S'http://web2py.com/appliances'
tp4667
a(g3753
(S't\x07\x00\x00\x00Plugins'
tRp4668
I00
S'http://web2py.com/plugins'
tp4669
a(g3753
(S't\x07\x00\x00\x00Recipes'
tRp4670
I00
S'http://web2pyslices.com/'
tp4671
a(g3753
(S't\x04\x00\x00\x00Demo'
tRp4672
I00
S'http://web2py.com/demo_admin'
tp4673
a(g3753
(S't\x08\x00\x00\x00Semantic'
tRp4674
I00
S'http://web2py.com/semantic'
tp4675
a(g3753
(S't\x07\x00\x00\x00Layouts'
tRp4676
I00
S'http://web2py.com/layouts'
tp4677
a(g3753
(S't\x06\x00\x00\x00Videos'
tRp4678
I00
S'http://www.web2py.com/examples/default/videos/'
tp4679
aasbasbasbasbasbasbasbasbasbasbasbasbasbasbasbasbasbasbasbag59
(g75
g61
NtRp4680
(dp4681
g64
(dp4682
sg73
g3280
sg66
(lp4683
g59
(g80
g61
NtRp4684
(dp4685
g64
(dp4686
g84
g85
ssg73
g4680
sg66
(lp4687
S'meta'
p4688
asbag59
(g80
g61
NtRp4689
(dp4690
g64
(dp4691
g91
g92
ssg73
g4680
sg66
(lp4692
S':'
asbag59
(g80
g61
NtRp4693
(dp4694
g64
(dp4695
sg73
g4680
sg66
(lp4696
g59
(g60
g61
NtRp4697
(dp4698
g64
(dp4699
g72
I5
ssg73
g4693
sg66
(lp4700
g59
(g68
g61
NtRp4701
(dp4702
g64
(dp4703
g72
I4
ssg73
Nsg66
(lp4704
g59
(g75
g61
NtRp4705
(dp4706
g64
(dp4707
sg73
g4701
sg66
(lp4708
g59
(g80
g61
NtRp4709
(dp4710
g64
(dp4711
g84
g85
ssg73
g4705
sg66
(lp4712
S'author'
p4713
asbag59
(g80
g61
NtRp4714
(dp4715
g64
(dp4716
g91
g92
ssg73
g4705
sg66
(lp4717
S':'
asbag59
(g80
g61
NtRp4718
(dp4719
g64
(dp4720
sg73
g4705
sg66
(lp4721
g59
(g60
g61
NtRp4722
(dp4723
g64
(dp4724
g72
I4
ssg73
g4718
sg66
(lp4725
S'you'
p4726
asbasbasbag59
(g75
g61
NtRp4727
(dp4728
g64
(dp4729
sg73
g4701
sg66
(lp4730
g59
(g80
g61
NtRp4731
(dp4732
g64
(dp4733
g84
g85
ssg73
g4727
sg66
(lp4734
S'copyright'
p4735
asbag59
(g80
g61
NtRp4736
(dp4737
g64
(dp4738
g91
g92
ssg73
g4727
sg66
(lp4739
S':'
asbag59
(g80
g61
NtRp4740
(dp4741
g64
(dp4742
sg73
g4727
sg66
(lp4743
g59
(g60
g61
NtRp4744
(dp4745
g64
(dp4746
g72
I4
ssg73
g4740
sg66
(lp4747
S'Copyright 2007-2010'
p4748
asbasbasbag59
(g75
g61
NtRp4749
(dp4750
g64
(dp4751
sg73
g4701
sg66
(lp4752
g59
(g80
g61
NtRp4753
(dp4754
g64
(dp4755
g84
g85
ssg73
g4749
sg66
(lp4756
S'description'
p4757
asbag59
(g80
g61
NtRp4758
(dp4759
g64
(dp4760
g91
g92
ssg73
g4749
sg66
(lp4761
S':'
asbag59
(g80
g61
NtRp4762
(dp4763
g64
(dp4764
sg73
g4749
sg66
(lp4765
g59
(g60
g61
NtRp4766
(dp4767
g64
(dp4768
g72
I4
ssg73
g4762
sg66
(lp4769
S'Free and open source full-stack enterprise framework for agile development of fast, scalable, secure and portable database-driven web-based applications. Written and programmable in Python'
p4770
asbasbasbag59
(g75
g61
NtRp4771
(dp4772
g64
(dp4773
sg73
g4701
sg66
(lp4774
g59
(g80
g61
NtRp4775
(dp4776
g64
(dp4777
g84
g85
ssg73
g4771
sg66
(lp4778
S'generator'
p4779
asbag59
(g80
g61
NtRp4780
(dp4781
g64
(dp4782
g91
g92
ssg73
g4771
sg66
(lp4783
S':'
asbag59
(g80
g61
NtRp4784
(dp4785
g64
(dp4786
sg73
g4771
sg66
(lp4787
g59
(g60
g61
NtRp4788
(dp4789
g64
(dp4790
g72
I4
ssg73
g4784
sg66
(lp4791
S'Web2py Enterprise Framework'
p4792
asbasbasbag59
(g75
g61
NtRp4793
(dp4794
g64
(dp4795
sg73
g4701
sg66
(lp4796
g59
(g80
g61
NtRp4797
(dp4798
g64
(dp4799
g84
g85
ssg73
g4793
sg66
(lp4800
S'keywords'
p4801
asbag59
(g80
g61
NtRp4802
(dp4803
g64
(dp4804
g91
g92
ssg73
g4793
sg66
(lp4805
S':'
asbag59
(g80
g61
NtRp4806
(dp4807
g64
(dp4808
sg73
g4793
sg66
(lp4809
g59
(g60
g61
NtRp4810
(dp4811
g64
(dp4812
g72
I4
ssg73
g4806
sg66
(lp4813
S'web2py, python, framework'
p4814
asbasbasbasbasbasbasbag59
(g75
g61
NtRp4815
(dp4816
g64
(dp4817
sg73
g3280
sg66
(lp4818
g59
(g80
g61
NtRp4819
(dp4820
g64
(dp4821
g84
g85
ssg73
g4815
sg66
(lp4822
S'postprocessing'
p4823
asbag59
(g80
g61
NtRp4824
(dp4825
g64
(dp4826
g91
g92
ssg73
g4815
sg66
(lp4827
S':'
asbag59
(g80
g61
NtRp4828
(dp4829
g64
(dp4830
sg73
g4815
sg66
(lp4831
g59
(g60
g61
NtRp4832
(dp4833
g64
(dp4834
g72
I5
ssg73
g4828
sg66
(lp4835
g59
(g68
g61
NtRp4836
(dp4837
g64
(dp4838
g72
I4
ssg73
Nsg66
(lp4839
sbasbasbasbag59
(g75
g61
NtRp4840
(dp4841
g64
(dp4842
sg73
g3280
sg66
(lp4843
g59
(g80
g61
NtRp4844
(dp4845
g64
(dp4846
g84
g85
ssg73
g4840
sg66
(lp4847
S'session_file'
p4848
asbag59
(g80
g61
NtRp4849
(dp4850
g64
(dp4851
g91
g92
ssg73
g4840
sg66
(lp4852
S':'
asbag59
(g80
g61
NtRp4853
(dp4854
g64
(dp4855
sg73
g4840
sg66
(lp4856
g59
(g60
g61
NtRp4857
(dp4858
g64
(dp4859
g72
I5
ssg73
g4853
sg66
(lp4860
S"<open file 'C:\\Users\\Atomico\\web2py\\applications\\Desglosar_Emails\\sessions\\127.0.0.1-0a11b3b2-660c-433c-b71f-fc129286f26c', mode 'rb+' at 0x074A6380>"
p4861
asbasbasbag59
(g75
g61
NtRp4862
(dp4863
g64
(dp4864
sg73
g3280
sg66
(lp4865
g59
(g80
g61
NtRp4866
(dp4867
g64
(dp4868
g84
g85
ssg73
g4862
sg66
(lp4869
S'session_filename'
p4870
asbag59
(g80
g61
NtRp4871
(dp4872
g64
(dp4873
g91
g92
ssg73
g4862
sg66
(lp4874
S':'
asbag59
(g80
g61
NtRp4875
(dp4876
g64
(dp4877
sg73
g4862
sg66
(lp4878
g59
(g60
g61
NtRp4879
(dp4880
g64
(dp4881
g72
I5
ssg73
g4875
sg66
(lp4882
S'C:\\Users\\Atomico\\web2py\\applications\\Desglosar_Emails\\sessions\\127.0.0.1-0a11b3b2-660c-433c-b71f-fc129286f26c'
p4883
asbasbasbag59
(g75
g61
NtRp4884
(dp4885
g64
(dp4886
sg73
g3280
sg66
(lp4887
g59
(g80
g61
NtRp4888
(dp4889
g64
(dp4890
g84
g85
ssg73
g4884
sg66
(lp4891
S'session_id'
p4892
asbag59
(g80
g61
NtRp4893
(dp4894
g64
(dp4895
g91
g92
ssg73
g4884
sg66
(lp4896
S':'
asbag59
(g80
g61
NtRp4897
(dp4898
g64
(dp4899
sg73
g4884
sg66
(lp4900
g59
(g60
g61
NtRp4901
(dp4902
g64
(dp4903
g72
I5
ssg73
g4897
sg66
(lp4904
S'127.0.0.1-0a11b3b2-660c-433c-b71f-fc129286f26c'
p4905
asbasbasbag59
(g75
g61
NtRp4906
(dp4907
g64
(dp4908
sg73
g3280
sg66
(lp4909
g59
(g80
g61
NtRp4910
(dp4911
g64
(dp4912
g84
g85
ssg73
g4906
sg66
(lp4913
S'session_id_name'
p4914
asbag59
(g80
g61
NtRp4915
(dp4916
g64
(dp4917
g91
g92
ssg73
g4906
sg66
(lp4918
S':'
asbag59
(g80
g61
NtRp4919
(dp4920
g64
(dp4921
sg73
g4906
sg66
(lp4922
g59
(g60
g61
NtRp4923
(dp4924
g64
(dp4925
g72
I5
ssg73
g4919
sg66
(lp4926
g3337
asbasbasbag59
(g75
g61
NtRp4927
(dp4928
g64
(dp4929
sg73
g3280
sg66
(lp4930
g59
(g80
g61
NtRp4931
(dp4932
g64
(dp4933
g84
g85
ssg73
g4927
sg66
(lp4934
S'session_locked'
p4935
asbag59
(g80
g61
NtRp4936
(dp4937
g64
(dp4938
g91
g92
ssg73
g4927
sg66
(lp4939
S':'
asbag59
(g80
g61
NtRp4940
(dp4941
g64
(dp4942
sg73
g4927
sg66
(lp4943
g59
(g60
g61
NtRp4944
(dp4945
g64
(dp4946
g72
I5
ssg73
g4940
sg66
(lp4947
g2214
asbasbasbag59
(g75
g61
NtRp4948
(dp4949
g64
(dp4950
sg73
g3280
sg66
(lp4951
g59
(g80
g61
NtRp4952
(dp4953
g64
(dp4954
g84
g85
ssg73
g4948
sg66
(lp4955
S'session_new'
p4956
asbag59
(g80
g61
NtRp4957
(dp4958
g64
(dp4959
g91
g92
ssg73
g4948
sg66
(lp4960
S':'
asbag59
(g80
g61
NtRp4961
(dp4962
g64
(dp4963
sg73
g4948
sg66
(lp4964
g59
(g60
g61
NtRp4965
(dp4966
g64
(dp4967
g72
I5
ssg73
g4961
sg66
(lp4968
g102
asbasbasbag59
(g75
g61
NtRp4969
(dp4970
g64
(dp4971
sg73
g3280
sg66
(lp4972
g59
(g80
g61
NtRp4973
(dp4974
g64
(dp4975
g84
g85
ssg73
g4969
sg66
(lp4976
S'status'
p4977
asbag59
(g80
g61
NtRp4978
(dp4979
g64
(dp4980
g91
g92
ssg73
g4969
sg66
(lp4981
S':'
asbag59
(g80
g61
NtRp4982
(dp4983
g64
(dp4984
sg73
g4969
sg66
(lp4985
g59
(g60
g61
NtRp4986
(dp4987
g64
(dp4988
g72
I5
ssg73
g4982
sg66
(lp4989
S'200'
p4990
asbasbasbag59
(g75
g61
NtRp4991
(dp4992
g64
(dp4993
sg73
g3280
sg66
(lp4994
g59
(g80
g61
NtRp4995
(dp4996
g64
(dp4997
g84
g85
ssg73
g4991
sg66
(lp4998
S'subtitle'
p4999
asbag59
(g80
g61
NtRp5000
(dp5001
g64
(dp5002
g91
g92
ssg73
g4991
sg66
(lp5003
S':'
asbag59
(g80
g61
NtRp5004
(dp5005
g64
(dp5006
sg73
g4991
sg66
(lp5007
g59
(g60
g61
NtRp5008
(dp5009
g64
(dp5010
g72
I5
ssg73
g5004
sg66
(lp5011
g3753
(S's\t\x00\x00\x00Adaptame!'
tRp5012
asbasbasbag59
(g75
g61
NtRp5013
(dp5014
g64
(dp5015
sg73
g3280
sg66
(lp5016
g59
(g80
g61
NtRp5017
(dp5018
g64
(dp5019
g84
g85
ssg73
g5013
sg66
(lp5020
S'title'
p5021
asbag59
(g80
g61
NtRp5022
(dp5023
g64
(dp5024
g91
g92
ssg73
g5013
sg66
(lp5025
S':'
asbag59
(g80
g61
NtRp5026
(dp5027
g64
(dp5028
sg73
g5013
sg66
(lp5029
g59
(g60
g61
NtRp5030
(dp5031
g64
(dp5032
g72
I5
ssg73
g5026
sg66
(lp5033
g124
asbasbasbag59
(g75
g61
NtRp5034
(dp5035
g64
(dp5036
sg73
g3280
sg66
(lp5037
g59
(g80
g61
NtRp5038
(dp5039
g64
(dp5040
g84
g85
ssg73
g5034
sg66
(lp5041
g2538
asbag59
(g80
g61
NtRp5042
(dp5043
g64
(dp5044
g91
g92
ssg73
g5034
sg66
(lp5045
S':'
asbag59
(g80
g61
NtRp5046
(dp5047
g64
(dp5048
sg73
g5034
sg66
(lp5049
g59
(g60
g61
NtRp5050
(dp5051
g64
(dp5052
g72
I5
ssg73
g5046
sg66
(lp5053
g2551
asbasbasbag59
(g75
g61
NtRp5054
(dp5055
g64
(dp5056
sg73
g3280
sg66
(lp5057
g59
(g80
g61
NtRp5058
(dp5059
g64
(dp5060
g84
g85
ssg73
g5054
sg66
(lp5061
S'view'
p5062
asbag59
(g80
g61
NtRp5063
(dp5064
g64
(dp5065
g91
g92
ssg73
g5054
sg66
(lp5066
S':'
asbag59
(g80
g61
NtRp5067
(dp5068
g64
(dp5069
sg73
g5054
sg66
(lp5070
g59
(g60
g61
NtRp5071
(dp5072
g64
(dp5073
g72
I5
ssg73
g5067
sg66
(lp5074
S'default/entrada_mod3.html'
p5075
asbasbasbasbasbsS'locals'
p5076
(dp5077
g3
S"r'C:\\Users\\Atomico\\web2py\\applications\\Desglosar_Emails\\views\\default/entrada_mod3.html'"
p5078
sg5
S'\'response.write(\\\'<!DOCTYPE html>\\\\n<html lang="\\\', ...t   -->    \\\\n  </body>\\\\n</html>\\\\n\\\', escape=False)\''
p5079
sssS'traceback'
p5080
S'Traceback (most recent call last):\n  File "gluon/restricted.py", line 191, in restricted\n  File "gluon/restricted.py", line 178, in compile2\n  File "C:\\Users\\Atomico\\web2py\\applications\\Desglosar_Emails\\views\\default/entrada_mod3.html", line 106\n    <<!--\n     ^\nSyntaxError: invalid syntax\n'
p5081
s.