(dp1
S'output'
p2
S''
sS'layer'
p3
S'C:\\Users\\Atomico\\web2py\\applications\\Desglosar_Emails\\controllers/default.py'
p4
sS'code'
p5
S'def entrada():\n    form=SQLFORM(db.info)\n    if form.accepts(request.vars,session): pass\n    \n    txt=db.info[12].texto\n    c=0\n    for i in range(len(txt)): c=c+1\n    response.write(\'el total de c es \'+str(c)+\'. \')\n   \n    import re\n    pattern=re.compile(".*a[0-5].*")\n    for i in range(len(txt)):\n    ## encontrar el primer email\n        s=txt[:i]\n        if pattern.search(s):\n            response.write(\'Se ha encontrado a1 o a2 o a3 o a4 o a5 o a0\')\n        elif not pattern.search(s) and i==(len(txt)-1):\n            response.write(\'Nanai contrai\')\n        \n    response.write(\'La len(txt) es \'+str(len(txt))+\' y la i es \'+str(i))\n    response.write(\'*********************\')\n\n    cont=0\n    for i in xrange(0,4):\n        cont=cont+1\n        response.write(\'Para el valor i \'+str(i)+\' el contador se pone a \'+str(cont))\n    response.write(\' y el resultado final es de i \'+str(i)+\' el contador se pone a \'+str(cont)+\'. \')\n    i=0\n    while i<len(txt):\n        response.write(txt[i]+\'-\')\n        i=i+1\n    response.write(\'. La len(txt) es de \'+str(len(txt))+\' y la i se ha quedado en \'+str(i))\n    \n    return dict(form=form)\n    \ndef entrada_mod1():\n    form=SQLFORM(db.info2)\n    if form.accepts(request.vars,session): pass\n    pepe=db.info2.texto\n    response.write(len(pepe))\n    return form\n\nresponse._vars=response._caller(entrada_mod1)\n'
p6
sS'snapshot'
p7
(dp8
S'exception'
p9
(dp10
S'__hash__'
p11
S"<method-wrapper '__hash__' of exceptions.TypeError object at 0x07A32EB8>"
p12
sS'__setattr__'
p13
S"<method-wrapper '__setattr__' of exceptions.TypeError object at 0x07A32EB8>"
p14
sS'__reduce_ex__'
p15
S'<built-in method __reduce_ex__ of exceptions.TypeError object at 0x07A32EB8>'
p16
sS'__getslice__'
p17
S"<method-wrapper '__getslice__' of exceptions.TypeError object at 0x07A32EB8>"
p18
sS'__getitem__'
p19
S"<method-wrapper '__getitem__' of exceptions.TypeError object at 0x07A32EB8>"
p20
sS'__setstate__'
p21
S'<built-in method __setstate__ of exceptions.TypeError object at 0x07A32EB8>'
p22
sS'__reduce__'
p23
S'<built-in method __reduce__ of exceptions.TypeError object at 0x07A32EB8>'
p24
sS'__str__'
p25
S"<method-wrapper '__str__' of exceptions.TypeError object at 0x07A32EB8>"
p26
sS'args'
p27
S'("object of type \'Field\' has no len()",)'
p28
sS'__getattribute__'
p29
S"<method-wrapper '__getattribute__' of exceptions.TypeError object at 0x07A32EB8>"
p30
sS'__class__'
p31
S"<type 'exceptions.TypeError'>"
p32
sS'__delattr__'
p33
S"<method-wrapper '__delattr__' of exceptions.TypeError object at 0x07A32EB8>"
p34
sS'__repr__'
p35
S"<method-wrapper '__repr__' of exceptions.TypeError object at 0x07A32EB8>"
p36
sS'__dict__'
p37
S'{}'
p38
sS'__doc__'
p39
S"'Inappropriate argument type.'"
p40
sS'__init__'
p41
S"<method-wrapper '__init__' of exceptions.TypeError object at 0x07A32EB8>"
p42
sS'__new__'
p43
S'<built-in method __new__ of type object at 0x1E1CCD78>'
p44
ssS'evalue'
p45
S"object of type 'Field' has no len()"
p46
sS'request'
p47
ccopy_reg
_reconstructor
p48
(cgluon.html
BEAUTIFY
p49
c__builtin__
object
p50
NtRp51
(dp52
S'attributes'
p53
(dp54
sS'components'
p55
(lp56
g48
(cgluon.html
TABLE
p57
g50
NtRp58
(dp59
g53
(dp60
S'level'
p61
I5
ssS'parent'
p62
Nsg55
(lp63
g48
(cgluon.html
TR
p64
g50
NtRp65
(dp66
g53
(dp67
sg62
g58
sg55
(lp68
g48
(cgluon.html
TD
p69
g50
NtRp70
(dp71
g53
(dp72
S'_style'
p73
S'font-weight:bold;'
p74
ssg62
g65
sg55
(lp75
S'ajax'
p76
asbag48
(g69
g50
NtRp77
(dp78
g53
(dp79
S'_valign'
p80
S'top'
p81
ssg62
g65
sg55
(lp82
S':'
asbag48
(g69
g50
NtRp83
(dp84
g53
(dp85
sg62
g65
sg55
(lp86
g48
(g49
g50
NtRp87
(dp88
g53
(dp89
g61
I5
ssg62
g83
sg55
(lp90
S'False'
p91
asbasbasbag48
(g64
g50
NtRp92
(dp93
g53
(dp94
sg62
g58
sg55
(lp95
g48
(g69
g50
NtRp96
(dp97
g53
(dp98
g73
g74
ssg62
g92
sg55
(lp99
S'application'
p100
asbag48
(g69
g50
NtRp101
(dp102
g53
(dp103
g80
g81
ssg62
g92
sg55
(lp104
S':'
asbag48
(g69
g50
NtRp105
(dp106
g53
(dp107
sg62
g92
sg55
(lp108
g48
(g49
g50
NtRp109
(dp110
g53
(dp111
g61
I5
ssg62
g105
sg55
(lp112
S'Desglosar_Emails'
p113
asbasbasbag48
(g64
g50
NtRp114
(dp115
g53
(dp116
sg62
g58
sg55
(lp117
g48
(g69
g50
NtRp118
(dp119
g53
(dp120
g73
g74
ssg62
g114
sg55
(lp121
g27
asbag48
(g69
g50
NtRp122
(dp123
g53
(dp124
g80
g81
ssg62
g114
sg55
(lp125
S':'
asbag48
(g69
g50
NtRp126
(dp127
g53
(dp128
sg62
g114
sg55
(lp129
g48
(g49
g50
NtRp130
(dp131
g53
(dp132
g61
I5
ssg62
g126
sg55
(lp133
g48
(g57
g50
NtRp134
(dp135
g53
(dp136
g61
I4
ssg62
Nsg55
(lp137
sbasbasbasbag48
(g64
g50
NtRp138
(dp139
g53
(dp140
sg62
g58
sg55
(lp141
g48
(g69
g50
NtRp142
(dp143
g53
(dp144
g73
g74
ssg62
g138
sg55
(lp145
S'body'
p146
asbag48
(g69
g50
NtRp147
(dp148
g53
(dp149
g80
g81
ssg62
g138
sg55
(lp150
S':'
asbag48
(g69
g50
NtRp151
(dp152
g53
(dp153
sg62
g138
sg55
(lp154
g48
(g49
g50
NtRp155
(dp156
g53
(dp157
g61
I5
ssg62
g151
sg55
(lp158
S'<cStringIO.StringO object at 0x07B292E0>'
p159
asbasbasbag48
(g64
g50
NtRp160
(dp161
g53
(dp162
sg62
g58
sg55
(lp163
g48
(g69
g50
NtRp164
(dp165
g53
(dp166
g73
g74
ssg62
g160
sg55
(lp167
S'client'
p168
asbag48
(g69
g50
NtRp169
(dp170
g53
(dp171
g80
g81
ssg62
g160
sg55
(lp172
S':'
asbag48
(g69
g50
NtRp173
(dp174
g53
(dp175
sg62
g160
sg55
(lp176
g48
(g49
g50
NtRp177
(dp178
g53
(dp179
g61
I5
ssg62
g173
sg55
(lp180
S'127.0.0.1'
p181
asbasbasbag48
(g64
g50
NtRp182
(dp183
g53
(dp184
sg62
g58
sg55
(lp185
g48
(g69
g50
NtRp186
(dp187
g53
(dp188
g73
g74
ssg62
g182
sg55
(lp189
S'controller'
p190
asbag48
(g69
g50
NtRp191
(dp192
g53
(dp193
g80
g81
ssg62
g182
sg55
(lp194
S':'
asbag48
(g69
g50
NtRp195
(dp196
g53
(dp197
sg62
g182
sg55
(lp198
g48
(g49
g50
NtRp199
(dp200
g53
(dp201
g61
I5
ssg62
g195
sg55
(lp202
S'default'
p203
asbasbasbag48
(g64
g50
NtRp204
(dp205
g53
(dp206
sg62
g58
sg55
(lp207
g48
(g69
g50
NtRp208
(dp209
g53
(dp210
g73
g74
ssg62
g204
sg55
(lp211
S'cookies'
p212
asbag48
(g69
g50
NtRp213
(dp214
g53
(dp215
g80
g81
ssg62
g204
sg55
(lp216
S':'
asbag48
(g69
g50
NtRp217
(dp218
g53
(dp219
sg62
g204
sg55
(lp220
g48
(g49
g50
NtRp221
(dp222
g53
(dp223
g61
I5
ssg62
g217
sg55
(lp224
g48
(g57
g50
NtRp225
(dp226
g53
(dp227
g61
I4
ssg62
Nsg55
(lp228
g48
(g64
g50
NtRp229
(dp230
g53
(dp231
sg62
g225
sg55
(lp232
g48
(g69
g50
NtRp233
(dp234
g53
(dp235
g73
g74
ssg62
g229
sg55
(lp236
S'session_id_admin'
p237
asbag48
(g69
g50
NtRp238
(dp239
g53
(dp240
g80
g81
ssg62
g229
sg55
(lp241
S':'
asbag48
(g69
g50
NtRp242
(dp243
g53
(dp244
sg62
g229
sg55
(lp245
g48
(g49
g50
NtRp246
(dp247
g53
(dp248
g61
I4
ssg62
g242
sg55
(lp249
g48
(g57
g50
NtRp250
(dp251
g53
(dp252
g61
I3
ssg62
Nsg55
(lp253
g48
(g64
g50
NtRp254
(dp255
g53
(dp256
sg62
g250
sg55
(lp257
g48
(g69
g50
NtRp258
(dp259
g53
(dp260
g73
g74
ssg62
g254
sg55
(lp261
S'comment'
p262
asbag48
(g69
g50
NtRp263
(dp264
g53
(dp265
g80
g81
ssg62
g254
sg55
(lp266
S':'
asbag48
(g69
g50
NtRp267
(dp268
g53
(dp269
sg62
g254
sg55
(lp270
g48
(g49
g50
NtRp271
(dp272
g53
(dp273
g61
I3
ssg62
g267
sg55
(lp274
S''
asbasbasbag48
(g64
g50
NtRp275
(dp276
g53
(dp277
sg62
g250
sg55
(lp278
g48
(g69
g50
NtRp279
(dp280
g53
(dp281
g73
g74
ssg62
g275
sg55
(lp282
S'domain'
p283
asbag48
(g69
g50
NtRp284
(dp285
g53
(dp286
g80
g81
ssg62
g275
sg55
(lp287
S':'
asbag48
(g69
g50
NtRp288
(dp289
g53
(dp290
sg62
g275
sg55
(lp291
g48
(g49
g50
NtRp292
(dp293
g53
(dp294
g61
I3
ssg62
g288
sg55
(lp295
S''
asbasbasbag48
(g64
g50
NtRp296
(dp297
g53
(dp298
sg62
g250
sg55
(lp299
g48
(g69
g50
NtRp300
(dp301
g53
(dp302
g73
g74
ssg62
g296
sg55
(lp303
S'expires'
p304
asbag48
(g69
g50
NtRp305
(dp306
g53
(dp307
g80
g81
ssg62
g296
sg55
(lp308
S':'
asbag48
(g69
g50
NtRp309
(dp310
g53
(dp311
sg62
g296
sg55
(lp312
g48
(g49
g50
NtRp313
(dp314
g53
(dp315
g61
I3
ssg62
g309
sg55
(lp316
S''
asbasbasbag48
(g64
g50
NtRp317
(dp318
g53
(dp319
sg62
g250
sg55
(lp320
g48
(g69
g50
NtRp321
(dp322
g53
(dp323
g73
g74
ssg62
g317
sg55
(lp324
S'max-age'
p325
asbag48
(g69
g50
NtRp326
(dp327
g53
(dp328
g80
g81
ssg62
g317
sg55
(lp329
S':'
asbag48
(g69
g50
NtRp330
(dp331
g53
(dp332
sg62
g317
sg55
(lp333
g48
(g49
g50
NtRp334
(dp335
g53
(dp336
g61
I3
ssg62
g330
sg55
(lp337
S''
asbasbasbag48
(g64
g50
NtRp338
(dp339
g53
(dp340
sg62
g250
sg55
(lp341
g48
(g69
g50
NtRp342
(dp343
g53
(dp344
g73
g74
ssg62
g338
sg55
(lp345
S'path'
p346
asbag48
(g69
g50
NtRp347
(dp348
g53
(dp349
g80
g81
ssg62
g338
sg55
(lp350
S':'
asbag48
(g69
g50
NtRp351
(dp352
g53
(dp353
sg62
g338
sg55
(lp354
g48
(g49
g50
NtRp355
(dp356
g53
(dp357
g61
I3
ssg62
g351
sg55
(lp358
S''
asbasbasbag48
(g64
g50
NtRp359
(dp360
g53
(dp361
sg62
g250
sg55
(lp362
g48
(g69
g50
NtRp363
(dp364
g53
(dp365
g73
g74
ssg62
g359
sg55
(lp366
S'secure'
p367
asbag48
(g69
g50
NtRp368
(dp369
g53
(dp370
g80
g81
ssg62
g359
sg55
(lp371
S':'
asbag48
(g69
g50
NtRp372
(dp373
g53
(dp374
sg62
g359
sg55
(lp375
g48
(g49
g50
NtRp376
(dp377
g53
(dp378
g61
I3
ssg62
g372
sg55
(lp379
S''
asbasbasbag48
(g64
g50
NtRp380
(dp381
g53
(dp382
sg62
g250
sg55
(lp383
g48
(g69
g50
NtRp384
(dp385
g53
(dp386
g73
g74
ssg62
g380
sg55
(lp387
S'version'
p388
asbag48
(g69
g50
NtRp389
(dp390
g53
(dp391
g80
g81
ssg62
g380
sg55
(lp392
S':'
asbag48
(g69
g50
NtRp393
(dp394
g53
(dp395
sg62
g380
sg55
(lp396
g48
(g49
g50
NtRp397
(dp398
g53
(dp399
g61
I3
ssg62
g393
sg55
(lp400
S''
asbasbasbasbasbasbasbag48
(g64
g50
NtRp401
(dp402
g53
(dp403
sg62
g225
sg55
(lp404
g48
(g69
g50
NtRp405
(dp406
g53
(dp407
g73
g74
ssg62
g401
sg55
(lp408
S'session_id_desglosar_emails'
p409
asbag48
(g69
g50
NtRp410
(dp411
g53
(dp412
g80
g81
ssg62
g401
sg55
(lp413
S':'
asbag48
(g69
g50
NtRp414
(dp415
g53
(dp416
sg62
g401
sg55
(lp417
g48
(g49
g50
NtRp418
(dp419
g53
(dp420
g61
I4
ssg62
g414
sg55
(lp421
g48
(g57
g50
NtRp422
(dp423
g53
(dp424
g61
I3
ssg62
Nsg55
(lp425
g48
(g64
g50
NtRp426
(dp427
g53
(dp428
sg62
g422
sg55
(lp429
g48
(g69
g50
NtRp430
(dp431
g53
(dp432
g73
g74
ssg62
g426
sg55
(lp433
g262
asbag48
(g69
g50
NtRp434
(dp435
g53
(dp436
g80
g81
ssg62
g426
sg55
(lp437
S':'
asbag48
(g69
g50
NtRp438
(dp439
g53
(dp440
sg62
g426
sg55
(lp441
g48
(g49
g50
NtRp442
(dp443
g53
(dp444
g61
I3
ssg62
g438
sg55
(lp445
S''
asbasbasbag48
(g64
g50
NtRp446
(dp447
g53
(dp448
sg62
g422
sg55
(lp449
g48
(g69
g50
NtRp450
(dp451
g53
(dp452
g73
g74
ssg62
g446
sg55
(lp453
g283
asbag48
(g69
g50
NtRp454
(dp455
g53
(dp456
g80
g81
ssg62
g446
sg55
(lp457
S':'
asbag48
(g69
g50
NtRp458
(dp459
g53
(dp460
sg62
g446
sg55
(lp461
g48
(g49
g50
NtRp462
(dp463
g53
(dp464
g61
I3
ssg62
g458
sg55
(lp465
S''
asbasbasbag48
(g64
g50
NtRp466
(dp467
g53
(dp468
sg62
g422
sg55
(lp469
g48
(g69
g50
NtRp470
(dp471
g53
(dp472
g73
g74
ssg62
g466
sg55
(lp473
g304
asbag48
(g69
g50
NtRp474
(dp475
g53
(dp476
g80
g81
ssg62
g466
sg55
(lp477
S':'
asbag48
(g69
g50
NtRp478
(dp479
g53
(dp480
sg62
g466
sg55
(lp481
g48
(g49
g50
NtRp482
(dp483
g53
(dp484
g61
I3
ssg62
g478
sg55
(lp485
S''
asbasbasbag48
(g64
g50
NtRp486
(dp487
g53
(dp488
sg62
g422
sg55
(lp489
g48
(g69
g50
NtRp490
(dp491
g53
(dp492
g73
g74
ssg62
g486
sg55
(lp493
g325
asbag48
(g69
g50
NtRp494
(dp495
g53
(dp496
g80
g81
ssg62
g486
sg55
(lp497
S':'
asbag48
(g69
g50
NtRp498
(dp499
g53
(dp500
sg62
g486
sg55
(lp501
g48
(g49
g50
NtRp502
(dp503
g53
(dp504
g61
I3
ssg62
g498
sg55
(lp505
S''
asbasbasbag48
(g64
g50
NtRp506
(dp507
g53
(dp508
sg62
g422
sg55
(lp509
g48
(g69
g50
NtRp510
(dp511
g53
(dp512
g73
g74
ssg62
g506
sg55
(lp513
g346
asbag48
(g69
g50
NtRp514
(dp515
g53
(dp516
g80
g81
ssg62
g506
sg55
(lp517
S':'
asbag48
(g69
g50
NtRp518
(dp519
g53
(dp520
sg62
g506
sg55
(lp521
g48
(g49
g50
NtRp522
(dp523
g53
(dp524
g61
I3
ssg62
g518
sg55
(lp525
S''
asbasbasbag48
(g64
g50
NtRp526
(dp527
g53
(dp528
sg62
g422
sg55
(lp529
g48
(g69
g50
NtRp530
(dp531
g53
(dp532
g73
g74
ssg62
g526
sg55
(lp533
g367
asbag48
(g69
g50
NtRp534
(dp535
g53
(dp536
g80
g81
ssg62
g526
sg55
(lp537
S':'
asbag48
(g69
g50
NtRp538
(dp539
g53
(dp540
sg62
g526
sg55
(lp541
g48
(g49
g50
NtRp542
(dp543
g53
(dp544
g61
I3
ssg62
g538
sg55
(lp545
S''
asbasbasbag48
(g64
g50
NtRp546
(dp547
g53
(dp548
sg62
g422
sg55
(lp549
g48
(g69
g50
NtRp550
(dp551
g53
(dp552
g73
g74
ssg62
g546
sg55
(lp553
g388
asbag48
(g69
g50
NtRp554
(dp555
g53
(dp556
g80
g81
ssg62
g546
sg55
(lp557
S':'
asbag48
(g69
g50
NtRp558
(dp559
g53
(dp560
sg62
g546
sg55
(lp561
g48
(g49
g50
NtRp562
(dp563
g53
(dp564
g61
I3
ssg62
g558
sg55
(lp565
S''
asbasbasbasbasbasbasbag48
(g64
g50
NtRp566
(dp567
g53
(dp568
sg62
g225
sg55
(lp569
g48
(g69
g50
NtRp570
(dp571
g53
(dp572
g73
g74
ssg62
g566
sg55
(lp573
S'session_id_listado_1'
p574
asbag48
(g69
g50
NtRp575
(dp576
g53
(dp577
g80
g81
ssg62
g566
sg55
(lp578
S':'
asbag48
(g69
g50
NtRp579
(dp580
g53
(dp581
sg62
g566
sg55
(lp582
g48
(g49
g50
NtRp583
(dp584
g53
(dp585
g61
I4
ssg62
g579
sg55
(lp586
g48
(g57
g50
NtRp587
(dp588
g53
(dp589
g61
I3
ssg62
Nsg55
(lp590
g48
(g64
g50
NtRp591
(dp592
g53
(dp593
sg62
g587
sg55
(lp594
g48
(g69
g50
NtRp595
(dp596
g53
(dp597
g73
g74
ssg62
g591
sg55
(lp598
g262
asbag48
(g69
g50
NtRp599
(dp600
g53
(dp601
g80
g81
ssg62
g591
sg55
(lp602
S':'
asbag48
(g69
g50
NtRp603
(dp604
g53
(dp605
sg62
g591
sg55
(lp606
g48
(g49
g50
NtRp607
(dp608
g53
(dp609
g61
I3
ssg62
g603
sg55
(lp610
S''
asbasbasbag48
(g64
g50
NtRp611
(dp612
g53
(dp613
sg62
g587
sg55
(lp614
g48
(g69
g50
NtRp615
(dp616
g53
(dp617
g73
g74
ssg62
g611
sg55
(lp618
g283
asbag48
(g69
g50
NtRp619
(dp620
g53
(dp621
g80
g81
ssg62
g611
sg55
(lp622
S':'
asbag48
(g69
g50
NtRp623
(dp624
g53
(dp625
sg62
g611
sg55
(lp626
g48
(g49
g50
NtRp627
(dp628
g53
(dp629
g61
I3
ssg62
g623
sg55
(lp630
S''
asbasbasbag48
(g64
g50
NtRp631
(dp632
g53
(dp633
sg62
g587
sg55
(lp634
g48
(g69
g50
NtRp635
(dp636
g53
(dp637
g73
g74
ssg62
g631
sg55
(lp638
g304
asbag48
(g69
g50
NtRp639
(dp640
g53
(dp641
g80
g81
ssg62
g631
sg55
(lp642
S':'
asbag48
(g69
g50
NtRp643
(dp644
g53
(dp645
sg62
g631
sg55
(lp646
g48
(g49
g50
NtRp647
(dp648
g53
(dp649
g61
I3
ssg62
g643
sg55
(lp650
S''
asbasbasbag48
(g64
g50
NtRp651
(dp652
g53
(dp653
sg62
g587
sg55
(lp654
g48
(g69
g50
NtRp655
(dp656
g53
(dp657
g73
g74
ssg62
g651
sg55
(lp658
g325
asbag48
(g69
g50
NtRp659
(dp660
g53
(dp661
g80
g81
ssg62
g651
sg55
(lp662
S':'
asbag48
(g69
g50
NtRp663
(dp664
g53
(dp665
sg62
g651
sg55
(lp666
g48
(g49
g50
NtRp667
(dp668
g53
(dp669
g61
I3
ssg62
g663
sg55
(lp670
S''
asbasbasbag48
(g64
g50
NtRp671
(dp672
g53
(dp673
sg62
g587
sg55
(lp674
g48
(g69
g50
NtRp675
(dp676
g53
(dp677
g73
g74
ssg62
g671
sg55
(lp678
g346
asbag48
(g69
g50
NtRp679
(dp680
g53
(dp681
g80
g81
ssg62
g671
sg55
(lp682
S':'
asbag48
(g69
g50
NtRp683
(dp684
g53
(dp685
sg62
g671
sg55
(lp686
g48
(g49
g50
NtRp687
(dp688
g53
(dp689
g61
I3
ssg62
g683
sg55
(lp690
S''
asbasbasbag48
(g64
g50
NtRp691
(dp692
g53
(dp693
sg62
g587
sg55
(lp694
g48
(g69
g50
NtRp695
(dp696
g53
(dp697
g73
g74
ssg62
g691
sg55
(lp698
g367
asbag48
(g69
g50
NtRp699
(dp700
g53
(dp701
g80
g81
ssg62
g691
sg55
(lp702
S':'
asbag48
(g69
g50
NtRp703
(dp704
g53
(dp705
sg62
g691
sg55
(lp706
g48
(g49
g50
NtRp707
(dp708
g53
(dp709
g61
I3
ssg62
g703
sg55
(lp710
S''
asbasbasbag48
(g64
g50
NtRp711
(dp712
g53
(dp713
sg62
g587
sg55
(lp714
g48
(g69
g50
NtRp715
(dp716
g53
(dp717
g73
g74
ssg62
g711
sg55
(lp718
g388
asbag48
(g69
g50
NtRp719
(dp720
g53
(dp721
g80
g81
ssg62
g711
sg55
(lp722
S':'
asbag48
(g69
g50
NtRp723
(dp724
g53
(dp725
sg62
g711
sg55
(lp726
g48
(g49
g50
NtRp727
(dp728
g53
(dp729
g61
I3
ssg62
g723
sg55
(lp730
S''
asbasbasbasbasbasbasbag48
(g64
g50
NtRp731
(dp732
g53
(dp733
sg62
g225
sg55
(lp734
g48
(g69
g50
NtRp735
(dp736
g53
(dp737
g73
g74
ssg62
g731
sg55
(lp738
S'session_id_welcome'
p739
asbag48
(g69
g50
NtRp740
(dp741
g53
(dp742
g80
g81
ssg62
g731
sg55
(lp743
S':'
asbag48
(g69
g50
NtRp744
(dp745
g53
(dp746
sg62
g731
sg55
(lp747
g48
(g49
g50
NtRp748
(dp749
g53
(dp750
g61
I4
ssg62
g744
sg55
(lp751
g48
(g57
g50
NtRp752
(dp753
g53
(dp754
g61
I3
ssg62
Nsg55
(lp755
g48
(g64
g50
NtRp756
(dp757
g53
(dp758
sg62
g752
sg55
(lp759
g48
(g69
g50
NtRp760
(dp761
g53
(dp762
g73
g74
ssg62
g756
sg55
(lp763
g262
asbag48
(g69
g50
NtRp764
(dp765
g53
(dp766
g80
g81
ssg62
g756
sg55
(lp767
S':'
asbag48
(g69
g50
NtRp768
(dp769
g53
(dp770
sg62
g756
sg55
(lp771
g48
(g49
g50
NtRp772
(dp773
g53
(dp774
g61
I3
ssg62
g768
sg55
(lp775
S''
asbasbasbag48
(g64
g50
NtRp776
(dp777
g53
(dp778
sg62
g752
sg55
(lp779
g48
(g69
g50
NtRp780
(dp781
g53
(dp782
g73
g74
ssg62
g776
sg55
(lp783
g283
asbag48
(g69
g50
NtRp784
(dp785
g53
(dp786
g80
g81
ssg62
g776
sg55
(lp787
S':'
asbag48
(g69
g50
NtRp788
(dp789
g53
(dp790
sg62
g776
sg55
(lp791
g48
(g49
g50
NtRp792
(dp793
g53
(dp794
g61
I3
ssg62
g788
sg55
(lp795
S''
asbasbasbag48
(g64
g50
NtRp796
(dp797
g53
(dp798
sg62
g752
sg55
(lp799
g48
(g69
g50
NtRp800
(dp801
g53
(dp802
g73
g74
ssg62
g796
sg55
(lp803
g304
asbag48
(g69
g50
NtRp804
(dp805
g53
(dp806
g80
g81
ssg62
g796
sg55
(lp807
S':'
asbag48
(g69
g50
NtRp808
(dp809
g53
(dp810
sg62
g796
sg55
(lp811
g48
(g49
g50
NtRp812
(dp813
g53
(dp814
g61
I3
ssg62
g808
sg55
(lp815
S''
asbasbasbag48
(g64
g50
NtRp816
(dp817
g53
(dp818
sg62
g752
sg55
(lp819
g48
(g69
g50
NtRp820
(dp821
g53
(dp822
g73
g74
ssg62
g816
sg55
(lp823
g325
asbag48
(g69
g50
NtRp824
(dp825
g53
(dp826
g80
g81
ssg62
g816
sg55
(lp827
S':'
asbag48
(g69
g50
NtRp828
(dp829
g53
(dp830
sg62
g816
sg55
(lp831
g48
(g49
g50
NtRp832
(dp833
g53
(dp834
g61
I3
ssg62
g828
sg55
(lp835
S''
asbasbasbag48
(g64
g50
NtRp836
(dp837
g53
(dp838
sg62
g752
sg55
(lp839
g48
(g69
g50
NtRp840
(dp841
g53
(dp842
g73
g74
ssg62
g836
sg55
(lp843
g346
asbag48
(g69
g50
NtRp844
(dp845
g53
(dp846
g80
g81
ssg62
g836
sg55
(lp847
S':'
asbag48
(g69
g50
NtRp848
(dp849
g53
(dp850
sg62
g836
sg55
(lp851
g48
(g49
g50
NtRp852
(dp853
g53
(dp854
g61
I3
ssg62
g848
sg55
(lp855
S''
asbasbasbag48
(g64
g50
NtRp856
(dp857
g53
(dp858
sg62
g752
sg55
(lp859
g48
(g69
g50
NtRp860
(dp861
g53
(dp862
g73
g74
ssg62
g856
sg55
(lp863
g367
asbag48
(g69
g50
NtRp864
(dp865
g53
(dp866
g80
g81
ssg62
g856
sg55
(lp867
S':'
asbag48
(g69
g50
NtRp868
(dp869
g53
(dp870
sg62
g856
sg55
(lp871
g48
(g49
g50
NtRp872
(dp873
g53
(dp874
g61
I3
ssg62
g868
sg55
(lp875
S''
asbasbasbag48
(g64
g50
NtRp876
(dp877
g53
(dp878
sg62
g752
sg55
(lp879
g48
(g69
g50
NtRp880
(dp881
g53
(dp882
g73
g74
ssg62
g876
sg55
(lp883
g388
asbag48
(g69
g50
NtRp884
(dp885
g53
(dp886
g80
g81
ssg62
g876
sg55
(lp887
S':'
asbag48
(g69
g50
NtRp888
(dp889
g53
(dp890
sg62
g876
sg55
(lp891
g48
(g49
g50
NtRp892
(dp893
g53
(dp894
g61
I3
ssg62
g888
sg55
(lp895
S''
asbasbasbasbasbasbasbasbasbasbasbag48
(g64
g50
NtRp896
(dp897
g53
(dp898
sg62
g58
sg55
(lp899
g48
(g69
g50
NtRp900
(dp901
g53
(dp902
g73
g74
ssg62
g896
sg55
(lp903
S'env'
p904
asbag48
(g69
g50
NtRp905
(dp906
g53
(dp907
g80
g81
ssg62
g896
sg55
(lp908
S':'
asbag48
(g69
g50
NtRp909
(dp910
g53
(dp911
sg62
g896
sg55
(lp912
g48
(g49
g50
NtRp913
(dp914
g53
(dp915
g61
I5
ssg62
g909
sg55
(lp916
g48
(g57
g50
NtRp917
(dp918
g53
(dp919
g61
I4
ssg62
Nsg55
(lp920
g48
(g64
g50
NtRp921
(dp922
g53
(dp923
sg62
g917
sg55
(lp924
g48
(g69
g50
NtRp925
(dp926
g53
(dp927
g73
g74
ssg62
g921
sg55
(lp928
S'app_folders'
p929
asbag48
(g69
g50
NtRp930
(dp931
g53
(dp932
g80
g81
ssg62
g921
sg55
(lp933
S':'
asbag48
(g69
g50
NtRp934
(dp935
g53
(dp936
sg62
g921
sg55
(lp937
g48
(g49
g50
NtRp938
(dp939
g53
(dp940
g61
I4
ssg62
g934
sg55
(lp941
S"set(['C:\\\\Users\\\\Atomico\\\\web2py\\\\applications\\\\welcome\\\\', 'C:\\\\Users\\\\Atomico\\\\web2py\\\\applications\\\\Desglosar_Emails\\\\', 'C:\\\\Users\\\\Atomico\\\\web2py\\\\applications\\\\admin\\\\'])"
p942
asbasbasbag48
(g64
g50
NtRp943
(dp944
g53
(dp945
sg62
g917
sg55
(lp946
g48
(g69
g50
NtRp947
(dp948
g53
(dp949
g73
g74
ssg62
g943
sg55
(lp950
S'applications_parent'
p951
asbag48
(g69
g50
NtRp952
(dp953
g53
(dp954
g80
g81
ssg62
g943
sg55
(lp955
S':'
asbag48
(g69
g50
NtRp956
(dp957
g53
(dp958
sg62
g943
sg55
(lp959
g48
(g49
g50
NtRp960
(dp961
g53
(dp962
g61
I4
ssg62
g956
sg55
(lp963
S'C:\\Users\\Atomico\\web2py'
p964
asbasbasbag48
(g64
g50
NtRp965
(dp966
g53
(dp967
sg62
g917
sg55
(lp968
g48
(g69
g50
NtRp969
(dp970
g53
(dp971
g73
g74
ssg62
g965
sg55
(lp972
S'cmd_args'
p973
asbag48
(g69
g50
NtRp974
(dp975
g53
(dp976
g80
g81
ssg62
g965
sg55
(lp977
S':'
asbag48
(g69
g50
NtRp978
(dp979
g53
(dp980
sg62
g965
sg55
(lp981
g48
(g49
g50
NtRp982
(dp983
g53
(dp984
g61
I4
ssg62
g978
sg55
(lp985
g48
(g57
g50
NtRp986
(dp987
g53
(dp988
g61
I3
ssg62
Nsg55
(lp989
sbasbasbasbag48
(g64
g50
NtRp990
(dp991
g53
(dp992
sg62
g917
sg55
(lp993
g48
(g69
g50
NtRp994
(dp995
g53
(dp996
g73
g74
ssg62
g990
sg55
(lp997
S'cmd_options'
p998
asbag48
(g69
g50
NtRp999
(dp1000
g53
(dp1001
g80
g81
ssg62
g990
sg55
(lp1002
S':'
asbag48
(g69
g50
NtRp1003
(dp1004
g53
(dp1005
sg62
g990
sg55
(lp1006
g48
(g49
g50
NtRp1007
(dp1008
g53
(dp1009
g61
I4
ssg62
g1003
sg55
(lp1010
S"<Values at 0x30fb620: {'verbose': False, 'ip': '127.0.0.1', 'shutdown_timeout': 5, 'taskbar': False, 'port': 8000, 'maxthreads': None, 'softcron': False, 'server_name': 'Swing', 'bpython': False, 'nogui': False, 'nocron': False, 'extcron': False, 'debuglevel': 30, 'test': None, 'folder': 'C:\\\\Users\\\\Atomico\\\\web2py', 'config': '', 'import_models': False, 'winservice': '', 'shell': None, 'run': '', 'log_filename': 'httpserver.log', 'args': [''], 'profiler_filename': None, 'ssl_private_key': '', 'password': '<ask>', 'request_queue_size': 5, 'ssl_certificate': '', 'cronjob': False, 'plain': False, 'quiet': False, 'interfaces': None, 'minthreads': None, 'timeout': 10, 'numthreads': None, 'nobanner': False, 'pid_filename': 'httpserver.pid'}>"
p1011
asbasbasbag48
(g64
g50
NtRp1012
(dp1013
g53
(dp1014
sg62
g917
sg55
(lp1015
g48
(g69
g50
NtRp1016
(dp1017
g53
(dp1018
g73
g74
ssg62
g1012
sg55
(lp1019
S'db_sessions'
p1020
asbag48
(g69
g50
NtRp1021
(dp1022
g53
(dp1023
g80
g81
ssg62
g1012
sg55
(lp1024
S':'
asbag48
(g69
g50
NtRp1025
(dp1026
g53
(dp1027
sg62
g1012
sg55
(lp1028
g48
(g49
g50
NtRp1029
(dp1030
g53
(dp1031
g61
I4
ssg62
g1025
sg55
(lp1032
S'set([])'
p1033
asbasbasbag48
(g64
g50
NtRp1034
(dp1035
g53
(dp1036
sg62
g917
sg55
(lp1037
g48
(g69
g50
NtRp1038
(dp1039
g53
(dp1040
g73
g74
ssg62
g1034
sg55
(lp1041
S'debugging'
p1042
asbag48
(g69
g50
NtRp1043
(dp1044
g53
(dp1045
g80
g81
ssg62
g1034
sg55
(lp1046
S':'
asbag48
(g69
g50
NtRp1047
(dp1048
g53
(dp1049
sg62
g1034
sg55
(lp1050
g48
(g49
g50
NtRp1051
(dp1052
g53
(dp1053
g61
I4
ssg62
g1047
sg55
(lp1054
g91
asbasbasbag48
(g64
g50
NtRp1055
(dp1056
g53
(dp1057
sg62
g917
sg55
(lp1058
g48
(g69
g50
NtRp1059
(dp1060
g53
(dp1061
g73
g74
ssg62
g1055
sg55
(lp1062
S'gluon_parent'
p1063
asbag48
(g69
g50
NtRp1064
(dp1065
g53
(dp1066
g80
g81
ssg62
g1055
sg55
(lp1067
S':'
asbag48
(g69
g50
NtRp1068
(dp1069
g53
(dp1070
sg62
g1055
sg55
(lp1071
g48
(g49
g50
NtRp1072
(dp1073
g53
(dp1074
g61
I4
ssg62
g1068
sg55
(lp1075
S'C:\\Users\\Atomico\\web2py'
p1076
asbasbasbag48
(g64
g50
NtRp1077
(dp1078
g53
(dp1079
sg62
g917
sg55
(lp1080
g48
(g69
g50
NtRp1081
(dp1082
g53
(dp1083
g73
g74
ssg62
g1077
sg55
(lp1084
S'http_accept'
p1085
asbag48
(g69
g50
NtRp1086
(dp1087
g53
(dp1088
g80
g81
ssg62
g1077
sg55
(lp1089
S':'
asbag48
(g69
g50
NtRp1090
(dp1091
g53
(dp1092
sg62
g1077
sg55
(lp1093
g48
(g49
g50
NtRp1094
(dp1095
g53
(dp1096
g61
I4
ssg62
g1090
sg55
(lp1097
S'text/html,application/xhtml+xml,application/xml;q=0.9,*/*;q=0.8'
p1098
asbasbasbag48
(g64
g50
NtRp1099
(dp1100
g53
(dp1101
sg62
g917
sg55
(lp1102
g48
(g69
g50
NtRp1103
(dp1104
g53
(dp1105
g73
g74
ssg62
g1099
sg55
(lp1106
S'http_accept_charset'
p1107
asbag48
(g69
g50
NtRp1108
(dp1109
g53
(dp1110
g80
g81
ssg62
g1099
sg55
(lp1111
S':'
asbag48
(g69
g50
NtRp1112
(dp1113
g53
(dp1114
sg62
g1099
sg55
(lp1115
g48
(g49
g50
NtRp1116
(dp1117
g53
(dp1118
g61
I4
ssg62
g1112
sg55
(lp1119
S'ISO-8859-1,utf-8;q=0.7,*;q=0.7'
p1120
asbasbasbag48
(g64
g50
NtRp1121
(dp1122
g53
(dp1123
sg62
g917
sg55
(lp1124
g48
(g69
g50
NtRp1125
(dp1126
g53
(dp1127
g73
g74
ssg62
g1121
sg55
(lp1128
S'http_accept_encoding'
p1129
asbag48
(g69
g50
NtRp1130
(dp1131
g53
(dp1132
g80
g81
ssg62
g1121
sg55
(lp1133
S':'
asbag48
(g69
g50
NtRp1134
(dp1135
g53
(dp1136
sg62
g1121
sg55
(lp1137
g48
(g49
g50
NtRp1138
(dp1139
g53
(dp1140
g61
I4
ssg62
g1134
sg55
(lp1141
S'gzip, deflate'
p1142
asbasbasbag48
(g64
g50
NtRp1143
(dp1144
g53
(dp1145
sg62
g917
sg55
(lp1146
g48
(g69
g50
NtRp1147
(dp1148
g53
(dp1149
g73
g74
ssg62
g1143
sg55
(lp1150
S'http_accept_language'
p1151
asbag48
(g69
g50
NtRp1152
(dp1153
g53
(dp1154
g80
g81
ssg62
g1143
sg55
(lp1155
S':'
asbag48
(g69
g50
NtRp1156
(dp1157
g53
(dp1158
sg62
g1143
sg55
(lp1159
g48
(g49
g50
NtRp1160
(dp1161
g53
(dp1162
g61
I4
ssg62
g1156
sg55
(lp1163
S'es-es,es;q=0.8,en-us;q=0.5,en;q=0.3'
p1164
asbasbasbag48
(g64
g50
NtRp1165
(dp1166
g53
(dp1167
sg62
g917
sg55
(lp1168
g48
(g69
g50
NtRp1169
(dp1170
g53
(dp1171
g73
g74
ssg62
g1165
sg55
(lp1172
S'http_cache_control'
p1173
asbag48
(g69
g50
NtRp1174
(dp1175
g53
(dp1176
g80
g81
ssg62
g1165
sg55
(lp1177
S':'
asbag48
(g69
g50
NtRp1178
(dp1179
g53
(dp1180
sg62
g1165
sg55
(lp1181
g48
(g49
g50
NtRp1182
(dp1183
g53
(dp1184
g61
I4
ssg62
g1178
sg55
(lp1185
S'max-age=0'
p1186
asbasbasbag48
(g64
g50
NtRp1187
(dp1188
g53
(dp1189
sg62
g917
sg55
(lp1190
g48
(g69
g50
NtRp1191
(dp1192
g53
(dp1193
g73
g74
ssg62
g1187
sg55
(lp1194
S'http_connection'
p1195
asbag48
(g69
g50
NtRp1196
(dp1197
g53
(dp1198
g80
g81
ssg62
g1187
sg55
(lp1199
S':'
asbag48
(g69
g50
NtRp1200
(dp1201
g53
(dp1202
sg62
g1187
sg55
(lp1203
g48
(g49
g50
NtRp1204
(dp1205
g53
(dp1206
g61
I4
ssg62
g1200
sg55
(lp1207
S'keep-alive'
p1208
asbasbasbag48
(g64
g50
NtRp1209
(dp1210
g53
(dp1211
sg62
g917
sg55
(lp1212
g48
(g69
g50
NtRp1213
(dp1214
g53
(dp1215
g73
g74
ssg62
g1209
sg55
(lp1216
S'http_cookie'
p1217
asbag48
(g69
g50
NtRp1218
(dp1219
g53
(dp1220
g80
g81
ssg62
g1209
sg55
(lp1221
S':'
asbag48
(g69
g50
NtRp1222
(dp1223
g53
(dp1224
sg62
g1209
sg55
(lp1225
g48
(g49
g50
NtRp1226
(dp1227
g53
(dp1228
g61
I4
ssg62
g1222
sg55
(lp1229
S'session_id_welcome=127.0.0.1-082a2830-9bb6-4bfb-b2e2-4857b06c191e; session_id_admin=127.0.0.1-47fb3a34-c5d7-4353-b3ad-9fae00359bf6; session_id_listado_1=127.0.0.1-477ec098-5436-4f6e-bfee-1a0bd88f6f9e; session_id_desglosar_emails=127.0.0.1-0a11b3b2-660c-433c-b71f-fc129286f26c'
p1230
asbasbasbag48
(g64
g50
NtRp1231
(dp1232
g53
(dp1233
sg62
g917
sg55
(lp1234
g48
(g69
g50
NtRp1235
(dp1236
g53
(dp1237
g73
g74
ssg62
g1231
sg55
(lp1238
S'http_host'
p1239
asbag48
(g69
g50
NtRp1240
(dp1241
g53
(dp1242
g80
g81
ssg62
g1231
sg55
(lp1243
S':'
asbag48
(g69
g50
NtRp1244
(dp1245
g53
(dp1246
sg62
g1231
sg55
(lp1247
g48
(g49
g50
NtRp1248
(dp1249
g53
(dp1250
g61
I4
ssg62
g1244
sg55
(lp1251
S'127.0.0.1:8000'
p1252
asbasbasbag48
(g64
g50
NtRp1253
(dp1254
g53
(dp1255
sg62
g917
sg55
(lp1256
g48
(g69
g50
NtRp1257
(dp1258
g53
(dp1259
g73
g74
ssg62
g1253
sg55
(lp1260
S'http_referer'
p1261
asbag48
(g69
g50
NtRp1262
(dp1263
g53
(dp1264
g80
g81
ssg62
g1253
sg55
(lp1265
S':'
asbag48
(g69
g50
NtRp1266
(dp1267
g53
(dp1268
sg62
g1253
sg55
(lp1269
g48
(g49
g50
NtRp1270
(dp1271
g53
(dp1272
g61
I4
ssg62
g1266
sg55
(lp1273
S'http://127.0.0.1:8000/admin/default/design/Desglosar_Emails'
p1274
asbasbasbag48
(g64
g50
NtRp1275
(dp1276
g53
(dp1277
sg62
g917
sg55
(lp1278
g48
(g69
g50
NtRp1279
(dp1280
g53
(dp1281
g73
g74
ssg62
g1275
sg55
(lp1282
S'http_user_agent'
p1283
asbag48
(g69
g50
NtRp1284
(dp1285
g53
(dp1286
g80
g81
ssg62
g1275
sg55
(lp1287
S':'
asbag48
(g69
g50
NtRp1288
(dp1289
g53
(dp1290
sg62
g1275
sg55
(lp1291
g48
(g49
g50
NtRp1292
(dp1293
g53
(dp1294
g61
I4
ssg62
g1288
sg55
(lp1295
S'Mozilla/5.0 (Windows NT 6.1; WOW64; rv:6.0.2) Gecko/20100101 Firefox/6.0.2'
p1296
asbasbasbag48
(g64
g50
NtRp1297
(dp1298
g53
(dp1299
sg62
g917
sg55
(lp1300
g48
(g69
g50
NtRp1301
(dp1302
g53
(dp1303
g73
g74
ssg62
g1297
sg55
(lp1304
S'is_jython'
p1305
asbag48
(g69
g50
NtRp1306
(dp1307
g53
(dp1308
g80
g81
ssg62
g1297
sg55
(lp1309
S':'
asbag48
(g69
g50
NtRp1310
(dp1311
g53
(dp1312
sg62
g1297
sg55
(lp1313
g48
(g49
g50
NtRp1314
(dp1315
g53
(dp1316
g61
I4
ssg62
g1310
sg55
(lp1317
g91
asbasbasbag48
(g64
g50
NtRp1318
(dp1319
g53
(dp1320
sg62
g917
sg55
(lp1321
g48
(g69
g50
NtRp1322
(dp1323
g53
(dp1324
g73
g74
ssg62
g1318
sg55
(lp1325
S'path_info'
p1326
asbag48
(g69
g50
NtRp1327
(dp1328
g53
(dp1329
g80
g81
ssg62
g1318
sg55
(lp1330
S':'
asbag48
(g69
g50
NtRp1331
(dp1332
g53
(dp1333
sg62
g1318
sg55
(lp1334
g48
(g49
g50
NtRp1335
(dp1336
g53
(dp1337
g61
I4
ssg62
g1331
sg55
(lp1338
S'/Desglosar_Emails/default/entrada_mod1'
p1339
asbasbasbag48
(g64
g50
NtRp1340
(dp1341
g53
(dp1342
sg62
g917
sg55
(lp1343
g48
(g69
g50
NtRp1344
(dp1345
g53
(dp1346
g73
g74
ssg62
g1340
sg55
(lp1347
S'query_string'
p1348
asbag48
(g69
g50
NtRp1349
(dp1350
g53
(dp1351
g80
g81
ssg62
g1340
sg55
(lp1352
S':'
asbag48
(g69
g50
NtRp1353
(dp1354
g53
(dp1355
sg62
g1340
sg55
(lp1356
g48
(g49
g50
NtRp1357
(dp1358
g53
(dp1359
g61
I4
ssg62
g1353
sg55
(lp1360
S''
asbasbasbag48
(g64
g50
NtRp1361
(dp1362
g53
(dp1363
sg62
g917
sg55
(lp1364
g48
(g69
g50
NtRp1365
(dp1366
g53
(dp1367
g73
g74
ssg62
g1361
sg55
(lp1368
S'remote_addr'
p1369
asbag48
(g69
g50
NtRp1370
(dp1371
g53
(dp1372
g80
g81
ssg62
g1361
sg55
(lp1373
S':'
asbag48
(g69
g50
NtRp1374
(dp1375
g53
(dp1376
sg62
g1361
sg55
(lp1377
g48
(g49
g50
NtRp1378
(dp1379
g53
(dp1380
g61
I4
ssg62
g1374
sg55
(lp1381
g181
asbasbasbag48
(g64
g50
NtRp1382
(dp1383
g53
(dp1384
sg62
g917
sg55
(lp1385
g48
(g69
g50
NtRp1386
(dp1387
g53
(dp1388
g73
g74
ssg62
g1382
sg55
(lp1389
S'remote_port'
p1390
asbag48
(g69
g50
NtRp1391
(dp1392
g53
(dp1393
g80
g81
ssg62
g1382
sg55
(lp1394
S':'
asbag48
(g69
g50
NtRp1395
(dp1396
g53
(dp1397
sg62
g1382
sg55
(lp1398
g48
(g49
g50
NtRp1399
(dp1400
g53
(dp1401
g61
I4
ssg62
g1395
sg55
(lp1402
S'62034'
p1403
asbasbasbag48
(g64
g50
NtRp1404
(dp1405
g53
(dp1406
sg62
g917
sg55
(lp1407
g48
(g69
g50
NtRp1408
(dp1409
g53
(dp1410
g73
g74
ssg62
g1404
sg55
(lp1411
S'request_method'
p1412
asbag48
(g69
g50
NtRp1413
(dp1414
g53
(dp1415
g80
g81
ssg62
g1404
sg55
(lp1416
S':'
asbag48
(g69
g50
NtRp1417
(dp1418
g53
(dp1419
sg62
g1404
sg55
(lp1420
g48
(g49
g50
NtRp1421
(dp1422
g53
(dp1423
g61
I4
ssg62
g1417
sg55
(lp1424
S'GET'
p1425
asbasbasbag48
(g64
g50
NtRp1426
(dp1427
g53
(dp1428
sg62
g917
sg55
(lp1429
g48
(g69
g50
NtRp1430
(dp1431
g53
(dp1432
g73
g74
ssg62
g1426
sg55
(lp1433
S'script_name'
p1434
asbag48
(g69
g50
NtRp1435
(dp1436
g53
(dp1437
g80
g81
ssg62
g1426
sg55
(lp1438
S':'
asbag48
(g69
g50
NtRp1439
(dp1440
g53
(dp1441
sg62
g1426
sg55
(lp1442
g48
(g49
g50
NtRp1443
(dp1444
g53
(dp1445
g61
I4
ssg62
g1439
sg55
(lp1446
S''
asbasbasbag48
(g64
g50
NtRp1447
(dp1448
g53
(dp1449
sg62
g917
sg55
(lp1450
g48
(g69
g50
NtRp1451
(dp1452
g53
(dp1453
g73
g74
ssg62
g1447
sg55
(lp1454
S'server_name'
p1455
asbag48
(g69
g50
NtRp1456
(dp1457
g53
(dp1458
g80
g81
ssg62
g1447
sg55
(lp1459
S':'
asbag48
(g69
g50
NtRp1460
(dp1461
g53
(dp1462
sg62
g1447
sg55
(lp1463
g48
(g49
g50
NtRp1464
(dp1465
g53
(dp1466
g61
I4
ssg62
g1460
sg55
(lp1467
S'Swing'
p1468
asbasbasbag48
(g64
g50
NtRp1469
(dp1470
g53
(dp1471
sg62
g917
sg55
(lp1472
g48
(g69
g50
NtRp1473
(dp1474
g53
(dp1475
g73
g74
ssg62
g1469
sg55
(lp1476
S'server_port'
p1477
asbag48
(g69
g50
NtRp1478
(dp1479
g53
(dp1480
g80
g81
ssg62
g1469
sg55
(lp1481
S':'
asbag48
(g69
g50
NtRp1482
(dp1483
g53
(dp1484
sg62
g1469
sg55
(lp1485
g48
(g49
g50
NtRp1486
(dp1487
g53
(dp1488
g61
I4
ssg62
g1482
sg55
(lp1489
S'8000'
p1490
asbasbasbag48
(g64
g50
NtRp1491
(dp1492
g53
(dp1493
sg62
g917
sg55
(lp1494
g48
(g69
g50
NtRp1495
(dp1496
g53
(dp1497
g73
g74
ssg62
g1491
sg55
(lp1498
S'server_protocol'
p1499
asbag48
(g69
g50
NtRp1500
(dp1501
g53
(dp1502
g80
g81
ssg62
g1491
sg55
(lp1503
S':'
asbag48
(g69
g50
NtRp1504
(dp1505
g53
(dp1506
sg62
g1491
sg55
(lp1507
g48
(g49
g50
NtRp1508
(dp1509
g53
(dp1510
g61
I4
ssg62
g1504
sg55
(lp1511
S'HTTP/1.1'
p1512
asbasbasbag48
(g64
g50
NtRp1513
(dp1514
g53
(dp1515
sg62
g917
sg55
(lp1516
g48
(g69
g50
NtRp1517
(dp1518
g53
(dp1519
g73
g74
ssg62
g1513
sg55
(lp1520
S'server_software'
p1521
asbag48
(g69
g50
NtRp1522
(dp1523
g53
(dp1524
g80
g81
ssg62
g1513
sg55
(lp1525
S':'
asbag48
(g69
g50
NtRp1526
(dp1527
g53
(dp1528
sg62
g1513
sg55
(lp1529
g48
(g49
g50
NtRp1530
(dp1531
g53
(dp1532
g61
I4
ssg62
g1526
sg55
(lp1533
S'Rocket 1.2.2'
p1534
asbasbasbag48
(g64
g50
NtRp1535
(dp1536
g53
(dp1537
sg62
g917
sg55
(lp1538
g48
(g69
g50
NtRp1539
(dp1540
g53
(dp1541
g73
g74
ssg62
g1535
sg55
(lp1542
S'web2py_crontype'
p1543
asbag48
(g69
g50
NtRp1544
(dp1545
g53
(dp1546
g80
g81
ssg62
g1535
sg55
(lp1547
S':'
asbag48
(g69
g50
NtRp1548
(dp1549
g53
(dp1550
sg62
g1535
sg55
(lp1551
g48
(g49
g50
NtRp1552
(dp1553
g53
(dp1554
g61
I4
ssg62
g1548
sg55
(lp1555
S'hard'
p1556
asbasbasbag48
(g64
g50
NtRp1557
(dp1558
g53
(dp1559
sg62
g917
sg55
(lp1560
g48
(g69
g50
NtRp1561
(dp1562
g53
(dp1563
g73
g74
ssg62
g1557
sg55
(lp1564
S'web2py_path'
p1565
asbag48
(g69
g50
NtRp1566
(dp1567
g53
(dp1568
g80
g81
ssg62
g1557
sg55
(lp1569
S':'
asbag48
(g69
g50
NtRp1570
(dp1571
g53
(dp1572
sg62
g1557
sg55
(lp1573
g48
(g49
g50
NtRp1574
(dp1575
g53
(dp1576
g61
I4
ssg62
g1570
sg55
(lp1577
g964
asbasbasbag48
(g64
g50
NtRp1578
(dp1579
g53
(dp1580
sg62
g917
sg55
(lp1581
g48
(g69
g50
NtRp1582
(dp1583
g53
(dp1584
g73
g74
ssg62
g1578
sg55
(lp1585
S'web2py_version'
p1586
asbag48
(g69
g50
NtRp1587
(dp1588
g53
(dp1589
g80
g81
ssg62
g1578
sg55
(lp1590
S':'
asbag48
(g69
g50
NtRp1591
(dp1592
g53
(dp1593
sg62
g1578
sg55
(lp1594
g48
(g49
g50
NtRp1595
(dp1596
g53
(dp1597
g61
I4
ssg62
g1591
sg55
(lp1598
S'Version 1.98.2 (2011-08-04 00:47:09)\n'
p1599
asbasbasbag48
(g64
g50
NtRp1600
(dp1601
g53
(dp1602
sg62
g917
sg55
(lp1603
g48
(g69
g50
NtRp1604
(dp1605
g53
(dp1606
g73
g74
ssg62
g1600
sg55
(lp1607
S'wsgi_errors'
p1608
asbag48
(g69
g50
NtRp1609
(dp1610
g53
(dp1611
g80
g81
ssg62
g1600
sg55
(lp1612
S':'
asbag48
(g69
g50
NtRp1613
(dp1614
g53
(dp1615
sg62
g1600
sg55
(lp1616
g48
(g49
g50
NtRp1617
(dp1618
g53
(dp1619
g61
I4
ssg62
g1613
sg55
(lp1620
S"<open file '<stderr>', mode 'w' at 0x01EF00B0>"
p1621
asbasbasbag48
(g64
g50
NtRp1622
(dp1623
g53
(dp1624
sg62
g917
sg55
(lp1625
g48
(g69
g50
NtRp1626
(dp1627
g53
(dp1628
g73
g74
ssg62
g1622
sg55
(lp1629
S'wsgi_file_wrapper'
p1630
asbag48
(g69
g50
NtRp1631
(dp1632
g53
(dp1633
g80
g81
ssg62
g1622
sg55
(lp1634
S':'
asbag48
(g69
g50
NtRp1635
(dp1636
g53
(dp1637
sg62
g1622
sg55
(lp1638
g48
(g49
g50
NtRp1639
(dp1640
g53
(dp1641
g61
I4
ssg62
g1635
sg55
(lp1642
S'<class gluon.rocket.FileWrapper at 0x0308C1B0>'
p1643
asbasbasbag48
(g64
g50
NtRp1644
(dp1645
g53
(dp1646
sg62
g917
sg55
(lp1647
g48
(g69
g50
NtRp1648
(dp1649
g53
(dp1650
g73
g74
ssg62
g1644
sg55
(lp1651
S'wsgi_input'
p1652
asbag48
(g69
g50
NtRp1653
(dp1654
g53
(dp1655
g80
g81
ssg62
g1644
sg55
(lp1656
S':'
asbag48
(g69
g50
NtRp1657
(dp1658
g53
(dp1659
sg62
g1644
sg55
(lp1660
g48
(g49
g50
NtRp1661
(dp1662
g53
(dp1663
g61
I4
ssg62
g1657
sg55
(lp1664
S'<socket._fileobject object at 0x07905930>'
p1665
asbasbasbag48
(g64
g50
NtRp1666
(dp1667
g53
(dp1668
sg62
g917
sg55
(lp1669
g48
(g69
g50
NtRp1670
(dp1671
g53
(dp1672
g73
g74
ssg62
g1666
sg55
(lp1673
S'wsgi_multiprocess'
p1674
asbag48
(g69
g50
NtRp1675
(dp1676
g53
(dp1677
g80
g81
ssg62
g1666
sg55
(lp1678
S':'
asbag48
(g69
g50
NtRp1679
(dp1680
g53
(dp1681
sg62
g1666
sg55
(lp1682
g48
(g49
g50
NtRp1683
(dp1684
g53
(dp1685
g61
I4
ssg62
g1679
sg55
(lp1686
g91
asbasbasbag48
(g64
g50
NtRp1687
(dp1688
g53
(dp1689
sg62
g917
sg55
(lp1690
g48
(g69
g50
NtRp1691
(dp1692
g53
(dp1693
g73
g74
ssg62
g1687
sg55
(lp1694
S'wsgi_multithread'
p1695
asbag48
(g69
g50
NtRp1696
(dp1697
g53
(dp1698
g80
g81
ssg62
g1687
sg55
(lp1699
S':'
asbag48
(g69
g50
NtRp1700
(dp1701
g53
(dp1702
sg62
g1687
sg55
(lp1703
g48
(g49
g50
NtRp1704
(dp1705
g53
(dp1706
g61
I4
ssg62
g1700
sg55
(lp1707
S'True'
p1708
asbasbasbag48
(g64
g50
NtRp1709
(dp1710
g53
(dp1711
sg62
g917
sg55
(lp1712
g48
(g69
g50
NtRp1713
(dp1714
g53
(dp1715
g73
g74
ssg62
g1709
sg55
(lp1716
S'wsgi_run_once'
p1717
asbag48
(g69
g50
NtRp1718
(dp1719
g53
(dp1720
g80
g81
ssg62
g1709
sg55
(lp1721
S':'
asbag48
(g69
g50
NtRp1722
(dp1723
g53
(dp1724
sg62
g1709
sg55
(lp1725
g48
(g49
g50
NtRp1726
(dp1727
g53
(dp1728
g61
I4
ssg62
g1722
sg55
(lp1729
g91
asbasbasbag48
(g64
g50
NtRp1730
(dp1731
g53
(dp1732
sg62
g917
sg55
(lp1733
g48
(g69
g50
NtRp1734
(dp1735
g53
(dp1736
g73
g74
ssg62
g1730
sg55
(lp1737
S'wsgi_url_scheme'
p1738
asbag48
(g69
g50
NtRp1739
(dp1740
g53
(dp1741
g80
g81
ssg62
g1730
sg55
(lp1742
S':'
asbag48
(g69
g50
NtRp1743
(dp1744
g53
(dp1745
sg62
g1730
sg55
(lp1746
g48
(g49
g50
NtRp1747
(dp1748
g53
(dp1749
g61
I4
ssg62
g1743
sg55
(lp1750
S'http'
p1751
asbasbasbag48
(g64
g50
NtRp1752
(dp1753
g53
(dp1754
sg62
g917
sg55
(lp1755
g48
(g69
g50
NtRp1756
(dp1757
g53
(dp1758
g73
g74
ssg62
g1752
sg55
(lp1759
S'wsgi_version'
p1760
asbag48
(g69
g50
NtRp1761
(dp1762
g53
(dp1763
g80
g81
ssg62
g1752
sg55
(lp1764
S':'
asbag48
(g69
g50
NtRp1765
(dp1766
g53
(dp1767
sg62
g1752
sg55
(lp1768
g48
(g49
g50
NtRp1769
(dp1770
g53
(dp1771
g61
I4
ssg62
g1765
sg55
(lp1772
g48
(g57
g50
NtRp1773
(dp1774
g53
(dp1775
g61
I3
ssg62
Nsg55
(lp1776
g48
(g64
g50
NtRp1777
(dp1778
g53
(dp1779
sg62
g1773
sg55
(lp1780
g48
(g69
g50
NtRp1781
(dp1782
g53
(dp1783
sg62
g1777
sg55
(lp1784
g48
(g49
g50
NtRp1785
(dp1786
g53
(dp1787
g61
I3
ssg62
g1781
sg55
(lp1788
S'1'
asbasbasbag48
(g64
g50
NtRp1789
(dp1790
g53
(dp1791
sg62
g1773
sg55
(lp1792
g48
(g69
g50
NtRp1793
(dp1794
g53
(dp1795
sg62
g1789
sg55
(lp1796
g48
(g49
g50
NtRp1797
(dp1798
g53
(dp1799
g61
I3
ssg62
g1793
sg55
(lp1800
S'0'
asbasbasbasbasbasbasbasbasbasbasbag48
(g64
g50
NtRp1801
(dp1802
g53
(dp1803
sg62
g58
sg55
(lp1804
g48
(g69
g50
NtRp1805
(dp1806
g53
(dp1807
g73
g74
ssg62
g1801
sg55
(lp1808
S'extension'
p1809
asbag48
(g69
g50
NtRp1810
(dp1811
g53
(dp1812
g80
g81
ssg62
g1801
sg55
(lp1813
S':'
asbag48
(g69
g50
NtRp1814
(dp1815
g53
(dp1816
sg62
g1801
sg55
(lp1817
g48
(g49
g50
NtRp1818
(dp1819
g53
(dp1820
g61
I5
ssg62
g1814
sg55
(lp1821
S'html'
p1822
asbasbasbag48
(g64
g50
NtRp1823
(dp1824
g53
(dp1825
sg62
g58
sg55
(lp1826
g48
(g69
g50
NtRp1827
(dp1828
g53
(dp1829
g73
g74
ssg62
g1823
sg55
(lp1830
S'folder'
p1831
asbag48
(g69
g50
NtRp1832
(dp1833
g53
(dp1834
g80
g81
ssg62
g1823
sg55
(lp1835
S':'
asbag48
(g69
g50
NtRp1836
(dp1837
g53
(dp1838
sg62
g1823
sg55
(lp1839
g48
(g49
g50
NtRp1840
(dp1841
g53
(dp1842
g61
I5
ssg62
g1836
sg55
(lp1843
S'C:\\Users\\Atomico\\web2py\\applications\\Desglosar_Emails\\'
p1844
asbasbasbag48
(g64
g50
NtRp1845
(dp1846
g53
(dp1847
sg62
g58
sg55
(lp1848
g48
(g69
g50
NtRp1849
(dp1850
g53
(dp1851
g73
g74
ssg62
g1845
sg55
(lp1852
S'function'
p1853
asbag48
(g69
g50
NtRp1854
(dp1855
g53
(dp1856
g80
g81
ssg62
g1845
sg55
(lp1857
S':'
asbag48
(g69
g50
NtRp1858
(dp1859
g53
(dp1860
sg62
g1845
sg55
(lp1861
g48
(g49
g50
NtRp1862
(dp1863
g53
(dp1864
g61
I5
ssg62
g1858
sg55
(lp1865
S'entrada_mod1'
p1866
asbasbasbag48
(g64
g50
NtRp1867
(dp1868
g53
(dp1869
sg62
g58
sg55
(lp1870
g48
(g69
g50
NtRp1871
(dp1872
g53
(dp1873
g73
g74
ssg62
g1867
sg55
(lp1874
S'get_vars'
p1875
asbag48
(g69
g50
NtRp1876
(dp1877
g53
(dp1878
g80
g81
ssg62
g1867
sg55
(lp1879
S':'
asbag48
(g69
g50
NtRp1880
(dp1881
g53
(dp1882
sg62
g1867
sg55
(lp1883
g48
(g49
g50
NtRp1884
(dp1885
g53
(dp1886
g61
I5
ssg62
g1880
sg55
(lp1887
g48
(g57
g50
NtRp1888
(dp1889
g53
(dp1890
g61
I4
ssg62
Nsg55
(lp1891
sbasbasbasbag48
(g64
g50
NtRp1892
(dp1893
g53
(dp1894
sg62
g58
sg55
(lp1895
g48
(g69
g50
NtRp1896
(dp1897
g53
(dp1898
g73
g74
ssg62
g1892
sg55
(lp1899
S'is_https'
p1900
asbag48
(g69
g50
NtRp1901
(dp1902
g53
(dp1903
g80
g81
ssg62
g1892
sg55
(lp1904
S':'
asbag48
(g69
g50
NtRp1905
(dp1906
g53
(dp1907
sg62
g1892
sg55
(lp1908
g48
(g49
g50
NtRp1909
(dp1910
g53
(dp1911
g61
I5
ssg62
g1905
sg55
(lp1912
g91
asbasbasbag48
(g64
g50
NtRp1913
(dp1914
g53
(dp1915
sg62
g58
sg55
(lp1916
g48
(g69
g50
NtRp1917
(dp1918
g53
(dp1919
g73
g74
ssg62
g1913
sg55
(lp1920
S'is_local'
p1921
asbag48
(g69
g50
NtRp1922
(dp1923
g53
(dp1924
g80
g81
ssg62
g1913
sg55
(lp1925
S':'
asbag48
(g69
g50
NtRp1926
(dp1927
g53
(dp1928
sg62
g1913
sg55
(lp1929
g48
(g49
g50
NtRp1930
(dp1931
g53
(dp1932
g61
I5
ssg62
g1926
sg55
(lp1933
g1708
asbasbasbag48
(g64
g50
NtRp1934
(dp1935
g53
(dp1936
sg62
g58
sg55
(lp1937
g48
(g69
g50
NtRp1938
(dp1939
g53
(dp1940
g73
g74
ssg62
g1934
sg55
(lp1941
S'is_restful'
p1942
asbag48
(g69
g50
NtRp1943
(dp1944
g53
(dp1945
g80
g81
ssg62
g1934
sg55
(lp1946
S':'
asbag48
(g69
g50
NtRp1947
(dp1948
g53
(dp1949
sg62
g1934
sg55
(lp1950
g48
(g49
g50
NtRp1951
(dp1952
g53
(dp1953
g61
I5
ssg62
g1947
sg55
(lp1954
g91
asbasbasbag48
(g64
g50
NtRp1955
(dp1956
g53
(dp1957
sg62
g58
sg55
(lp1958
g48
(g69
g50
NtRp1959
(dp1960
g53
(dp1961
g73
g74
ssg62
g1955
sg55
(lp1962
S'now'
p1963
asbag48
(g69
g50
NtRp1964
(dp1965
g53
(dp1966
g80
g81
ssg62
g1955
sg55
(lp1967
S':'
asbag48
(g69
g50
NtRp1968
(dp1969
g53
(dp1970
sg62
g1955
sg55
(lp1971
g48
(g49
g50
NtRp1972
(dp1973
g53
(dp1974
g61
I5
ssg62
g1968
sg55
(lp1975
S'datetime.datetime(2011, 9, 18, 21, 19, 56, 474000)'
p1976
asbasbasbag48
(g64
g50
NtRp1977
(dp1978
g53
(dp1979
sg62
g58
sg55
(lp1980
g48
(g69
g50
NtRp1981
(dp1982
g53
(dp1983
g73
g74
ssg62
g1977
sg55
(lp1984
S'post_vars'
p1985
asbag48
(g69
g50
NtRp1986
(dp1987
g53
(dp1988
g80
g81
ssg62
g1977
sg55
(lp1989
S':'
asbag48
(g69
g50
NtRp1990
(dp1991
g53
(dp1992
sg62
g1977
sg55
(lp1993
g48
(g49
g50
NtRp1994
(dp1995
g53
(dp1996
g61
I5
ssg62
g1990
sg55
(lp1997
g48
(g57
g50
NtRp1998
(dp1999
g53
(dp2000
g61
I4
ssg62
Nsg55
(lp2001
sbasbasbasbag48
(g64
g50
NtRp2002
(dp2003
g53
(dp2004
sg62
g58
sg55
(lp2005
g48
(g69
g50
NtRp2006
(dp2007
g53
(dp2008
g73
g74
ssg62
g2002
sg55
(lp2009
S'url'
p2010
asbag48
(g69
g50
NtRp2011
(dp2012
g53
(dp2013
g80
g81
ssg62
g2002
sg55
(lp2014
S':'
asbag48
(g69
g50
NtRp2015
(dp2016
g53
(dp2017
sg62
g2002
sg55
(lp2018
g48
(g49
g50
NtRp2019
(dp2020
g53
(dp2021
g61
I5
ssg62
g2015
sg55
(lp2022
S'/Desglosar_Emails/default/entrada_mod1'
p2023
asbasbasbag48
(g64
g50
NtRp2024
(dp2025
g53
(dp2026
sg62
g58
sg55
(lp2027
g48
(g69
g50
NtRp2028
(dp2029
g53
(dp2030
g73
g74
ssg62
g2024
sg55
(lp2031
S'uuid'
p2032
asbag48
(g69
g50
NtRp2033
(dp2034
g53
(dp2035
g80
g81
ssg62
g2024
sg55
(lp2036
S':'
asbag48
(g69
g50
NtRp2037
(dp2038
g53
(dp2039
sg62
g2024
sg55
(lp2040
g48
(g49
g50
NtRp2041
(dp2042
g53
(dp2043
g61
I5
ssg62
g2037
sg55
(lp2044
S'Desglosar_Emails/127.0.0.1.2011-09-18.21-19-56.e3e649bb-619c-457f-b966-9ac600d5c878'
p2045
asbasbasbag48
(g64
g50
NtRp2046
(dp2047
g53
(dp2048
sg62
g58
sg55
(lp2049
g48
(g69
g50
NtRp2050
(dp2051
g53
(dp2052
g73
g74
ssg62
g2046
sg55
(lp2053
S'vars'
p2054
asbag48
(g69
g50
NtRp2055
(dp2056
g53
(dp2057
g80
g81
ssg62
g2046
sg55
(lp2058
S':'
asbag48
(g69
g50
NtRp2059
(dp2060
g53
(dp2061
sg62
g2046
sg55
(lp2062
g48
(g49
g50
NtRp2063
(dp2064
g53
(dp2065
g61
I5
ssg62
g2059
sg55
(lp2066
g48
(g57
g50
NtRp2067
(dp2068
g53
(dp2069
g61
I4
ssg62
Nsg55
(lp2070
sbasbasbasbag48
(g64
g50
NtRp2071
(dp2072
g53
(dp2073
sg62
g58
sg55
(lp2074
g48
(g69
g50
NtRp2075
(dp2076
g53
(dp2077
g73
g74
ssg62
g2071
sg55
(lp2078
S'wsgi'
p2079
asbag48
(g69
g50
NtRp2080
(dp2081
g53
(dp2082
g80
g81
ssg62
g2071
sg55
(lp2083
S':'
asbag48
(g69
g50
NtRp2084
(dp2085
g53
(dp2086
sg62
g2071
sg55
(lp2087
g48
(g49
g50
NtRp2088
(dp2089
g53
(dp2090
g61
I5
ssg62
g2084
sg55
(lp2091
g48
(g57
g50
NtRp2092
(dp2093
g53
(dp2094
g61
I4
ssg62
Nsg55
(lp2095
g48
(g64
g50
NtRp2096
(dp2097
g53
(dp2098
sg62
g2092
sg55
(lp2099
g48
(g69
g50
NtRp2100
(dp2101
g53
(dp2102
g73
g74
ssg62
g2096
sg55
(lp2103
S'environ'
p2104
asbag48
(g69
g50
NtRp2105
(dp2106
g53
(dp2107
g80
g81
ssg62
g2096
sg55
(lp2108
S':'
asbag48
(g69
g50
NtRp2109
(dp2110
g53
(dp2111
sg62
g2096
sg55
(lp2112
g48
(g49
g50
NtRp2113
(dp2114
g53
(dp2115
g61
I4
ssg62
g2109
sg55
(lp2116
g48
(g57
g50
NtRp2117
(dp2118
g53
(dp2119
g61
I3
ssg62
Nsg55
(lp2120
g48
(g64
g50
NtRp2121
(dp2122
g53
(dp2123
sg62
g2117
sg55
(lp2124
g48
(g69
g50
NtRp2125
(dp2126
g53
(dp2127
g73
g74
ssg62
g2121
sg55
(lp2128
S'HTTP_ACCEPT'
p2129
asbag48
(g69
g50
NtRp2130
(dp2131
g53
(dp2132
g80
g81
ssg62
g2121
sg55
(lp2133
S':'
asbag48
(g69
g50
NtRp2134
(dp2135
g53
(dp2136
sg62
g2121
sg55
(lp2137
g48
(g49
g50
NtRp2138
(dp2139
g53
(dp2140
g61
I3
ssg62
g2134
sg55
(lp2141
g1098
asbasbasbag48
(g64
g50
NtRp2142
(dp2143
g53
(dp2144
sg62
g2117
sg55
(lp2145
g48
(g69
g50
NtRp2146
(dp2147
g53
(dp2148
g73
g74
ssg62
g2142
sg55
(lp2149
S'HTTP_ACCEPT_CHARSET'
p2150
asbag48
(g69
g50
NtRp2151
(dp2152
g53
(dp2153
g80
g81
ssg62
g2142
sg55
(lp2154
S':'
asbag48
(g69
g50
NtRp2155
(dp2156
g53
(dp2157
sg62
g2142
sg55
(lp2158
g48
(g49
g50
NtRp2159
(dp2160
g53
(dp2161
g61
I3
ssg62
g2155
sg55
(lp2162
g1120
asbasbasbag48
(g64
g50
NtRp2163
(dp2164
g53
(dp2165
sg62
g2117
sg55
(lp2166
g48
(g69
g50
NtRp2167
(dp2168
g53
(dp2169
g73
g74
ssg62
g2163
sg55
(lp2170
S'HTTP_ACCEPT_ENCODING'
p2171
asbag48
(g69
g50
NtRp2172
(dp2173
g53
(dp2174
g80
g81
ssg62
g2163
sg55
(lp2175
S':'
asbag48
(g69
g50
NtRp2176
(dp2177
g53
(dp2178
sg62
g2163
sg55
(lp2179
g48
(g49
g50
NtRp2180
(dp2181
g53
(dp2182
g61
I3
ssg62
g2176
sg55
(lp2183
g1142
asbasbasbag48
(g64
g50
NtRp2184
(dp2185
g53
(dp2186
sg62
g2117
sg55
(lp2187
g48
(g69
g50
NtRp2188
(dp2189
g53
(dp2190
g73
g74
ssg62
g2184
sg55
(lp2191
S'HTTP_ACCEPT_LANGUAGE'
p2192
asbag48
(g69
g50
NtRp2193
(dp2194
g53
(dp2195
g80
g81
ssg62
g2184
sg55
(lp2196
S':'
asbag48
(g69
g50
NtRp2197
(dp2198
g53
(dp2199
sg62
g2184
sg55
(lp2200
g48
(g49
g50
NtRp2201
(dp2202
g53
(dp2203
g61
I3
ssg62
g2197
sg55
(lp2204
g1164
asbasbasbag48
(g64
g50
NtRp2205
(dp2206
g53
(dp2207
sg62
g2117
sg55
(lp2208
g48
(g69
g50
NtRp2209
(dp2210
g53
(dp2211
g73
g74
ssg62
g2205
sg55
(lp2212
S'HTTP_CACHE_CONTROL'
p2213
asbag48
(g69
g50
NtRp2214
(dp2215
g53
(dp2216
g80
g81
ssg62
g2205
sg55
(lp2217
S':'
asbag48
(g69
g50
NtRp2218
(dp2219
g53
(dp2220
sg62
g2205
sg55
(lp2221
g48
(g49
g50
NtRp2222
(dp2223
g53
(dp2224
g61
I3
ssg62
g2218
sg55
(lp2225
g1186
asbasbasbag48
(g64
g50
NtRp2226
(dp2227
g53
(dp2228
sg62
g2117
sg55
(lp2229
g48
(g69
g50
NtRp2230
(dp2231
g53
(dp2232
g73
g74
ssg62
g2226
sg55
(lp2233
S'HTTP_CONNECTION'
p2234
asbag48
(g69
g50
NtRp2235
(dp2236
g53
(dp2237
g80
g81
ssg62
g2226
sg55
(lp2238
S':'
asbag48
(g69
g50
NtRp2239
(dp2240
g53
(dp2241
sg62
g2226
sg55
(lp2242
g48
(g49
g50
NtRp2243
(dp2244
g53
(dp2245
g61
I3
ssg62
g2239
sg55
(lp2246
g1208
asbasbasbag48
(g64
g50
NtRp2247
(dp2248
g53
(dp2249
sg62
g2117
sg55
(lp2250
g48
(g69
g50
NtRp2251
(dp2252
g53
(dp2253
g73
g74
ssg62
g2247
sg55
(lp2254
S'HTTP_COOKIE'
p2255
asbag48
(g69
g50
NtRp2256
(dp2257
g53
(dp2258
g80
g81
ssg62
g2247
sg55
(lp2259
S':'
asbag48
(g69
g50
NtRp2260
(dp2261
g53
(dp2262
sg62
g2247
sg55
(lp2263
g48
(g49
g50
NtRp2264
(dp2265
g53
(dp2266
g61
I3
ssg62
g2260
sg55
(lp2267
g1230
asbasbasbag48
(g64
g50
NtRp2268
(dp2269
g53
(dp2270
sg62
g2117
sg55
(lp2271
g48
(g69
g50
NtRp2272
(dp2273
g53
(dp2274
g73
g74
ssg62
g2268
sg55
(lp2275
S'HTTP_HOST'
p2276
asbag48
(g69
g50
NtRp2277
(dp2278
g53
(dp2279
g80
g81
ssg62
g2268
sg55
(lp2280
S':'
asbag48
(g69
g50
NtRp2281
(dp2282
g53
(dp2283
sg62
g2268
sg55
(lp2284
g48
(g49
g50
NtRp2285
(dp2286
g53
(dp2287
g61
I3
ssg62
g2281
sg55
(lp2288
g1252
asbasbasbag48
(g64
g50
NtRp2289
(dp2290
g53
(dp2291
sg62
g2117
sg55
(lp2292
g48
(g69
g50
NtRp2293
(dp2294
g53
(dp2295
g73
g74
ssg62
g2289
sg55
(lp2296
S'HTTP_REFERER'
p2297
asbag48
(g69
g50
NtRp2298
(dp2299
g53
(dp2300
g80
g81
ssg62
g2289
sg55
(lp2301
S':'
asbag48
(g69
g50
NtRp2302
(dp2303
g53
(dp2304
sg62
g2289
sg55
(lp2305
g48
(g49
g50
NtRp2306
(dp2307
g53
(dp2308
g61
I3
ssg62
g2302
sg55
(lp2309
g1274
asbasbasbag48
(g64
g50
NtRp2310
(dp2311
g53
(dp2312
sg62
g2117
sg55
(lp2313
g48
(g69
g50
NtRp2314
(dp2315
g53
(dp2316
g73
g74
ssg62
g2310
sg55
(lp2317
S'HTTP_USER_AGENT'
p2318
asbag48
(g69
g50
NtRp2319
(dp2320
g53
(dp2321
g80
g81
ssg62
g2310
sg55
(lp2322
S':'
asbag48
(g69
g50
NtRp2323
(dp2324
g53
(dp2325
sg62
g2310
sg55
(lp2326
g48
(g49
g50
NtRp2327
(dp2328
g53
(dp2329
g61
I3
ssg62
g2323
sg55
(lp2330
g1296
asbasbasbag48
(g64
g50
NtRp2331
(dp2332
g53
(dp2333
sg62
g2117
sg55
(lp2334
g48
(g69
g50
NtRp2335
(dp2336
g53
(dp2337
g73
g74
ssg62
g2331
sg55
(lp2338
S'PATH_INFO'
p2339
asbag48
(g69
g50
NtRp2340
(dp2341
g53
(dp2342
g80
g81
ssg62
g2331
sg55
(lp2343
S':'
asbag48
(g69
g50
NtRp2344
(dp2345
g53
(dp2346
sg62
g2331
sg55
(lp2347
g48
(g49
g50
NtRp2348
(dp2349
g53
(dp2350
g61
I3
ssg62
g2344
sg55
(lp2351
g1339
asbasbasbag48
(g64
g50
NtRp2352
(dp2353
g53
(dp2354
sg62
g2117
sg55
(lp2355
g48
(g69
g50
NtRp2356
(dp2357
g53
(dp2358
g73
g74
ssg62
g2352
sg55
(lp2359
S'QUERY_STRING'
p2360
asbag48
(g69
g50
NtRp2361
(dp2362
g53
(dp2363
g80
g81
ssg62
g2352
sg55
(lp2364
S':'
asbag48
(g69
g50
NtRp2365
(dp2366
g53
(dp2367
sg62
g2352
sg55
(lp2368
g48
(g49
g50
NtRp2369
(dp2370
g53
(dp2371
g61
I3
ssg62
g2365
sg55
(lp2372
S''
asbasbasbag48
(g64
g50
NtRp2373
(dp2374
g53
(dp2375
sg62
g2117
sg55
(lp2376
g48
(g69
g50
NtRp2377
(dp2378
g53
(dp2379
g73
g74
ssg62
g2373
sg55
(lp2380
S'REMOTE_ADDR'
p2381
asbag48
(g69
g50
NtRp2382
(dp2383
g53
(dp2384
g80
g81
ssg62
g2373
sg55
(lp2385
S':'
asbag48
(g69
g50
NtRp2386
(dp2387
g53
(dp2388
sg62
g2373
sg55
(lp2389
g48
(g49
g50
NtRp2390
(dp2391
g53
(dp2392
g61
I3
ssg62
g2386
sg55
(lp2393
g181
asbasbasbag48
(g64
g50
NtRp2394
(dp2395
g53
(dp2396
sg62
g2117
sg55
(lp2397
g48
(g69
g50
NtRp2398
(dp2399
g53
(dp2400
g73
g74
ssg62
g2394
sg55
(lp2401
S'REMOTE_PORT'
p2402
asbag48
(g69
g50
NtRp2403
(dp2404
g53
(dp2405
g80
g81
ssg62
g2394
sg55
(lp2406
S':'
asbag48
(g69
g50
NtRp2407
(dp2408
g53
(dp2409
sg62
g2394
sg55
(lp2410
g48
(g49
g50
NtRp2411
(dp2412
g53
(dp2413
g61
I3
ssg62
g2407
sg55
(lp2414
g1403
asbasbasbag48
(g64
g50
NtRp2415
(dp2416
g53
(dp2417
sg62
g2117
sg55
(lp2418
g48
(g69
g50
NtRp2419
(dp2420
g53
(dp2421
g73
g74
ssg62
g2415
sg55
(lp2422
S'REQUEST_METHOD'
p2423
asbag48
(g69
g50
NtRp2424
(dp2425
g53
(dp2426
g80
g81
ssg62
g2415
sg55
(lp2427
S':'
asbag48
(g69
g50
NtRp2428
(dp2429
g53
(dp2430
sg62
g2415
sg55
(lp2431
g48
(g49
g50
NtRp2432
(dp2433
g53
(dp2434
g61
I3
ssg62
g2428
sg55
(lp2435
g1425
asbasbasbag48
(g64
g50
NtRp2436
(dp2437
g53
(dp2438
sg62
g2117
sg55
(lp2439
g48
(g69
g50
NtRp2440
(dp2441
g53
(dp2442
g73
g74
ssg62
g2436
sg55
(lp2443
S'SCRIPT_NAME'
p2444
asbag48
(g69
g50
NtRp2445
(dp2446
g53
(dp2447
g80
g81
ssg62
g2436
sg55
(lp2448
S':'
asbag48
(g69
g50
NtRp2449
(dp2450
g53
(dp2451
sg62
g2436
sg55
(lp2452
g48
(g49
g50
NtRp2453
(dp2454
g53
(dp2455
g61
I3
ssg62
g2449
sg55
(lp2456
S''
asbasbasbag48
(g64
g50
NtRp2457
(dp2458
g53
(dp2459
sg62
g2117
sg55
(lp2460
g48
(g69
g50
NtRp2461
(dp2462
g53
(dp2463
g73
g74
ssg62
g2457
sg55
(lp2464
S'SERVER_NAME'
p2465
asbag48
(g69
g50
NtRp2466
(dp2467
g53
(dp2468
g80
g81
ssg62
g2457
sg55
(lp2469
S':'
asbag48
(g69
g50
NtRp2470
(dp2471
g53
(dp2472
sg62
g2457
sg55
(lp2473
g48
(g49
g50
NtRp2474
(dp2475
g53
(dp2476
g61
I3
ssg62
g2470
sg55
(lp2477
g1468
asbasbasbag48
(g64
g50
NtRp2478
(dp2479
g53
(dp2480
sg62
g2117
sg55
(lp2481
g48
(g69
g50
NtRp2482
(dp2483
g53
(dp2484
g73
g74
ssg62
g2478
sg55
(lp2485
S'SERVER_PORT'
p2486
asbag48
(g69
g50
NtRp2487
(dp2488
g53
(dp2489
g80
g81
ssg62
g2478
sg55
(lp2490
S':'
asbag48
(g69
g50
NtRp2491
(dp2492
g53
(dp2493
sg62
g2478
sg55
(lp2494
g48
(g49
g50
NtRp2495
(dp2496
g53
(dp2497
g61
I3
ssg62
g2491
sg55
(lp2498
g1490
asbasbasbag48
(g64
g50
NtRp2499
(dp2500
g53
(dp2501
sg62
g2117
sg55
(lp2502
g48
(g69
g50
NtRp2503
(dp2504
g53
(dp2505
g73
g74
ssg62
g2499
sg55
(lp2506
S'SERVER_PROTOCOL'
p2507
asbag48
(g69
g50
NtRp2508
(dp2509
g53
(dp2510
g80
g81
ssg62
g2499
sg55
(lp2511
S':'
asbag48
(g69
g50
NtRp2512
(dp2513
g53
(dp2514
sg62
g2499
sg55
(lp2515
g48
(g49
g50
NtRp2516
(dp2517
g53
(dp2518
g61
I3
ssg62
g2512
sg55
(lp2519
g1512
asbasbasbag48
(g64
g50
NtRp2520
(dp2521
g53
(dp2522
sg62
g2117
sg55
(lp2523
g48
(g69
g50
NtRp2524
(dp2525
g53
(dp2526
g73
g74
ssg62
g2520
sg55
(lp2527
S'SERVER_SOFTWARE'
p2528
asbag48
(g69
g50
NtRp2529
(dp2530
g53
(dp2531
g80
g81
ssg62
g2520
sg55
(lp2532
S':'
asbag48
(g69
g50
NtRp2533
(dp2534
g53
(dp2535
sg62
g2520
sg55
(lp2536
g48
(g49
g50
NtRp2537
(dp2538
g53
(dp2539
g61
I3
ssg62
g2533
sg55
(lp2540
g1534
asbasbasbag48
(g64
g50
NtRp2541
(dp2542
g53
(dp2543
sg62
g2117
sg55
(lp2544
g48
(g69
g50
NtRp2545
(dp2546
g53
(dp2547
g73
g74
ssg62
g2541
sg55
(lp2548
S'wsgi.errors'
p2549
asbag48
(g69
g50
NtRp2550
(dp2551
g53
(dp2552
g80
g81
ssg62
g2541
sg55
(lp2553
S':'
asbag48
(g69
g50
NtRp2554
(dp2555
g53
(dp2556
sg62
g2541
sg55
(lp2557
g48
(g49
g50
NtRp2558
(dp2559
g53
(dp2560
g61
I3
ssg62
g2554
sg55
(lp2561
S"<open file '<stderr>', mode 'w' at 0x01EF00B0>"
p2562
asbasbasbag48
(g64
g50
NtRp2563
(dp2564
g53
(dp2565
sg62
g2117
sg55
(lp2566
g48
(g69
g50
NtRp2567
(dp2568
g53
(dp2569
g73
g74
ssg62
g2563
sg55
(lp2570
S'wsgi.file_wrapper'
p2571
asbag48
(g69
g50
NtRp2572
(dp2573
g53
(dp2574
g80
g81
ssg62
g2563
sg55
(lp2575
S':'
asbag48
(g69
g50
NtRp2576
(dp2577
g53
(dp2578
sg62
g2563
sg55
(lp2579
g48
(g49
g50
NtRp2580
(dp2581
g53
(dp2582
g61
I3
ssg62
g2576
sg55
(lp2583
S'<class gluon.rocket.FileWrapper at 0x0308C1B0>'
p2584
asbasbasbag48
(g64
g50
NtRp2585
(dp2586
g53
(dp2587
sg62
g2117
sg55
(lp2588
g48
(g69
g50
NtRp2589
(dp2590
g53
(dp2591
g73
g74
ssg62
g2585
sg55
(lp2592
S'wsgi.input'
p2593
asbag48
(g69
g50
NtRp2594
(dp2595
g53
(dp2596
g80
g81
ssg62
g2585
sg55
(lp2597
S':'
asbag48
(g69
g50
NtRp2598
(dp2599
g53
(dp2600
sg62
g2585
sg55
(lp2601
g48
(g49
g50
NtRp2602
(dp2603
g53
(dp2604
g61
I3
ssg62
g2598
sg55
(lp2605
S'<cStringIO.StringO object at 0x07B292E0>'
p2606
asbasbasbag48
(g64
g50
NtRp2607
(dp2608
g53
(dp2609
sg62
g2117
sg55
(lp2610
g48
(g69
g50
NtRp2611
(dp2612
g53
(dp2613
g73
g74
ssg62
g2607
sg55
(lp2614
S'wsgi.multiprocess'
p2615
asbag48
(g69
g50
NtRp2616
(dp2617
g53
(dp2618
g80
g81
ssg62
g2607
sg55
(lp2619
S':'
asbag48
(g69
g50
NtRp2620
(dp2621
g53
(dp2622
sg62
g2607
sg55
(lp2623
g48
(g49
g50
NtRp2624
(dp2625
g53
(dp2626
g61
I3
ssg62
g2620
sg55
(lp2627
g91
asbasbasbag48
(g64
g50
NtRp2628
(dp2629
g53
(dp2630
sg62
g2117
sg55
(lp2631
g48
(g69
g50
NtRp2632
(dp2633
g53
(dp2634
g73
g74
ssg62
g2628
sg55
(lp2635
S'wsgi.multithread'
p2636
asbag48
(g69
g50
NtRp2637
(dp2638
g53
(dp2639
g80
g81
ssg62
g2628
sg55
(lp2640
S':'
asbag48
(g69
g50
NtRp2641
(dp2642
g53
(dp2643
sg62
g2628
sg55
(lp2644
g48
(g49
g50
NtRp2645
(dp2646
g53
(dp2647
g61
I3
ssg62
g2641
sg55
(lp2648
g1708
asbasbasbag48
(g64
g50
NtRp2649
(dp2650
g53
(dp2651
sg62
g2117
sg55
(lp2652
g48
(g69
g50
NtRp2653
(dp2654
g53
(dp2655
g73
g74
ssg62
g2649
sg55
(lp2656
S'wsgi.run_once'
p2657
asbag48
(g69
g50
NtRp2658
(dp2659
g53
(dp2660
g80
g81
ssg62
g2649
sg55
(lp2661
S':'
asbag48
(g69
g50
NtRp2662
(dp2663
g53
(dp2664
sg62
g2649
sg55
(lp2665
g48
(g49
g50
NtRp2666
(dp2667
g53
(dp2668
g61
I3
ssg62
g2662
sg55
(lp2669
g91
asbasbasbag48
(g64
g50
NtRp2670
(dp2671
g53
(dp2672
sg62
g2117
sg55
(lp2673
g48
(g69
g50
NtRp2674
(dp2675
g53
(dp2676
g73
g74
ssg62
g2670
sg55
(lp2677
S'wsgi.url_scheme'
p2678
asbag48
(g69
g50
NtRp2679
(dp2680
g53
(dp2681
g80
g81
ssg62
g2670
sg55
(lp2682
S':'
asbag48
(g69
g50
NtRp2683
(dp2684
g53
(dp2685
sg62
g2670
sg55
(lp2686
g48
(g49
g50
NtRp2687
(dp2688
g53
(dp2689
g61
I3
ssg62
g2683
sg55
(lp2690
g1751
asbasbasbag48
(g64
g50
NtRp2691
(dp2692
g53
(dp2693
sg62
g2117
sg55
(lp2694
g48
(g69
g50
NtRp2695
(dp2696
g53
(dp2697
g73
g74
ssg62
g2691
sg55
(lp2698
S'wsgi.version'
p2699
asbag48
(g69
g50
NtRp2700
(dp2701
g53
(dp2702
g80
g81
ssg62
g2691
sg55
(lp2703
S':'
asbag48
(g69
g50
NtRp2704
(dp2705
g53
(dp2706
sg62
g2691
sg55
(lp2707
g48
(g49
g50
NtRp2708
(dp2709
g53
(dp2710
g61
I3
ssg62
g2704
sg55
(lp2711
S'1'
asbasbasbasbasbasbasbasbasbasbasbasbasbsS'frames'
p2712
(lp2713
(dp2714
S'file'
p2715
S'C:\\Users\\Atomico\\web2py\\gluon\\restricted.py'
p2716
sS'dump'
p2717
(dp2718
sS'lnum'
p2719
I192
sS'lines'
p2720
(dp2721
sS'call'
p2722
S"(code='def entrada():\\n    form=SQLFORM(db.info)\\n    if ...m\\n\\nresponse._vars=response._caller(entrada_mod1)\\n', environment={'A': <class 'gluon.html.A'>, 'B': <class 'gluon.html.B'>, 'BEAUTIFY': <class 'gluon.html.BEAUTIFY'>, 'BODY': <class 'gluon.html.BODY'>, 'BR': <class 'gluon.html.BR'>, 'BUTTON': <class 'gluon.html.BUTTON'>, 'CAT': <class 'gluon.html.CAT'>, 'CENTER': <class 'gluon.html.CENTER'>, 'CLEANUP': <class 'gluon.validators.CLEANUP'>, 'CODE': <class 'gluon.html.CODE'>, ...}, layer=r'C:\\Users\\Atomico\\web2py\\applications\\Desglosar_Emails\\controllers/default.py')"
p2723
sS'func'
p2724
S'restricted'
p2725
sa(dp2726
g2715
S'C:\\Users\\Atomico\\web2py\\applications\\Desglosar_Emails\\controllers\\default.py'
p2727
sg2717
(dp2728
sg2719
I43
sg2720
(dp2729
I32
S"    response.write('. La len(txt) es de '+str(len(txt))+' y la i se ha quedado en '+str(i))"
p2730
sI33
S''
sI34
S'    return dict(form=form)'
p2731
sI35
S''
sI36
S'def entrada_mod1():'
p2732
sI37
S'    form=SQLFORM(db.info2)'
p2733
sI38
S'    if form.accepts(request.vars,session): pass'
p2734
sI39
S'    pepe=db.info2.texto'
p2735
sI40
S'    response.write(len(pepe))'
p2736
sI41
S'    return form'
p2737
ssg2722
S'()'
p2738
sg2724
S'<module>'
p2739
sa(dp2740
g2715
S'C:\\Users\\Atomico\\web2py\\gluon\\globals.py'
p2741
sg2717
(dp2742
sg2719
I145
sg2720
(dp2743
sg2722
S'(f=<function entrada_mod1 at 0x07C5A3F0>)'
p2744
sg2724
S'<lambda>'
p2745
sa(dp2746
g2715
S'C:\\Users\\Atomico\\web2py\\applications\\Desglosar_Emails\\controllers\\default.py'
p2747
sg2717
(dp2748
sg2719
I40
sg2720
(dp2749
I32
S"    response.write('. La len(txt) es de '+str(len(txt))+' y la i se ha quedado en '+str(i))"
p2750
sI33
S''
sI34
S'    return dict(form=form)'
p2751
sI35
S''
sI36
S'def entrada_mod1():'
p2752
sI37
S'    form=SQLFORM(db.info2)'
p2753
sI38
S'    if form.accepts(request.vars,session): pass'
p2754
sI39
S'    pepe=db.info2.texto'
p2755
sI40
S'    response.write(len(pepe))'
p2756
sI41
S'    return form'
p2757
ssg2722
S'()'
p2758
sg2724
S'entrada_mod1'
p2759
sasS'pyver'
p2760
S'Python 2.5.4: C:\\Users\\Atomico\\web2py\\web2py.exe'
p2761
sS'session'
p2762
g48
(g49
g50
NtRp2763
(dp2764
g53
(dp2765
sg55
(lp2766
g48
(g57
g50
NtRp2767
(dp2768
g53
(dp2769
g61
I5
ssg62
Nsg55
(lp2770
g48
(g64
g50
NtRp2771
(dp2772
g53
(dp2773
sg62
g2767
sg55
(lp2774
g48
(g69
g50
NtRp2775
(dp2776
g53
(dp2777
g73
g74
ssg62
g2771
sg55
(lp2778
S'last_query'
p2779
asbag48
(g69
g50
NtRp2780
(dp2781
g53
(dp2782
g80
g81
ssg62
g2771
sg55
(lp2783
S':'
asbag48
(g69
g50
NtRp2784
(dp2785
g53
(dp2786
sg62
g2771
sg55
(lp2787
g48
(g49
g50
NtRp2788
(dp2789
g53
(dp2790
g61
I5
ssg62
g2784
sg55
(lp2791
S'db.info2.id>0'
p2792
asbasbasbasbasbsS'etype'
p2793
S"<type 'exceptions.TypeError'>"
p2794
sS'date'
p2795
S'Sun Sep 18 21:19:56 2011'
p2796
sS'response'
p2797
g48
(g49
g50
NtRp2798
(dp2799
g53
(dp2800
sg55
(lp2801
g48
(g57
g50
NtRp2802
(dp2803
g53
(dp2804
g61
I5
ssg62
Nsg55
(lp2805
g48
(g64
g50
NtRp2806
(dp2807
g53
(dp2808
sg62
g2802
sg55
(lp2809
g48
(g69
g50
NtRp2810
(dp2811
g53
(dp2812
g73
g74
ssg62
g2806
sg55
(lp2813
g146
asbag48
(g69
g50
NtRp2814
(dp2815
g53
(dp2816
g80
g81
ssg62
g2806
sg55
(lp2817
S':'
asbag48
(g69
g50
NtRp2818
(dp2819
g53
(dp2820
sg62
g2806
sg55
(lp2821
g48
(g49
g50
NtRp2822
(dp2823
g53
(dp2824
g61
I5
ssg62
g2818
sg55
(lp2825
S'<cStringIO.StringO object at 0x07B29580>'
p2826
asbasbasbag48
(g64
g50
NtRp2827
(dp2828
g53
(dp2829
sg62
g2802
sg55
(lp2830
g48
(g69
g50
NtRp2831
(dp2832
g53
(dp2833
g73
g74
ssg62
g2827
sg55
(lp2834
g212
asbag48
(g69
g50
NtRp2835
(dp2836
g53
(dp2837
g80
g81
ssg62
g2827
sg55
(lp2838
S':'
asbag48
(g69
g50
NtRp2839
(dp2840
g53
(dp2841
sg62
g2827
sg55
(lp2842
g48
(g49
g50
NtRp2843
(dp2844
g53
(dp2845
g61
I5
ssg62
g2839
sg55
(lp2846
g48
(g57
g50
NtRp2847
(dp2848
g53
(dp2849
g61
I4
ssg62
Nsg55
(lp2850
g48
(g64
g50
NtRp2851
(dp2852
g53
(dp2853
sg62
g2847
sg55
(lp2854
g48
(g69
g50
NtRp2855
(dp2856
g53
(dp2857
g73
g74
ssg62
g2851
sg55
(lp2858
S'session_id_desglosar_emails'
p2859
asbag48
(g69
g50
NtRp2860
(dp2861
g53
(dp2862
g80
g81
ssg62
g2851
sg55
(lp2863
S':'
asbag48
(g69
g50
NtRp2864
(dp2865
g53
(dp2866
sg62
g2851
sg55
(lp2867
g48
(g49
g50
NtRp2868
(dp2869
g53
(dp2870
g61
I4
ssg62
g2864
sg55
(lp2871
g48
(g57
g50
NtRp2872
(dp2873
g53
(dp2874
g61
I3
ssg62
Nsg55
(lp2875
g48
(g64
g50
NtRp2876
(dp2877
g53
(dp2878
sg62
g2872
sg55
(lp2879
g48
(g69
g50
NtRp2880
(dp2881
g53
(dp2882
g73
g74
ssg62
g2876
sg55
(lp2883
g262
asbag48
(g69
g50
NtRp2884
(dp2885
g53
(dp2886
g80
g81
ssg62
g2876
sg55
(lp2887
S':'
asbag48
(g69
g50
NtRp2888
(dp2889
g53
(dp2890
sg62
g2876
sg55
(lp2891
g48
(g49
g50
NtRp2892
(dp2893
g53
(dp2894
g61
I3
ssg62
g2888
sg55
(lp2895
S''
asbasbasbag48
(g64
g50
NtRp2896
(dp2897
g53
(dp2898
sg62
g2872
sg55
(lp2899
g48
(g69
g50
NtRp2900
(dp2901
g53
(dp2902
g73
g74
ssg62
g2896
sg55
(lp2903
g283
asbag48
(g69
g50
NtRp2904
(dp2905
g53
(dp2906
g80
g81
ssg62
g2896
sg55
(lp2907
S':'
asbag48
(g69
g50
NtRp2908
(dp2909
g53
(dp2910
sg62
g2896
sg55
(lp2911
g48
(g49
g50
NtRp2912
(dp2913
g53
(dp2914
g61
I3
ssg62
g2908
sg55
(lp2915
S''
asbasbasbag48
(g64
g50
NtRp2916
(dp2917
g53
(dp2918
sg62
g2872
sg55
(lp2919
g48
(g69
g50
NtRp2920
(dp2921
g53
(dp2922
g73
g74
ssg62
g2916
sg55
(lp2923
g304
asbag48
(g69
g50
NtRp2924
(dp2925
g53
(dp2926
g80
g81
ssg62
g2916
sg55
(lp2927
S':'
asbag48
(g69
g50
NtRp2928
(dp2929
g53
(dp2930
sg62
g2916
sg55
(lp2931
g48
(g49
g50
NtRp2932
(dp2933
g53
(dp2934
g61
I3
ssg62
g2928
sg55
(lp2935
S''
asbasbasbag48
(g64
g50
NtRp2936
(dp2937
g53
(dp2938
sg62
g2872
sg55
(lp2939
g48
(g69
g50
NtRp2940
(dp2941
g53
(dp2942
g73
g74
ssg62
g2936
sg55
(lp2943
g325
asbag48
(g69
g50
NtRp2944
(dp2945
g53
(dp2946
g80
g81
ssg62
g2936
sg55
(lp2947
S':'
asbag48
(g69
g50
NtRp2948
(dp2949
g53
(dp2950
sg62
g2936
sg55
(lp2951
g48
(g49
g50
NtRp2952
(dp2953
g53
(dp2954
g61
I3
ssg62
g2948
sg55
(lp2955
S''
asbasbasbag48
(g64
g50
NtRp2956
(dp2957
g53
(dp2958
sg62
g2872
sg55
(lp2959
g48
(g69
g50
NtRp2960
(dp2961
g53
(dp2962
g73
g74
ssg62
g2956
sg55
(lp2963
g346
asbag48
(g69
g50
NtRp2964
(dp2965
g53
(dp2966
g80
g81
ssg62
g2956
sg55
(lp2967
S':'
asbag48
(g69
g50
NtRp2968
(dp2969
g53
(dp2970
sg62
g2956
sg55
(lp2971
g48
(g49
g50
NtRp2972
(dp2973
g53
(dp2974
g61
I3
ssg62
g2968
sg55
(lp2975
S'/'
asbasbasbag48
(g64
g50
NtRp2976
(dp2977
g53
(dp2978
sg62
g2872
sg55
(lp2979
g48
(g69
g50
NtRp2980
(dp2981
g53
(dp2982
g73
g74
ssg62
g2976
sg55
(lp2983
g367
asbag48
(g69
g50
NtRp2984
(dp2985
g53
(dp2986
g80
g81
ssg62
g2976
sg55
(lp2987
S':'
asbag48
(g69
g50
NtRp2988
(dp2989
g53
(dp2990
sg62
g2976
sg55
(lp2991
g48
(g49
g50
NtRp2992
(dp2993
g53
(dp2994
g61
I3
ssg62
g2988
sg55
(lp2995
S''
asbasbasbag48
(g64
g50
NtRp2996
(dp2997
g53
(dp2998
sg62
g2872
sg55
(lp2999
g48
(g69
g50
NtRp3000
(dp3001
g53
(dp3002
g73
g74
ssg62
g2996
sg55
(lp3003
g388
asbag48
(g69
g50
NtRp3004
(dp3005
g53
(dp3006
g80
g81
ssg62
g2996
sg55
(lp3007
S':'
asbag48
(g69
g50
NtRp3008
(dp3009
g53
(dp3010
sg62
g2996
sg55
(lp3011
g48
(g49
g50
NtRp3012
(dp3013
g53
(dp3014
g61
I3
ssg62
g3008
sg55
(lp3015
S''
asbasbasbasbasbasbasbasbasbasbasbag48
(g64
g50
NtRp3016
(dp3017
g53
(dp3018
sg62
g2802
sg55
(lp3019
g48
(g69
g50
NtRp3020
(dp3021
g53
(dp3022
g73
g74
ssg62
g3016
sg55
(lp3023
S'files'
p3024
asbag48
(g69
g50
NtRp3025
(dp3026
g53
(dp3027
g80
g81
ssg62
g3016
sg55
(lp3028
S':'
asbag48
(g69
g50
NtRp3029
(dp3030
g53
(dp3031
sg62
g3016
sg55
(lp3032
g48
(g49
g50
NtRp3033
(dp3034
g53
(dp3035
g61
I5
ssg62
g3029
sg55
(lp3036
g48
(g57
g50
NtRp3037
(dp3038
g53
(dp3039
g61
I4
ssg62
Nsg55
(lp3040
sbasbasbasbag48
(g64
g50
NtRp3041
(dp3042
g53
(dp3043
sg62
g2802
sg55
(lp3044
g48
(g69
g50
NtRp3045
(dp3046
g53
(dp3047
g73
g74
ssg62
g3041
sg55
(lp3048
S'flash'
p3049
asbag48
(g69
g50
NtRp3050
(dp3051
g53
(dp3052
g80
g81
ssg62
g3041
sg55
(lp3053
S':'
asbag48
(g69
g50
NtRp3054
(dp3055
g53
(dp3056
sg62
g3041
sg55
(lp3057
g48
(g49
g50
NtRp3058
(dp3059
g53
(dp3060
g61
I5
ssg62
g3054
sg55
(lp3061
S''
asbasbasbag48
(g64
g50
NtRp3062
(dp3063
g53
(dp3064
sg62
g2802
sg55
(lp3065
g48
(g69
g50
NtRp3066
(dp3067
g53
(dp3068
g73
g74
ssg62
g3062
sg55
(lp3069
S'generic_patterns'
p3070
asbag48
(g69
g50
NtRp3071
(dp3072
g53
(dp3073
g80
g81
ssg62
g3062
sg55
(lp3074
S':'
asbag48
(g69
g50
NtRp3075
(dp3076
g53
(dp3077
sg62
g3062
sg55
(lp3078
g48
(g49
g50
NtRp3079
(dp3080
g53
(dp3081
g61
I5
ssg62
g3075
sg55
(lp3082
g48
(g57
g50
NtRp3083
(dp3084
g53
(dp3085
g61
I4
ssg62
Nsg55
(lp3086
sbasbasbasbag48
(g64
g50
NtRp3087
(dp3088
g53
(dp3089
sg62
g2802
sg55
(lp3090
g48
(g69
g50
NtRp3091
(dp3092
g53
(dp3093
g73
g74
ssg62
g3087
sg55
(lp3094
S'headers'
p3095
asbag48
(g69
g50
NtRp3096
(dp3097
g53
(dp3098
g80
g81
ssg62
g3087
sg55
(lp3099
S':'
asbag48
(g69
g50
NtRp3100
(dp3101
g53
(dp3102
sg62
g3087
sg55
(lp3103
g48
(g49
g50
NtRp3104
(dp3105
g53
(dp3106
g61
I5
ssg62
g3100
sg55
(lp3107
g48
(g57
g50
NtRp3108
(dp3109
g53
(dp3110
g61
I4
ssg62
Nsg55
(lp3111
g48
(g64
g50
NtRp3112
(dp3113
g53
(dp3114
sg62
g3108
sg55
(lp3115
g48
(g69
g50
NtRp3116
(dp3117
g53
(dp3118
g73
g74
ssg62
g3112
sg55
(lp3119
S'Cache-Control'
p3120
asbag48
(g69
g50
NtRp3121
(dp3122
g53
(dp3123
g80
g81
ssg62
g3112
sg55
(lp3124
S':'
asbag48
(g69
g50
NtRp3125
(dp3126
g53
(dp3127
sg62
g3112
sg55
(lp3128
g48
(g49
g50
NtRp3129
(dp3130
g53
(dp3131
g61
I4
ssg62
g3125
sg55
(lp3132
S'no-store, no-cache, must-revalidate, post-check=0, pre-check=0'
p3133
asbasbasbag48
(g64
g50
NtRp3134
(dp3135
g53
(dp3136
sg62
g3108
sg55
(lp3137
g48
(g69
g50
NtRp3138
(dp3139
g53
(dp3140
g73
g74
ssg62
g3134
sg55
(lp3141
S'Content-Type'
p3142
asbag48
(g69
g50
NtRp3143
(dp3144
g53
(dp3145
g80
g81
ssg62
g3134
sg55
(lp3146
S':'
asbag48
(g69
g50
NtRp3147
(dp3148
g53
(dp3149
sg62
g3134
sg55
(lp3150
g48
(g49
g50
NtRp3151
(dp3152
g53
(dp3153
g61
I4
ssg62
g3147
sg55
(lp3154
S'text/html; charset=utf-8'
p3155
asbasbasbag48
(g64
g50
NtRp3156
(dp3157
g53
(dp3158
sg62
g3108
sg55
(lp3159
g48
(g69
g50
NtRp3160
(dp3161
g53
(dp3162
g73
g74
ssg62
g3156
sg55
(lp3163
S'Expires'
p3164
asbag48
(g69
g50
NtRp3165
(dp3166
g53
(dp3167
g80
g81
ssg62
g3156
sg55
(lp3168
S':'
asbag48
(g69
g50
NtRp3169
(dp3170
g53
(dp3171
sg62
g3156
sg55
(lp3172
g48
(g49
g50
NtRp3173
(dp3174
g53
(dp3175
g61
I4
ssg62
g3169
sg55
(lp3176
S'Sun, 18 Sep 2011 19:19:56 GMT'
p3177
asbasbasbag48
(g64
g50
NtRp3178
(dp3179
g53
(dp3180
sg62
g3108
sg55
(lp3181
g48
(g69
g50
NtRp3182
(dp3183
g53
(dp3184
g73
g74
ssg62
g3178
sg55
(lp3185
S'Pragma'
p3186
asbag48
(g69
g50
NtRp3187
(dp3188
g53
(dp3189
g80
g81
ssg62
g3178
sg55
(lp3190
S':'
asbag48
(g69
g50
NtRp3191
(dp3192
g53
(dp3193
sg62
g3178
sg55
(lp3194
g48
(g49
g50
NtRp3195
(dp3196
g53
(dp3197
g61
I4
ssg62
g3191
sg55
(lp3198
S'no-cache'
p3199
asbasbasbag48
(g64
g50
NtRp3200
(dp3201
g53
(dp3202
sg62
g3108
sg55
(lp3203
g48
(g69
g50
NtRp3204
(dp3205
g53
(dp3206
g73
g74
ssg62
g3200
sg55
(lp3207
S'X-Powered-By'
p3208
asbag48
(g69
g50
NtRp3209
(dp3210
g53
(dp3211
g80
g81
ssg62
g3200
sg55
(lp3212
S':'
asbag48
(g69
g50
NtRp3213
(dp3214
g53
(dp3215
sg62
g3200
sg55
(lp3216
g48
(g49
g50
NtRp3217
(dp3218
g53
(dp3219
g61
I4
ssg62
g3213
sg55
(lp3220
S'web2py'
p3221
asbasbasbasbasbasbasbag48
(g64
g50
NtRp3222
(dp3223
g53
(dp3224
sg62
g2802
sg55
(lp3225
g48
(g69
g50
NtRp3226
(dp3227
g53
(dp3228
g73
g74
ssg62
g3222
sg55
(lp3229
S'menu'
p3230
asbag48
(g69
g50
NtRp3231
(dp3232
g53
(dp3233
g80
g81
ssg62
g3222
sg55
(lp3234
S':'
asbag48
(g69
g50
NtRp3235
(dp3236
g53
(dp3237
sg62
g3222
sg55
(lp3238
g48
(g49
g50
NtRp3239
(dp3240
g53
(dp3241
g61
I5
ssg62
g3235
sg55
(lp3242
g48
(g57
g50
NtRp3243
(dp3244
g53
(dp3245
g61
I4
ssg62
Nsg55
(lp3246
g48
(g64
g50
NtRp3247
(dp3248
g53
(dp3249
sg62
g3243
sg55
(lp3250
g48
(g69
g50
NtRp3251
(dp3252
g53
(dp3253
sg62
g3247
sg55
(lp3254
g48
(g49
g50
NtRp3255
(dp3256
g53
(dp3257
g61
I4
ssg62
g3251
sg55
(lp3258
g48
(g57
g50
NtRp3259
(dp3260
g53
(dp3261
g61
I3
ssg62
Nsg55
(lp3262
g48
(g64
g50
NtRp3263
(dp3264
g53
(dp3265
sg62
g3259
sg55
(lp3266
g48
(g69
g50
NtRp3267
(dp3268
g53
(dp3269
sg62
g3263
sg55
(lp3270
g48
(g49
g50
NtRp3271
(dp3272
g53
(dp3273
g61
I3
ssg62
g3267
sg55
(lp3274
cgluon.languages
lazyT_unpickle
p3275
(S't\x04\x00\x00\x00Home'
tRp3276
asbasbasbag48
(g64
g50
NtRp3277
(dp3278
g53
(dp3279
sg62
g3259
sg55
(lp3280
g48
(g69
g50
NtRp3281
(dp3282
g53
(dp3283
sg62
g3277
sg55
(lp3284
g48
(g49
g50
NtRp3285
(dp3286
g53
(dp3287
g61
I3
ssg62
g3281
sg55
(lp3288
g91
asbasbasbag48
(g64
g50
NtRp3289
(dp3290
g53
(dp3291
sg62
g3259
sg55
(lp3292
g48
(g69
g50
NtRp3293
(dp3294
g53
(dp3295
sg62
g3289
sg55
(lp3296
g48
(g49
g50
NtRp3297
(dp3298
g53
(dp3299
g61
I3
ssg62
g3293
sg55
(lp3300
S'/Desglosar_Emails/default/index'
p3301
asbasbasbag48
(g64
g50
NtRp3302
(dp3303
g53
(dp3304
sg62
g3259
sg55
(lp3305
g48
(g69
g50
NtRp3306
(dp3307
g53
(dp3308
sg62
g3302
sg55
(lp3309
g48
(g49
g50
NtRp3310
(dp3311
g53
(dp3312
g61
I3
ssg62
g3306
sg55
(lp3313
g48
(g57
g50
NtRp3314
(dp3315
g53
(dp3316
g61
I2
ssg62
Nsg55
(lp3317
sbasbasbasbasbasbasbasbag48
(g64
g50
NtRp3318
(dp3319
g53
(dp3320
sg62
g3243
sg55
(lp3321
g48
(g69
g50
NtRp3322
(dp3323
g53
(dp3324
sg62
g3318
sg55
(lp3325
g48
(g49
g50
NtRp3326
(dp3327
g53
(dp3328
g61
I4
ssg62
g3322
sg55
(lp3329
g48
(g57
g50
NtRp3330
(dp3331
g53
(dp3332
g61
I3
ssg62
Nsg55
(lp3333
g48
(g64
g50
NtRp3334
(dp3335
g53
(dp3336
sg62
g3330
sg55
(lp3337
g48
(g69
g50
NtRp3338
(dp3339
g53
(dp3340
sg62
g3334
sg55
(lp3341
g48
(g49
g50
NtRp3342
(dp3343
g53
(dp3344
g61
I3
ssg62
g3338
sg55
(lp3345
g3275
(S's\x08\x00\x00\x00This App'
tRp3346
asbasbasbag48
(g64
g50
NtRp3347
(dp3348
g53
(dp3349
sg62
g3330
sg55
(lp3350
g48
(g69
g50
NtRp3351
(dp3352
g53
(dp3353
sg62
g3347
sg55
(lp3354
g48
(g49
g50
NtRp3355
(dp3356
g53
(dp3357
g61
I3
ssg62
g3351
sg55
(lp3358
g91
asbasbasbag48
(g64
g50
NtRp3359
(dp3360
g53
(dp3361
sg62
g3330
sg55
(lp3362
g48
(g69
g50
NtRp3363
(dp3364
g53
(dp3365
sg62
g3359
sg55
(lp3366
g48
(g49
g50
NtRp3367
(dp3368
g53
(dp3369
g61
I3
ssg62
g3363
sg55
(lp3370
S'/admin/default/design/Desglosar_Emails'
p3371
asbasbasbag48
(g64
g50
NtRp3372
(dp3373
g53
(dp3374
sg62
g3330
sg55
(lp3375
g48
(g69
g50
NtRp3376
(dp3377
g53
(dp3378
sg62
g3372
sg55
(lp3379
g48
(g49
g50
NtRp3380
(dp3381
g53
(dp3382
g61
I3
ssg62
g3376
sg55
(lp3383
g48
(g57
g50
NtRp3384
(dp3385
g53
(dp3386
g61
I2
ssg62
Nsg55
(lp3387
g48
(g64
g50
NtRp3388
(dp3389
g53
(dp3390
sg62
g3384
sg55
(lp3391
g48
(g69
g50
NtRp3392
(dp3393
g53
(dp3394
sg62
g3388
sg55
(lp3395
g48
(g49
g50
NtRp3396
(dp3397
g53
(dp3398
g61
I2
ssg62
g3392
sg55
(lp3399
g48
(g57
g50
NtRp3400
(dp3401
g53
(dp3402
g61
I1
ssg62
Nsg55
(lp3403
g48
(g64
g50
NtRp3404
(dp3405
g53
(dp3406
sg62
g3400
sg55
(lp3407
g48
(g69
g50
NtRp3408
(dp3409
g53
(dp3410
sg62
g3404
sg55
(lp3411
g48
(g49
g50
NtRp3412
(dp3413
g53
(dp3414
g61
I1
ssg62
g3408
sg55
(lp3415
g3275
(S't\x0b\x00\x00\x00Controlador'
tRp3416
asbasbasbag48
(g64
g50
NtRp3417
(dp3418
g53
(dp3419
sg62
g3400
sg55
(lp3420
g48
(g69
g50
NtRp3421
(dp3422
g53
(dp3423
sg62
g3417
sg55
(lp3424
g48
(g49
g50
NtRp3425
(dp3426
g53
(dp3427
g61
I1
ssg62
g3421
sg55
(lp3428
I00
asbasbasbag48
(g64
g50
NtRp3429
(dp3430
g53
(dp3431
sg62
g3400
sg55
(lp3432
g48
(g69
g50
NtRp3433
(dp3434
g53
(dp3435
sg62
g3429
sg55
(lp3436
g48
(g49
g50
NtRp3437
(dp3438
g53
(dp3439
g61
I1
ssg62
g3433
sg55
(lp3440
S'/admin/default/edit/Desglosar_Emails/controllers/default.py'
p3441
asbasbasbasbasbasbasbag48
(g64
g50
NtRp3442
(dp3443
g53
(dp3444
sg62
g3384
sg55
(lp3445
g48
(g69
g50
NtRp3446
(dp3447
g53
(dp3448
sg62
g3442
sg55
(lp3449
g48
(g49
g50
NtRp3450
(dp3451
g53
(dp3452
g61
I2
ssg62
g3446
sg55
(lp3453
g48
(g57
g50
NtRp3454
(dp3455
g53
(dp3456
g61
I1
ssg62
Nsg55
(lp3457
g48
(g64
g50
NtRp3458
(dp3459
g53
(dp3460
sg62
g3454
sg55
(lp3461
g48
(g69
g50
NtRp3462
(dp3463
g53
(dp3464
sg62
g3458
sg55
(lp3465
g48
(g49
g50
NtRp3466
(dp3467
g53
(dp3468
g61
I1
ssg62
g3462
sg55
(lp3469
g3275
(S't\x05\x00\x00\x00Vista'
tRp3470
asbasbasbag48
(g64
g50
NtRp3471
(dp3472
g53
(dp3473
sg62
g3454
sg55
(lp3474
g48
(g69
g50
NtRp3475
(dp3476
g53
(dp3477
sg62
g3471
sg55
(lp3478
g48
(g49
g50
NtRp3479
(dp3480
g53
(dp3481
g61
I1
ssg62
g3475
sg55
(lp3482
I00
asbasbasbag48
(g64
g50
NtRp3483
(dp3484
g53
(dp3485
sg62
g3454
sg55
(lp3486
g48
(g69
g50
NtRp3487
(dp3488
g53
(dp3489
sg62
g3483
sg55
(lp3490
g48
(g49
g50
NtRp3491
(dp3492
g53
(dp3493
g61
I1
ssg62
g3487
sg55
(lp3494
S'/admin/default/edit/Desglosar_Emails/views/default/entrada_mod1.html'
p3495
asbasbasbasbasbasbasbag48
(g64
g50
NtRp3496
(dp3497
g53
(dp3498
sg62
g3384
sg55
(lp3499
g48
(g69
g50
NtRp3500
(dp3501
g53
(dp3502
sg62
g3496
sg55
(lp3503
g48
(g49
g50
NtRp3504
(dp3505
g53
(dp3506
g61
I2
ssg62
g3500
sg55
(lp3507
g48
(g57
g50
NtRp3508
(dp3509
g53
(dp3510
g61
I1
ssg62
Nsg55
(lp3511
g48
(g64
g50
NtRp3512
(dp3513
g53
(dp3514
sg62
g3508
sg55
(lp3515
g48
(g69
g50
NtRp3516
(dp3517
g53
(dp3518
sg62
g3512
sg55
(lp3519
g48
(g49
g50
NtRp3520
(dp3521
g53
(dp3522
g61
I1
ssg62
g3516
sg55
(lp3523
g3275
(S's\x12\x00\x00\x00Dise\xc3\xb1o de p\xc3\xa1gina'
tRp3524
asbasbasbag48
(g64
g50
NtRp3525
(dp3526
g53
(dp3527
sg62
g3508
sg55
(lp3528
g48
(g69
g50
NtRp3529
(dp3530
g53
(dp3531
sg62
g3525
sg55
(lp3532
g48
(g49
g50
NtRp3533
(dp3534
g53
(dp3535
g61
I1
ssg62
g3529
sg55
(lp3536
I00
asbasbasbag48
(g64
g50
NtRp3537
(dp3538
g53
(dp3539
sg62
g3508
sg55
(lp3540
g48
(g69
g50
NtRp3541
(dp3542
g53
(dp3543
sg62
g3537
sg55
(lp3544
g48
(g49
g50
NtRp3545
(dp3546
g53
(dp3547
g61
I1
ssg62
g3541
sg55
(lp3548
S'/admin/default/edit/Desglosar_Emails/views/layout.html'
p3549
asbasbasbasbasbasbasbag48
(g64
g50
NtRp3550
(dp3551
g53
(dp3552
sg62
g3384
sg55
(lp3553
g48
(g69
g50
NtRp3554
(dp3555
g53
(dp3556
sg62
g3550
sg55
(lp3557
g48
(g49
g50
NtRp3558
(dp3559
g53
(dp3560
g61
I2
ssg62
g3554
sg55
(lp3561
g48
(g57
g50
NtRp3562
(dp3563
g53
(dp3564
g61
I1
ssg62
Nsg55
(lp3565
g48
(g64
g50
NtRp3566
(dp3567
g53
(dp3568
sg62
g3562
sg55
(lp3569
g48
(g69
g50
NtRp3570
(dp3571
g53
(dp3572
sg62
g3566
sg55
(lp3573
g48
(g49
g50
NtRp3574
(dp3575
g53
(dp3576
g61
I1
ssg62
g3570
sg55
(lp3577
g3275
(S's\x0e\x00\x00\x00Hoja de estilo'
tRp3578
asbasbasbag48
(g64
g50
NtRp3579
(dp3580
g53
(dp3581
sg62
g3562
sg55
(lp3582
g48
(g69
g50
NtRp3583
(dp3584
g53
(dp3585
sg62
g3579
sg55
(lp3586
g48
(g49
g50
NtRp3587
(dp3588
g53
(dp3589
g61
I1
ssg62
g3583
sg55
(lp3590
I00
asbasbasbag48
(g64
g50
NtRp3591
(dp3592
g53
(dp3593
sg62
g3562
sg55
(lp3594
g48
(g69
g50
NtRp3595
(dp3596
g53
(dp3597
sg62
g3591
sg55
(lp3598
g48
(g49
g50
NtRp3599
(dp3600
g53
(dp3601
g61
I1
ssg62
g3595
sg55
(lp3602
S'/admin/default/edit/Desglosar_Emails/static/base.css'
p3603
asbasbasbasbasbasbasbag48
(g64
g50
NtRp3604
(dp3605
g53
(dp3606
sg62
g3384
sg55
(lp3607
g48
(g69
g50
NtRp3608
(dp3609
g53
(dp3610
sg62
g3604
sg55
(lp3611
g48
(g49
g50
NtRp3612
(dp3613
g53
(dp3614
g61
I2
ssg62
g3608
sg55
(lp3615
g48
(g57
g50
NtRp3616
(dp3617
g53
(dp3618
g61
I1
ssg62
Nsg55
(lp3619
g48
(g64
g50
NtRp3620
(dp3621
g53
(dp3622
sg62
g3616
sg55
(lp3623
g48
(g69
g50
NtRp3624
(dp3625
g53
(dp3626
sg62
g3620
sg55
(lp3627
g48
(g49
g50
NtRp3628
(dp3629
g53
(dp3630
g61
I1
ssg62
g3624
sg55
(lp3631
g3275
(S's\x0b\x00\x00\x00Modelo "db"'
tRp3632
asbasbasbag48
(g64
g50
NtRp3633
(dp3634
g53
(dp3635
sg62
g3616
sg55
(lp3636
g48
(g69
g50
NtRp3637
(dp3638
g53
(dp3639
sg62
g3633
sg55
(lp3640
g48
(g49
g50
NtRp3641
(dp3642
g53
(dp3643
g61
I1
ssg62
g3637
sg55
(lp3644
I00
asbasbasbag48
(g64
g50
NtRp3645
(dp3646
g53
(dp3647
sg62
g3616
sg55
(lp3648
g48
(g69
g50
NtRp3649
(dp3650
g53
(dp3651
sg62
g3645
sg55
(lp3652
g48
(g49
g50
NtRp3653
(dp3654
g53
(dp3655
g61
I1
ssg62
g3649
sg55
(lp3656
S'/admin/default/edit/Desglosar_Emails/models/db.py'
p3657
asbasbasbasbasbasbasbag48
(g64
g50
NtRp3658
(dp3659
g53
(dp3660
sg62
g3384
sg55
(lp3661
g48
(g69
g50
NtRp3662
(dp3663
g53
(dp3664
sg62
g3658
sg55
(lp3665
g48
(g49
g50
NtRp3666
(dp3667
g53
(dp3668
g61
I2
ssg62
g3662
sg55
(lp3669
g48
(g57
g50
NtRp3670
(dp3671
g53
(dp3672
g61
I1
ssg62
Nsg55
(lp3673
g48
(g64
g50
NtRp3674
(dp3675
g53
(dp3676
sg62
g3670
sg55
(lp3677
g48
(g69
g50
NtRp3678
(dp3679
g53
(dp3680
sg62
g3674
sg55
(lp3681
g48
(g49
g50
NtRp3682
(dp3683
g53
(dp3684
g61
I1
ssg62
g3678
sg55
(lp3685
g3275
(S's\r\x00\x00\x00Modelo "menu"'
tRp3686
asbasbasbag48
(g64
g50
NtRp3687
(dp3688
g53
(dp3689
sg62
g3670
sg55
(lp3690
g48
(g69
g50
NtRp3691
(dp3692
g53
(dp3693
sg62
g3687
sg55
(lp3694
g48
(g49
g50
NtRp3695
(dp3696
g53
(dp3697
g61
I1
ssg62
g3691
sg55
(lp3698
I00
asbasbasbag48
(g64
g50
NtRp3699
(dp3700
g53
(dp3701
sg62
g3670
sg55
(lp3702
g48
(g69
g50
NtRp3703
(dp3704
g53
(dp3705
sg62
g3699
sg55
(lp3706
g48
(g49
g50
NtRp3707
(dp3708
g53
(dp3709
g61
I1
ssg62
g3703
sg55
(lp3710
S'/admin/default/edit/Desglosar_Emails/models/menu.py'
p3711
asbasbasbasbasbasbasbag48
(g64
g50
NtRp3712
(dp3713
g53
(dp3714
sg62
g3384
sg55
(lp3715
g48
(g69
g50
NtRp3716
(dp3717
g53
(dp3718
sg62
g3712
sg55
(lp3719
g48
(g49
g50
NtRp3720
(dp3721
g53
(dp3722
g61
I2
ssg62
g3716
sg55
(lp3723
g48
(g57
g50
NtRp3724
(dp3725
g53
(dp3726
g61
I1
ssg62
Nsg55
(lp3727
g48
(g64
g50
NtRp3728
(dp3729
g53
(dp3730
sg62
g3724
sg55
(lp3731
g48
(g69
g50
NtRp3732
(dp3733
g53
(dp3734
sg62
g3728
sg55
(lp3735
g48
(g49
g50
NtRp3736
(dp3737
g53
(dp3738
g61
I1
ssg62
g3732
sg55
(lp3739
g3275
(S's\r\x00\x00\x00Base de datos'
tRp3740
asbasbasbag48
(g64
g50
NtRp3741
(dp3742
g53
(dp3743
sg62
g3724
sg55
(lp3744
g48
(g69
g50
NtRp3745
(dp3746
g53
(dp3747
sg62
g3741
sg55
(lp3748
g48
(g49
g50
NtRp3749
(dp3750
g53
(dp3751
g61
I1
ssg62
g3745
sg55
(lp3752
I00
asbasbasbag48
(g64
g50
NtRp3753
(dp3754
g53
(dp3755
sg62
g3724
sg55
(lp3756
g48
(g69
g50
NtRp3757
(dp3758
g53
(dp3759
sg62
g3753
sg55
(lp3760
g48
(g49
g50
NtRp3761
(dp3762
g53
(dp3763
g61
I1
ssg62
g3757
sg55
(lp3764
S'/Desglosar_Emails/appadmin/index'
p3765
asbasbasbasbasbasbasbag48
(g64
g50
NtRp3766
(dp3767
g53
(dp3768
sg62
g3384
sg55
(lp3769
g48
(g69
g50
NtRp3770
(dp3771
g53
(dp3772
sg62
g3766
sg55
(lp3773
g48
(g49
g50
NtRp3774
(dp3775
g53
(dp3776
g61
I2
ssg62
g3770
sg55
(lp3777
g48
(g57
g50
NtRp3778
(dp3779
g53
(dp3780
g61
I1
ssg62
Nsg55
(lp3781
g48
(g64
g50
NtRp3782
(dp3783
g53
(dp3784
sg62
g3778
sg55
(lp3785
g48
(g69
g50
NtRp3786
(dp3787
g53
(dp3788
sg62
g3782
sg55
(lp3789
g48
(g49
g50
NtRp3790
(dp3791
g53
(dp3792
g61
I1
ssg62
g3786
sg55
(lp3793
g3275
(S't\x06\x00\x00\x00Errors'
tRp3794
asbasbasbag48
(g64
g50
NtRp3795
(dp3796
g53
(dp3797
sg62
g3778
sg55
(lp3798
g48
(g69
g50
NtRp3799
(dp3800
g53
(dp3801
sg62
g3795
sg55
(lp3802
g48
(g49
g50
NtRp3803
(dp3804
g53
(dp3805
g61
I1
ssg62
g3799
sg55
(lp3806
I00
asbasbasbag48
(g64
g50
NtRp3807
(dp3808
g53
(dp3809
sg62
g3778
sg55
(lp3810
g48
(g69
g50
NtRp3811
(dp3812
g53
(dp3813
sg62
g3807
sg55
(lp3814
g48
(g49
g50
NtRp3815
(dp3816
g53
(dp3817
g61
I1
ssg62
g3811
sg55
(lp3818
S'/admin/default/errors/Desglosar_Emails'
p3819
asbasbasbasbasbasbasbag48
(g64
g50
NtRp3820
(dp3821
g53
(dp3822
sg62
g3384
sg55
(lp3823
g48
(g69
g50
NtRp3824
(dp3825
g53
(dp3826
sg62
g3820
sg55
(lp3827
g48
(g49
g50
NtRp3828
(dp3829
g53
(dp3830
g61
I2
ssg62
g3824
sg55
(lp3831
g48
(g57
g50
NtRp3832
(dp3833
g53
(dp3834
g61
I1
ssg62
Nsg55
(lp3835
g48
(g64
g50
NtRp3836
(dp3837
g53
(dp3838
sg62
g3832
sg55
(lp3839
g48
(g69
g50
NtRp3840
(dp3841
g53
(dp3842
sg62
g3836
sg55
(lp3843
g48
(g49
g50
NtRp3844
(dp3845
g53
(dp3846
g61
I1
ssg62
g3840
sg55
(lp3847
g3275
(S's\t\x00\x00\x00Acerca de'
tRp3848
asbasbasbag48
(g64
g50
NtRp3849
(dp3850
g53
(dp3851
sg62
g3832
sg55
(lp3852
g48
(g69
g50
NtRp3853
(dp3854
g53
(dp3855
sg62
g3849
sg55
(lp3856
g48
(g49
g50
NtRp3857
(dp3858
g53
(dp3859
g61
I1
ssg62
g3853
sg55
(lp3860
I00
asbasbasbag48
(g64
g50
NtRp3861
(dp3862
g53
(dp3863
sg62
g3832
sg55
(lp3864
g48
(g69
g50
NtRp3865
(dp3866
g53
(dp3867
sg62
g3861
sg55
(lp3868
g48
(g49
g50
NtRp3869
(dp3870
g53
(dp3871
g61
I1
ssg62
g3865
sg55
(lp3872
S'/admin/default/about/Desglosar_Emails'
p3873
asbasbasbasbasbasbasbasbasbasbasbasbasbasbasbag48
(g64
g50
NtRp3874
(dp3875
g53
(dp3876
sg62
g3243
sg55
(lp3877
g48
(g69
g50
NtRp3878
(dp3879
g53
(dp3880
sg62
g3874
sg55
(lp3881
g48
(g49
g50
NtRp3882
(dp3883
g53
(dp3884
g61
I4
ssg62
g3878
sg55
(lp3885
g48
(g57
g50
NtRp3886
(dp3887
g53
(dp3888
g61
I3
ssg62
Nsg55
(lp3889
g48
(g64
g50
NtRp3890
(dp3891
g53
(dp3892
sg62
g3886
sg55
(lp3893
g48
(g69
g50
NtRp3894
(dp3895
g53
(dp3896
sg62
g3890
sg55
(lp3897
g48
(g49
g50
NtRp3898
(dp3899
g53
(dp3900
g61
I3
ssg62
g3894
sg55
(lp3901
g3275
(S't\t\x00\x00\x00Resources'
tRp3902
asbasbasbag48
(g64
g50
NtRp3903
(dp3904
g53
(dp3905
sg62
g3886
sg55
(lp3906
g48
(g69
g50
NtRp3907
(dp3908
g53
(dp3909
sg62
g3903
sg55
(lp3910
g48
(g49
g50
NtRp3911
(dp3912
g53
(dp3913
g61
I3
ssg62
g3907
sg55
(lp3914
g91
asbasbasbag48
(g64
g50
NtRp3915
(dp3916
g53
(dp3917
sg62
g3886
sg55
(lp3918
g48
(g69
g50
NtRp3919
(dp3920
g53
(dp3921
sg62
g3915
sg55
(lp3922
g48
(g49
g50
NtRp3923
(dp3924
g53
(dp3925
g61
I3
ssg62
g3919
sg55
(lp3926
S'None'
p3927
asbasbasbag48
(g64
g50
NtRp3928
(dp3929
g53
(dp3930
sg62
g3886
sg55
(lp3931
g48
(g69
g50
NtRp3932
(dp3933
g53
(dp3934
sg62
g3928
sg55
(lp3935
g48
(g49
g50
NtRp3936
(dp3937
g53
(dp3938
g61
I3
ssg62
g3932
sg55
(lp3939
g48
(g57
g50
NtRp3940
(dp3941
g53
(dp3942
g61
I2
ssg62
Nsg55
(lp3943
g48
(g64
g50
NtRp3944
(dp3945
g53
(dp3946
sg62
g3940
sg55
(lp3947
g48
(g69
g50
NtRp3948
(dp3949
g53
(dp3950
sg62
g3944
sg55
(lp3951
g48
(g49
g50
NtRp3952
(dp3953
g53
(dp3954
g61
I2
ssg62
g3948
sg55
(lp3955
g48
(g57
g50
NtRp3956
(dp3957
g53
(dp3958
g61
I1
ssg62
Nsg55
(lp3959
g48
(g64
g50
NtRp3960
(dp3961
g53
(dp3962
sg62
g3956
sg55
(lp3963
g48
(g69
g50
NtRp3964
(dp3965
g53
(dp3966
sg62
g3960
sg55
(lp3967
g48
(g49
g50
NtRp3968
(dp3969
g53
(dp3970
g61
I1
ssg62
g3964
sg55
(lp3971
g3275
(S's\x0e\x00\x00\x00Documentaci\xc3\xb3n'
tRp3972
asbasbasbag48
(g64
g50
NtRp3973
(dp3974
g53
(dp3975
sg62
g3956
sg55
(lp3976
g48
(g69
g50
NtRp3977
(dp3978
g53
(dp3979
sg62
g3973
sg55
(lp3980
g48
(g49
g50
NtRp3981
(dp3982
g53
(dp3983
g61
I1
ssg62
g3977
sg55
(lp3984
I00
asbasbasbag48
(g64
g50
NtRp3985
(dp3986
g53
(dp3987
sg62
g3956
sg55
(lp3988
g48
(g69
g50
NtRp3989
(dp3990
g53
(dp3991
sg62
g3985
sg55
(lp3992
g48
(g49
g50
NtRp3993
(dp3994
g53
(dp3995
g61
I1
ssg62
g3989
sg55
(lp3996
S'http://www.web2py.com/book'
p3997
asbasbasbag48
(g64
g50
NtRp3998
(dp3999
g53
(dp4000
sg62
g3956
sg55
(lp4001
g48
(g69
g50
NtRp4002
(dp4003
g53
(dp4004
sg62
g3998
sg55
(lp4005
g48
(g49
g50
NtRp4006
(dp4007
g53
(dp4008
g61
I1
ssg62
g4002
sg55
(lp4009
(lp4010
(g3275
(S't\x07\x00\x00\x00Preface'
tRp4011
I00
S'http://www.web2py.com/book/default/chapter/00'
tp4012
a(g3275
(S't\x0c\x00\x00\x00Introduction'
tRp4013
I00
S'http://www.web2py.com/book/default/chapter/01'
tp4014
a(g3275
(S't\x06\x00\x00\x00Python'
tRp4015
I00
S'http://www.web2py.com/book/default/chapter/02'
tp4016
a(g3275
(S't\x08\x00\x00\x00Overview'
tRp4017
I00
S'http://www.web2py.com/book/default/chapter/03'
tp4018
a(g3275
(S's\x08\x00\x00\x00The Core'
tRp4019
I00
S'http://www.web2py.com/book/default/chapter/04'
tp4020
a(g3275
(S's\t\x00\x00\x00The Views'
tRp4021
I00
S'http://www.web2py.com/book/default/chapter/05'
tp4022
a(g3275
(S's\r\x00\x00\x00Base de datos'
tRp4023
I00
S'http://www.web2py.com/book/default/chapter/06'
tp4024
a(g3275
(S's\x14\x00\x00\x00Forms and Validators'
tRp4025
I00
S'http://www.web2py.com/book/default/chapter/07'
tp4026
a(g3275
(S's\x0e\x00\x00\x00Access Control'
tRp4027
I00
S'http://www.web2py.com/book/default/chapter/08'
tp4028
a(g3275
(S't\x08\x00\x00\x00Services'
tRp4029
I00
S'http://www.web2py.com/book/default/chapter/09'
tp4030
a(g3275
(S's\x0c\x00\x00\x00Ajax Recipes'
tRp4031
I00
S'http://www.web2py.com/book/default/chapter/10'
tp4032
a(g3275
(S's\x12\x00\x00\x00Deployment Recipes'
tRp4033
I00
S'http://www.web2py.com/book/default/chapter/11'
tp4034
a(g3275
(S's\r\x00\x00\x00Other Recipes'
tRp4035
I00
S'http://www.web2py.com/book/default/chapter/12'
tp4036
a(g3275
(S's\r\x00\x00\x00Buy this book'
tRp4037
I00
S'http://stores.lulu.com/web2py'
tp4038
aasbasbasbasbasbasbasbag48
(g64
g50
NtRp4039
(dp4040
g53
(dp4041
sg62
g3940
sg55
(lp4042
g48
(g69
g50
NtRp4043
(dp4044
g53
(dp4045
sg62
g4039
sg55
(lp4046
g48
(g49
g50
NtRp4047
(dp4048
g53
(dp4049
g61
I2
ssg62
g4043
sg55
(lp4050
g48
(g57
g50
NtRp4051
(dp4052
g53
(dp4053
g61
I1
ssg62
Nsg55
(lp4054
g48
(g64
g50
NtRp4055
(dp4056
g53
(dp4057
sg62
g4051
sg55
(lp4058
g48
(g69
g50
NtRp4059
(dp4060
g53
(dp4061
sg62
g4055
sg55
(lp4062
g48
(g49
g50
NtRp4063
(dp4064
g53
(dp4065
g61
I1
ssg62
g4059
sg55
(lp4066
g3275
(S't\t\x00\x00\x00Community'
tRp4067
asbasbasbag48
(g64
g50
NtRp4068
(dp4069
g53
(dp4070
sg62
g4051
sg55
(lp4071
g48
(g69
g50
NtRp4072
(dp4073
g53
(dp4074
sg62
g4068
sg55
(lp4075
g48
(g49
g50
NtRp4076
(dp4077
g53
(dp4078
g61
I1
ssg62
g4072
sg55
(lp4079
I00
asbasbasbag48
(g64
g50
NtRp4080
(dp4081
g53
(dp4082
sg62
g4051
sg55
(lp4083
g48
(g69
g50
NtRp4084
(dp4085
g53
(dp4086
sg62
g4080
sg55
(lp4087
g48
(g49
g50
NtRp4088
(dp4089
g53
(dp4090
g61
I1
ssg62
g4084
sg55
(lp4091
Nasbasbasbag48
(g64
g50
NtRp4092
(dp4093
g53
(dp4094
sg62
g4051
sg55
(lp4095
g48
(g69
g50
NtRp4096
(dp4097
g53
(dp4098
sg62
g4092
sg55
(lp4099
g48
(g49
g50
NtRp4100
(dp4101
g53
(dp4102
g61
I1
ssg62
g4096
sg55
(lp4103
(lp4104
(g3275
(S't\x06\x00\x00\x00Groups'
tRp4105
I00
S'http://www.web2py.com/examples/default/usergroups'
tp4106
a(g3275
(S't\x07\x00\x00\x00Twitter'
tRp4107
I00
S'http://twitter.com/web2py'
tp4108
a(g3275
(S's\t\x00\x00\x00Live chat'
tRp4109
I00
S'http://mibbit.com/?channel=%23web2py&server=irc.mibbit.net'
tp4110
a(g3275
(S's\n\x00\x00\x00User Voice'
tRp4111
I00
S'http://web2py.uservoice.com/'
tp4112
aasbasbasbasbasbasbasbag48
(g64
g50
NtRp4113
(dp4114
g53
(dp4115
sg62
g3940
sg55
(lp4116
g48
(g69
g50
NtRp4117
(dp4118
g53
(dp4119
sg62
g4113
sg55
(lp4120
g48
(g49
g50
NtRp4121
(dp4122
g53
(dp4123
g61
I2
ssg62
g4117
sg55
(lp4124
g48
(g57
g50
NtRp4125
(dp4126
g53
(dp4127
g61
I1
ssg62
Nsg55
(lp4128
g48
(g64
g50
NtRp4129
(dp4130
g53
(dp4131
sg62
g4125
sg55
(lp4132
g48
(g69
g50
NtRp4133
(dp4134
g53
(dp4135
sg62
g4129
sg55
(lp4136
g48
(g49
g50
NtRp4137
(dp4138
g53
(dp4139
g61
I1
ssg62
g4133
sg55
(lp4140
g3275
(S't\x06\x00\x00\x00Web2py'
tRp4141
asbasbasbag48
(g64
g50
NtRp4142
(dp4143
g53
(dp4144
sg62
g4125
sg55
(lp4145
g48
(g69
g50
NtRp4146
(dp4147
g53
(dp4148
sg62
g4142
sg55
(lp4149
g48
(g49
g50
NtRp4150
(dp4151
g53
(dp4152
g61
I1
ssg62
g4146
sg55
(lp4153
I00
asbasbasbag48
(g64
g50
NtRp4154
(dp4155
g53
(dp4156
sg62
g4125
sg55
(lp4157
g48
(g69
g50
NtRp4158
(dp4159
g53
(dp4160
sg62
g4154
sg55
(lp4161
g48
(g49
g50
NtRp4162
(dp4163
g53
(dp4164
g61
I1
ssg62
g4158
sg55
(lp4165
S'http://www.web2py.com'
p4166
asbasbasbag48
(g64
g50
NtRp4167
(dp4168
g53
(dp4169
sg62
g4125
sg55
(lp4170
g48
(g69
g50
NtRp4171
(dp4172
g53
(dp4173
sg62
g4167
sg55
(lp4174
g48
(g49
g50
NtRp4175
(dp4176
g53
(dp4177
g61
I1
ssg62
g4171
sg55
(lp4178
(lp4179
(g3275
(S't\x08\x00\x00\x00Download'
tRp4180
I00
S'http://www.web2py.com/examples/default/download'
tp4181
a(g3275
(S't\x07\x00\x00\x00Support'
tRp4182
I00
S'http://www.web2py.com/examples/default/support'
tp4183
a(g3275
(S's\x0e\x00\x00\x00Quick Examples'
tRp4184
I00
S'http://web2py.com/examples/default/examples'
tp4185
a(g3275
(S't\x03\x00\x00\x00FAQ'
tRp4186
I00
S'http://web2py.com/AlterEgo'
tp4187
a(g3275
(S's\x11\x00\x00\x00Free Applications'
tRp4188
I00
S'http://web2py.com/appliances'
tp4189
a(g3275
(S't\x07\x00\x00\x00Plugins'
tRp4190
I00
S'http://web2py.com/plugins'
tp4191
a(g3275
(S't\x07\x00\x00\x00Recipes'
tRp4192
I00
S'http://web2pyslices.com/'
tp4193
a(g3275
(S't\x04\x00\x00\x00Demo'
tRp4194
I00
S'http://web2py.com/demo_admin'
tp4195
a(g3275
(S't\x08\x00\x00\x00Semantic'
tRp4196
I00
S'http://web2py.com/semantic'
tp4197
a(g3275
(S't\x07\x00\x00\x00Layouts'
tRp4198
I00
S'http://web2py.com/layouts'
tp4199
a(g3275
(S't\x06\x00\x00\x00Videos'
tRp4200
I00
S'http://www.web2py.com/examples/default/videos/'
tp4201
aasbasbasbasbasbasbasbasbasbasbasbasbasbasbasbasbasbasbasbag48
(g64
g50
NtRp4202
(dp4203
g53
(dp4204
sg62
g2802
sg55
(lp4205
g48
(g69
g50
NtRp4206
(dp4207
g53
(dp4208
g73
g74
ssg62
g4202
sg55
(lp4209
S'meta'
p4210
asbag48
(g69
g50
NtRp4211
(dp4212
g53
(dp4213
g80
g81
ssg62
g4202
sg55
(lp4214
S':'
asbag48
(g69
g50
NtRp4215
(dp4216
g53
(dp4217
sg62
g4202
sg55
(lp4218
g48
(g49
g50
NtRp4219
(dp4220
g53
(dp4221
g61
I5
ssg62
g4215
sg55
(lp4222
g48
(g57
g50
NtRp4223
(dp4224
g53
(dp4225
g61
I4
ssg62
Nsg55
(lp4226
g48
(g64
g50
NtRp4227
(dp4228
g53
(dp4229
sg62
g4223
sg55
(lp4230
g48
(g69
g50
NtRp4231
(dp4232
g53
(dp4233
g73
g74
ssg62
g4227
sg55
(lp4234
S'author'
p4235
asbag48
(g69
g50
NtRp4236
(dp4237
g53
(dp4238
g80
g81
ssg62
g4227
sg55
(lp4239
S':'
asbag48
(g69
g50
NtRp4240
(dp4241
g53
(dp4242
sg62
g4227
sg55
(lp4243
g48
(g49
g50
NtRp4244
(dp4245
g53
(dp4246
g61
I4
ssg62
g4240
sg55
(lp4247
S'you'
p4248
asbasbasbag48
(g64
g50
NtRp4249
(dp4250
g53
(dp4251
sg62
g4223
sg55
(lp4252
g48
(g69
g50
NtRp4253
(dp4254
g53
(dp4255
g73
g74
ssg62
g4249
sg55
(lp4256
S'copyright'
p4257
asbag48
(g69
g50
NtRp4258
(dp4259
g53
(dp4260
g80
g81
ssg62
g4249
sg55
(lp4261
S':'
asbag48
(g69
g50
NtRp4262
(dp4263
g53
(dp4264
sg62
g4249
sg55
(lp4265
g48
(g49
g50
NtRp4266
(dp4267
g53
(dp4268
g61
I4
ssg62
g4262
sg55
(lp4269
S'Copyright 2007-2010'
p4270
asbasbasbag48
(g64
g50
NtRp4271
(dp4272
g53
(dp4273
sg62
g4223
sg55
(lp4274
g48
(g69
g50
NtRp4275
(dp4276
g53
(dp4277
g73
g74
ssg62
g4271
sg55
(lp4278
S'description'
p4279
asbag48
(g69
g50
NtRp4280
(dp4281
g53
(dp4282
g80
g81
ssg62
g4271
sg55
(lp4283
S':'
asbag48
(g69
g50
NtRp4284
(dp4285
g53
(dp4286
sg62
g4271
sg55
(lp4287
g48
(g49
g50
NtRp4288
(dp4289
g53
(dp4290
g61
I4
ssg62
g4284
sg55
(lp4291
S'Free and open source full-stack enterprise framework for agile development of fast, scalable, secure and portable database-driven web-based applications. Written and programmable in Python'
p4292
asbasbasbag48
(g64
g50
NtRp4293
(dp4294
g53
(dp4295
sg62
g4223
sg55
(lp4296
g48
(g69
g50
NtRp4297
(dp4298
g53
(dp4299
g73
g74
ssg62
g4293
sg55
(lp4300
S'generator'
p4301
asbag48
(g69
g50
NtRp4302
(dp4303
g53
(dp4304
g80
g81
ssg62
g4293
sg55
(lp4305
S':'
asbag48
(g69
g50
NtRp4306
(dp4307
g53
(dp4308
sg62
g4293
sg55
(lp4309
g48
(g49
g50
NtRp4310
(dp4311
g53
(dp4312
g61
I4
ssg62
g4306
sg55
(lp4313
S'Web2py Enterprise Framework'
p4314
asbasbasbag48
(g64
g50
NtRp4315
(dp4316
g53
(dp4317
sg62
g4223
sg55
(lp4318
g48
(g69
g50
NtRp4319
(dp4320
g53
(dp4321
g73
g74
ssg62
g4315
sg55
(lp4322
S'keywords'
p4323
asbag48
(g69
g50
NtRp4324
(dp4325
g53
(dp4326
g80
g81
ssg62
g4315
sg55
(lp4327
S':'
asbag48
(g69
g50
NtRp4328
(dp4329
g53
(dp4330
sg62
g4315
sg55
(lp4331
g48
(g49
g50
NtRp4332
(dp4333
g53
(dp4334
g61
I4
ssg62
g4328
sg55
(lp4335
S'web2py, python, framework'
p4336
asbasbasbasbasbasbasbag48
(g64
g50
NtRp4337
(dp4338
g53
(dp4339
sg62
g2802
sg55
(lp4340
g48
(g69
g50
NtRp4341
(dp4342
g53
(dp4343
g73
g74
ssg62
g4337
sg55
(lp4344
S'postprocessing'
p4345
asbag48
(g69
g50
NtRp4346
(dp4347
g53
(dp4348
g80
g81
ssg62
g4337
sg55
(lp4349
S':'
asbag48
(g69
g50
NtRp4350
(dp4351
g53
(dp4352
sg62
g4337
sg55
(lp4353
g48
(g49
g50
NtRp4354
(dp4355
g53
(dp4356
g61
I5
ssg62
g4350
sg55
(lp4357
g48
(g57
g50
NtRp4358
(dp4359
g53
(dp4360
g61
I4
ssg62
Nsg55
(lp4361
sbasbasbasbag48
(g64
g50
NtRp4362
(dp4363
g53
(dp4364
sg62
g2802
sg55
(lp4365
g48
(g69
g50
NtRp4366
(dp4367
g53
(dp4368
g73
g74
ssg62
g4362
sg55
(lp4369
S'session_file'
p4370
asbag48
(g69
g50
NtRp4371
(dp4372
g53
(dp4373
g80
g81
ssg62
g4362
sg55
(lp4374
S':'
asbag48
(g69
g50
NtRp4375
(dp4376
g53
(dp4377
sg62
g4362
sg55
(lp4378
g48
(g49
g50
NtRp4379
(dp4380
g53
(dp4381
g61
I5
ssg62
g4375
sg55
(lp4382
S"<open file 'C:\\Users\\Atomico\\web2py\\applications\\Desglosar_Emails\\sessions\\127.0.0.1-0a11b3b2-660c-433c-b71f-fc129286f26c', mode 'rb+' at 0x07C47698>"
p4383
asbasbasbag48
(g64
g50
NtRp4384
(dp4385
g53
(dp4386
sg62
g2802
sg55
(lp4387
g48
(g69
g50
NtRp4388
(dp4389
g53
(dp4390
g73
g74
ssg62
g4384
sg55
(lp4391
S'session_filename'
p4392
asbag48
(g69
g50
NtRp4393
(dp4394
g53
(dp4395
g80
g81
ssg62
g4384
sg55
(lp4396
S':'
asbag48
(g69
g50
NtRp4397
(dp4398
g53
(dp4399
sg62
g4384
sg55
(lp4400
g48
(g49
g50
NtRp4401
(dp4402
g53
(dp4403
g61
I5
ssg62
g4397
sg55
(lp4404
S'C:\\Users\\Atomico\\web2py\\applications\\Desglosar_Emails\\sessions\\127.0.0.1-0a11b3b2-660c-433c-b71f-fc129286f26c'
p4405
asbasbasbag48
(g64
g50
NtRp4406
(dp4407
g53
(dp4408
sg62
g2802
sg55
(lp4409
g48
(g69
g50
NtRp4410
(dp4411
g53
(dp4412
g73
g74
ssg62
g4406
sg55
(lp4413
S'session_id'
p4414
asbag48
(g69
g50
NtRp4415
(dp4416
g53
(dp4417
g80
g81
ssg62
g4406
sg55
(lp4418
S':'
asbag48
(g69
g50
NtRp4419
(dp4420
g53
(dp4421
sg62
g4406
sg55
(lp4422
g48
(g49
g50
NtRp4423
(dp4424
g53
(dp4425
g61
I5
ssg62
g4419
sg55
(lp4426
S'127.0.0.1-0a11b3b2-660c-433c-b71f-fc129286f26c'
p4427
asbasbasbag48
(g64
g50
NtRp4428
(dp4429
g53
(dp4430
sg62
g2802
sg55
(lp4431
g48
(g69
g50
NtRp4432
(dp4433
g53
(dp4434
g73
g74
ssg62
g4428
sg55
(lp4435
S'session_id_name'
p4436
asbag48
(g69
g50
NtRp4437
(dp4438
g53
(dp4439
g80
g81
ssg62
g4428
sg55
(lp4440
S':'
asbag48
(g69
g50
NtRp4441
(dp4442
g53
(dp4443
sg62
g4428
sg55
(lp4444
g48
(g49
g50
NtRp4445
(dp4446
g53
(dp4447
g61
I5
ssg62
g4441
sg55
(lp4448
g2859
asbasbasbag48
(g64
g50
NtRp4449
(dp4450
g53
(dp4451
sg62
g2802
sg55
(lp4452
g48
(g69
g50
NtRp4453
(dp4454
g53
(dp4455
g73
g74
ssg62
g4449
sg55
(lp4456
S'session_locked'
p4457
asbag48
(g69
g50
NtRp4458
(dp4459
g53
(dp4460
g80
g81
ssg62
g4449
sg55
(lp4461
S':'
asbag48
(g69
g50
NtRp4462
(dp4463
g53
(dp4464
sg62
g4449
sg55
(lp4465
g48
(g49
g50
NtRp4466
(dp4467
g53
(dp4468
g61
I5
ssg62
g4462
sg55
(lp4469
g1708
asbasbasbag48
(g64
g50
NtRp4470
(dp4471
g53
(dp4472
sg62
g2802
sg55
(lp4473
g48
(g69
g50
NtRp4474
(dp4475
g53
(dp4476
g73
g74
ssg62
g4470
sg55
(lp4477
S'session_new'
p4478
asbag48
(g69
g50
NtRp4479
(dp4480
g53
(dp4481
g80
g81
ssg62
g4470
sg55
(lp4482
S':'
asbag48
(g69
g50
NtRp4483
(dp4484
g53
(dp4485
sg62
g4470
sg55
(lp4486
g48
(g49
g50
NtRp4487
(dp4488
g53
(dp4489
g61
I5
ssg62
g4483
sg55
(lp4490
g91
asbasbasbag48
(g64
g50
NtRp4491
(dp4492
g53
(dp4493
sg62
g2802
sg55
(lp4494
g48
(g69
g50
NtRp4495
(dp4496
g53
(dp4497
g73
g74
ssg62
g4491
sg55
(lp4498
S'status'
p4499
asbag48
(g69
g50
NtRp4500
(dp4501
g53
(dp4502
g80
g81
ssg62
g4491
sg55
(lp4503
S':'
asbag48
(g69
g50
NtRp4504
(dp4505
g53
(dp4506
sg62
g4491
sg55
(lp4507
g48
(g49
g50
NtRp4508
(dp4509
g53
(dp4510
g61
I5
ssg62
g4504
sg55
(lp4511
S'200'
p4512
asbasbasbag48
(g64
g50
NtRp4513
(dp4514
g53
(dp4515
sg62
g2802
sg55
(lp4516
g48
(g69
g50
NtRp4517
(dp4518
g53
(dp4519
g73
g74
ssg62
g4513
sg55
(lp4520
S'subtitle'
p4521
asbag48
(g69
g50
NtRp4522
(dp4523
g53
(dp4524
g80
g81
ssg62
g4513
sg55
(lp4525
S':'
asbag48
(g69
g50
NtRp4526
(dp4527
g53
(dp4528
sg62
g4513
sg55
(lp4529
g48
(g49
g50
NtRp4530
(dp4531
g53
(dp4532
g61
I5
ssg62
g4526
sg55
(lp4533
g3275
(S's\t\x00\x00\x00Adaptame!'
tRp4534
asbasbasbag48
(g64
g50
NtRp4535
(dp4536
g53
(dp4537
sg62
g2802
sg55
(lp4538
g48
(g69
g50
NtRp4539
(dp4540
g53
(dp4541
g73
g74
ssg62
g4535
sg55
(lp4542
S'title'
p4543
asbag48
(g69
g50
NtRp4544
(dp4545
g53
(dp4546
g80
g81
ssg62
g4535
sg55
(lp4547
S':'
asbag48
(g69
g50
NtRp4548
(dp4549
g53
(dp4550
sg62
g4535
sg55
(lp4551
g48
(g49
g50
NtRp4552
(dp4553
g53
(dp4554
g61
I5
ssg62
g4548
sg55
(lp4555
g113
asbasbasbag48
(g64
g50
NtRp4556
(dp4557
g53
(dp4558
sg62
g2802
sg55
(lp4559
g48
(g69
g50
NtRp4560
(dp4561
g53
(dp4562
g73
g74
ssg62
g4556
sg55
(lp4563
g2032
asbag48
(g69
g50
NtRp4564
(dp4565
g53
(dp4566
g80
g81
ssg62
g4556
sg55
(lp4567
S':'
asbag48
(g69
g50
NtRp4568
(dp4569
g53
(dp4570
sg62
g4556
sg55
(lp4571
g48
(g49
g50
NtRp4572
(dp4573
g53
(dp4574
g61
I5
ssg62
g4568
sg55
(lp4575
g2045
asbasbasbag48
(g64
g50
NtRp4576
(dp4577
g53
(dp4578
sg62
g2802
sg55
(lp4579
g48
(g69
g50
NtRp4580
(dp4581
g53
(dp4582
g73
g74
ssg62
g4576
sg55
(lp4583
S'view'
p4584
asbag48
(g69
g50
NtRp4585
(dp4586
g53
(dp4587
g80
g81
ssg62
g4576
sg55
(lp4588
S':'
asbag48
(g69
g50
NtRp4589
(dp4590
g53
(dp4591
sg62
g4576
sg55
(lp4592
g48
(g49
g50
NtRp4593
(dp4594
g53
(dp4595
g61
I5
ssg62
g4589
sg55
(lp4596
S'default/entrada_mod1.html'
p4597
asbasbasbasbasbsS'locals'
p4598
(dp4599
S'pepe'
p4600
S'<gluon.dal.Field object at 0x079A72F0>'
p4601
sS'form'
p4602
S'<gluon.sqlhtml.SQLFORM object at 0x079A7FF0>'
p4603
sssS'traceback'
p4604
S'Traceback (most recent call last):\n  File "gluon/restricted.py", line 192, in restricted\n  File "C:\\Users\\Atomico\\web2py\\applications\\Desglosar_Emails\\controllers/default.py", line 43, in <module>\n  File "gluon/globals.py", line 145, in <lambda>\n  File "C:\\Users\\Atomico\\web2py\\applications\\Desglosar_Emails\\controllers/default.py", line 40, in entrada_mod1\nTypeError: object of type \'Field\' has no len()\n'
p4605
s.