(dp1
S'output'
p2
S''
sS'layer'
p3
S'C:\\Users\\Atomico\\web2py\\applications\\Desglosar_Emails\\views\\default/entrada_borrar.html'
p4
sS'code'
p5
S'response.write(\'<!DOCTYPE html>\\n<html lang="\', escape=False)\nresponse.write(T.accepted_language or \'en\')\nresponse.write(\'" class="no-js"><!-- no-js need it for modernzr -->\\n  <head>\\n    \\n    <meta charset="utf-8" />\\t  \\t\\n    <!-- www.phpied.com/conditional-comments-block-downloads/ -->\\n    <!--[if IE]><![endif]-->    \\n    <!-- Always force latest IE rendering engine \\n\\t (even in intranet) & Chrome Frame \\n\\t Remove this if you use the .htaccess -->\\n    <meta http-equiv="X-UA-Compatible" content="IE=edge,chrome=1">\\n    \\n    <title>\', escape=False)\nresponse.write(response.title or request.application)\nresponse.write(\'</title>\\n    \\n    <!-- http://dev.w3.org/html5/markup/meta.name.html -->\\n    <meta name="application-name" content="\', escape=False)\nresponse.write(request.application)\nresponse.write(\'" />\\t\\n    \\n    <!-- Speaking of Google, don\\\'t forget to set your site up: \\n\\t http://google.com/webmasters -->\\n    <meta name="google-site-verification" content="" />\\n    \\n    <!--  Mobile Viewport Fix\\n\\t  j.mp/mobileviewport & davidbcalhoun.com/2010/viewport-metatag \\n\\t  device-width: Occupy full width of the screen in its current orientation\\n\\t  initial-scale = 1.0 retains dimensions instead of zooming out if page height > device height\\n\\t  maximum-scale = 1.0 retains dimensions instead of zooming in if page width < device width\\n      -->\\n    <meta name="viewport" content="width=device-width, initial-scale=1.0, maximum-scale=1.0">\\n    \\n    <!-- Place favicon.ico and apple-touch-icon.png in the root of your domain and delete these references -->\\n    <link rel="shortcut icon" href="\', escape=False)\nresponse.write(URL(\'static\',\'favicon.ico\'))\nresponse.write(\'" type="image/x-icon">\\n    <link rel="apple-touch-icon" href="\', escape=False)\nresponse.write(URL(\'static\',\'favicon.png\'))\nresponse.write(\'">\\n\\n    <!-- For the less-enabled mobile browsers like Opera Mini -->\\n    <link rel="stylesheet" media="handheld" href="\', escape=False)\nresponse.write(URL(\'static\',\'css/handheld.css\'))\nresponse.write(\'">\\n    \\n    <!-- All JavaScript at the bottom, except for Modernizr which enables HTML5 elements & feature detects -->\\n    <script src="\', escape=False)\nresponse.write(URL(\'static\',\'js/modernizr-1.7.min.js\'))\nresponse.write(\'"></script>\\n    \\n    \', escape=False)\n#------  require CSS and JS files for this page (read info in base.css) ------\nresponse.write(\'\\n    \', escape=False)\nresponse.files.append(URL(\'static\',\'css/base.css\'))\nresponse.write(\'\\n    \', escape=False)\nresponse.files.append(URL(\'static\',\'css/superfish.css\'))\nresponse.write(\'\\n    \', escape=False)\nresponse.files.append(URL(\'static\',\'js/superfish.js\'))\nresponse.write(\'\\n    \', escape=False)\n#------ include web2py specific js code (jquery, calendar, form stuff) ------\nresponse.write(\'\\n    \', escape=False)\nresponse.files.insert(0,URL(\'static\',\'js/jquery.js\'))\nresponse.files.insert(1,URL(\'static\',\'css/calendar.css\'))\nresponse.files.insert(2,URL(\'static\',\'js/calendar.js\'))\nfor _item in response.meta or []:\n    response.write(\'\\n     <meta name="\', escape=False)\n    response.write(_item)\n    response.write(\'" content="\', escape=False)\n    response.write(response.meta[_item])\n    response.write(\'" />\', escape=False)\n    pass\nfor _k,_file in enumerate(response.files or []):\n    if _file in response.files[:_k]:\n        continue\n    _file0=_file.lower().split(\'?\')[0]\n    if _file0.endswith(\'.css\'):\n        response.write(\'\\n     <link href="\', escape=False)\n        response.write(_file)\n        response.write(\'" rel="stylesheet" type="text/css" />\', escape=False)\n    elif _file0.endswith(\'.js\'):\n        response.write(\'\\n     <script src="\', escape=False)\n        response.write(_file)\n        response.write(\'" type="text/javascript"></script>\', escape=False)\n        pass\n    pass\nresponse.write(\'\\n    <script type="text/javascript"><!--\\n    // These variables are used by the web2py_ajax_init function in web2py_ajax.js (which is loaded below).\\n    var w2p_ajax_confirm_message = "\', escape=False)\nresponse.write(T(\'Are you sure you want to delete this object?\'))\nresponse.write(\'";\\n    var w2p_ajax_date_format = "\', escape=False)\nresponse.write(T(\'%Y-%m-%d\'))\nresponse.write(\'";\\n    var w2p_ajax_datetime_format = "\', escape=False)\nresponse.write(T(\'%Y-%m-%d %H:%M:%S\'))\nresponse.write(\'";\\n    //--></script>\\n    <script src="\', escape=False)\nresponse.write(URL(\'static\',\'js/web2py_ajax.js\'))\nresponse.write(\'" type="text/javascript"></script>\\n\', escape=False)\nresponse.write(\'\\n\\n    \', escape=False)\n#using sidebars need to know what sidebar you want to use\n#prior of using it, because of static width size of content, you can use\n#left_sidebar, right_sidebar, both or none (False left and right)\nleft_sidebar_enabled = globals().get(\'left_sidebar_enabled\',False)\nright_sidebar_enabled = globals().get(\'right_sidebar_enabled\',False)\nif left_sidebar_enabled and right_sidebar_enabled: width_content=\'63%\'\nelif left_sidebar_enabled != right_sidebar_enabled: width_content=\'740px\'\nelse: width_content=\'100%\'\nif left_sidebar_enabled: left_sidebar_style = \'style="display: block;"\'\nelse: left_sidebar_style = \'style="display: none;"\'\nif right_sidebar_enabled: right_sidebar_style = \'style="display: block;"\'\nelse: right_sidebar_style = \'style="display: none;"\'\nstyle_content = \'style="width: %s"\' % width_content\nresponse.write(\'\\n  </head>\\n  \\n  <!-- paulirish.com/2008/conditional-stylesheets-vs-css-hacks-answer-neither/ -->\\t\\n  <!--[if lt IE 7 ]> <body class="ie6"> <![endif]-->\\n  <!--[if IE 7 ]>    <body class="ie7"> <![endif]-->\\n  <!--[if IE 8 ]>    <body class="ie8"> <![endif]-->\\n  <!--[if IE 9 ]>    <body class="ie9"> <![endif]-->\\n  <!--[if (gt IE 9)|!(IE)]><!--> <body> <!--<![endif]-->\\n    \\n    <div class="flash">\', escape=False)\nresponse.write(response.flash or \'\')\nresponse.write(\'</div> <!-- notification div -->\\n    \\n    <div id="container">\\t      \\t\\t      \\t\\n      \\n      <div id="wrapper">\\t\\t\\n\\t\\n\\t<div id="header"> <!-- header and login nav -->\\n\\t  \', escape=False)\nresponse.write(\' <!-- this is default header -->\\n\\t  \', escape=False)\ntry:\n    response.write(auth.navbar(action=URL(\'default\',\'user\')))\nexcept:pass\nresponse.write(\'\\t\\t          \\n\\t  <h1><span id="appname">\', escape=False)\nresponse.write(request.application.capitalize())\nresponse.write(\'</span>App</h1>\\n\\t  <div style="clear: both;"></div><!-- Clear the divs -->\\n\\t  \', escape=False)\nresponse.write(\'\\t\\t\\t\\t  \\t\\t\\t\\t\\t  \\n\\t</div><!-- header  -->\\n\\t\\n\\t<div id="statusbar"><!-- statusbar is menu zone -->\\n\\t  \', escape=False)\nresponse.write(\' <!-- this is default statusbar -->\\n\\t  \', escape=False)\n#------ superfish menu ------\nresponse.write(\'\\n\\t  \', escape=False)\nresponse.write(MENU(response.menu,_class=\'sf-menu\'))\nresponse.write(\'\\n\\t  <script type="text/javascript">\\n\\t    jQuery(document).ready(function(){\\n\\t    jQuery(\\\'ul.sf-menu\\\').superfish();});\\n\\t  </script>\\n\\t  <div style="clear: both;"></div><!-- Clear the divs -->\\t\\n\\t  \', escape=False)\nresponse.write(\'\\t\\t\\t\\t\\n\\t</div><!-- statusbar -->\\n\\t\\n\\t<div id="page"> <!-- Here my central body -->\\t  \\n\\n\\t  \', escape=False)\nif left_sidebar_enabled:\n    response.write(\'\\n          <div id="left_sidebar" \', escape=False)\n    response.write(XML(left_sidebar_style))\n    response.write(\' >\\n            <div style="padding: 4px;">\\n\\t      \', escape=False)\n    response.write(\'Content Left Sidebar\', escape=False)\n    response.write(\'\\t\\t  \\n            </div>\\n          </div><!-- left_sidebar -->\\n\\t  \', escape=False)\n    pass\nresponse.write(\'\\n\\n\\t  <!-- content -->\\n\\t  <div id="content" \', escape=False)\nresponse.write(XML(style_content))\nresponse.write(\' >\\n\\t    \', escape=False)\nresponse.write(\'\\r\\n<h1>Esta es la plantilla default/entrada_mod3.html</h1>\\r\\n<h2>Formulario</h2>\\r\\n\', escape=False)\nresponse.write(form)\nresponse.write(\'\\r\\n<br/>\\r\\n<h3>Tratamientos</h3>\\r\\n\', escape=False)\ntextual=db(db.info4.id==1).select()[0]\ntxt=textual.texto\nimport re\npattern=re.compile("\\w+[.@&\\w\xc3\x91\xc3\xb1]*")\npatternemail=re.compile("@\\w+\\.[.\\w]+")\ndb(db.info4.id==1).update(longitud=len(txt))\nres=pattern.findall(txt)\nres2=patternemail.findall(txt)\nfor i in res: response.write (i+\'    \')\nresponse.write(\'En total son \', escape=False)\nresponse.write(len(res))\nresponse.write(\' nombres sueltos <br/> \', escape=False)\nfor i in res2: response.write(i+\'    \')\nresponse.write(\'En total son \', escape=False)\nresponse.write(len(res2))\nresponse.write(\' conf de emails sueltos <br/> \', escape=False)\ni=0\n{{""" while i<len(res):\r\\n    \r\\n    if patternemail.search(res[i]):\r\\n        bol=\'True\'\r\\n    else:\r\\n        bol=\'False\'\r\\n    pass\r\\n    response.write(\'<br> i es: \'+str(i)+\' y patternemail para la palabra \'+res[i]+\' es \'+bol ,escape=False)\r\\n    if not patternemail.search(res[i]):\r\\n        cadena=\'\'\r\\n        while not patternemail.search(res[i]):\r\\n            cadena=cadena+\' \'+res[i]\r\\n            i=i+1\r\\n        pass\r\\n        db.contactos.insert(nombre=cadena,email=res[i])\r\\n        i=i+1\r\\n   else:\r\\n       db.contactos.insert(email=res[i])\r\\n       i=i+1\r\\n   pass\r\\npass\r\\n"""\nresponse.write(\'\\r\\n\\r\\n\\r\\n}}\\r\\n\', escape=False)\nlista=db().select(db.contactos.ALL)\nresponse.write(lista)\nresponse.write(\'\\r\\n}\\r\\n\', escape=False)\nresponse.write(\'\\t\\n\\t  </div>\\n\\t  <!-- content -->\\n\\n\\t  \', escape=False)\nif right_sidebar_enabled:\n    response.write(\'\\n          <div id="right_sidebar" \', escape=False)\n    response.write(XML(right_sidebar_style))\n    response.write(\' >\\n            <div style="padding: 4px;">\\n              \', escape=False)\n    response.write(\'Content Right Sidebar\', escape=False)\n    response.write(\'\\n            </div>\\n\\t  </div><!-- right_sidebar -->\\n          \', escape=False)\n    pass\nresponse.write(\'\\n\\n\\n\\t  <div style="clear: both;"></div><!-- Clear the divs -->\\n\\t  \\n\\t</div><!-- page -->\\t\\t\\t\\t\\t\\t\\t\\n\\t\\n\\t<div id="footer">\\n\\t  \', escape=False)\nresponse.write(\' <!-- this is default footer -->\\n\\t  <a href="http://www.web2py.com/" style="float: left; padding-right: 6px;">\\n\\t    <img src="\', escape=False)\nresponse.write(URL(\'static\',\'images/poweredby.png\'))\nresponse.write(\'"/>\\n\\t  </a>\\n\\t  \', escape=False)\nresponse.write(T(\'Copyright\'))\nresponse.write(\' &#169; 2010\\t\\t\\t\\t\\n\\t  <div style="clear: both;"></div><!-- Clear the divs -->\\n\\t  \', escape=False)\nresponse.write(\'\\n\\n\\t</div><!-- footer -->\\t\\t\\t\\n      </div><!-- wrapper -->\\n    </div><!-- container -->\\t\\t\\n    \\n    <!--[if lt IE 7 ]>\\n\\t<script src="\', escape=False)\nresponse.write(URL(\'static\',\'js/dd_belatedpng.js\'))\nresponse.write(\'"></script>\\n\\t<script> DD_belatedPNG.fix(\\\'img, .png_bg\\\'); //fix any <img> or .png_bg background-images </script>\\n\\t<![endif]-->\\n    \\n    <!-- asynchronous google analytics: mathiasbynens.be/notes/async-analytics-snippet \\n\\t change the UA-XXXXX-X to be your site\\\'s ID -->\\n    <!--   \\n\\t   <script>\\n\\t     var _gaq = [[\\\'_setAccount\\\', \\\'UA-XXXXX-X\\\'], [\\\'_trackPageview\\\']];\\n\\t     (function(d, t) {\\n\\t     var g = d.createElement(t),\\n\\t     s = d.getElementsByTagName(t)[0];\\n\\t     g.async = true;\\n\\t     g.src = \\\'//www.google-analytics.com/ga.js\\\';\\n\\t     s.parentNode.insertBefore(g, s);\\n\\t     })(document, \\\'script\\\');\\n\\t   </script>\\n\\t   -->    \\n  </body>\\n</html>\\n\', escape=False)'
p6
sS'snapshot'
p7
(dp8
S'exception'
p9
(dp10
S'__getslice__'
p11
S"<method-wrapper '__getslice__' of exceptions.SyntaxError object at 0x06A93A70>"
p12
sS'text'
p13
S'"response.write(\'\\\\r\\\\n\\\\r\\\\n\\\\r\\\\n}}\\\\r\\\\n\', escape=False)\\n"'
p14
sS'__str__'
p15
S"<method-wrapper '__str__' of exceptions.SyntaxError object at 0x06A93A70>"
p16
sS'__reduce__'
p17
S'<built-in method __reduce__ of exceptions.SyntaxError object at 0x06A93A70>'
p18
sS'__dict__'
p19
S'{}'
p20
sS'__init__'
p21
S"<method-wrapper '__init__' of exceptions.SyntaxError object at 0x06A93A70>"
p22
sS'__setattr__'
p23
S"<method-wrapper '__setattr__' of exceptions.SyntaxError object at 0x06A93A70>"
p24
sS'__reduce_ex__'
p25
S'<built-in method __reduce_ex__ of exceptions.SyntaxError object at 0x06A93A70>'
p26
sS'__new__'
p27
S'<built-in method __new__ of type object at 0x1E1CDBD0>'
p28
sS'__class__'
p29
S"<type 'exceptions.SyntaxError'>"
p30
sS'filename'
p31
S"r'C:\\Users\\Atomico\\web2py\\applications\\Desglosar_Emails\\views\\default/entrada_borrar.html'"
p32
sS'lineno'
p33
S'121'
p34
sS'msg'
p35
S"'invalid syntax'"
p36
sS'__doc__'
p37
S"'Invalid syntax.'"
p38
sS'__getitem__'
p39
S"<method-wrapper '__getitem__' of exceptions.SyntaxError object at 0x06A93A70>"
p40
sS'__setstate__'
p41
S'<built-in method __setstate__ of exceptions.SyntaxError object at 0x06A93A70>'
p42
sS'__getattribute__'
p43
S"<method-wrapper '__getattribute__' of exceptions.SyntaxError object at 0x06A93A70>"
p44
sS'print_file_and_line'
p45
S'None'
p46
sS'args'
p47
S'(\'invalid syntax\', (r\'C:\\Users\\Atomico\\web2py\\applications\\Desglosar_Emails\\views\\default/entrada_borrar.html\', 121, 8, "response.write(\'\\\\r\\\\n\\\\r\\\\n\\\\r\\\\n}}\\\\r\\\\n\', escape=False)\\n"))'
p48
sS'offset'
p49
S'8'
sS'__delattr__'
p50
S"<method-wrapper '__delattr__' of exceptions.SyntaxError object at 0x06A93A70>"
p51
sS'__repr__'
p52
S"<method-wrapper '__repr__' of exceptions.SyntaxError object at 0x06A93A70>"
p53
sS'__hash__'
p54
S"<method-wrapper '__hash__' of exceptions.SyntaxError object at 0x06A93A70>"
p55
ssS'evalue'
p56
S'invalid syntax (default/entrada_borrar.html, line 121)'
p57
sS'request'
p58
ccopy_reg
_reconstructor
p59
(cgluon.html
BEAUTIFY
p60
c__builtin__
object
p61
NtRp62
(dp63
S'attributes'
p64
(dp65
sS'components'
p66
(lp67
g59
(cgluon.html
TABLE
p68
g61
NtRp69
(dp70
g64
(dp71
S'level'
p72
I5
ssS'parent'
p73
Nsg66
(lp74
g59
(cgluon.html
TR
p75
g61
NtRp76
(dp77
g64
(dp78
sg73
g69
sg66
(lp79
g59
(cgluon.html
TD
p80
g61
NtRp81
(dp82
g64
(dp83
S'_style'
p84
S'font-weight:bold;'
p85
ssg73
g76
sg66
(lp86
S'ajax'
p87
asbag59
(g80
g61
NtRp88
(dp89
g64
(dp90
S'_valign'
p91
S'top'
p92
ssg73
g76
sg66
(lp93
S':'
asbag59
(g80
g61
NtRp94
(dp95
g64
(dp96
sg73
g76
sg66
(lp97
g59
(g60
g61
NtRp98
(dp99
g64
(dp100
g72
I5
ssg73
g94
sg66
(lp101
S'False'
p102
asbasbasbag59
(g75
g61
NtRp103
(dp104
g64
(dp105
sg73
g69
sg66
(lp106
g59
(g80
g61
NtRp107
(dp108
g64
(dp109
g84
g85
ssg73
g103
sg66
(lp110
S'application'
p111
asbag59
(g80
g61
NtRp112
(dp113
g64
(dp114
g91
g92
ssg73
g103
sg66
(lp115
S':'
asbag59
(g80
g61
NtRp116
(dp117
g64
(dp118
sg73
g103
sg66
(lp119
g59
(g60
g61
NtRp120
(dp121
g64
(dp122
g72
I5
ssg73
g116
sg66
(lp123
S'Desglosar_Emails'
p124
asbasbasbag59
(g75
g61
NtRp125
(dp126
g64
(dp127
sg73
g69
sg66
(lp128
g59
(g80
g61
NtRp129
(dp130
g64
(dp131
g84
g85
ssg73
g125
sg66
(lp132
g47
asbag59
(g80
g61
NtRp133
(dp134
g64
(dp135
g91
g92
ssg73
g125
sg66
(lp136
S':'
asbag59
(g80
g61
NtRp137
(dp138
g64
(dp139
sg73
g125
sg66
(lp140
g59
(g60
g61
NtRp141
(dp142
g64
(dp143
g72
I5
ssg73
g137
sg66
(lp144
g59
(g68
g61
NtRp145
(dp146
g64
(dp147
g72
I4
ssg73
Nsg66
(lp148
sbasbasbasbag59
(g75
g61
NtRp149
(dp150
g64
(dp151
sg73
g69
sg66
(lp152
g59
(g80
g61
NtRp153
(dp154
g64
(dp155
g84
g85
ssg73
g149
sg66
(lp156
S'body'
p157
asbag59
(g80
g61
NtRp158
(dp159
g64
(dp160
g91
g92
ssg73
g149
sg66
(lp161
S':'
asbag59
(g80
g61
NtRp162
(dp163
g64
(dp164
sg73
g149
sg66
(lp165
g59
(g60
g61
NtRp166
(dp167
g64
(dp168
g72
I5
ssg73
g162
sg66
(lp169
S'<cStringIO.StringO object at 0x07073580>'
p170
asbasbasbag59
(g75
g61
NtRp171
(dp172
g64
(dp173
sg73
g69
sg66
(lp174
g59
(g80
g61
NtRp175
(dp176
g64
(dp177
g84
g85
ssg73
g171
sg66
(lp178
S'client'
p179
asbag59
(g80
g61
NtRp180
(dp181
g64
(dp182
g91
g92
ssg73
g171
sg66
(lp183
S':'
asbag59
(g80
g61
NtRp184
(dp185
g64
(dp186
sg73
g171
sg66
(lp187
g59
(g60
g61
NtRp188
(dp189
g64
(dp190
g72
I5
ssg73
g184
sg66
(lp191
S'127.0.0.1'
p192
asbasbasbag59
(g75
g61
NtRp193
(dp194
g64
(dp195
sg73
g69
sg66
(lp196
g59
(g80
g61
NtRp197
(dp198
g64
(dp199
g84
g85
ssg73
g193
sg66
(lp200
S'controller'
p201
asbag59
(g80
g61
NtRp202
(dp203
g64
(dp204
g91
g92
ssg73
g193
sg66
(lp205
S':'
asbag59
(g80
g61
NtRp206
(dp207
g64
(dp208
sg73
g193
sg66
(lp209
g59
(g60
g61
NtRp210
(dp211
g64
(dp212
g72
I5
ssg73
g206
sg66
(lp213
S'default'
p214
asbasbasbag59
(g75
g61
NtRp215
(dp216
g64
(dp217
sg73
g69
sg66
(lp218
g59
(g80
g61
NtRp219
(dp220
g64
(dp221
g84
g85
ssg73
g215
sg66
(lp222
S'cookies'
p223
asbag59
(g80
g61
NtRp224
(dp225
g64
(dp226
g91
g92
ssg73
g215
sg66
(lp227
S':'
asbag59
(g80
g61
NtRp228
(dp229
g64
(dp230
sg73
g215
sg66
(lp231
g59
(g60
g61
NtRp232
(dp233
g64
(dp234
g72
I5
ssg73
g228
sg66
(lp235
g59
(g68
g61
NtRp236
(dp237
g64
(dp238
g72
I4
ssg73
Nsg66
(lp239
g59
(g75
g61
NtRp240
(dp241
g64
(dp242
sg73
g236
sg66
(lp243
g59
(g80
g61
NtRp244
(dp245
g64
(dp246
g84
g85
ssg73
g240
sg66
(lp247
S'session_id_admin'
p248
asbag59
(g80
g61
NtRp249
(dp250
g64
(dp251
g91
g92
ssg73
g240
sg66
(lp252
S':'
asbag59
(g80
g61
NtRp253
(dp254
g64
(dp255
sg73
g240
sg66
(lp256
g59
(g60
g61
NtRp257
(dp258
g64
(dp259
g72
I4
ssg73
g253
sg66
(lp260
g59
(g68
g61
NtRp261
(dp262
g64
(dp263
g72
I3
ssg73
Nsg66
(lp264
g59
(g75
g61
NtRp265
(dp266
g64
(dp267
sg73
g261
sg66
(lp268
g59
(g80
g61
NtRp269
(dp270
g64
(dp271
g84
g85
ssg73
g265
sg66
(lp272
S'comment'
p273
asbag59
(g80
g61
NtRp274
(dp275
g64
(dp276
g91
g92
ssg73
g265
sg66
(lp277
S':'
asbag59
(g80
g61
NtRp278
(dp279
g64
(dp280
sg73
g265
sg66
(lp281
g59
(g60
g61
NtRp282
(dp283
g64
(dp284
g72
I3
ssg73
g278
sg66
(lp285
S''
asbasbasbag59
(g75
g61
NtRp286
(dp287
g64
(dp288
sg73
g261
sg66
(lp289
g59
(g80
g61
NtRp290
(dp291
g64
(dp292
g84
g85
ssg73
g286
sg66
(lp293
S'domain'
p294
asbag59
(g80
g61
NtRp295
(dp296
g64
(dp297
g91
g92
ssg73
g286
sg66
(lp298
S':'
asbag59
(g80
g61
NtRp299
(dp300
g64
(dp301
sg73
g286
sg66
(lp302
g59
(g60
g61
NtRp303
(dp304
g64
(dp305
g72
I3
ssg73
g299
sg66
(lp306
S''
asbasbasbag59
(g75
g61
NtRp307
(dp308
g64
(dp309
sg73
g261
sg66
(lp310
g59
(g80
g61
NtRp311
(dp312
g64
(dp313
g84
g85
ssg73
g307
sg66
(lp314
S'expires'
p315
asbag59
(g80
g61
NtRp316
(dp317
g64
(dp318
g91
g92
ssg73
g307
sg66
(lp319
S':'
asbag59
(g80
g61
NtRp320
(dp321
g64
(dp322
sg73
g307
sg66
(lp323
g59
(g60
g61
NtRp324
(dp325
g64
(dp326
g72
I3
ssg73
g320
sg66
(lp327
S''
asbasbasbag59
(g75
g61
NtRp328
(dp329
g64
(dp330
sg73
g261
sg66
(lp331
g59
(g80
g61
NtRp332
(dp333
g64
(dp334
g84
g85
ssg73
g328
sg66
(lp335
S'max-age'
p336
asbag59
(g80
g61
NtRp337
(dp338
g64
(dp339
g91
g92
ssg73
g328
sg66
(lp340
S':'
asbag59
(g80
g61
NtRp341
(dp342
g64
(dp343
sg73
g328
sg66
(lp344
g59
(g60
g61
NtRp345
(dp346
g64
(dp347
g72
I3
ssg73
g341
sg66
(lp348
S''
asbasbasbag59
(g75
g61
NtRp349
(dp350
g64
(dp351
sg73
g261
sg66
(lp352
g59
(g80
g61
NtRp353
(dp354
g64
(dp355
g84
g85
ssg73
g349
sg66
(lp356
S'path'
p357
asbag59
(g80
g61
NtRp358
(dp359
g64
(dp360
g91
g92
ssg73
g349
sg66
(lp361
S':'
asbag59
(g80
g61
NtRp362
(dp363
g64
(dp364
sg73
g349
sg66
(lp365
g59
(g60
g61
NtRp366
(dp367
g64
(dp368
g72
I3
ssg73
g362
sg66
(lp369
S''
asbasbasbag59
(g75
g61
NtRp370
(dp371
g64
(dp372
sg73
g261
sg66
(lp373
g59
(g80
g61
NtRp374
(dp375
g64
(dp376
g84
g85
ssg73
g370
sg66
(lp377
S'secure'
p378
asbag59
(g80
g61
NtRp379
(dp380
g64
(dp381
g91
g92
ssg73
g370
sg66
(lp382
S':'
asbag59
(g80
g61
NtRp383
(dp384
g64
(dp385
sg73
g370
sg66
(lp386
g59
(g60
g61
NtRp387
(dp388
g64
(dp389
g72
I3
ssg73
g383
sg66
(lp390
S''
asbasbasbag59
(g75
g61
NtRp391
(dp392
g64
(dp393
sg73
g261
sg66
(lp394
g59
(g80
g61
NtRp395
(dp396
g64
(dp397
g84
g85
ssg73
g391
sg66
(lp398
S'version'
p399
asbag59
(g80
g61
NtRp400
(dp401
g64
(dp402
g91
g92
ssg73
g391
sg66
(lp403
S':'
asbag59
(g80
g61
NtRp404
(dp405
g64
(dp406
sg73
g391
sg66
(lp407
g59
(g60
g61
NtRp408
(dp409
g64
(dp410
g72
I3
ssg73
g404
sg66
(lp411
S''
asbasbasbasbasbasbasbag59
(g75
g61
NtRp412
(dp413
g64
(dp414
sg73
g236
sg66
(lp415
g59
(g80
g61
NtRp416
(dp417
g64
(dp418
g84
g85
ssg73
g412
sg66
(lp419
S'session_id_desglosar_emails'
p420
asbag59
(g80
g61
NtRp421
(dp422
g64
(dp423
g91
g92
ssg73
g412
sg66
(lp424
S':'
asbag59
(g80
g61
NtRp425
(dp426
g64
(dp427
sg73
g412
sg66
(lp428
g59
(g60
g61
NtRp429
(dp430
g64
(dp431
g72
I4
ssg73
g425
sg66
(lp432
g59
(g68
g61
NtRp433
(dp434
g64
(dp435
g72
I3
ssg73
Nsg66
(lp436
g59
(g75
g61
NtRp437
(dp438
g64
(dp439
sg73
g433
sg66
(lp440
g59
(g80
g61
NtRp441
(dp442
g64
(dp443
g84
g85
ssg73
g437
sg66
(lp444
g273
asbag59
(g80
g61
NtRp445
(dp446
g64
(dp447
g91
g92
ssg73
g437
sg66
(lp448
S':'
asbag59
(g80
g61
NtRp449
(dp450
g64
(dp451
sg73
g437
sg66
(lp452
g59
(g60
g61
NtRp453
(dp454
g64
(dp455
g72
I3
ssg73
g449
sg66
(lp456
S''
asbasbasbag59
(g75
g61
NtRp457
(dp458
g64
(dp459
sg73
g433
sg66
(lp460
g59
(g80
g61
NtRp461
(dp462
g64
(dp463
g84
g85
ssg73
g457
sg66
(lp464
g294
asbag59
(g80
g61
NtRp465
(dp466
g64
(dp467
g91
g92
ssg73
g457
sg66
(lp468
S':'
asbag59
(g80
g61
NtRp469
(dp470
g64
(dp471
sg73
g457
sg66
(lp472
g59
(g60
g61
NtRp473
(dp474
g64
(dp475
g72
I3
ssg73
g469
sg66
(lp476
S''
asbasbasbag59
(g75
g61
NtRp477
(dp478
g64
(dp479
sg73
g433
sg66
(lp480
g59
(g80
g61
NtRp481
(dp482
g64
(dp483
g84
g85
ssg73
g477
sg66
(lp484
g315
asbag59
(g80
g61
NtRp485
(dp486
g64
(dp487
g91
g92
ssg73
g477
sg66
(lp488
S':'
asbag59
(g80
g61
NtRp489
(dp490
g64
(dp491
sg73
g477
sg66
(lp492
g59
(g60
g61
NtRp493
(dp494
g64
(dp495
g72
I3
ssg73
g489
sg66
(lp496
S''
asbasbasbag59
(g75
g61
NtRp497
(dp498
g64
(dp499
sg73
g433
sg66
(lp500
g59
(g80
g61
NtRp501
(dp502
g64
(dp503
g84
g85
ssg73
g497
sg66
(lp504
g336
asbag59
(g80
g61
NtRp505
(dp506
g64
(dp507
g91
g92
ssg73
g497
sg66
(lp508
S':'
asbag59
(g80
g61
NtRp509
(dp510
g64
(dp511
sg73
g497
sg66
(lp512
g59
(g60
g61
NtRp513
(dp514
g64
(dp515
g72
I3
ssg73
g509
sg66
(lp516
S''
asbasbasbag59
(g75
g61
NtRp517
(dp518
g64
(dp519
sg73
g433
sg66
(lp520
g59
(g80
g61
NtRp521
(dp522
g64
(dp523
g84
g85
ssg73
g517
sg66
(lp524
g357
asbag59
(g80
g61
NtRp525
(dp526
g64
(dp527
g91
g92
ssg73
g517
sg66
(lp528
S':'
asbag59
(g80
g61
NtRp529
(dp530
g64
(dp531
sg73
g517
sg66
(lp532
g59
(g60
g61
NtRp533
(dp534
g64
(dp535
g72
I3
ssg73
g529
sg66
(lp536
S''
asbasbasbag59
(g75
g61
NtRp537
(dp538
g64
(dp539
sg73
g433
sg66
(lp540
g59
(g80
g61
NtRp541
(dp542
g64
(dp543
g84
g85
ssg73
g537
sg66
(lp544
g378
asbag59
(g80
g61
NtRp545
(dp546
g64
(dp547
g91
g92
ssg73
g537
sg66
(lp548
S':'
asbag59
(g80
g61
NtRp549
(dp550
g64
(dp551
sg73
g537
sg66
(lp552
g59
(g60
g61
NtRp553
(dp554
g64
(dp555
g72
I3
ssg73
g549
sg66
(lp556
S''
asbasbasbag59
(g75
g61
NtRp557
(dp558
g64
(dp559
sg73
g433
sg66
(lp560
g59
(g80
g61
NtRp561
(dp562
g64
(dp563
g84
g85
ssg73
g557
sg66
(lp564
g399
asbag59
(g80
g61
NtRp565
(dp566
g64
(dp567
g91
g92
ssg73
g557
sg66
(lp568
S':'
asbag59
(g80
g61
NtRp569
(dp570
g64
(dp571
sg73
g557
sg66
(lp572
g59
(g60
g61
NtRp573
(dp574
g64
(dp575
g72
I3
ssg73
g569
sg66
(lp576
S''
asbasbasbasbasbasbasbag59
(g75
g61
NtRp577
(dp578
g64
(dp579
sg73
g236
sg66
(lp580
g59
(g80
g61
NtRp581
(dp582
g64
(dp583
g84
g85
ssg73
g577
sg66
(lp584
S'session_id_welcome'
p585
asbag59
(g80
g61
NtRp586
(dp587
g64
(dp588
g91
g92
ssg73
g577
sg66
(lp589
S':'
asbag59
(g80
g61
NtRp590
(dp591
g64
(dp592
sg73
g577
sg66
(lp593
g59
(g60
g61
NtRp594
(dp595
g64
(dp596
g72
I4
ssg73
g590
sg66
(lp597
g59
(g68
g61
NtRp598
(dp599
g64
(dp600
g72
I3
ssg73
Nsg66
(lp601
g59
(g75
g61
NtRp602
(dp603
g64
(dp604
sg73
g598
sg66
(lp605
g59
(g80
g61
NtRp606
(dp607
g64
(dp608
g84
g85
ssg73
g602
sg66
(lp609
g273
asbag59
(g80
g61
NtRp610
(dp611
g64
(dp612
g91
g92
ssg73
g602
sg66
(lp613
S':'
asbag59
(g80
g61
NtRp614
(dp615
g64
(dp616
sg73
g602
sg66
(lp617
g59
(g60
g61
NtRp618
(dp619
g64
(dp620
g72
I3
ssg73
g614
sg66
(lp621
S''
asbasbasbag59
(g75
g61
NtRp622
(dp623
g64
(dp624
sg73
g598
sg66
(lp625
g59
(g80
g61
NtRp626
(dp627
g64
(dp628
g84
g85
ssg73
g622
sg66
(lp629
g294
asbag59
(g80
g61
NtRp630
(dp631
g64
(dp632
g91
g92
ssg73
g622
sg66
(lp633
S':'
asbag59
(g80
g61
NtRp634
(dp635
g64
(dp636
sg73
g622
sg66
(lp637
g59
(g60
g61
NtRp638
(dp639
g64
(dp640
g72
I3
ssg73
g634
sg66
(lp641
S''
asbasbasbag59
(g75
g61
NtRp642
(dp643
g64
(dp644
sg73
g598
sg66
(lp645
g59
(g80
g61
NtRp646
(dp647
g64
(dp648
g84
g85
ssg73
g642
sg66
(lp649
g315
asbag59
(g80
g61
NtRp650
(dp651
g64
(dp652
g91
g92
ssg73
g642
sg66
(lp653
S':'
asbag59
(g80
g61
NtRp654
(dp655
g64
(dp656
sg73
g642
sg66
(lp657
g59
(g60
g61
NtRp658
(dp659
g64
(dp660
g72
I3
ssg73
g654
sg66
(lp661
S''
asbasbasbag59
(g75
g61
NtRp662
(dp663
g64
(dp664
sg73
g598
sg66
(lp665
g59
(g80
g61
NtRp666
(dp667
g64
(dp668
g84
g85
ssg73
g662
sg66
(lp669
g336
asbag59
(g80
g61
NtRp670
(dp671
g64
(dp672
g91
g92
ssg73
g662
sg66
(lp673
S':'
asbag59
(g80
g61
NtRp674
(dp675
g64
(dp676
sg73
g662
sg66
(lp677
g59
(g60
g61
NtRp678
(dp679
g64
(dp680
g72
I3
ssg73
g674
sg66
(lp681
S''
asbasbasbag59
(g75
g61
NtRp682
(dp683
g64
(dp684
sg73
g598
sg66
(lp685
g59
(g80
g61
NtRp686
(dp687
g64
(dp688
g84
g85
ssg73
g682
sg66
(lp689
g357
asbag59
(g80
g61
NtRp690
(dp691
g64
(dp692
g91
g92
ssg73
g682
sg66
(lp693
S':'
asbag59
(g80
g61
NtRp694
(dp695
g64
(dp696
sg73
g682
sg66
(lp697
g59
(g60
g61
NtRp698
(dp699
g64
(dp700
g72
I3
ssg73
g694
sg66
(lp701
S''
asbasbasbag59
(g75
g61
NtRp702
(dp703
g64
(dp704
sg73
g598
sg66
(lp705
g59
(g80
g61
NtRp706
(dp707
g64
(dp708
g84
g85
ssg73
g702
sg66
(lp709
g378
asbag59
(g80
g61
NtRp710
(dp711
g64
(dp712
g91
g92
ssg73
g702
sg66
(lp713
S':'
asbag59
(g80
g61
NtRp714
(dp715
g64
(dp716
sg73
g702
sg66
(lp717
g59
(g60
g61
NtRp718
(dp719
g64
(dp720
g72
I3
ssg73
g714
sg66
(lp721
S''
asbasbasbag59
(g75
g61
NtRp722
(dp723
g64
(dp724
sg73
g598
sg66
(lp725
g59
(g80
g61
NtRp726
(dp727
g64
(dp728
g84
g85
ssg73
g722
sg66
(lp729
g399
asbag59
(g80
g61
NtRp730
(dp731
g64
(dp732
g91
g92
ssg73
g722
sg66
(lp733
S':'
asbag59
(g80
g61
NtRp734
(dp735
g64
(dp736
sg73
g722
sg66
(lp737
g59
(g60
g61
NtRp738
(dp739
g64
(dp740
g72
I3
ssg73
g734
sg66
(lp741
S''
asbasbasbasbasbasbasbasbasbasbasbag59
(g75
g61
NtRp742
(dp743
g64
(dp744
sg73
g69
sg66
(lp745
g59
(g80
g61
NtRp746
(dp747
g64
(dp748
g84
g85
ssg73
g742
sg66
(lp749
S'env'
p750
asbag59
(g80
g61
NtRp751
(dp752
g64
(dp753
g91
g92
ssg73
g742
sg66
(lp754
S':'
asbag59
(g80
g61
NtRp755
(dp756
g64
(dp757
sg73
g742
sg66
(lp758
g59
(g60
g61
NtRp759
(dp760
g64
(dp761
g72
I5
ssg73
g755
sg66
(lp762
g59
(g68
g61
NtRp763
(dp764
g64
(dp765
g72
I4
ssg73
Nsg66
(lp766
g59
(g75
g61
NtRp767
(dp768
g64
(dp769
sg73
g763
sg66
(lp770
g59
(g80
g61
NtRp771
(dp772
g64
(dp773
g84
g85
ssg73
g767
sg66
(lp774
S'app_folders'
p775
asbag59
(g80
g61
NtRp776
(dp777
g64
(dp778
g91
g92
ssg73
g767
sg66
(lp779
S':'
asbag59
(g80
g61
NtRp780
(dp781
g64
(dp782
sg73
g767
sg66
(lp783
g59
(g60
g61
NtRp784
(dp785
g64
(dp786
g72
I4
ssg73
g780
sg66
(lp787
S"set(['C:\\\\Users\\\\Atomico\\\\web2py\\\\applications\\\\welcome\\\\', 'C:\\\\Users\\\\Atomico\\\\web2py\\\\applications\\\\Desglosar_Emails\\\\', 'C:\\\\Users\\\\Atomico\\\\web2py\\\\applications\\\\admin\\\\'])"
p788
asbasbasbag59
(g75
g61
NtRp789
(dp790
g64
(dp791
sg73
g763
sg66
(lp792
g59
(g80
g61
NtRp793
(dp794
g64
(dp795
g84
g85
ssg73
g789
sg66
(lp796
S'applications_parent'
p797
asbag59
(g80
g61
NtRp798
(dp799
g64
(dp800
g91
g92
ssg73
g789
sg66
(lp801
S':'
asbag59
(g80
g61
NtRp802
(dp803
g64
(dp804
sg73
g789
sg66
(lp805
g59
(g60
g61
NtRp806
(dp807
g64
(dp808
g72
I4
ssg73
g802
sg66
(lp809
S'C:\\Users\\Atomico\\web2py'
p810
asbasbasbag59
(g75
g61
NtRp811
(dp812
g64
(dp813
sg73
g763
sg66
(lp814
g59
(g80
g61
NtRp815
(dp816
g64
(dp817
g84
g85
ssg73
g811
sg66
(lp818
S'cmd_args'
p819
asbag59
(g80
g61
NtRp820
(dp821
g64
(dp822
g91
g92
ssg73
g811
sg66
(lp823
S':'
asbag59
(g80
g61
NtRp824
(dp825
g64
(dp826
sg73
g811
sg66
(lp827
g59
(g60
g61
NtRp828
(dp829
g64
(dp830
g72
I4
ssg73
g824
sg66
(lp831
g59
(g68
g61
NtRp832
(dp833
g64
(dp834
g72
I3
ssg73
Nsg66
(lp835
sbasbasbasbag59
(g75
g61
NtRp836
(dp837
g64
(dp838
sg73
g763
sg66
(lp839
g59
(g80
g61
NtRp840
(dp841
g64
(dp842
g84
g85
ssg73
g836
sg66
(lp843
S'cmd_options'
p844
asbag59
(g80
g61
NtRp845
(dp846
g64
(dp847
g91
g92
ssg73
g836
sg66
(lp848
S':'
asbag59
(g80
g61
NtRp849
(dp850
g64
(dp851
sg73
g836
sg66
(lp852
g59
(g60
g61
NtRp853
(dp854
g64
(dp855
g72
I4
ssg73
g849
sg66
(lp856
S"<Values at 0x320d670: {'verbose': False, 'ip': '127.0.0.1', 'shutdown_timeout': 5, 'taskbar': False, 'port': 8000, 'maxthreads': None, 'softcron': False, 'server_name': 'Swing', 'bpython': False, 'nogui': False, 'nocron': False, 'extcron': False, 'debuglevel': 30, 'test': None, 'folder': 'C:\\\\Users\\\\Atomico\\\\web2py', 'config': '', 'import_models': False, 'winservice': '', 'shell': None, 'run': '', 'log_filename': 'httpserver.log', 'args': [''], 'profiler_filename': None, 'ssl_private_key': '', 'password': '<ask>', 'request_queue_size': 5, 'ssl_certificate': '', 'cronjob': False, 'plain': False, 'quiet': False, 'interfaces': None, 'minthreads': None, 'timeout': 10, 'numthreads': None, 'nobanner': False, 'pid_filename': 'httpserver.pid'}>"
p857
asbasbasbag59
(g75
g61
NtRp858
(dp859
g64
(dp860
sg73
g763
sg66
(lp861
g59
(g80
g61
NtRp862
(dp863
g64
(dp864
g84
g85
ssg73
g858
sg66
(lp865
S'db_sessions'
p866
asbag59
(g80
g61
NtRp867
(dp868
g64
(dp869
g91
g92
ssg73
g858
sg66
(lp870
S':'
asbag59
(g80
g61
NtRp871
(dp872
g64
(dp873
sg73
g858
sg66
(lp874
g59
(g60
g61
NtRp875
(dp876
g64
(dp877
g72
I4
ssg73
g871
sg66
(lp878
S'set([])'
p879
asbasbasbag59
(g75
g61
NtRp880
(dp881
g64
(dp882
sg73
g763
sg66
(lp883
g59
(g80
g61
NtRp884
(dp885
g64
(dp886
g84
g85
ssg73
g880
sg66
(lp887
S'debugging'
p888
asbag59
(g80
g61
NtRp889
(dp890
g64
(dp891
g91
g92
ssg73
g880
sg66
(lp892
S':'
asbag59
(g80
g61
NtRp893
(dp894
g64
(dp895
sg73
g880
sg66
(lp896
g59
(g60
g61
NtRp897
(dp898
g64
(dp899
g72
I4
ssg73
g893
sg66
(lp900
g102
asbasbasbag59
(g75
g61
NtRp901
(dp902
g64
(dp903
sg73
g763
sg66
(lp904
g59
(g80
g61
NtRp905
(dp906
g64
(dp907
g84
g85
ssg73
g901
sg66
(lp908
S'gluon_parent'
p909
asbag59
(g80
g61
NtRp910
(dp911
g64
(dp912
g91
g92
ssg73
g901
sg66
(lp913
S':'
asbag59
(g80
g61
NtRp914
(dp915
g64
(dp916
sg73
g901
sg66
(lp917
g59
(g60
g61
NtRp918
(dp919
g64
(dp920
g72
I4
ssg73
g914
sg66
(lp921
S'C:\\Users\\Atomico\\web2py'
p922
asbasbasbag59
(g75
g61
NtRp923
(dp924
g64
(dp925
sg73
g763
sg66
(lp926
g59
(g80
g61
NtRp927
(dp928
g64
(dp929
g84
g85
ssg73
g923
sg66
(lp930
S'http_accept'
p931
asbag59
(g80
g61
NtRp932
(dp933
g64
(dp934
g91
g92
ssg73
g923
sg66
(lp935
S':'
asbag59
(g80
g61
NtRp936
(dp937
g64
(dp938
sg73
g923
sg66
(lp939
g59
(g60
g61
NtRp940
(dp941
g64
(dp942
g72
I4
ssg73
g936
sg66
(lp943
S'text/html,application/xhtml+xml,application/xml;q=0.9,*/*;q=0.8'
p944
asbasbasbag59
(g75
g61
NtRp945
(dp946
g64
(dp947
sg73
g763
sg66
(lp948
g59
(g80
g61
NtRp949
(dp950
g64
(dp951
g84
g85
ssg73
g945
sg66
(lp952
S'http_accept_charset'
p953
asbag59
(g80
g61
NtRp954
(dp955
g64
(dp956
g91
g92
ssg73
g945
sg66
(lp957
S':'
asbag59
(g80
g61
NtRp958
(dp959
g64
(dp960
sg73
g945
sg66
(lp961
g59
(g60
g61
NtRp962
(dp963
g64
(dp964
g72
I4
ssg73
g958
sg66
(lp965
S'ISO-8859-1,utf-8;q=0.7,*;q=0.7'
p966
asbasbasbag59
(g75
g61
NtRp967
(dp968
g64
(dp969
sg73
g763
sg66
(lp970
g59
(g80
g61
NtRp971
(dp972
g64
(dp973
g84
g85
ssg73
g967
sg66
(lp974
S'http_accept_encoding'
p975
asbag59
(g80
g61
NtRp976
(dp977
g64
(dp978
g91
g92
ssg73
g967
sg66
(lp979
S':'
asbag59
(g80
g61
NtRp980
(dp981
g64
(dp982
sg73
g967
sg66
(lp983
g59
(g60
g61
NtRp984
(dp985
g64
(dp986
g72
I4
ssg73
g980
sg66
(lp987
S'gzip, deflate'
p988
asbasbasbag59
(g75
g61
NtRp989
(dp990
g64
(dp991
sg73
g763
sg66
(lp992
g59
(g80
g61
NtRp993
(dp994
g64
(dp995
g84
g85
ssg73
g989
sg66
(lp996
S'http_accept_language'
p997
asbag59
(g80
g61
NtRp998
(dp999
g64
(dp1000
g91
g92
ssg73
g989
sg66
(lp1001
S':'
asbag59
(g80
g61
NtRp1002
(dp1003
g64
(dp1004
sg73
g989
sg66
(lp1005
g59
(g60
g61
NtRp1006
(dp1007
g64
(dp1008
g72
I4
ssg73
g1002
sg66
(lp1009
S'es-es,es;q=0.8,en-us;q=0.5,en;q=0.3'
p1010
asbasbasbag59
(g75
g61
NtRp1011
(dp1012
g64
(dp1013
sg73
g763
sg66
(lp1014
g59
(g80
g61
NtRp1015
(dp1016
g64
(dp1017
g84
g85
ssg73
g1011
sg66
(lp1018
S'http_cache_control'
p1019
asbag59
(g80
g61
NtRp1020
(dp1021
g64
(dp1022
g91
g92
ssg73
g1011
sg66
(lp1023
S':'
asbag59
(g80
g61
NtRp1024
(dp1025
g64
(dp1026
sg73
g1011
sg66
(lp1027
g59
(g60
g61
NtRp1028
(dp1029
g64
(dp1030
g72
I4
ssg73
g1024
sg66
(lp1031
S'max-age=0'
p1032
asbasbasbag59
(g75
g61
NtRp1033
(dp1034
g64
(dp1035
sg73
g763
sg66
(lp1036
g59
(g80
g61
NtRp1037
(dp1038
g64
(dp1039
g84
g85
ssg73
g1033
sg66
(lp1040
S'http_connection'
p1041
asbag59
(g80
g61
NtRp1042
(dp1043
g64
(dp1044
g91
g92
ssg73
g1033
sg66
(lp1045
S':'
asbag59
(g80
g61
NtRp1046
(dp1047
g64
(dp1048
sg73
g1033
sg66
(lp1049
g59
(g60
g61
NtRp1050
(dp1051
g64
(dp1052
g72
I4
ssg73
g1046
sg66
(lp1053
S'keep-alive'
p1054
asbasbasbag59
(g75
g61
NtRp1055
(dp1056
g64
(dp1057
sg73
g763
sg66
(lp1058
g59
(g80
g61
NtRp1059
(dp1060
g64
(dp1061
g84
g85
ssg73
g1055
sg66
(lp1062
S'http_cookie'
p1063
asbag59
(g80
g61
NtRp1064
(dp1065
g64
(dp1066
g91
g92
ssg73
g1055
sg66
(lp1067
S':'
asbag59
(g80
g61
NtRp1068
(dp1069
g64
(dp1070
sg73
g1055
sg66
(lp1071
g59
(g60
g61
NtRp1072
(dp1073
g64
(dp1074
g72
I4
ssg73
g1068
sg66
(lp1075
S'session_id_welcome=127.0.0.1-8ed6c32d-8fd0-4b1c-90b9-5ca338694721; session_id_admin=127.0.0.1-6a6b387e-6197-4823-811c-8b755eaf84a2; session_id_desglosar_emails=127.0.0.1-c2891e73-e00c-4371-88c4-c01d892c385e'
p1076
asbasbasbag59
(g75
g61
NtRp1077
(dp1078
g64
(dp1079
sg73
g763
sg66
(lp1080
g59
(g80
g61
NtRp1081
(dp1082
g64
(dp1083
g84
g85
ssg73
g1077
sg66
(lp1084
S'http_host'
p1085
asbag59
(g80
g61
NtRp1086
(dp1087
g64
(dp1088
g91
g92
ssg73
g1077
sg66
(lp1089
S':'
asbag59
(g80
g61
NtRp1090
(dp1091
g64
(dp1092
sg73
g1077
sg66
(lp1093
g59
(g60
g61
NtRp1094
(dp1095
g64
(dp1096
g72
I4
ssg73
g1090
sg66
(lp1097
S'127.0.0.1:8000'
p1098
asbasbasbag59
(g75
g61
NtRp1099
(dp1100
g64
(dp1101
sg73
g763
sg66
(lp1102
g59
(g80
g61
NtRp1103
(dp1104
g64
(dp1105
g84
g85
ssg73
g1099
sg66
(lp1106
S'http_user_agent'
p1107
asbag59
(g80
g61
NtRp1108
(dp1109
g64
(dp1110
g91
g92
ssg73
g1099
sg66
(lp1111
S':'
asbag59
(g80
g61
NtRp1112
(dp1113
g64
(dp1114
sg73
g1099
sg66
(lp1115
g59
(g60
g61
NtRp1116
(dp1117
g64
(dp1118
g72
I4
ssg73
g1112
sg66
(lp1119
S'Mozilla/5.0 (Windows NT 6.1; WOW64; rv:6.0.2) Gecko/20100101 Firefox/6.0.2'
p1120
asbasbasbag59
(g75
g61
NtRp1121
(dp1122
g64
(dp1123
sg73
g763
sg66
(lp1124
g59
(g80
g61
NtRp1125
(dp1126
g64
(dp1127
g84
g85
ssg73
g1121
sg66
(lp1128
S'is_jython'
p1129
asbag59
(g80
g61
NtRp1130
(dp1131
g64
(dp1132
g91
g92
ssg73
g1121
sg66
(lp1133
S':'
asbag59
(g80
g61
NtRp1134
(dp1135
g64
(dp1136
sg73
g1121
sg66
(lp1137
g59
(g60
g61
NtRp1138
(dp1139
g64
(dp1140
g72
I4
ssg73
g1134
sg66
(lp1141
g102
asbasbasbag59
(g75
g61
NtRp1142
(dp1143
g64
(dp1144
sg73
g763
sg66
(lp1145
g59
(g80
g61
NtRp1146
(dp1147
g64
(dp1148
g84
g85
ssg73
g1142
sg66
(lp1149
S'path_info'
p1150
asbag59
(g80
g61
NtRp1151
(dp1152
g64
(dp1153
g91
g92
ssg73
g1142
sg66
(lp1154
S':'
asbag59
(g80
g61
NtRp1155
(dp1156
g64
(dp1157
sg73
g1142
sg66
(lp1158
g59
(g60
g61
NtRp1159
(dp1160
g64
(dp1161
g72
I4
ssg73
g1155
sg66
(lp1162
S'/Desglosar_Emails/default/entrada_borrar'
p1163
asbasbasbag59
(g75
g61
NtRp1164
(dp1165
g64
(dp1166
sg73
g763
sg66
(lp1167
g59
(g80
g61
NtRp1168
(dp1169
g64
(dp1170
g84
g85
ssg73
g1164
sg66
(lp1171
S'query_string'
p1172
asbag59
(g80
g61
NtRp1173
(dp1174
g64
(dp1175
g91
g92
ssg73
g1164
sg66
(lp1176
S':'
asbag59
(g80
g61
NtRp1177
(dp1178
g64
(dp1179
sg73
g1164
sg66
(lp1180
g59
(g60
g61
NtRp1181
(dp1182
g64
(dp1183
g72
I4
ssg73
g1177
sg66
(lp1184
S''
asbasbasbag59
(g75
g61
NtRp1185
(dp1186
g64
(dp1187
sg73
g763
sg66
(lp1188
g59
(g80
g61
NtRp1189
(dp1190
g64
(dp1191
g84
g85
ssg73
g1185
sg66
(lp1192
S'remote_addr'
p1193
asbag59
(g80
g61
NtRp1194
(dp1195
g64
(dp1196
g91
g92
ssg73
g1185
sg66
(lp1197
S':'
asbag59
(g80
g61
NtRp1198
(dp1199
g64
(dp1200
sg73
g1185
sg66
(lp1201
g59
(g60
g61
NtRp1202
(dp1203
g64
(dp1204
g72
I4
ssg73
g1198
sg66
(lp1205
g192
asbasbasbag59
(g75
g61
NtRp1206
(dp1207
g64
(dp1208
sg73
g763
sg66
(lp1209
g59
(g80
g61
NtRp1210
(dp1211
g64
(dp1212
g84
g85
ssg73
g1206
sg66
(lp1213
S'remote_port'
p1214
asbag59
(g80
g61
NtRp1215
(dp1216
g64
(dp1217
g91
g92
ssg73
g1206
sg66
(lp1218
S':'
asbag59
(g80
g61
NtRp1219
(dp1220
g64
(dp1221
sg73
g1206
sg66
(lp1222
g59
(g60
g61
NtRp1223
(dp1224
g64
(dp1225
g72
I4
ssg73
g1219
sg66
(lp1226
S'58345'
p1227
asbasbasbag59
(g75
g61
NtRp1228
(dp1229
g64
(dp1230
sg73
g763
sg66
(lp1231
g59
(g80
g61
NtRp1232
(dp1233
g64
(dp1234
g84
g85
ssg73
g1228
sg66
(lp1235
S'request_method'
p1236
asbag59
(g80
g61
NtRp1237
(dp1238
g64
(dp1239
g91
g92
ssg73
g1228
sg66
(lp1240
S':'
asbag59
(g80
g61
NtRp1241
(dp1242
g64
(dp1243
sg73
g1228
sg66
(lp1244
g59
(g60
g61
NtRp1245
(dp1246
g64
(dp1247
g72
I4
ssg73
g1241
sg66
(lp1248
S'GET'
p1249
asbasbasbag59
(g75
g61
NtRp1250
(dp1251
g64
(dp1252
sg73
g763
sg66
(lp1253
g59
(g80
g61
NtRp1254
(dp1255
g64
(dp1256
g84
g85
ssg73
g1250
sg66
(lp1257
S'script_name'
p1258
asbag59
(g80
g61
NtRp1259
(dp1260
g64
(dp1261
g91
g92
ssg73
g1250
sg66
(lp1262
S':'
asbag59
(g80
g61
NtRp1263
(dp1264
g64
(dp1265
sg73
g1250
sg66
(lp1266
g59
(g60
g61
NtRp1267
(dp1268
g64
(dp1269
g72
I4
ssg73
g1263
sg66
(lp1270
S''
asbasbasbag59
(g75
g61
NtRp1271
(dp1272
g64
(dp1273
sg73
g763
sg66
(lp1274
g59
(g80
g61
NtRp1275
(dp1276
g64
(dp1277
g84
g85
ssg73
g1271
sg66
(lp1278
S'server_name'
p1279
asbag59
(g80
g61
NtRp1280
(dp1281
g64
(dp1282
g91
g92
ssg73
g1271
sg66
(lp1283
S':'
asbag59
(g80
g61
NtRp1284
(dp1285
g64
(dp1286
sg73
g1271
sg66
(lp1287
g59
(g60
g61
NtRp1288
(dp1289
g64
(dp1290
g72
I4
ssg73
g1284
sg66
(lp1291
S'Swing'
p1292
asbasbasbag59
(g75
g61
NtRp1293
(dp1294
g64
(dp1295
sg73
g763
sg66
(lp1296
g59
(g80
g61
NtRp1297
(dp1298
g64
(dp1299
g84
g85
ssg73
g1293
sg66
(lp1300
S'server_port'
p1301
asbag59
(g80
g61
NtRp1302
(dp1303
g64
(dp1304
g91
g92
ssg73
g1293
sg66
(lp1305
S':'
asbag59
(g80
g61
NtRp1306
(dp1307
g64
(dp1308
sg73
g1293
sg66
(lp1309
g59
(g60
g61
NtRp1310
(dp1311
g64
(dp1312
g72
I4
ssg73
g1306
sg66
(lp1313
S'8000'
p1314
asbasbasbag59
(g75
g61
NtRp1315
(dp1316
g64
(dp1317
sg73
g763
sg66
(lp1318
g59
(g80
g61
NtRp1319
(dp1320
g64
(dp1321
g84
g85
ssg73
g1315
sg66
(lp1322
S'server_protocol'
p1323
asbag59
(g80
g61
NtRp1324
(dp1325
g64
(dp1326
g91
g92
ssg73
g1315
sg66
(lp1327
S':'
asbag59
(g80
g61
NtRp1328
(dp1329
g64
(dp1330
sg73
g1315
sg66
(lp1331
g59
(g60
g61
NtRp1332
(dp1333
g64
(dp1334
g72
I4
ssg73
g1328
sg66
(lp1335
S'HTTP/1.1'
p1336
asbasbasbag59
(g75
g61
NtRp1337
(dp1338
g64
(dp1339
sg73
g763
sg66
(lp1340
g59
(g80
g61
NtRp1341
(dp1342
g64
(dp1343
g84
g85
ssg73
g1337
sg66
(lp1344
S'server_software'
p1345
asbag59
(g80
g61
NtRp1346
(dp1347
g64
(dp1348
g91
g92
ssg73
g1337
sg66
(lp1349
S':'
asbag59
(g80
g61
NtRp1350
(dp1351
g64
(dp1352
sg73
g1337
sg66
(lp1353
g59
(g60
g61
NtRp1354
(dp1355
g64
(dp1356
g72
I4
ssg73
g1350
sg66
(lp1357
S'Rocket 1.2.2'
p1358
asbasbasbag59
(g75
g61
NtRp1359
(dp1360
g64
(dp1361
sg73
g763
sg66
(lp1362
g59
(g80
g61
NtRp1363
(dp1364
g64
(dp1365
g84
g85
ssg73
g1359
sg66
(lp1366
S'web2py_crontype'
p1367
asbag59
(g80
g61
NtRp1368
(dp1369
g64
(dp1370
g91
g92
ssg73
g1359
sg66
(lp1371
S':'
asbag59
(g80
g61
NtRp1372
(dp1373
g64
(dp1374
sg73
g1359
sg66
(lp1375
g59
(g60
g61
NtRp1376
(dp1377
g64
(dp1378
g72
I4
ssg73
g1372
sg66
(lp1379
S'hard'
p1380
asbasbasbag59
(g75
g61
NtRp1381
(dp1382
g64
(dp1383
sg73
g763
sg66
(lp1384
g59
(g80
g61
NtRp1385
(dp1386
g64
(dp1387
g84
g85
ssg73
g1381
sg66
(lp1388
S'web2py_path'
p1389
asbag59
(g80
g61
NtRp1390
(dp1391
g64
(dp1392
g91
g92
ssg73
g1381
sg66
(lp1393
S':'
asbag59
(g80
g61
NtRp1394
(dp1395
g64
(dp1396
sg73
g1381
sg66
(lp1397
g59
(g60
g61
NtRp1398
(dp1399
g64
(dp1400
g72
I4
ssg73
g1394
sg66
(lp1401
g810
asbasbasbag59
(g75
g61
NtRp1402
(dp1403
g64
(dp1404
sg73
g763
sg66
(lp1405
g59
(g80
g61
NtRp1406
(dp1407
g64
(dp1408
g84
g85
ssg73
g1402
sg66
(lp1409
S'web2py_version'
p1410
asbag59
(g80
g61
NtRp1411
(dp1412
g64
(dp1413
g91
g92
ssg73
g1402
sg66
(lp1414
S':'
asbag59
(g80
g61
NtRp1415
(dp1416
g64
(dp1417
sg73
g1402
sg66
(lp1418
g59
(g60
g61
NtRp1419
(dp1420
g64
(dp1421
g72
I4
ssg73
g1415
sg66
(lp1422
S'Version 1.98.2 (2011-08-04 00:47:09)\n'
p1423
asbasbasbag59
(g75
g61
NtRp1424
(dp1425
g64
(dp1426
sg73
g763
sg66
(lp1427
g59
(g80
g61
NtRp1428
(dp1429
g64
(dp1430
g84
g85
ssg73
g1424
sg66
(lp1431
S'wsgi_errors'
p1432
asbag59
(g80
g61
NtRp1433
(dp1434
g64
(dp1435
g91
g92
ssg73
g1424
sg66
(lp1436
S':'
asbag59
(g80
g61
NtRp1437
(dp1438
g64
(dp1439
sg73
g1424
sg66
(lp1440
g59
(g60
g61
NtRp1441
(dp1442
g64
(dp1443
g72
I4
ssg73
g1437
sg66
(lp1444
S"<open file '<stderr>', mode 'w' at 0x020500B0>"
p1445
asbasbasbag59
(g75
g61
NtRp1446
(dp1447
g64
(dp1448
sg73
g763
sg66
(lp1449
g59
(g80
g61
NtRp1450
(dp1451
g64
(dp1452
g84
g85
ssg73
g1446
sg66
(lp1453
S'wsgi_file_wrapper'
p1454
asbag59
(g80
g61
NtRp1455
(dp1456
g64
(dp1457
g91
g92
ssg73
g1446
sg66
(lp1458
S':'
asbag59
(g80
g61
NtRp1459
(dp1460
g64
(dp1461
sg73
g1446
sg66
(lp1462
g59
(g60
g61
NtRp1463
(dp1464
g64
(dp1465
g72
I4
ssg73
g1459
sg66
(lp1466
S'<class gluon.rocket.FileWrapper at 0x031931B0>'
p1467
asbasbasbag59
(g75
g61
NtRp1468
(dp1469
g64
(dp1470
sg73
g763
sg66
(lp1471
g59
(g80
g61
NtRp1472
(dp1473
g64
(dp1474
g84
g85
ssg73
g1468
sg66
(lp1475
S'wsgi_input'
p1476
asbag59
(g80
g61
NtRp1477
(dp1478
g64
(dp1479
g91
g92
ssg73
g1468
sg66
(lp1480
S':'
asbag59
(g80
g61
NtRp1481
(dp1482
g64
(dp1483
sg73
g1468
sg66
(lp1484
g59
(g60
g61
NtRp1485
(dp1486
g64
(dp1487
g72
I4
ssg73
g1481
sg66
(lp1488
S'<socket._fileobject object at 0x075F76B0>'
p1489
asbasbasbag59
(g75
g61
NtRp1490
(dp1491
g64
(dp1492
sg73
g763
sg66
(lp1493
g59
(g80
g61
NtRp1494
(dp1495
g64
(dp1496
g84
g85
ssg73
g1490
sg66
(lp1497
S'wsgi_multiprocess'
p1498
asbag59
(g80
g61
NtRp1499
(dp1500
g64
(dp1501
g91
g92
ssg73
g1490
sg66
(lp1502
S':'
asbag59
(g80
g61
NtRp1503
(dp1504
g64
(dp1505
sg73
g1490
sg66
(lp1506
g59
(g60
g61
NtRp1507
(dp1508
g64
(dp1509
g72
I4
ssg73
g1503
sg66
(lp1510
g102
asbasbasbag59
(g75
g61
NtRp1511
(dp1512
g64
(dp1513
sg73
g763
sg66
(lp1514
g59
(g80
g61
NtRp1515
(dp1516
g64
(dp1517
g84
g85
ssg73
g1511
sg66
(lp1518
S'wsgi_multithread'
p1519
asbag59
(g80
g61
NtRp1520
(dp1521
g64
(dp1522
g91
g92
ssg73
g1511
sg66
(lp1523
S':'
asbag59
(g80
g61
NtRp1524
(dp1525
g64
(dp1526
sg73
g1511
sg66
(lp1527
g59
(g60
g61
NtRp1528
(dp1529
g64
(dp1530
g72
I4
ssg73
g1524
sg66
(lp1531
S'True'
p1532
asbasbasbag59
(g75
g61
NtRp1533
(dp1534
g64
(dp1535
sg73
g763
sg66
(lp1536
g59
(g80
g61
NtRp1537
(dp1538
g64
(dp1539
g84
g85
ssg73
g1533
sg66
(lp1540
S'wsgi_run_once'
p1541
asbag59
(g80
g61
NtRp1542
(dp1543
g64
(dp1544
g91
g92
ssg73
g1533
sg66
(lp1545
S':'
asbag59
(g80
g61
NtRp1546
(dp1547
g64
(dp1548
sg73
g1533
sg66
(lp1549
g59
(g60
g61
NtRp1550
(dp1551
g64
(dp1552
g72
I4
ssg73
g1546
sg66
(lp1553
g102
asbasbasbag59
(g75
g61
NtRp1554
(dp1555
g64
(dp1556
sg73
g763
sg66
(lp1557
g59
(g80
g61
NtRp1558
(dp1559
g64
(dp1560
g84
g85
ssg73
g1554
sg66
(lp1561
S'wsgi_url_scheme'
p1562
asbag59
(g80
g61
NtRp1563
(dp1564
g64
(dp1565
g91
g92
ssg73
g1554
sg66
(lp1566
S':'
asbag59
(g80
g61
NtRp1567
(dp1568
g64
(dp1569
sg73
g1554
sg66
(lp1570
g59
(g60
g61
NtRp1571
(dp1572
g64
(dp1573
g72
I4
ssg73
g1567
sg66
(lp1574
S'http'
p1575
asbasbasbag59
(g75
g61
NtRp1576
(dp1577
g64
(dp1578
sg73
g763
sg66
(lp1579
g59
(g80
g61
NtRp1580
(dp1581
g64
(dp1582
g84
g85
ssg73
g1576
sg66
(lp1583
S'wsgi_version'
p1584
asbag59
(g80
g61
NtRp1585
(dp1586
g64
(dp1587
g91
g92
ssg73
g1576
sg66
(lp1588
S':'
asbag59
(g80
g61
NtRp1589
(dp1590
g64
(dp1591
sg73
g1576
sg66
(lp1592
g59
(g60
g61
NtRp1593
(dp1594
g64
(dp1595
g72
I4
ssg73
g1589
sg66
(lp1596
g59
(g68
g61
NtRp1597
(dp1598
g64
(dp1599
g72
I3
ssg73
Nsg66
(lp1600
g59
(g75
g61
NtRp1601
(dp1602
g64
(dp1603
sg73
g1597
sg66
(lp1604
g59
(g80
g61
NtRp1605
(dp1606
g64
(dp1607
sg73
g1601
sg66
(lp1608
g59
(g60
g61
NtRp1609
(dp1610
g64
(dp1611
g72
I3
ssg73
g1605
sg66
(lp1612
S'1'
asbasbasbag59
(g75
g61
NtRp1613
(dp1614
g64
(dp1615
sg73
g1597
sg66
(lp1616
g59
(g80
g61
NtRp1617
(dp1618
g64
(dp1619
sg73
g1613
sg66
(lp1620
g59
(g60
g61
NtRp1621
(dp1622
g64
(dp1623
g72
I3
ssg73
g1617
sg66
(lp1624
S'0'
asbasbasbasbasbasbasbasbasbasbasbag59
(g75
g61
NtRp1625
(dp1626
g64
(dp1627
sg73
g69
sg66
(lp1628
g59
(g80
g61
NtRp1629
(dp1630
g64
(dp1631
g84
g85
ssg73
g1625
sg66
(lp1632
S'extension'
p1633
asbag59
(g80
g61
NtRp1634
(dp1635
g64
(dp1636
g91
g92
ssg73
g1625
sg66
(lp1637
S':'
asbag59
(g80
g61
NtRp1638
(dp1639
g64
(dp1640
sg73
g1625
sg66
(lp1641
g59
(g60
g61
NtRp1642
(dp1643
g64
(dp1644
g72
I5
ssg73
g1638
sg66
(lp1645
S'html'
p1646
asbasbasbag59
(g75
g61
NtRp1647
(dp1648
g64
(dp1649
sg73
g69
sg66
(lp1650
g59
(g80
g61
NtRp1651
(dp1652
g64
(dp1653
g84
g85
ssg73
g1647
sg66
(lp1654
S'folder'
p1655
asbag59
(g80
g61
NtRp1656
(dp1657
g64
(dp1658
g91
g92
ssg73
g1647
sg66
(lp1659
S':'
asbag59
(g80
g61
NtRp1660
(dp1661
g64
(dp1662
sg73
g1647
sg66
(lp1663
g59
(g60
g61
NtRp1664
(dp1665
g64
(dp1666
g72
I5
ssg73
g1660
sg66
(lp1667
S'C:\\Users\\Atomico\\web2py\\applications\\Desglosar_Emails\\'
p1668
asbasbasbag59
(g75
g61
NtRp1669
(dp1670
g64
(dp1671
sg73
g69
sg66
(lp1672
g59
(g80
g61
NtRp1673
(dp1674
g64
(dp1675
g84
g85
ssg73
g1669
sg66
(lp1676
S'function'
p1677
asbag59
(g80
g61
NtRp1678
(dp1679
g64
(dp1680
g91
g92
ssg73
g1669
sg66
(lp1681
S':'
asbag59
(g80
g61
NtRp1682
(dp1683
g64
(dp1684
sg73
g1669
sg66
(lp1685
g59
(g60
g61
NtRp1686
(dp1687
g64
(dp1688
g72
I5
ssg73
g1682
sg66
(lp1689
S'entrada_borrar'
p1690
asbasbasbag59
(g75
g61
NtRp1691
(dp1692
g64
(dp1693
sg73
g69
sg66
(lp1694
g59
(g80
g61
NtRp1695
(dp1696
g64
(dp1697
g84
g85
ssg73
g1691
sg66
(lp1698
S'get_vars'
p1699
asbag59
(g80
g61
NtRp1700
(dp1701
g64
(dp1702
g91
g92
ssg73
g1691
sg66
(lp1703
S':'
asbag59
(g80
g61
NtRp1704
(dp1705
g64
(dp1706
sg73
g1691
sg66
(lp1707
g59
(g60
g61
NtRp1708
(dp1709
g64
(dp1710
g72
I5
ssg73
g1704
sg66
(lp1711
g59
(g68
g61
NtRp1712
(dp1713
g64
(dp1714
g72
I4
ssg73
Nsg66
(lp1715
sbasbasbasbag59
(g75
g61
NtRp1716
(dp1717
g64
(dp1718
sg73
g69
sg66
(lp1719
g59
(g80
g61
NtRp1720
(dp1721
g64
(dp1722
g84
g85
ssg73
g1716
sg66
(lp1723
S'is_https'
p1724
asbag59
(g80
g61
NtRp1725
(dp1726
g64
(dp1727
g91
g92
ssg73
g1716
sg66
(lp1728
S':'
asbag59
(g80
g61
NtRp1729
(dp1730
g64
(dp1731
sg73
g1716
sg66
(lp1732
g59
(g60
g61
NtRp1733
(dp1734
g64
(dp1735
g72
I5
ssg73
g1729
sg66
(lp1736
g102
asbasbasbag59
(g75
g61
NtRp1737
(dp1738
g64
(dp1739
sg73
g69
sg66
(lp1740
g59
(g80
g61
NtRp1741
(dp1742
g64
(dp1743
g84
g85
ssg73
g1737
sg66
(lp1744
S'is_local'
p1745
asbag59
(g80
g61
NtRp1746
(dp1747
g64
(dp1748
g91
g92
ssg73
g1737
sg66
(lp1749
S':'
asbag59
(g80
g61
NtRp1750
(dp1751
g64
(dp1752
sg73
g1737
sg66
(lp1753
g59
(g60
g61
NtRp1754
(dp1755
g64
(dp1756
g72
I5
ssg73
g1750
sg66
(lp1757
g1532
asbasbasbag59
(g75
g61
NtRp1758
(dp1759
g64
(dp1760
sg73
g69
sg66
(lp1761
g59
(g80
g61
NtRp1762
(dp1763
g64
(dp1764
g84
g85
ssg73
g1758
sg66
(lp1765
S'is_restful'
p1766
asbag59
(g80
g61
NtRp1767
(dp1768
g64
(dp1769
g91
g92
ssg73
g1758
sg66
(lp1770
S':'
asbag59
(g80
g61
NtRp1771
(dp1772
g64
(dp1773
sg73
g1758
sg66
(lp1774
g59
(g60
g61
NtRp1775
(dp1776
g64
(dp1777
g72
I5
ssg73
g1771
sg66
(lp1778
g102
asbasbasbag59
(g75
g61
NtRp1779
(dp1780
g64
(dp1781
sg73
g69
sg66
(lp1782
g59
(g80
g61
NtRp1783
(dp1784
g64
(dp1785
g84
g85
ssg73
g1779
sg66
(lp1786
S'now'
p1787
asbag59
(g80
g61
NtRp1788
(dp1789
g64
(dp1790
g91
g92
ssg73
g1779
sg66
(lp1791
S':'
asbag59
(g80
g61
NtRp1792
(dp1793
g64
(dp1794
sg73
g1779
sg66
(lp1795
g59
(g60
g61
NtRp1796
(dp1797
g64
(dp1798
g72
I5
ssg73
g1792
sg66
(lp1799
S'datetime.datetime(2011, 9, 21, 14, 17, 13, 713000)'
p1800
asbasbasbag59
(g75
g61
NtRp1801
(dp1802
g64
(dp1803
sg73
g69
sg66
(lp1804
g59
(g80
g61
NtRp1805
(dp1806
g64
(dp1807
g84
g85
ssg73
g1801
sg66
(lp1808
S'post_vars'
p1809
asbag59
(g80
g61
NtRp1810
(dp1811
g64
(dp1812
g91
g92
ssg73
g1801
sg66
(lp1813
S':'
asbag59
(g80
g61
NtRp1814
(dp1815
g64
(dp1816
sg73
g1801
sg66
(lp1817
g59
(g60
g61
NtRp1818
(dp1819
g64
(dp1820
g72
I5
ssg73
g1814
sg66
(lp1821
g59
(g68
g61
NtRp1822
(dp1823
g64
(dp1824
g72
I4
ssg73
Nsg66
(lp1825
sbasbasbasbag59
(g75
g61
NtRp1826
(dp1827
g64
(dp1828
sg73
g69
sg66
(lp1829
g59
(g80
g61
NtRp1830
(dp1831
g64
(dp1832
g84
g85
ssg73
g1826
sg66
(lp1833
S'url'
p1834
asbag59
(g80
g61
NtRp1835
(dp1836
g64
(dp1837
g91
g92
ssg73
g1826
sg66
(lp1838
S':'
asbag59
(g80
g61
NtRp1839
(dp1840
g64
(dp1841
sg73
g1826
sg66
(lp1842
g59
(g60
g61
NtRp1843
(dp1844
g64
(dp1845
g72
I5
ssg73
g1839
sg66
(lp1846
S'/Desglosar_Emails/default/entrada_borrar'
p1847
asbasbasbag59
(g75
g61
NtRp1848
(dp1849
g64
(dp1850
sg73
g69
sg66
(lp1851
g59
(g80
g61
NtRp1852
(dp1853
g64
(dp1854
g84
g85
ssg73
g1848
sg66
(lp1855
S'uuid'
p1856
asbag59
(g80
g61
NtRp1857
(dp1858
g64
(dp1859
g91
g92
ssg73
g1848
sg66
(lp1860
S':'
asbag59
(g80
g61
NtRp1861
(dp1862
g64
(dp1863
sg73
g1848
sg66
(lp1864
g59
(g60
g61
NtRp1865
(dp1866
g64
(dp1867
g72
I5
ssg73
g1861
sg66
(lp1868
S'Desglosar_Emails/127.0.0.1.2011-09-21.14-17-13.fe31b741-a970-4e80-ae70-9b43e90be9e7'
p1869
asbasbasbag59
(g75
g61
NtRp1870
(dp1871
g64
(dp1872
sg73
g69
sg66
(lp1873
g59
(g80
g61
NtRp1874
(dp1875
g64
(dp1876
g84
g85
ssg73
g1870
sg66
(lp1877
S'vars'
p1878
asbag59
(g80
g61
NtRp1879
(dp1880
g64
(dp1881
g91
g92
ssg73
g1870
sg66
(lp1882
S':'
asbag59
(g80
g61
NtRp1883
(dp1884
g64
(dp1885
sg73
g1870
sg66
(lp1886
g59
(g60
g61
NtRp1887
(dp1888
g64
(dp1889
g72
I5
ssg73
g1883
sg66
(lp1890
g59
(g68
g61
NtRp1891
(dp1892
g64
(dp1893
g72
I4
ssg73
Nsg66
(lp1894
sbasbasbasbag59
(g75
g61
NtRp1895
(dp1896
g64
(dp1897
sg73
g69
sg66
(lp1898
g59
(g80
g61
NtRp1899
(dp1900
g64
(dp1901
g84
g85
ssg73
g1895
sg66
(lp1902
S'wsgi'
p1903
asbag59
(g80
g61
NtRp1904
(dp1905
g64
(dp1906
g91
g92
ssg73
g1895
sg66
(lp1907
S':'
asbag59
(g80
g61
NtRp1908
(dp1909
g64
(dp1910
sg73
g1895
sg66
(lp1911
g59
(g60
g61
NtRp1912
(dp1913
g64
(dp1914
g72
I5
ssg73
g1908
sg66
(lp1915
g59
(g68
g61
NtRp1916
(dp1917
g64
(dp1918
g72
I4
ssg73
Nsg66
(lp1919
g59
(g75
g61
NtRp1920
(dp1921
g64
(dp1922
sg73
g1916
sg66
(lp1923
g59
(g80
g61
NtRp1924
(dp1925
g64
(dp1926
g84
g85
ssg73
g1920
sg66
(lp1927
S'environ'
p1928
asbag59
(g80
g61
NtRp1929
(dp1930
g64
(dp1931
g91
g92
ssg73
g1920
sg66
(lp1932
S':'
asbag59
(g80
g61
NtRp1933
(dp1934
g64
(dp1935
sg73
g1920
sg66
(lp1936
g59
(g60
g61
NtRp1937
(dp1938
g64
(dp1939
g72
I4
ssg73
g1933
sg66
(lp1940
g59
(g68
g61
NtRp1941
(dp1942
g64
(dp1943
g72
I3
ssg73
Nsg66
(lp1944
g59
(g75
g61
NtRp1945
(dp1946
g64
(dp1947
sg73
g1941
sg66
(lp1948
g59
(g80
g61
NtRp1949
(dp1950
g64
(dp1951
g84
g85
ssg73
g1945
sg66
(lp1952
S'HTTP_ACCEPT'
p1953
asbag59
(g80
g61
NtRp1954
(dp1955
g64
(dp1956
g91
g92
ssg73
g1945
sg66
(lp1957
S':'
asbag59
(g80
g61
NtRp1958
(dp1959
g64
(dp1960
sg73
g1945
sg66
(lp1961
g59
(g60
g61
NtRp1962
(dp1963
g64
(dp1964
g72
I3
ssg73
g1958
sg66
(lp1965
g944
asbasbasbag59
(g75
g61
NtRp1966
(dp1967
g64
(dp1968
sg73
g1941
sg66
(lp1969
g59
(g80
g61
NtRp1970
(dp1971
g64
(dp1972
g84
g85
ssg73
g1966
sg66
(lp1973
S'HTTP_ACCEPT_CHARSET'
p1974
asbag59
(g80
g61
NtRp1975
(dp1976
g64
(dp1977
g91
g92
ssg73
g1966
sg66
(lp1978
S':'
asbag59
(g80
g61
NtRp1979
(dp1980
g64
(dp1981
sg73
g1966
sg66
(lp1982
g59
(g60
g61
NtRp1983
(dp1984
g64
(dp1985
g72
I3
ssg73
g1979
sg66
(lp1986
g966
asbasbasbag59
(g75
g61
NtRp1987
(dp1988
g64
(dp1989
sg73
g1941
sg66
(lp1990
g59
(g80
g61
NtRp1991
(dp1992
g64
(dp1993
g84
g85
ssg73
g1987
sg66
(lp1994
S'HTTP_ACCEPT_ENCODING'
p1995
asbag59
(g80
g61
NtRp1996
(dp1997
g64
(dp1998
g91
g92
ssg73
g1987
sg66
(lp1999
S':'
asbag59
(g80
g61
NtRp2000
(dp2001
g64
(dp2002
sg73
g1987
sg66
(lp2003
g59
(g60
g61
NtRp2004
(dp2005
g64
(dp2006
g72
I3
ssg73
g2000
sg66
(lp2007
g988
asbasbasbag59
(g75
g61
NtRp2008
(dp2009
g64
(dp2010
sg73
g1941
sg66
(lp2011
g59
(g80
g61
NtRp2012
(dp2013
g64
(dp2014
g84
g85
ssg73
g2008
sg66
(lp2015
S'HTTP_ACCEPT_LANGUAGE'
p2016
asbag59
(g80
g61
NtRp2017
(dp2018
g64
(dp2019
g91
g92
ssg73
g2008
sg66
(lp2020
S':'
asbag59
(g80
g61
NtRp2021
(dp2022
g64
(dp2023
sg73
g2008
sg66
(lp2024
g59
(g60
g61
NtRp2025
(dp2026
g64
(dp2027
g72
I3
ssg73
g2021
sg66
(lp2028
g1010
asbasbasbag59
(g75
g61
NtRp2029
(dp2030
g64
(dp2031
sg73
g1941
sg66
(lp2032
g59
(g80
g61
NtRp2033
(dp2034
g64
(dp2035
g84
g85
ssg73
g2029
sg66
(lp2036
S'HTTP_CACHE_CONTROL'
p2037
asbag59
(g80
g61
NtRp2038
(dp2039
g64
(dp2040
g91
g92
ssg73
g2029
sg66
(lp2041
S':'
asbag59
(g80
g61
NtRp2042
(dp2043
g64
(dp2044
sg73
g2029
sg66
(lp2045
g59
(g60
g61
NtRp2046
(dp2047
g64
(dp2048
g72
I3
ssg73
g2042
sg66
(lp2049
g1032
asbasbasbag59
(g75
g61
NtRp2050
(dp2051
g64
(dp2052
sg73
g1941
sg66
(lp2053
g59
(g80
g61
NtRp2054
(dp2055
g64
(dp2056
g84
g85
ssg73
g2050
sg66
(lp2057
S'HTTP_CONNECTION'
p2058
asbag59
(g80
g61
NtRp2059
(dp2060
g64
(dp2061
g91
g92
ssg73
g2050
sg66
(lp2062
S':'
asbag59
(g80
g61
NtRp2063
(dp2064
g64
(dp2065
sg73
g2050
sg66
(lp2066
g59
(g60
g61
NtRp2067
(dp2068
g64
(dp2069
g72
I3
ssg73
g2063
sg66
(lp2070
g1054
asbasbasbag59
(g75
g61
NtRp2071
(dp2072
g64
(dp2073
sg73
g1941
sg66
(lp2074
g59
(g80
g61
NtRp2075
(dp2076
g64
(dp2077
g84
g85
ssg73
g2071
sg66
(lp2078
S'HTTP_COOKIE'
p2079
asbag59
(g80
g61
NtRp2080
(dp2081
g64
(dp2082
g91
g92
ssg73
g2071
sg66
(lp2083
S':'
asbag59
(g80
g61
NtRp2084
(dp2085
g64
(dp2086
sg73
g2071
sg66
(lp2087
g59
(g60
g61
NtRp2088
(dp2089
g64
(dp2090
g72
I3
ssg73
g2084
sg66
(lp2091
g1076
asbasbasbag59
(g75
g61
NtRp2092
(dp2093
g64
(dp2094
sg73
g1941
sg66
(lp2095
g59
(g80
g61
NtRp2096
(dp2097
g64
(dp2098
g84
g85
ssg73
g2092
sg66
(lp2099
S'HTTP_HOST'
p2100
asbag59
(g80
g61
NtRp2101
(dp2102
g64
(dp2103
g91
g92
ssg73
g2092
sg66
(lp2104
S':'
asbag59
(g80
g61
NtRp2105
(dp2106
g64
(dp2107
sg73
g2092
sg66
(lp2108
g59
(g60
g61
NtRp2109
(dp2110
g64
(dp2111
g72
I3
ssg73
g2105
sg66
(lp2112
g1098
asbasbasbag59
(g75
g61
NtRp2113
(dp2114
g64
(dp2115
sg73
g1941
sg66
(lp2116
g59
(g80
g61
NtRp2117
(dp2118
g64
(dp2119
g84
g85
ssg73
g2113
sg66
(lp2120
S'HTTP_USER_AGENT'
p2121
asbag59
(g80
g61
NtRp2122
(dp2123
g64
(dp2124
g91
g92
ssg73
g2113
sg66
(lp2125
S':'
asbag59
(g80
g61
NtRp2126
(dp2127
g64
(dp2128
sg73
g2113
sg66
(lp2129
g59
(g60
g61
NtRp2130
(dp2131
g64
(dp2132
g72
I3
ssg73
g2126
sg66
(lp2133
g1120
asbasbasbag59
(g75
g61
NtRp2134
(dp2135
g64
(dp2136
sg73
g1941
sg66
(lp2137
g59
(g80
g61
NtRp2138
(dp2139
g64
(dp2140
g84
g85
ssg73
g2134
sg66
(lp2141
S'PATH_INFO'
p2142
asbag59
(g80
g61
NtRp2143
(dp2144
g64
(dp2145
g91
g92
ssg73
g2134
sg66
(lp2146
S':'
asbag59
(g80
g61
NtRp2147
(dp2148
g64
(dp2149
sg73
g2134
sg66
(lp2150
g59
(g60
g61
NtRp2151
(dp2152
g64
(dp2153
g72
I3
ssg73
g2147
sg66
(lp2154
g1163
asbasbasbag59
(g75
g61
NtRp2155
(dp2156
g64
(dp2157
sg73
g1941
sg66
(lp2158
g59
(g80
g61
NtRp2159
(dp2160
g64
(dp2161
g84
g85
ssg73
g2155
sg66
(lp2162
S'QUERY_STRING'
p2163
asbag59
(g80
g61
NtRp2164
(dp2165
g64
(dp2166
g91
g92
ssg73
g2155
sg66
(lp2167
S':'
asbag59
(g80
g61
NtRp2168
(dp2169
g64
(dp2170
sg73
g2155
sg66
(lp2171
g59
(g60
g61
NtRp2172
(dp2173
g64
(dp2174
g72
I3
ssg73
g2168
sg66
(lp2175
S''
asbasbasbag59
(g75
g61
NtRp2176
(dp2177
g64
(dp2178
sg73
g1941
sg66
(lp2179
g59
(g80
g61
NtRp2180
(dp2181
g64
(dp2182
g84
g85
ssg73
g2176
sg66
(lp2183
S'REMOTE_ADDR'
p2184
asbag59
(g80
g61
NtRp2185
(dp2186
g64
(dp2187
g91
g92
ssg73
g2176
sg66
(lp2188
S':'
asbag59
(g80
g61
NtRp2189
(dp2190
g64
(dp2191
sg73
g2176
sg66
(lp2192
g59
(g60
g61
NtRp2193
(dp2194
g64
(dp2195
g72
I3
ssg73
g2189
sg66
(lp2196
g192
asbasbasbag59
(g75
g61
NtRp2197
(dp2198
g64
(dp2199
sg73
g1941
sg66
(lp2200
g59
(g80
g61
NtRp2201
(dp2202
g64
(dp2203
g84
g85
ssg73
g2197
sg66
(lp2204
S'REMOTE_PORT'
p2205
asbag59
(g80
g61
NtRp2206
(dp2207
g64
(dp2208
g91
g92
ssg73
g2197
sg66
(lp2209
S':'
asbag59
(g80
g61
NtRp2210
(dp2211
g64
(dp2212
sg73
g2197
sg66
(lp2213
g59
(g60
g61
NtRp2214
(dp2215
g64
(dp2216
g72
I3
ssg73
g2210
sg66
(lp2217
g1227
asbasbasbag59
(g75
g61
NtRp2218
(dp2219
g64
(dp2220
sg73
g1941
sg66
(lp2221
g59
(g80
g61
NtRp2222
(dp2223
g64
(dp2224
g84
g85
ssg73
g2218
sg66
(lp2225
S'REQUEST_METHOD'
p2226
asbag59
(g80
g61
NtRp2227
(dp2228
g64
(dp2229
g91
g92
ssg73
g2218
sg66
(lp2230
S':'
asbag59
(g80
g61
NtRp2231
(dp2232
g64
(dp2233
sg73
g2218
sg66
(lp2234
g59
(g60
g61
NtRp2235
(dp2236
g64
(dp2237
g72
I3
ssg73
g2231
sg66
(lp2238
g1249
asbasbasbag59
(g75
g61
NtRp2239
(dp2240
g64
(dp2241
sg73
g1941
sg66
(lp2242
g59
(g80
g61
NtRp2243
(dp2244
g64
(dp2245
g84
g85
ssg73
g2239
sg66
(lp2246
S'SCRIPT_NAME'
p2247
asbag59
(g80
g61
NtRp2248
(dp2249
g64
(dp2250
g91
g92
ssg73
g2239
sg66
(lp2251
S':'
asbag59
(g80
g61
NtRp2252
(dp2253
g64
(dp2254
sg73
g2239
sg66
(lp2255
g59
(g60
g61
NtRp2256
(dp2257
g64
(dp2258
g72
I3
ssg73
g2252
sg66
(lp2259
S''
asbasbasbag59
(g75
g61
NtRp2260
(dp2261
g64
(dp2262
sg73
g1941
sg66
(lp2263
g59
(g80
g61
NtRp2264
(dp2265
g64
(dp2266
g84
g85
ssg73
g2260
sg66
(lp2267
S'SERVER_NAME'
p2268
asbag59
(g80
g61
NtRp2269
(dp2270
g64
(dp2271
g91
g92
ssg73
g2260
sg66
(lp2272
S':'
asbag59
(g80
g61
NtRp2273
(dp2274
g64
(dp2275
sg73
g2260
sg66
(lp2276
g59
(g60
g61
NtRp2277
(dp2278
g64
(dp2279
g72
I3
ssg73
g2273
sg66
(lp2280
g1292
asbasbasbag59
(g75
g61
NtRp2281
(dp2282
g64
(dp2283
sg73
g1941
sg66
(lp2284
g59
(g80
g61
NtRp2285
(dp2286
g64
(dp2287
g84
g85
ssg73
g2281
sg66
(lp2288
S'SERVER_PORT'
p2289
asbag59
(g80
g61
NtRp2290
(dp2291
g64
(dp2292
g91
g92
ssg73
g2281
sg66
(lp2293
S':'
asbag59
(g80
g61
NtRp2294
(dp2295
g64
(dp2296
sg73
g2281
sg66
(lp2297
g59
(g60
g61
NtRp2298
(dp2299
g64
(dp2300
g72
I3
ssg73
g2294
sg66
(lp2301
g1314
asbasbasbag59
(g75
g61
NtRp2302
(dp2303
g64
(dp2304
sg73
g1941
sg66
(lp2305
g59
(g80
g61
NtRp2306
(dp2307
g64
(dp2308
g84
g85
ssg73
g2302
sg66
(lp2309
S'SERVER_PROTOCOL'
p2310
asbag59
(g80
g61
NtRp2311
(dp2312
g64
(dp2313
g91
g92
ssg73
g2302
sg66
(lp2314
S':'
asbag59
(g80
g61
NtRp2315
(dp2316
g64
(dp2317
sg73
g2302
sg66
(lp2318
g59
(g60
g61
NtRp2319
(dp2320
g64
(dp2321
g72
I3
ssg73
g2315
sg66
(lp2322
g1336
asbasbasbag59
(g75
g61
NtRp2323
(dp2324
g64
(dp2325
sg73
g1941
sg66
(lp2326
g59
(g80
g61
NtRp2327
(dp2328
g64
(dp2329
g84
g85
ssg73
g2323
sg66
(lp2330
S'SERVER_SOFTWARE'
p2331
asbag59
(g80
g61
NtRp2332
(dp2333
g64
(dp2334
g91
g92
ssg73
g2323
sg66
(lp2335
S':'
asbag59
(g80
g61
NtRp2336
(dp2337
g64
(dp2338
sg73
g2323
sg66
(lp2339
g59
(g60
g61
NtRp2340
(dp2341
g64
(dp2342
g72
I3
ssg73
g2336
sg66
(lp2343
g1358
asbasbasbag59
(g75
g61
NtRp2344
(dp2345
g64
(dp2346
sg73
g1941
sg66
(lp2347
g59
(g80
g61
NtRp2348
(dp2349
g64
(dp2350
g84
g85
ssg73
g2344
sg66
(lp2351
S'wsgi.errors'
p2352
asbag59
(g80
g61
NtRp2353
(dp2354
g64
(dp2355
g91
g92
ssg73
g2344
sg66
(lp2356
S':'
asbag59
(g80
g61
NtRp2357
(dp2358
g64
(dp2359
sg73
g2344
sg66
(lp2360
g59
(g60
g61
NtRp2361
(dp2362
g64
(dp2363
g72
I3
ssg73
g2357
sg66
(lp2364
S"<open file '<stderr>', mode 'w' at 0x020500B0>"
p2365
asbasbasbag59
(g75
g61
NtRp2366
(dp2367
g64
(dp2368
sg73
g1941
sg66
(lp2369
g59
(g80
g61
NtRp2370
(dp2371
g64
(dp2372
g84
g85
ssg73
g2366
sg66
(lp2373
S'wsgi.file_wrapper'
p2374
asbag59
(g80
g61
NtRp2375
(dp2376
g64
(dp2377
g91
g92
ssg73
g2366
sg66
(lp2378
S':'
asbag59
(g80
g61
NtRp2379
(dp2380
g64
(dp2381
sg73
g2366
sg66
(lp2382
g59
(g60
g61
NtRp2383
(dp2384
g64
(dp2385
g72
I3
ssg73
g2379
sg66
(lp2386
S'<class gluon.rocket.FileWrapper at 0x031931B0>'
p2387
asbasbasbag59
(g75
g61
NtRp2388
(dp2389
g64
(dp2390
sg73
g1941
sg66
(lp2391
g59
(g80
g61
NtRp2392
(dp2393
g64
(dp2394
g84
g85
ssg73
g2388
sg66
(lp2395
S'wsgi.input'
p2396
asbag59
(g80
g61
NtRp2397
(dp2398
g64
(dp2399
g91
g92
ssg73
g2388
sg66
(lp2400
S':'
asbag59
(g80
g61
NtRp2401
(dp2402
g64
(dp2403
sg73
g2388
sg66
(lp2404
g59
(g60
g61
NtRp2405
(dp2406
g64
(dp2407
g72
I3
ssg73
g2401
sg66
(lp2408
S'<cStringIO.StringO object at 0x07073580>'
p2409
asbasbasbag59
(g75
g61
NtRp2410
(dp2411
g64
(dp2412
sg73
g1941
sg66
(lp2413
g59
(g80
g61
NtRp2414
(dp2415
g64
(dp2416
g84
g85
ssg73
g2410
sg66
(lp2417
S'wsgi.multiprocess'
p2418
asbag59
(g80
g61
NtRp2419
(dp2420
g64
(dp2421
g91
g92
ssg73
g2410
sg66
(lp2422
S':'
asbag59
(g80
g61
NtRp2423
(dp2424
g64
(dp2425
sg73
g2410
sg66
(lp2426
g59
(g60
g61
NtRp2427
(dp2428
g64
(dp2429
g72
I3
ssg73
g2423
sg66
(lp2430
g102
asbasbasbag59
(g75
g61
NtRp2431
(dp2432
g64
(dp2433
sg73
g1941
sg66
(lp2434
g59
(g80
g61
NtRp2435
(dp2436
g64
(dp2437
g84
g85
ssg73
g2431
sg66
(lp2438
S'wsgi.multithread'
p2439
asbag59
(g80
g61
NtRp2440
(dp2441
g64
(dp2442
g91
g92
ssg73
g2431
sg66
(lp2443
S':'
asbag59
(g80
g61
NtRp2444
(dp2445
g64
(dp2446
sg73
g2431
sg66
(lp2447
g59
(g60
g61
NtRp2448
(dp2449
g64
(dp2450
g72
I3
ssg73
g2444
sg66
(lp2451
g1532
asbasbasbag59
(g75
g61
NtRp2452
(dp2453
g64
(dp2454
sg73
g1941
sg66
(lp2455
g59
(g80
g61
NtRp2456
(dp2457
g64
(dp2458
g84
g85
ssg73
g2452
sg66
(lp2459
S'wsgi.run_once'
p2460
asbag59
(g80
g61
NtRp2461
(dp2462
g64
(dp2463
g91
g92
ssg73
g2452
sg66
(lp2464
S':'
asbag59
(g80
g61
NtRp2465
(dp2466
g64
(dp2467
sg73
g2452
sg66
(lp2468
g59
(g60
g61
NtRp2469
(dp2470
g64
(dp2471
g72
I3
ssg73
g2465
sg66
(lp2472
g102
asbasbasbag59
(g75
g61
NtRp2473
(dp2474
g64
(dp2475
sg73
g1941
sg66
(lp2476
g59
(g80
g61
NtRp2477
(dp2478
g64
(dp2479
g84
g85
ssg73
g2473
sg66
(lp2480
S'wsgi.url_scheme'
p2481
asbag59
(g80
g61
NtRp2482
(dp2483
g64
(dp2484
g91
g92
ssg73
g2473
sg66
(lp2485
S':'
asbag59
(g80
g61
NtRp2486
(dp2487
g64
(dp2488
sg73
g2473
sg66
(lp2489
g59
(g60
g61
NtRp2490
(dp2491
g64
(dp2492
g72
I3
ssg73
g2486
sg66
(lp2493
g1575
asbasbasbag59
(g75
g61
NtRp2494
(dp2495
g64
(dp2496
sg73
g1941
sg66
(lp2497
g59
(g80
g61
NtRp2498
(dp2499
g64
(dp2500
g84
g85
ssg73
g2494
sg66
(lp2501
S'wsgi.version'
p2502
asbag59
(g80
g61
NtRp2503
(dp2504
g64
(dp2505
g91
g92
ssg73
g2494
sg66
(lp2506
S':'
asbag59
(g80
g61
NtRp2507
(dp2508
g64
(dp2509
sg73
g2494
sg66
(lp2510
g59
(g60
g61
NtRp2511
(dp2512
g64
(dp2513
g72
I3
ssg73
g2507
sg66
(lp2514
S'1'
asbasbasbasbasbasbasbasbasbasbasbasbasbsS'frames'
p2515
(lp2516
(dp2517
S'file'
p2518
S'C:\\Users\\Atomico\\web2py\\gluon\\restricted.py'
p2519
sS'dump'
p2520
(dp2521
sS'lnum'
p2522
I191
sS'lines'
p2523
(dp2524
sS'call'
p2525
S'(code=\'response.write(\\\'<!DOCTYPE html>\\\\n<html lang="\\\', ...t   -->    \\\\n  </body>\\\\n</html>\\\\n\\\', escape=False)\', environment={\'A\': <class \'gluon.html.A\'>, \'B\': <class \'gluon.html.B\'>, \'BEAUTIFY\': <class \'gluon.html.BEAUTIFY\'>, \'BODY\': <class \'gluon.html.BODY\'>, \'BR\': <class \'gluon.html.BR\'>, \'BUTTON\': <class \'gluon.html.BUTTON\'>, \'CAT\': <class \'gluon.html.CAT\'>, \'CENTER\': <class \'gluon.html.CENTER\'>, \'CLEANUP\': <class \'gluon.validators.CLEANUP\'>, \'CODE\': <class \'gluon.html.CODE\'>, ...}, layer=r\'C:\\Users\\Atomico\\web2py\\applications\\Desglosar_Emails\\views\\default/entrada_borrar.html\')'
p2526
sS'func'
p2527
S'restricted'
p2528
sa(dp2529
g2518
S'C:\\Users\\Atomico\\web2py\\gluon\\restricted.py'
p2530
sg2520
(dp2531
sg2522
I178
sg2523
(dp2532
sg2525
S'(code=\'response.write(\\\'<!DOCTYPE html>\\\\n<html lang="\\\', ...t   -->    \\\\n  </body>\\\\n</html>\\\\n\\\', escape=False)\', layer=r\'C:\\Users\\Atomico\\web2py\\applications\\Desglosar_Emails\\views\\default/entrada_borrar.html\')'
p2533
sg2527
S'compile2'
p2534
sasS'pyver'
p2535
S'Python 2.5.4: C:\\Users\\Atomico\\web2py\\web2py.exe'
p2536
sS'session'
p2537
g59
(g60
g61
NtRp2538
(dp2539
g64
(dp2540
sg66
(lp2541
g59
(g68
g61
NtRp2542
(dp2543
g64
(dp2544
g72
I5
ssg73
Nsg66
(lp2545
g59
(g75
g61
NtRp2546
(dp2547
g64
(dp2548
sg73
g2542
sg66
(lp2549
g59
(g80
g61
NtRp2550
(dp2551
g64
(dp2552
g84
g85
ssg73
g2546
sg66
(lp2553
S'last_query'
p2554
asbag59
(g80
g61
NtRp2555
(dp2556
g64
(dp2557
g91
g92
ssg73
g2546
sg66
(lp2558
S':'
asbag59
(g80
g61
NtRp2559
(dp2560
g64
(dp2561
sg73
g2546
sg66
(lp2562
g59
(g60
g61
NtRp2563
(dp2564
g64
(dp2565
g72
I5
ssg73
g2559
sg66
(lp2566
S'db.info4.id>0'
p2567
asbasbasbasbasbsS'etype'
p2568
S"<type 'exceptions.SyntaxError'>"
p2569
sS'date'
p2570
S'Wed Sep 21 14:17:13 2011'
p2571
sS'response'
p2572
g59
(g60
g61
NtRp2573
(dp2574
g64
(dp2575
sg66
(lp2576
g59
(g68
g61
NtRp2577
(dp2578
g64
(dp2579
g72
I5
ssg73
Nsg66
(lp2580
g59
(g75
g61
NtRp2581
(dp2582
g64
(dp2583
sg73
g2577
sg66
(lp2584
g59
(g80
g61
NtRp2585
(dp2586
g64
(dp2587
g84
g85
ssg73
g2581
sg66
(lp2588
g157
asbag59
(g80
g61
NtRp2589
(dp2590
g64
(dp2591
g91
g92
ssg73
g2581
sg66
(lp2592
S':'
asbag59
(g80
g61
NtRp2593
(dp2594
g64
(dp2595
sg73
g2581
sg66
(lp2596
g59
(g60
g61
NtRp2597
(dp2598
g64
(dp2599
g72
I5
ssg73
g2593
sg66
(lp2600
S'<cStringIO.StringO object at 0x07073860>'
p2601
asbasbasbag59
(g75
g61
NtRp2602
(dp2603
g64
(dp2604
sg73
g2577
sg66
(lp2605
g59
(g80
g61
NtRp2606
(dp2607
g64
(dp2608
g84
g85
ssg73
g2602
sg66
(lp2609
g223
asbag59
(g80
g61
NtRp2610
(dp2611
g64
(dp2612
g91
g92
ssg73
g2602
sg66
(lp2613
S':'
asbag59
(g80
g61
NtRp2614
(dp2615
g64
(dp2616
sg73
g2602
sg66
(lp2617
g59
(g60
g61
NtRp2618
(dp2619
g64
(dp2620
g72
I5
ssg73
g2614
sg66
(lp2621
g59
(g68
g61
NtRp2622
(dp2623
g64
(dp2624
g72
I4
ssg73
Nsg66
(lp2625
g59
(g75
g61
NtRp2626
(dp2627
g64
(dp2628
sg73
g2622
sg66
(lp2629
g59
(g80
g61
NtRp2630
(dp2631
g64
(dp2632
g84
g85
ssg73
g2626
sg66
(lp2633
S'session_id_desglosar_emails'
p2634
asbag59
(g80
g61
NtRp2635
(dp2636
g64
(dp2637
g91
g92
ssg73
g2626
sg66
(lp2638
S':'
asbag59
(g80
g61
NtRp2639
(dp2640
g64
(dp2641
sg73
g2626
sg66
(lp2642
g59
(g60
g61
NtRp2643
(dp2644
g64
(dp2645
g72
I4
ssg73
g2639
sg66
(lp2646
g59
(g68
g61
NtRp2647
(dp2648
g64
(dp2649
g72
I3
ssg73
Nsg66
(lp2650
g59
(g75
g61
NtRp2651
(dp2652
g64
(dp2653
sg73
g2647
sg66
(lp2654
g59
(g80
g61
NtRp2655
(dp2656
g64
(dp2657
g84
g85
ssg73
g2651
sg66
(lp2658
g273
asbag59
(g80
g61
NtRp2659
(dp2660
g64
(dp2661
g91
g92
ssg73
g2651
sg66
(lp2662
S':'
asbag59
(g80
g61
NtRp2663
(dp2664
g64
(dp2665
sg73
g2651
sg66
(lp2666
g59
(g60
g61
NtRp2667
(dp2668
g64
(dp2669
g72
I3
ssg73
g2663
sg66
(lp2670
S''
asbasbasbag59
(g75
g61
NtRp2671
(dp2672
g64
(dp2673
sg73
g2647
sg66
(lp2674
g59
(g80
g61
NtRp2675
(dp2676
g64
(dp2677
g84
g85
ssg73
g2671
sg66
(lp2678
g294
asbag59
(g80
g61
NtRp2679
(dp2680
g64
(dp2681
g91
g92
ssg73
g2671
sg66
(lp2682
S':'
asbag59
(g80
g61
NtRp2683
(dp2684
g64
(dp2685
sg73
g2671
sg66
(lp2686
g59
(g60
g61
NtRp2687
(dp2688
g64
(dp2689
g72
I3
ssg73
g2683
sg66
(lp2690
S''
asbasbasbag59
(g75
g61
NtRp2691
(dp2692
g64
(dp2693
sg73
g2647
sg66
(lp2694
g59
(g80
g61
NtRp2695
(dp2696
g64
(dp2697
g84
g85
ssg73
g2691
sg66
(lp2698
g315
asbag59
(g80
g61
NtRp2699
(dp2700
g64
(dp2701
g91
g92
ssg73
g2691
sg66
(lp2702
S':'
asbag59
(g80
g61
NtRp2703
(dp2704
g64
(dp2705
sg73
g2691
sg66
(lp2706
g59
(g60
g61
NtRp2707
(dp2708
g64
(dp2709
g72
I3
ssg73
g2703
sg66
(lp2710
S''
asbasbasbag59
(g75
g61
NtRp2711
(dp2712
g64
(dp2713
sg73
g2647
sg66
(lp2714
g59
(g80
g61
NtRp2715
(dp2716
g64
(dp2717
g84
g85
ssg73
g2711
sg66
(lp2718
g336
asbag59
(g80
g61
NtRp2719
(dp2720
g64
(dp2721
g91
g92
ssg73
g2711
sg66
(lp2722
S':'
asbag59
(g80
g61
NtRp2723
(dp2724
g64
(dp2725
sg73
g2711
sg66
(lp2726
g59
(g60
g61
NtRp2727
(dp2728
g64
(dp2729
g72
I3
ssg73
g2723
sg66
(lp2730
S''
asbasbasbag59
(g75
g61
NtRp2731
(dp2732
g64
(dp2733
sg73
g2647
sg66
(lp2734
g59
(g80
g61
NtRp2735
(dp2736
g64
(dp2737
g84
g85
ssg73
g2731
sg66
(lp2738
g357
asbag59
(g80
g61
NtRp2739
(dp2740
g64
(dp2741
g91
g92
ssg73
g2731
sg66
(lp2742
S':'
asbag59
(g80
g61
NtRp2743
(dp2744
g64
(dp2745
sg73
g2731
sg66
(lp2746
g59
(g60
g61
NtRp2747
(dp2748
g64
(dp2749
g72
I3
ssg73
g2743
sg66
(lp2750
S'/'
asbasbasbag59
(g75
g61
NtRp2751
(dp2752
g64
(dp2753
sg73
g2647
sg66
(lp2754
g59
(g80
g61
NtRp2755
(dp2756
g64
(dp2757
g84
g85
ssg73
g2751
sg66
(lp2758
g378
asbag59
(g80
g61
NtRp2759
(dp2760
g64
(dp2761
g91
g92
ssg73
g2751
sg66
(lp2762
S':'
asbag59
(g80
g61
NtRp2763
(dp2764
g64
(dp2765
sg73
g2751
sg66
(lp2766
g59
(g60
g61
NtRp2767
(dp2768
g64
(dp2769
g72
I3
ssg73
g2763
sg66
(lp2770
S''
asbasbasbag59
(g75
g61
NtRp2771
(dp2772
g64
(dp2773
sg73
g2647
sg66
(lp2774
g59
(g80
g61
NtRp2775
(dp2776
g64
(dp2777
g84
g85
ssg73
g2771
sg66
(lp2778
g399
asbag59
(g80
g61
NtRp2779
(dp2780
g64
(dp2781
g91
g92
ssg73
g2771
sg66
(lp2782
S':'
asbag59
(g80
g61
NtRp2783
(dp2784
g64
(dp2785
sg73
g2771
sg66
(lp2786
g59
(g60
g61
NtRp2787
(dp2788
g64
(dp2789
g72
I3
ssg73
g2783
sg66
(lp2790
S''
asbasbasbasbasbasbasbasbasbasbasbag59
(g75
g61
NtRp2791
(dp2792
g64
(dp2793
sg73
g2577
sg66
(lp2794
g59
(g80
g61
NtRp2795
(dp2796
g64
(dp2797
g84
g85
ssg73
g2791
sg66
(lp2798
S'files'
p2799
asbag59
(g80
g61
NtRp2800
(dp2801
g64
(dp2802
g91
g92
ssg73
g2791
sg66
(lp2803
S':'
asbag59
(g80
g61
NtRp2804
(dp2805
g64
(dp2806
sg73
g2791
sg66
(lp2807
g59
(g60
g61
NtRp2808
(dp2809
g64
(dp2810
g72
I5
ssg73
g2804
sg66
(lp2811
g59
(g68
g61
NtRp2812
(dp2813
g64
(dp2814
g72
I4
ssg73
Nsg66
(lp2815
sbasbasbasbag59
(g75
g61
NtRp2816
(dp2817
g64
(dp2818
sg73
g2577
sg66
(lp2819
g59
(g80
g61
NtRp2820
(dp2821
g64
(dp2822
g84
g85
ssg73
g2816
sg66
(lp2823
S'flash'
p2824
asbag59
(g80
g61
NtRp2825
(dp2826
g64
(dp2827
g91
g92
ssg73
g2816
sg66
(lp2828
S':'
asbag59
(g80
g61
NtRp2829
(dp2830
g64
(dp2831
sg73
g2816
sg66
(lp2832
g59
(g60
g61
NtRp2833
(dp2834
g64
(dp2835
g72
I5
ssg73
g2829
sg66
(lp2836
S''
asbasbasbag59
(g75
g61
NtRp2837
(dp2838
g64
(dp2839
sg73
g2577
sg66
(lp2840
g59
(g80
g61
NtRp2841
(dp2842
g64
(dp2843
g84
g85
ssg73
g2837
sg66
(lp2844
S'generic_patterns'
p2845
asbag59
(g80
g61
NtRp2846
(dp2847
g64
(dp2848
g91
g92
ssg73
g2837
sg66
(lp2849
S':'
asbag59
(g80
g61
NtRp2850
(dp2851
g64
(dp2852
sg73
g2837
sg66
(lp2853
g59
(g60
g61
NtRp2854
(dp2855
g64
(dp2856
g72
I5
ssg73
g2850
sg66
(lp2857
g59
(g68
g61
NtRp2858
(dp2859
g64
(dp2860
g72
I4
ssg73
Nsg66
(lp2861
sbasbasbasbag59
(g75
g61
NtRp2862
(dp2863
g64
(dp2864
sg73
g2577
sg66
(lp2865
g59
(g80
g61
NtRp2866
(dp2867
g64
(dp2868
g84
g85
ssg73
g2862
sg66
(lp2869
S'headers'
p2870
asbag59
(g80
g61
NtRp2871
(dp2872
g64
(dp2873
g91
g92
ssg73
g2862
sg66
(lp2874
S':'
asbag59
(g80
g61
NtRp2875
(dp2876
g64
(dp2877
sg73
g2862
sg66
(lp2878
g59
(g60
g61
NtRp2879
(dp2880
g64
(dp2881
g72
I5
ssg73
g2875
sg66
(lp2882
g59
(g68
g61
NtRp2883
(dp2884
g64
(dp2885
g72
I4
ssg73
Nsg66
(lp2886
g59
(g75
g61
NtRp2887
(dp2888
g64
(dp2889
sg73
g2883
sg66
(lp2890
g59
(g80
g61
NtRp2891
(dp2892
g64
(dp2893
g84
g85
ssg73
g2887
sg66
(lp2894
S'Cache-Control'
p2895
asbag59
(g80
g61
NtRp2896
(dp2897
g64
(dp2898
g91
g92
ssg73
g2887
sg66
(lp2899
S':'
asbag59
(g80
g61
NtRp2900
(dp2901
g64
(dp2902
sg73
g2887
sg66
(lp2903
g59
(g60
g61
NtRp2904
(dp2905
g64
(dp2906
g72
I4
ssg73
g2900
sg66
(lp2907
S'no-store, no-cache, must-revalidate, post-check=0, pre-check=0'
p2908
asbasbasbag59
(g75
g61
NtRp2909
(dp2910
g64
(dp2911
sg73
g2883
sg66
(lp2912
g59
(g80
g61
NtRp2913
(dp2914
g64
(dp2915
g84
g85
ssg73
g2909
sg66
(lp2916
S'Content-Type'
p2917
asbag59
(g80
g61
NtRp2918
(dp2919
g64
(dp2920
g91
g92
ssg73
g2909
sg66
(lp2921
S':'
asbag59
(g80
g61
NtRp2922
(dp2923
g64
(dp2924
sg73
g2909
sg66
(lp2925
g59
(g60
g61
NtRp2926
(dp2927
g64
(dp2928
g72
I4
ssg73
g2922
sg66
(lp2929
S'text/html; charset=utf-8'
p2930
asbasbasbag59
(g75
g61
NtRp2931
(dp2932
g64
(dp2933
sg73
g2883
sg66
(lp2934
g59
(g80
g61
NtRp2935
(dp2936
g64
(dp2937
g84
g85
ssg73
g2931
sg66
(lp2938
S'Expires'
p2939
asbag59
(g80
g61
NtRp2940
(dp2941
g64
(dp2942
g91
g92
ssg73
g2931
sg66
(lp2943
S':'
asbag59
(g80
g61
NtRp2944
(dp2945
g64
(dp2946
sg73
g2931
sg66
(lp2947
g59
(g60
g61
NtRp2948
(dp2949
g64
(dp2950
g72
I4
ssg73
g2944
sg66
(lp2951
S'Wed, 21 Sep 2011 12:17:13 GMT'
p2952
asbasbasbag59
(g75
g61
NtRp2953
(dp2954
g64
(dp2955
sg73
g2883
sg66
(lp2956
g59
(g80
g61
NtRp2957
(dp2958
g64
(dp2959
g84
g85
ssg73
g2953
sg66
(lp2960
S'Pragma'
p2961
asbag59
(g80
g61
NtRp2962
(dp2963
g64
(dp2964
g91
g92
ssg73
g2953
sg66
(lp2965
S':'
asbag59
(g80
g61
NtRp2966
(dp2967
g64
(dp2968
sg73
g2953
sg66
(lp2969
g59
(g60
g61
NtRp2970
(dp2971
g64
(dp2972
g72
I4
ssg73
g2966
sg66
(lp2973
S'no-cache'
p2974
asbasbasbag59
(g75
g61
NtRp2975
(dp2976
g64
(dp2977
sg73
g2883
sg66
(lp2978
g59
(g80
g61
NtRp2979
(dp2980
g64
(dp2981
g84
g85
ssg73
g2975
sg66
(lp2982
S'X-Powered-By'
p2983
asbag59
(g80
g61
NtRp2984
(dp2985
g64
(dp2986
g91
g92
ssg73
g2975
sg66
(lp2987
S':'
asbag59
(g80
g61
NtRp2988
(dp2989
g64
(dp2990
sg73
g2975
sg66
(lp2991
g59
(g60
g61
NtRp2992
(dp2993
g64
(dp2994
g72
I4
ssg73
g2988
sg66
(lp2995
S'web2py'
p2996
asbasbasbasbasbasbasbag59
(g75
g61
NtRp2997
(dp2998
g64
(dp2999
sg73
g2577
sg66
(lp3000
g59
(g80
g61
NtRp3001
(dp3002
g64
(dp3003
g84
g85
ssg73
g2997
sg66
(lp3004
S'menu'
p3005
asbag59
(g80
g61
NtRp3006
(dp3007
g64
(dp3008
g91
g92
ssg73
g2997
sg66
(lp3009
S':'
asbag59
(g80
g61
NtRp3010
(dp3011
g64
(dp3012
sg73
g2997
sg66
(lp3013
g59
(g60
g61
NtRp3014
(dp3015
g64
(dp3016
g72
I5
ssg73
g3010
sg66
(lp3017
g59
(g68
g61
NtRp3018
(dp3019
g64
(dp3020
g72
I4
ssg73
Nsg66
(lp3021
g59
(g75
g61
NtRp3022
(dp3023
g64
(dp3024
sg73
g3018
sg66
(lp3025
g59
(g80
g61
NtRp3026
(dp3027
g64
(dp3028
sg73
g3022
sg66
(lp3029
g59
(g60
g61
NtRp3030
(dp3031
g64
(dp3032
g72
I4
ssg73
g3026
sg66
(lp3033
g59
(g68
g61
NtRp3034
(dp3035
g64
(dp3036
g72
I3
ssg73
Nsg66
(lp3037
g59
(g75
g61
NtRp3038
(dp3039
g64
(dp3040
sg73
g3034
sg66
(lp3041
g59
(g80
g61
NtRp3042
(dp3043
g64
(dp3044
sg73
g3038
sg66
(lp3045
g59
(g60
g61
NtRp3046
(dp3047
g64
(dp3048
g72
I3
ssg73
g3042
sg66
(lp3049
cgluon.languages
lazyT_unpickle
p3050
(S't\x04\x00\x00\x00Home'
tRp3051
asbasbasbag59
(g75
g61
NtRp3052
(dp3053
g64
(dp3054
sg73
g3034
sg66
(lp3055
g59
(g80
g61
NtRp3056
(dp3057
g64
(dp3058
sg73
g3052
sg66
(lp3059
g59
(g60
g61
NtRp3060
(dp3061
g64
(dp3062
g72
I3
ssg73
g3056
sg66
(lp3063
g102
asbasbasbag59
(g75
g61
NtRp3064
(dp3065
g64
(dp3066
sg73
g3034
sg66
(lp3067
g59
(g80
g61
NtRp3068
(dp3069
g64
(dp3070
sg73
g3064
sg66
(lp3071
g59
(g60
g61
NtRp3072
(dp3073
g64
(dp3074
g72
I3
ssg73
g3068
sg66
(lp3075
S'/Desglosar_Emails/default/index'
p3076
asbasbasbag59
(g75
g61
NtRp3077
(dp3078
g64
(dp3079
sg73
g3034
sg66
(lp3080
g59
(g80
g61
NtRp3081
(dp3082
g64
(dp3083
sg73
g3077
sg66
(lp3084
g59
(g60
g61
NtRp3085
(dp3086
g64
(dp3087
g72
I3
ssg73
g3081
sg66
(lp3088
g59
(g68
g61
NtRp3089
(dp3090
g64
(dp3091
g72
I2
ssg73
Nsg66
(lp3092
sbasbasbasbasbasbasbasbag59
(g75
g61
NtRp3093
(dp3094
g64
(dp3095
sg73
g3018
sg66
(lp3096
g59
(g80
g61
NtRp3097
(dp3098
g64
(dp3099
sg73
g3093
sg66
(lp3100
g59
(g60
g61
NtRp3101
(dp3102
g64
(dp3103
g72
I4
ssg73
g3097
sg66
(lp3104
g59
(g68
g61
NtRp3105
(dp3106
g64
(dp3107
g72
I3
ssg73
Nsg66
(lp3108
g59
(g75
g61
NtRp3109
(dp3110
g64
(dp3111
sg73
g3105
sg66
(lp3112
g59
(g80
g61
NtRp3113
(dp3114
g64
(dp3115
sg73
g3109
sg66
(lp3116
g59
(g60
g61
NtRp3117
(dp3118
g64
(dp3119
g72
I3
ssg73
g3113
sg66
(lp3120
g3050
(S's\x08\x00\x00\x00This App'
tRp3121
asbasbasbag59
(g75
g61
NtRp3122
(dp3123
g64
(dp3124
sg73
g3105
sg66
(lp3125
g59
(g80
g61
NtRp3126
(dp3127
g64
(dp3128
sg73
g3122
sg66
(lp3129
g59
(g60
g61
NtRp3130
(dp3131
g64
(dp3132
g72
I3
ssg73
g3126
sg66
(lp3133
g102
asbasbasbag59
(g75
g61
NtRp3134
(dp3135
g64
(dp3136
sg73
g3105
sg66
(lp3137
g59
(g80
g61
NtRp3138
(dp3139
g64
(dp3140
sg73
g3134
sg66
(lp3141
g59
(g60
g61
NtRp3142
(dp3143
g64
(dp3144
g72
I3
ssg73
g3138
sg66
(lp3145
S'/admin/default/design/Desglosar_Emails'
p3146
asbasbasbag59
(g75
g61
NtRp3147
(dp3148
g64
(dp3149
sg73
g3105
sg66
(lp3150
g59
(g80
g61
NtRp3151
(dp3152
g64
(dp3153
sg73
g3147
sg66
(lp3154
g59
(g60
g61
NtRp3155
(dp3156
g64
(dp3157
g72
I3
ssg73
g3151
sg66
(lp3158
g59
(g68
g61
NtRp3159
(dp3160
g64
(dp3161
g72
I2
ssg73
Nsg66
(lp3162
g59
(g75
g61
NtRp3163
(dp3164
g64
(dp3165
sg73
g3159
sg66
(lp3166
g59
(g80
g61
NtRp3167
(dp3168
g64
(dp3169
sg73
g3163
sg66
(lp3170
g59
(g60
g61
NtRp3171
(dp3172
g64
(dp3173
g72
I2
ssg73
g3167
sg66
(lp3174
g59
(g68
g61
NtRp3175
(dp3176
g64
(dp3177
g72
I1
ssg73
Nsg66
(lp3178
g59
(g75
g61
NtRp3179
(dp3180
g64
(dp3181
sg73
g3175
sg66
(lp3182
g59
(g80
g61
NtRp3183
(dp3184
g64
(dp3185
sg73
g3179
sg66
(lp3186
g59
(g60
g61
NtRp3187
(dp3188
g64
(dp3189
g72
I1
ssg73
g3183
sg66
(lp3190
g3050
(S't\x0b\x00\x00\x00Controlador'
tRp3191
asbasbasbag59
(g75
g61
NtRp3192
(dp3193
g64
(dp3194
sg73
g3175
sg66
(lp3195
g59
(g80
g61
NtRp3196
(dp3197
g64
(dp3198
sg73
g3192
sg66
(lp3199
g59
(g60
g61
NtRp3200
(dp3201
g64
(dp3202
g72
I1
ssg73
g3196
sg66
(lp3203
I00
asbasbasbag59
(g75
g61
NtRp3204
(dp3205
g64
(dp3206
sg73
g3175
sg66
(lp3207
g59
(g80
g61
NtRp3208
(dp3209
g64
(dp3210
sg73
g3204
sg66
(lp3211
g59
(g60
g61
NtRp3212
(dp3213
g64
(dp3214
g72
I1
ssg73
g3208
sg66
(lp3215
S'/admin/default/edit/Desglosar_Emails/controllers/default.py'
p3216
asbasbasbasbasbasbasbag59
(g75
g61
NtRp3217
(dp3218
g64
(dp3219
sg73
g3159
sg66
(lp3220
g59
(g80
g61
NtRp3221
(dp3222
g64
(dp3223
sg73
g3217
sg66
(lp3224
g59
(g60
g61
NtRp3225
(dp3226
g64
(dp3227
g72
I2
ssg73
g3221
sg66
(lp3228
g59
(g68
g61
NtRp3229
(dp3230
g64
(dp3231
g72
I1
ssg73
Nsg66
(lp3232
g59
(g75
g61
NtRp3233
(dp3234
g64
(dp3235
sg73
g3229
sg66
(lp3236
g59
(g80
g61
NtRp3237
(dp3238
g64
(dp3239
sg73
g3233
sg66
(lp3240
g59
(g60
g61
NtRp3241
(dp3242
g64
(dp3243
g72
I1
ssg73
g3237
sg66
(lp3244
g3050
(S't\x05\x00\x00\x00Vista'
tRp3245
asbasbasbag59
(g75
g61
NtRp3246
(dp3247
g64
(dp3248
sg73
g3229
sg66
(lp3249
g59
(g80
g61
NtRp3250
(dp3251
g64
(dp3252
sg73
g3246
sg66
(lp3253
g59
(g60
g61
NtRp3254
(dp3255
g64
(dp3256
g72
I1
ssg73
g3250
sg66
(lp3257
I00
asbasbasbag59
(g75
g61
NtRp3258
(dp3259
g64
(dp3260
sg73
g3229
sg66
(lp3261
g59
(g80
g61
NtRp3262
(dp3263
g64
(dp3264
sg73
g3258
sg66
(lp3265
g59
(g60
g61
NtRp3266
(dp3267
g64
(dp3268
g72
I1
ssg73
g3262
sg66
(lp3269
S'/admin/default/edit/Desglosar_Emails/views/default/entrada_borrar.html'
p3270
asbasbasbasbasbasbasbag59
(g75
g61
NtRp3271
(dp3272
g64
(dp3273
sg73
g3159
sg66
(lp3274
g59
(g80
g61
NtRp3275
(dp3276
g64
(dp3277
sg73
g3271
sg66
(lp3278
g59
(g60
g61
NtRp3279
(dp3280
g64
(dp3281
g72
I2
ssg73
g3275
sg66
(lp3282
g59
(g68
g61
NtRp3283
(dp3284
g64
(dp3285
g72
I1
ssg73
Nsg66
(lp3286
g59
(g75
g61
NtRp3287
(dp3288
g64
(dp3289
sg73
g3283
sg66
(lp3290
g59
(g80
g61
NtRp3291
(dp3292
g64
(dp3293
sg73
g3287
sg66
(lp3294
g59
(g60
g61
NtRp3295
(dp3296
g64
(dp3297
g72
I1
ssg73
g3291
sg66
(lp3298
g3050
(S's\x12\x00\x00\x00Dise\xc3\xb1o de p\xc3\xa1gina'
tRp3299
asbasbasbag59
(g75
g61
NtRp3300
(dp3301
g64
(dp3302
sg73
g3283
sg66
(lp3303
g59
(g80
g61
NtRp3304
(dp3305
g64
(dp3306
sg73
g3300
sg66
(lp3307
g59
(g60
g61
NtRp3308
(dp3309
g64
(dp3310
g72
I1
ssg73
g3304
sg66
(lp3311
I00
asbasbasbag59
(g75
g61
NtRp3312
(dp3313
g64
(dp3314
sg73
g3283
sg66
(lp3315
g59
(g80
g61
NtRp3316
(dp3317
g64
(dp3318
sg73
g3312
sg66
(lp3319
g59
(g60
g61
NtRp3320
(dp3321
g64
(dp3322
g72
I1
ssg73
g3316
sg66
(lp3323
S'/admin/default/edit/Desglosar_Emails/views/layout.html'
p3324
asbasbasbasbasbasbasbag59
(g75
g61
NtRp3325
(dp3326
g64
(dp3327
sg73
g3159
sg66
(lp3328
g59
(g80
g61
NtRp3329
(dp3330
g64
(dp3331
sg73
g3325
sg66
(lp3332
g59
(g60
g61
NtRp3333
(dp3334
g64
(dp3335
g72
I2
ssg73
g3329
sg66
(lp3336
g59
(g68
g61
NtRp3337
(dp3338
g64
(dp3339
g72
I1
ssg73
Nsg66
(lp3340
g59
(g75
g61
NtRp3341
(dp3342
g64
(dp3343
sg73
g3337
sg66
(lp3344
g59
(g80
g61
NtRp3345
(dp3346
g64
(dp3347
sg73
g3341
sg66
(lp3348
g59
(g60
g61
NtRp3349
(dp3350
g64
(dp3351
g72
I1
ssg73
g3345
sg66
(lp3352
g3050
(S's\x0e\x00\x00\x00Hoja de estilo'
tRp3353
asbasbasbag59
(g75
g61
NtRp3354
(dp3355
g64
(dp3356
sg73
g3337
sg66
(lp3357
g59
(g80
g61
NtRp3358
(dp3359
g64
(dp3360
sg73
g3354
sg66
(lp3361
g59
(g60
g61
NtRp3362
(dp3363
g64
(dp3364
g72
I1
ssg73
g3358
sg66
(lp3365
I00
asbasbasbag59
(g75
g61
NtRp3366
(dp3367
g64
(dp3368
sg73
g3337
sg66
(lp3369
g59
(g80
g61
NtRp3370
(dp3371
g64
(dp3372
sg73
g3366
sg66
(lp3373
g59
(g60
g61
NtRp3374
(dp3375
g64
(dp3376
g72
I1
ssg73
g3370
sg66
(lp3377
S'/admin/default/edit/Desglosar_Emails/static/base.css'
p3378
asbasbasbasbasbasbasbag59
(g75
g61
NtRp3379
(dp3380
g64
(dp3381
sg73
g3159
sg66
(lp3382
g59
(g80
g61
NtRp3383
(dp3384
g64
(dp3385
sg73
g3379
sg66
(lp3386
g59
(g60
g61
NtRp3387
(dp3388
g64
(dp3389
g72
I2
ssg73
g3383
sg66
(lp3390
g59
(g68
g61
NtRp3391
(dp3392
g64
(dp3393
g72
I1
ssg73
Nsg66
(lp3394
g59
(g75
g61
NtRp3395
(dp3396
g64
(dp3397
sg73
g3391
sg66
(lp3398
g59
(g80
g61
NtRp3399
(dp3400
g64
(dp3401
sg73
g3395
sg66
(lp3402
g59
(g60
g61
NtRp3403
(dp3404
g64
(dp3405
g72
I1
ssg73
g3399
sg66
(lp3406
g3050
(S's\x0b\x00\x00\x00Modelo "db"'
tRp3407
asbasbasbag59
(g75
g61
NtRp3408
(dp3409
g64
(dp3410
sg73
g3391
sg66
(lp3411
g59
(g80
g61
NtRp3412
(dp3413
g64
(dp3414
sg73
g3408
sg66
(lp3415
g59
(g60
g61
NtRp3416
(dp3417
g64
(dp3418
g72
I1
ssg73
g3412
sg66
(lp3419
I00
asbasbasbag59
(g75
g61
NtRp3420
(dp3421
g64
(dp3422
sg73
g3391
sg66
(lp3423
g59
(g80
g61
NtRp3424
(dp3425
g64
(dp3426
sg73
g3420
sg66
(lp3427
g59
(g60
g61
NtRp3428
(dp3429
g64
(dp3430
g72
I1
ssg73
g3424
sg66
(lp3431
S'/admin/default/edit/Desglosar_Emails/models/db.py'
p3432
asbasbasbasbasbasbasbag59
(g75
g61
NtRp3433
(dp3434
g64
(dp3435
sg73
g3159
sg66
(lp3436
g59
(g80
g61
NtRp3437
(dp3438
g64
(dp3439
sg73
g3433
sg66
(lp3440
g59
(g60
g61
NtRp3441
(dp3442
g64
(dp3443
g72
I2
ssg73
g3437
sg66
(lp3444
g59
(g68
g61
NtRp3445
(dp3446
g64
(dp3447
g72
I1
ssg73
Nsg66
(lp3448
g59
(g75
g61
NtRp3449
(dp3450
g64
(dp3451
sg73
g3445
sg66
(lp3452
g59
(g80
g61
NtRp3453
(dp3454
g64
(dp3455
sg73
g3449
sg66
(lp3456
g59
(g60
g61
NtRp3457
(dp3458
g64
(dp3459
g72
I1
ssg73
g3453
sg66
(lp3460
g3050
(S's\r\x00\x00\x00Modelo "menu"'
tRp3461
asbasbasbag59
(g75
g61
NtRp3462
(dp3463
g64
(dp3464
sg73
g3445
sg66
(lp3465
g59
(g80
g61
NtRp3466
(dp3467
g64
(dp3468
sg73
g3462
sg66
(lp3469
g59
(g60
g61
NtRp3470
(dp3471
g64
(dp3472
g72
I1
ssg73
g3466
sg66
(lp3473
I00
asbasbasbag59
(g75
g61
NtRp3474
(dp3475
g64
(dp3476
sg73
g3445
sg66
(lp3477
g59
(g80
g61
NtRp3478
(dp3479
g64
(dp3480
sg73
g3474
sg66
(lp3481
g59
(g60
g61
NtRp3482
(dp3483
g64
(dp3484
g72
I1
ssg73
g3478
sg66
(lp3485
S'/admin/default/edit/Desglosar_Emails/models/menu.py'
p3486
asbasbasbasbasbasbasbag59
(g75
g61
NtRp3487
(dp3488
g64
(dp3489
sg73
g3159
sg66
(lp3490
g59
(g80
g61
NtRp3491
(dp3492
g64
(dp3493
sg73
g3487
sg66
(lp3494
g59
(g60
g61
NtRp3495
(dp3496
g64
(dp3497
g72
I2
ssg73
g3491
sg66
(lp3498
g59
(g68
g61
NtRp3499
(dp3500
g64
(dp3501
g72
I1
ssg73
Nsg66
(lp3502
g59
(g75
g61
NtRp3503
(dp3504
g64
(dp3505
sg73
g3499
sg66
(lp3506
g59
(g80
g61
NtRp3507
(dp3508
g64
(dp3509
sg73
g3503
sg66
(lp3510
g59
(g60
g61
NtRp3511
(dp3512
g64
(dp3513
g72
I1
ssg73
g3507
sg66
(lp3514
g3050
(S's\r\x00\x00\x00Base de datos'
tRp3515
asbasbasbag59
(g75
g61
NtRp3516
(dp3517
g64
(dp3518
sg73
g3499
sg66
(lp3519
g59
(g80
g61
NtRp3520
(dp3521
g64
(dp3522
sg73
g3516
sg66
(lp3523
g59
(g60
g61
NtRp3524
(dp3525
g64
(dp3526
g72
I1
ssg73
g3520
sg66
(lp3527
I00
asbasbasbag59
(g75
g61
NtRp3528
(dp3529
g64
(dp3530
sg73
g3499
sg66
(lp3531
g59
(g80
g61
NtRp3532
(dp3533
g64
(dp3534
sg73
g3528
sg66
(lp3535
g59
(g60
g61
NtRp3536
(dp3537
g64
(dp3538
g72
I1
ssg73
g3532
sg66
(lp3539
S'/Desglosar_Emails/appadmin/index'
p3540
asbasbasbasbasbasbasbag59
(g75
g61
NtRp3541
(dp3542
g64
(dp3543
sg73
g3159
sg66
(lp3544
g59
(g80
g61
NtRp3545
(dp3546
g64
(dp3547
sg73
g3541
sg66
(lp3548
g59
(g60
g61
NtRp3549
(dp3550
g64
(dp3551
g72
I2
ssg73
g3545
sg66
(lp3552
g59
(g68
g61
NtRp3553
(dp3554
g64
(dp3555
g72
I1
ssg73
Nsg66
(lp3556
g59
(g75
g61
NtRp3557
(dp3558
g64
(dp3559
sg73
g3553
sg66
(lp3560
g59
(g80
g61
NtRp3561
(dp3562
g64
(dp3563
sg73
g3557
sg66
(lp3564
g59
(g60
g61
NtRp3565
(dp3566
g64
(dp3567
g72
I1
ssg73
g3561
sg66
(lp3568
g3050
(S't\x06\x00\x00\x00Errors'
tRp3569
asbasbasbag59
(g75
g61
NtRp3570
(dp3571
g64
(dp3572
sg73
g3553
sg66
(lp3573
g59
(g80
g61
NtRp3574
(dp3575
g64
(dp3576
sg73
g3570
sg66
(lp3577
g59
(g60
g61
NtRp3578
(dp3579
g64
(dp3580
g72
I1
ssg73
g3574
sg66
(lp3581
I00
asbasbasbag59
(g75
g61
NtRp3582
(dp3583
g64
(dp3584
sg73
g3553
sg66
(lp3585
g59
(g80
g61
NtRp3586
(dp3587
g64
(dp3588
sg73
g3582
sg66
(lp3589
g59
(g60
g61
NtRp3590
(dp3591
g64
(dp3592
g72
I1
ssg73
g3586
sg66
(lp3593
S'/admin/default/errors/Desglosar_Emails'
p3594
asbasbasbasbasbasbasbag59
(g75
g61
NtRp3595
(dp3596
g64
(dp3597
sg73
g3159
sg66
(lp3598
g59
(g80
g61
NtRp3599
(dp3600
g64
(dp3601
sg73
g3595
sg66
(lp3602
g59
(g60
g61
NtRp3603
(dp3604
g64
(dp3605
g72
I2
ssg73
g3599
sg66
(lp3606
g59
(g68
g61
NtRp3607
(dp3608
g64
(dp3609
g72
I1
ssg73
Nsg66
(lp3610
g59
(g75
g61
NtRp3611
(dp3612
g64
(dp3613
sg73
g3607
sg66
(lp3614
g59
(g80
g61
NtRp3615
(dp3616
g64
(dp3617
sg73
g3611
sg66
(lp3618
g59
(g60
g61
NtRp3619
(dp3620
g64
(dp3621
g72
I1
ssg73
g3615
sg66
(lp3622
g3050
(S's\t\x00\x00\x00Acerca de'
tRp3623
asbasbasbag59
(g75
g61
NtRp3624
(dp3625
g64
(dp3626
sg73
g3607
sg66
(lp3627
g59
(g80
g61
NtRp3628
(dp3629
g64
(dp3630
sg73
g3624
sg66
(lp3631
g59
(g60
g61
NtRp3632
(dp3633
g64
(dp3634
g72
I1
ssg73
g3628
sg66
(lp3635
I00
asbasbasbag59
(g75
g61
NtRp3636
(dp3637
g64
(dp3638
sg73
g3607
sg66
(lp3639
g59
(g80
g61
NtRp3640
(dp3641
g64
(dp3642
sg73
g3636
sg66
(lp3643
g59
(g60
g61
NtRp3644
(dp3645
g64
(dp3646
g72
I1
ssg73
g3640
sg66
(lp3647
S'/admin/default/about/Desglosar_Emails'
p3648
asbasbasbasbasbasbasbasbasbasbasbasbasbasbasbag59
(g75
g61
NtRp3649
(dp3650
g64
(dp3651
sg73
g3018
sg66
(lp3652
g59
(g80
g61
NtRp3653
(dp3654
g64
(dp3655
sg73
g3649
sg66
(lp3656
g59
(g60
g61
NtRp3657
(dp3658
g64
(dp3659
g72
I4
ssg73
g3653
sg66
(lp3660
g59
(g68
g61
NtRp3661
(dp3662
g64
(dp3663
g72
I3
ssg73
Nsg66
(lp3664
g59
(g75
g61
NtRp3665
(dp3666
g64
(dp3667
sg73
g3661
sg66
(lp3668
g59
(g80
g61
NtRp3669
(dp3670
g64
(dp3671
sg73
g3665
sg66
(lp3672
g59
(g60
g61
NtRp3673
(dp3674
g64
(dp3675
g72
I3
ssg73
g3669
sg66
(lp3676
g3050
(S't\t\x00\x00\x00Resources'
tRp3677
asbasbasbag59
(g75
g61
NtRp3678
(dp3679
g64
(dp3680
sg73
g3661
sg66
(lp3681
g59
(g80
g61
NtRp3682
(dp3683
g64
(dp3684
sg73
g3678
sg66
(lp3685
g59
(g60
g61
NtRp3686
(dp3687
g64
(dp3688
g72
I3
ssg73
g3682
sg66
(lp3689
g102
asbasbasbag59
(g75
g61
NtRp3690
(dp3691
g64
(dp3692
sg73
g3661
sg66
(lp3693
g59
(g80
g61
NtRp3694
(dp3695
g64
(dp3696
sg73
g3690
sg66
(lp3697
g59
(g60
g61
NtRp3698
(dp3699
g64
(dp3700
g72
I3
ssg73
g3694
sg66
(lp3701
S'None'
p3702
asbasbasbag59
(g75
g61
NtRp3703
(dp3704
g64
(dp3705
sg73
g3661
sg66
(lp3706
g59
(g80
g61
NtRp3707
(dp3708
g64
(dp3709
sg73
g3703
sg66
(lp3710
g59
(g60
g61
NtRp3711
(dp3712
g64
(dp3713
g72
I3
ssg73
g3707
sg66
(lp3714
g59
(g68
g61
NtRp3715
(dp3716
g64
(dp3717
g72
I2
ssg73
Nsg66
(lp3718
g59
(g75
g61
NtRp3719
(dp3720
g64
(dp3721
sg73
g3715
sg66
(lp3722
g59
(g80
g61
NtRp3723
(dp3724
g64
(dp3725
sg73
g3719
sg66
(lp3726
g59
(g60
g61
NtRp3727
(dp3728
g64
(dp3729
g72
I2
ssg73
g3723
sg66
(lp3730
g59
(g68
g61
NtRp3731
(dp3732
g64
(dp3733
g72
I1
ssg73
Nsg66
(lp3734
g59
(g75
g61
NtRp3735
(dp3736
g64
(dp3737
sg73
g3731
sg66
(lp3738
g59
(g80
g61
NtRp3739
(dp3740
g64
(dp3741
sg73
g3735
sg66
(lp3742
g59
(g60
g61
NtRp3743
(dp3744
g64
(dp3745
g72
I1
ssg73
g3739
sg66
(lp3746
g3050
(S's\x0e\x00\x00\x00Documentaci\xc3\xb3n'
tRp3747
asbasbasbag59
(g75
g61
NtRp3748
(dp3749
g64
(dp3750
sg73
g3731
sg66
(lp3751
g59
(g80
g61
NtRp3752
(dp3753
g64
(dp3754
sg73
g3748
sg66
(lp3755
g59
(g60
g61
NtRp3756
(dp3757
g64
(dp3758
g72
I1
ssg73
g3752
sg66
(lp3759
I00
asbasbasbag59
(g75
g61
NtRp3760
(dp3761
g64
(dp3762
sg73
g3731
sg66
(lp3763
g59
(g80
g61
NtRp3764
(dp3765
g64
(dp3766
sg73
g3760
sg66
(lp3767
g59
(g60
g61
NtRp3768
(dp3769
g64
(dp3770
g72
I1
ssg73
g3764
sg66
(lp3771
S'http://www.web2py.com/book'
p3772
asbasbasbag59
(g75
g61
NtRp3773
(dp3774
g64
(dp3775
sg73
g3731
sg66
(lp3776
g59
(g80
g61
NtRp3777
(dp3778
g64
(dp3779
sg73
g3773
sg66
(lp3780
g59
(g60
g61
NtRp3781
(dp3782
g64
(dp3783
g72
I1
ssg73
g3777
sg66
(lp3784
(lp3785
(g3050
(S't\x07\x00\x00\x00Preface'
tRp3786
I00
S'http://www.web2py.com/book/default/chapter/00'
tp3787
a(g3050
(S't\x0c\x00\x00\x00Introduction'
tRp3788
I00
S'http://www.web2py.com/book/default/chapter/01'
tp3789
a(g3050
(S't\x06\x00\x00\x00Python'
tRp3790
I00
S'http://www.web2py.com/book/default/chapter/02'
tp3791
a(g3050
(S't\x08\x00\x00\x00Overview'
tRp3792
I00
S'http://www.web2py.com/book/default/chapter/03'
tp3793
a(g3050
(S's\x08\x00\x00\x00The Core'
tRp3794
I00
S'http://www.web2py.com/book/default/chapter/04'
tp3795
a(g3050
(S's\t\x00\x00\x00The Views'
tRp3796
I00
S'http://www.web2py.com/book/default/chapter/05'
tp3797
a(g3050
(S's\r\x00\x00\x00Base de datos'
tRp3798
I00
S'http://www.web2py.com/book/default/chapter/06'
tp3799
a(g3050
(S's\x14\x00\x00\x00Forms and Validators'
tRp3800
I00
S'http://www.web2py.com/book/default/chapter/07'
tp3801
a(g3050
(S's\x0e\x00\x00\x00Access Control'
tRp3802
I00
S'http://www.web2py.com/book/default/chapter/08'
tp3803
a(g3050
(S't\x08\x00\x00\x00Services'
tRp3804
I00
S'http://www.web2py.com/book/default/chapter/09'
tp3805
a(g3050
(S's\x0c\x00\x00\x00Ajax Recipes'
tRp3806
I00
S'http://www.web2py.com/book/default/chapter/10'
tp3807
a(g3050
(S's\x12\x00\x00\x00Deployment Recipes'
tRp3808
I00
S'http://www.web2py.com/book/default/chapter/11'
tp3809
a(g3050
(S's\r\x00\x00\x00Other Recipes'
tRp3810
I00
S'http://www.web2py.com/book/default/chapter/12'
tp3811
a(g3050
(S's\r\x00\x00\x00Buy this book'
tRp3812
I00
S'http://stores.lulu.com/web2py'
tp3813
aasbasbasbasbasbasbasbag59
(g75
g61
NtRp3814
(dp3815
g64
(dp3816
sg73
g3715
sg66
(lp3817
g59
(g80
g61
NtRp3818
(dp3819
g64
(dp3820
sg73
g3814
sg66
(lp3821
g59
(g60
g61
NtRp3822
(dp3823
g64
(dp3824
g72
I2
ssg73
g3818
sg66
(lp3825
g59
(g68
g61
NtRp3826
(dp3827
g64
(dp3828
g72
I1
ssg73
Nsg66
(lp3829
g59
(g75
g61
NtRp3830
(dp3831
g64
(dp3832
sg73
g3826
sg66
(lp3833
g59
(g80
g61
NtRp3834
(dp3835
g64
(dp3836
sg73
g3830
sg66
(lp3837
g59
(g60
g61
NtRp3838
(dp3839
g64
(dp3840
g72
I1
ssg73
g3834
sg66
(lp3841
g3050
(S't\t\x00\x00\x00Community'
tRp3842
asbasbasbag59
(g75
g61
NtRp3843
(dp3844
g64
(dp3845
sg73
g3826
sg66
(lp3846
g59
(g80
g61
NtRp3847
(dp3848
g64
(dp3849
sg73
g3843
sg66
(lp3850
g59
(g60
g61
NtRp3851
(dp3852
g64
(dp3853
g72
I1
ssg73
g3847
sg66
(lp3854
I00
asbasbasbag59
(g75
g61
NtRp3855
(dp3856
g64
(dp3857
sg73
g3826
sg66
(lp3858
g59
(g80
g61
NtRp3859
(dp3860
g64
(dp3861
sg73
g3855
sg66
(lp3862
g59
(g60
g61
NtRp3863
(dp3864
g64
(dp3865
g72
I1
ssg73
g3859
sg66
(lp3866
Nasbasbasbag59
(g75
g61
NtRp3867
(dp3868
g64
(dp3869
sg73
g3826
sg66
(lp3870
g59
(g80
g61
NtRp3871
(dp3872
g64
(dp3873
sg73
g3867
sg66
(lp3874
g59
(g60
g61
NtRp3875
(dp3876
g64
(dp3877
g72
I1
ssg73
g3871
sg66
(lp3878
(lp3879
(g3050
(S't\x06\x00\x00\x00Groups'
tRp3880
I00
S'http://www.web2py.com/examples/default/usergroups'
tp3881
a(g3050
(S't\x07\x00\x00\x00Twitter'
tRp3882
I00
S'http://twitter.com/web2py'
tp3883
a(g3050
(S's\t\x00\x00\x00Live chat'
tRp3884
I00
S'http://mibbit.com/?channel=%23web2py&server=irc.mibbit.net'
tp3885
a(g3050
(S's\n\x00\x00\x00User Voice'
tRp3886
I00
S'http://web2py.uservoice.com/'
tp3887
aasbasbasbasbasbasbasbag59
(g75
g61
NtRp3888
(dp3889
g64
(dp3890
sg73
g3715
sg66
(lp3891
g59
(g80
g61
NtRp3892
(dp3893
g64
(dp3894
sg73
g3888
sg66
(lp3895
g59
(g60
g61
NtRp3896
(dp3897
g64
(dp3898
g72
I2
ssg73
g3892
sg66
(lp3899
g59
(g68
g61
NtRp3900
(dp3901
g64
(dp3902
g72
I1
ssg73
Nsg66
(lp3903
g59
(g75
g61
NtRp3904
(dp3905
g64
(dp3906
sg73
g3900
sg66
(lp3907
g59
(g80
g61
NtRp3908
(dp3909
g64
(dp3910
sg73
g3904
sg66
(lp3911
g59
(g60
g61
NtRp3912
(dp3913
g64
(dp3914
g72
I1
ssg73
g3908
sg66
(lp3915
g3050
(S't\x06\x00\x00\x00Web2py'
tRp3916
asbasbasbag59
(g75
g61
NtRp3917
(dp3918
g64
(dp3919
sg73
g3900
sg66
(lp3920
g59
(g80
g61
NtRp3921
(dp3922
g64
(dp3923
sg73
g3917
sg66
(lp3924
g59
(g60
g61
NtRp3925
(dp3926
g64
(dp3927
g72
I1
ssg73
g3921
sg66
(lp3928
I00
asbasbasbag59
(g75
g61
NtRp3929
(dp3930
g64
(dp3931
sg73
g3900
sg66
(lp3932
g59
(g80
g61
NtRp3933
(dp3934
g64
(dp3935
sg73
g3929
sg66
(lp3936
g59
(g60
g61
NtRp3937
(dp3938
g64
(dp3939
g72
I1
ssg73
g3933
sg66
(lp3940
S'http://www.web2py.com'
p3941
asbasbasbag59
(g75
g61
NtRp3942
(dp3943
g64
(dp3944
sg73
g3900
sg66
(lp3945
g59
(g80
g61
NtRp3946
(dp3947
g64
(dp3948
sg73
g3942
sg66
(lp3949
g59
(g60
g61
NtRp3950
(dp3951
g64
(dp3952
g72
I1
ssg73
g3946
sg66
(lp3953
(lp3954
(g3050
(S't\x08\x00\x00\x00Download'
tRp3955
I00
S'http://www.web2py.com/examples/default/download'
tp3956
a(g3050
(S't\x07\x00\x00\x00Support'
tRp3957
I00
S'http://www.web2py.com/examples/default/support'
tp3958
a(g3050
(S's\x0e\x00\x00\x00Quick Examples'
tRp3959
I00
S'http://web2py.com/examples/default/examples'
tp3960
a(g3050
(S't\x03\x00\x00\x00FAQ'
tRp3961
I00
S'http://web2py.com/AlterEgo'
tp3962
a(g3050
(S's\x11\x00\x00\x00Free Applications'
tRp3963
I00
S'http://web2py.com/appliances'
tp3964
a(g3050
(S't\x07\x00\x00\x00Plugins'
tRp3965
I00
S'http://web2py.com/plugins'
tp3966
a(g3050
(S't\x07\x00\x00\x00Recipes'
tRp3967
I00
S'http://web2pyslices.com/'
tp3968
a(g3050
(S't\x04\x00\x00\x00Demo'
tRp3969
I00
S'http://web2py.com/demo_admin'
tp3970
a(g3050
(S't\x08\x00\x00\x00Semantic'
tRp3971
I00
S'http://web2py.com/semantic'
tp3972
a(g3050
(S't\x07\x00\x00\x00Layouts'
tRp3973
I00
S'http://web2py.com/layouts'
tp3974
a(g3050
(S't\x06\x00\x00\x00Videos'
tRp3975
I00
S'http://www.web2py.com/examples/default/videos/'
tp3976
aasbasbasbasbasbasbasbasbasbasbasbasbasbasbasbasbasbasbasbag59
(g75
g61
NtRp3977
(dp3978
g64
(dp3979
sg73
g2577
sg66
(lp3980
g59
(g80
g61
NtRp3981
(dp3982
g64
(dp3983
g84
g85
ssg73
g3977
sg66
(lp3984
S'meta'
p3985
asbag59
(g80
g61
NtRp3986
(dp3987
g64
(dp3988
g91
g92
ssg73
g3977
sg66
(lp3989
S':'
asbag59
(g80
g61
NtRp3990
(dp3991
g64
(dp3992
sg73
g3977
sg66
(lp3993
g59
(g60
g61
NtRp3994
(dp3995
g64
(dp3996
g72
I5
ssg73
g3990
sg66
(lp3997
g59
(g68
g61
NtRp3998
(dp3999
g64
(dp4000
g72
I4
ssg73
Nsg66
(lp4001
g59
(g75
g61
NtRp4002
(dp4003
g64
(dp4004
sg73
g3998
sg66
(lp4005
g59
(g80
g61
NtRp4006
(dp4007
g64
(dp4008
g84
g85
ssg73
g4002
sg66
(lp4009
S'author'
p4010
asbag59
(g80
g61
NtRp4011
(dp4012
g64
(dp4013
g91
g92
ssg73
g4002
sg66
(lp4014
S':'
asbag59
(g80
g61
NtRp4015
(dp4016
g64
(dp4017
sg73
g4002
sg66
(lp4018
g59
(g60
g61
NtRp4019
(dp4020
g64
(dp4021
g72
I4
ssg73
g4015
sg66
(lp4022
S'you'
p4023
asbasbasbag59
(g75
g61
NtRp4024
(dp4025
g64
(dp4026
sg73
g3998
sg66
(lp4027
g59
(g80
g61
NtRp4028
(dp4029
g64
(dp4030
g84
g85
ssg73
g4024
sg66
(lp4031
S'copyright'
p4032
asbag59
(g80
g61
NtRp4033
(dp4034
g64
(dp4035
g91
g92
ssg73
g4024
sg66
(lp4036
S':'
asbag59
(g80
g61
NtRp4037
(dp4038
g64
(dp4039
sg73
g4024
sg66
(lp4040
g59
(g60
g61
NtRp4041
(dp4042
g64
(dp4043
g72
I4
ssg73
g4037
sg66
(lp4044
S'Copyright 2007-2010'
p4045
asbasbasbag59
(g75
g61
NtRp4046
(dp4047
g64
(dp4048
sg73
g3998
sg66
(lp4049
g59
(g80
g61
NtRp4050
(dp4051
g64
(dp4052
g84
g85
ssg73
g4046
sg66
(lp4053
S'description'
p4054
asbag59
(g80
g61
NtRp4055
(dp4056
g64
(dp4057
g91
g92
ssg73
g4046
sg66
(lp4058
S':'
asbag59
(g80
g61
NtRp4059
(dp4060
g64
(dp4061
sg73
g4046
sg66
(lp4062
g59
(g60
g61
NtRp4063
(dp4064
g64
(dp4065
g72
I4
ssg73
g4059
sg66
(lp4066
S'Free and open source full-stack enterprise framework for agile development of fast, scalable, secure and portable database-driven web-based applications. Written and programmable in Python'
p4067
asbasbasbag59
(g75
g61
NtRp4068
(dp4069
g64
(dp4070
sg73
g3998
sg66
(lp4071
g59
(g80
g61
NtRp4072
(dp4073
g64
(dp4074
g84
g85
ssg73
g4068
sg66
(lp4075
S'generator'
p4076
asbag59
(g80
g61
NtRp4077
(dp4078
g64
(dp4079
g91
g92
ssg73
g4068
sg66
(lp4080
S':'
asbag59
(g80
g61
NtRp4081
(dp4082
g64
(dp4083
sg73
g4068
sg66
(lp4084
g59
(g60
g61
NtRp4085
(dp4086
g64
(dp4087
g72
I4
ssg73
g4081
sg66
(lp4088
S'Web2py Enterprise Framework'
p4089
asbasbasbag59
(g75
g61
NtRp4090
(dp4091
g64
(dp4092
sg73
g3998
sg66
(lp4093
g59
(g80
g61
NtRp4094
(dp4095
g64
(dp4096
g84
g85
ssg73
g4090
sg66
(lp4097
S'keywords'
p4098
asbag59
(g80
g61
NtRp4099
(dp4100
g64
(dp4101
g91
g92
ssg73
g4090
sg66
(lp4102
S':'
asbag59
(g80
g61
NtRp4103
(dp4104
g64
(dp4105
sg73
g4090
sg66
(lp4106
g59
(g60
g61
NtRp4107
(dp4108
g64
(dp4109
g72
I4
ssg73
g4103
sg66
(lp4110
S'web2py, python, framework'
p4111
asbasbasbasbasbasbasbag59
(g75
g61
NtRp4112
(dp4113
g64
(dp4114
sg73
g2577
sg66
(lp4115
g59
(g80
g61
NtRp4116
(dp4117
g64
(dp4118
g84
g85
ssg73
g4112
sg66
(lp4119
S'postprocessing'
p4120
asbag59
(g80
g61
NtRp4121
(dp4122
g64
(dp4123
g91
g92
ssg73
g4112
sg66
(lp4124
S':'
asbag59
(g80
g61
NtRp4125
(dp4126
g64
(dp4127
sg73
g4112
sg66
(lp4128
g59
(g60
g61
NtRp4129
(dp4130
g64
(dp4131
g72
I5
ssg73
g4125
sg66
(lp4132
g59
(g68
g61
NtRp4133
(dp4134
g64
(dp4135
g72
I4
ssg73
Nsg66
(lp4136
sbasbasbasbag59
(g75
g61
NtRp4137
(dp4138
g64
(dp4139
sg73
g2577
sg66
(lp4140
g59
(g80
g61
NtRp4141
(dp4142
g64
(dp4143
g84
g85
ssg73
g4137
sg66
(lp4144
S'session_file'
p4145
asbag59
(g80
g61
NtRp4146
(dp4147
g64
(dp4148
g91
g92
ssg73
g4137
sg66
(lp4149
S':'
asbag59
(g80
g61
NtRp4150
(dp4151
g64
(dp4152
sg73
g4137
sg66
(lp4153
g59
(g60
g61
NtRp4154
(dp4155
g64
(dp4156
g72
I5
ssg73
g4150
sg66
(lp4157
S"<open file 'C:\\Users\\Atomico\\web2py\\applications\\Desglosar_Emails\\sessions\\127.0.0.1-c2891e73-e00c-4371-88c4-c01d892c385e', mode 'rb+' at 0x06C0D020>"
p4158
asbasbasbag59
(g75
g61
NtRp4159
(dp4160
g64
(dp4161
sg73
g2577
sg66
(lp4162
g59
(g80
g61
NtRp4163
(dp4164
g64
(dp4165
g84
g85
ssg73
g4159
sg66
(lp4166
S'session_filename'
p4167
asbag59
(g80
g61
NtRp4168
(dp4169
g64
(dp4170
g91
g92
ssg73
g4159
sg66
(lp4171
S':'
asbag59
(g80
g61
NtRp4172
(dp4173
g64
(dp4174
sg73
g4159
sg66
(lp4175
g59
(g60
g61
NtRp4176
(dp4177
g64
(dp4178
g72
I5
ssg73
g4172
sg66
(lp4179
S'C:\\Users\\Atomico\\web2py\\applications\\Desglosar_Emails\\sessions\\127.0.0.1-c2891e73-e00c-4371-88c4-c01d892c385e'
p4180
asbasbasbag59
(g75
g61
NtRp4181
(dp4182
g64
(dp4183
sg73
g2577
sg66
(lp4184
g59
(g80
g61
NtRp4185
(dp4186
g64
(dp4187
g84
g85
ssg73
g4181
sg66
(lp4188
S'session_id'
p4189
asbag59
(g80
g61
NtRp4190
(dp4191
g64
(dp4192
g91
g92
ssg73
g4181
sg66
(lp4193
S':'
asbag59
(g80
g61
NtRp4194
(dp4195
g64
(dp4196
sg73
g4181
sg66
(lp4197
g59
(g60
g61
NtRp4198
(dp4199
g64
(dp4200
g72
I5
ssg73
g4194
sg66
(lp4201
S'127.0.0.1-c2891e73-e00c-4371-88c4-c01d892c385e'
p4202
asbasbasbag59
(g75
g61
NtRp4203
(dp4204
g64
(dp4205
sg73
g2577
sg66
(lp4206
g59
(g80
g61
NtRp4207
(dp4208
g64
(dp4209
g84
g85
ssg73
g4203
sg66
(lp4210
S'session_id_name'
p4211
asbag59
(g80
g61
NtRp4212
(dp4213
g64
(dp4214
g91
g92
ssg73
g4203
sg66
(lp4215
S':'
asbag59
(g80
g61
NtRp4216
(dp4217
g64
(dp4218
sg73
g4203
sg66
(lp4219
g59
(g60
g61
NtRp4220
(dp4221
g64
(dp4222
g72
I5
ssg73
g4216
sg66
(lp4223
g2634
asbasbasbag59
(g75
g61
NtRp4224
(dp4225
g64
(dp4226
sg73
g2577
sg66
(lp4227
g59
(g80
g61
NtRp4228
(dp4229
g64
(dp4230
g84
g85
ssg73
g4224
sg66
(lp4231
S'session_locked'
p4232
asbag59
(g80
g61
NtRp4233
(dp4234
g64
(dp4235
g91
g92
ssg73
g4224
sg66
(lp4236
S':'
asbag59
(g80
g61
NtRp4237
(dp4238
g64
(dp4239
sg73
g4224
sg66
(lp4240
g59
(g60
g61
NtRp4241
(dp4242
g64
(dp4243
g72
I5
ssg73
g4237
sg66
(lp4244
g1532
asbasbasbag59
(g75
g61
NtRp4245
(dp4246
g64
(dp4247
sg73
g2577
sg66
(lp4248
g59
(g80
g61
NtRp4249
(dp4250
g64
(dp4251
g84
g85
ssg73
g4245
sg66
(lp4252
S'session_new'
p4253
asbag59
(g80
g61
NtRp4254
(dp4255
g64
(dp4256
g91
g92
ssg73
g4245
sg66
(lp4257
S':'
asbag59
(g80
g61
NtRp4258
(dp4259
g64
(dp4260
sg73
g4245
sg66
(lp4261
g59
(g60
g61
NtRp4262
(dp4263
g64
(dp4264
g72
I5
ssg73
g4258
sg66
(lp4265
g102
asbasbasbag59
(g75
g61
NtRp4266
(dp4267
g64
(dp4268
sg73
g2577
sg66
(lp4269
g59
(g80
g61
NtRp4270
(dp4271
g64
(dp4272
g84
g85
ssg73
g4266
sg66
(lp4273
S'status'
p4274
asbag59
(g80
g61
NtRp4275
(dp4276
g64
(dp4277
g91
g92
ssg73
g4266
sg66
(lp4278
S':'
asbag59
(g80
g61
NtRp4279
(dp4280
g64
(dp4281
sg73
g4266
sg66
(lp4282
g59
(g60
g61
NtRp4283
(dp4284
g64
(dp4285
g72
I5
ssg73
g4279
sg66
(lp4286
S'200'
p4287
asbasbasbag59
(g75
g61
NtRp4288
(dp4289
g64
(dp4290
sg73
g2577
sg66
(lp4291
g59
(g80
g61
NtRp4292
(dp4293
g64
(dp4294
g84
g85
ssg73
g4288
sg66
(lp4295
S'subtitle'
p4296
asbag59
(g80
g61
NtRp4297
(dp4298
g64
(dp4299
g91
g92
ssg73
g4288
sg66
(lp4300
S':'
asbag59
(g80
g61
NtRp4301
(dp4302
g64
(dp4303
sg73
g4288
sg66
(lp4304
g59
(g60
g61
NtRp4305
(dp4306
g64
(dp4307
g72
I5
ssg73
g4301
sg66
(lp4308
g3050
(S's\t\x00\x00\x00Adaptame!'
tRp4309
asbasbasbag59
(g75
g61
NtRp4310
(dp4311
g64
(dp4312
sg73
g2577
sg66
(lp4313
g59
(g80
g61
NtRp4314
(dp4315
g64
(dp4316
g84
g85
ssg73
g4310
sg66
(lp4317
S'title'
p4318
asbag59
(g80
g61
NtRp4319
(dp4320
g64
(dp4321
g91
g92
ssg73
g4310
sg66
(lp4322
S':'
asbag59
(g80
g61
NtRp4323
(dp4324
g64
(dp4325
sg73
g4310
sg66
(lp4326
g59
(g60
g61
NtRp4327
(dp4328
g64
(dp4329
g72
I5
ssg73
g4323
sg66
(lp4330
g124
asbasbasbag59
(g75
g61
NtRp4331
(dp4332
g64
(dp4333
sg73
g2577
sg66
(lp4334
g59
(g80
g61
NtRp4335
(dp4336
g64
(dp4337
g84
g85
ssg73
g4331
sg66
(lp4338
g1856
asbag59
(g80
g61
NtRp4339
(dp4340
g64
(dp4341
g91
g92
ssg73
g4331
sg66
(lp4342
S':'
asbag59
(g80
g61
NtRp4343
(dp4344
g64
(dp4345
sg73
g4331
sg66
(lp4346
g59
(g60
g61
NtRp4347
(dp4348
g64
(dp4349
g72
I5
ssg73
g4343
sg66
(lp4350
g1869
asbasbasbag59
(g75
g61
NtRp4351
(dp4352
g64
(dp4353
sg73
g2577
sg66
(lp4354
g59
(g80
g61
NtRp4355
(dp4356
g64
(dp4357
g84
g85
ssg73
g4351
sg66
(lp4358
S'view'
p4359
asbag59
(g80
g61
NtRp4360
(dp4361
g64
(dp4362
g91
g92
ssg73
g4351
sg66
(lp4363
S':'
asbag59
(g80
g61
NtRp4364
(dp4365
g64
(dp4366
sg73
g4351
sg66
(lp4367
g59
(g60
g61
NtRp4368
(dp4369
g64
(dp4370
g72
I5
ssg73
g4364
sg66
(lp4371
S'default/entrada_borrar.html'
p4372
asbasbasbasbasbsS'locals'
p4373
(dp4374
g3
S"r'C:\\Users\\Atomico\\web2py\\applications\\Desglosar_Emails\\views\\default/entrada_borrar.html'"
p4375
sg5
S'\'response.write(\\\'<!DOCTYPE html>\\\\n<html lang="\\\', ...t   -->    \\\\n  </body>\\\\n</html>\\\\n\\\', escape=False)\''
p4376
sssS'traceback'
p4377
S'Traceback (most recent call last):\n  File "gluon/restricted.py", line 191, in restricted\n  File "gluon/restricted.py", line 178, in compile2\n  File "C:\\Users\\Atomico\\web2py\\applications\\Desglosar_Emails\\views\\default/entrada_borrar.html", line 121\n    response.write(\'\\r\\n\\r\\n\\r\\n}}\\r\\n\', escape=False)\n           ^\nSyntaxError: invalid syntax\n'
p4378
s.