(dp1
S'output'
p2
S''
sS'layer'
p3
S'C:\\Users\\Atomico\\web2py\\applications\\Desglosar_Emails\\controllers/default.py'
p4
sS'code'
p5
S'def entrada():\n    form=SQLFORM(db.info)\n    if form.accepts(request.vars,session): pass\n    \n    txt=db.info[12].texto\n    c=0\n    for i in range(len(txt)): c=c+1\n    response.write(\'el total de c es \'+str(c)+\'. \')\n   \n    import re\n    pattern=re.compile(".*a[0-5].*")\n    for i in range(len(txt)):\n    ## encontrar el primer email\n        s=txt[:i]\n        if pattern.search(s):\n            response.write(\'Se ha encontrado a1 o a2 o a3 \\r o a4 o a5 o a0\\n\')\n        elif not pattern.search(s) and i==(len(txt)-1):\n            response.write(\'Nanai contrai\')\n        \n    response.write(\'La len(txt) es \'+str(len(txt))+\' y la i es \'+str(i))\n    response.write(\'*********************\')\n\n    cont=0\n    for i in xrange(0,4):\n        cont=cont+1\n        response.write(\'Para el valor i \'+str(i)+\' el contador se pone a \'+str(cont))\n    response.write(\' y el resultado final es de i \'+str(i)+\' el contador se pone a \'+str(cont)+\'. \')\n    i=0\n    while i<len(txt):\n        response.write(txt[i]+\'-\')\n        i=i+1\n    response.write(\'. La len(txt) es de \'+str(len(txt))+\' y la i se ha quedado en \'+str(i))\n    db.info.insert(texto="Vete a Cascarla")\n    \n    return dict(form=form)\n    \ndef entrada_mod1():\n    form=SQLFORM(db.info2)\n    if form.accepts(request.vars,session): pass\n    i=0\n    # while  not db.info2[i].texto==\'\':\n    #    response.write(i)\n    #    i=i+1\n    db.info2.insert(texto=\'Vete a cascarla\')\n    \n    return dict(form=form)\n    \ndef salto():\n    for x in range (10):\n        response . write (x)\n        response . write ( \'hello<br />\' , escape=False )\n    return dict(x=x)\n    \ndef entrada_mod2():\n    form=SQLFORM(db.persona)\n    if form.accepts(request.vars,session):pass\n    \n    form2=SQLFORM(db.perro)\n    if form2.accepts(request.vars,session):pass\n    \n    return dict(form=form,form2=form2)\n    \ndef entrada_mod3():\n    form=SQLFORM(db.info4)\n    if form.accepts(request.vars,session):pass\n    \n    return dict(form=form)\n   \ndef borrardb():\n    db.contactos.dump()\n    db.info4.dump()\n    db.commit()\n    return dict(cad=\'Cagada pastoret\')\n\nresponse._vars=response._caller(borrardb)\n'
p6
sS'snapshot'
p7
(dp8
S'exception'
p9
(dp10
S'__hash__'
p11
S"<method-wrapper '__hash__' of exceptions.KeyError object at 0x083E6D50>"
p12
sS'__setattr__'
p13
S"<method-wrapper '__setattr__' of exceptions.KeyError object at 0x083E6D50>"
p14
sS'__reduce_ex__'
p15
S'<built-in method __reduce_ex__ of exceptions.KeyError object at 0x083E6D50>'
p16
sS'__getslice__'
p17
S"<method-wrapper '__getslice__' of exceptions.KeyError object at 0x083E6D50>"
p18
sS'__getitem__'
p19
S"<method-wrapper '__getitem__' of exceptions.KeyError object at 0x083E6D50>"
p20
sS'__setstate__'
p21
S'<built-in method __setstate__ of exceptions.KeyError object at 0x083E6D50>'
p22
sS'__reduce__'
p23
S'<built-in method __reduce__ of exceptions.KeyError object at 0x083E6D50>'
p24
sS'__str__'
p25
S"<method-wrapper '__str__' of exceptions.KeyError object at 0x083E6D50>"
p26
sS'args'
p27
S"('dump',)"
p28
sS'__getattribute__'
p29
S"<method-wrapper '__getattribute__' of exceptions.KeyError object at 0x083E6D50>"
p30
sS'__class__'
p31
S"<type 'exceptions.KeyError'>"
p32
sS'__delattr__'
p33
S"<method-wrapper '__delattr__' of exceptions.KeyError object at 0x083E6D50>"
p34
sS'__repr__'
p35
S"<method-wrapper '__repr__' of exceptions.KeyError object at 0x083E6D50>"
p36
sS'__dict__'
p37
S'{}'
p38
sS'__doc__'
p39
S"'Mapping key not found.'"
p40
sS'__init__'
p41
S"<method-wrapper '__init__' of exceptions.KeyError object at 0x083E6D50>"
p42
sS'__new__'
p43
S'<built-in method __new__ of type object at 0x1E1CDFB8>'
p44
ssS'evalue'
p45
S"'dump'"
p46
sS'request'
p47
ccopy_reg
_reconstructor
p48
(cgluon.html
BEAUTIFY
p49
c__builtin__
object
p50
NtRp51
(dp52
S'attributes'
p53
(dp54
sS'components'
p55
(lp56
g48
(cgluon.html
TABLE
p57
g50
NtRp58
(dp59
g53
(dp60
S'level'
p61
I5
ssS'parent'
p62
Nsg55
(lp63
g48
(cgluon.html
TR
p64
g50
NtRp65
(dp66
g53
(dp67
sg62
g58
sg55
(lp68
g48
(cgluon.html
TD
p69
g50
NtRp70
(dp71
g53
(dp72
S'_style'
p73
S'font-weight:bold;'
p74
ssg62
g65
sg55
(lp75
S'ajax'
p76
asbag48
(g69
g50
NtRp77
(dp78
g53
(dp79
S'_valign'
p80
S'top'
p81
ssg62
g65
sg55
(lp82
S':'
asbag48
(g69
g50
NtRp83
(dp84
g53
(dp85
sg62
g65
sg55
(lp86
g48
(g49
g50
NtRp87
(dp88
g53
(dp89
g61
I5
ssg62
g83
sg55
(lp90
S'False'
p91
asbasbasbag48
(g64
g50
NtRp92
(dp93
g53
(dp94
sg62
g58
sg55
(lp95
g48
(g69
g50
NtRp96
(dp97
g53
(dp98
g73
g74
ssg62
g92
sg55
(lp99
S'application'
p100
asbag48
(g69
g50
NtRp101
(dp102
g53
(dp103
g80
g81
ssg62
g92
sg55
(lp104
S':'
asbag48
(g69
g50
NtRp105
(dp106
g53
(dp107
sg62
g92
sg55
(lp108
g48
(g49
g50
NtRp109
(dp110
g53
(dp111
g61
I5
ssg62
g105
sg55
(lp112
S'Desglosar_Emails'
p113
asbasbasbag48
(g64
g50
NtRp114
(dp115
g53
(dp116
sg62
g58
sg55
(lp117
g48
(g69
g50
NtRp118
(dp119
g53
(dp120
g73
g74
ssg62
g114
sg55
(lp121
g27
asbag48
(g69
g50
NtRp122
(dp123
g53
(dp124
g80
g81
ssg62
g114
sg55
(lp125
S':'
asbag48
(g69
g50
NtRp126
(dp127
g53
(dp128
sg62
g114
sg55
(lp129
g48
(g49
g50
NtRp130
(dp131
g53
(dp132
g61
I5
ssg62
g126
sg55
(lp133
g48
(g57
g50
NtRp134
(dp135
g53
(dp136
g61
I4
ssg62
Nsg55
(lp137
sbasbasbasbag48
(g64
g50
NtRp138
(dp139
g53
(dp140
sg62
g58
sg55
(lp141
g48
(g69
g50
NtRp142
(dp143
g53
(dp144
g73
g74
ssg62
g138
sg55
(lp145
S'body'
p146
asbag48
(g69
g50
NtRp147
(dp148
g53
(dp149
g80
g81
ssg62
g138
sg55
(lp150
S':'
asbag48
(g69
g50
NtRp151
(dp152
g53
(dp153
sg62
g138
sg55
(lp154
g48
(g49
g50
NtRp155
(dp156
g53
(dp157
g61
I5
ssg62
g151
sg55
(lp158
S'<cStringIO.StringO object at 0x08237DC0>'
p159
asbasbasbag48
(g64
g50
NtRp160
(dp161
g53
(dp162
sg62
g58
sg55
(lp163
g48
(g69
g50
NtRp164
(dp165
g53
(dp166
g73
g74
ssg62
g160
sg55
(lp167
S'client'
p168
asbag48
(g69
g50
NtRp169
(dp170
g53
(dp171
g80
g81
ssg62
g160
sg55
(lp172
S':'
asbag48
(g69
g50
NtRp173
(dp174
g53
(dp175
sg62
g160
sg55
(lp176
g48
(g49
g50
NtRp177
(dp178
g53
(dp179
g61
I5
ssg62
g173
sg55
(lp180
S'127.0.0.1'
p181
asbasbasbag48
(g64
g50
NtRp182
(dp183
g53
(dp184
sg62
g58
sg55
(lp185
g48
(g69
g50
NtRp186
(dp187
g53
(dp188
g73
g74
ssg62
g182
sg55
(lp189
S'controller'
p190
asbag48
(g69
g50
NtRp191
(dp192
g53
(dp193
g80
g81
ssg62
g182
sg55
(lp194
S':'
asbag48
(g69
g50
NtRp195
(dp196
g53
(dp197
sg62
g182
sg55
(lp198
g48
(g49
g50
NtRp199
(dp200
g53
(dp201
g61
I5
ssg62
g195
sg55
(lp202
S'default'
p203
asbasbasbag48
(g64
g50
NtRp204
(dp205
g53
(dp206
sg62
g58
sg55
(lp207
g48
(g69
g50
NtRp208
(dp209
g53
(dp210
g73
g74
ssg62
g204
sg55
(lp211
S'cookies'
p212
asbag48
(g69
g50
NtRp213
(dp214
g53
(dp215
g80
g81
ssg62
g204
sg55
(lp216
S':'
asbag48
(g69
g50
NtRp217
(dp218
g53
(dp219
sg62
g204
sg55
(lp220
g48
(g49
g50
NtRp221
(dp222
g53
(dp223
g61
I5
ssg62
g217
sg55
(lp224
g48
(g57
g50
NtRp225
(dp226
g53
(dp227
g61
I4
ssg62
Nsg55
(lp228
g48
(g64
g50
NtRp229
(dp230
g53
(dp231
sg62
g225
sg55
(lp232
g48
(g69
g50
NtRp233
(dp234
g53
(dp235
g73
g74
ssg62
g229
sg55
(lp236
S'session_id_admin'
p237
asbag48
(g69
g50
NtRp238
(dp239
g53
(dp240
g80
g81
ssg62
g229
sg55
(lp241
S':'
asbag48
(g69
g50
NtRp242
(dp243
g53
(dp244
sg62
g229
sg55
(lp245
g48
(g49
g50
NtRp246
(dp247
g53
(dp248
g61
I4
ssg62
g242
sg55
(lp249
g48
(g57
g50
NtRp250
(dp251
g53
(dp252
g61
I3
ssg62
Nsg55
(lp253
g48
(g64
g50
NtRp254
(dp255
g53
(dp256
sg62
g250
sg55
(lp257
g48
(g69
g50
NtRp258
(dp259
g53
(dp260
g73
g74
ssg62
g254
sg55
(lp261
S'comment'
p262
asbag48
(g69
g50
NtRp263
(dp264
g53
(dp265
g80
g81
ssg62
g254
sg55
(lp266
S':'
asbag48
(g69
g50
NtRp267
(dp268
g53
(dp269
sg62
g254
sg55
(lp270
g48
(g49
g50
NtRp271
(dp272
g53
(dp273
g61
I3
ssg62
g267
sg55
(lp274
S''
asbasbasbag48
(g64
g50
NtRp275
(dp276
g53
(dp277
sg62
g250
sg55
(lp278
g48
(g69
g50
NtRp279
(dp280
g53
(dp281
g73
g74
ssg62
g275
sg55
(lp282
S'domain'
p283
asbag48
(g69
g50
NtRp284
(dp285
g53
(dp286
g80
g81
ssg62
g275
sg55
(lp287
S':'
asbag48
(g69
g50
NtRp288
(dp289
g53
(dp290
sg62
g275
sg55
(lp291
g48
(g49
g50
NtRp292
(dp293
g53
(dp294
g61
I3
ssg62
g288
sg55
(lp295
S''
asbasbasbag48
(g64
g50
NtRp296
(dp297
g53
(dp298
sg62
g250
sg55
(lp299
g48
(g69
g50
NtRp300
(dp301
g53
(dp302
g73
g74
ssg62
g296
sg55
(lp303
S'expires'
p304
asbag48
(g69
g50
NtRp305
(dp306
g53
(dp307
g80
g81
ssg62
g296
sg55
(lp308
S':'
asbag48
(g69
g50
NtRp309
(dp310
g53
(dp311
sg62
g296
sg55
(lp312
g48
(g49
g50
NtRp313
(dp314
g53
(dp315
g61
I3
ssg62
g309
sg55
(lp316
S''
asbasbasbag48
(g64
g50
NtRp317
(dp318
g53
(dp319
sg62
g250
sg55
(lp320
g48
(g69
g50
NtRp321
(dp322
g53
(dp323
g73
g74
ssg62
g317
sg55
(lp324
S'max-age'
p325
asbag48
(g69
g50
NtRp326
(dp327
g53
(dp328
g80
g81
ssg62
g317
sg55
(lp329
S':'
asbag48
(g69
g50
NtRp330
(dp331
g53
(dp332
sg62
g317
sg55
(lp333
g48
(g49
g50
NtRp334
(dp335
g53
(dp336
g61
I3
ssg62
g330
sg55
(lp337
S''
asbasbasbag48
(g64
g50
NtRp338
(dp339
g53
(dp340
sg62
g250
sg55
(lp341
g48
(g69
g50
NtRp342
(dp343
g53
(dp344
g73
g74
ssg62
g338
sg55
(lp345
S'path'
p346
asbag48
(g69
g50
NtRp347
(dp348
g53
(dp349
g80
g81
ssg62
g338
sg55
(lp350
S':'
asbag48
(g69
g50
NtRp351
(dp352
g53
(dp353
sg62
g338
sg55
(lp354
g48
(g49
g50
NtRp355
(dp356
g53
(dp357
g61
I3
ssg62
g351
sg55
(lp358
S''
asbasbasbag48
(g64
g50
NtRp359
(dp360
g53
(dp361
sg62
g250
sg55
(lp362
g48
(g69
g50
NtRp363
(dp364
g53
(dp365
g73
g74
ssg62
g359
sg55
(lp366
S'secure'
p367
asbag48
(g69
g50
NtRp368
(dp369
g53
(dp370
g80
g81
ssg62
g359
sg55
(lp371
S':'
asbag48
(g69
g50
NtRp372
(dp373
g53
(dp374
sg62
g359
sg55
(lp375
g48
(g49
g50
NtRp376
(dp377
g53
(dp378
g61
I3
ssg62
g372
sg55
(lp379
S''
asbasbasbag48
(g64
g50
NtRp380
(dp381
g53
(dp382
sg62
g250
sg55
(lp383
g48
(g69
g50
NtRp384
(dp385
g53
(dp386
g73
g74
ssg62
g380
sg55
(lp387
S'version'
p388
asbag48
(g69
g50
NtRp389
(dp390
g53
(dp391
g80
g81
ssg62
g380
sg55
(lp392
S':'
asbag48
(g69
g50
NtRp393
(dp394
g53
(dp395
sg62
g380
sg55
(lp396
g48
(g49
g50
NtRp397
(dp398
g53
(dp399
g61
I3
ssg62
g393
sg55
(lp400
S''
asbasbasbasbasbasbasbag48
(g64
g50
NtRp401
(dp402
g53
(dp403
sg62
g225
sg55
(lp404
g48
(g69
g50
NtRp405
(dp406
g53
(dp407
g73
g74
ssg62
g401
sg55
(lp408
S'session_id_desglosar_emails'
p409
asbag48
(g69
g50
NtRp410
(dp411
g53
(dp412
g80
g81
ssg62
g401
sg55
(lp413
S':'
asbag48
(g69
g50
NtRp414
(dp415
g53
(dp416
sg62
g401
sg55
(lp417
g48
(g49
g50
NtRp418
(dp419
g53
(dp420
g61
I4
ssg62
g414
sg55
(lp421
g48
(g57
g50
NtRp422
(dp423
g53
(dp424
g61
I3
ssg62
Nsg55
(lp425
g48
(g64
g50
NtRp426
(dp427
g53
(dp428
sg62
g422
sg55
(lp429
g48
(g69
g50
NtRp430
(dp431
g53
(dp432
g73
g74
ssg62
g426
sg55
(lp433
g262
asbag48
(g69
g50
NtRp434
(dp435
g53
(dp436
g80
g81
ssg62
g426
sg55
(lp437
S':'
asbag48
(g69
g50
NtRp438
(dp439
g53
(dp440
sg62
g426
sg55
(lp441
g48
(g49
g50
NtRp442
(dp443
g53
(dp444
g61
I3
ssg62
g438
sg55
(lp445
S''
asbasbasbag48
(g64
g50
NtRp446
(dp447
g53
(dp448
sg62
g422
sg55
(lp449
g48
(g69
g50
NtRp450
(dp451
g53
(dp452
g73
g74
ssg62
g446
sg55
(lp453
g283
asbag48
(g69
g50
NtRp454
(dp455
g53
(dp456
g80
g81
ssg62
g446
sg55
(lp457
S':'
asbag48
(g69
g50
NtRp458
(dp459
g53
(dp460
sg62
g446
sg55
(lp461
g48
(g49
g50
NtRp462
(dp463
g53
(dp464
g61
I3
ssg62
g458
sg55
(lp465
S''
asbasbasbag48
(g64
g50
NtRp466
(dp467
g53
(dp468
sg62
g422
sg55
(lp469
g48
(g69
g50
NtRp470
(dp471
g53
(dp472
g73
g74
ssg62
g466
sg55
(lp473
g304
asbag48
(g69
g50
NtRp474
(dp475
g53
(dp476
g80
g81
ssg62
g466
sg55
(lp477
S':'
asbag48
(g69
g50
NtRp478
(dp479
g53
(dp480
sg62
g466
sg55
(lp481
g48
(g49
g50
NtRp482
(dp483
g53
(dp484
g61
I3
ssg62
g478
sg55
(lp485
S''
asbasbasbag48
(g64
g50
NtRp486
(dp487
g53
(dp488
sg62
g422
sg55
(lp489
g48
(g69
g50
NtRp490
(dp491
g53
(dp492
g73
g74
ssg62
g486
sg55
(lp493
g325
asbag48
(g69
g50
NtRp494
(dp495
g53
(dp496
g80
g81
ssg62
g486
sg55
(lp497
S':'
asbag48
(g69
g50
NtRp498
(dp499
g53
(dp500
sg62
g486
sg55
(lp501
g48
(g49
g50
NtRp502
(dp503
g53
(dp504
g61
I3
ssg62
g498
sg55
(lp505
S''
asbasbasbag48
(g64
g50
NtRp506
(dp507
g53
(dp508
sg62
g422
sg55
(lp509
g48
(g69
g50
NtRp510
(dp511
g53
(dp512
g73
g74
ssg62
g506
sg55
(lp513
g346
asbag48
(g69
g50
NtRp514
(dp515
g53
(dp516
g80
g81
ssg62
g506
sg55
(lp517
S':'
asbag48
(g69
g50
NtRp518
(dp519
g53
(dp520
sg62
g506
sg55
(lp521
g48
(g49
g50
NtRp522
(dp523
g53
(dp524
g61
I3
ssg62
g518
sg55
(lp525
S''
asbasbasbag48
(g64
g50
NtRp526
(dp527
g53
(dp528
sg62
g422
sg55
(lp529
g48
(g69
g50
NtRp530
(dp531
g53
(dp532
g73
g74
ssg62
g526
sg55
(lp533
g367
asbag48
(g69
g50
NtRp534
(dp535
g53
(dp536
g80
g81
ssg62
g526
sg55
(lp537
S':'
asbag48
(g69
g50
NtRp538
(dp539
g53
(dp540
sg62
g526
sg55
(lp541
g48
(g49
g50
NtRp542
(dp543
g53
(dp544
g61
I3
ssg62
g538
sg55
(lp545
S''
asbasbasbag48
(g64
g50
NtRp546
(dp547
g53
(dp548
sg62
g422
sg55
(lp549
g48
(g69
g50
NtRp550
(dp551
g53
(dp552
g73
g74
ssg62
g546
sg55
(lp553
g388
asbag48
(g69
g50
NtRp554
(dp555
g53
(dp556
g80
g81
ssg62
g546
sg55
(lp557
S':'
asbag48
(g69
g50
NtRp558
(dp559
g53
(dp560
sg62
g546
sg55
(lp561
g48
(g49
g50
NtRp562
(dp563
g53
(dp564
g61
I3
ssg62
g558
sg55
(lp565
S''
asbasbasbasbasbasbasbag48
(g64
g50
NtRp566
(dp567
g53
(dp568
sg62
g225
sg55
(lp569
g48
(g69
g50
NtRp570
(dp571
g53
(dp572
g73
g74
ssg62
g566
sg55
(lp573
S'session_id_welcome'
p574
asbag48
(g69
g50
NtRp575
(dp576
g53
(dp577
g80
g81
ssg62
g566
sg55
(lp578
S':'
asbag48
(g69
g50
NtRp579
(dp580
g53
(dp581
sg62
g566
sg55
(lp582
g48
(g49
g50
NtRp583
(dp584
g53
(dp585
g61
I4
ssg62
g579
sg55
(lp586
g48
(g57
g50
NtRp587
(dp588
g53
(dp589
g61
I3
ssg62
Nsg55
(lp590
g48
(g64
g50
NtRp591
(dp592
g53
(dp593
sg62
g587
sg55
(lp594
g48
(g69
g50
NtRp595
(dp596
g53
(dp597
g73
g74
ssg62
g591
sg55
(lp598
g262
asbag48
(g69
g50
NtRp599
(dp600
g53
(dp601
g80
g81
ssg62
g591
sg55
(lp602
S':'
asbag48
(g69
g50
NtRp603
(dp604
g53
(dp605
sg62
g591
sg55
(lp606
g48
(g49
g50
NtRp607
(dp608
g53
(dp609
g61
I3
ssg62
g603
sg55
(lp610
S''
asbasbasbag48
(g64
g50
NtRp611
(dp612
g53
(dp613
sg62
g587
sg55
(lp614
g48
(g69
g50
NtRp615
(dp616
g53
(dp617
g73
g74
ssg62
g611
sg55
(lp618
g283
asbag48
(g69
g50
NtRp619
(dp620
g53
(dp621
g80
g81
ssg62
g611
sg55
(lp622
S':'
asbag48
(g69
g50
NtRp623
(dp624
g53
(dp625
sg62
g611
sg55
(lp626
g48
(g49
g50
NtRp627
(dp628
g53
(dp629
g61
I3
ssg62
g623
sg55
(lp630
S''
asbasbasbag48
(g64
g50
NtRp631
(dp632
g53
(dp633
sg62
g587
sg55
(lp634
g48
(g69
g50
NtRp635
(dp636
g53
(dp637
g73
g74
ssg62
g631
sg55
(lp638
g304
asbag48
(g69
g50
NtRp639
(dp640
g53
(dp641
g80
g81
ssg62
g631
sg55
(lp642
S':'
asbag48
(g69
g50
NtRp643
(dp644
g53
(dp645
sg62
g631
sg55
(lp646
g48
(g49
g50
NtRp647
(dp648
g53
(dp649
g61
I3
ssg62
g643
sg55
(lp650
S''
asbasbasbag48
(g64
g50
NtRp651
(dp652
g53
(dp653
sg62
g587
sg55
(lp654
g48
(g69
g50
NtRp655
(dp656
g53
(dp657
g73
g74
ssg62
g651
sg55
(lp658
g325
asbag48
(g69
g50
NtRp659
(dp660
g53
(dp661
g80
g81
ssg62
g651
sg55
(lp662
S':'
asbag48
(g69
g50
NtRp663
(dp664
g53
(dp665
sg62
g651
sg55
(lp666
g48
(g49
g50
NtRp667
(dp668
g53
(dp669
g61
I3
ssg62
g663
sg55
(lp670
S''
asbasbasbag48
(g64
g50
NtRp671
(dp672
g53
(dp673
sg62
g587
sg55
(lp674
g48
(g69
g50
NtRp675
(dp676
g53
(dp677
g73
g74
ssg62
g671
sg55
(lp678
g346
asbag48
(g69
g50
NtRp679
(dp680
g53
(dp681
g80
g81
ssg62
g671
sg55
(lp682
S':'
asbag48
(g69
g50
NtRp683
(dp684
g53
(dp685
sg62
g671
sg55
(lp686
g48
(g49
g50
NtRp687
(dp688
g53
(dp689
g61
I3
ssg62
g683
sg55
(lp690
S''
asbasbasbag48
(g64
g50
NtRp691
(dp692
g53
(dp693
sg62
g587
sg55
(lp694
g48
(g69
g50
NtRp695
(dp696
g53
(dp697
g73
g74
ssg62
g691
sg55
(lp698
g367
asbag48
(g69
g50
NtRp699
(dp700
g53
(dp701
g80
g81
ssg62
g691
sg55
(lp702
S':'
asbag48
(g69
g50
NtRp703
(dp704
g53
(dp705
sg62
g691
sg55
(lp706
g48
(g49
g50
NtRp707
(dp708
g53
(dp709
g61
I3
ssg62
g703
sg55
(lp710
S''
asbasbasbag48
(g64
g50
NtRp711
(dp712
g53
(dp713
sg62
g587
sg55
(lp714
g48
(g69
g50
NtRp715
(dp716
g53
(dp717
g73
g74
ssg62
g711
sg55
(lp718
g388
asbag48
(g69
g50
NtRp719
(dp720
g53
(dp721
g80
g81
ssg62
g711
sg55
(lp722
S':'
asbag48
(g69
g50
NtRp723
(dp724
g53
(dp725
sg62
g711
sg55
(lp726
g48
(g49
g50
NtRp727
(dp728
g53
(dp729
g61
I3
ssg62
g723
sg55
(lp730
S''
asbasbasbasbasbasbasbasbasbasbasbag48
(g64
g50
NtRp731
(dp732
g53
(dp733
sg62
g58
sg55
(lp734
g48
(g69
g50
NtRp735
(dp736
g53
(dp737
g73
g74
ssg62
g731
sg55
(lp738
S'env'
p739
asbag48
(g69
g50
NtRp740
(dp741
g53
(dp742
g80
g81
ssg62
g731
sg55
(lp743
S':'
asbag48
(g69
g50
NtRp744
(dp745
g53
(dp746
sg62
g731
sg55
(lp747
g48
(g49
g50
NtRp748
(dp749
g53
(dp750
g61
I5
ssg62
g744
sg55
(lp751
g48
(g57
g50
NtRp752
(dp753
g53
(dp754
g61
I4
ssg62
Nsg55
(lp755
g48
(g64
g50
NtRp756
(dp757
g53
(dp758
sg62
g752
sg55
(lp759
g48
(g69
g50
NtRp760
(dp761
g53
(dp762
g73
g74
ssg62
g756
sg55
(lp763
S'app_folders'
p764
asbag48
(g69
g50
NtRp765
(dp766
g53
(dp767
g80
g81
ssg62
g756
sg55
(lp768
S':'
asbag48
(g69
g50
NtRp769
(dp770
g53
(dp771
sg62
g756
sg55
(lp772
g48
(g49
g50
NtRp773
(dp774
g53
(dp775
g61
I4
ssg62
g769
sg55
(lp776
S"set(['C:\\\\Users\\\\Atomico\\\\web2py\\\\applications\\\\welcome\\\\', 'C:\\\\Users\\\\Atomico\\\\web2py\\\\applications\\\\examples\\\\', 'C:\\\\Users\\\\Atomico\\\\web2py\\\\applications\\\\Desglosar_Emails\\\\', 'C:\\\\Users\\\\Atomico\\\\web2py\\\\applications\\\\admin\\\\'])"
p777
asbasbasbag48
(g64
g50
NtRp778
(dp779
g53
(dp780
sg62
g752
sg55
(lp781
g48
(g69
g50
NtRp782
(dp783
g53
(dp784
g73
g74
ssg62
g778
sg55
(lp785
S'applications_parent'
p786
asbag48
(g69
g50
NtRp787
(dp788
g53
(dp789
g80
g81
ssg62
g778
sg55
(lp790
S':'
asbag48
(g69
g50
NtRp791
(dp792
g53
(dp793
sg62
g778
sg55
(lp794
g48
(g49
g50
NtRp795
(dp796
g53
(dp797
g61
I4
ssg62
g791
sg55
(lp798
S'C:\\Users\\Atomico\\web2py'
p799
asbasbasbag48
(g64
g50
NtRp800
(dp801
g53
(dp802
sg62
g752
sg55
(lp803
g48
(g69
g50
NtRp804
(dp805
g53
(dp806
g73
g74
ssg62
g800
sg55
(lp807
S'cmd_args'
p808
asbag48
(g69
g50
NtRp809
(dp810
g53
(dp811
g80
g81
ssg62
g800
sg55
(lp812
S':'
asbag48
(g69
g50
NtRp813
(dp814
g53
(dp815
sg62
g800
sg55
(lp816
g48
(g49
g50
NtRp817
(dp818
g53
(dp819
g61
I4
ssg62
g813
sg55
(lp820
g48
(g57
g50
NtRp821
(dp822
g53
(dp823
g61
I3
ssg62
Nsg55
(lp824
sbasbasbasbag48
(g64
g50
NtRp825
(dp826
g53
(dp827
sg62
g752
sg55
(lp828
g48
(g69
g50
NtRp829
(dp830
g53
(dp831
g73
g74
ssg62
g825
sg55
(lp832
S'cmd_options'
p833
asbag48
(g69
g50
NtRp834
(dp835
g53
(dp836
g80
g81
ssg62
g825
sg55
(lp837
S':'
asbag48
(g69
g50
NtRp838
(dp839
g53
(dp840
sg62
g825
sg55
(lp841
g48
(g49
g50
NtRp842
(dp843
g53
(dp844
g61
I4
ssg62
g838
sg55
(lp845
S"<Values at 0x30f55d0: {'verbose': False, 'ip': '127.0.0.1', 'shutdown_timeout': 5, 'taskbar': False, 'port': 8000, 'maxthreads': None, 'softcron': False, 'server_name': 'Swing', 'bpython': False, 'nogui': False, 'nocron': False, 'extcron': False, 'debuglevel': 30, 'test': None, 'folder': 'C:\\\\Users\\\\Atomico\\\\web2py', 'config': '', 'import_models': False, 'winservice': '', 'shell': None, 'run': '', 'log_filename': 'httpserver.log', 'args': [''], 'profiler_filename': None, 'ssl_private_key': '', 'password': '<ask>', 'request_queue_size': 5, 'ssl_certificate': '', 'cronjob': False, 'plain': False, 'quiet': False, 'interfaces': None, 'minthreads': None, 'timeout': 10, 'numthreads': None, 'nobanner': False, 'pid_filename': 'httpserver.pid'}>"
p846
asbasbasbag48
(g64
g50
NtRp847
(dp848
g53
(dp849
sg62
g752
sg55
(lp850
g48
(g69
g50
NtRp851
(dp852
g53
(dp853
g73
g74
ssg62
g847
sg55
(lp854
S'db_sessions'
p855
asbag48
(g69
g50
NtRp856
(dp857
g53
(dp858
g80
g81
ssg62
g847
sg55
(lp859
S':'
asbag48
(g69
g50
NtRp860
(dp861
g53
(dp862
sg62
g847
sg55
(lp863
g48
(g49
g50
NtRp864
(dp865
g53
(dp866
g61
I4
ssg62
g860
sg55
(lp867
S'set([])'
p868
asbasbasbag48
(g64
g50
NtRp869
(dp870
g53
(dp871
sg62
g752
sg55
(lp872
g48
(g69
g50
NtRp873
(dp874
g53
(dp875
g73
g74
ssg62
g869
sg55
(lp876
S'debugging'
p877
asbag48
(g69
g50
NtRp878
(dp879
g53
(dp880
g80
g81
ssg62
g869
sg55
(lp881
S':'
asbag48
(g69
g50
NtRp882
(dp883
g53
(dp884
sg62
g869
sg55
(lp885
g48
(g49
g50
NtRp886
(dp887
g53
(dp888
g61
I4
ssg62
g882
sg55
(lp889
g91
asbasbasbag48
(g64
g50
NtRp890
(dp891
g53
(dp892
sg62
g752
sg55
(lp893
g48
(g69
g50
NtRp894
(dp895
g53
(dp896
g73
g74
ssg62
g890
sg55
(lp897
S'gluon_parent'
p898
asbag48
(g69
g50
NtRp899
(dp900
g53
(dp901
g80
g81
ssg62
g890
sg55
(lp902
S':'
asbag48
(g69
g50
NtRp903
(dp904
g53
(dp905
sg62
g890
sg55
(lp906
g48
(g49
g50
NtRp907
(dp908
g53
(dp909
g61
I4
ssg62
g903
sg55
(lp910
S'C:\\Users\\Atomico\\web2py'
p911
asbasbasbag48
(g64
g50
NtRp912
(dp913
g53
(dp914
sg62
g752
sg55
(lp915
g48
(g69
g50
NtRp916
(dp917
g53
(dp918
g73
g74
ssg62
g912
sg55
(lp919
S'http_accept'
p920
asbag48
(g69
g50
NtRp921
(dp922
g53
(dp923
g80
g81
ssg62
g912
sg55
(lp924
S':'
asbag48
(g69
g50
NtRp925
(dp926
g53
(dp927
sg62
g912
sg55
(lp928
g48
(g49
g50
NtRp929
(dp930
g53
(dp931
g61
I4
ssg62
g925
sg55
(lp932
S'text/html,application/xhtml+xml,application/xml;q=0.9,*/*;q=0.8'
p933
asbasbasbag48
(g64
g50
NtRp934
(dp935
g53
(dp936
sg62
g752
sg55
(lp937
g48
(g69
g50
NtRp938
(dp939
g53
(dp940
g73
g74
ssg62
g934
sg55
(lp941
S'http_accept_charset'
p942
asbag48
(g69
g50
NtRp943
(dp944
g53
(dp945
g80
g81
ssg62
g934
sg55
(lp946
S':'
asbag48
(g69
g50
NtRp947
(dp948
g53
(dp949
sg62
g934
sg55
(lp950
g48
(g49
g50
NtRp951
(dp952
g53
(dp953
g61
I4
ssg62
g947
sg55
(lp954
S'ISO-8859-1,utf-8;q=0.7,*;q=0.7'
p955
asbasbasbag48
(g64
g50
NtRp956
(dp957
g53
(dp958
sg62
g752
sg55
(lp959
g48
(g69
g50
NtRp960
(dp961
g53
(dp962
g73
g74
ssg62
g956
sg55
(lp963
S'http_accept_encoding'
p964
asbag48
(g69
g50
NtRp965
(dp966
g53
(dp967
g80
g81
ssg62
g956
sg55
(lp968
S':'
asbag48
(g69
g50
NtRp969
(dp970
g53
(dp971
sg62
g956
sg55
(lp972
g48
(g49
g50
NtRp973
(dp974
g53
(dp975
g61
I4
ssg62
g969
sg55
(lp976
S'gzip, deflate'
p977
asbasbasbag48
(g64
g50
NtRp978
(dp979
g53
(dp980
sg62
g752
sg55
(lp981
g48
(g69
g50
NtRp982
(dp983
g53
(dp984
g73
g74
ssg62
g978
sg55
(lp985
S'http_accept_language'
p986
asbag48
(g69
g50
NtRp987
(dp988
g53
(dp989
g80
g81
ssg62
g978
sg55
(lp990
S':'
asbag48
(g69
g50
NtRp991
(dp992
g53
(dp993
sg62
g978
sg55
(lp994
g48
(g49
g50
NtRp995
(dp996
g53
(dp997
g61
I4
ssg62
g991
sg55
(lp998
S'es-es,es;q=0.8,en-us;q=0.5,en;q=0.3'
p999
asbasbasbag48
(g64
g50
NtRp1000
(dp1001
g53
(dp1002
sg62
g752
sg55
(lp1003
g48
(g69
g50
NtRp1004
(dp1005
g53
(dp1006
g73
g74
ssg62
g1000
sg55
(lp1007
S'http_cache_control'
p1008
asbag48
(g69
g50
NtRp1009
(dp1010
g53
(dp1011
g80
g81
ssg62
g1000
sg55
(lp1012
S':'
asbag48
(g69
g50
NtRp1013
(dp1014
g53
(dp1015
sg62
g1000
sg55
(lp1016
g48
(g49
g50
NtRp1017
(dp1018
g53
(dp1019
g61
I4
ssg62
g1013
sg55
(lp1020
S'max-age=0'
p1021
asbasbasbag48
(g64
g50
NtRp1022
(dp1023
g53
(dp1024
sg62
g752
sg55
(lp1025
g48
(g69
g50
NtRp1026
(dp1027
g53
(dp1028
g73
g74
ssg62
g1022
sg55
(lp1029
S'http_connection'
p1030
asbag48
(g69
g50
NtRp1031
(dp1032
g53
(dp1033
g80
g81
ssg62
g1022
sg55
(lp1034
S':'
asbag48
(g69
g50
NtRp1035
(dp1036
g53
(dp1037
sg62
g1022
sg55
(lp1038
g48
(g49
g50
NtRp1039
(dp1040
g53
(dp1041
g61
I4
ssg62
g1035
sg55
(lp1042
S'keep-alive'
p1043
asbasbasbag48
(g64
g50
NtRp1044
(dp1045
g53
(dp1046
sg62
g752
sg55
(lp1047
g48
(g69
g50
NtRp1048
(dp1049
g53
(dp1050
g73
g74
ssg62
g1044
sg55
(lp1051
S'http_cookie'
p1052
asbag48
(g69
g50
NtRp1053
(dp1054
g53
(dp1055
g80
g81
ssg62
g1044
sg55
(lp1056
S':'
asbag48
(g69
g50
NtRp1057
(dp1058
g53
(dp1059
sg62
g1044
sg55
(lp1060
g48
(g49
g50
NtRp1061
(dp1062
g53
(dp1063
g61
I4
ssg62
g1057
sg55
(lp1064
S'session_id_welcome=127.0.0.1-376eb8b3-82de-4ca4-962a-cf914386adb5; session_id_admin=127.0.0.1-ab41072a-78d8-41d9-b0f6-43c9e78f0c91; session_id_desglosar_emails=127.0.0.1-78cf8050-df87-4502-afb9-ed0c3843b414'
p1065
asbasbasbag48
(g64
g50
NtRp1066
(dp1067
g53
(dp1068
sg62
g752
sg55
(lp1069
g48
(g69
g50
NtRp1070
(dp1071
g53
(dp1072
g73
g74
ssg62
g1066
sg55
(lp1073
S'http_host'
p1074
asbag48
(g69
g50
NtRp1075
(dp1076
g53
(dp1077
g80
g81
ssg62
g1066
sg55
(lp1078
S':'
asbag48
(g69
g50
NtRp1079
(dp1080
g53
(dp1081
sg62
g1066
sg55
(lp1082
g48
(g49
g50
NtRp1083
(dp1084
g53
(dp1085
g61
I4
ssg62
g1079
sg55
(lp1086
S'127.0.0.1:8000'
p1087
asbasbasbag48
(g64
g50
NtRp1088
(dp1089
g53
(dp1090
sg62
g752
sg55
(lp1091
g48
(g69
g50
NtRp1092
(dp1093
g53
(dp1094
g73
g74
ssg62
g1088
sg55
(lp1095
S'http_referer'
p1096
asbag48
(g69
g50
NtRp1097
(dp1098
g53
(dp1099
g80
g81
ssg62
g1088
sg55
(lp1100
S':'
asbag48
(g69
g50
NtRp1101
(dp1102
g53
(dp1103
sg62
g1088
sg55
(lp1104
g48
(g49
g50
NtRp1105
(dp1106
g53
(dp1107
g61
I4
ssg62
g1101
sg55
(lp1108
S'http://127.0.0.1:8000/admin/default/design/Desglosar_Emails'
p1109
asbasbasbag48
(g64
g50
NtRp1110
(dp1111
g53
(dp1112
sg62
g752
sg55
(lp1113
g48
(g69
g50
NtRp1114
(dp1115
g53
(dp1116
g73
g74
ssg62
g1110
sg55
(lp1117
S'http_user_agent'
p1118
asbag48
(g69
g50
NtRp1119
(dp1120
g53
(dp1121
g80
g81
ssg62
g1110
sg55
(lp1122
S':'
asbag48
(g69
g50
NtRp1123
(dp1124
g53
(dp1125
sg62
g1110
sg55
(lp1126
g48
(g49
g50
NtRp1127
(dp1128
g53
(dp1129
g61
I4
ssg62
g1123
sg55
(lp1130
S'Mozilla/5.0 (Windows NT 6.1; WOW64; rv:6.0.2) Gecko/20100101 Firefox/6.0.2'
p1131
asbasbasbag48
(g64
g50
NtRp1132
(dp1133
g53
(dp1134
sg62
g752
sg55
(lp1135
g48
(g69
g50
NtRp1136
(dp1137
g53
(dp1138
g73
g74
ssg62
g1132
sg55
(lp1139
S'is_jython'
p1140
asbag48
(g69
g50
NtRp1141
(dp1142
g53
(dp1143
g80
g81
ssg62
g1132
sg55
(lp1144
S':'
asbag48
(g69
g50
NtRp1145
(dp1146
g53
(dp1147
sg62
g1132
sg55
(lp1148
g48
(g49
g50
NtRp1149
(dp1150
g53
(dp1151
g61
I4
ssg62
g1145
sg55
(lp1152
g91
asbasbasbag48
(g64
g50
NtRp1153
(dp1154
g53
(dp1155
sg62
g752
sg55
(lp1156
g48
(g69
g50
NtRp1157
(dp1158
g53
(dp1159
g73
g74
ssg62
g1153
sg55
(lp1160
S'path_info'
p1161
asbag48
(g69
g50
NtRp1162
(dp1163
g53
(dp1164
g80
g81
ssg62
g1153
sg55
(lp1165
S':'
asbag48
(g69
g50
NtRp1166
(dp1167
g53
(dp1168
sg62
g1153
sg55
(lp1169
g48
(g49
g50
NtRp1170
(dp1171
g53
(dp1172
g61
I4
ssg62
g1166
sg55
(lp1173
S'/Desglosar_Emails/default/borrardb'
p1174
asbasbasbag48
(g64
g50
NtRp1175
(dp1176
g53
(dp1177
sg62
g752
sg55
(lp1178
g48
(g69
g50
NtRp1179
(dp1180
g53
(dp1181
g73
g74
ssg62
g1175
sg55
(lp1182
S'query_string'
p1183
asbag48
(g69
g50
NtRp1184
(dp1185
g53
(dp1186
g80
g81
ssg62
g1175
sg55
(lp1187
S':'
asbag48
(g69
g50
NtRp1188
(dp1189
g53
(dp1190
sg62
g1175
sg55
(lp1191
g48
(g49
g50
NtRp1192
(dp1193
g53
(dp1194
g61
I4
ssg62
g1188
sg55
(lp1195
S''
asbasbasbag48
(g64
g50
NtRp1196
(dp1197
g53
(dp1198
sg62
g752
sg55
(lp1199
g48
(g69
g50
NtRp1200
(dp1201
g53
(dp1202
g73
g74
ssg62
g1196
sg55
(lp1203
S'remote_addr'
p1204
asbag48
(g69
g50
NtRp1205
(dp1206
g53
(dp1207
g80
g81
ssg62
g1196
sg55
(lp1208
S':'
asbag48
(g69
g50
NtRp1209
(dp1210
g53
(dp1211
sg62
g1196
sg55
(lp1212
g48
(g49
g50
NtRp1213
(dp1214
g53
(dp1215
g61
I4
ssg62
g1209
sg55
(lp1216
g181
asbasbasbag48
(g64
g50
NtRp1217
(dp1218
g53
(dp1219
sg62
g752
sg55
(lp1220
g48
(g69
g50
NtRp1221
(dp1222
g53
(dp1223
g73
g74
ssg62
g1217
sg55
(lp1224
S'remote_port'
p1225
asbag48
(g69
g50
NtRp1226
(dp1227
g53
(dp1228
g80
g81
ssg62
g1217
sg55
(lp1229
S':'
asbag48
(g69
g50
NtRp1230
(dp1231
g53
(dp1232
sg62
g1217
sg55
(lp1233
g48
(g49
g50
NtRp1234
(dp1235
g53
(dp1236
g61
I4
ssg62
g1230
sg55
(lp1237
S'56139'
p1238
asbasbasbag48
(g64
g50
NtRp1239
(dp1240
g53
(dp1241
sg62
g752
sg55
(lp1242
g48
(g69
g50
NtRp1243
(dp1244
g53
(dp1245
g73
g74
ssg62
g1239
sg55
(lp1246
S'request_method'
p1247
asbag48
(g69
g50
NtRp1248
(dp1249
g53
(dp1250
g80
g81
ssg62
g1239
sg55
(lp1251
S':'
asbag48
(g69
g50
NtRp1252
(dp1253
g53
(dp1254
sg62
g1239
sg55
(lp1255
g48
(g49
g50
NtRp1256
(dp1257
g53
(dp1258
g61
I4
ssg62
g1252
sg55
(lp1259
S'GET'
p1260
asbasbasbag48
(g64
g50
NtRp1261
(dp1262
g53
(dp1263
sg62
g752
sg55
(lp1264
g48
(g69
g50
NtRp1265
(dp1266
g53
(dp1267
g73
g74
ssg62
g1261
sg55
(lp1268
S'script_name'
p1269
asbag48
(g69
g50
NtRp1270
(dp1271
g53
(dp1272
g80
g81
ssg62
g1261
sg55
(lp1273
S':'
asbag48
(g69
g50
NtRp1274
(dp1275
g53
(dp1276
sg62
g1261
sg55
(lp1277
g48
(g49
g50
NtRp1278
(dp1279
g53
(dp1280
g61
I4
ssg62
g1274
sg55
(lp1281
S''
asbasbasbag48
(g64
g50
NtRp1282
(dp1283
g53
(dp1284
sg62
g752
sg55
(lp1285
g48
(g69
g50
NtRp1286
(dp1287
g53
(dp1288
g73
g74
ssg62
g1282
sg55
(lp1289
S'server_name'
p1290
asbag48
(g69
g50
NtRp1291
(dp1292
g53
(dp1293
g80
g81
ssg62
g1282
sg55
(lp1294
S':'
asbag48
(g69
g50
NtRp1295
(dp1296
g53
(dp1297
sg62
g1282
sg55
(lp1298
g48
(g49
g50
NtRp1299
(dp1300
g53
(dp1301
g61
I4
ssg62
g1295
sg55
(lp1302
S'Swing'
p1303
asbasbasbag48
(g64
g50
NtRp1304
(dp1305
g53
(dp1306
sg62
g752
sg55
(lp1307
g48
(g69
g50
NtRp1308
(dp1309
g53
(dp1310
g73
g74
ssg62
g1304
sg55
(lp1311
S'server_port'
p1312
asbag48
(g69
g50
NtRp1313
(dp1314
g53
(dp1315
g80
g81
ssg62
g1304
sg55
(lp1316
S':'
asbag48
(g69
g50
NtRp1317
(dp1318
g53
(dp1319
sg62
g1304
sg55
(lp1320
g48
(g49
g50
NtRp1321
(dp1322
g53
(dp1323
g61
I4
ssg62
g1317
sg55
(lp1324
S'8000'
p1325
asbasbasbag48
(g64
g50
NtRp1326
(dp1327
g53
(dp1328
sg62
g752
sg55
(lp1329
g48
(g69
g50
NtRp1330
(dp1331
g53
(dp1332
g73
g74
ssg62
g1326
sg55
(lp1333
S'server_protocol'
p1334
asbag48
(g69
g50
NtRp1335
(dp1336
g53
(dp1337
g80
g81
ssg62
g1326
sg55
(lp1338
S':'
asbag48
(g69
g50
NtRp1339
(dp1340
g53
(dp1341
sg62
g1326
sg55
(lp1342
g48
(g49
g50
NtRp1343
(dp1344
g53
(dp1345
g61
I4
ssg62
g1339
sg55
(lp1346
S'HTTP/1.1'
p1347
asbasbasbag48
(g64
g50
NtRp1348
(dp1349
g53
(dp1350
sg62
g752
sg55
(lp1351
g48
(g69
g50
NtRp1352
(dp1353
g53
(dp1354
g73
g74
ssg62
g1348
sg55
(lp1355
S'server_software'
p1356
asbag48
(g69
g50
NtRp1357
(dp1358
g53
(dp1359
g80
g81
ssg62
g1348
sg55
(lp1360
S':'
asbag48
(g69
g50
NtRp1361
(dp1362
g53
(dp1363
sg62
g1348
sg55
(lp1364
g48
(g49
g50
NtRp1365
(dp1366
g53
(dp1367
g61
I4
ssg62
g1361
sg55
(lp1368
S'Rocket 1.2.2'
p1369
asbasbasbag48
(g64
g50
NtRp1370
(dp1371
g53
(dp1372
sg62
g752
sg55
(lp1373
g48
(g69
g50
NtRp1374
(dp1375
g53
(dp1376
g73
g74
ssg62
g1370
sg55
(lp1377
S'web2py_crontype'
p1378
asbag48
(g69
g50
NtRp1379
(dp1380
g53
(dp1381
g80
g81
ssg62
g1370
sg55
(lp1382
S':'
asbag48
(g69
g50
NtRp1383
(dp1384
g53
(dp1385
sg62
g1370
sg55
(lp1386
g48
(g49
g50
NtRp1387
(dp1388
g53
(dp1389
g61
I4
ssg62
g1383
sg55
(lp1390
S'hard'
p1391
asbasbasbag48
(g64
g50
NtRp1392
(dp1393
g53
(dp1394
sg62
g752
sg55
(lp1395
g48
(g69
g50
NtRp1396
(dp1397
g53
(dp1398
g73
g74
ssg62
g1392
sg55
(lp1399
S'web2py_path'
p1400
asbag48
(g69
g50
NtRp1401
(dp1402
g53
(dp1403
g80
g81
ssg62
g1392
sg55
(lp1404
S':'
asbag48
(g69
g50
NtRp1405
(dp1406
g53
(dp1407
sg62
g1392
sg55
(lp1408
g48
(g49
g50
NtRp1409
(dp1410
g53
(dp1411
g61
I4
ssg62
g1405
sg55
(lp1412
g799
asbasbasbag48
(g64
g50
NtRp1413
(dp1414
g53
(dp1415
sg62
g752
sg55
(lp1416
g48
(g69
g50
NtRp1417
(dp1418
g53
(dp1419
g73
g74
ssg62
g1413
sg55
(lp1420
S'web2py_version'
p1421
asbag48
(g69
g50
NtRp1422
(dp1423
g53
(dp1424
g80
g81
ssg62
g1413
sg55
(lp1425
S':'
asbag48
(g69
g50
NtRp1426
(dp1427
g53
(dp1428
sg62
g1413
sg55
(lp1429
g48
(g49
g50
NtRp1430
(dp1431
g53
(dp1432
g61
I4
ssg62
g1426
sg55
(lp1433
S'Version 1.98.2 (2011-08-04 00:47:09)\n'
p1434
asbasbasbag48
(g64
g50
NtRp1435
(dp1436
g53
(dp1437
sg62
g752
sg55
(lp1438
g48
(g69
g50
NtRp1439
(dp1440
g53
(dp1441
g73
g74
ssg62
g1435
sg55
(lp1442
S'wsgi_errors'
p1443
asbag48
(g69
g50
NtRp1444
(dp1445
g53
(dp1446
g80
g81
ssg62
g1435
sg55
(lp1447
S':'
asbag48
(g69
g50
NtRp1448
(dp1449
g53
(dp1450
sg62
g1435
sg55
(lp1451
g48
(g49
g50
NtRp1452
(dp1453
g53
(dp1454
g61
I4
ssg62
g1448
sg55
(lp1455
S"<open file '<stderr>', mode 'w' at 0x01F200B0>"
p1456
asbasbasbag48
(g64
g50
NtRp1457
(dp1458
g53
(dp1459
sg62
g752
sg55
(lp1460
g48
(g69
g50
NtRp1461
(dp1462
g53
(dp1463
g73
g74
ssg62
g1457
sg55
(lp1464
S'wsgi_file_wrapper'
p1465
asbag48
(g69
g50
NtRp1466
(dp1467
g53
(dp1468
g80
g81
ssg62
g1457
sg55
(lp1469
S':'
asbag48
(g69
g50
NtRp1470
(dp1471
g53
(dp1472
sg62
g1457
sg55
(lp1473
g48
(g49
g50
NtRp1474
(dp1475
g53
(dp1476
g61
I4
ssg62
g1470
sg55
(lp1477
S'<class gluon.rocket.FileWrapper at 0x0307F1B0>'
p1478
asbasbasbag48
(g64
g50
NtRp1479
(dp1480
g53
(dp1481
sg62
g752
sg55
(lp1482
g48
(g69
g50
NtRp1483
(dp1484
g53
(dp1485
g73
g74
ssg62
g1479
sg55
(lp1486
S'wsgi_input'
p1487
asbag48
(g69
g50
NtRp1488
(dp1489
g53
(dp1490
g80
g81
ssg62
g1479
sg55
(lp1491
S':'
asbag48
(g69
g50
NtRp1492
(dp1493
g53
(dp1494
sg62
g1479
sg55
(lp1495
g48
(g49
g50
NtRp1496
(dp1497
g53
(dp1498
g61
I4
ssg62
g1492
sg55
(lp1499
S'<socket._fileobject object at 0x07FE89B0>'
p1500
asbasbasbag48
(g64
g50
NtRp1501
(dp1502
g53
(dp1503
sg62
g752
sg55
(lp1504
g48
(g69
g50
NtRp1505
(dp1506
g53
(dp1507
g73
g74
ssg62
g1501
sg55
(lp1508
S'wsgi_multiprocess'
p1509
asbag48
(g69
g50
NtRp1510
(dp1511
g53
(dp1512
g80
g81
ssg62
g1501
sg55
(lp1513
S':'
asbag48
(g69
g50
NtRp1514
(dp1515
g53
(dp1516
sg62
g1501
sg55
(lp1517
g48
(g49
g50
NtRp1518
(dp1519
g53
(dp1520
g61
I4
ssg62
g1514
sg55
(lp1521
g91
asbasbasbag48
(g64
g50
NtRp1522
(dp1523
g53
(dp1524
sg62
g752
sg55
(lp1525
g48
(g69
g50
NtRp1526
(dp1527
g53
(dp1528
g73
g74
ssg62
g1522
sg55
(lp1529
S'wsgi_multithread'
p1530
asbag48
(g69
g50
NtRp1531
(dp1532
g53
(dp1533
g80
g81
ssg62
g1522
sg55
(lp1534
S':'
asbag48
(g69
g50
NtRp1535
(dp1536
g53
(dp1537
sg62
g1522
sg55
(lp1538
g48
(g49
g50
NtRp1539
(dp1540
g53
(dp1541
g61
I4
ssg62
g1535
sg55
(lp1542
S'True'
p1543
asbasbasbag48
(g64
g50
NtRp1544
(dp1545
g53
(dp1546
sg62
g752
sg55
(lp1547
g48
(g69
g50
NtRp1548
(dp1549
g53
(dp1550
g73
g74
ssg62
g1544
sg55
(lp1551
S'wsgi_run_once'
p1552
asbag48
(g69
g50
NtRp1553
(dp1554
g53
(dp1555
g80
g81
ssg62
g1544
sg55
(lp1556
S':'
asbag48
(g69
g50
NtRp1557
(dp1558
g53
(dp1559
sg62
g1544
sg55
(lp1560
g48
(g49
g50
NtRp1561
(dp1562
g53
(dp1563
g61
I4
ssg62
g1557
sg55
(lp1564
g91
asbasbasbag48
(g64
g50
NtRp1565
(dp1566
g53
(dp1567
sg62
g752
sg55
(lp1568
g48
(g69
g50
NtRp1569
(dp1570
g53
(dp1571
g73
g74
ssg62
g1565
sg55
(lp1572
S'wsgi_url_scheme'
p1573
asbag48
(g69
g50
NtRp1574
(dp1575
g53
(dp1576
g80
g81
ssg62
g1565
sg55
(lp1577
S':'
asbag48
(g69
g50
NtRp1578
(dp1579
g53
(dp1580
sg62
g1565
sg55
(lp1581
g48
(g49
g50
NtRp1582
(dp1583
g53
(dp1584
g61
I4
ssg62
g1578
sg55
(lp1585
S'http'
p1586
asbasbasbag48
(g64
g50
NtRp1587
(dp1588
g53
(dp1589
sg62
g752
sg55
(lp1590
g48
(g69
g50
NtRp1591
(dp1592
g53
(dp1593
g73
g74
ssg62
g1587
sg55
(lp1594
S'wsgi_version'
p1595
asbag48
(g69
g50
NtRp1596
(dp1597
g53
(dp1598
g80
g81
ssg62
g1587
sg55
(lp1599
S':'
asbag48
(g69
g50
NtRp1600
(dp1601
g53
(dp1602
sg62
g1587
sg55
(lp1603
g48
(g49
g50
NtRp1604
(dp1605
g53
(dp1606
g61
I4
ssg62
g1600
sg55
(lp1607
g48
(g57
g50
NtRp1608
(dp1609
g53
(dp1610
g61
I3
ssg62
Nsg55
(lp1611
g48
(g64
g50
NtRp1612
(dp1613
g53
(dp1614
sg62
g1608
sg55
(lp1615
g48
(g69
g50
NtRp1616
(dp1617
g53
(dp1618
sg62
g1612
sg55
(lp1619
g48
(g49
g50
NtRp1620
(dp1621
g53
(dp1622
g61
I3
ssg62
g1616
sg55
(lp1623
S'1'
asbasbasbag48
(g64
g50
NtRp1624
(dp1625
g53
(dp1626
sg62
g1608
sg55
(lp1627
g48
(g69
g50
NtRp1628
(dp1629
g53
(dp1630
sg62
g1624
sg55
(lp1631
g48
(g49
g50
NtRp1632
(dp1633
g53
(dp1634
g61
I3
ssg62
g1628
sg55
(lp1635
S'0'
asbasbasbasbasbasbasbasbasbasbasbag48
(g64
g50
NtRp1636
(dp1637
g53
(dp1638
sg62
g58
sg55
(lp1639
g48
(g69
g50
NtRp1640
(dp1641
g53
(dp1642
g73
g74
ssg62
g1636
sg55
(lp1643
S'extension'
p1644
asbag48
(g69
g50
NtRp1645
(dp1646
g53
(dp1647
g80
g81
ssg62
g1636
sg55
(lp1648
S':'
asbag48
(g69
g50
NtRp1649
(dp1650
g53
(dp1651
sg62
g1636
sg55
(lp1652
g48
(g49
g50
NtRp1653
(dp1654
g53
(dp1655
g61
I5
ssg62
g1649
sg55
(lp1656
S'html'
p1657
asbasbasbag48
(g64
g50
NtRp1658
(dp1659
g53
(dp1660
sg62
g58
sg55
(lp1661
g48
(g69
g50
NtRp1662
(dp1663
g53
(dp1664
g73
g74
ssg62
g1658
sg55
(lp1665
S'folder'
p1666
asbag48
(g69
g50
NtRp1667
(dp1668
g53
(dp1669
g80
g81
ssg62
g1658
sg55
(lp1670
S':'
asbag48
(g69
g50
NtRp1671
(dp1672
g53
(dp1673
sg62
g1658
sg55
(lp1674
g48
(g49
g50
NtRp1675
(dp1676
g53
(dp1677
g61
I5
ssg62
g1671
sg55
(lp1678
S'C:\\Users\\Atomico\\web2py\\applications\\Desglosar_Emails\\'
p1679
asbasbasbag48
(g64
g50
NtRp1680
(dp1681
g53
(dp1682
sg62
g58
sg55
(lp1683
g48
(g69
g50
NtRp1684
(dp1685
g53
(dp1686
g73
g74
ssg62
g1680
sg55
(lp1687
S'function'
p1688
asbag48
(g69
g50
NtRp1689
(dp1690
g53
(dp1691
g80
g81
ssg62
g1680
sg55
(lp1692
S':'
asbag48
(g69
g50
NtRp1693
(dp1694
g53
(dp1695
sg62
g1680
sg55
(lp1696
g48
(g49
g50
NtRp1697
(dp1698
g53
(dp1699
g61
I5
ssg62
g1693
sg55
(lp1700
S'borrardb'
p1701
asbasbasbag48
(g64
g50
NtRp1702
(dp1703
g53
(dp1704
sg62
g58
sg55
(lp1705
g48
(g69
g50
NtRp1706
(dp1707
g53
(dp1708
g73
g74
ssg62
g1702
sg55
(lp1709
S'get_vars'
p1710
asbag48
(g69
g50
NtRp1711
(dp1712
g53
(dp1713
g80
g81
ssg62
g1702
sg55
(lp1714
S':'
asbag48
(g69
g50
NtRp1715
(dp1716
g53
(dp1717
sg62
g1702
sg55
(lp1718
g48
(g49
g50
NtRp1719
(dp1720
g53
(dp1721
g61
I5
ssg62
g1715
sg55
(lp1722
g48
(g57
g50
NtRp1723
(dp1724
g53
(dp1725
g61
I4
ssg62
Nsg55
(lp1726
sbasbasbasbag48
(g64
g50
NtRp1727
(dp1728
g53
(dp1729
sg62
g58
sg55
(lp1730
g48
(g69
g50
NtRp1731
(dp1732
g53
(dp1733
g73
g74
ssg62
g1727
sg55
(lp1734
S'is_https'
p1735
asbag48
(g69
g50
NtRp1736
(dp1737
g53
(dp1738
g80
g81
ssg62
g1727
sg55
(lp1739
S':'
asbag48
(g69
g50
NtRp1740
(dp1741
g53
(dp1742
sg62
g1727
sg55
(lp1743
g48
(g49
g50
NtRp1744
(dp1745
g53
(dp1746
g61
I5
ssg62
g1740
sg55
(lp1747
g91
asbasbasbag48
(g64
g50
NtRp1748
(dp1749
g53
(dp1750
sg62
g58
sg55
(lp1751
g48
(g69
g50
NtRp1752
(dp1753
g53
(dp1754
g73
g74
ssg62
g1748
sg55
(lp1755
S'is_local'
p1756
asbag48
(g69
g50
NtRp1757
(dp1758
g53
(dp1759
g80
g81
ssg62
g1748
sg55
(lp1760
S':'
asbag48
(g69
g50
NtRp1761
(dp1762
g53
(dp1763
sg62
g1748
sg55
(lp1764
g48
(g49
g50
NtRp1765
(dp1766
g53
(dp1767
g61
I5
ssg62
g1761
sg55
(lp1768
g1543
asbasbasbag48
(g64
g50
NtRp1769
(dp1770
g53
(dp1771
sg62
g58
sg55
(lp1772
g48
(g69
g50
NtRp1773
(dp1774
g53
(dp1775
g73
g74
ssg62
g1769
sg55
(lp1776
S'is_restful'
p1777
asbag48
(g69
g50
NtRp1778
(dp1779
g53
(dp1780
g80
g81
ssg62
g1769
sg55
(lp1781
S':'
asbag48
(g69
g50
NtRp1782
(dp1783
g53
(dp1784
sg62
g1769
sg55
(lp1785
g48
(g49
g50
NtRp1786
(dp1787
g53
(dp1788
g61
I5
ssg62
g1782
sg55
(lp1789
g91
asbasbasbag48
(g64
g50
NtRp1790
(dp1791
g53
(dp1792
sg62
g58
sg55
(lp1793
g48
(g69
g50
NtRp1794
(dp1795
g53
(dp1796
g73
g74
ssg62
g1790
sg55
(lp1797
S'now'
p1798
asbag48
(g69
g50
NtRp1799
(dp1800
g53
(dp1801
g80
g81
ssg62
g1790
sg55
(lp1802
S':'
asbag48
(g69
g50
NtRp1803
(dp1804
g53
(dp1805
sg62
g1790
sg55
(lp1806
g48
(g49
g50
NtRp1807
(dp1808
g53
(dp1809
g61
I5
ssg62
g1803
sg55
(lp1810
S'datetime.datetime(2011, 9, 20, 10, 18, 6, 174000)'
p1811
asbasbasbag48
(g64
g50
NtRp1812
(dp1813
g53
(dp1814
sg62
g58
sg55
(lp1815
g48
(g69
g50
NtRp1816
(dp1817
g53
(dp1818
g73
g74
ssg62
g1812
sg55
(lp1819
S'post_vars'
p1820
asbag48
(g69
g50
NtRp1821
(dp1822
g53
(dp1823
g80
g81
ssg62
g1812
sg55
(lp1824
S':'
asbag48
(g69
g50
NtRp1825
(dp1826
g53
(dp1827
sg62
g1812
sg55
(lp1828
g48
(g49
g50
NtRp1829
(dp1830
g53
(dp1831
g61
I5
ssg62
g1825
sg55
(lp1832
g48
(g57
g50
NtRp1833
(dp1834
g53
(dp1835
g61
I4
ssg62
Nsg55
(lp1836
sbasbasbasbag48
(g64
g50
NtRp1837
(dp1838
g53
(dp1839
sg62
g58
sg55
(lp1840
g48
(g69
g50
NtRp1841
(dp1842
g53
(dp1843
g73
g74
ssg62
g1837
sg55
(lp1844
S'url'
p1845
asbag48
(g69
g50
NtRp1846
(dp1847
g53
(dp1848
g80
g81
ssg62
g1837
sg55
(lp1849
S':'
asbag48
(g69
g50
NtRp1850
(dp1851
g53
(dp1852
sg62
g1837
sg55
(lp1853
g48
(g49
g50
NtRp1854
(dp1855
g53
(dp1856
g61
I5
ssg62
g1850
sg55
(lp1857
S'/Desglosar_Emails/default/borrardb'
p1858
asbasbasbag48
(g64
g50
NtRp1859
(dp1860
g53
(dp1861
sg62
g58
sg55
(lp1862
g48
(g69
g50
NtRp1863
(dp1864
g53
(dp1865
g73
g74
ssg62
g1859
sg55
(lp1866
S'uuid'
p1867
asbag48
(g69
g50
NtRp1868
(dp1869
g53
(dp1870
g80
g81
ssg62
g1859
sg55
(lp1871
S':'
asbag48
(g69
g50
NtRp1872
(dp1873
g53
(dp1874
sg62
g1859
sg55
(lp1875
g48
(g49
g50
NtRp1876
(dp1877
g53
(dp1878
g61
I5
ssg62
g1872
sg55
(lp1879
S'Desglosar_Emails/127.0.0.1.2011-09-20.10-18-06.b54c7946-22fe-4b4a-b352-ddc872490913'
p1880
asbasbasbag48
(g64
g50
NtRp1881
(dp1882
g53
(dp1883
sg62
g58
sg55
(lp1884
g48
(g69
g50
NtRp1885
(dp1886
g53
(dp1887
g73
g74
ssg62
g1881
sg55
(lp1888
S'vars'
p1889
asbag48
(g69
g50
NtRp1890
(dp1891
g53
(dp1892
g80
g81
ssg62
g1881
sg55
(lp1893
S':'
asbag48
(g69
g50
NtRp1894
(dp1895
g53
(dp1896
sg62
g1881
sg55
(lp1897
g48
(g49
g50
NtRp1898
(dp1899
g53
(dp1900
g61
I5
ssg62
g1894
sg55
(lp1901
g48
(g57
g50
NtRp1902
(dp1903
g53
(dp1904
g61
I4
ssg62
Nsg55
(lp1905
sbasbasbasbag48
(g64
g50
NtRp1906
(dp1907
g53
(dp1908
sg62
g58
sg55
(lp1909
g48
(g69
g50
NtRp1910
(dp1911
g53
(dp1912
g73
g74
ssg62
g1906
sg55
(lp1913
S'wsgi'
p1914
asbag48
(g69
g50
NtRp1915
(dp1916
g53
(dp1917
g80
g81
ssg62
g1906
sg55
(lp1918
S':'
asbag48
(g69
g50
NtRp1919
(dp1920
g53
(dp1921
sg62
g1906
sg55
(lp1922
g48
(g49
g50
NtRp1923
(dp1924
g53
(dp1925
g61
I5
ssg62
g1919
sg55
(lp1926
g48
(g57
g50
NtRp1927
(dp1928
g53
(dp1929
g61
I4
ssg62
Nsg55
(lp1930
g48
(g64
g50
NtRp1931
(dp1932
g53
(dp1933
sg62
g1927
sg55
(lp1934
g48
(g69
g50
NtRp1935
(dp1936
g53
(dp1937
g73
g74
ssg62
g1931
sg55
(lp1938
S'environ'
p1939
asbag48
(g69
g50
NtRp1940
(dp1941
g53
(dp1942
g80
g81
ssg62
g1931
sg55
(lp1943
S':'
asbag48
(g69
g50
NtRp1944
(dp1945
g53
(dp1946
sg62
g1931
sg55
(lp1947
g48
(g49
g50
NtRp1948
(dp1949
g53
(dp1950
g61
I4
ssg62
g1944
sg55
(lp1951
g48
(g57
g50
NtRp1952
(dp1953
g53
(dp1954
g61
I3
ssg62
Nsg55
(lp1955
g48
(g64
g50
NtRp1956
(dp1957
g53
(dp1958
sg62
g1952
sg55
(lp1959
g48
(g69
g50
NtRp1960
(dp1961
g53
(dp1962
g73
g74
ssg62
g1956
sg55
(lp1963
S'HTTP_ACCEPT'
p1964
asbag48
(g69
g50
NtRp1965
(dp1966
g53
(dp1967
g80
g81
ssg62
g1956
sg55
(lp1968
S':'
asbag48
(g69
g50
NtRp1969
(dp1970
g53
(dp1971
sg62
g1956
sg55
(lp1972
g48
(g49
g50
NtRp1973
(dp1974
g53
(dp1975
g61
I3
ssg62
g1969
sg55
(lp1976
g933
asbasbasbag48
(g64
g50
NtRp1977
(dp1978
g53
(dp1979
sg62
g1952
sg55
(lp1980
g48
(g69
g50
NtRp1981
(dp1982
g53
(dp1983
g73
g74
ssg62
g1977
sg55
(lp1984
S'HTTP_ACCEPT_CHARSET'
p1985
asbag48
(g69
g50
NtRp1986
(dp1987
g53
(dp1988
g80
g81
ssg62
g1977
sg55
(lp1989
S':'
asbag48
(g69
g50
NtRp1990
(dp1991
g53
(dp1992
sg62
g1977
sg55
(lp1993
g48
(g49
g50
NtRp1994
(dp1995
g53
(dp1996
g61
I3
ssg62
g1990
sg55
(lp1997
g955
asbasbasbag48
(g64
g50
NtRp1998
(dp1999
g53
(dp2000
sg62
g1952
sg55
(lp2001
g48
(g69
g50
NtRp2002
(dp2003
g53
(dp2004
g73
g74
ssg62
g1998
sg55
(lp2005
S'HTTP_ACCEPT_ENCODING'
p2006
asbag48
(g69
g50
NtRp2007
(dp2008
g53
(dp2009
g80
g81
ssg62
g1998
sg55
(lp2010
S':'
asbag48
(g69
g50
NtRp2011
(dp2012
g53
(dp2013
sg62
g1998
sg55
(lp2014
g48
(g49
g50
NtRp2015
(dp2016
g53
(dp2017
g61
I3
ssg62
g2011
sg55
(lp2018
g977
asbasbasbag48
(g64
g50
NtRp2019
(dp2020
g53
(dp2021
sg62
g1952
sg55
(lp2022
g48
(g69
g50
NtRp2023
(dp2024
g53
(dp2025
g73
g74
ssg62
g2019
sg55
(lp2026
S'HTTP_ACCEPT_LANGUAGE'
p2027
asbag48
(g69
g50
NtRp2028
(dp2029
g53
(dp2030
g80
g81
ssg62
g2019
sg55
(lp2031
S':'
asbag48
(g69
g50
NtRp2032
(dp2033
g53
(dp2034
sg62
g2019
sg55
(lp2035
g48
(g49
g50
NtRp2036
(dp2037
g53
(dp2038
g61
I3
ssg62
g2032
sg55
(lp2039
g999
asbasbasbag48
(g64
g50
NtRp2040
(dp2041
g53
(dp2042
sg62
g1952
sg55
(lp2043
g48
(g69
g50
NtRp2044
(dp2045
g53
(dp2046
g73
g74
ssg62
g2040
sg55
(lp2047
S'HTTP_CACHE_CONTROL'
p2048
asbag48
(g69
g50
NtRp2049
(dp2050
g53
(dp2051
g80
g81
ssg62
g2040
sg55
(lp2052
S':'
asbag48
(g69
g50
NtRp2053
(dp2054
g53
(dp2055
sg62
g2040
sg55
(lp2056
g48
(g49
g50
NtRp2057
(dp2058
g53
(dp2059
g61
I3
ssg62
g2053
sg55
(lp2060
g1021
asbasbasbag48
(g64
g50
NtRp2061
(dp2062
g53
(dp2063
sg62
g1952
sg55
(lp2064
g48
(g69
g50
NtRp2065
(dp2066
g53
(dp2067
g73
g74
ssg62
g2061
sg55
(lp2068
S'HTTP_CONNECTION'
p2069
asbag48
(g69
g50
NtRp2070
(dp2071
g53
(dp2072
g80
g81
ssg62
g2061
sg55
(lp2073
S':'
asbag48
(g69
g50
NtRp2074
(dp2075
g53
(dp2076
sg62
g2061
sg55
(lp2077
g48
(g49
g50
NtRp2078
(dp2079
g53
(dp2080
g61
I3
ssg62
g2074
sg55
(lp2081
g1043
asbasbasbag48
(g64
g50
NtRp2082
(dp2083
g53
(dp2084
sg62
g1952
sg55
(lp2085
g48
(g69
g50
NtRp2086
(dp2087
g53
(dp2088
g73
g74
ssg62
g2082
sg55
(lp2089
S'HTTP_COOKIE'
p2090
asbag48
(g69
g50
NtRp2091
(dp2092
g53
(dp2093
g80
g81
ssg62
g2082
sg55
(lp2094
S':'
asbag48
(g69
g50
NtRp2095
(dp2096
g53
(dp2097
sg62
g2082
sg55
(lp2098
g48
(g49
g50
NtRp2099
(dp2100
g53
(dp2101
g61
I3
ssg62
g2095
sg55
(lp2102
g1065
asbasbasbag48
(g64
g50
NtRp2103
(dp2104
g53
(dp2105
sg62
g1952
sg55
(lp2106
g48
(g69
g50
NtRp2107
(dp2108
g53
(dp2109
g73
g74
ssg62
g2103
sg55
(lp2110
S'HTTP_HOST'
p2111
asbag48
(g69
g50
NtRp2112
(dp2113
g53
(dp2114
g80
g81
ssg62
g2103
sg55
(lp2115
S':'
asbag48
(g69
g50
NtRp2116
(dp2117
g53
(dp2118
sg62
g2103
sg55
(lp2119
g48
(g49
g50
NtRp2120
(dp2121
g53
(dp2122
g61
I3
ssg62
g2116
sg55
(lp2123
g1087
asbasbasbag48
(g64
g50
NtRp2124
(dp2125
g53
(dp2126
sg62
g1952
sg55
(lp2127
g48
(g69
g50
NtRp2128
(dp2129
g53
(dp2130
g73
g74
ssg62
g2124
sg55
(lp2131
S'HTTP_REFERER'
p2132
asbag48
(g69
g50
NtRp2133
(dp2134
g53
(dp2135
g80
g81
ssg62
g2124
sg55
(lp2136
S':'
asbag48
(g69
g50
NtRp2137
(dp2138
g53
(dp2139
sg62
g2124
sg55
(lp2140
g48
(g49
g50
NtRp2141
(dp2142
g53
(dp2143
g61
I3
ssg62
g2137
sg55
(lp2144
g1109
asbasbasbag48
(g64
g50
NtRp2145
(dp2146
g53
(dp2147
sg62
g1952
sg55
(lp2148
g48
(g69
g50
NtRp2149
(dp2150
g53
(dp2151
g73
g74
ssg62
g2145
sg55
(lp2152
S'HTTP_USER_AGENT'
p2153
asbag48
(g69
g50
NtRp2154
(dp2155
g53
(dp2156
g80
g81
ssg62
g2145
sg55
(lp2157
S':'
asbag48
(g69
g50
NtRp2158
(dp2159
g53
(dp2160
sg62
g2145
sg55
(lp2161
g48
(g49
g50
NtRp2162
(dp2163
g53
(dp2164
g61
I3
ssg62
g2158
sg55
(lp2165
g1131
asbasbasbag48
(g64
g50
NtRp2166
(dp2167
g53
(dp2168
sg62
g1952
sg55
(lp2169
g48
(g69
g50
NtRp2170
(dp2171
g53
(dp2172
g73
g74
ssg62
g2166
sg55
(lp2173
S'PATH_INFO'
p2174
asbag48
(g69
g50
NtRp2175
(dp2176
g53
(dp2177
g80
g81
ssg62
g2166
sg55
(lp2178
S':'
asbag48
(g69
g50
NtRp2179
(dp2180
g53
(dp2181
sg62
g2166
sg55
(lp2182
g48
(g49
g50
NtRp2183
(dp2184
g53
(dp2185
g61
I3
ssg62
g2179
sg55
(lp2186
g1174
asbasbasbag48
(g64
g50
NtRp2187
(dp2188
g53
(dp2189
sg62
g1952
sg55
(lp2190
g48
(g69
g50
NtRp2191
(dp2192
g53
(dp2193
g73
g74
ssg62
g2187
sg55
(lp2194
S'QUERY_STRING'
p2195
asbag48
(g69
g50
NtRp2196
(dp2197
g53
(dp2198
g80
g81
ssg62
g2187
sg55
(lp2199
S':'
asbag48
(g69
g50
NtRp2200
(dp2201
g53
(dp2202
sg62
g2187
sg55
(lp2203
g48
(g49
g50
NtRp2204
(dp2205
g53
(dp2206
g61
I3
ssg62
g2200
sg55
(lp2207
S''
asbasbasbag48
(g64
g50
NtRp2208
(dp2209
g53
(dp2210
sg62
g1952
sg55
(lp2211
g48
(g69
g50
NtRp2212
(dp2213
g53
(dp2214
g73
g74
ssg62
g2208
sg55
(lp2215
S'REMOTE_ADDR'
p2216
asbag48
(g69
g50
NtRp2217
(dp2218
g53
(dp2219
g80
g81
ssg62
g2208
sg55
(lp2220
S':'
asbag48
(g69
g50
NtRp2221
(dp2222
g53
(dp2223
sg62
g2208
sg55
(lp2224
g48
(g49
g50
NtRp2225
(dp2226
g53
(dp2227
g61
I3
ssg62
g2221
sg55
(lp2228
g181
asbasbasbag48
(g64
g50
NtRp2229
(dp2230
g53
(dp2231
sg62
g1952
sg55
(lp2232
g48
(g69
g50
NtRp2233
(dp2234
g53
(dp2235
g73
g74
ssg62
g2229
sg55
(lp2236
S'REMOTE_PORT'
p2237
asbag48
(g69
g50
NtRp2238
(dp2239
g53
(dp2240
g80
g81
ssg62
g2229
sg55
(lp2241
S':'
asbag48
(g69
g50
NtRp2242
(dp2243
g53
(dp2244
sg62
g2229
sg55
(lp2245
g48
(g49
g50
NtRp2246
(dp2247
g53
(dp2248
g61
I3
ssg62
g2242
sg55
(lp2249
g1238
asbasbasbag48
(g64
g50
NtRp2250
(dp2251
g53
(dp2252
sg62
g1952
sg55
(lp2253
g48
(g69
g50
NtRp2254
(dp2255
g53
(dp2256
g73
g74
ssg62
g2250
sg55
(lp2257
S'REQUEST_METHOD'
p2258
asbag48
(g69
g50
NtRp2259
(dp2260
g53
(dp2261
g80
g81
ssg62
g2250
sg55
(lp2262
S':'
asbag48
(g69
g50
NtRp2263
(dp2264
g53
(dp2265
sg62
g2250
sg55
(lp2266
g48
(g49
g50
NtRp2267
(dp2268
g53
(dp2269
g61
I3
ssg62
g2263
sg55
(lp2270
g1260
asbasbasbag48
(g64
g50
NtRp2271
(dp2272
g53
(dp2273
sg62
g1952
sg55
(lp2274
g48
(g69
g50
NtRp2275
(dp2276
g53
(dp2277
g73
g74
ssg62
g2271
sg55
(lp2278
S'SCRIPT_NAME'
p2279
asbag48
(g69
g50
NtRp2280
(dp2281
g53
(dp2282
g80
g81
ssg62
g2271
sg55
(lp2283
S':'
asbag48
(g69
g50
NtRp2284
(dp2285
g53
(dp2286
sg62
g2271
sg55
(lp2287
g48
(g49
g50
NtRp2288
(dp2289
g53
(dp2290
g61
I3
ssg62
g2284
sg55
(lp2291
S''
asbasbasbag48
(g64
g50
NtRp2292
(dp2293
g53
(dp2294
sg62
g1952
sg55
(lp2295
g48
(g69
g50
NtRp2296
(dp2297
g53
(dp2298
g73
g74
ssg62
g2292
sg55
(lp2299
S'SERVER_NAME'
p2300
asbag48
(g69
g50
NtRp2301
(dp2302
g53
(dp2303
g80
g81
ssg62
g2292
sg55
(lp2304
S':'
asbag48
(g69
g50
NtRp2305
(dp2306
g53
(dp2307
sg62
g2292
sg55
(lp2308
g48
(g49
g50
NtRp2309
(dp2310
g53
(dp2311
g61
I3
ssg62
g2305
sg55
(lp2312
g1303
asbasbasbag48
(g64
g50
NtRp2313
(dp2314
g53
(dp2315
sg62
g1952
sg55
(lp2316
g48
(g69
g50
NtRp2317
(dp2318
g53
(dp2319
g73
g74
ssg62
g2313
sg55
(lp2320
S'SERVER_PORT'
p2321
asbag48
(g69
g50
NtRp2322
(dp2323
g53
(dp2324
g80
g81
ssg62
g2313
sg55
(lp2325
S':'
asbag48
(g69
g50
NtRp2326
(dp2327
g53
(dp2328
sg62
g2313
sg55
(lp2329
g48
(g49
g50
NtRp2330
(dp2331
g53
(dp2332
g61
I3
ssg62
g2326
sg55
(lp2333
g1325
asbasbasbag48
(g64
g50
NtRp2334
(dp2335
g53
(dp2336
sg62
g1952
sg55
(lp2337
g48
(g69
g50
NtRp2338
(dp2339
g53
(dp2340
g73
g74
ssg62
g2334
sg55
(lp2341
S'SERVER_PROTOCOL'
p2342
asbag48
(g69
g50
NtRp2343
(dp2344
g53
(dp2345
g80
g81
ssg62
g2334
sg55
(lp2346
S':'
asbag48
(g69
g50
NtRp2347
(dp2348
g53
(dp2349
sg62
g2334
sg55
(lp2350
g48
(g49
g50
NtRp2351
(dp2352
g53
(dp2353
g61
I3
ssg62
g2347
sg55
(lp2354
g1347
asbasbasbag48
(g64
g50
NtRp2355
(dp2356
g53
(dp2357
sg62
g1952
sg55
(lp2358
g48
(g69
g50
NtRp2359
(dp2360
g53
(dp2361
g73
g74
ssg62
g2355
sg55
(lp2362
S'SERVER_SOFTWARE'
p2363
asbag48
(g69
g50
NtRp2364
(dp2365
g53
(dp2366
g80
g81
ssg62
g2355
sg55
(lp2367
S':'
asbag48
(g69
g50
NtRp2368
(dp2369
g53
(dp2370
sg62
g2355
sg55
(lp2371
g48
(g49
g50
NtRp2372
(dp2373
g53
(dp2374
g61
I3
ssg62
g2368
sg55
(lp2375
g1369
asbasbasbag48
(g64
g50
NtRp2376
(dp2377
g53
(dp2378
sg62
g1952
sg55
(lp2379
g48
(g69
g50
NtRp2380
(dp2381
g53
(dp2382
g73
g74
ssg62
g2376
sg55
(lp2383
S'wsgi.errors'
p2384
asbag48
(g69
g50
NtRp2385
(dp2386
g53
(dp2387
g80
g81
ssg62
g2376
sg55
(lp2388
S':'
asbag48
(g69
g50
NtRp2389
(dp2390
g53
(dp2391
sg62
g2376
sg55
(lp2392
g48
(g49
g50
NtRp2393
(dp2394
g53
(dp2395
g61
I3
ssg62
g2389
sg55
(lp2396
S"<open file '<stderr>', mode 'w' at 0x01F200B0>"
p2397
asbasbasbag48
(g64
g50
NtRp2398
(dp2399
g53
(dp2400
sg62
g1952
sg55
(lp2401
g48
(g69
g50
NtRp2402
(dp2403
g53
(dp2404
g73
g74
ssg62
g2398
sg55
(lp2405
S'wsgi.file_wrapper'
p2406
asbag48
(g69
g50
NtRp2407
(dp2408
g53
(dp2409
g80
g81
ssg62
g2398
sg55
(lp2410
S':'
asbag48
(g69
g50
NtRp2411
(dp2412
g53
(dp2413
sg62
g2398
sg55
(lp2414
g48
(g49
g50
NtRp2415
(dp2416
g53
(dp2417
g61
I3
ssg62
g2411
sg55
(lp2418
S'<class gluon.rocket.FileWrapper at 0x0307F1B0>'
p2419
asbasbasbag48
(g64
g50
NtRp2420
(dp2421
g53
(dp2422
sg62
g1952
sg55
(lp2423
g48
(g69
g50
NtRp2424
(dp2425
g53
(dp2426
g73
g74
ssg62
g2420
sg55
(lp2427
S'wsgi.input'
p2428
asbag48
(g69
g50
NtRp2429
(dp2430
g53
(dp2431
g80
g81
ssg62
g2420
sg55
(lp2432
S':'
asbag48
(g69
g50
NtRp2433
(dp2434
g53
(dp2435
sg62
g2420
sg55
(lp2436
g48
(g49
g50
NtRp2437
(dp2438
g53
(dp2439
g61
I3
ssg62
g2433
sg55
(lp2440
S'<cStringIO.StringO object at 0x08237DC0>'
p2441
asbasbasbag48
(g64
g50
NtRp2442
(dp2443
g53
(dp2444
sg62
g1952
sg55
(lp2445
g48
(g69
g50
NtRp2446
(dp2447
g53
(dp2448
g73
g74
ssg62
g2442
sg55
(lp2449
S'wsgi.multiprocess'
p2450
asbag48
(g69
g50
NtRp2451
(dp2452
g53
(dp2453
g80
g81
ssg62
g2442
sg55
(lp2454
S':'
asbag48
(g69
g50
NtRp2455
(dp2456
g53
(dp2457
sg62
g2442
sg55
(lp2458
g48
(g49
g50
NtRp2459
(dp2460
g53
(dp2461
g61
I3
ssg62
g2455
sg55
(lp2462
g91
asbasbasbag48
(g64
g50
NtRp2463
(dp2464
g53
(dp2465
sg62
g1952
sg55
(lp2466
g48
(g69
g50
NtRp2467
(dp2468
g53
(dp2469
g73
g74
ssg62
g2463
sg55
(lp2470
S'wsgi.multithread'
p2471
asbag48
(g69
g50
NtRp2472
(dp2473
g53
(dp2474
g80
g81
ssg62
g2463
sg55
(lp2475
S':'
asbag48
(g69
g50
NtRp2476
(dp2477
g53
(dp2478
sg62
g2463
sg55
(lp2479
g48
(g49
g50
NtRp2480
(dp2481
g53
(dp2482
g61
I3
ssg62
g2476
sg55
(lp2483
g1543
asbasbasbag48
(g64
g50
NtRp2484
(dp2485
g53
(dp2486
sg62
g1952
sg55
(lp2487
g48
(g69
g50
NtRp2488
(dp2489
g53
(dp2490
g73
g74
ssg62
g2484
sg55
(lp2491
S'wsgi.run_once'
p2492
asbag48
(g69
g50
NtRp2493
(dp2494
g53
(dp2495
g80
g81
ssg62
g2484
sg55
(lp2496
S':'
asbag48
(g69
g50
NtRp2497
(dp2498
g53
(dp2499
sg62
g2484
sg55
(lp2500
g48
(g49
g50
NtRp2501
(dp2502
g53
(dp2503
g61
I3
ssg62
g2497
sg55
(lp2504
g91
asbasbasbag48
(g64
g50
NtRp2505
(dp2506
g53
(dp2507
sg62
g1952
sg55
(lp2508
g48
(g69
g50
NtRp2509
(dp2510
g53
(dp2511
g73
g74
ssg62
g2505
sg55
(lp2512
S'wsgi.url_scheme'
p2513
asbag48
(g69
g50
NtRp2514
(dp2515
g53
(dp2516
g80
g81
ssg62
g2505
sg55
(lp2517
S':'
asbag48
(g69
g50
NtRp2518
(dp2519
g53
(dp2520
sg62
g2505
sg55
(lp2521
g48
(g49
g50
NtRp2522
(dp2523
g53
(dp2524
g61
I3
ssg62
g2518
sg55
(lp2525
g1586
asbasbasbag48
(g64
g50
NtRp2526
(dp2527
g53
(dp2528
sg62
g1952
sg55
(lp2529
g48
(g69
g50
NtRp2530
(dp2531
g53
(dp2532
g73
g74
ssg62
g2526
sg55
(lp2533
S'wsgi.version'
p2534
asbag48
(g69
g50
NtRp2535
(dp2536
g53
(dp2537
g80
g81
ssg62
g2526
sg55
(lp2538
S':'
asbag48
(g69
g50
NtRp2539
(dp2540
g53
(dp2541
sg62
g2526
sg55
(lp2542
g48
(g49
g50
NtRp2543
(dp2544
g53
(dp2545
g61
I3
ssg62
g2539
sg55
(lp2546
S'1'
asbasbasbasbasbasbasbasbasbasbasbasbasbsS'frames'
p2547
(lp2548
(dp2549
S'file'
p2550
S'C:\\Users\\Atomico\\web2py\\gluon\\restricted.py'
p2551
sS'dump'
p2552
(dp2553
sS'lnum'
p2554
I192
sS'lines'
p2555
(dp2556
sS'call'
p2557
S'(code="def entrada():\\n    form=SQLFORM(db.info)\\n    if ...ret\')\\n\\nresponse._vars=response._caller(borrardb)\\n", environment={\'A\': <class \'gluon.html.A\'>, \'B\': <class \'gluon.html.B\'>, \'BEAUTIFY\': <class \'gluon.html.BEAUTIFY\'>, \'BODY\': <class \'gluon.html.BODY\'>, \'BR\': <class \'gluon.html.BR\'>, \'BUTTON\': <class \'gluon.html.BUTTON\'>, \'CAT\': <class \'gluon.html.CAT\'>, \'CENTER\': <class \'gluon.html.CENTER\'>, \'CLEANUP\': <class \'gluon.validators.CLEANUP\'>, \'CODE\': <class \'gluon.html.CODE\'>, ...}, layer=r\'C:\\Users\\Atomico\\web2py\\applications\\Desglosar_Emails\\controllers/default.py\')'
p2558
sS'func'
p2559
S'restricted'
p2560
sa(dp2561
g2550
S'C:\\Users\\Atomico\\web2py\\applications\\Desglosar_Emails\\controllers\\default.py'
p2562
sg2552
(dp2563
sg2554
I75
sg2555
(dp2564
I64
S'    form=SQLFORM(db.info4)'
p2565
sI65
S'    if form.accepts(request.vars,session):pass'
p2566
sI66
S''
sI67
S'    return dict(form=form)'
p2567
sI68
S''
sI69
S'def borrardb():'
p2568
sI70
S'    db.contactos.dump()'
p2569
sI71
S'    db.info4.dump()'
p2570
sI72
S'    db.commit()'
p2571
sI73
S"    return dict(cad='Cagada pastoret')"
p2572
ssg2557
S'()'
p2573
sg2559
S'<module>'
p2574
sa(dp2575
g2550
S'C:\\Users\\Atomico\\web2py\\gluon\\globals.py'
p2576
sg2552
(dp2577
sg2554
I145
sg2555
(dp2578
sg2557
S'(f=<function borrardb at 0x0848EEB0>)'
p2579
sg2559
S'<lambda>'
p2580
sa(dp2581
g2550
S'C:\\Users\\Atomico\\web2py\\applications\\Desglosar_Emails\\controllers\\default.py'
p2582
sg2552
(dp2583
sg2554
I70
sg2555
(dp2584
I64
S'    form=SQLFORM(db.info4)'
p2585
sI65
S'    if form.accepts(request.vars,session):pass'
p2586
sI66
S''
sI67
S'    return dict(form=form)'
p2587
sI68
S''
sI69
S'def borrardb():'
p2588
sI70
S'    db.contactos.dump()'
p2589
sI71
S'    db.info4.dump()'
p2590
sI72
S'    db.commit()'
p2591
sI73
S"    return dict(cad='Cagada pastoret')"
p2592
ssg2557
S'()'
p2593
sg2559
S'borrardb'
p2594
sa(dp2595
g2550
S'C:\\Users\\Atomico\\web2py\\gluon\\dal.py'
p2596
sg2552
(dp2597
sg2554
I4731
sg2555
(dp2598
sg2557
S"(self=<Table {'remitentesant': <gluon.dal.Field object...>, 'id': <gluon.dal.Field object at 0x0858E3F0>}>, key='dump')"
p2599
sg2559
S'__getattr__'
p2600
sa(dp2601
g2550
S'C:\\Users\\Atomico\\web2py\\gluon\\dal.py'
p2602
sg2552
(dp2603
sg2554
I4675
sg2555
(dp2604
sg2557
S"(self=<Table {'remitentesant': <gluon.dal.Field object...>, 'id': <gluon.dal.Field object at 0x0858E3F0>}>, key='dump')"
p2605
sg2559
g19
sasS'pyver'
p2606
S'Python 2.5.4: C:\\Users\\Atomico\\web2py\\web2py.exe'
p2607
sS'session'
p2608
g48
(g49
g50
NtRp2609
(dp2610
g53
(dp2611
sg55
(lp2612
g48
(g57
g50
NtRp2613
(dp2614
g53
(dp2615
g61
I5
ssg62
Nsg55
(lp2616
g48
(g64
g50
NtRp2617
(dp2618
g53
(dp2619
sg62
g2613
sg55
(lp2620
g48
(g69
g50
NtRp2621
(dp2622
g53
(dp2623
g73
g74
ssg62
g2617
sg55
(lp2624
S'last_query'
p2625
asbag48
(g69
g50
NtRp2626
(dp2627
g53
(dp2628
g80
g81
ssg62
g2617
sg55
(lp2629
S':'
asbag48
(g69
g50
NtRp2630
(dp2631
g53
(dp2632
sg62
g2617
sg55
(lp2633
g48
(g49
g50
NtRp2634
(dp2635
g53
(dp2636
g61
I5
ssg62
g2630
sg55
(lp2637
S'db.contactos.id>0'
p2638
asbasbasbasbasbsS'etype'
p2639
S"<type 'exceptions.KeyError'>"
p2640
sS'date'
p2641
S'Tue Sep 20 10:18:06 2011'
p2642
sS'response'
p2643
g48
(g49
g50
NtRp2644
(dp2645
g53
(dp2646
sg55
(lp2647
g48
(g57
g50
NtRp2648
(dp2649
g53
(dp2650
g61
I5
ssg62
Nsg55
(lp2651
g48
(g64
g50
NtRp2652
(dp2653
g53
(dp2654
sg62
g2648
sg55
(lp2655
g48
(g69
g50
NtRp2656
(dp2657
g53
(dp2658
g73
g74
ssg62
g2652
sg55
(lp2659
g146
asbag48
(g69
g50
NtRp2660
(dp2661
g53
(dp2662
g80
g81
ssg62
g2652
sg55
(lp2663
S':'
asbag48
(g69
g50
NtRp2664
(dp2665
g53
(dp2666
sg62
g2652
sg55
(lp2667
g48
(g49
g50
NtRp2668
(dp2669
g53
(dp2670
g61
I5
ssg62
g2664
sg55
(lp2671
S'<cStringIO.StringO object at 0x08237720>'
p2672
asbasbasbag48
(g64
g50
NtRp2673
(dp2674
g53
(dp2675
sg62
g2648
sg55
(lp2676
g48
(g69
g50
NtRp2677
(dp2678
g53
(dp2679
g73
g74
ssg62
g2673
sg55
(lp2680
g212
asbag48
(g69
g50
NtRp2681
(dp2682
g53
(dp2683
g80
g81
ssg62
g2673
sg55
(lp2684
S':'
asbag48
(g69
g50
NtRp2685
(dp2686
g53
(dp2687
sg62
g2673
sg55
(lp2688
g48
(g49
g50
NtRp2689
(dp2690
g53
(dp2691
g61
I5
ssg62
g2685
sg55
(lp2692
g48
(g57
g50
NtRp2693
(dp2694
g53
(dp2695
g61
I4
ssg62
Nsg55
(lp2696
g48
(g64
g50
NtRp2697
(dp2698
g53
(dp2699
sg62
g2693
sg55
(lp2700
g48
(g69
g50
NtRp2701
(dp2702
g53
(dp2703
g73
g74
ssg62
g2697
sg55
(lp2704
S'session_id_desglosar_emails'
p2705
asbag48
(g69
g50
NtRp2706
(dp2707
g53
(dp2708
g80
g81
ssg62
g2697
sg55
(lp2709
S':'
asbag48
(g69
g50
NtRp2710
(dp2711
g53
(dp2712
sg62
g2697
sg55
(lp2713
g48
(g49
g50
NtRp2714
(dp2715
g53
(dp2716
g61
I4
ssg62
g2710
sg55
(lp2717
g48
(g57
g50
NtRp2718
(dp2719
g53
(dp2720
g61
I3
ssg62
Nsg55
(lp2721
g48
(g64
g50
NtRp2722
(dp2723
g53
(dp2724
sg62
g2718
sg55
(lp2725
g48
(g69
g50
NtRp2726
(dp2727
g53
(dp2728
g73
g74
ssg62
g2722
sg55
(lp2729
g262
asbag48
(g69
g50
NtRp2730
(dp2731
g53
(dp2732
g80
g81
ssg62
g2722
sg55
(lp2733
S':'
asbag48
(g69
g50
NtRp2734
(dp2735
g53
(dp2736
sg62
g2722
sg55
(lp2737
g48
(g49
g50
NtRp2738
(dp2739
g53
(dp2740
g61
I3
ssg62
g2734
sg55
(lp2741
S''
asbasbasbag48
(g64
g50
NtRp2742
(dp2743
g53
(dp2744
sg62
g2718
sg55
(lp2745
g48
(g69
g50
NtRp2746
(dp2747
g53
(dp2748
g73
g74
ssg62
g2742
sg55
(lp2749
g283
asbag48
(g69
g50
NtRp2750
(dp2751
g53
(dp2752
g80
g81
ssg62
g2742
sg55
(lp2753
S':'
asbag48
(g69
g50
NtRp2754
(dp2755
g53
(dp2756
sg62
g2742
sg55
(lp2757
g48
(g49
g50
NtRp2758
(dp2759
g53
(dp2760
g61
I3
ssg62
g2754
sg55
(lp2761
S''
asbasbasbag48
(g64
g50
NtRp2762
(dp2763
g53
(dp2764
sg62
g2718
sg55
(lp2765
g48
(g69
g50
NtRp2766
(dp2767
g53
(dp2768
g73
g74
ssg62
g2762
sg55
(lp2769
g304
asbag48
(g69
g50
NtRp2770
(dp2771
g53
(dp2772
g80
g81
ssg62
g2762
sg55
(lp2773
S':'
asbag48
(g69
g50
NtRp2774
(dp2775
g53
(dp2776
sg62
g2762
sg55
(lp2777
g48
(g49
g50
NtRp2778
(dp2779
g53
(dp2780
g61
I3
ssg62
g2774
sg55
(lp2781
S''
asbasbasbag48
(g64
g50
NtRp2782
(dp2783
g53
(dp2784
sg62
g2718
sg55
(lp2785
g48
(g69
g50
NtRp2786
(dp2787
g53
(dp2788
g73
g74
ssg62
g2782
sg55
(lp2789
g325
asbag48
(g69
g50
NtRp2790
(dp2791
g53
(dp2792
g80
g81
ssg62
g2782
sg55
(lp2793
S':'
asbag48
(g69
g50
NtRp2794
(dp2795
g53
(dp2796
sg62
g2782
sg55
(lp2797
g48
(g49
g50
NtRp2798
(dp2799
g53
(dp2800
g61
I3
ssg62
g2794
sg55
(lp2801
S''
asbasbasbag48
(g64
g50
NtRp2802
(dp2803
g53
(dp2804
sg62
g2718
sg55
(lp2805
g48
(g69
g50
NtRp2806
(dp2807
g53
(dp2808
g73
g74
ssg62
g2802
sg55
(lp2809
g346
asbag48
(g69
g50
NtRp2810
(dp2811
g53
(dp2812
g80
g81
ssg62
g2802
sg55
(lp2813
S':'
asbag48
(g69
g50
NtRp2814
(dp2815
g53
(dp2816
sg62
g2802
sg55
(lp2817
g48
(g49
g50
NtRp2818
(dp2819
g53
(dp2820
g61
I3
ssg62
g2814
sg55
(lp2821
S'/'
asbasbasbag48
(g64
g50
NtRp2822
(dp2823
g53
(dp2824
sg62
g2718
sg55
(lp2825
g48
(g69
g50
NtRp2826
(dp2827
g53
(dp2828
g73
g74
ssg62
g2822
sg55
(lp2829
g367
asbag48
(g69
g50
NtRp2830
(dp2831
g53
(dp2832
g80
g81
ssg62
g2822
sg55
(lp2833
S':'
asbag48
(g69
g50
NtRp2834
(dp2835
g53
(dp2836
sg62
g2822
sg55
(lp2837
g48
(g49
g50
NtRp2838
(dp2839
g53
(dp2840
g61
I3
ssg62
g2834
sg55
(lp2841
S''
asbasbasbag48
(g64
g50
NtRp2842
(dp2843
g53
(dp2844
sg62
g2718
sg55
(lp2845
g48
(g69
g50
NtRp2846
(dp2847
g53
(dp2848
g73
g74
ssg62
g2842
sg55
(lp2849
g388
asbag48
(g69
g50
NtRp2850
(dp2851
g53
(dp2852
g80
g81
ssg62
g2842
sg55
(lp2853
S':'
asbag48
(g69
g50
NtRp2854
(dp2855
g53
(dp2856
sg62
g2842
sg55
(lp2857
g48
(g49
g50
NtRp2858
(dp2859
g53
(dp2860
g61
I3
ssg62
g2854
sg55
(lp2861
S''
asbasbasbasbasbasbasbasbasbasbasbag48
(g64
g50
NtRp2862
(dp2863
g53
(dp2864
sg62
g2648
sg55
(lp2865
g48
(g69
g50
NtRp2866
(dp2867
g53
(dp2868
g73
g74
ssg62
g2862
sg55
(lp2869
S'files'
p2870
asbag48
(g69
g50
NtRp2871
(dp2872
g53
(dp2873
g80
g81
ssg62
g2862
sg55
(lp2874
S':'
asbag48
(g69
g50
NtRp2875
(dp2876
g53
(dp2877
sg62
g2862
sg55
(lp2878
g48
(g49
g50
NtRp2879
(dp2880
g53
(dp2881
g61
I5
ssg62
g2875
sg55
(lp2882
g48
(g57
g50
NtRp2883
(dp2884
g53
(dp2885
g61
I4
ssg62
Nsg55
(lp2886
sbasbasbasbag48
(g64
g50
NtRp2887
(dp2888
g53
(dp2889
sg62
g2648
sg55
(lp2890
g48
(g69
g50
NtRp2891
(dp2892
g53
(dp2893
g73
g74
ssg62
g2887
sg55
(lp2894
S'flash'
p2895
asbag48
(g69
g50
NtRp2896
(dp2897
g53
(dp2898
g80
g81
ssg62
g2887
sg55
(lp2899
S':'
asbag48
(g69
g50
NtRp2900
(dp2901
g53
(dp2902
sg62
g2887
sg55
(lp2903
g48
(g49
g50
NtRp2904
(dp2905
g53
(dp2906
g61
I5
ssg62
g2900
sg55
(lp2907
S''
asbasbasbag48
(g64
g50
NtRp2908
(dp2909
g53
(dp2910
sg62
g2648
sg55
(lp2911
g48
(g69
g50
NtRp2912
(dp2913
g53
(dp2914
g73
g74
ssg62
g2908
sg55
(lp2915
S'generic_patterns'
p2916
asbag48
(g69
g50
NtRp2917
(dp2918
g53
(dp2919
g80
g81
ssg62
g2908
sg55
(lp2920
S':'
asbag48
(g69
g50
NtRp2921
(dp2922
g53
(dp2923
sg62
g2908
sg55
(lp2924
g48
(g49
g50
NtRp2925
(dp2926
g53
(dp2927
g61
I5
ssg62
g2921
sg55
(lp2928
g48
(g57
g50
NtRp2929
(dp2930
g53
(dp2931
g61
I4
ssg62
Nsg55
(lp2932
sbasbasbasbag48
(g64
g50
NtRp2933
(dp2934
g53
(dp2935
sg62
g2648
sg55
(lp2936
g48
(g69
g50
NtRp2937
(dp2938
g53
(dp2939
g73
g74
ssg62
g2933
sg55
(lp2940
S'headers'
p2941
asbag48
(g69
g50
NtRp2942
(dp2943
g53
(dp2944
g80
g81
ssg62
g2933
sg55
(lp2945
S':'
asbag48
(g69
g50
NtRp2946
(dp2947
g53
(dp2948
sg62
g2933
sg55
(lp2949
g48
(g49
g50
NtRp2950
(dp2951
g53
(dp2952
g61
I5
ssg62
g2946
sg55
(lp2953
g48
(g57
g50
NtRp2954
(dp2955
g53
(dp2956
g61
I4
ssg62
Nsg55
(lp2957
g48
(g64
g50
NtRp2958
(dp2959
g53
(dp2960
sg62
g2954
sg55
(lp2961
g48
(g69
g50
NtRp2962
(dp2963
g53
(dp2964
g73
g74
ssg62
g2958
sg55
(lp2965
S'Cache-Control'
p2966
asbag48
(g69
g50
NtRp2967
(dp2968
g53
(dp2969
g80
g81
ssg62
g2958
sg55
(lp2970
S':'
asbag48
(g69
g50
NtRp2971
(dp2972
g53
(dp2973
sg62
g2958
sg55
(lp2974
g48
(g49
g50
NtRp2975
(dp2976
g53
(dp2977
g61
I4
ssg62
g2971
sg55
(lp2978
S'no-store, no-cache, must-revalidate, post-check=0, pre-check=0'
p2979
asbasbasbag48
(g64
g50
NtRp2980
(dp2981
g53
(dp2982
sg62
g2954
sg55
(lp2983
g48
(g69
g50
NtRp2984
(dp2985
g53
(dp2986
g73
g74
ssg62
g2980
sg55
(lp2987
S'Content-Type'
p2988
asbag48
(g69
g50
NtRp2989
(dp2990
g53
(dp2991
g80
g81
ssg62
g2980
sg55
(lp2992
S':'
asbag48
(g69
g50
NtRp2993
(dp2994
g53
(dp2995
sg62
g2980
sg55
(lp2996
g48
(g49
g50
NtRp2997
(dp2998
g53
(dp2999
g61
I4
ssg62
g2993
sg55
(lp3000
S'text/html; charset=utf-8'
p3001
asbasbasbag48
(g64
g50
NtRp3002
(dp3003
g53
(dp3004
sg62
g2954
sg55
(lp3005
g48
(g69
g50
NtRp3006
(dp3007
g53
(dp3008
g73
g74
ssg62
g3002
sg55
(lp3009
S'Expires'
p3010
asbag48
(g69
g50
NtRp3011
(dp3012
g53
(dp3013
g80
g81
ssg62
g3002
sg55
(lp3014
S':'
asbag48
(g69
g50
NtRp3015
(dp3016
g53
(dp3017
sg62
g3002
sg55
(lp3018
g48
(g49
g50
NtRp3019
(dp3020
g53
(dp3021
g61
I4
ssg62
g3015
sg55
(lp3022
S'Tue, 20 Sep 2011 08:18:06 GMT'
p3023
asbasbasbag48
(g64
g50
NtRp3024
(dp3025
g53
(dp3026
sg62
g2954
sg55
(lp3027
g48
(g69
g50
NtRp3028
(dp3029
g53
(dp3030
g73
g74
ssg62
g3024
sg55
(lp3031
S'Pragma'
p3032
asbag48
(g69
g50
NtRp3033
(dp3034
g53
(dp3035
g80
g81
ssg62
g3024
sg55
(lp3036
S':'
asbag48
(g69
g50
NtRp3037
(dp3038
g53
(dp3039
sg62
g3024
sg55
(lp3040
g48
(g49
g50
NtRp3041
(dp3042
g53
(dp3043
g61
I4
ssg62
g3037
sg55
(lp3044
S'no-cache'
p3045
asbasbasbag48
(g64
g50
NtRp3046
(dp3047
g53
(dp3048
sg62
g2954
sg55
(lp3049
g48
(g69
g50
NtRp3050
(dp3051
g53
(dp3052
g73
g74
ssg62
g3046
sg55
(lp3053
S'X-Powered-By'
p3054
asbag48
(g69
g50
NtRp3055
(dp3056
g53
(dp3057
g80
g81
ssg62
g3046
sg55
(lp3058
S':'
asbag48
(g69
g50
NtRp3059
(dp3060
g53
(dp3061
sg62
g3046
sg55
(lp3062
g48
(g49
g50
NtRp3063
(dp3064
g53
(dp3065
g61
I4
ssg62
g3059
sg55
(lp3066
S'web2py'
p3067
asbasbasbasbasbasbasbag48
(g64
g50
NtRp3068
(dp3069
g53
(dp3070
sg62
g2648
sg55
(lp3071
g48
(g69
g50
NtRp3072
(dp3073
g53
(dp3074
g73
g74
ssg62
g3068
sg55
(lp3075
S'menu'
p3076
asbag48
(g69
g50
NtRp3077
(dp3078
g53
(dp3079
g80
g81
ssg62
g3068
sg55
(lp3080
S':'
asbag48
(g69
g50
NtRp3081
(dp3082
g53
(dp3083
sg62
g3068
sg55
(lp3084
g48
(g49
g50
NtRp3085
(dp3086
g53
(dp3087
g61
I5
ssg62
g3081
sg55
(lp3088
g48
(g57
g50
NtRp3089
(dp3090
g53
(dp3091
g61
I4
ssg62
Nsg55
(lp3092
g48
(g64
g50
NtRp3093
(dp3094
g53
(dp3095
sg62
g3089
sg55
(lp3096
g48
(g69
g50
NtRp3097
(dp3098
g53
(dp3099
sg62
g3093
sg55
(lp3100
g48
(g49
g50
NtRp3101
(dp3102
g53
(dp3103
g61
I4
ssg62
g3097
sg55
(lp3104
g48
(g57
g50
NtRp3105
(dp3106
g53
(dp3107
g61
I3
ssg62
Nsg55
(lp3108
g48
(g64
g50
NtRp3109
(dp3110
g53
(dp3111
sg62
g3105
sg55
(lp3112
g48
(g69
g50
NtRp3113
(dp3114
g53
(dp3115
sg62
g3109
sg55
(lp3116
g48
(g49
g50
NtRp3117
(dp3118
g53
(dp3119
g61
I3
ssg62
g3113
sg55
(lp3120
cgluon.languages
lazyT_unpickle
p3121
(S't\x04\x00\x00\x00Home'
tRp3122
asbasbasbag48
(g64
g50
NtRp3123
(dp3124
g53
(dp3125
sg62
g3105
sg55
(lp3126
g48
(g69
g50
NtRp3127
(dp3128
g53
(dp3129
sg62
g3123
sg55
(lp3130
g48
(g49
g50
NtRp3131
(dp3132
g53
(dp3133
g61
I3
ssg62
g3127
sg55
(lp3134
g91
asbasbasbag48
(g64
g50
NtRp3135
(dp3136
g53
(dp3137
sg62
g3105
sg55
(lp3138
g48
(g69
g50
NtRp3139
(dp3140
g53
(dp3141
sg62
g3135
sg55
(lp3142
g48
(g49
g50
NtRp3143
(dp3144
g53
(dp3145
g61
I3
ssg62
g3139
sg55
(lp3146
S'/Desglosar_Emails/default/index'
p3147
asbasbasbag48
(g64
g50
NtRp3148
(dp3149
g53
(dp3150
sg62
g3105
sg55
(lp3151
g48
(g69
g50
NtRp3152
(dp3153
g53
(dp3154
sg62
g3148
sg55
(lp3155
g48
(g49
g50
NtRp3156
(dp3157
g53
(dp3158
g61
I3
ssg62
g3152
sg55
(lp3159
g48
(g57
g50
NtRp3160
(dp3161
g53
(dp3162
g61
I2
ssg62
Nsg55
(lp3163
sbasbasbasbasbasbasbasbag48
(g64
g50
NtRp3164
(dp3165
g53
(dp3166
sg62
g3089
sg55
(lp3167
g48
(g69
g50
NtRp3168
(dp3169
g53
(dp3170
sg62
g3164
sg55
(lp3171
g48
(g49
g50
NtRp3172
(dp3173
g53
(dp3174
g61
I4
ssg62
g3168
sg55
(lp3175
g48
(g57
g50
NtRp3176
(dp3177
g53
(dp3178
g61
I3
ssg62
Nsg55
(lp3179
g48
(g64
g50
NtRp3180
(dp3181
g53
(dp3182
sg62
g3176
sg55
(lp3183
g48
(g69
g50
NtRp3184
(dp3185
g53
(dp3186
sg62
g3180
sg55
(lp3187
g48
(g49
g50
NtRp3188
(dp3189
g53
(dp3190
g61
I3
ssg62
g3184
sg55
(lp3191
g3121
(S's\x08\x00\x00\x00This App'
tRp3192
asbasbasbag48
(g64
g50
NtRp3193
(dp3194
g53
(dp3195
sg62
g3176
sg55
(lp3196
g48
(g69
g50
NtRp3197
(dp3198
g53
(dp3199
sg62
g3193
sg55
(lp3200
g48
(g49
g50
NtRp3201
(dp3202
g53
(dp3203
g61
I3
ssg62
g3197
sg55
(lp3204
g91
asbasbasbag48
(g64
g50
NtRp3205
(dp3206
g53
(dp3207
sg62
g3176
sg55
(lp3208
g48
(g69
g50
NtRp3209
(dp3210
g53
(dp3211
sg62
g3205
sg55
(lp3212
g48
(g49
g50
NtRp3213
(dp3214
g53
(dp3215
g61
I3
ssg62
g3209
sg55
(lp3216
S'/admin/default/design/Desglosar_Emails'
p3217
asbasbasbag48
(g64
g50
NtRp3218
(dp3219
g53
(dp3220
sg62
g3176
sg55
(lp3221
g48
(g69
g50
NtRp3222
(dp3223
g53
(dp3224
sg62
g3218
sg55
(lp3225
g48
(g49
g50
NtRp3226
(dp3227
g53
(dp3228
g61
I3
ssg62
g3222
sg55
(lp3229
g48
(g57
g50
NtRp3230
(dp3231
g53
(dp3232
g61
I2
ssg62
Nsg55
(lp3233
g48
(g64
g50
NtRp3234
(dp3235
g53
(dp3236
sg62
g3230
sg55
(lp3237
g48
(g69
g50
NtRp3238
(dp3239
g53
(dp3240
sg62
g3234
sg55
(lp3241
g48
(g49
g50
NtRp3242
(dp3243
g53
(dp3244
g61
I2
ssg62
g3238
sg55
(lp3245
g48
(g57
g50
NtRp3246
(dp3247
g53
(dp3248
g61
I1
ssg62
Nsg55
(lp3249
g48
(g64
g50
NtRp3250
(dp3251
g53
(dp3252
sg62
g3246
sg55
(lp3253
g48
(g69
g50
NtRp3254
(dp3255
g53
(dp3256
sg62
g3250
sg55
(lp3257
g48
(g49
g50
NtRp3258
(dp3259
g53
(dp3260
g61
I1
ssg62
g3254
sg55
(lp3261
g3121
(S't\x0b\x00\x00\x00Controlador'
tRp3262
asbasbasbag48
(g64
g50
NtRp3263
(dp3264
g53
(dp3265
sg62
g3246
sg55
(lp3266
g48
(g69
g50
NtRp3267
(dp3268
g53
(dp3269
sg62
g3263
sg55
(lp3270
g48
(g49
g50
NtRp3271
(dp3272
g53
(dp3273
g61
I1
ssg62
g3267
sg55
(lp3274
I00
asbasbasbag48
(g64
g50
NtRp3275
(dp3276
g53
(dp3277
sg62
g3246
sg55
(lp3278
g48
(g69
g50
NtRp3279
(dp3280
g53
(dp3281
sg62
g3275
sg55
(lp3282
g48
(g49
g50
NtRp3283
(dp3284
g53
(dp3285
g61
I1
ssg62
g3279
sg55
(lp3286
S'/admin/default/edit/Desglosar_Emails/controllers/default.py'
p3287
asbasbasbasbasbasbasbag48
(g64
g50
NtRp3288
(dp3289
g53
(dp3290
sg62
g3230
sg55
(lp3291
g48
(g69
g50
NtRp3292
(dp3293
g53
(dp3294
sg62
g3288
sg55
(lp3295
g48
(g49
g50
NtRp3296
(dp3297
g53
(dp3298
g61
I2
ssg62
g3292
sg55
(lp3299
g48
(g57
g50
NtRp3300
(dp3301
g53
(dp3302
g61
I1
ssg62
Nsg55
(lp3303
g48
(g64
g50
NtRp3304
(dp3305
g53
(dp3306
sg62
g3300
sg55
(lp3307
g48
(g69
g50
NtRp3308
(dp3309
g53
(dp3310
sg62
g3304
sg55
(lp3311
g48
(g49
g50
NtRp3312
(dp3313
g53
(dp3314
g61
I1
ssg62
g3308
sg55
(lp3315
g3121
(S't\x05\x00\x00\x00Vista'
tRp3316
asbasbasbag48
(g64
g50
NtRp3317
(dp3318
g53
(dp3319
sg62
g3300
sg55
(lp3320
g48
(g69
g50
NtRp3321
(dp3322
g53
(dp3323
sg62
g3317
sg55
(lp3324
g48
(g49
g50
NtRp3325
(dp3326
g53
(dp3327
g61
I1
ssg62
g3321
sg55
(lp3328
I00
asbasbasbag48
(g64
g50
NtRp3329
(dp3330
g53
(dp3331
sg62
g3300
sg55
(lp3332
g48
(g69
g50
NtRp3333
(dp3334
g53
(dp3335
sg62
g3329
sg55
(lp3336
g48
(g49
g50
NtRp3337
(dp3338
g53
(dp3339
g61
I1
ssg62
g3333
sg55
(lp3340
S'/admin/default/edit/Desglosar_Emails/views/default/borrardb.html'
p3341
asbasbasbasbasbasbasbag48
(g64
g50
NtRp3342
(dp3343
g53
(dp3344
sg62
g3230
sg55
(lp3345
g48
(g69
g50
NtRp3346
(dp3347
g53
(dp3348
sg62
g3342
sg55
(lp3349
g48
(g49
g50
NtRp3350
(dp3351
g53
(dp3352
g61
I2
ssg62
g3346
sg55
(lp3353
g48
(g57
g50
NtRp3354
(dp3355
g53
(dp3356
g61
I1
ssg62
Nsg55
(lp3357
g48
(g64
g50
NtRp3358
(dp3359
g53
(dp3360
sg62
g3354
sg55
(lp3361
g48
(g69
g50
NtRp3362
(dp3363
g53
(dp3364
sg62
g3358
sg55
(lp3365
g48
(g49
g50
NtRp3366
(dp3367
g53
(dp3368
g61
I1
ssg62
g3362
sg55
(lp3369
g3121
(S's\x12\x00\x00\x00Dise\xc3\xb1o de p\xc3\xa1gina'
tRp3370
asbasbasbag48
(g64
g50
NtRp3371
(dp3372
g53
(dp3373
sg62
g3354
sg55
(lp3374
g48
(g69
g50
NtRp3375
(dp3376
g53
(dp3377
sg62
g3371
sg55
(lp3378
g48
(g49
g50
NtRp3379
(dp3380
g53
(dp3381
g61
I1
ssg62
g3375
sg55
(lp3382
I00
asbasbasbag48
(g64
g50
NtRp3383
(dp3384
g53
(dp3385
sg62
g3354
sg55
(lp3386
g48
(g69
g50
NtRp3387
(dp3388
g53
(dp3389
sg62
g3383
sg55
(lp3390
g48
(g49
g50
NtRp3391
(dp3392
g53
(dp3393
g61
I1
ssg62
g3387
sg55
(lp3394
S'/admin/default/edit/Desglosar_Emails/views/layout.html'
p3395
asbasbasbasbasbasbasbag48
(g64
g50
NtRp3396
(dp3397
g53
(dp3398
sg62
g3230
sg55
(lp3399
g48
(g69
g50
NtRp3400
(dp3401
g53
(dp3402
sg62
g3396
sg55
(lp3403
g48
(g49
g50
NtRp3404
(dp3405
g53
(dp3406
g61
I2
ssg62
g3400
sg55
(lp3407
g48
(g57
g50
NtRp3408
(dp3409
g53
(dp3410
g61
I1
ssg62
Nsg55
(lp3411
g48
(g64
g50
NtRp3412
(dp3413
g53
(dp3414
sg62
g3408
sg55
(lp3415
g48
(g69
g50
NtRp3416
(dp3417
g53
(dp3418
sg62
g3412
sg55
(lp3419
g48
(g49
g50
NtRp3420
(dp3421
g53
(dp3422
g61
I1
ssg62
g3416
sg55
(lp3423
g3121
(S's\x0e\x00\x00\x00Hoja de estilo'
tRp3424
asbasbasbag48
(g64
g50
NtRp3425
(dp3426
g53
(dp3427
sg62
g3408
sg55
(lp3428
g48
(g69
g50
NtRp3429
(dp3430
g53
(dp3431
sg62
g3425
sg55
(lp3432
g48
(g49
g50
NtRp3433
(dp3434
g53
(dp3435
g61
I1
ssg62
g3429
sg55
(lp3436
I00
asbasbasbag48
(g64
g50
NtRp3437
(dp3438
g53
(dp3439
sg62
g3408
sg55
(lp3440
g48
(g69
g50
NtRp3441
(dp3442
g53
(dp3443
sg62
g3437
sg55
(lp3444
g48
(g49
g50
NtRp3445
(dp3446
g53
(dp3447
g61
I1
ssg62
g3441
sg55
(lp3448
S'/admin/default/edit/Desglosar_Emails/static/base.css'
p3449
asbasbasbasbasbasbasbag48
(g64
g50
NtRp3450
(dp3451
g53
(dp3452
sg62
g3230
sg55
(lp3453
g48
(g69
g50
NtRp3454
(dp3455
g53
(dp3456
sg62
g3450
sg55
(lp3457
g48
(g49
g50
NtRp3458
(dp3459
g53
(dp3460
g61
I2
ssg62
g3454
sg55
(lp3461
g48
(g57
g50
NtRp3462
(dp3463
g53
(dp3464
g61
I1
ssg62
Nsg55
(lp3465
g48
(g64
g50
NtRp3466
(dp3467
g53
(dp3468
sg62
g3462
sg55
(lp3469
g48
(g69
g50
NtRp3470
(dp3471
g53
(dp3472
sg62
g3466
sg55
(lp3473
g48
(g49
g50
NtRp3474
(dp3475
g53
(dp3476
g61
I1
ssg62
g3470
sg55
(lp3477
g3121
(S's\x0b\x00\x00\x00Modelo "db"'
tRp3478
asbasbasbag48
(g64
g50
NtRp3479
(dp3480
g53
(dp3481
sg62
g3462
sg55
(lp3482
g48
(g69
g50
NtRp3483
(dp3484
g53
(dp3485
sg62
g3479
sg55
(lp3486
g48
(g49
g50
NtRp3487
(dp3488
g53
(dp3489
g61
I1
ssg62
g3483
sg55
(lp3490
I00
asbasbasbag48
(g64
g50
NtRp3491
(dp3492
g53
(dp3493
sg62
g3462
sg55
(lp3494
g48
(g69
g50
NtRp3495
(dp3496
g53
(dp3497
sg62
g3491
sg55
(lp3498
g48
(g49
g50
NtRp3499
(dp3500
g53
(dp3501
g61
I1
ssg62
g3495
sg55
(lp3502
S'/admin/default/edit/Desglosar_Emails/models/db.py'
p3503
asbasbasbasbasbasbasbag48
(g64
g50
NtRp3504
(dp3505
g53
(dp3506
sg62
g3230
sg55
(lp3507
g48
(g69
g50
NtRp3508
(dp3509
g53
(dp3510
sg62
g3504
sg55
(lp3511
g48
(g49
g50
NtRp3512
(dp3513
g53
(dp3514
g61
I2
ssg62
g3508
sg55
(lp3515
g48
(g57
g50
NtRp3516
(dp3517
g53
(dp3518
g61
I1
ssg62
Nsg55
(lp3519
g48
(g64
g50
NtRp3520
(dp3521
g53
(dp3522
sg62
g3516
sg55
(lp3523
g48
(g69
g50
NtRp3524
(dp3525
g53
(dp3526
sg62
g3520
sg55
(lp3527
g48
(g49
g50
NtRp3528
(dp3529
g53
(dp3530
g61
I1
ssg62
g3524
sg55
(lp3531
g3121
(S's\r\x00\x00\x00Modelo "menu"'
tRp3532
asbasbasbag48
(g64
g50
NtRp3533
(dp3534
g53
(dp3535
sg62
g3516
sg55
(lp3536
g48
(g69
g50
NtRp3537
(dp3538
g53
(dp3539
sg62
g3533
sg55
(lp3540
g48
(g49
g50
NtRp3541
(dp3542
g53
(dp3543
g61
I1
ssg62
g3537
sg55
(lp3544
I00
asbasbasbag48
(g64
g50
NtRp3545
(dp3546
g53
(dp3547
sg62
g3516
sg55
(lp3548
g48
(g69
g50
NtRp3549
(dp3550
g53
(dp3551
sg62
g3545
sg55
(lp3552
g48
(g49
g50
NtRp3553
(dp3554
g53
(dp3555
g61
I1
ssg62
g3549
sg55
(lp3556
S'/admin/default/edit/Desglosar_Emails/models/menu.py'
p3557
asbasbasbasbasbasbasbag48
(g64
g50
NtRp3558
(dp3559
g53
(dp3560
sg62
g3230
sg55
(lp3561
g48
(g69
g50
NtRp3562
(dp3563
g53
(dp3564
sg62
g3558
sg55
(lp3565
g48
(g49
g50
NtRp3566
(dp3567
g53
(dp3568
g61
I2
ssg62
g3562
sg55
(lp3569
g48
(g57
g50
NtRp3570
(dp3571
g53
(dp3572
g61
I1
ssg62
Nsg55
(lp3573
g48
(g64
g50
NtRp3574
(dp3575
g53
(dp3576
sg62
g3570
sg55
(lp3577
g48
(g69
g50
NtRp3578
(dp3579
g53
(dp3580
sg62
g3574
sg55
(lp3581
g48
(g49
g50
NtRp3582
(dp3583
g53
(dp3584
g61
I1
ssg62
g3578
sg55
(lp3585
g3121
(S's\r\x00\x00\x00Base de datos'
tRp3586
asbasbasbag48
(g64
g50
NtRp3587
(dp3588
g53
(dp3589
sg62
g3570
sg55
(lp3590
g48
(g69
g50
NtRp3591
(dp3592
g53
(dp3593
sg62
g3587
sg55
(lp3594
g48
(g49
g50
NtRp3595
(dp3596
g53
(dp3597
g61
I1
ssg62
g3591
sg55
(lp3598
I00
asbasbasbag48
(g64
g50
NtRp3599
(dp3600
g53
(dp3601
sg62
g3570
sg55
(lp3602
g48
(g69
g50
NtRp3603
(dp3604
g53
(dp3605
sg62
g3599
sg55
(lp3606
g48
(g49
g50
NtRp3607
(dp3608
g53
(dp3609
g61
I1
ssg62
g3603
sg55
(lp3610
S'/Desglosar_Emails/appadmin/index'
p3611
asbasbasbasbasbasbasbag48
(g64
g50
NtRp3612
(dp3613
g53
(dp3614
sg62
g3230
sg55
(lp3615
g48
(g69
g50
NtRp3616
(dp3617
g53
(dp3618
sg62
g3612
sg55
(lp3619
g48
(g49
g50
NtRp3620
(dp3621
g53
(dp3622
g61
I2
ssg62
g3616
sg55
(lp3623
g48
(g57
g50
NtRp3624
(dp3625
g53
(dp3626
g61
I1
ssg62
Nsg55
(lp3627
g48
(g64
g50
NtRp3628
(dp3629
g53
(dp3630
sg62
g3624
sg55
(lp3631
g48
(g69
g50
NtRp3632
(dp3633
g53
(dp3634
sg62
g3628
sg55
(lp3635
g48
(g49
g50
NtRp3636
(dp3637
g53
(dp3638
g61
I1
ssg62
g3632
sg55
(lp3639
g3121
(S't\x06\x00\x00\x00Errors'
tRp3640
asbasbasbag48
(g64
g50
NtRp3641
(dp3642
g53
(dp3643
sg62
g3624
sg55
(lp3644
g48
(g69
g50
NtRp3645
(dp3646
g53
(dp3647
sg62
g3641
sg55
(lp3648
g48
(g49
g50
NtRp3649
(dp3650
g53
(dp3651
g61
I1
ssg62
g3645
sg55
(lp3652
I00
asbasbasbag48
(g64
g50
NtRp3653
(dp3654
g53
(dp3655
sg62
g3624
sg55
(lp3656
g48
(g69
g50
NtRp3657
(dp3658
g53
(dp3659
sg62
g3653
sg55
(lp3660
g48
(g49
g50
NtRp3661
(dp3662
g53
(dp3663
g61
I1
ssg62
g3657
sg55
(lp3664
S'/admin/default/errors/Desglosar_Emails'
p3665
asbasbasbasbasbasbasbag48
(g64
g50
NtRp3666
(dp3667
g53
(dp3668
sg62
g3230
sg55
(lp3669
g48
(g69
g50
NtRp3670
(dp3671
g53
(dp3672
sg62
g3666
sg55
(lp3673
g48
(g49
g50
NtRp3674
(dp3675
g53
(dp3676
g61
I2
ssg62
g3670
sg55
(lp3677
g48
(g57
g50
NtRp3678
(dp3679
g53
(dp3680
g61
I1
ssg62
Nsg55
(lp3681
g48
(g64
g50
NtRp3682
(dp3683
g53
(dp3684
sg62
g3678
sg55
(lp3685
g48
(g69
g50
NtRp3686
(dp3687
g53
(dp3688
sg62
g3682
sg55
(lp3689
g48
(g49
g50
NtRp3690
(dp3691
g53
(dp3692
g61
I1
ssg62
g3686
sg55
(lp3693
g3121
(S's\t\x00\x00\x00Acerca de'
tRp3694
asbasbasbag48
(g64
g50
NtRp3695
(dp3696
g53
(dp3697
sg62
g3678
sg55
(lp3698
g48
(g69
g50
NtRp3699
(dp3700
g53
(dp3701
sg62
g3695
sg55
(lp3702
g48
(g49
g50
NtRp3703
(dp3704
g53
(dp3705
g61
I1
ssg62
g3699
sg55
(lp3706
I00
asbasbasbag48
(g64
g50
NtRp3707
(dp3708
g53
(dp3709
sg62
g3678
sg55
(lp3710
g48
(g69
g50
NtRp3711
(dp3712
g53
(dp3713
sg62
g3707
sg55
(lp3714
g48
(g49
g50
NtRp3715
(dp3716
g53
(dp3717
g61
I1
ssg62
g3711
sg55
(lp3718
S'/admin/default/about/Desglosar_Emails'
p3719
asbasbasbasbasbasbasbasbasbasbasbasbasbasbasbag48
(g64
g50
NtRp3720
(dp3721
g53
(dp3722
sg62
g3089
sg55
(lp3723
g48
(g69
g50
NtRp3724
(dp3725
g53
(dp3726
sg62
g3720
sg55
(lp3727
g48
(g49
g50
NtRp3728
(dp3729
g53
(dp3730
g61
I4
ssg62
g3724
sg55
(lp3731
g48
(g57
g50
NtRp3732
(dp3733
g53
(dp3734
g61
I3
ssg62
Nsg55
(lp3735
g48
(g64
g50
NtRp3736
(dp3737
g53
(dp3738
sg62
g3732
sg55
(lp3739
g48
(g69
g50
NtRp3740
(dp3741
g53
(dp3742
sg62
g3736
sg55
(lp3743
g48
(g49
g50
NtRp3744
(dp3745
g53
(dp3746
g61
I3
ssg62
g3740
sg55
(lp3747
g3121
(S't\t\x00\x00\x00Resources'
tRp3748
asbasbasbag48
(g64
g50
NtRp3749
(dp3750
g53
(dp3751
sg62
g3732
sg55
(lp3752
g48
(g69
g50
NtRp3753
(dp3754
g53
(dp3755
sg62
g3749
sg55
(lp3756
g48
(g49
g50
NtRp3757
(dp3758
g53
(dp3759
g61
I3
ssg62
g3753
sg55
(lp3760
g91
asbasbasbag48
(g64
g50
NtRp3761
(dp3762
g53
(dp3763
sg62
g3732
sg55
(lp3764
g48
(g69
g50
NtRp3765
(dp3766
g53
(dp3767
sg62
g3761
sg55
(lp3768
g48
(g49
g50
NtRp3769
(dp3770
g53
(dp3771
g61
I3
ssg62
g3765
sg55
(lp3772
S'None'
p3773
asbasbasbag48
(g64
g50
NtRp3774
(dp3775
g53
(dp3776
sg62
g3732
sg55
(lp3777
g48
(g69
g50
NtRp3778
(dp3779
g53
(dp3780
sg62
g3774
sg55
(lp3781
g48
(g49
g50
NtRp3782
(dp3783
g53
(dp3784
g61
I3
ssg62
g3778
sg55
(lp3785
g48
(g57
g50
NtRp3786
(dp3787
g53
(dp3788
g61
I2
ssg62
Nsg55
(lp3789
g48
(g64
g50
NtRp3790
(dp3791
g53
(dp3792
sg62
g3786
sg55
(lp3793
g48
(g69
g50
NtRp3794
(dp3795
g53
(dp3796
sg62
g3790
sg55
(lp3797
g48
(g49
g50
NtRp3798
(dp3799
g53
(dp3800
g61
I2
ssg62
g3794
sg55
(lp3801
g48
(g57
g50
NtRp3802
(dp3803
g53
(dp3804
g61
I1
ssg62
Nsg55
(lp3805
g48
(g64
g50
NtRp3806
(dp3807
g53
(dp3808
sg62
g3802
sg55
(lp3809
g48
(g69
g50
NtRp3810
(dp3811
g53
(dp3812
sg62
g3806
sg55
(lp3813
g48
(g49
g50
NtRp3814
(dp3815
g53
(dp3816
g61
I1
ssg62
g3810
sg55
(lp3817
g3121
(S's\x0e\x00\x00\x00Documentaci\xc3\xb3n'
tRp3818
asbasbasbag48
(g64
g50
NtRp3819
(dp3820
g53
(dp3821
sg62
g3802
sg55
(lp3822
g48
(g69
g50
NtRp3823
(dp3824
g53
(dp3825
sg62
g3819
sg55
(lp3826
g48
(g49
g50
NtRp3827
(dp3828
g53
(dp3829
g61
I1
ssg62
g3823
sg55
(lp3830
I00
asbasbasbag48
(g64
g50
NtRp3831
(dp3832
g53
(dp3833
sg62
g3802
sg55
(lp3834
g48
(g69
g50
NtRp3835
(dp3836
g53
(dp3837
sg62
g3831
sg55
(lp3838
g48
(g49
g50
NtRp3839
(dp3840
g53
(dp3841
g61
I1
ssg62
g3835
sg55
(lp3842
S'http://www.web2py.com/book'
p3843
asbasbasbag48
(g64
g50
NtRp3844
(dp3845
g53
(dp3846
sg62
g3802
sg55
(lp3847
g48
(g69
g50
NtRp3848
(dp3849
g53
(dp3850
sg62
g3844
sg55
(lp3851
g48
(g49
g50
NtRp3852
(dp3853
g53
(dp3854
g61
I1
ssg62
g3848
sg55
(lp3855
(lp3856
(g3121
(S't\x07\x00\x00\x00Preface'
tRp3857
I00
S'http://www.web2py.com/book/default/chapter/00'
tp3858
a(g3121
(S't\x0c\x00\x00\x00Introduction'
tRp3859
I00
S'http://www.web2py.com/book/default/chapter/01'
tp3860
a(g3121
(S't\x06\x00\x00\x00Python'
tRp3861
I00
S'http://www.web2py.com/book/default/chapter/02'
tp3862
a(g3121
(S't\x08\x00\x00\x00Overview'
tRp3863
I00
S'http://www.web2py.com/book/default/chapter/03'
tp3864
a(g3121
(S's\x08\x00\x00\x00The Core'
tRp3865
I00
S'http://www.web2py.com/book/default/chapter/04'
tp3866
a(g3121
(S's\t\x00\x00\x00The Views'
tRp3867
I00
S'http://www.web2py.com/book/default/chapter/05'
tp3868
a(g3121
(S's\r\x00\x00\x00Base de datos'
tRp3869
I00
S'http://www.web2py.com/book/default/chapter/06'
tp3870
a(g3121
(S's\x14\x00\x00\x00Forms and Validators'
tRp3871
I00
S'http://www.web2py.com/book/default/chapter/07'
tp3872
a(g3121
(S's\x0e\x00\x00\x00Access Control'
tRp3873
I00
S'http://www.web2py.com/book/default/chapter/08'
tp3874
a(g3121
(S't\x08\x00\x00\x00Services'
tRp3875
I00
S'http://www.web2py.com/book/default/chapter/09'
tp3876
a(g3121
(S's\x0c\x00\x00\x00Ajax Recipes'
tRp3877
I00
S'http://www.web2py.com/book/default/chapter/10'
tp3878
a(g3121
(S's\x12\x00\x00\x00Deployment Recipes'
tRp3879
I00
S'http://www.web2py.com/book/default/chapter/11'
tp3880
a(g3121
(S's\r\x00\x00\x00Other Recipes'
tRp3881
I00
S'http://www.web2py.com/book/default/chapter/12'
tp3882
a(g3121
(S's\r\x00\x00\x00Buy this book'
tRp3883
I00
S'http://stores.lulu.com/web2py'
tp3884
aasbasbasbasbasbasbasbag48
(g64
g50
NtRp3885
(dp3886
g53
(dp3887
sg62
g3786
sg55
(lp3888
g48
(g69
g50
NtRp3889
(dp3890
g53
(dp3891
sg62
g3885
sg55
(lp3892
g48
(g49
g50
NtRp3893
(dp3894
g53
(dp3895
g61
I2
ssg62
g3889
sg55
(lp3896
g48
(g57
g50
NtRp3897
(dp3898
g53
(dp3899
g61
I1
ssg62
Nsg55
(lp3900
g48
(g64
g50
NtRp3901
(dp3902
g53
(dp3903
sg62
g3897
sg55
(lp3904
g48
(g69
g50
NtRp3905
(dp3906
g53
(dp3907
sg62
g3901
sg55
(lp3908
g48
(g49
g50
NtRp3909
(dp3910
g53
(dp3911
g61
I1
ssg62
g3905
sg55
(lp3912
g3121
(S't\t\x00\x00\x00Community'
tRp3913
asbasbasbag48
(g64
g50
NtRp3914
(dp3915
g53
(dp3916
sg62
g3897
sg55
(lp3917
g48
(g69
g50
NtRp3918
(dp3919
g53
(dp3920
sg62
g3914
sg55
(lp3921
g48
(g49
g50
NtRp3922
(dp3923
g53
(dp3924
g61
I1
ssg62
g3918
sg55
(lp3925
I00
asbasbasbag48
(g64
g50
NtRp3926
(dp3927
g53
(dp3928
sg62
g3897
sg55
(lp3929
g48
(g69
g50
NtRp3930
(dp3931
g53
(dp3932
sg62
g3926
sg55
(lp3933
g48
(g49
g50
NtRp3934
(dp3935
g53
(dp3936
g61
I1
ssg62
g3930
sg55
(lp3937
Nasbasbasbag48
(g64
g50
NtRp3938
(dp3939
g53
(dp3940
sg62
g3897
sg55
(lp3941
g48
(g69
g50
NtRp3942
(dp3943
g53
(dp3944
sg62
g3938
sg55
(lp3945
g48
(g49
g50
NtRp3946
(dp3947
g53
(dp3948
g61
I1
ssg62
g3942
sg55
(lp3949
(lp3950
(g3121
(S't\x06\x00\x00\x00Groups'
tRp3951
I00
S'http://www.web2py.com/examples/default/usergroups'
tp3952
a(g3121
(S't\x07\x00\x00\x00Twitter'
tRp3953
I00
S'http://twitter.com/web2py'
tp3954
a(g3121
(S's\t\x00\x00\x00Live chat'
tRp3955
I00
S'http://mibbit.com/?channel=%23web2py&server=irc.mibbit.net'
tp3956
a(g3121
(S's\n\x00\x00\x00User Voice'
tRp3957
I00
S'http://web2py.uservoice.com/'
tp3958
aasbasbasbasbasbasbasbag48
(g64
g50
NtRp3959
(dp3960
g53
(dp3961
sg62
g3786
sg55
(lp3962
g48
(g69
g50
NtRp3963
(dp3964
g53
(dp3965
sg62
g3959
sg55
(lp3966
g48
(g49
g50
NtRp3967
(dp3968
g53
(dp3969
g61
I2
ssg62
g3963
sg55
(lp3970
g48
(g57
g50
NtRp3971
(dp3972
g53
(dp3973
g61
I1
ssg62
Nsg55
(lp3974
g48
(g64
g50
NtRp3975
(dp3976
g53
(dp3977
sg62
g3971
sg55
(lp3978
g48
(g69
g50
NtRp3979
(dp3980
g53
(dp3981
sg62
g3975
sg55
(lp3982
g48
(g49
g50
NtRp3983
(dp3984
g53
(dp3985
g61
I1
ssg62
g3979
sg55
(lp3986
g3121
(S't\x06\x00\x00\x00Web2py'
tRp3987
asbasbasbag48
(g64
g50
NtRp3988
(dp3989
g53
(dp3990
sg62
g3971
sg55
(lp3991
g48
(g69
g50
NtRp3992
(dp3993
g53
(dp3994
sg62
g3988
sg55
(lp3995
g48
(g49
g50
NtRp3996
(dp3997
g53
(dp3998
g61
I1
ssg62
g3992
sg55
(lp3999
I00
asbasbasbag48
(g64
g50
NtRp4000
(dp4001
g53
(dp4002
sg62
g3971
sg55
(lp4003
g48
(g69
g50
NtRp4004
(dp4005
g53
(dp4006
sg62
g4000
sg55
(lp4007
g48
(g49
g50
NtRp4008
(dp4009
g53
(dp4010
g61
I1
ssg62
g4004
sg55
(lp4011
S'http://www.web2py.com'
p4012
asbasbasbag48
(g64
g50
NtRp4013
(dp4014
g53
(dp4015
sg62
g3971
sg55
(lp4016
g48
(g69
g50
NtRp4017
(dp4018
g53
(dp4019
sg62
g4013
sg55
(lp4020
g48
(g49
g50
NtRp4021
(dp4022
g53
(dp4023
g61
I1
ssg62
g4017
sg55
(lp4024
(lp4025
(g3121
(S't\x08\x00\x00\x00Download'
tRp4026
I00
S'http://www.web2py.com/examples/default/download'
tp4027
a(g3121
(S't\x07\x00\x00\x00Support'
tRp4028
I00
S'http://www.web2py.com/examples/default/support'
tp4029
a(g3121
(S's\x0e\x00\x00\x00Quick Examples'
tRp4030
I00
S'http://web2py.com/examples/default/examples'
tp4031
a(g3121
(S't\x03\x00\x00\x00FAQ'
tRp4032
I00
S'http://web2py.com/AlterEgo'
tp4033
a(g3121
(S's\x11\x00\x00\x00Free Applications'
tRp4034
I00
S'http://web2py.com/appliances'
tp4035
a(g3121
(S't\x07\x00\x00\x00Plugins'
tRp4036
I00
S'http://web2py.com/plugins'
tp4037
a(g3121
(S't\x07\x00\x00\x00Recipes'
tRp4038
I00
S'http://web2pyslices.com/'
tp4039
a(g3121
(S't\x04\x00\x00\x00Demo'
tRp4040
I00
S'http://web2py.com/demo_admin'
tp4041
a(g3121
(S't\x08\x00\x00\x00Semantic'
tRp4042
I00
S'http://web2py.com/semantic'
tp4043
a(g3121
(S't\x07\x00\x00\x00Layouts'
tRp4044
I00
S'http://web2py.com/layouts'
tp4045
a(g3121
(S't\x06\x00\x00\x00Videos'
tRp4046
I00
S'http://www.web2py.com/examples/default/videos/'
tp4047
aasbasbasbasbasbasbasbasbasbasbasbasbasbasbasbasbasbasbasbag48
(g64
g50
NtRp4048
(dp4049
g53
(dp4050
sg62
g2648
sg55
(lp4051
g48
(g69
g50
NtRp4052
(dp4053
g53
(dp4054
g73
g74
ssg62
g4048
sg55
(lp4055
S'meta'
p4056
asbag48
(g69
g50
NtRp4057
(dp4058
g53
(dp4059
g80
g81
ssg62
g4048
sg55
(lp4060
S':'
asbag48
(g69
g50
NtRp4061
(dp4062
g53
(dp4063
sg62
g4048
sg55
(lp4064
g48
(g49
g50
NtRp4065
(dp4066
g53
(dp4067
g61
I5
ssg62
g4061
sg55
(lp4068
g48
(g57
g50
NtRp4069
(dp4070
g53
(dp4071
g61
I4
ssg62
Nsg55
(lp4072
g48
(g64
g50
NtRp4073
(dp4074
g53
(dp4075
sg62
g4069
sg55
(lp4076
g48
(g69
g50
NtRp4077
(dp4078
g53
(dp4079
g73
g74
ssg62
g4073
sg55
(lp4080
S'author'
p4081
asbag48
(g69
g50
NtRp4082
(dp4083
g53
(dp4084
g80
g81
ssg62
g4073
sg55
(lp4085
S':'
asbag48
(g69
g50
NtRp4086
(dp4087
g53
(dp4088
sg62
g4073
sg55
(lp4089
g48
(g49
g50
NtRp4090
(dp4091
g53
(dp4092
g61
I4
ssg62
g4086
sg55
(lp4093
S'you'
p4094
asbasbasbag48
(g64
g50
NtRp4095
(dp4096
g53
(dp4097
sg62
g4069
sg55
(lp4098
g48
(g69
g50
NtRp4099
(dp4100
g53
(dp4101
g73
g74
ssg62
g4095
sg55
(lp4102
S'copyright'
p4103
asbag48
(g69
g50
NtRp4104
(dp4105
g53
(dp4106
g80
g81
ssg62
g4095
sg55
(lp4107
S':'
asbag48
(g69
g50
NtRp4108
(dp4109
g53
(dp4110
sg62
g4095
sg55
(lp4111
g48
(g49
g50
NtRp4112
(dp4113
g53
(dp4114
g61
I4
ssg62
g4108
sg55
(lp4115
S'Copyright 2007-2010'
p4116
asbasbasbag48
(g64
g50
NtRp4117
(dp4118
g53
(dp4119
sg62
g4069
sg55
(lp4120
g48
(g69
g50
NtRp4121
(dp4122
g53
(dp4123
g73
g74
ssg62
g4117
sg55
(lp4124
S'description'
p4125
asbag48
(g69
g50
NtRp4126
(dp4127
g53
(dp4128
g80
g81
ssg62
g4117
sg55
(lp4129
S':'
asbag48
(g69
g50
NtRp4130
(dp4131
g53
(dp4132
sg62
g4117
sg55
(lp4133
g48
(g49
g50
NtRp4134
(dp4135
g53
(dp4136
g61
I4
ssg62
g4130
sg55
(lp4137
S'Free and open source full-stack enterprise framework for agile development of fast, scalable, secure and portable database-driven web-based applications. Written and programmable in Python'
p4138
asbasbasbag48
(g64
g50
NtRp4139
(dp4140
g53
(dp4141
sg62
g4069
sg55
(lp4142
g48
(g69
g50
NtRp4143
(dp4144
g53
(dp4145
g73
g74
ssg62
g4139
sg55
(lp4146
S'generator'
p4147
asbag48
(g69
g50
NtRp4148
(dp4149
g53
(dp4150
g80
g81
ssg62
g4139
sg55
(lp4151
S':'
asbag48
(g69
g50
NtRp4152
(dp4153
g53
(dp4154
sg62
g4139
sg55
(lp4155
g48
(g49
g50
NtRp4156
(dp4157
g53
(dp4158
g61
I4
ssg62
g4152
sg55
(lp4159
S'Web2py Enterprise Framework'
p4160
asbasbasbag48
(g64
g50
NtRp4161
(dp4162
g53
(dp4163
sg62
g4069
sg55
(lp4164
g48
(g69
g50
NtRp4165
(dp4166
g53
(dp4167
g73
g74
ssg62
g4161
sg55
(lp4168
S'keywords'
p4169
asbag48
(g69
g50
NtRp4170
(dp4171
g53
(dp4172
g80
g81
ssg62
g4161
sg55
(lp4173
S':'
asbag48
(g69
g50
NtRp4174
(dp4175
g53
(dp4176
sg62
g4161
sg55
(lp4177
g48
(g49
g50
NtRp4178
(dp4179
g53
(dp4180
g61
I4
ssg62
g4174
sg55
(lp4181
S'web2py, python, framework'
p4182
asbasbasbasbasbasbasbag48
(g64
g50
NtRp4183
(dp4184
g53
(dp4185
sg62
g2648
sg55
(lp4186
g48
(g69
g50
NtRp4187
(dp4188
g53
(dp4189
g73
g74
ssg62
g4183
sg55
(lp4190
S'postprocessing'
p4191
asbag48
(g69
g50
NtRp4192
(dp4193
g53
(dp4194
g80
g81
ssg62
g4183
sg55
(lp4195
S':'
asbag48
(g69
g50
NtRp4196
(dp4197
g53
(dp4198
sg62
g4183
sg55
(lp4199
g48
(g49
g50
NtRp4200
(dp4201
g53
(dp4202
g61
I5
ssg62
g4196
sg55
(lp4203
g48
(g57
g50
NtRp4204
(dp4205
g53
(dp4206
g61
I4
ssg62
Nsg55
(lp4207
sbasbasbasbag48
(g64
g50
NtRp4208
(dp4209
g53
(dp4210
sg62
g2648
sg55
(lp4211
g48
(g69
g50
NtRp4212
(dp4213
g53
(dp4214
g73
g74
ssg62
g4208
sg55
(lp4215
S'session_file'
p4216
asbag48
(g69
g50
NtRp4217
(dp4218
g53
(dp4219
g80
g81
ssg62
g4208
sg55
(lp4220
S':'
asbag48
(g69
g50
NtRp4221
(dp4222
g53
(dp4223
sg62
g4208
sg55
(lp4224
g48
(g49
g50
NtRp4225
(dp4226
g53
(dp4227
g61
I5
ssg62
g4221
sg55
(lp4228
S"<open file 'C:\\Users\\Atomico\\web2py\\applications\\Desglosar_Emails\\sessions\\127.0.0.1-78cf8050-df87-4502-afb9-ed0c3843b414', mode 'rb+' at 0x084857B8>"
p4229
asbasbasbag48
(g64
g50
NtRp4230
(dp4231
g53
(dp4232
sg62
g2648
sg55
(lp4233
g48
(g69
g50
NtRp4234
(dp4235
g53
(dp4236
g73
g74
ssg62
g4230
sg55
(lp4237
S'session_filename'
p4238
asbag48
(g69
g50
NtRp4239
(dp4240
g53
(dp4241
g80
g81
ssg62
g4230
sg55
(lp4242
S':'
asbag48
(g69
g50
NtRp4243
(dp4244
g53
(dp4245
sg62
g4230
sg55
(lp4246
g48
(g49
g50
NtRp4247
(dp4248
g53
(dp4249
g61
I5
ssg62
g4243
sg55
(lp4250
S'C:\\Users\\Atomico\\web2py\\applications\\Desglosar_Emails\\sessions\\127.0.0.1-78cf8050-df87-4502-afb9-ed0c3843b414'
p4251
asbasbasbag48
(g64
g50
NtRp4252
(dp4253
g53
(dp4254
sg62
g2648
sg55
(lp4255
g48
(g69
g50
NtRp4256
(dp4257
g53
(dp4258
g73
g74
ssg62
g4252
sg55
(lp4259
S'session_id'
p4260
asbag48
(g69
g50
NtRp4261
(dp4262
g53
(dp4263
g80
g81
ssg62
g4252
sg55
(lp4264
S':'
asbag48
(g69
g50
NtRp4265
(dp4266
g53
(dp4267
sg62
g4252
sg55
(lp4268
g48
(g49
g50
NtRp4269
(dp4270
g53
(dp4271
g61
I5
ssg62
g4265
sg55
(lp4272
S'127.0.0.1-78cf8050-df87-4502-afb9-ed0c3843b414'
p4273
asbasbasbag48
(g64
g50
NtRp4274
(dp4275
g53
(dp4276
sg62
g2648
sg55
(lp4277
g48
(g69
g50
NtRp4278
(dp4279
g53
(dp4280
g73
g74
ssg62
g4274
sg55
(lp4281
S'session_id_name'
p4282
asbag48
(g69
g50
NtRp4283
(dp4284
g53
(dp4285
g80
g81
ssg62
g4274
sg55
(lp4286
S':'
asbag48
(g69
g50
NtRp4287
(dp4288
g53
(dp4289
sg62
g4274
sg55
(lp4290
g48
(g49
g50
NtRp4291
(dp4292
g53
(dp4293
g61
I5
ssg62
g4287
sg55
(lp4294
g2705
asbasbasbag48
(g64
g50
NtRp4295
(dp4296
g53
(dp4297
sg62
g2648
sg55
(lp4298
g48
(g69
g50
NtRp4299
(dp4300
g53
(dp4301
g73
g74
ssg62
g4295
sg55
(lp4302
S'session_locked'
p4303
asbag48
(g69
g50
NtRp4304
(dp4305
g53
(dp4306
g80
g81
ssg62
g4295
sg55
(lp4307
S':'
asbag48
(g69
g50
NtRp4308
(dp4309
g53
(dp4310
sg62
g4295
sg55
(lp4311
g48
(g49
g50
NtRp4312
(dp4313
g53
(dp4314
g61
I5
ssg62
g4308
sg55
(lp4315
g1543
asbasbasbag48
(g64
g50
NtRp4316
(dp4317
g53
(dp4318
sg62
g2648
sg55
(lp4319
g48
(g69
g50
NtRp4320
(dp4321
g53
(dp4322
g73
g74
ssg62
g4316
sg55
(lp4323
S'session_new'
p4324
asbag48
(g69
g50
NtRp4325
(dp4326
g53
(dp4327
g80
g81
ssg62
g4316
sg55
(lp4328
S':'
asbag48
(g69
g50
NtRp4329
(dp4330
g53
(dp4331
sg62
g4316
sg55
(lp4332
g48
(g49
g50
NtRp4333
(dp4334
g53
(dp4335
g61
I5
ssg62
g4329
sg55
(lp4336
g91
asbasbasbag48
(g64
g50
NtRp4337
(dp4338
g53
(dp4339
sg62
g2648
sg55
(lp4340
g48
(g69
g50
NtRp4341
(dp4342
g53
(dp4343
g73
g74
ssg62
g4337
sg55
(lp4344
S'status'
p4345
asbag48
(g69
g50
NtRp4346
(dp4347
g53
(dp4348
g80
g81
ssg62
g4337
sg55
(lp4349
S':'
asbag48
(g69
g50
NtRp4350
(dp4351
g53
(dp4352
sg62
g4337
sg55
(lp4353
g48
(g49
g50
NtRp4354
(dp4355
g53
(dp4356
g61
I5
ssg62
g4350
sg55
(lp4357
S'200'
p4358
asbasbasbag48
(g64
g50
NtRp4359
(dp4360
g53
(dp4361
sg62
g2648
sg55
(lp4362
g48
(g69
g50
NtRp4363
(dp4364
g53
(dp4365
g73
g74
ssg62
g4359
sg55
(lp4366
S'subtitle'
p4367
asbag48
(g69
g50
NtRp4368
(dp4369
g53
(dp4370
g80
g81
ssg62
g4359
sg55
(lp4371
S':'
asbag48
(g69
g50
NtRp4372
(dp4373
g53
(dp4374
sg62
g4359
sg55
(lp4375
g48
(g49
g50
NtRp4376
(dp4377
g53
(dp4378
g61
I5
ssg62
g4372
sg55
(lp4379
g3121
(S's\t\x00\x00\x00Adaptame!'
tRp4380
asbasbasbag48
(g64
g50
NtRp4381
(dp4382
g53
(dp4383
sg62
g2648
sg55
(lp4384
g48
(g69
g50
NtRp4385
(dp4386
g53
(dp4387
g73
g74
ssg62
g4381
sg55
(lp4388
S'title'
p4389
asbag48
(g69
g50
NtRp4390
(dp4391
g53
(dp4392
g80
g81
ssg62
g4381
sg55
(lp4393
S':'
asbag48
(g69
g50
NtRp4394
(dp4395
g53
(dp4396
sg62
g4381
sg55
(lp4397
g48
(g49
g50
NtRp4398
(dp4399
g53
(dp4400
g61
I5
ssg62
g4394
sg55
(lp4401
g113
asbasbasbag48
(g64
g50
NtRp4402
(dp4403
g53
(dp4404
sg62
g2648
sg55
(lp4405
g48
(g69
g50
NtRp4406
(dp4407
g53
(dp4408
g73
g74
ssg62
g4402
sg55
(lp4409
g1867
asbag48
(g69
g50
NtRp4410
(dp4411
g53
(dp4412
g80
g81
ssg62
g4402
sg55
(lp4413
S':'
asbag48
(g69
g50
NtRp4414
(dp4415
g53
(dp4416
sg62
g4402
sg55
(lp4417
g48
(g49
g50
NtRp4418
(dp4419
g53
(dp4420
g61
I5
ssg62
g4414
sg55
(lp4421
g1880
asbasbasbag48
(g64
g50
NtRp4422
(dp4423
g53
(dp4424
sg62
g2648
sg55
(lp4425
g48
(g69
g50
NtRp4426
(dp4427
g53
(dp4428
g73
g74
ssg62
g4422
sg55
(lp4429
S'view'
p4430
asbag48
(g69
g50
NtRp4431
(dp4432
g53
(dp4433
g80
g81
ssg62
g4422
sg55
(lp4434
S':'
asbag48
(g69
g50
NtRp4435
(dp4436
g53
(dp4437
sg62
g4422
sg55
(lp4438
g48
(g49
g50
NtRp4439
(dp4440
g53
(dp4441
g61
I5
ssg62
g4435
sg55
(lp4442
S'default/borrardb.html'
p4443
asbasbasbasbasbsS'locals'
p4444
(dp4445
S'self'
p4446
S"<Table {'remitentesant': <gluon.dal.Field object...>, 'id': <gluon.dal.Field object at 0x0858E3F0>}>"
p4447
sS'key'
p4448
S"'dump'"
p4449
sssS'traceback'
p4450
S'Traceback (most recent call last):\n  File "gluon/restricted.py", line 192, in restricted\n  File "C:\\Users\\Atomico\\web2py\\applications\\Desglosar_Emails\\controllers/default.py", line 75, in <module>\n  File "gluon/globals.py", line 145, in <lambda>\n  File "C:\\Users\\Atomico\\web2py\\applications\\Desglosar_Emails\\controllers/default.py", line 70, in borrardb\n  File "gluon/dal.py", line 4731, in __getattr__\n  File "gluon/dal.py", line 4675, in __getitem__\nKeyError: \'dump\'\n'
p4451
s.