(dp1
S'output'
p2
S''
sS'layer'
p3
S'C:\\Users\\Atomico\\web2py\\applications\\Desglosar_Emails\\views\\default/entrada_mod2.html'
p4
sS'code'
p5
S'response.write(\'<!DOCTYPE html>\\n<html lang="\', escape=False)\nresponse.write(T.accepted_language or \'en\')\nresponse.write(\'" class="no-js"><!-- no-js need it for modernzr -->\\n  <head>\\n    \\n    <meta charset="utf-8" />\\t  \\t\\n    <!-- www.phpied.com/conditional-comments-block-downloads/ -->\\n    <!--[if IE]><![endif]-->    \\n    <!-- Always force latest IE rendering engine \\n\\t (even in intranet) & Chrome Frame \\n\\t Remove this if you use the .htaccess -->\\n    <meta http-equiv="X-UA-Compatible" content="IE=edge,chrome=1">\\n    \\n    <title>\', escape=False)\nresponse.write(response.title or request.application)\nresponse.write(\'</title>\\n    \\n    <!-- http://dev.w3.org/html5/markup/meta.name.html -->\\n    <meta name="application-name" content="\', escape=False)\nresponse.write(request.application)\nresponse.write(\'" />\\t\\n    \\n    <!-- Speaking of Google, don\\\'t forget to set your site up: \\n\\t http://google.com/webmasters -->\\n    <meta name="google-site-verification" content="" />\\n    \\n    <!--  Mobile Viewport Fix\\n\\t  j.mp/mobileviewport & davidbcalhoun.com/2010/viewport-metatag \\n\\t  device-width: Occupy full width of the screen in its current orientation\\n\\t  initial-scale = 1.0 retains dimensions instead of zooming out if page height > device height\\n\\t  maximum-scale = 1.0 retains dimensions instead of zooming in if page width < device width\\n      -->\\n    <meta name="viewport" content="width=device-width, initial-scale=1.0, maximum-scale=1.0">\\n    \\n    <!-- Place favicon.ico and apple-touch-icon.png in the root of your domain and delete these references -->\\n    <link rel="shortcut icon" href="\', escape=False)\nresponse.write(URL(\'static\',\'favicon.ico\'))\nresponse.write(\'" type="image/x-icon">\\n    <link rel="apple-touch-icon" href="\', escape=False)\nresponse.write(URL(\'static\',\'favicon.png\'))\nresponse.write(\'">\\n\\n    <!-- For the less-enabled mobile browsers like Opera Mini -->\\n    <link rel="stylesheet" media="handheld" href="\', escape=False)\nresponse.write(URL(\'static\',\'css/handheld.css\'))\nresponse.write(\'">\\n    \\n    <!-- All JavaScript at the bottom, except for Modernizr which enables HTML5 elements & feature detects -->\\n    <script src="\', escape=False)\nresponse.write(URL(\'static\',\'js/modernizr-1.7.min.js\'))\nresponse.write(\'"></script>\\n    \\n    \', escape=False)\n#------  require CSS and JS files for this page (read info in base.css) ------\nresponse.write(\'\\n    \', escape=False)\nresponse.files.append(URL(\'static\',\'css/base.css\'))\nresponse.write(\'\\n    \', escape=False)\nresponse.files.append(URL(\'static\',\'css/superfish.css\'))\nresponse.write(\'\\n    \', escape=False)\nresponse.files.append(URL(\'static\',\'js/superfish.js\'))\nresponse.write(\'\\n    \', escape=False)\n#------ include web2py specific js code (jquery, calendar, form stuff) ------\nresponse.write(\'\\n    \', escape=False)\nresponse.files.insert(0,URL(\'static\',\'js/jquery.js\'))\nresponse.files.insert(1,URL(\'static\',\'css/calendar.css\'))\nresponse.files.insert(2,URL(\'static\',\'js/calendar.js\'))\nfor _item in response.meta or []:\n    response.write(\'\\n     <meta name="\', escape=False)\n    response.write(_item)\n    response.write(\'" content="\', escape=False)\n    response.write(response.meta[_item])\n    response.write(\'" />\', escape=False)\n    pass\nfor _k,_file in enumerate(response.files or []):\n    if _file in response.files[:_k]:\n        continue\n    _file0=_file.lower().split(\'?\')[0]\n    if _file0.endswith(\'.css\'):\n        response.write(\'\\n     <link href="\', escape=False)\n        response.write(_file)\n        response.write(\'" rel="stylesheet" type="text/css" />\', escape=False)\n    elif _file0.endswith(\'.js\'):\n        response.write(\'\\n     <script src="\', escape=False)\n        response.write(_file)\n        response.write(\'" type="text/javascript"></script>\', escape=False)\n        pass\n    pass\nresponse.write(\'\\n    <script type="text/javascript"><!--\\n    // These variables are used by the web2py_ajax_init function in web2py_ajax.js (which is loaded below).\\n    var w2p_ajax_confirm_message = "\', escape=False)\nresponse.write(T(\'Are you sure you want to delete this object?\'))\nresponse.write(\'";\\n    var w2p_ajax_date_format = "\', escape=False)\nresponse.write(T(\'%Y-%m-%d\'))\nresponse.write(\'";\\n    var w2p_ajax_datetime_format = "\', escape=False)\nresponse.write(T(\'%Y-%m-%d %H:%M:%S\'))\nresponse.write(\'";\\n    //--></script>\\n    <script src="\', escape=False)\nresponse.write(URL(\'static\',\'js/web2py_ajax.js\'))\nresponse.write(\'" type="text/javascript"></script>\\n\', escape=False)\nresponse.write(\'\\n\\n    \', escape=False)\n#using sidebars need to know what sidebar you want to use\n#prior of using it, because of static width size of content, you can use\n#left_sidebar, right_sidebar, both or none (False left and right)\nleft_sidebar_enabled = globals().get(\'left_sidebar_enabled\',False)\nright_sidebar_enabled = globals().get(\'right_sidebar_enabled\',False)\nif left_sidebar_enabled and right_sidebar_enabled: width_content=\'63%\'\nelif left_sidebar_enabled != right_sidebar_enabled: width_content=\'740px\'\nelse: width_content=\'100%\'\nif left_sidebar_enabled: left_sidebar_style = \'style="display: block;"\'\nelse: left_sidebar_style = \'style="display: none;"\'\nif right_sidebar_enabled: right_sidebar_style = \'style="display: block;"\'\nelse: right_sidebar_style = \'style="display: none;"\'\nstyle_content = \'style="width: %s"\' % width_content\nresponse.write(\'\\n  </head>\\n  \\n  <!-- paulirish.com/2008/conditional-stylesheets-vs-css-hacks-answer-neither/ -->\\t\\n  <!--[if lt IE 7 ]> <body class="ie6"> <![endif]-->\\n  <!--[if IE 7 ]>    <body class="ie7"> <![endif]-->\\n  <!--[if IE 8 ]>    <body class="ie8"> <![endif]-->\\n  <!--[if IE 9 ]>    <body class="ie9"> <![endif]-->\\n  <!--[if (gt IE 9)|!(IE)]><!--> <body> <!--<![endif]-->\\n    \\n    <div class="flash">\', escape=False)\nresponse.write(response.flash or \'\')\nresponse.write(\'</div> <!-- notification div -->\\n    \\n    <div id="container">\\t      \\t\\t      \\t\\n      \\n      <div id="wrapper">\\t\\t\\n\\t\\n\\t<div id="header"> <!-- header and login nav -->\\n\\t  \', escape=False)\nresponse.write(\' <!-- this is default header -->\\n\\t  \', escape=False)\ntry:\n    response.write(auth.navbar(action=URL(\'default\',\'user\')))\nexcept:pass\nresponse.write(\'\\t\\t          \\n\\t  <h1><span id="appname">\', escape=False)\nresponse.write(request.application.capitalize())\nresponse.write(\'</span>App</h1>\\n\\t  <div style="clear: both;"></div><!-- Clear the divs -->\\n\\t  \', escape=False)\nresponse.write(\'\\t\\t\\t\\t  \\t\\t\\t\\t\\t  \\n\\t</div><!-- header  -->\\n\\t\\n\\t<div id="statusbar"><!-- statusbar is menu zone -->\\n\\t  \', escape=False)\nresponse.write(\' <!-- this is default statusbar -->\\n\\t  \', escape=False)\n#------ superfish menu ------\nresponse.write(\'\\n\\t  \', escape=False)\nresponse.write(MENU(response.menu,_class=\'sf-menu\'))\nresponse.write(\'\\n\\t  <script type="text/javascript">\\n\\t    jQuery(document).ready(function(){\\n\\t    jQuery(\\\'ul.sf-menu\\\').superfish();});\\n\\t  </script>\\n\\t  <div style="clear: both;"></div><!-- Clear the divs -->\\t\\n\\t  \', escape=False)\nresponse.write(\'\\t\\t\\t\\t\\n\\t</div><!-- statusbar -->\\n\\t\\n\\t<div id="page"> <!-- Here my central body -->\\t  \\n\\n\\t  \', escape=False)\nif left_sidebar_enabled:\n    response.write(\'\\n          <div id="left_sidebar" \', escape=False)\n    response.write(XML(left_sidebar_style))\n    response.write(\' >\\n            <div style="padding: 4px;">\\n\\t      \', escape=False)\n    response.write(\'Content Left Sidebar\', escape=False)\n    response.write(\'\\t\\t  \\n            </div>\\n          </div><!-- left_sidebar -->\\n\\t  \', escape=False)\n    pass\nresponse.write(\'\\n\\n\\t  <!-- content -->\\n\\t  <div id="content" \', escape=False)\nresponse.write(XML(style_content))\nresponse.write(\' >\\n\\t    \', escape=False)\nresponse.write(\'\\r\\n<h1>default/entrada_mod2.html</h1>\\r\\n<h2>Formulario</h2>\\r\\n\', escape=False)\nresponse.write(form)\nresponse.write(\'\\r\\n\', escape=False)\nresponse.write(form2)\nresponse.write(\'\\r\\n\\r\\n<h3>Tratamiento darle la longitud a cada elemento</h3>\\r\\n\', escape=False)\nrows=db().select(db.persona.ALL)\nresponse.write(rows)\nresponse.write(\'\\r\\nlen(db().select(db.persona.ALL) es \', escape=False)\nresponse.write(len(db().select(db.persona.ALL)))\nresponse.write(\'\\r\\n<br/>\\r\\nM\\xc3\\xa1s cosas: \\r\\n\', escape=False)\nultimo=db(db.persona.id==len(db().select(db.persona.ALL))).select()[0]\nresponse.write(ultimo.nombre)\nresponse.write(\'\\r\\n<br/>Aqu\\xc3\\xad el perro. \\r\\n\', escape=False)\npersona_id=db(db.persona.id==2).select()[0]\nresponse.write(\'\\r\\n<br/>\\r\\n\', escape=False)\nrows2=db().select(db.perro.ALL)\nresponse.write(rows2)\nresponse.write(len(db(db.perro.amo==db.persona.id).select()))\nconjuntillo=db(db.perro.amo==db.persona.id).select()\nresponse.write(\'\\r\\n<br/>\\r\\n\', escape=False)\nresponse.write(conjuntillo)\nresponse.write(\'\\r\\n\', escape=False)\nresponse.write(\'\\t\\n\\t  </div>\\n\\t  <!-- content -->\\n\\n\\t  \', escape=False)\nif right_sidebar_enabled:\n    response.write(\'\\n          <div id="right_sidebar" \', escape=False)\n    response.write(XML(right_sidebar_style))\n    response.write(\' >\\n            <div style="padding: 4px;">\\n              \', escape=False)\n    response.write(\'Content Right Sidebar\', escape=False)\n    response.write(\'\\n            </div>\\n\\t  </div><!-- right_sidebar -->\\n          \', escape=False)\n    pass\nresponse.write(\'\\n\\n\\n\\t  <div style="clear: both;"></div><!-- Clear the divs -->\\n\\t  \\n\\t</div><!-- page -->\\t\\t\\t\\t\\t\\t\\t\\n\\t\\n\\t<div id="footer">\\n\\t  \', escape=False)\nresponse.write(\' <!-- this is default footer -->\\n\\t  <a href="http://www.web2py.com/" style="float: left; padding-right: 6px;">\\n\\t    <img src="\', escape=False)\nresponse.write(URL(\'static\',\'images/poweredby.png\'))\nresponse.write(\'"/>\\n\\t  </a>\\n\\t  \', escape=False)\nresponse.write(T(\'Copyright\'))\nresponse.write(\' &#169; 2010\\t\\t\\t\\t\\n\\t  <div style="clear: both;"></div><!-- Clear the divs -->\\n\\t  \', escape=False)\nresponse.write(\'\\n\\n\\t</div><!-- footer -->\\t\\t\\t\\n      </div><!-- wrapper -->\\n    </div><!-- container -->\\t\\t\\n    \\n    <!--[if lt IE 7 ]>\\n\\t<script src="\', escape=False)\nresponse.write(URL(\'static\',\'js/dd_belatedpng.js\'))\nresponse.write(\'"></script>\\n\\t<script> DD_belatedPNG.fix(\\\'img, .png_bg\\\'); //fix any <img> or .png_bg background-images </script>\\n\\t<![endif]-->\\n    \\n    <!-- asynchronous google analytics: mathiasbynens.be/notes/async-analytics-snippet \\n\\t change the UA-XXXXX-X to be your site\\\'s ID -->\\n    <!--   \\n\\t   <script>\\n\\t     var _gaq = [[\\\'_setAccount\\\', \\\'UA-XXXXX-X\\\'], [\\\'_trackPageview\\\']];\\n\\t     (function(d, t) {\\n\\t     var g = d.createElement(t),\\n\\t     s = d.getElementsByTagName(t)[0];\\n\\t     g.async = true;\\n\\t     g.src = \\\'//www.google-analytics.com/ga.js\\\';\\n\\t     s.parentNode.insertBefore(g, s);\\n\\t     })(document, \\\'script\\\');\\n\\t   </script>\\n\\t   -->    \\n  </body>\\n</html>\\n\', escape=False)'
p6
sS'snapshot'
p7
(dp8
S'exception'
p9
(dp10
S'__hash__'
p11
S"<method-wrapper '__hash__' of exceptions.KeyError object at 0x08B90080>"
p12
sS'__setattr__'
p13
S"<method-wrapper '__setattr__' of exceptions.KeyError object at 0x08B90080>"
p14
sS'__reduce_ex__'
p15
S'<built-in method __reduce_ex__ of exceptions.KeyError object at 0x08B90080>'
p16
sS'__getslice__'
p17
S"<method-wrapper '__getslice__' of exceptions.KeyError object at 0x08B90080>"
p18
sS'__getitem__'
p19
S"<method-wrapper '__getitem__' of exceptions.KeyError object at 0x08B90080>"
p20
sS'__setstate__'
p21
S'<built-in method __setstate__ of exceptions.KeyError object at 0x08B90080>'
p22
sS'__reduce__'
p23
S'<built-in method __reduce__ of exceptions.KeyError object at 0x08B90080>'
p24
sS'__str__'
p25
S"<method-wrapper '__str__' of exceptions.KeyError object at 0x08B90080>"
p26
sS'args'
p27
S"('amo',)"
p28
sS'__getattribute__'
p29
S"<method-wrapper '__getattribute__' of exceptions.KeyError object at 0x08B90080>"
p30
sS'__class__'
p31
S"<type 'exceptions.KeyError'>"
p32
sS'__delattr__'
p33
S"<method-wrapper '__delattr__' of exceptions.KeyError object at 0x08B90080>"
p34
sS'__repr__'
p35
S"<method-wrapper '__repr__' of exceptions.KeyError object at 0x08B90080>"
p36
sS'__dict__'
p37
S'{}'
p38
sS'__doc__'
p39
S"'Mapping key not found.'"
p40
sS'__init__'
p41
S"<method-wrapper '__init__' of exceptions.KeyError object at 0x08B90080>"
p42
sS'__new__'
p43
S'<built-in method __new__ of type object at 0x1E1CDFB8>'
p44
ssS'evalue'
p45
S"'amo'"
p46
sS'request'
p47
ccopy_reg
_reconstructor
p48
(cgluon.html
BEAUTIFY
p49
c__builtin__
object
p50
NtRp51
(dp52
S'attributes'
p53
(dp54
sS'components'
p55
(lp56
g48
(cgluon.html
TABLE
p57
g50
NtRp58
(dp59
g53
(dp60
S'level'
p61
I5
ssS'parent'
p62
Nsg55
(lp63
g48
(cgluon.html
TR
p64
g50
NtRp65
(dp66
g53
(dp67
sg62
g58
sg55
(lp68
g48
(cgluon.html
TD
p69
g50
NtRp70
(dp71
g53
(dp72
S'_style'
p73
S'font-weight:bold;'
p74
ssg62
g65
sg55
(lp75
S'ajax'
p76
asbag48
(g69
g50
NtRp77
(dp78
g53
(dp79
S'_valign'
p80
S'top'
p81
ssg62
g65
sg55
(lp82
S':'
asbag48
(g69
g50
NtRp83
(dp84
g53
(dp85
sg62
g65
sg55
(lp86
g48
(g49
g50
NtRp87
(dp88
g53
(dp89
g61
I5
ssg62
g83
sg55
(lp90
S'False'
p91
asbasbasbag48
(g64
g50
NtRp92
(dp93
g53
(dp94
sg62
g58
sg55
(lp95
g48
(g69
g50
NtRp96
(dp97
g53
(dp98
g73
g74
ssg62
g92
sg55
(lp99
S'application'
p100
asbag48
(g69
g50
NtRp101
(dp102
g53
(dp103
g80
g81
ssg62
g92
sg55
(lp104
S':'
asbag48
(g69
g50
NtRp105
(dp106
g53
(dp107
sg62
g92
sg55
(lp108
g48
(g49
g50
NtRp109
(dp110
g53
(dp111
g61
I5
ssg62
g105
sg55
(lp112
S'Desglosar_Emails'
p113
asbasbasbag48
(g64
g50
NtRp114
(dp115
g53
(dp116
sg62
g58
sg55
(lp117
g48
(g69
g50
NtRp118
(dp119
g53
(dp120
g73
g74
ssg62
g114
sg55
(lp121
g27
asbag48
(g69
g50
NtRp122
(dp123
g53
(dp124
g80
g81
ssg62
g114
sg55
(lp125
S':'
asbag48
(g69
g50
NtRp126
(dp127
g53
(dp128
sg62
g114
sg55
(lp129
g48
(g49
g50
NtRp130
(dp131
g53
(dp132
g61
I5
ssg62
g126
sg55
(lp133
g48
(g57
g50
NtRp134
(dp135
g53
(dp136
g61
I4
ssg62
Nsg55
(lp137
sbasbasbasbag48
(g64
g50
NtRp138
(dp139
g53
(dp140
sg62
g58
sg55
(lp141
g48
(g69
g50
NtRp142
(dp143
g53
(dp144
g73
g74
ssg62
g138
sg55
(lp145
S'body'
p146
asbag48
(g69
g50
NtRp147
(dp148
g53
(dp149
g80
g81
ssg62
g138
sg55
(lp150
S':'
asbag48
(g69
g50
NtRp151
(dp152
g53
(dp153
sg62
g138
sg55
(lp154
g48
(g49
g50
NtRp155
(dp156
g53
(dp157
g61
I5
ssg62
g151
sg55
(lp158
S"<open file '<fdopen>', mode 'w+b' at 0x07E7D968>"
p159
asbasbasbag48
(g64
g50
NtRp160
(dp161
g53
(dp162
sg62
g58
sg55
(lp163
g48
(g69
g50
NtRp164
(dp165
g53
(dp166
g73
g74
ssg62
g160
sg55
(lp167
S'client'
p168
asbag48
(g69
g50
NtRp169
(dp170
g53
(dp171
g80
g81
ssg62
g160
sg55
(lp172
S':'
asbag48
(g69
g50
NtRp173
(dp174
g53
(dp175
sg62
g160
sg55
(lp176
g48
(g49
g50
NtRp177
(dp178
g53
(dp179
g61
I5
ssg62
g173
sg55
(lp180
S'127.0.0.1'
p181
asbasbasbag48
(g64
g50
NtRp182
(dp183
g53
(dp184
sg62
g58
sg55
(lp185
g48
(g69
g50
NtRp186
(dp187
g53
(dp188
g73
g74
ssg62
g182
sg55
(lp189
S'controller'
p190
asbag48
(g69
g50
NtRp191
(dp192
g53
(dp193
g80
g81
ssg62
g182
sg55
(lp194
S':'
asbag48
(g69
g50
NtRp195
(dp196
g53
(dp197
sg62
g182
sg55
(lp198
g48
(g49
g50
NtRp199
(dp200
g53
(dp201
g61
I5
ssg62
g195
sg55
(lp202
S'default'
p203
asbasbasbag48
(g64
g50
NtRp204
(dp205
g53
(dp206
sg62
g58
sg55
(lp207
g48
(g69
g50
NtRp208
(dp209
g53
(dp210
g73
g74
ssg62
g204
sg55
(lp211
S'cookies'
p212
asbag48
(g69
g50
NtRp213
(dp214
g53
(dp215
g80
g81
ssg62
g204
sg55
(lp216
S':'
asbag48
(g69
g50
NtRp217
(dp218
g53
(dp219
sg62
g204
sg55
(lp220
g48
(g49
g50
NtRp221
(dp222
g53
(dp223
g61
I5
ssg62
g217
sg55
(lp224
g48
(g57
g50
NtRp225
(dp226
g53
(dp227
g61
I4
ssg62
Nsg55
(lp228
g48
(g64
g50
NtRp229
(dp230
g53
(dp231
sg62
g225
sg55
(lp232
g48
(g69
g50
NtRp233
(dp234
g53
(dp235
g73
g74
ssg62
g229
sg55
(lp236
S'session_id_admin'
p237
asbag48
(g69
g50
NtRp238
(dp239
g53
(dp240
g80
g81
ssg62
g229
sg55
(lp241
S':'
asbag48
(g69
g50
NtRp242
(dp243
g53
(dp244
sg62
g229
sg55
(lp245
g48
(g49
g50
NtRp246
(dp247
g53
(dp248
g61
I4
ssg62
g242
sg55
(lp249
g48
(g57
g50
NtRp250
(dp251
g53
(dp252
g61
I3
ssg62
Nsg55
(lp253
g48
(g64
g50
NtRp254
(dp255
g53
(dp256
sg62
g250
sg55
(lp257
g48
(g69
g50
NtRp258
(dp259
g53
(dp260
g73
g74
ssg62
g254
sg55
(lp261
S'comment'
p262
asbag48
(g69
g50
NtRp263
(dp264
g53
(dp265
g80
g81
ssg62
g254
sg55
(lp266
S':'
asbag48
(g69
g50
NtRp267
(dp268
g53
(dp269
sg62
g254
sg55
(lp270
g48
(g49
g50
NtRp271
(dp272
g53
(dp273
g61
I3
ssg62
g267
sg55
(lp274
S''
asbasbasbag48
(g64
g50
NtRp275
(dp276
g53
(dp277
sg62
g250
sg55
(lp278
g48
(g69
g50
NtRp279
(dp280
g53
(dp281
g73
g74
ssg62
g275
sg55
(lp282
S'domain'
p283
asbag48
(g69
g50
NtRp284
(dp285
g53
(dp286
g80
g81
ssg62
g275
sg55
(lp287
S':'
asbag48
(g69
g50
NtRp288
(dp289
g53
(dp290
sg62
g275
sg55
(lp291
g48
(g49
g50
NtRp292
(dp293
g53
(dp294
g61
I3
ssg62
g288
sg55
(lp295
S''
asbasbasbag48
(g64
g50
NtRp296
(dp297
g53
(dp298
sg62
g250
sg55
(lp299
g48
(g69
g50
NtRp300
(dp301
g53
(dp302
g73
g74
ssg62
g296
sg55
(lp303
S'expires'
p304
asbag48
(g69
g50
NtRp305
(dp306
g53
(dp307
g80
g81
ssg62
g296
sg55
(lp308
S':'
asbag48
(g69
g50
NtRp309
(dp310
g53
(dp311
sg62
g296
sg55
(lp312
g48
(g49
g50
NtRp313
(dp314
g53
(dp315
g61
I3
ssg62
g309
sg55
(lp316
S''
asbasbasbag48
(g64
g50
NtRp317
(dp318
g53
(dp319
sg62
g250
sg55
(lp320
g48
(g69
g50
NtRp321
(dp322
g53
(dp323
g73
g74
ssg62
g317
sg55
(lp324
S'max-age'
p325
asbag48
(g69
g50
NtRp326
(dp327
g53
(dp328
g80
g81
ssg62
g317
sg55
(lp329
S':'
asbag48
(g69
g50
NtRp330
(dp331
g53
(dp332
sg62
g317
sg55
(lp333
g48
(g49
g50
NtRp334
(dp335
g53
(dp336
g61
I3
ssg62
g330
sg55
(lp337
S''
asbasbasbag48
(g64
g50
NtRp338
(dp339
g53
(dp340
sg62
g250
sg55
(lp341
g48
(g69
g50
NtRp342
(dp343
g53
(dp344
g73
g74
ssg62
g338
sg55
(lp345
S'path'
p346
asbag48
(g69
g50
NtRp347
(dp348
g53
(dp349
g80
g81
ssg62
g338
sg55
(lp350
S':'
asbag48
(g69
g50
NtRp351
(dp352
g53
(dp353
sg62
g338
sg55
(lp354
g48
(g49
g50
NtRp355
(dp356
g53
(dp357
g61
I3
ssg62
g351
sg55
(lp358
S''
asbasbasbag48
(g64
g50
NtRp359
(dp360
g53
(dp361
sg62
g250
sg55
(lp362
g48
(g69
g50
NtRp363
(dp364
g53
(dp365
g73
g74
ssg62
g359
sg55
(lp366
S'secure'
p367
asbag48
(g69
g50
NtRp368
(dp369
g53
(dp370
g80
g81
ssg62
g359
sg55
(lp371
S':'
asbag48
(g69
g50
NtRp372
(dp373
g53
(dp374
sg62
g359
sg55
(lp375
g48
(g49
g50
NtRp376
(dp377
g53
(dp378
g61
I3
ssg62
g372
sg55
(lp379
S''
asbasbasbag48
(g64
g50
NtRp380
(dp381
g53
(dp382
sg62
g250
sg55
(lp383
g48
(g69
g50
NtRp384
(dp385
g53
(dp386
g73
g74
ssg62
g380
sg55
(lp387
S'version'
p388
asbag48
(g69
g50
NtRp389
(dp390
g53
(dp391
g80
g81
ssg62
g380
sg55
(lp392
S':'
asbag48
(g69
g50
NtRp393
(dp394
g53
(dp395
sg62
g380
sg55
(lp396
g48
(g49
g50
NtRp397
(dp398
g53
(dp399
g61
I3
ssg62
g393
sg55
(lp400
S''
asbasbasbasbasbasbasbag48
(g64
g50
NtRp401
(dp402
g53
(dp403
sg62
g225
sg55
(lp404
g48
(g69
g50
NtRp405
(dp406
g53
(dp407
g73
g74
ssg62
g401
sg55
(lp408
S'session_id_cual_es_tu_nombre'
p409
asbag48
(g69
g50
NtRp410
(dp411
g53
(dp412
g80
g81
ssg62
g401
sg55
(lp413
S':'
asbag48
(g69
g50
NtRp414
(dp415
g53
(dp416
sg62
g401
sg55
(lp417
g48
(g49
g50
NtRp418
(dp419
g53
(dp420
g61
I4
ssg62
g414
sg55
(lp421
g48
(g57
g50
NtRp422
(dp423
g53
(dp424
g61
I3
ssg62
Nsg55
(lp425
g48
(g64
g50
NtRp426
(dp427
g53
(dp428
sg62
g422
sg55
(lp429
g48
(g69
g50
NtRp430
(dp431
g53
(dp432
g73
g74
ssg62
g426
sg55
(lp433
g262
asbag48
(g69
g50
NtRp434
(dp435
g53
(dp436
g80
g81
ssg62
g426
sg55
(lp437
S':'
asbag48
(g69
g50
NtRp438
(dp439
g53
(dp440
sg62
g426
sg55
(lp441
g48
(g49
g50
NtRp442
(dp443
g53
(dp444
g61
I3
ssg62
g438
sg55
(lp445
S''
asbasbasbag48
(g64
g50
NtRp446
(dp447
g53
(dp448
sg62
g422
sg55
(lp449
g48
(g69
g50
NtRp450
(dp451
g53
(dp452
g73
g74
ssg62
g446
sg55
(lp453
g283
asbag48
(g69
g50
NtRp454
(dp455
g53
(dp456
g80
g81
ssg62
g446
sg55
(lp457
S':'
asbag48
(g69
g50
NtRp458
(dp459
g53
(dp460
sg62
g446
sg55
(lp461
g48
(g49
g50
NtRp462
(dp463
g53
(dp464
g61
I3
ssg62
g458
sg55
(lp465
S''
asbasbasbag48
(g64
g50
NtRp466
(dp467
g53
(dp468
sg62
g422
sg55
(lp469
g48
(g69
g50
NtRp470
(dp471
g53
(dp472
g73
g74
ssg62
g466
sg55
(lp473
g304
asbag48
(g69
g50
NtRp474
(dp475
g53
(dp476
g80
g81
ssg62
g466
sg55
(lp477
S':'
asbag48
(g69
g50
NtRp478
(dp479
g53
(dp480
sg62
g466
sg55
(lp481
g48
(g49
g50
NtRp482
(dp483
g53
(dp484
g61
I3
ssg62
g478
sg55
(lp485
S''
asbasbasbag48
(g64
g50
NtRp486
(dp487
g53
(dp488
sg62
g422
sg55
(lp489
g48
(g69
g50
NtRp490
(dp491
g53
(dp492
g73
g74
ssg62
g486
sg55
(lp493
g325
asbag48
(g69
g50
NtRp494
(dp495
g53
(dp496
g80
g81
ssg62
g486
sg55
(lp497
S':'
asbag48
(g69
g50
NtRp498
(dp499
g53
(dp500
sg62
g486
sg55
(lp501
g48
(g49
g50
NtRp502
(dp503
g53
(dp504
g61
I3
ssg62
g498
sg55
(lp505
S''
asbasbasbag48
(g64
g50
NtRp506
(dp507
g53
(dp508
sg62
g422
sg55
(lp509
g48
(g69
g50
NtRp510
(dp511
g53
(dp512
g73
g74
ssg62
g506
sg55
(lp513
g346
asbag48
(g69
g50
NtRp514
(dp515
g53
(dp516
g80
g81
ssg62
g506
sg55
(lp517
S':'
asbag48
(g69
g50
NtRp518
(dp519
g53
(dp520
sg62
g506
sg55
(lp521
g48
(g49
g50
NtRp522
(dp523
g53
(dp524
g61
I3
ssg62
g518
sg55
(lp525
S''
asbasbasbag48
(g64
g50
NtRp526
(dp527
g53
(dp528
sg62
g422
sg55
(lp529
g48
(g69
g50
NtRp530
(dp531
g53
(dp532
g73
g74
ssg62
g526
sg55
(lp533
g367
asbag48
(g69
g50
NtRp534
(dp535
g53
(dp536
g80
g81
ssg62
g526
sg55
(lp537
S':'
asbag48
(g69
g50
NtRp538
(dp539
g53
(dp540
sg62
g526
sg55
(lp541
g48
(g49
g50
NtRp542
(dp543
g53
(dp544
g61
I3
ssg62
g538
sg55
(lp545
S''
asbasbasbag48
(g64
g50
NtRp546
(dp547
g53
(dp548
sg62
g422
sg55
(lp549
g48
(g69
g50
NtRp550
(dp551
g53
(dp552
g73
g74
ssg62
g546
sg55
(lp553
g388
asbag48
(g69
g50
NtRp554
(dp555
g53
(dp556
g80
g81
ssg62
g546
sg55
(lp557
S':'
asbag48
(g69
g50
NtRp558
(dp559
g53
(dp560
sg62
g546
sg55
(lp561
g48
(g49
g50
NtRp562
(dp563
g53
(dp564
g61
I3
ssg62
g558
sg55
(lp565
S''
asbasbasbasbasbasbasbag48
(g64
g50
NtRp566
(dp567
g53
(dp568
sg62
g225
sg55
(lp569
g48
(g69
g50
NtRp570
(dp571
g53
(dp572
g73
g74
ssg62
g566
sg55
(lp573
S'session_id_desglosar_emails'
p574
asbag48
(g69
g50
NtRp575
(dp576
g53
(dp577
g80
g81
ssg62
g566
sg55
(lp578
S':'
asbag48
(g69
g50
NtRp579
(dp580
g53
(dp581
sg62
g566
sg55
(lp582
g48
(g49
g50
NtRp583
(dp584
g53
(dp585
g61
I4
ssg62
g579
sg55
(lp586
g48
(g57
g50
NtRp587
(dp588
g53
(dp589
g61
I3
ssg62
Nsg55
(lp590
g48
(g64
g50
NtRp591
(dp592
g53
(dp593
sg62
g587
sg55
(lp594
g48
(g69
g50
NtRp595
(dp596
g53
(dp597
g73
g74
ssg62
g591
sg55
(lp598
g262
asbag48
(g69
g50
NtRp599
(dp600
g53
(dp601
g80
g81
ssg62
g591
sg55
(lp602
S':'
asbag48
(g69
g50
NtRp603
(dp604
g53
(dp605
sg62
g591
sg55
(lp606
g48
(g49
g50
NtRp607
(dp608
g53
(dp609
g61
I3
ssg62
g603
sg55
(lp610
S''
asbasbasbag48
(g64
g50
NtRp611
(dp612
g53
(dp613
sg62
g587
sg55
(lp614
g48
(g69
g50
NtRp615
(dp616
g53
(dp617
g73
g74
ssg62
g611
sg55
(lp618
g283
asbag48
(g69
g50
NtRp619
(dp620
g53
(dp621
g80
g81
ssg62
g611
sg55
(lp622
S':'
asbag48
(g69
g50
NtRp623
(dp624
g53
(dp625
sg62
g611
sg55
(lp626
g48
(g49
g50
NtRp627
(dp628
g53
(dp629
g61
I3
ssg62
g623
sg55
(lp630
S''
asbasbasbag48
(g64
g50
NtRp631
(dp632
g53
(dp633
sg62
g587
sg55
(lp634
g48
(g69
g50
NtRp635
(dp636
g53
(dp637
g73
g74
ssg62
g631
sg55
(lp638
g304
asbag48
(g69
g50
NtRp639
(dp640
g53
(dp641
g80
g81
ssg62
g631
sg55
(lp642
S':'
asbag48
(g69
g50
NtRp643
(dp644
g53
(dp645
sg62
g631
sg55
(lp646
g48
(g49
g50
NtRp647
(dp648
g53
(dp649
g61
I3
ssg62
g643
sg55
(lp650
S''
asbasbasbag48
(g64
g50
NtRp651
(dp652
g53
(dp653
sg62
g587
sg55
(lp654
g48
(g69
g50
NtRp655
(dp656
g53
(dp657
g73
g74
ssg62
g651
sg55
(lp658
g325
asbag48
(g69
g50
NtRp659
(dp660
g53
(dp661
g80
g81
ssg62
g651
sg55
(lp662
S':'
asbag48
(g69
g50
NtRp663
(dp664
g53
(dp665
sg62
g651
sg55
(lp666
g48
(g49
g50
NtRp667
(dp668
g53
(dp669
g61
I3
ssg62
g663
sg55
(lp670
S''
asbasbasbag48
(g64
g50
NtRp671
(dp672
g53
(dp673
sg62
g587
sg55
(lp674
g48
(g69
g50
NtRp675
(dp676
g53
(dp677
g73
g74
ssg62
g671
sg55
(lp678
g346
asbag48
(g69
g50
NtRp679
(dp680
g53
(dp681
g80
g81
ssg62
g671
sg55
(lp682
S':'
asbag48
(g69
g50
NtRp683
(dp684
g53
(dp685
sg62
g671
sg55
(lp686
g48
(g49
g50
NtRp687
(dp688
g53
(dp689
g61
I3
ssg62
g683
sg55
(lp690
S''
asbasbasbag48
(g64
g50
NtRp691
(dp692
g53
(dp693
sg62
g587
sg55
(lp694
g48
(g69
g50
NtRp695
(dp696
g53
(dp697
g73
g74
ssg62
g691
sg55
(lp698
g367
asbag48
(g69
g50
NtRp699
(dp700
g53
(dp701
g80
g81
ssg62
g691
sg55
(lp702
S':'
asbag48
(g69
g50
NtRp703
(dp704
g53
(dp705
sg62
g691
sg55
(lp706
g48
(g49
g50
NtRp707
(dp708
g53
(dp709
g61
I3
ssg62
g703
sg55
(lp710
S''
asbasbasbag48
(g64
g50
NtRp711
(dp712
g53
(dp713
sg62
g587
sg55
(lp714
g48
(g69
g50
NtRp715
(dp716
g53
(dp717
g73
g74
ssg62
g711
sg55
(lp718
g388
asbag48
(g69
g50
NtRp719
(dp720
g53
(dp721
g80
g81
ssg62
g711
sg55
(lp722
S':'
asbag48
(g69
g50
NtRp723
(dp724
g53
(dp725
sg62
g711
sg55
(lp726
g48
(g49
g50
NtRp727
(dp728
g53
(dp729
g61
I3
ssg62
g723
sg55
(lp730
S''
asbasbasbasbasbasbasbag48
(g64
g50
NtRp731
(dp732
g53
(dp733
sg62
g225
sg55
(lp734
g48
(g69
g50
NtRp735
(dp736
g53
(dp737
g73
g74
ssg62
g731
sg55
(lp738
S'session_id_hemoal'
p739
asbag48
(g69
g50
NtRp740
(dp741
g53
(dp742
g80
g81
ssg62
g731
sg55
(lp743
S':'
asbag48
(g69
g50
NtRp744
(dp745
g53
(dp746
sg62
g731
sg55
(lp747
g48
(g49
g50
NtRp748
(dp749
g53
(dp750
g61
I4
ssg62
g744
sg55
(lp751
g48
(g57
g50
NtRp752
(dp753
g53
(dp754
g61
I3
ssg62
Nsg55
(lp755
g48
(g64
g50
NtRp756
(dp757
g53
(dp758
sg62
g752
sg55
(lp759
g48
(g69
g50
NtRp760
(dp761
g53
(dp762
g73
g74
ssg62
g756
sg55
(lp763
g262
asbag48
(g69
g50
NtRp764
(dp765
g53
(dp766
g80
g81
ssg62
g756
sg55
(lp767
S':'
asbag48
(g69
g50
NtRp768
(dp769
g53
(dp770
sg62
g756
sg55
(lp771
g48
(g49
g50
NtRp772
(dp773
g53
(dp774
g61
I3
ssg62
g768
sg55
(lp775
S''
asbasbasbag48
(g64
g50
NtRp776
(dp777
g53
(dp778
sg62
g752
sg55
(lp779
g48
(g69
g50
NtRp780
(dp781
g53
(dp782
g73
g74
ssg62
g776
sg55
(lp783
g283
asbag48
(g69
g50
NtRp784
(dp785
g53
(dp786
g80
g81
ssg62
g776
sg55
(lp787
S':'
asbag48
(g69
g50
NtRp788
(dp789
g53
(dp790
sg62
g776
sg55
(lp791
g48
(g49
g50
NtRp792
(dp793
g53
(dp794
g61
I3
ssg62
g788
sg55
(lp795
S''
asbasbasbag48
(g64
g50
NtRp796
(dp797
g53
(dp798
sg62
g752
sg55
(lp799
g48
(g69
g50
NtRp800
(dp801
g53
(dp802
g73
g74
ssg62
g796
sg55
(lp803
g304
asbag48
(g69
g50
NtRp804
(dp805
g53
(dp806
g80
g81
ssg62
g796
sg55
(lp807
S':'
asbag48
(g69
g50
NtRp808
(dp809
g53
(dp810
sg62
g796
sg55
(lp811
g48
(g49
g50
NtRp812
(dp813
g53
(dp814
g61
I3
ssg62
g808
sg55
(lp815
S''
asbasbasbag48
(g64
g50
NtRp816
(dp817
g53
(dp818
sg62
g752
sg55
(lp819
g48
(g69
g50
NtRp820
(dp821
g53
(dp822
g73
g74
ssg62
g816
sg55
(lp823
g325
asbag48
(g69
g50
NtRp824
(dp825
g53
(dp826
g80
g81
ssg62
g816
sg55
(lp827
S':'
asbag48
(g69
g50
NtRp828
(dp829
g53
(dp830
sg62
g816
sg55
(lp831
g48
(g49
g50
NtRp832
(dp833
g53
(dp834
g61
I3
ssg62
g828
sg55
(lp835
S''
asbasbasbag48
(g64
g50
NtRp836
(dp837
g53
(dp838
sg62
g752
sg55
(lp839
g48
(g69
g50
NtRp840
(dp841
g53
(dp842
g73
g74
ssg62
g836
sg55
(lp843
g346
asbag48
(g69
g50
NtRp844
(dp845
g53
(dp846
g80
g81
ssg62
g836
sg55
(lp847
S':'
asbag48
(g69
g50
NtRp848
(dp849
g53
(dp850
sg62
g836
sg55
(lp851
g48
(g49
g50
NtRp852
(dp853
g53
(dp854
g61
I3
ssg62
g848
sg55
(lp855
S''
asbasbasbag48
(g64
g50
NtRp856
(dp857
g53
(dp858
sg62
g752
sg55
(lp859
g48
(g69
g50
NtRp860
(dp861
g53
(dp862
g73
g74
ssg62
g856
sg55
(lp863
g367
asbag48
(g69
g50
NtRp864
(dp865
g53
(dp866
g80
g81
ssg62
g856
sg55
(lp867
S':'
asbag48
(g69
g50
NtRp868
(dp869
g53
(dp870
sg62
g856
sg55
(lp871
g48
(g49
g50
NtRp872
(dp873
g53
(dp874
g61
I3
ssg62
g868
sg55
(lp875
S''
asbasbasbag48
(g64
g50
NtRp876
(dp877
g53
(dp878
sg62
g752
sg55
(lp879
g48
(g69
g50
NtRp880
(dp881
g53
(dp882
g73
g74
ssg62
g876
sg55
(lp883
g388
asbag48
(g69
g50
NtRp884
(dp885
g53
(dp886
g80
g81
ssg62
g876
sg55
(lp887
S':'
asbag48
(g69
g50
NtRp888
(dp889
g53
(dp890
sg62
g876
sg55
(lp891
g48
(g49
g50
NtRp892
(dp893
g53
(dp894
g61
I3
ssg62
g888
sg55
(lp895
S''
asbasbasbasbasbasbasbag48
(g64
g50
NtRp896
(dp897
g53
(dp898
sg62
g225
sg55
(lp899
g48
(g69
g50
NtRp900
(dp901
g53
(dp902
g73
g74
ssg62
g896
sg55
(lp903
S'session_id_listado_1'
p904
asbag48
(g69
g50
NtRp905
(dp906
g53
(dp907
g80
g81
ssg62
g896
sg55
(lp908
S':'
asbag48
(g69
g50
NtRp909
(dp910
g53
(dp911
sg62
g896
sg55
(lp912
g48
(g49
g50
NtRp913
(dp914
g53
(dp915
g61
I4
ssg62
g909
sg55
(lp916
g48
(g57
g50
NtRp917
(dp918
g53
(dp919
g61
I3
ssg62
Nsg55
(lp920
g48
(g64
g50
NtRp921
(dp922
g53
(dp923
sg62
g917
sg55
(lp924
g48
(g69
g50
NtRp925
(dp926
g53
(dp927
g73
g74
ssg62
g921
sg55
(lp928
g262
asbag48
(g69
g50
NtRp929
(dp930
g53
(dp931
g80
g81
ssg62
g921
sg55
(lp932
S':'
asbag48
(g69
g50
NtRp933
(dp934
g53
(dp935
sg62
g921
sg55
(lp936
g48
(g49
g50
NtRp937
(dp938
g53
(dp939
g61
I3
ssg62
g933
sg55
(lp940
S''
asbasbasbag48
(g64
g50
NtRp941
(dp942
g53
(dp943
sg62
g917
sg55
(lp944
g48
(g69
g50
NtRp945
(dp946
g53
(dp947
g73
g74
ssg62
g941
sg55
(lp948
g283
asbag48
(g69
g50
NtRp949
(dp950
g53
(dp951
g80
g81
ssg62
g941
sg55
(lp952
S':'
asbag48
(g69
g50
NtRp953
(dp954
g53
(dp955
sg62
g941
sg55
(lp956
g48
(g49
g50
NtRp957
(dp958
g53
(dp959
g61
I3
ssg62
g953
sg55
(lp960
S''
asbasbasbag48
(g64
g50
NtRp961
(dp962
g53
(dp963
sg62
g917
sg55
(lp964
g48
(g69
g50
NtRp965
(dp966
g53
(dp967
g73
g74
ssg62
g961
sg55
(lp968
g304
asbag48
(g69
g50
NtRp969
(dp970
g53
(dp971
g80
g81
ssg62
g961
sg55
(lp972
S':'
asbag48
(g69
g50
NtRp973
(dp974
g53
(dp975
sg62
g961
sg55
(lp976
g48
(g49
g50
NtRp977
(dp978
g53
(dp979
g61
I3
ssg62
g973
sg55
(lp980
S''
asbasbasbag48
(g64
g50
NtRp981
(dp982
g53
(dp983
sg62
g917
sg55
(lp984
g48
(g69
g50
NtRp985
(dp986
g53
(dp987
g73
g74
ssg62
g981
sg55
(lp988
g325
asbag48
(g69
g50
NtRp989
(dp990
g53
(dp991
g80
g81
ssg62
g981
sg55
(lp992
S':'
asbag48
(g69
g50
NtRp993
(dp994
g53
(dp995
sg62
g981
sg55
(lp996
g48
(g49
g50
NtRp997
(dp998
g53
(dp999
g61
I3
ssg62
g993
sg55
(lp1000
S''
asbasbasbag48
(g64
g50
NtRp1001
(dp1002
g53
(dp1003
sg62
g917
sg55
(lp1004
g48
(g69
g50
NtRp1005
(dp1006
g53
(dp1007
g73
g74
ssg62
g1001
sg55
(lp1008
g346
asbag48
(g69
g50
NtRp1009
(dp1010
g53
(dp1011
g80
g81
ssg62
g1001
sg55
(lp1012
S':'
asbag48
(g69
g50
NtRp1013
(dp1014
g53
(dp1015
sg62
g1001
sg55
(lp1016
g48
(g49
g50
NtRp1017
(dp1018
g53
(dp1019
g61
I3
ssg62
g1013
sg55
(lp1020
S''
asbasbasbag48
(g64
g50
NtRp1021
(dp1022
g53
(dp1023
sg62
g917
sg55
(lp1024
g48
(g69
g50
NtRp1025
(dp1026
g53
(dp1027
g73
g74
ssg62
g1021
sg55
(lp1028
g367
asbag48
(g69
g50
NtRp1029
(dp1030
g53
(dp1031
g80
g81
ssg62
g1021
sg55
(lp1032
S':'
asbag48
(g69
g50
NtRp1033
(dp1034
g53
(dp1035
sg62
g1021
sg55
(lp1036
g48
(g49
g50
NtRp1037
(dp1038
g53
(dp1039
g61
I3
ssg62
g1033
sg55
(lp1040
S''
asbasbasbag48
(g64
g50
NtRp1041
(dp1042
g53
(dp1043
sg62
g917
sg55
(lp1044
g48
(g69
g50
NtRp1045
(dp1046
g53
(dp1047
g73
g74
ssg62
g1041
sg55
(lp1048
g388
asbag48
(g69
g50
NtRp1049
(dp1050
g53
(dp1051
g80
g81
ssg62
g1041
sg55
(lp1052
S':'
asbag48
(g69
g50
NtRp1053
(dp1054
g53
(dp1055
sg62
g1041
sg55
(lp1056
g48
(g49
g50
NtRp1057
(dp1058
g53
(dp1059
g61
I3
ssg62
g1053
sg55
(lp1060
S''
asbasbasbasbasbasbasbag48
(g64
g50
NtRp1061
(dp1062
g53
(dp1063
sg62
g225
sg55
(lp1064
g48
(g69
g50
NtRp1065
(dp1066
g53
(dp1067
g73
g74
ssg62
g1061
sg55
(lp1068
S'session_id_myappjav'
p1069
asbag48
(g69
g50
NtRp1070
(dp1071
g53
(dp1072
g80
g81
ssg62
g1061
sg55
(lp1073
S':'
asbag48
(g69
g50
NtRp1074
(dp1075
g53
(dp1076
sg62
g1061
sg55
(lp1077
g48
(g49
g50
NtRp1078
(dp1079
g53
(dp1080
g61
I4
ssg62
g1074
sg55
(lp1081
g48
(g57
g50
NtRp1082
(dp1083
g53
(dp1084
g61
I3
ssg62
Nsg55
(lp1085
g48
(g64
g50
NtRp1086
(dp1087
g53
(dp1088
sg62
g1082
sg55
(lp1089
g48
(g69
g50
NtRp1090
(dp1091
g53
(dp1092
g73
g74
ssg62
g1086
sg55
(lp1093
g262
asbag48
(g69
g50
NtRp1094
(dp1095
g53
(dp1096
g80
g81
ssg62
g1086
sg55
(lp1097
S':'
asbag48
(g69
g50
NtRp1098
(dp1099
g53
(dp1100
sg62
g1086
sg55
(lp1101
g48
(g49
g50
NtRp1102
(dp1103
g53
(dp1104
g61
I3
ssg62
g1098
sg55
(lp1105
S''
asbasbasbag48
(g64
g50
NtRp1106
(dp1107
g53
(dp1108
sg62
g1082
sg55
(lp1109
g48
(g69
g50
NtRp1110
(dp1111
g53
(dp1112
g73
g74
ssg62
g1106
sg55
(lp1113
g283
asbag48
(g69
g50
NtRp1114
(dp1115
g53
(dp1116
g80
g81
ssg62
g1106
sg55
(lp1117
S':'
asbag48
(g69
g50
NtRp1118
(dp1119
g53
(dp1120
sg62
g1106
sg55
(lp1121
g48
(g49
g50
NtRp1122
(dp1123
g53
(dp1124
g61
I3
ssg62
g1118
sg55
(lp1125
S''
asbasbasbag48
(g64
g50
NtRp1126
(dp1127
g53
(dp1128
sg62
g1082
sg55
(lp1129
g48
(g69
g50
NtRp1130
(dp1131
g53
(dp1132
g73
g74
ssg62
g1126
sg55
(lp1133
g304
asbag48
(g69
g50
NtRp1134
(dp1135
g53
(dp1136
g80
g81
ssg62
g1126
sg55
(lp1137
S':'
asbag48
(g69
g50
NtRp1138
(dp1139
g53
(dp1140
sg62
g1126
sg55
(lp1141
g48
(g49
g50
NtRp1142
(dp1143
g53
(dp1144
g61
I3
ssg62
g1138
sg55
(lp1145
S''
asbasbasbag48
(g64
g50
NtRp1146
(dp1147
g53
(dp1148
sg62
g1082
sg55
(lp1149
g48
(g69
g50
NtRp1150
(dp1151
g53
(dp1152
g73
g74
ssg62
g1146
sg55
(lp1153
g325
asbag48
(g69
g50
NtRp1154
(dp1155
g53
(dp1156
g80
g81
ssg62
g1146
sg55
(lp1157
S':'
asbag48
(g69
g50
NtRp1158
(dp1159
g53
(dp1160
sg62
g1146
sg55
(lp1161
g48
(g49
g50
NtRp1162
(dp1163
g53
(dp1164
g61
I3
ssg62
g1158
sg55
(lp1165
S''
asbasbasbag48
(g64
g50
NtRp1166
(dp1167
g53
(dp1168
sg62
g1082
sg55
(lp1169
g48
(g69
g50
NtRp1170
(dp1171
g53
(dp1172
g73
g74
ssg62
g1166
sg55
(lp1173
g346
asbag48
(g69
g50
NtRp1174
(dp1175
g53
(dp1176
g80
g81
ssg62
g1166
sg55
(lp1177
S':'
asbag48
(g69
g50
NtRp1178
(dp1179
g53
(dp1180
sg62
g1166
sg55
(lp1181
g48
(g49
g50
NtRp1182
(dp1183
g53
(dp1184
g61
I3
ssg62
g1178
sg55
(lp1185
S''
asbasbasbag48
(g64
g50
NtRp1186
(dp1187
g53
(dp1188
sg62
g1082
sg55
(lp1189
g48
(g69
g50
NtRp1190
(dp1191
g53
(dp1192
g73
g74
ssg62
g1186
sg55
(lp1193
g367
asbag48
(g69
g50
NtRp1194
(dp1195
g53
(dp1196
g80
g81
ssg62
g1186
sg55
(lp1197
S':'
asbag48
(g69
g50
NtRp1198
(dp1199
g53
(dp1200
sg62
g1186
sg55
(lp1201
g48
(g49
g50
NtRp1202
(dp1203
g53
(dp1204
g61
I3
ssg62
g1198
sg55
(lp1205
S''
asbasbasbag48
(g64
g50
NtRp1206
(dp1207
g53
(dp1208
sg62
g1082
sg55
(lp1209
g48
(g69
g50
NtRp1210
(dp1211
g53
(dp1212
g73
g74
ssg62
g1206
sg55
(lp1213
g388
asbag48
(g69
g50
NtRp1214
(dp1215
g53
(dp1216
g80
g81
ssg62
g1206
sg55
(lp1217
S':'
asbag48
(g69
g50
NtRp1218
(dp1219
g53
(dp1220
sg62
g1206
sg55
(lp1221
g48
(g49
g50
NtRp1222
(dp1223
g53
(dp1224
g61
I3
ssg62
g1218
sg55
(lp1225
S''
asbasbasbasbasbasbasbag48
(g64
g50
NtRp1226
(dp1227
g53
(dp1228
sg62
g225
sg55
(lp1229
g48
(g69
g50
NtRp1230
(dp1231
g53
(dp1232
g73
g74
ssg62
g1226
sg55
(lp1233
S'session_id_welcome'
p1234
asbag48
(g69
g50
NtRp1235
(dp1236
g53
(dp1237
g80
g81
ssg62
g1226
sg55
(lp1238
S':'
asbag48
(g69
g50
NtRp1239
(dp1240
g53
(dp1241
sg62
g1226
sg55
(lp1242
g48
(g49
g50
NtRp1243
(dp1244
g53
(dp1245
g61
I4
ssg62
g1239
sg55
(lp1246
g48
(g57
g50
NtRp1247
(dp1248
g53
(dp1249
g61
I3
ssg62
Nsg55
(lp1250
g48
(g64
g50
NtRp1251
(dp1252
g53
(dp1253
sg62
g1247
sg55
(lp1254
g48
(g69
g50
NtRp1255
(dp1256
g53
(dp1257
g73
g74
ssg62
g1251
sg55
(lp1258
g262
asbag48
(g69
g50
NtRp1259
(dp1260
g53
(dp1261
g80
g81
ssg62
g1251
sg55
(lp1262
S':'
asbag48
(g69
g50
NtRp1263
(dp1264
g53
(dp1265
sg62
g1251
sg55
(lp1266
g48
(g49
g50
NtRp1267
(dp1268
g53
(dp1269
g61
I3
ssg62
g1263
sg55
(lp1270
S''
asbasbasbag48
(g64
g50
NtRp1271
(dp1272
g53
(dp1273
sg62
g1247
sg55
(lp1274
g48
(g69
g50
NtRp1275
(dp1276
g53
(dp1277
g73
g74
ssg62
g1271
sg55
(lp1278
g283
asbag48
(g69
g50
NtRp1279
(dp1280
g53
(dp1281
g80
g81
ssg62
g1271
sg55
(lp1282
S':'
asbag48
(g69
g50
NtRp1283
(dp1284
g53
(dp1285
sg62
g1271
sg55
(lp1286
g48
(g49
g50
NtRp1287
(dp1288
g53
(dp1289
g61
I3
ssg62
g1283
sg55
(lp1290
S''
asbasbasbag48
(g64
g50
NtRp1291
(dp1292
g53
(dp1293
sg62
g1247
sg55
(lp1294
g48
(g69
g50
NtRp1295
(dp1296
g53
(dp1297
g73
g74
ssg62
g1291
sg55
(lp1298
g304
asbag48
(g69
g50
NtRp1299
(dp1300
g53
(dp1301
g80
g81
ssg62
g1291
sg55
(lp1302
S':'
asbag48
(g69
g50
NtRp1303
(dp1304
g53
(dp1305
sg62
g1291
sg55
(lp1306
g48
(g49
g50
NtRp1307
(dp1308
g53
(dp1309
g61
I3
ssg62
g1303
sg55
(lp1310
S''
asbasbasbag48
(g64
g50
NtRp1311
(dp1312
g53
(dp1313
sg62
g1247
sg55
(lp1314
g48
(g69
g50
NtRp1315
(dp1316
g53
(dp1317
g73
g74
ssg62
g1311
sg55
(lp1318
g325
asbag48
(g69
g50
NtRp1319
(dp1320
g53
(dp1321
g80
g81
ssg62
g1311
sg55
(lp1322
S':'
asbag48
(g69
g50
NtRp1323
(dp1324
g53
(dp1325
sg62
g1311
sg55
(lp1326
g48
(g49
g50
NtRp1327
(dp1328
g53
(dp1329
g61
I3
ssg62
g1323
sg55
(lp1330
S''
asbasbasbag48
(g64
g50
NtRp1331
(dp1332
g53
(dp1333
sg62
g1247
sg55
(lp1334
g48
(g69
g50
NtRp1335
(dp1336
g53
(dp1337
g73
g74
ssg62
g1331
sg55
(lp1338
g346
asbag48
(g69
g50
NtRp1339
(dp1340
g53
(dp1341
g80
g81
ssg62
g1331
sg55
(lp1342
S':'
asbag48
(g69
g50
NtRp1343
(dp1344
g53
(dp1345
sg62
g1331
sg55
(lp1346
g48
(g49
g50
NtRp1347
(dp1348
g53
(dp1349
g61
I3
ssg62
g1343
sg55
(lp1350
S''
asbasbasbag48
(g64
g50
NtRp1351
(dp1352
g53
(dp1353
sg62
g1247
sg55
(lp1354
g48
(g69
g50
NtRp1355
(dp1356
g53
(dp1357
g73
g74
ssg62
g1351
sg55
(lp1358
g367
asbag48
(g69
g50
NtRp1359
(dp1360
g53
(dp1361
g80
g81
ssg62
g1351
sg55
(lp1362
S':'
asbag48
(g69
g50
NtRp1363
(dp1364
g53
(dp1365
sg62
g1351
sg55
(lp1366
g48
(g49
g50
NtRp1367
(dp1368
g53
(dp1369
g61
I3
ssg62
g1363
sg55
(lp1370
S''
asbasbasbag48
(g64
g50
NtRp1371
(dp1372
g53
(dp1373
sg62
g1247
sg55
(lp1374
g48
(g69
g50
NtRp1375
(dp1376
g53
(dp1377
g73
g74
ssg62
g1371
sg55
(lp1378
g388
asbag48
(g69
g50
NtRp1379
(dp1380
g53
(dp1381
g80
g81
ssg62
g1371
sg55
(lp1382
S':'
asbag48
(g69
g50
NtRp1383
(dp1384
g53
(dp1385
sg62
g1371
sg55
(lp1386
g48
(g49
g50
NtRp1387
(dp1388
g53
(dp1389
g61
I3
ssg62
g1383
sg55
(lp1390
S''
asbasbasbasbasbasbasbasbasbasbasbag48
(g64
g50
NtRp1391
(dp1392
g53
(dp1393
sg62
g58
sg55
(lp1394
g48
(g69
g50
NtRp1395
(dp1396
g53
(dp1397
g73
g74
ssg62
g1391
sg55
(lp1398
S'env'
p1399
asbag48
(g69
g50
NtRp1400
(dp1401
g53
(dp1402
g80
g81
ssg62
g1391
sg55
(lp1403
S':'
asbag48
(g69
g50
NtRp1404
(dp1405
g53
(dp1406
sg62
g1391
sg55
(lp1407
g48
(g49
g50
NtRp1408
(dp1409
g53
(dp1410
g61
I5
ssg62
g1404
sg55
(lp1411
g48
(g57
g50
NtRp1412
(dp1413
g53
(dp1414
g61
I4
ssg62
Nsg55
(lp1415
g48
(g64
g50
NtRp1416
(dp1417
g53
(dp1418
sg62
g1412
sg55
(lp1419
g48
(g69
g50
NtRp1420
(dp1421
g53
(dp1422
g73
g74
ssg62
g1416
sg55
(lp1423
S'app_folders'
p1424
asbag48
(g69
g50
NtRp1425
(dp1426
g53
(dp1427
g80
g81
ssg62
g1416
sg55
(lp1428
S':'
asbag48
(g69
g50
NtRp1429
(dp1430
g53
(dp1431
sg62
g1416
sg55
(lp1432
g48
(g49
g50
NtRp1433
(dp1434
g53
(dp1435
g61
I4
ssg62
g1429
sg55
(lp1436
S"set(['C:\\\\Users\\\\Atomico\\\\web2py\\\\applications\\\\Desglosar_Emails\\\\', 'C:\\\\Users\\\\Atomico\\\\web2py\\\\applications\\\\Cual_es_tu_nombre\\\\', 'C:\\\\Users\\\\Atomico\\\\web2py\\\\applications\\\\admin\\\\', 'C:\\\\Users\\\\Atomico\\\\web2py\\\\applications\\\\hemoal\\\\', 'C:\\\\Users\\\\Atomico\\\\web2py\\\\applications\\\\myAppJav\\\\', 'C:\\\\Users\\\\Atomico\\\\web2py\\\\applications\\\\welcome\\\\', 'C:\\\\Users\\\\Atomico\\\\web2py\\\\applications\\\\examples\\\\'])"
p1437
asbasbasbag48
(g64
g50
NtRp1438
(dp1439
g53
(dp1440
sg62
g1412
sg55
(lp1441
g48
(g69
g50
NtRp1442
(dp1443
g53
(dp1444
g73
g74
ssg62
g1438
sg55
(lp1445
S'applications_parent'
p1446
asbag48
(g69
g50
NtRp1447
(dp1448
g53
(dp1449
g80
g81
ssg62
g1438
sg55
(lp1450
S':'
asbag48
(g69
g50
NtRp1451
(dp1452
g53
(dp1453
sg62
g1438
sg55
(lp1454
g48
(g49
g50
NtRp1455
(dp1456
g53
(dp1457
g61
I4
ssg62
g1451
sg55
(lp1458
S'C:\\Users\\Atomico\\web2py'
p1459
asbasbasbag48
(g64
g50
NtRp1460
(dp1461
g53
(dp1462
sg62
g1412
sg55
(lp1463
g48
(g69
g50
NtRp1464
(dp1465
g53
(dp1466
g73
g74
ssg62
g1460
sg55
(lp1467
S'cmd_args'
p1468
asbag48
(g69
g50
NtRp1469
(dp1470
g53
(dp1471
g80
g81
ssg62
g1460
sg55
(lp1472
S':'
asbag48
(g69
g50
NtRp1473
(dp1474
g53
(dp1475
sg62
g1460
sg55
(lp1476
g48
(g49
g50
NtRp1477
(dp1478
g53
(dp1479
g61
I4
ssg62
g1473
sg55
(lp1480
g48
(g57
g50
NtRp1481
(dp1482
g53
(dp1483
g61
I3
ssg62
Nsg55
(lp1484
sbasbasbasbag48
(g64
g50
NtRp1485
(dp1486
g53
(dp1487
sg62
g1412
sg55
(lp1488
g48
(g69
g50
NtRp1489
(dp1490
g53
(dp1491
g73
g74
ssg62
g1485
sg55
(lp1492
S'cmd_options'
p1493
asbag48
(g69
g50
NtRp1494
(dp1495
g53
(dp1496
g80
g81
ssg62
g1485
sg55
(lp1497
S':'
asbag48
(g69
g50
NtRp1498
(dp1499
g53
(dp1500
sg62
g1485
sg55
(lp1501
g48
(g49
g50
NtRp1502
(dp1503
g53
(dp1504
g61
I4
ssg62
g1498
sg55
(lp1505
S"<Values at 0x306b620: {'verbose': False, 'ip': '127.0.0.1', 'shutdown_timeout': 5, 'taskbar': False, 'port': 8000, 'maxthreads': None, 'softcron': False, 'server_name': 'Swing', 'bpython': False, 'nogui': False, 'nocron': False, 'extcron': False, 'debuglevel': 30, 'test': None, 'folder': 'C:\\\\Users\\\\Atomico\\\\web2py', 'config': '', 'import_models': False, 'winservice': '', 'shell': None, 'run': '', 'log_filename': 'httpserver.log', 'args': [''], 'profiler_filename': None, 'ssl_private_key': '', 'password': '<ask>', 'request_queue_size': 5, 'ssl_certificate': '', 'cronjob': False, 'plain': False, 'quiet': False, 'interfaces': None, 'minthreads': None, 'timeout': 10, 'numthreads': None, 'nobanner': False, 'pid_filename': 'httpserver.pid'}>"
p1506
asbasbasbag48
(g64
g50
NtRp1507
(dp1508
g53
(dp1509
sg62
g1412
sg55
(lp1510
g48
(g69
g50
NtRp1511
(dp1512
g53
(dp1513
g73
g74
ssg62
g1507
sg55
(lp1514
S'content_length'
p1515
asbag48
(g69
g50
NtRp1516
(dp1517
g53
(dp1518
g80
g81
ssg62
g1507
sg55
(lp1519
S':'
asbag48
(g69
g50
NtRp1520
(dp1521
g53
(dp1522
sg62
g1507
sg55
(lp1523
g48
(g49
g50
NtRp1524
(dp1525
g53
(dp1526
g61
I4
ssg62
g1520
sg55
(lp1527
S'592'
p1528
asbasbasbag48
(g64
g50
NtRp1529
(dp1530
g53
(dp1531
sg62
g1412
sg55
(lp1532
g48
(g69
g50
NtRp1533
(dp1534
g53
(dp1535
g73
g74
ssg62
g1529
sg55
(lp1536
S'content_type'
p1537
asbag48
(g69
g50
NtRp1538
(dp1539
g53
(dp1540
g80
g81
ssg62
g1529
sg55
(lp1541
S':'
asbag48
(g69
g50
NtRp1542
(dp1543
g53
(dp1544
sg62
g1529
sg55
(lp1545
g48
(g49
g50
NtRp1546
(dp1547
g53
(dp1548
g61
I4
ssg62
g1542
sg55
(lp1549
S'multipart/form-data; boundary=---------------------------141992343219944'
p1550
asbasbasbag48
(g64
g50
NtRp1551
(dp1552
g53
(dp1553
sg62
g1412
sg55
(lp1554
g48
(g69
g50
NtRp1555
(dp1556
g53
(dp1557
g73
g74
ssg62
g1551
sg55
(lp1558
S'db_sessions'
p1559
asbag48
(g69
g50
NtRp1560
(dp1561
g53
(dp1562
g80
g81
ssg62
g1551
sg55
(lp1563
S':'
asbag48
(g69
g50
NtRp1564
(dp1565
g53
(dp1566
sg62
g1551
sg55
(lp1567
g48
(g49
g50
NtRp1568
(dp1569
g53
(dp1570
g61
I4
ssg62
g1564
sg55
(lp1571
S'set([])'
p1572
asbasbasbag48
(g64
g50
NtRp1573
(dp1574
g53
(dp1575
sg62
g1412
sg55
(lp1576
g48
(g69
g50
NtRp1577
(dp1578
g53
(dp1579
g73
g74
ssg62
g1573
sg55
(lp1580
S'debugging'
p1581
asbag48
(g69
g50
NtRp1582
(dp1583
g53
(dp1584
g80
g81
ssg62
g1573
sg55
(lp1585
S':'
asbag48
(g69
g50
NtRp1586
(dp1587
g53
(dp1588
sg62
g1573
sg55
(lp1589
g48
(g49
g50
NtRp1590
(dp1591
g53
(dp1592
g61
I4
ssg62
g1586
sg55
(lp1593
g91
asbasbasbag48
(g64
g50
NtRp1594
(dp1595
g53
(dp1596
sg62
g1412
sg55
(lp1597
g48
(g69
g50
NtRp1598
(dp1599
g53
(dp1600
g73
g74
ssg62
g1594
sg55
(lp1601
S'gluon_parent'
p1602
asbag48
(g69
g50
NtRp1603
(dp1604
g53
(dp1605
g80
g81
ssg62
g1594
sg55
(lp1606
S':'
asbag48
(g69
g50
NtRp1607
(dp1608
g53
(dp1609
sg62
g1594
sg55
(lp1610
g48
(g49
g50
NtRp1611
(dp1612
g53
(dp1613
g61
I4
ssg62
g1607
sg55
(lp1614
S'C:\\Users\\Atomico\\web2py'
p1615
asbasbasbag48
(g64
g50
NtRp1616
(dp1617
g53
(dp1618
sg62
g1412
sg55
(lp1619
g48
(g69
g50
NtRp1620
(dp1621
g53
(dp1622
g73
g74
ssg62
g1616
sg55
(lp1623
S'http_accept'
p1624
asbag48
(g69
g50
NtRp1625
(dp1626
g53
(dp1627
g80
g81
ssg62
g1616
sg55
(lp1628
S':'
asbag48
(g69
g50
NtRp1629
(dp1630
g53
(dp1631
sg62
g1616
sg55
(lp1632
g48
(g49
g50
NtRp1633
(dp1634
g53
(dp1635
g61
I4
ssg62
g1629
sg55
(lp1636
S'text/html,application/xhtml+xml,application/xml;q=0.9,*/*;q=0.8'
p1637
asbasbasbag48
(g64
g50
NtRp1638
(dp1639
g53
(dp1640
sg62
g1412
sg55
(lp1641
g48
(g69
g50
NtRp1642
(dp1643
g53
(dp1644
g73
g74
ssg62
g1638
sg55
(lp1645
S'http_accept_charset'
p1646
asbag48
(g69
g50
NtRp1647
(dp1648
g53
(dp1649
g80
g81
ssg62
g1638
sg55
(lp1650
S':'
asbag48
(g69
g50
NtRp1651
(dp1652
g53
(dp1653
sg62
g1638
sg55
(lp1654
g48
(g49
g50
NtRp1655
(dp1656
g53
(dp1657
g61
I4
ssg62
g1651
sg55
(lp1658
S'ISO-8859-1,utf-8;q=0.7,*;q=0.7'
p1659
asbasbasbag48
(g64
g50
NtRp1660
(dp1661
g53
(dp1662
sg62
g1412
sg55
(lp1663
g48
(g69
g50
NtRp1664
(dp1665
g53
(dp1666
g73
g74
ssg62
g1660
sg55
(lp1667
S'http_accept_encoding'
p1668
asbag48
(g69
g50
NtRp1669
(dp1670
g53
(dp1671
g80
g81
ssg62
g1660
sg55
(lp1672
S':'
asbag48
(g69
g50
NtRp1673
(dp1674
g53
(dp1675
sg62
g1660
sg55
(lp1676
g48
(g49
g50
NtRp1677
(dp1678
g53
(dp1679
g61
I4
ssg62
g1673
sg55
(lp1680
S'gzip, deflate'
p1681
asbasbasbag48
(g64
g50
NtRp1682
(dp1683
g53
(dp1684
sg62
g1412
sg55
(lp1685
g48
(g69
g50
NtRp1686
(dp1687
g53
(dp1688
g73
g74
ssg62
g1682
sg55
(lp1689
S'http_accept_language'
p1690
asbag48
(g69
g50
NtRp1691
(dp1692
g53
(dp1693
g80
g81
ssg62
g1682
sg55
(lp1694
S':'
asbag48
(g69
g50
NtRp1695
(dp1696
g53
(dp1697
sg62
g1682
sg55
(lp1698
g48
(g49
g50
NtRp1699
(dp1700
g53
(dp1701
g61
I4
ssg62
g1695
sg55
(lp1702
S'es-es,es;q=0.8,en-us;q=0.5,en;q=0.3'
p1703
asbasbasbag48
(g64
g50
NtRp1704
(dp1705
g53
(dp1706
sg62
g1412
sg55
(lp1707
g48
(g69
g50
NtRp1708
(dp1709
g53
(dp1710
g73
g74
ssg62
g1704
sg55
(lp1711
S'http_cache_control'
p1712
asbag48
(g69
g50
NtRp1713
(dp1714
g53
(dp1715
g80
g81
ssg62
g1704
sg55
(lp1716
S':'
asbag48
(g69
g50
NtRp1717
(dp1718
g53
(dp1719
sg62
g1704
sg55
(lp1720
g48
(g49
g50
NtRp1721
(dp1722
g53
(dp1723
g61
I4
ssg62
g1717
sg55
(lp1724
S'max-age=0'
p1725
asbasbasbag48
(g64
g50
NtRp1726
(dp1727
g53
(dp1728
sg62
g1412
sg55
(lp1729
g48
(g69
g50
NtRp1730
(dp1731
g53
(dp1732
g73
g74
ssg62
g1726
sg55
(lp1733
S'http_connection'
p1734
asbag48
(g69
g50
NtRp1735
(dp1736
g53
(dp1737
g80
g81
ssg62
g1726
sg55
(lp1738
S':'
asbag48
(g69
g50
NtRp1739
(dp1740
g53
(dp1741
sg62
g1726
sg55
(lp1742
g48
(g49
g50
NtRp1743
(dp1744
g53
(dp1745
g61
I4
ssg62
g1739
sg55
(lp1746
S'keep-alive'
p1747
asbasbasbag48
(g64
g50
NtRp1748
(dp1749
g53
(dp1750
sg62
g1412
sg55
(lp1751
g48
(g69
g50
NtRp1752
(dp1753
g53
(dp1754
g73
g74
ssg62
g1748
sg55
(lp1755
S'http_content_length'
p1756
asbag48
(g69
g50
NtRp1757
(dp1758
g53
(dp1759
g80
g81
ssg62
g1748
sg55
(lp1760
S':'
asbag48
(g69
g50
NtRp1761
(dp1762
g53
(dp1763
sg62
g1748
sg55
(lp1764
g48
(g49
g50
NtRp1765
(dp1766
g53
(dp1767
g61
I4
ssg62
g1761
sg55
(lp1768
g1528
asbasbasbag48
(g64
g50
NtRp1769
(dp1770
g53
(dp1771
sg62
g1412
sg55
(lp1772
g48
(g69
g50
NtRp1773
(dp1774
g53
(dp1775
g73
g74
ssg62
g1769
sg55
(lp1776
S'http_content_type'
p1777
asbag48
(g69
g50
NtRp1778
(dp1779
g53
(dp1780
g80
g81
ssg62
g1769
sg55
(lp1781
S':'
asbag48
(g69
g50
NtRp1782
(dp1783
g53
(dp1784
sg62
g1769
sg55
(lp1785
g48
(g49
g50
NtRp1786
(dp1787
g53
(dp1788
g61
I4
ssg62
g1782
sg55
(lp1789
g1550
asbasbasbag48
(g64
g50
NtRp1790
(dp1791
g53
(dp1792
sg62
g1412
sg55
(lp1793
g48
(g69
g50
NtRp1794
(dp1795
g53
(dp1796
g73
g74
ssg62
g1790
sg55
(lp1797
S'http_cookie'
p1798
asbag48
(g69
g50
NtRp1799
(dp1800
g53
(dp1801
g80
g81
ssg62
g1790
sg55
(lp1802
S':'
asbag48
(g69
g50
NtRp1803
(dp1804
g53
(dp1805
sg62
g1790
sg55
(lp1806
g48
(g49
g50
NtRp1807
(dp1808
g53
(dp1809
g61
I4
ssg62
g1803
sg55
(lp1810
S'session_id_welcome=127.0.0.1-082a2830-9bb6-4bfb-b2e2-4857b06c191e; session_id_admin=127.0.0.1-a96e0cfe-5117-4d37-8e25-f7dd128ab504; session_id_listado_1=127.0.0.1-477ec098-5436-4f6e-bfee-1a0bd88f6f9e; session_id_desglosar_emails=127.0.0.1-0a11b3b2-660c-433c-b71f-fc129286f26c; session_id_hemoal=127.0.0.1-442afb36-a73d-4692-979c-372017ada9e5; session_id_myappjav=127.0.0.1-b6da3776-a7b2-40a7-ab82-4eca2d3263a1; session_id_cual_es_tu_nombre=127.0.0.1-5e59e375-704d-4241-8b9c-5fd9f8c15773'
p1811
asbasbasbag48
(g64
g50
NtRp1812
(dp1813
g53
(dp1814
sg62
g1412
sg55
(lp1815
g48
(g69
g50
NtRp1816
(dp1817
g53
(dp1818
g73
g74
ssg62
g1812
sg55
(lp1819
S'http_host'
p1820
asbag48
(g69
g50
NtRp1821
(dp1822
g53
(dp1823
g80
g81
ssg62
g1812
sg55
(lp1824
S':'
asbag48
(g69
g50
NtRp1825
(dp1826
g53
(dp1827
sg62
g1812
sg55
(lp1828
g48
(g49
g50
NtRp1829
(dp1830
g53
(dp1831
g61
I4
ssg62
g1825
sg55
(lp1832
S'127.0.0.1:8000'
p1833
asbasbasbag48
(g64
g50
NtRp1834
(dp1835
g53
(dp1836
sg62
g1412
sg55
(lp1837
g48
(g69
g50
NtRp1838
(dp1839
g53
(dp1840
g73
g74
ssg62
g1834
sg55
(lp1841
S'http_referer'
p1842
asbag48
(g69
g50
NtRp1843
(dp1844
g53
(dp1845
g80
g81
ssg62
g1834
sg55
(lp1846
S':'
asbag48
(g69
g50
NtRp1847
(dp1848
g53
(dp1849
sg62
g1834
sg55
(lp1850
g48
(g49
g50
NtRp1851
(dp1852
g53
(dp1853
g61
I4
ssg62
g1847
sg55
(lp1854
S'http://127.0.0.1:8000/Desglosar_Emails/default/entrada_mod2'
p1855
asbasbasbag48
(g64
g50
NtRp1856
(dp1857
g53
(dp1858
sg62
g1412
sg55
(lp1859
g48
(g69
g50
NtRp1860
(dp1861
g53
(dp1862
g73
g74
ssg62
g1856
sg55
(lp1863
S'http_user_agent'
p1864
asbag48
(g69
g50
NtRp1865
(dp1866
g53
(dp1867
g80
g81
ssg62
g1856
sg55
(lp1868
S':'
asbag48
(g69
g50
NtRp1869
(dp1870
g53
(dp1871
sg62
g1856
sg55
(lp1872
g48
(g49
g50
NtRp1873
(dp1874
g53
(dp1875
g61
I4
ssg62
g1869
sg55
(lp1876
S'Mozilla/5.0 (Windows NT 6.1; WOW64; rv:6.0.2) Gecko/20100101 Firefox/6.0.2'
p1877
asbasbasbag48
(g64
g50
NtRp1878
(dp1879
g53
(dp1880
sg62
g1412
sg55
(lp1881
g48
(g69
g50
NtRp1882
(dp1883
g53
(dp1884
g73
g74
ssg62
g1878
sg55
(lp1885
S'is_jython'
p1886
asbag48
(g69
g50
NtRp1887
(dp1888
g53
(dp1889
g80
g81
ssg62
g1878
sg55
(lp1890
S':'
asbag48
(g69
g50
NtRp1891
(dp1892
g53
(dp1893
sg62
g1878
sg55
(lp1894
g48
(g49
g50
NtRp1895
(dp1896
g53
(dp1897
g61
I4
ssg62
g1891
sg55
(lp1898
g91
asbasbasbag48
(g64
g50
NtRp1899
(dp1900
g53
(dp1901
sg62
g1412
sg55
(lp1902
g48
(g69
g50
NtRp1903
(dp1904
g53
(dp1905
g73
g74
ssg62
g1899
sg55
(lp1906
S'path_info'
p1907
asbag48
(g69
g50
NtRp1908
(dp1909
g53
(dp1910
g80
g81
ssg62
g1899
sg55
(lp1911
S':'
asbag48
(g69
g50
NtRp1912
(dp1913
g53
(dp1914
sg62
g1899
sg55
(lp1915
g48
(g49
g50
NtRp1916
(dp1917
g53
(dp1918
g61
I4
ssg62
g1912
sg55
(lp1919
S'/Desglosar_Emails/default/entrada_mod2'
p1920
asbasbasbag48
(g64
g50
NtRp1921
(dp1922
g53
(dp1923
sg62
g1412
sg55
(lp1924
g48
(g69
g50
NtRp1925
(dp1926
g53
(dp1927
g73
g74
ssg62
g1921
sg55
(lp1928
S'query_string'
p1929
asbag48
(g69
g50
NtRp1930
(dp1931
g53
(dp1932
g80
g81
ssg62
g1921
sg55
(lp1933
S':'
asbag48
(g69
g50
NtRp1934
(dp1935
g53
(dp1936
sg62
g1921
sg55
(lp1937
g48
(g49
g50
NtRp1938
(dp1939
g53
(dp1940
g61
I4
ssg62
g1934
sg55
(lp1941
S''
asbasbasbag48
(g64
g50
NtRp1942
(dp1943
g53
(dp1944
sg62
g1412
sg55
(lp1945
g48
(g69
g50
NtRp1946
(dp1947
g53
(dp1948
g73
g74
ssg62
g1942
sg55
(lp1949
S'remote_addr'
p1950
asbag48
(g69
g50
NtRp1951
(dp1952
g53
(dp1953
g80
g81
ssg62
g1942
sg55
(lp1954
S':'
asbag48
(g69
g50
NtRp1955
(dp1956
g53
(dp1957
sg62
g1942
sg55
(lp1958
g48
(g49
g50
NtRp1959
(dp1960
g53
(dp1961
g61
I4
ssg62
g1955
sg55
(lp1962
g181
asbasbasbag48
(g64
g50
NtRp1963
(dp1964
g53
(dp1965
sg62
g1412
sg55
(lp1966
g48
(g69
g50
NtRp1967
(dp1968
g53
(dp1969
g73
g74
ssg62
g1963
sg55
(lp1970
S'remote_port'
p1971
asbag48
(g69
g50
NtRp1972
(dp1973
g53
(dp1974
g80
g81
ssg62
g1963
sg55
(lp1975
S':'
asbag48
(g69
g50
NtRp1976
(dp1977
g53
(dp1978
sg62
g1963
sg55
(lp1979
g48
(g49
g50
NtRp1980
(dp1981
g53
(dp1982
g61
I4
ssg62
g1976
sg55
(lp1983
S'55887'
p1984
asbasbasbag48
(g64
g50
NtRp1985
(dp1986
g53
(dp1987
sg62
g1412
sg55
(lp1988
g48
(g69
g50
NtRp1989
(dp1990
g53
(dp1991
g73
g74
ssg62
g1985
sg55
(lp1992
S'request_method'
p1993
asbag48
(g69
g50
NtRp1994
(dp1995
g53
(dp1996
g80
g81
ssg62
g1985
sg55
(lp1997
S':'
asbag48
(g69
g50
NtRp1998
(dp1999
g53
(dp2000
sg62
g1985
sg55
(lp2001
g48
(g49
g50
NtRp2002
(dp2003
g53
(dp2004
g61
I4
ssg62
g1998
sg55
(lp2005
S'POST'
p2006
asbasbasbag48
(g64
g50
NtRp2007
(dp2008
g53
(dp2009
sg62
g1412
sg55
(lp2010
g48
(g69
g50
NtRp2011
(dp2012
g53
(dp2013
g73
g74
ssg62
g2007
sg55
(lp2014
S'script_name'
p2015
asbag48
(g69
g50
NtRp2016
(dp2017
g53
(dp2018
g80
g81
ssg62
g2007
sg55
(lp2019
S':'
asbag48
(g69
g50
NtRp2020
(dp2021
g53
(dp2022
sg62
g2007
sg55
(lp2023
g48
(g49
g50
NtRp2024
(dp2025
g53
(dp2026
g61
I4
ssg62
g2020
sg55
(lp2027
S''
asbasbasbag48
(g64
g50
NtRp2028
(dp2029
g53
(dp2030
sg62
g1412
sg55
(lp2031
g48
(g69
g50
NtRp2032
(dp2033
g53
(dp2034
g73
g74
ssg62
g2028
sg55
(lp2035
S'server_name'
p2036
asbag48
(g69
g50
NtRp2037
(dp2038
g53
(dp2039
g80
g81
ssg62
g2028
sg55
(lp2040
S':'
asbag48
(g69
g50
NtRp2041
(dp2042
g53
(dp2043
sg62
g2028
sg55
(lp2044
g48
(g49
g50
NtRp2045
(dp2046
g53
(dp2047
g61
I4
ssg62
g2041
sg55
(lp2048
S'Swing'
p2049
asbasbasbag48
(g64
g50
NtRp2050
(dp2051
g53
(dp2052
sg62
g1412
sg55
(lp2053
g48
(g69
g50
NtRp2054
(dp2055
g53
(dp2056
g73
g74
ssg62
g2050
sg55
(lp2057
S'server_port'
p2058
asbag48
(g69
g50
NtRp2059
(dp2060
g53
(dp2061
g80
g81
ssg62
g2050
sg55
(lp2062
S':'
asbag48
(g69
g50
NtRp2063
(dp2064
g53
(dp2065
sg62
g2050
sg55
(lp2066
g48
(g49
g50
NtRp2067
(dp2068
g53
(dp2069
g61
I4
ssg62
g2063
sg55
(lp2070
S'8000'
p2071
asbasbasbag48
(g64
g50
NtRp2072
(dp2073
g53
(dp2074
sg62
g1412
sg55
(lp2075
g48
(g69
g50
NtRp2076
(dp2077
g53
(dp2078
g73
g74
ssg62
g2072
sg55
(lp2079
S'server_protocol'
p2080
asbag48
(g69
g50
NtRp2081
(dp2082
g53
(dp2083
g80
g81
ssg62
g2072
sg55
(lp2084
S':'
asbag48
(g69
g50
NtRp2085
(dp2086
g53
(dp2087
sg62
g2072
sg55
(lp2088
g48
(g49
g50
NtRp2089
(dp2090
g53
(dp2091
g61
I4
ssg62
g2085
sg55
(lp2092
S'HTTP/1.1'
p2093
asbasbasbag48
(g64
g50
NtRp2094
(dp2095
g53
(dp2096
sg62
g1412
sg55
(lp2097
g48
(g69
g50
NtRp2098
(dp2099
g53
(dp2100
g73
g74
ssg62
g2094
sg55
(lp2101
S'server_software'
p2102
asbag48
(g69
g50
NtRp2103
(dp2104
g53
(dp2105
g80
g81
ssg62
g2094
sg55
(lp2106
S':'
asbag48
(g69
g50
NtRp2107
(dp2108
g53
(dp2109
sg62
g2094
sg55
(lp2110
g48
(g49
g50
NtRp2111
(dp2112
g53
(dp2113
g61
I4
ssg62
g2107
sg55
(lp2114
S'Rocket 1.2.2'
p2115
asbasbasbag48
(g64
g50
NtRp2116
(dp2117
g53
(dp2118
sg62
g1412
sg55
(lp2119
g48
(g69
g50
NtRp2120
(dp2121
g53
(dp2122
g73
g74
ssg62
g2116
sg55
(lp2123
S'web2py_crontype'
p2124
asbag48
(g69
g50
NtRp2125
(dp2126
g53
(dp2127
g80
g81
ssg62
g2116
sg55
(lp2128
S':'
asbag48
(g69
g50
NtRp2129
(dp2130
g53
(dp2131
sg62
g2116
sg55
(lp2132
g48
(g49
g50
NtRp2133
(dp2134
g53
(dp2135
g61
I4
ssg62
g2129
sg55
(lp2136
S'hard'
p2137
asbasbasbag48
(g64
g50
NtRp2138
(dp2139
g53
(dp2140
sg62
g1412
sg55
(lp2141
g48
(g69
g50
NtRp2142
(dp2143
g53
(dp2144
g73
g74
ssg62
g2138
sg55
(lp2145
S'web2py_path'
p2146
asbag48
(g69
g50
NtRp2147
(dp2148
g53
(dp2149
g80
g81
ssg62
g2138
sg55
(lp2150
S':'
asbag48
(g69
g50
NtRp2151
(dp2152
g53
(dp2153
sg62
g2138
sg55
(lp2154
g48
(g49
g50
NtRp2155
(dp2156
g53
(dp2157
g61
I4
ssg62
g2151
sg55
(lp2158
g1459
asbasbasbag48
(g64
g50
NtRp2159
(dp2160
g53
(dp2161
sg62
g1412
sg55
(lp2162
g48
(g69
g50
NtRp2163
(dp2164
g53
(dp2165
g73
g74
ssg62
g2159
sg55
(lp2166
S'web2py_version'
p2167
asbag48
(g69
g50
NtRp2168
(dp2169
g53
(dp2170
g80
g81
ssg62
g2159
sg55
(lp2171
S':'
asbag48
(g69
g50
NtRp2172
(dp2173
g53
(dp2174
sg62
g2159
sg55
(lp2175
g48
(g49
g50
NtRp2176
(dp2177
g53
(dp2178
g61
I4
ssg62
g2172
sg55
(lp2179
S'Version 1.98.2 (2011-08-04 00:47:09)\n'
p2180
asbasbasbag48
(g64
g50
NtRp2181
(dp2182
g53
(dp2183
sg62
g1412
sg55
(lp2184
g48
(g69
g50
NtRp2185
(dp2186
g53
(dp2187
g73
g74
ssg62
g2181
sg55
(lp2188
S'wsgi_errors'
p2189
asbag48
(g69
g50
NtRp2190
(dp2191
g53
(dp2192
g80
g81
ssg62
g2181
sg55
(lp2193
S':'
asbag48
(g69
g50
NtRp2194
(dp2195
g53
(dp2196
sg62
g2181
sg55
(lp2197
g48
(g49
g50
NtRp2198
(dp2199
g53
(dp2200
g61
I4
ssg62
g2194
sg55
(lp2201
S"<open file '<stderr>', mode 'w' at 0x003100B0>"
p2202
asbasbasbag48
(g64
g50
NtRp2203
(dp2204
g53
(dp2205
sg62
g1412
sg55
(lp2206
g48
(g69
g50
NtRp2207
(dp2208
g53
(dp2209
g73
g74
ssg62
g2203
sg55
(lp2210
S'wsgi_file_wrapper'
p2211
asbag48
(g69
g50
NtRp2212
(dp2213
g53
(dp2214
g80
g81
ssg62
g2203
sg55
(lp2215
S':'
asbag48
(g69
g50
NtRp2216
(dp2217
g53
(dp2218
sg62
g2203
sg55
(lp2219
g48
(g49
g50
NtRp2220
(dp2221
g53
(dp2222
g61
I4
ssg62
g2216
sg55
(lp2223
S'<class gluon.rocket.FileWrapper at 0x02FFC1B0>'
p2224
asbasbasbag48
(g64
g50
NtRp2225
(dp2226
g53
(dp2227
sg62
g1412
sg55
(lp2228
g48
(g69
g50
NtRp2229
(dp2230
g53
(dp2231
g73
g74
ssg62
g2225
sg55
(lp2232
S'wsgi_input'
p2233
asbag48
(g69
g50
NtRp2234
(dp2235
g53
(dp2236
g80
g81
ssg62
g2225
sg55
(lp2237
S':'
asbag48
(g69
g50
NtRp2238
(dp2239
g53
(dp2240
sg62
g2225
sg55
(lp2241
g48
(g49
g50
NtRp2242
(dp2243
g53
(dp2244
g61
I4
ssg62
g2238
sg55
(lp2245
S'<socket._fileobject object at 0x087F6030>'
p2246
asbasbasbag48
(g64
g50
NtRp2247
(dp2248
g53
(dp2249
sg62
g1412
sg55
(lp2250
g48
(g69
g50
NtRp2251
(dp2252
g53
(dp2253
g73
g74
ssg62
g2247
sg55
(lp2254
S'wsgi_multiprocess'
p2255
asbag48
(g69
g50
NtRp2256
(dp2257
g53
(dp2258
g80
g81
ssg62
g2247
sg55
(lp2259
S':'
asbag48
(g69
g50
NtRp2260
(dp2261
g53
(dp2262
sg62
g2247
sg55
(lp2263
g48
(g49
g50
NtRp2264
(dp2265
g53
(dp2266
g61
I4
ssg62
g2260
sg55
(lp2267
g91
asbasbasbag48
(g64
g50
NtRp2268
(dp2269
g53
(dp2270
sg62
g1412
sg55
(lp2271
g48
(g69
g50
NtRp2272
(dp2273
g53
(dp2274
g73
g74
ssg62
g2268
sg55
(lp2275
S'wsgi_multithread'
p2276
asbag48
(g69
g50
NtRp2277
(dp2278
g53
(dp2279
g80
g81
ssg62
g2268
sg55
(lp2280
S':'
asbag48
(g69
g50
NtRp2281
(dp2282
g53
(dp2283
sg62
g2268
sg55
(lp2284
g48
(g49
g50
NtRp2285
(dp2286
g53
(dp2287
g61
I4
ssg62
g2281
sg55
(lp2288
S'True'
p2289
asbasbasbag48
(g64
g50
NtRp2290
(dp2291
g53
(dp2292
sg62
g1412
sg55
(lp2293
g48
(g69
g50
NtRp2294
(dp2295
g53
(dp2296
g73
g74
ssg62
g2290
sg55
(lp2297
S'wsgi_run_once'
p2298
asbag48
(g69
g50
NtRp2299
(dp2300
g53
(dp2301
g80
g81
ssg62
g2290
sg55
(lp2302
S':'
asbag48
(g69
g50
NtRp2303
(dp2304
g53
(dp2305
sg62
g2290
sg55
(lp2306
g48
(g49
g50
NtRp2307
(dp2308
g53
(dp2309
g61
I4
ssg62
g2303
sg55
(lp2310
g91
asbasbasbag48
(g64
g50
NtRp2311
(dp2312
g53
(dp2313
sg62
g1412
sg55
(lp2314
g48
(g69
g50
NtRp2315
(dp2316
g53
(dp2317
g73
g74
ssg62
g2311
sg55
(lp2318
S'wsgi_url_scheme'
p2319
asbag48
(g69
g50
NtRp2320
(dp2321
g53
(dp2322
g80
g81
ssg62
g2311
sg55
(lp2323
S':'
asbag48
(g69
g50
NtRp2324
(dp2325
g53
(dp2326
sg62
g2311
sg55
(lp2327
g48
(g49
g50
NtRp2328
(dp2329
g53
(dp2330
g61
I4
ssg62
g2324
sg55
(lp2331
S'http'
p2332
asbasbasbag48
(g64
g50
NtRp2333
(dp2334
g53
(dp2335
sg62
g1412
sg55
(lp2336
g48
(g69
g50
NtRp2337
(dp2338
g53
(dp2339
g73
g74
ssg62
g2333
sg55
(lp2340
S'wsgi_version'
p2341
asbag48
(g69
g50
NtRp2342
(dp2343
g53
(dp2344
g80
g81
ssg62
g2333
sg55
(lp2345
S':'
asbag48
(g69
g50
NtRp2346
(dp2347
g53
(dp2348
sg62
g2333
sg55
(lp2349
g48
(g49
g50
NtRp2350
(dp2351
g53
(dp2352
g61
I4
ssg62
g2346
sg55
(lp2353
g48
(g57
g50
NtRp2354
(dp2355
g53
(dp2356
g61
I3
ssg62
Nsg55
(lp2357
g48
(g64
g50
NtRp2358
(dp2359
g53
(dp2360
sg62
g2354
sg55
(lp2361
g48
(g69
g50
NtRp2362
(dp2363
g53
(dp2364
sg62
g2358
sg55
(lp2365
g48
(g49
g50
NtRp2366
(dp2367
g53
(dp2368
g61
I3
ssg62
g2362
sg55
(lp2369
S'1'
asbasbasbag48
(g64
g50
NtRp2370
(dp2371
g53
(dp2372
sg62
g2354
sg55
(lp2373
g48
(g69
g50
NtRp2374
(dp2375
g53
(dp2376
sg62
g2370
sg55
(lp2377
g48
(g49
g50
NtRp2378
(dp2379
g53
(dp2380
g61
I3
ssg62
g2374
sg55
(lp2381
S'0'
asbasbasbasbasbasbasbasbasbasbasbag48
(g64
g50
NtRp2382
(dp2383
g53
(dp2384
sg62
g58
sg55
(lp2385
g48
(g69
g50
NtRp2386
(dp2387
g53
(dp2388
g73
g74
ssg62
g2382
sg55
(lp2389
S'extension'
p2390
asbag48
(g69
g50
NtRp2391
(dp2392
g53
(dp2393
g80
g81
ssg62
g2382
sg55
(lp2394
S':'
asbag48
(g69
g50
NtRp2395
(dp2396
g53
(dp2397
sg62
g2382
sg55
(lp2398
g48
(g49
g50
NtRp2399
(dp2400
g53
(dp2401
g61
I5
ssg62
g2395
sg55
(lp2402
S'html'
p2403
asbasbasbag48
(g64
g50
NtRp2404
(dp2405
g53
(dp2406
sg62
g58
sg55
(lp2407
g48
(g69
g50
NtRp2408
(dp2409
g53
(dp2410
g73
g74
ssg62
g2404
sg55
(lp2411
S'folder'
p2412
asbag48
(g69
g50
NtRp2413
(dp2414
g53
(dp2415
g80
g81
ssg62
g2404
sg55
(lp2416
S':'
asbag48
(g69
g50
NtRp2417
(dp2418
g53
(dp2419
sg62
g2404
sg55
(lp2420
g48
(g49
g50
NtRp2421
(dp2422
g53
(dp2423
g61
I5
ssg62
g2417
sg55
(lp2424
S'C:\\Users\\Atomico\\web2py\\applications\\Desglosar_Emails\\'
p2425
asbasbasbag48
(g64
g50
NtRp2426
(dp2427
g53
(dp2428
sg62
g58
sg55
(lp2429
g48
(g69
g50
NtRp2430
(dp2431
g53
(dp2432
g73
g74
ssg62
g2426
sg55
(lp2433
S'function'
p2434
asbag48
(g69
g50
NtRp2435
(dp2436
g53
(dp2437
g80
g81
ssg62
g2426
sg55
(lp2438
S':'
asbag48
(g69
g50
NtRp2439
(dp2440
g53
(dp2441
sg62
g2426
sg55
(lp2442
g48
(g49
g50
NtRp2443
(dp2444
g53
(dp2445
g61
I5
ssg62
g2439
sg55
(lp2446
S'entrada_mod2'
p2447
asbasbasbag48
(g64
g50
NtRp2448
(dp2449
g53
(dp2450
sg62
g58
sg55
(lp2451
g48
(g69
g50
NtRp2452
(dp2453
g53
(dp2454
g73
g74
ssg62
g2448
sg55
(lp2455
S'get_vars'
p2456
asbag48
(g69
g50
NtRp2457
(dp2458
g53
(dp2459
g80
g81
ssg62
g2448
sg55
(lp2460
S':'
asbag48
(g69
g50
NtRp2461
(dp2462
g53
(dp2463
sg62
g2448
sg55
(lp2464
g48
(g49
g50
NtRp2465
(dp2466
g53
(dp2467
g61
I5
ssg62
g2461
sg55
(lp2468
g48
(g57
g50
NtRp2469
(dp2470
g53
(dp2471
g61
I4
ssg62
Nsg55
(lp2472
sbasbasbasbag48
(g64
g50
NtRp2473
(dp2474
g53
(dp2475
sg62
g58
sg55
(lp2476
g48
(g69
g50
NtRp2477
(dp2478
g53
(dp2479
g73
g74
ssg62
g2473
sg55
(lp2480
S'is_https'
p2481
asbag48
(g69
g50
NtRp2482
(dp2483
g53
(dp2484
g80
g81
ssg62
g2473
sg55
(lp2485
S':'
asbag48
(g69
g50
NtRp2486
(dp2487
g53
(dp2488
sg62
g2473
sg55
(lp2489
g48
(g49
g50
NtRp2490
(dp2491
g53
(dp2492
g61
I5
ssg62
g2486
sg55
(lp2493
g91
asbasbasbag48
(g64
g50
NtRp2494
(dp2495
g53
(dp2496
sg62
g58
sg55
(lp2497
g48
(g69
g50
NtRp2498
(dp2499
g53
(dp2500
g73
g74
ssg62
g2494
sg55
(lp2501
S'is_local'
p2502
asbag48
(g69
g50
NtRp2503
(dp2504
g53
(dp2505
g80
g81
ssg62
g2494
sg55
(lp2506
S':'
asbag48
(g69
g50
NtRp2507
(dp2508
g53
(dp2509
sg62
g2494
sg55
(lp2510
g48
(g49
g50
NtRp2511
(dp2512
g53
(dp2513
g61
I5
ssg62
g2507
sg55
(lp2514
g2289
asbasbasbag48
(g64
g50
NtRp2515
(dp2516
g53
(dp2517
sg62
g58
sg55
(lp2518
g48
(g69
g50
NtRp2519
(dp2520
g53
(dp2521
g73
g74
ssg62
g2515
sg55
(lp2522
S'is_restful'
p2523
asbag48
(g69
g50
NtRp2524
(dp2525
g53
(dp2526
g80
g81
ssg62
g2515
sg55
(lp2527
S':'
asbag48
(g69
g50
NtRp2528
(dp2529
g53
(dp2530
sg62
g2515
sg55
(lp2531
g48
(g49
g50
NtRp2532
(dp2533
g53
(dp2534
g61
I5
ssg62
g2528
sg55
(lp2535
g91
asbasbasbag48
(g64
g50
NtRp2536
(dp2537
g53
(dp2538
sg62
g58
sg55
(lp2539
g48
(g69
g50
NtRp2540
(dp2541
g53
(dp2542
g73
g74
ssg62
g2536
sg55
(lp2543
S'now'
p2544
asbag48
(g69
g50
NtRp2545
(dp2546
g53
(dp2547
g80
g81
ssg62
g2536
sg55
(lp2548
S':'
asbag48
(g69
g50
NtRp2549
(dp2550
g53
(dp2551
sg62
g2536
sg55
(lp2552
g48
(g49
g50
NtRp2553
(dp2554
g53
(dp2555
g61
I5
ssg62
g2549
sg55
(lp2556
S'datetime.datetime(2011, 9, 19, 11, 50, 33, 411000)'
p2557
asbasbasbag48
(g64
g50
NtRp2558
(dp2559
g53
(dp2560
sg62
g58
sg55
(lp2561
g48
(g69
g50
NtRp2562
(dp2563
g53
(dp2564
g73
g74
ssg62
g2558
sg55
(lp2565
S'post_vars'
p2566
asbag48
(g69
g50
NtRp2567
(dp2568
g53
(dp2569
g80
g81
ssg62
g2558
sg55
(lp2570
S':'
asbag48
(g69
g50
NtRp2571
(dp2572
g53
(dp2573
sg62
g2558
sg55
(lp2574
g48
(g49
g50
NtRp2575
(dp2576
g53
(dp2577
g61
I5
ssg62
g2571
sg55
(lp2578
g48
(g57
g50
NtRp2579
(dp2580
g53
(dp2581
g61
I4
ssg62
Nsg55
(lp2582
g48
(g64
g50
NtRp2583
(dp2584
g53
(dp2585
sg62
g2579
sg55
(lp2586
g48
(g69
g50
NtRp2587
(dp2588
g53
(dp2589
g73
g74
ssg62
g2583
sg55
(lp2590
S'amo'
p2591
asbag48
(g69
g50
NtRp2592
(dp2593
g53
(dp2594
g80
g81
ssg62
g2583
sg55
(lp2595
S':'
asbag48
(g69
g50
NtRp2596
(dp2597
g53
(dp2598
sg62
g2583
sg55
(lp2599
g48
(g49
g50
NtRp2600
(dp2601
g53
(dp2602
g61
I4
ssg62
g2596
sg55
(lp2603
S'19'
p2604
asbasbasbag48
(g64
g50
NtRp2605
(dp2606
g53
(dp2607
sg62
g2579
sg55
(lp2608
g48
(g69
g50
NtRp2609
(dp2610
g53
(dp2611
g73
g74
ssg62
g2605
sg55
(lp2612
S'nacimiento'
p2613
asbag48
(g69
g50
NtRp2614
(dp2615
g53
(dp2616
g80
g81
ssg62
g2605
sg55
(lp2617
S':'
asbag48
(g69
g50
NtRp2618
(dp2619
g53
(dp2620
sg62
g2605
sg55
(lp2621
g48
(g49
g50
NtRp2622
(dp2623
g53
(dp2624
g61
I4
ssg62
g2618
sg55
(lp2625
S''
asbasbasbag48
(g64
g50
NtRp2626
(dp2627
g53
(dp2628
sg62
g2579
sg55
(lp2629
g48
(g69
g50
NtRp2630
(dp2631
g53
(dp2632
g73
g74
ssg62
g2626
sg55
(lp2633
S'nombre'
p2634
asbag48
(g69
g50
NtRp2635
(dp2636
g53
(dp2637
g80
g81
ssg62
g2626
sg55
(lp2638
S':'
asbag48
(g69
g50
NtRp2639
(dp2640
g53
(dp2641
sg62
g2626
sg55
(lp2642
g48
(g49
g50
NtRp2643
(dp2644
g53
(dp2645
g61
I4
ssg62
g2639
sg55
(lp2646
S'bes'
p2647
asbasbasbasbasbasbasbag48
(g64
g50
NtRp2648
(dp2649
g53
(dp2650
sg62
g58
sg55
(lp2651
g48
(g69
g50
NtRp2652
(dp2653
g53
(dp2654
g73
g74
ssg62
g2648
sg55
(lp2655
S'url'
p2656
asbag48
(g69
g50
NtRp2657
(dp2658
g53
(dp2659
g80
g81
ssg62
g2648
sg55
(lp2660
S':'
asbag48
(g69
g50
NtRp2661
(dp2662
g53
(dp2663
sg62
g2648
sg55
(lp2664
g48
(g49
g50
NtRp2665
(dp2666
g53
(dp2667
g61
I5
ssg62
g2661
sg55
(lp2668
S'/Desglosar_Emails/default/entrada_mod2'
p2669
asbasbasbag48
(g64
g50
NtRp2670
(dp2671
g53
(dp2672
sg62
g58
sg55
(lp2673
g48
(g69
g50
NtRp2674
(dp2675
g53
(dp2676
g73
g74
ssg62
g2670
sg55
(lp2677
S'uuid'
p2678
asbag48
(g69
g50
NtRp2679
(dp2680
g53
(dp2681
g80
g81
ssg62
g2670
sg55
(lp2682
S':'
asbag48
(g69
g50
NtRp2683
(dp2684
g53
(dp2685
sg62
g2670
sg55
(lp2686
g48
(g49
g50
NtRp2687
(dp2688
g53
(dp2689
g61
I5
ssg62
g2683
sg55
(lp2690
S'Desglosar_Emails/127.0.0.1.2011-09-19.11-50-33.a8090448-a8d2-4ff9-909f-2c7a010e3ad5'
p2691
asbasbasbag48
(g64
g50
NtRp2692
(dp2693
g53
(dp2694
sg62
g58
sg55
(lp2695
g48
(g69
g50
NtRp2696
(dp2697
g53
(dp2698
g73
g74
ssg62
g2692
sg55
(lp2699
S'vars'
p2700
asbag48
(g69
g50
NtRp2701
(dp2702
g53
(dp2703
g80
g81
ssg62
g2692
sg55
(lp2704
S':'
asbag48
(g69
g50
NtRp2705
(dp2706
g53
(dp2707
sg62
g2692
sg55
(lp2708
g48
(g49
g50
NtRp2709
(dp2710
g53
(dp2711
g61
I5
ssg62
g2705
sg55
(lp2712
g48
(g57
g50
NtRp2713
(dp2714
g53
(dp2715
g61
I4
ssg62
Nsg55
(lp2716
g48
(g64
g50
NtRp2717
(dp2718
g53
(dp2719
sg62
g2713
sg55
(lp2720
g48
(g69
g50
NtRp2721
(dp2722
g53
(dp2723
g73
g74
ssg62
g2717
sg55
(lp2724
g2591
asbag48
(g69
g50
NtRp2725
(dp2726
g53
(dp2727
g80
g81
ssg62
g2717
sg55
(lp2728
S':'
asbag48
(g69
g50
NtRp2729
(dp2730
g53
(dp2731
sg62
g2717
sg55
(lp2732
g48
(g49
g50
NtRp2733
(dp2734
g53
(dp2735
g61
I4
ssg62
g2729
sg55
(lp2736
g2604
asbasbasbag48
(g64
g50
NtRp2737
(dp2738
g53
(dp2739
sg62
g2713
sg55
(lp2740
g48
(g69
g50
NtRp2741
(dp2742
g53
(dp2743
g73
g74
ssg62
g2737
sg55
(lp2744
g2613
asbag48
(g69
g50
NtRp2745
(dp2746
g53
(dp2747
g80
g81
ssg62
g2737
sg55
(lp2748
S':'
asbag48
(g69
g50
NtRp2749
(dp2750
g53
(dp2751
sg62
g2737
sg55
(lp2752
g48
(g49
g50
NtRp2753
(dp2754
g53
(dp2755
g61
I4
ssg62
g2749
sg55
(lp2756
S''
asbasbasbag48
(g64
g50
NtRp2757
(dp2758
g53
(dp2759
sg62
g2713
sg55
(lp2760
g48
(g69
g50
NtRp2761
(dp2762
g53
(dp2763
g73
g74
ssg62
g2757
sg55
(lp2764
g2634
asbag48
(g69
g50
NtRp2765
(dp2766
g53
(dp2767
g80
g81
ssg62
g2757
sg55
(lp2768
S':'
asbag48
(g69
g50
NtRp2769
(dp2770
g53
(dp2771
sg62
g2757
sg55
(lp2772
g48
(g49
g50
NtRp2773
(dp2774
g53
(dp2775
g61
I4
ssg62
g2769
sg55
(lp2776
g2647
asbasbasbasbasbasbasbag48
(g64
g50
NtRp2777
(dp2778
g53
(dp2779
sg62
g58
sg55
(lp2780
g48
(g69
g50
NtRp2781
(dp2782
g53
(dp2783
g73
g74
ssg62
g2777
sg55
(lp2784
S'wsgi'
p2785
asbag48
(g69
g50
NtRp2786
(dp2787
g53
(dp2788
g80
g81
ssg62
g2777
sg55
(lp2789
S':'
asbag48
(g69
g50
NtRp2790
(dp2791
g53
(dp2792
sg62
g2777
sg55
(lp2793
g48
(g49
g50
NtRp2794
(dp2795
g53
(dp2796
g61
I5
ssg62
g2790
sg55
(lp2797
g48
(g57
g50
NtRp2798
(dp2799
g53
(dp2800
g61
I4
ssg62
Nsg55
(lp2801
g48
(g64
g50
NtRp2802
(dp2803
g53
(dp2804
sg62
g2798
sg55
(lp2805
g48
(g69
g50
NtRp2806
(dp2807
g53
(dp2808
g73
g74
ssg62
g2802
sg55
(lp2809
S'environ'
p2810
asbag48
(g69
g50
NtRp2811
(dp2812
g53
(dp2813
g80
g81
ssg62
g2802
sg55
(lp2814
S':'
asbag48
(g69
g50
NtRp2815
(dp2816
g53
(dp2817
sg62
g2802
sg55
(lp2818
g48
(g49
g50
NtRp2819
(dp2820
g53
(dp2821
g61
I4
ssg62
g2815
sg55
(lp2822
g48
(g57
g50
NtRp2823
(dp2824
g53
(dp2825
g61
I3
ssg62
Nsg55
(lp2826
g48
(g64
g50
NtRp2827
(dp2828
g53
(dp2829
sg62
g2823
sg55
(lp2830
g48
(g69
g50
NtRp2831
(dp2832
g53
(dp2833
g73
g74
ssg62
g2827
sg55
(lp2834
S'CONTENT_LENGTH'
p2835
asbag48
(g69
g50
NtRp2836
(dp2837
g53
(dp2838
g80
g81
ssg62
g2827
sg55
(lp2839
S':'
asbag48
(g69
g50
NtRp2840
(dp2841
g53
(dp2842
sg62
g2827
sg55
(lp2843
g48
(g49
g50
NtRp2844
(dp2845
g53
(dp2846
g61
I3
ssg62
g2840
sg55
(lp2847
g1528
asbasbasbag48
(g64
g50
NtRp2848
(dp2849
g53
(dp2850
sg62
g2823
sg55
(lp2851
g48
(g69
g50
NtRp2852
(dp2853
g53
(dp2854
g73
g74
ssg62
g2848
sg55
(lp2855
S'CONTENT_TYPE'
p2856
asbag48
(g69
g50
NtRp2857
(dp2858
g53
(dp2859
g80
g81
ssg62
g2848
sg55
(lp2860
S':'
asbag48
(g69
g50
NtRp2861
(dp2862
g53
(dp2863
sg62
g2848
sg55
(lp2864
g48
(g49
g50
NtRp2865
(dp2866
g53
(dp2867
g61
I3
ssg62
g2861
sg55
(lp2868
g1550
asbasbasbag48
(g64
g50
NtRp2869
(dp2870
g53
(dp2871
sg62
g2823
sg55
(lp2872
g48
(g69
g50
NtRp2873
(dp2874
g53
(dp2875
g73
g74
ssg62
g2869
sg55
(lp2876
S'HTTP_ACCEPT'
p2877
asbag48
(g69
g50
NtRp2878
(dp2879
g53
(dp2880
g80
g81
ssg62
g2869
sg55
(lp2881
S':'
asbag48
(g69
g50
NtRp2882
(dp2883
g53
(dp2884
sg62
g2869
sg55
(lp2885
g48
(g49
g50
NtRp2886
(dp2887
g53
(dp2888
g61
I3
ssg62
g2882
sg55
(lp2889
g1637
asbasbasbag48
(g64
g50
NtRp2890
(dp2891
g53
(dp2892
sg62
g2823
sg55
(lp2893
g48
(g69
g50
NtRp2894
(dp2895
g53
(dp2896
g73
g74
ssg62
g2890
sg55
(lp2897
S'HTTP_ACCEPT_CHARSET'
p2898
asbag48
(g69
g50
NtRp2899
(dp2900
g53
(dp2901
g80
g81
ssg62
g2890
sg55
(lp2902
S':'
asbag48
(g69
g50
NtRp2903
(dp2904
g53
(dp2905
sg62
g2890
sg55
(lp2906
g48
(g49
g50
NtRp2907
(dp2908
g53
(dp2909
g61
I3
ssg62
g2903
sg55
(lp2910
g1659
asbasbasbag48
(g64
g50
NtRp2911
(dp2912
g53
(dp2913
sg62
g2823
sg55
(lp2914
g48
(g69
g50
NtRp2915
(dp2916
g53
(dp2917
g73
g74
ssg62
g2911
sg55
(lp2918
S'HTTP_ACCEPT_ENCODING'
p2919
asbag48
(g69
g50
NtRp2920
(dp2921
g53
(dp2922
g80
g81
ssg62
g2911
sg55
(lp2923
S':'
asbag48
(g69
g50
NtRp2924
(dp2925
g53
(dp2926
sg62
g2911
sg55
(lp2927
g48
(g49
g50
NtRp2928
(dp2929
g53
(dp2930
g61
I3
ssg62
g2924
sg55
(lp2931
g1681
asbasbasbag48
(g64
g50
NtRp2932
(dp2933
g53
(dp2934
sg62
g2823
sg55
(lp2935
g48
(g69
g50
NtRp2936
(dp2937
g53
(dp2938
g73
g74
ssg62
g2932
sg55
(lp2939
S'HTTP_ACCEPT_LANGUAGE'
p2940
asbag48
(g69
g50
NtRp2941
(dp2942
g53
(dp2943
g80
g81
ssg62
g2932
sg55
(lp2944
S':'
asbag48
(g69
g50
NtRp2945
(dp2946
g53
(dp2947
sg62
g2932
sg55
(lp2948
g48
(g49
g50
NtRp2949
(dp2950
g53
(dp2951
g61
I3
ssg62
g2945
sg55
(lp2952
g1703
asbasbasbag48
(g64
g50
NtRp2953
(dp2954
g53
(dp2955
sg62
g2823
sg55
(lp2956
g48
(g69
g50
NtRp2957
(dp2958
g53
(dp2959
g73
g74
ssg62
g2953
sg55
(lp2960
S'HTTP_CACHE_CONTROL'
p2961
asbag48
(g69
g50
NtRp2962
(dp2963
g53
(dp2964
g80
g81
ssg62
g2953
sg55
(lp2965
S':'
asbag48
(g69
g50
NtRp2966
(dp2967
g53
(dp2968
sg62
g2953
sg55
(lp2969
g48
(g49
g50
NtRp2970
(dp2971
g53
(dp2972
g61
I3
ssg62
g2966
sg55
(lp2973
g1725
asbasbasbag48
(g64
g50
NtRp2974
(dp2975
g53
(dp2976
sg62
g2823
sg55
(lp2977
g48
(g69
g50
NtRp2978
(dp2979
g53
(dp2980
g73
g74
ssg62
g2974
sg55
(lp2981
S'HTTP_CONNECTION'
p2982
asbag48
(g69
g50
NtRp2983
(dp2984
g53
(dp2985
g80
g81
ssg62
g2974
sg55
(lp2986
S':'
asbag48
(g69
g50
NtRp2987
(dp2988
g53
(dp2989
sg62
g2974
sg55
(lp2990
g48
(g49
g50
NtRp2991
(dp2992
g53
(dp2993
g61
I3
ssg62
g2987
sg55
(lp2994
g1747
asbasbasbag48
(g64
g50
NtRp2995
(dp2996
g53
(dp2997
sg62
g2823
sg55
(lp2998
g48
(g69
g50
NtRp2999
(dp3000
g53
(dp3001
g73
g74
ssg62
g2995
sg55
(lp3002
S'HTTP_CONTENT_LENGTH'
p3003
asbag48
(g69
g50
NtRp3004
(dp3005
g53
(dp3006
g80
g81
ssg62
g2995
sg55
(lp3007
S':'
asbag48
(g69
g50
NtRp3008
(dp3009
g53
(dp3010
sg62
g2995
sg55
(lp3011
g48
(g49
g50
NtRp3012
(dp3013
g53
(dp3014
g61
I3
ssg62
g3008
sg55
(lp3015
g1528
asbasbasbag48
(g64
g50
NtRp3016
(dp3017
g53
(dp3018
sg62
g2823
sg55
(lp3019
g48
(g69
g50
NtRp3020
(dp3021
g53
(dp3022
g73
g74
ssg62
g3016
sg55
(lp3023
S'HTTP_CONTENT_TYPE'
p3024
asbag48
(g69
g50
NtRp3025
(dp3026
g53
(dp3027
g80
g81
ssg62
g3016
sg55
(lp3028
S':'
asbag48
(g69
g50
NtRp3029
(dp3030
g53
(dp3031
sg62
g3016
sg55
(lp3032
g48
(g49
g50
NtRp3033
(dp3034
g53
(dp3035
g61
I3
ssg62
g3029
sg55
(lp3036
g1550
asbasbasbag48
(g64
g50
NtRp3037
(dp3038
g53
(dp3039
sg62
g2823
sg55
(lp3040
g48
(g69
g50
NtRp3041
(dp3042
g53
(dp3043
g73
g74
ssg62
g3037
sg55
(lp3044
S'HTTP_COOKIE'
p3045
asbag48
(g69
g50
NtRp3046
(dp3047
g53
(dp3048
g80
g81
ssg62
g3037
sg55
(lp3049
S':'
asbag48
(g69
g50
NtRp3050
(dp3051
g53
(dp3052
sg62
g3037
sg55
(lp3053
g48
(g49
g50
NtRp3054
(dp3055
g53
(dp3056
g61
I3
ssg62
g3050
sg55
(lp3057
g1811
asbasbasbag48
(g64
g50
NtRp3058
(dp3059
g53
(dp3060
sg62
g2823
sg55
(lp3061
g48
(g69
g50
NtRp3062
(dp3063
g53
(dp3064
g73
g74
ssg62
g3058
sg55
(lp3065
S'HTTP_HOST'
p3066
asbag48
(g69
g50
NtRp3067
(dp3068
g53
(dp3069
g80
g81
ssg62
g3058
sg55
(lp3070
S':'
asbag48
(g69
g50
NtRp3071
(dp3072
g53
(dp3073
sg62
g3058
sg55
(lp3074
g48
(g49
g50
NtRp3075
(dp3076
g53
(dp3077
g61
I3
ssg62
g3071
sg55
(lp3078
g1833
asbasbasbag48
(g64
g50
NtRp3079
(dp3080
g53
(dp3081
sg62
g2823
sg55
(lp3082
g48
(g69
g50
NtRp3083
(dp3084
g53
(dp3085
g73
g74
ssg62
g3079
sg55
(lp3086
S'HTTP_REFERER'
p3087
asbag48
(g69
g50
NtRp3088
(dp3089
g53
(dp3090
g80
g81
ssg62
g3079
sg55
(lp3091
S':'
asbag48
(g69
g50
NtRp3092
(dp3093
g53
(dp3094
sg62
g3079
sg55
(lp3095
g48
(g49
g50
NtRp3096
(dp3097
g53
(dp3098
g61
I3
ssg62
g3092
sg55
(lp3099
g1855
asbasbasbag48
(g64
g50
NtRp3100
(dp3101
g53
(dp3102
sg62
g2823
sg55
(lp3103
g48
(g69
g50
NtRp3104
(dp3105
g53
(dp3106
g73
g74
ssg62
g3100
sg55
(lp3107
S'HTTP_USER_AGENT'
p3108
asbag48
(g69
g50
NtRp3109
(dp3110
g53
(dp3111
g80
g81
ssg62
g3100
sg55
(lp3112
S':'
asbag48
(g69
g50
NtRp3113
(dp3114
g53
(dp3115
sg62
g3100
sg55
(lp3116
g48
(g49
g50
NtRp3117
(dp3118
g53
(dp3119
g61
I3
ssg62
g3113
sg55
(lp3120
g1877
asbasbasbag48
(g64
g50
NtRp3121
(dp3122
g53
(dp3123
sg62
g2823
sg55
(lp3124
g48
(g69
g50
NtRp3125
(dp3126
g53
(dp3127
g73
g74
ssg62
g3121
sg55
(lp3128
S'PATH_INFO'
p3129
asbag48
(g69
g50
NtRp3130
(dp3131
g53
(dp3132
g80
g81
ssg62
g3121
sg55
(lp3133
S':'
asbag48
(g69
g50
NtRp3134
(dp3135
g53
(dp3136
sg62
g3121
sg55
(lp3137
g48
(g49
g50
NtRp3138
(dp3139
g53
(dp3140
g61
I3
ssg62
g3134
sg55
(lp3141
g1920
asbasbasbag48
(g64
g50
NtRp3142
(dp3143
g53
(dp3144
sg62
g2823
sg55
(lp3145
g48
(g69
g50
NtRp3146
(dp3147
g53
(dp3148
g73
g74
ssg62
g3142
sg55
(lp3149
S'QUERY_STRING'
p3150
asbag48
(g69
g50
NtRp3151
(dp3152
g53
(dp3153
g80
g81
ssg62
g3142
sg55
(lp3154
S':'
asbag48
(g69
g50
NtRp3155
(dp3156
g53
(dp3157
sg62
g3142
sg55
(lp3158
g48
(g49
g50
NtRp3159
(dp3160
g53
(dp3161
g61
I3
ssg62
g3155
sg55
(lp3162
S''
asbasbasbag48
(g64
g50
NtRp3163
(dp3164
g53
(dp3165
sg62
g2823
sg55
(lp3166
g48
(g69
g50
NtRp3167
(dp3168
g53
(dp3169
g73
g74
ssg62
g3163
sg55
(lp3170
S'REMOTE_ADDR'
p3171
asbag48
(g69
g50
NtRp3172
(dp3173
g53
(dp3174
g80
g81
ssg62
g3163
sg55
(lp3175
S':'
asbag48
(g69
g50
NtRp3176
(dp3177
g53
(dp3178
sg62
g3163
sg55
(lp3179
g48
(g49
g50
NtRp3180
(dp3181
g53
(dp3182
g61
I3
ssg62
g3176
sg55
(lp3183
g181
asbasbasbag48
(g64
g50
NtRp3184
(dp3185
g53
(dp3186
sg62
g2823
sg55
(lp3187
g48
(g69
g50
NtRp3188
(dp3189
g53
(dp3190
g73
g74
ssg62
g3184
sg55
(lp3191
S'REMOTE_PORT'
p3192
asbag48
(g69
g50
NtRp3193
(dp3194
g53
(dp3195
g80
g81
ssg62
g3184
sg55
(lp3196
S':'
asbag48
(g69
g50
NtRp3197
(dp3198
g53
(dp3199
sg62
g3184
sg55
(lp3200
g48
(g49
g50
NtRp3201
(dp3202
g53
(dp3203
g61
I3
ssg62
g3197
sg55
(lp3204
g1984
asbasbasbag48
(g64
g50
NtRp3205
(dp3206
g53
(dp3207
sg62
g2823
sg55
(lp3208
g48
(g69
g50
NtRp3209
(dp3210
g53
(dp3211
g73
g74
ssg62
g3205
sg55
(lp3212
S'REQUEST_METHOD'
p3213
asbag48
(g69
g50
NtRp3214
(dp3215
g53
(dp3216
g80
g81
ssg62
g3205
sg55
(lp3217
S':'
asbag48
(g69
g50
NtRp3218
(dp3219
g53
(dp3220
sg62
g3205
sg55
(lp3221
g48
(g49
g50
NtRp3222
(dp3223
g53
(dp3224
g61
I3
ssg62
g3218
sg55
(lp3225
g2006
asbasbasbag48
(g64
g50
NtRp3226
(dp3227
g53
(dp3228
sg62
g2823
sg55
(lp3229
g48
(g69
g50
NtRp3230
(dp3231
g53
(dp3232
g73
g74
ssg62
g3226
sg55
(lp3233
S'SCRIPT_NAME'
p3234
asbag48
(g69
g50
NtRp3235
(dp3236
g53
(dp3237
g80
g81
ssg62
g3226
sg55
(lp3238
S':'
asbag48
(g69
g50
NtRp3239
(dp3240
g53
(dp3241
sg62
g3226
sg55
(lp3242
g48
(g49
g50
NtRp3243
(dp3244
g53
(dp3245
g61
I3
ssg62
g3239
sg55
(lp3246
S''
asbasbasbag48
(g64
g50
NtRp3247
(dp3248
g53
(dp3249
sg62
g2823
sg55
(lp3250
g48
(g69
g50
NtRp3251
(dp3252
g53
(dp3253
g73
g74
ssg62
g3247
sg55
(lp3254
S'SERVER_NAME'
p3255
asbag48
(g69
g50
NtRp3256
(dp3257
g53
(dp3258
g80
g81
ssg62
g3247
sg55
(lp3259
S':'
asbag48
(g69
g50
NtRp3260
(dp3261
g53
(dp3262
sg62
g3247
sg55
(lp3263
g48
(g49
g50
NtRp3264
(dp3265
g53
(dp3266
g61
I3
ssg62
g3260
sg55
(lp3267
g2049
asbasbasbag48
(g64
g50
NtRp3268
(dp3269
g53
(dp3270
sg62
g2823
sg55
(lp3271
g48
(g69
g50
NtRp3272
(dp3273
g53
(dp3274
g73
g74
ssg62
g3268
sg55
(lp3275
S'SERVER_PORT'
p3276
asbag48
(g69
g50
NtRp3277
(dp3278
g53
(dp3279
g80
g81
ssg62
g3268
sg55
(lp3280
S':'
asbag48
(g69
g50
NtRp3281
(dp3282
g53
(dp3283
sg62
g3268
sg55
(lp3284
g48
(g49
g50
NtRp3285
(dp3286
g53
(dp3287
g61
I3
ssg62
g3281
sg55
(lp3288
g2071
asbasbasbag48
(g64
g50
NtRp3289
(dp3290
g53
(dp3291
sg62
g2823
sg55
(lp3292
g48
(g69
g50
NtRp3293
(dp3294
g53
(dp3295
g73
g74
ssg62
g3289
sg55
(lp3296
S'SERVER_PROTOCOL'
p3297
asbag48
(g69
g50
NtRp3298
(dp3299
g53
(dp3300
g80
g81
ssg62
g3289
sg55
(lp3301
S':'
asbag48
(g69
g50
NtRp3302
(dp3303
g53
(dp3304
sg62
g3289
sg55
(lp3305
g48
(g49
g50
NtRp3306
(dp3307
g53
(dp3308
g61
I3
ssg62
g3302
sg55
(lp3309
g2093
asbasbasbag48
(g64
g50
NtRp3310
(dp3311
g53
(dp3312
sg62
g2823
sg55
(lp3313
g48
(g69
g50
NtRp3314
(dp3315
g53
(dp3316
g73
g74
ssg62
g3310
sg55
(lp3317
S'SERVER_SOFTWARE'
p3318
asbag48
(g69
g50
NtRp3319
(dp3320
g53
(dp3321
g80
g81
ssg62
g3310
sg55
(lp3322
S':'
asbag48
(g69
g50
NtRp3323
(dp3324
g53
(dp3325
sg62
g3310
sg55
(lp3326
g48
(g49
g50
NtRp3327
(dp3328
g53
(dp3329
g61
I3
ssg62
g3323
sg55
(lp3330
g2115
asbasbasbag48
(g64
g50
NtRp3331
(dp3332
g53
(dp3333
sg62
g2823
sg55
(lp3334
g48
(g69
g50
NtRp3335
(dp3336
g53
(dp3337
g73
g74
ssg62
g3331
sg55
(lp3338
S'wsgi.errors'
p3339
asbag48
(g69
g50
NtRp3340
(dp3341
g53
(dp3342
g80
g81
ssg62
g3331
sg55
(lp3343
S':'
asbag48
(g69
g50
NtRp3344
(dp3345
g53
(dp3346
sg62
g3331
sg55
(lp3347
g48
(g49
g50
NtRp3348
(dp3349
g53
(dp3350
g61
I3
ssg62
g3344
sg55
(lp3351
S"<open file '<stderr>', mode 'w' at 0x003100B0>"
p3352
asbasbasbag48
(g64
g50
NtRp3353
(dp3354
g53
(dp3355
sg62
g2823
sg55
(lp3356
g48
(g69
g50
NtRp3357
(dp3358
g53
(dp3359
g73
g74
ssg62
g3353
sg55
(lp3360
S'wsgi.file_wrapper'
p3361
asbag48
(g69
g50
NtRp3362
(dp3363
g53
(dp3364
g80
g81
ssg62
g3353
sg55
(lp3365
S':'
asbag48
(g69
g50
NtRp3366
(dp3367
g53
(dp3368
sg62
g3353
sg55
(lp3369
g48
(g49
g50
NtRp3370
(dp3371
g53
(dp3372
g61
I3
ssg62
g3366
sg55
(lp3373
S'<class gluon.rocket.FileWrapper at 0x02FFC1B0>'
p3374
asbasbasbag48
(g64
g50
NtRp3375
(dp3376
g53
(dp3377
sg62
g2823
sg55
(lp3378
g48
(g69
g50
NtRp3379
(dp3380
g53
(dp3381
g73
g74
ssg62
g3375
sg55
(lp3382
S'wsgi.input'
p3383
asbag48
(g69
g50
NtRp3384
(dp3385
g53
(dp3386
g80
g81
ssg62
g3375
sg55
(lp3387
S':'
asbag48
(g69
g50
NtRp3388
(dp3389
g53
(dp3390
sg62
g3375
sg55
(lp3391
g48
(g49
g50
NtRp3392
(dp3393
g53
(dp3394
g61
I3
ssg62
g3388
sg55
(lp3395
S"<open file '<fdopen>', mode 'w+b' at 0x07E7D968>"
p3396
asbasbasbag48
(g64
g50
NtRp3397
(dp3398
g53
(dp3399
sg62
g2823
sg55
(lp3400
g48
(g69
g50
NtRp3401
(dp3402
g53
(dp3403
g73
g74
ssg62
g3397
sg55
(lp3404
S'wsgi.multiprocess'
p3405
asbag48
(g69
g50
NtRp3406
(dp3407
g53
(dp3408
g80
g81
ssg62
g3397
sg55
(lp3409
S':'
asbag48
(g69
g50
NtRp3410
(dp3411
g53
(dp3412
sg62
g3397
sg55
(lp3413
g48
(g49
g50
NtRp3414
(dp3415
g53
(dp3416
g61
I3
ssg62
g3410
sg55
(lp3417
g91
asbasbasbag48
(g64
g50
NtRp3418
(dp3419
g53
(dp3420
sg62
g2823
sg55
(lp3421
g48
(g69
g50
NtRp3422
(dp3423
g53
(dp3424
g73
g74
ssg62
g3418
sg55
(lp3425
S'wsgi.multithread'
p3426
asbag48
(g69
g50
NtRp3427
(dp3428
g53
(dp3429
g80
g81
ssg62
g3418
sg55
(lp3430
S':'
asbag48
(g69
g50
NtRp3431
(dp3432
g53
(dp3433
sg62
g3418
sg55
(lp3434
g48
(g49
g50
NtRp3435
(dp3436
g53
(dp3437
g61
I3
ssg62
g3431
sg55
(lp3438
g2289
asbasbasbag48
(g64
g50
NtRp3439
(dp3440
g53
(dp3441
sg62
g2823
sg55
(lp3442
g48
(g69
g50
NtRp3443
(dp3444
g53
(dp3445
g73
g74
ssg62
g3439
sg55
(lp3446
S'wsgi.run_once'
p3447
asbag48
(g69
g50
NtRp3448
(dp3449
g53
(dp3450
g80
g81
ssg62
g3439
sg55
(lp3451
S':'
asbag48
(g69
g50
NtRp3452
(dp3453
g53
(dp3454
sg62
g3439
sg55
(lp3455
g48
(g49
g50
NtRp3456
(dp3457
g53
(dp3458
g61
I3
ssg62
g3452
sg55
(lp3459
g91
asbasbasbag48
(g64
g50
NtRp3460
(dp3461
g53
(dp3462
sg62
g2823
sg55
(lp3463
g48
(g69
g50
NtRp3464
(dp3465
g53
(dp3466
g73
g74
ssg62
g3460
sg55
(lp3467
S'wsgi.url_scheme'
p3468
asbag48
(g69
g50
NtRp3469
(dp3470
g53
(dp3471
g80
g81
ssg62
g3460
sg55
(lp3472
S':'
asbag48
(g69
g50
NtRp3473
(dp3474
g53
(dp3475
sg62
g3460
sg55
(lp3476
g48
(g49
g50
NtRp3477
(dp3478
g53
(dp3479
g61
I3
ssg62
g3473
sg55
(lp3480
g2332
asbasbasbag48
(g64
g50
NtRp3481
(dp3482
g53
(dp3483
sg62
g2823
sg55
(lp3484
g48
(g69
g50
NtRp3485
(dp3486
g53
(dp3487
g73
g74
ssg62
g3481
sg55
(lp3488
S'wsgi.version'
p3489
asbag48
(g69
g50
NtRp3490
(dp3491
g53
(dp3492
g80
g81
ssg62
g3481
sg55
(lp3493
S':'
asbag48
(g69
g50
NtRp3494
(dp3495
g53
(dp3496
sg62
g3481
sg55
(lp3497
g48
(g49
g50
NtRp3498
(dp3499
g53
(dp3500
g61
I3
ssg62
g3494
sg55
(lp3501
S'1'
asbasbasbasbasbasbasbasbasbasbasbasbasbsS'frames'
p3502
(lp3503
(dp3504
S'file'
p3505
S'C:\\Users\\Atomico\\web2py\\gluon\\restricted.py'
p3506
sS'dump'
p3507
(dp3508
sS'lnum'
p3509
I192
sS'lines'
p3510
(dp3511
sS'call'
p3512
S'(code=\'response.write(\\\'<!DOCTYPE html>\\\\n<html lang="\\\', ...t   -->    \\\\n  </body>\\\\n</html>\\\\n\\\', escape=False)\', environment={\'A\': <class \'gluon.html.A\'>, \'B\': <class \'gluon.html.B\'>, \'BEAUTIFY\': <class \'gluon.html.BEAUTIFY\'>, \'BODY\': <class \'gluon.html.BODY\'>, \'BR\': <class \'gluon.html.BR\'>, \'BUTTON\': <class \'gluon.html.BUTTON\'>, \'CAT\': <class \'gluon.html.CAT\'>, \'CENTER\': <class \'gluon.html.CENTER\'>, \'CLEANUP\': <class \'gluon.validators.CLEANUP\'>, \'CODE\': <class \'gluon.html.CODE\'>, ...}, layer=r\'C:\\Users\\Atomico\\web2py\\applications\\Desglosar_Emails\\views\\default/entrada_mod2.html\')'
p3513
sS'func'
p3514
S'restricted'
p3515
sa(dp3516
g3505
S'C:\\Users\\Atomico\\web2py\\applications\\Desglosar_Emails\\views\\default\\entrada_mod2.html'
p3517
sg3507
(dp3518
sg3509
I117
sg3510
(dp3519
I108
S'response.write(len(db().select(db.persona.ALL)))'
p3520
sI109
S"response.write('\\r\\n<br/>\\r\\nM\\xc3\\xa1s cosas: \\r\\n', escape=False)"
p3521
sI110
S'ultimo=db(db.persona.id==len(db().select(db.persona.ALL))).select()[0]'
p3522
sI111
S'response.write(ultimo.nombre)'
p3523
sI112
S"response.write('\\r\\n<br/>Aqu\\xc3\\xad el perro. \\r\\n', escape=False)"
p3524
sI113
S'persona_id=db(db.persona.id==2).select()[0]'
p3525
sI114
S"response.write('\\r\\n<br/>\\r\\n', escape=False)"
p3526
sI115
S'rows2=db().select(db.perro.ALL)'
p3527
sI116
S'response.write(rows2)'
p3528
sI117
S'response.write(len(db(db.perro.amo==db.persona.id).select()))'
p3529
sI118
S'conjuntillo=db(db.perro.amo==db.persona.id).select()'
p3530
sI119
S"response.write('\\r\\n<br/>\\r\\n', escape=False)"
p3531
sI120
S'response.write(conjuntillo)'
p3532
sI121
S"response.write('\\r\\n', escape=False)"
p3533
sI122
S"response.write('\\t\\n\\t  </div>\\n\\t  <!-- content -->\\n\\n\\t  ', escape=False)"
p3534
sI123
S'if right_sidebar_enabled:'
p3535
sI124
S'    response.write(\'\\n          <div id="right_sidebar" \', escape=False)'
p3536
sI125
S'    response.write(XML(right_sidebar_style))'
p3537
sI126
S'    response.write(\' >\\n            <div style="padding: 4px;">\\n              \', escape=False)'
p3538
sI127
S"    response.write('Content Right Sidebar', escape=False)"
p3539
ssg3512
S'()'
p3540
sg3514
S'<module>'
p3541
sa(dp3542
g3505
S'C:\\Users\\Atomico\\web2py\\gluon\\dal.py'
p3543
sg3507
(dp3544
sg3509
I4731
sg3510
(dp3545
sg3512
S"(self=<Table {'ALL': <gluon.dal.SQLALL object at 0x07B...>, 'id': <gluon.dal.Field object at 0x07B3C5D0>}>, key='amo')"
p3546
sg3514
S'__getattr__'
p3547
sa(dp3548
g3505
S'C:\\Users\\Atomico\\web2py\\gluon\\dal.py'
p3549
sg3507
(dp3550
sg3509
I4675
sg3510
(dp3551
sg3512
S"(self=<Table {'ALL': <gluon.dal.SQLALL object at 0x07B...>, 'id': <gluon.dal.Field object at 0x07B3C5D0>}>, key='amo')"
p3552
sg3514
g19
sasS'pyver'
p3553
S'Python 2.5.4: C:\\Users\\Atomico\\web2py\\web2py.exe'
p3554
sS'session'
p3555
g48
(g49
g50
NtRp3556
(dp3557
g53
(dp3558
sg55
(lp3559
g48
(g57
g50
NtRp3560
(dp3561
g53
(dp3562
g61
I5
ssg62
Nsg55
(lp3563
g48
(g64
g50
NtRp3564
(dp3565
g53
(dp3566
sg62
g3560
sg55
(lp3567
g48
(g69
g50
NtRp3568
(dp3569
g53
(dp3570
g73
g74
ssg62
g3564
sg55
(lp3571
S'last_query'
p3572
asbag48
(g69
g50
NtRp3573
(dp3574
g53
(dp3575
g80
g81
ssg62
g3564
sg55
(lp3576
S':'
asbag48
(g69
g50
NtRp3577
(dp3578
g53
(dp3579
sg62
g3564
sg55
(lp3580
g48
(g49
g50
NtRp3581
(dp3582
g53
(dp3583
g61
I5
ssg62
g3577
sg55
(lp3584
S'db.persona.id>0'
p3585
asbasbasbasbasbsS'etype'
p3586
S"<type 'exceptions.KeyError'>"
p3587
sS'date'
p3588
S'Mon Sep 19 11:50:33 2011'
p3589
sS'response'
p3590
g48
(g49
g50
NtRp3591
(dp3592
g53
(dp3593
sg55
(lp3594
g48
(g57
g50
NtRp3595
(dp3596
g53
(dp3597
g61
I5
ssg62
Nsg55
(lp3598
g48
(g64
g50
NtRp3599
(dp3600
g53
(dp3601
sg62
g3595
sg55
(lp3602
g48
(g69
g50
NtRp3603
(dp3604
g53
(dp3605
g73
g74
ssg62
g3599
sg55
(lp3606
g146
asbag48
(g69
g50
NtRp3607
(dp3608
g53
(dp3609
g80
g81
ssg62
g3599
sg55
(lp3610
S':'
asbag48
(g69
g50
NtRp3611
(dp3612
g53
(dp3613
sg62
g3599
sg55
(lp3614
g48
(g49
g50
NtRp3615
(dp3616
g53
(dp3617
g61
I5
ssg62
g3611
sg55
(lp3618
S'<cStringIO.StringO object at 0x0769FB40>'
p3619
asbasbasbag48
(g64
g50
NtRp3620
(dp3621
g53
(dp3622
sg62
g3595
sg55
(lp3623
g48
(g69
g50
NtRp3624
(dp3625
g53
(dp3626
g73
g74
ssg62
g3620
sg55
(lp3627
g212
asbag48
(g69
g50
NtRp3628
(dp3629
g53
(dp3630
g80
g81
ssg62
g3620
sg55
(lp3631
S':'
asbag48
(g69
g50
NtRp3632
(dp3633
g53
(dp3634
sg62
g3620
sg55
(lp3635
g48
(g49
g50
NtRp3636
(dp3637
g53
(dp3638
g61
I5
ssg62
g3632
sg55
(lp3639
g48
(g57
g50
NtRp3640
(dp3641
g53
(dp3642
g61
I4
ssg62
Nsg55
(lp3643
g48
(g64
g50
NtRp3644
(dp3645
g53
(dp3646
sg62
g3640
sg55
(lp3647
g48
(g69
g50
NtRp3648
(dp3649
g53
(dp3650
g73
g74
ssg62
g3644
sg55
(lp3651
S'session_id_desglosar_emails'
p3652
asbag48
(g69
g50
NtRp3653
(dp3654
g53
(dp3655
g80
g81
ssg62
g3644
sg55
(lp3656
S':'
asbag48
(g69
g50
NtRp3657
(dp3658
g53
(dp3659
sg62
g3644
sg55
(lp3660
g48
(g49
g50
NtRp3661
(dp3662
g53
(dp3663
g61
I4
ssg62
g3657
sg55
(lp3664
g48
(g57
g50
NtRp3665
(dp3666
g53
(dp3667
g61
I3
ssg62
Nsg55
(lp3668
g48
(g64
g50
NtRp3669
(dp3670
g53
(dp3671
sg62
g3665
sg55
(lp3672
g48
(g69
g50
NtRp3673
(dp3674
g53
(dp3675
g73
g74
ssg62
g3669
sg55
(lp3676
g262
asbag48
(g69
g50
NtRp3677
(dp3678
g53
(dp3679
g80
g81
ssg62
g3669
sg55
(lp3680
S':'
asbag48
(g69
g50
NtRp3681
(dp3682
g53
(dp3683
sg62
g3669
sg55
(lp3684
g48
(g49
g50
NtRp3685
(dp3686
g53
(dp3687
g61
I3
ssg62
g3681
sg55
(lp3688
S''
asbasbasbag48
(g64
g50
NtRp3689
(dp3690
g53
(dp3691
sg62
g3665
sg55
(lp3692
g48
(g69
g50
NtRp3693
(dp3694
g53
(dp3695
g73
g74
ssg62
g3689
sg55
(lp3696
g283
asbag48
(g69
g50
NtRp3697
(dp3698
g53
(dp3699
g80
g81
ssg62
g3689
sg55
(lp3700
S':'
asbag48
(g69
g50
NtRp3701
(dp3702
g53
(dp3703
sg62
g3689
sg55
(lp3704
g48
(g49
g50
NtRp3705
(dp3706
g53
(dp3707
g61
I3
ssg62
g3701
sg55
(lp3708
S''
asbasbasbag48
(g64
g50
NtRp3709
(dp3710
g53
(dp3711
sg62
g3665
sg55
(lp3712
g48
(g69
g50
NtRp3713
(dp3714
g53
(dp3715
g73
g74
ssg62
g3709
sg55
(lp3716
g304
asbag48
(g69
g50
NtRp3717
(dp3718
g53
(dp3719
g80
g81
ssg62
g3709
sg55
(lp3720
S':'
asbag48
(g69
g50
NtRp3721
(dp3722
g53
(dp3723
sg62
g3709
sg55
(lp3724
g48
(g49
g50
NtRp3725
(dp3726
g53
(dp3727
g61
I3
ssg62
g3721
sg55
(lp3728
S''
asbasbasbag48
(g64
g50
NtRp3729
(dp3730
g53
(dp3731
sg62
g3665
sg55
(lp3732
g48
(g69
g50
NtRp3733
(dp3734
g53
(dp3735
g73
g74
ssg62
g3729
sg55
(lp3736
g325
asbag48
(g69
g50
NtRp3737
(dp3738
g53
(dp3739
g80
g81
ssg62
g3729
sg55
(lp3740
S':'
asbag48
(g69
g50
NtRp3741
(dp3742
g53
(dp3743
sg62
g3729
sg55
(lp3744
g48
(g49
g50
NtRp3745
(dp3746
g53
(dp3747
g61
I3
ssg62
g3741
sg55
(lp3748
S''
asbasbasbag48
(g64
g50
NtRp3749
(dp3750
g53
(dp3751
sg62
g3665
sg55
(lp3752
g48
(g69
g50
NtRp3753
(dp3754
g53
(dp3755
g73
g74
ssg62
g3749
sg55
(lp3756
g346
asbag48
(g69
g50
NtRp3757
(dp3758
g53
(dp3759
g80
g81
ssg62
g3749
sg55
(lp3760
S':'
asbag48
(g69
g50
NtRp3761
(dp3762
g53
(dp3763
sg62
g3749
sg55
(lp3764
g48
(g49
g50
NtRp3765
(dp3766
g53
(dp3767
g61
I3
ssg62
g3761
sg55
(lp3768
S'/'
asbasbasbag48
(g64
g50
NtRp3769
(dp3770
g53
(dp3771
sg62
g3665
sg55
(lp3772
g48
(g69
g50
NtRp3773
(dp3774
g53
(dp3775
g73
g74
ssg62
g3769
sg55
(lp3776
g367
asbag48
(g69
g50
NtRp3777
(dp3778
g53
(dp3779
g80
g81
ssg62
g3769
sg55
(lp3780
S':'
asbag48
(g69
g50
NtRp3781
(dp3782
g53
(dp3783
sg62
g3769
sg55
(lp3784
g48
(g49
g50
NtRp3785
(dp3786
g53
(dp3787
g61
I3
ssg62
g3781
sg55
(lp3788
S''
asbasbasbag48
(g64
g50
NtRp3789
(dp3790
g53
(dp3791
sg62
g3665
sg55
(lp3792
g48
(g69
g50
NtRp3793
(dp3794
g53
(dp3795
g73
g74
ssg62
g3789
sg55
(lp3796
g388
asbag48
(g69
g50
NtRp3797
(dp3798
g53
(dp3799
g80
g81
ssg62
g3789
sg55
(lp3800
S':'
asbag48
(g69
g50
NtRp3801
(dp3802
g53
(dp3803
sg62
g3789
sg55
(lp3804
g48
(g49
g50
NtRp3805
(dp3806
g53
(dp3807
g61
I3
ssg62
g3801
sg55
(lp3808
S''
asbasbasbasbasbasbasbasbasbasbasbag48
(g64
g50
NtRp3809
(dp3810
g53
(dp3811
sg62
g3595
sg55
(lp3812
g48
(g69
g50
NtRp3813
(dp3814
g53
(dp3815
g73
g74
ssg62
g3809
sg55
(lp3816
S'files'
p3817
asbag48
(g69
g50
NtRp3818
(dp3819
g53
(dp3820
g80
g81
ssg62
g3809
sg55
(lp3821
S':'
asbag48
(g69
g50
NtRp3822
(dp3823
g53
(dp3824
sg62
g3809
sg55
(lp3825
g48
(g49
g50
NtRp3826
(dp3827
g53
(dp3828
g61
I5
ssg62
g3822
sg55
(lp3829
g48
(g57
g50
NtRp3830
(dp3831
g53
(dp3832
g61
I4
ssg62
Nsg55
(lp3833
g48
(g64
g50
NtRp3834
(dp3835
g53
(dp3836
sg62
g3830
sg55
(lp3837
g48
(g69
g50
NtRp3838
(dp3839
g53
(dp3840
sg62
g3834
sg55
(lp3841
g48
(g49
g50
NtRp3842
(dp3843
g53
(dp3844
g61
I4
ssg62
g3838
sg55
(lp3845
S'/Desglosar_Emails/static/js/jquery.js'
p3846
asbasbasbag48
(g64
g50
NtRp3847
(dp3848
g53
(dp3849
sg62
g3830
sg55
(lp3850
g48
(g69
g50
NtRp3851
(dp3852
g53
(dp3853
sg62
g3847
sg55
(lp3854
g48
(g49
g50
NtRp3855
(dp3856
g53
(dp3857
g61
I4
ssg62
g3851
sg55
(lp3858
S'/Desglosar_Emails/static/css/calendar.css'
p3859
asbasbasbag48
(g64
g50
NtRp3860
(dp3861
g53
(dp3862
sg62
g3830
sg55
(lp3863
g48
(g69
g50
NtRp3864
(dp3865
g53
(dp3866
sg62
g3860
sg55
(lp3867
g48
(g49
g50
NtRp3868
(dp3869
g53
(dp3870
g61
I4
ssg62
g3864
sg55
(lp3871
S'/Desglosar_Emails/static/js/calendar.js'
p3872
asbasbasbag48
(g64
g50
NtRp3873
(dp3874
g53
(dp3875
sg62
g3830
sg55
(lp3876
g48
(g69
g50
NtRp3877
(dp3878
g53
(dp3879
sg62
g3873
sg55
(lp3880
g48
(g49
g50
NtRp3881
(dp3882
g53
(dp3883
g61
I4
ssg62
g3877
sg55
(lp3884
S'/Desglosar_Emails/static/css/base.css'
p3885
asbasbasbag48
(g64
g50
NtRp3886
(dp3887
g53
(dp3888
sg62
g3830
sg55
(lp3889
g48
(g69
g50
NtRp3890
(dp3891
g53
(dp3892
sg62
g3886
sg55
(lp3893
g48
(g49
g50
NtRp3894
(dp3895
g53
(dp3896
g61
I4
ssg62
g3890
sg55
(lp3897
S'/Desglosar_Emails/static/css/superfish.css'
p3898
asbasbasbag48
(g64
g50
NtRp3899
(dp3900
g53
(dp3901
sg62
g3830
sg55
(lp3902
g48
(g69
g50
NtRp3903
(dp3904
g53
(dp3905
sg62
g3899
sg55
(lp3906
g48
(g49
g50
NtRp3907
(dp3908
g53
(dp3909
g61
I4
ssg62
g3903
sg55
(lp3910
S'/Desglosar_Emails/static/js/superfish.js'
p3911
asbasbasbasbasbasbasbag48
(g64
g50
NtRp3912
(dp3913
g53
(dp3914
sg62
g3595
sg55
(lp3915
g48
(g69
g50
NtRp3916
(dp3917
g53
(dp3918
g73
g74
ssg62
g3912
sg55
(lp3919
S'flash'
p3920
asbag48
(g69
g50
NtRp3921
(dp3922
g53
(dp3923
g80
g81
ssg62
g3912
sg55
(lp3924
S':'
asbag48
(g69
g50
NtRp3925
(dp3926
g53
(dp3927
sg62
g3912
sg55
(lp3928
g48
(g49
g50
NtRp3929
(dp3930
g53
(dp3931
g61
I5
ssg62
g3925
sg55
(lp3932
S''
asbasbasbag48
(g64
g50
NtRp3933
(dp3934
g53
(dp3935
sg62
g3595
sg55
(lp3936
g48
(g69
g50
NtRp3937
(dp3938
g53
(dp3939
g73
g74
ssg62
g3933
sg55
(lp3940
S'generic_patterns'
p3941
asbag48
(g69
g50
NtRp3942
(dp3943
g53
(dp3944
g80
g81
ssg62
g3933
sg55
(lp3945
S':'
asbag48
(g69
g50
NtRp3946
(dp3947
g53
(dp3948
sg62
g3933
sg55
(lp3949
g48
(g49
g50
NtRp3950
(dp3951
g53
(dp3952
g61
I5
ssg62
g3946
sg55
(lp3953
g48
(g57
g50
NtRp3954
(dp3955
g53
(dp3956
g61
I4
ssg62
Nsg55
(lp3957
sbasbasbasbag48
(g64
g50
NtRp3958
(dp3959
g53
(dp3960
sg62
g3595
sg55
(lp3961
g48
(g69
g50
NtRp3962
(dp3963
g53
(dp3964
g73
g74
ssg62
g3958
sg55
(lp3965
S'headers'
p3966
asbag48
(g69
g50
NtRp3967
(dp3968
g53
(dp3969
g80
g81
ssg62
g3958
sg55
(lp3970
S':'
asbag48
(g69
g50
NtRp3971
(dp3972
g53
(dp3973
sg62
g3958
sg55
(lp3974
g48
(g49
g50
NtRp3975
(dp3976
g53
(dp3977
g61
I5
ssg62
g3971
sg55
(lp3978
g48
(g57
g50
NtRp3979
(dp3980
g53
(dp3981
g61
I4
ssg62
Nsg55
(lp3982
g48
(g64
g50
NtRp3983
(dp3984
g53
(dp3985
sg62
g3979
sg55
(lp3986
g48
(g69
g50
NtRp3987
(dp3988
g53
(dp3989
g73
g74
ssg62
g3983
sg55
(lp3990
S'Cache-Control'
p3991
asbag48
(g69
g50
NtRp3992
(dp3993
g53
(dp3994
g80
g81
ssg62
g3983
sg55
(lp3995
S':'
asbag48
(g69
g50
NtRp3996
(dp3997
g53
(dp3998
sg62
g3983
sg55
(lp3999
g48
(g49
g50
NtRp4000
(dp4001
g53
(dp4002
g61
I4
ssg62
g3996
sg55
(lp4003
S'no-store, no-cache, must-revalidate, post-check=0, pre-check=0'
p4004
asbasbasbag48
(g64
g50
NtRp4005
(dp4006
g53
(dp4007
sg62
g3979
sg55
(lp4008
g48
(g69
g50
NtRp4009
(dp4010
g53
(dp4011
g73
g74
ssg62
g4005
sg55
(lp4012
S'Content-Type'
p4013
asbag48
(g69
g50
NtRp4014
(dp4015
g53
(dp4016
g80
g81
ssg62
g4005
sg55
(lp4017
S':'
asbag48
(g69
g50
NtRp4018
(dp4019
g53
(dp4020
sg62
g4005
sg55
(lp4021
g48
(g49
g50
NtRp4022
(dp4023
g53
(dp4024
g61
I4
ssg62
g4018
sg55
(lp4025
S'text/html; charset=utf-8'
p4026
asbasbasbag48
(g64
g50
NtRp4027
(dp4028
g53
(dp4029
sg62
g3979
sg55
(lp4030
g48
(g69
g50
NtRp4031
(dp4032
g53
(dp4033
g73
g74
ssg62
g4027
sg55
(lp4034
S'Expires'
p4035
asbag48
(g69
g50
NtRp4036
(dp4037
g53
(dp4038
g80
g81
ssg62
g4027
sg55
(lp4039
S':'
asbag48
(g69
g50
NtRp4040
(dp4041
g53
(dp4042
sg62
g4027
sg55
(lp4043
g48
(g49
g50
NtRp4044
(dp4045
g53
(dp4046
g61
I4
ssg62
g4040
sg55
(lp4047
S'Mon, 19 Sep 2011 09:50:33 GMT'
p4048
asbasbasbag48
(g64
g50
NtRp4049
(dp4050
g53
(dp4051
sg62
g3979
sg55
(lp4052
g48
(g69
g50
NtRp4053
(dp4054
g53
(dp4055
g73
g74
ssg62
g4049
sg55
(lp4056
S'Pragma'
p4057
asbag48
(g69
g50
NtRp4058
(dp4059
g53
(dp4060
g80
g81
ssg62
g4049
sg55
(lp4061
S':'
asbag48
(g69
g50
NtRp4062
(dp4063
g53
(dp4064
sg62
g4049
sg55
(lp4065
g48
(g49
g50
NtRp4066
(dp4067
g53
(dp4068
g61
I4
ssg62
g4062
sg55
(lp4069
S'no-cache'
p4070
asbasbasbag48
(g64
g50
NtRp4071
(dp4072
g53
(dp4073
sg62
g3979
sg55
(lp4074
g48
(g69
g50
NtRp4075
(dp4076
g53
(dp4077
g73
g74
ssg62
g4071
sg55
(lp4078
S'X-Powered-By'
p4079
asbag48
(g69
g50
NtRp4080
(dp4081
g53
(dp4082
g80
g81
ssg62
g4071
sg55
(lp4083
S':'
asbag48
(g69
g50
NtRp4084
(dp4085
g53
(dp4086
sg62
g4071
sg55
(lp4087
g48
(g49
g50
NtRp4088
(dp4089
g53
(dp4090
g61
I4
ssg62
g4084
sg55
(lp4091
S'web2py'
p4092
asbasbasbasbasbasbasbag48
(g64
g50
NtRp4093
(dp4094
g53
(dp4095
sg62
g3595
sg55
(lp4096
g48
(g69
g50
NtRp4097
(dp4098
g53
(dp4099
g73
g74
ssg62
g4093
sg55
(lp4100
S'menu'
p4101
asbag48
(g69
g50
NtRp4102
(dp4103
g53
(dp4104
g80
g81
ssg62
g4093
sg55
(lp4105
S':'
asbag48
(g69
g50
NtRp4106
(dp4107
g53
(dp4108
sg62
g4093
sg55
(lp4109
g48
(g49
g50
NtRp4110
(dp4111
g53
(dp4112
g61
I5
ssg62
g4106
sg55
(lp4113
g48
(g57
g50
NtRp4114
(dp4115
g53
(dp4116
g61
I4
ssg62
Nsg55
(lp4117
g48
(g64
g50
NtRp4118
(dp4119
g53
(dp4120
sg62
g4114
sg55
(lp4121
g48
(g69
g50
NtRp4122
(dp4123
g53
(dp4124
sg62
g4118
sg55
(lp4125
g48
(g49
g50
NtRp4126
(dp4127
g53
(dp4128
g61
I4
ssg62
g4122
sg55
(lp4129
g48
(g57
g50
NtRp4130
(dp4131
g53
(dp4132
g61
I3
ssg62
Nsg55
(lp4133
g48
(g64
g50
NtRp4134
(dp4135
g53
(dp4136
sg62
g4130
sg55
(lp4137
g48
(g69
g50
NtRp4138
(dp4139
g53
(dp4140
sg62
g4134
sg55
(lp4141
g48
(g49
g50
NtRp4142
(dp4143
g53
(dp4144
g61
I3
ssg62
g4138
sg55
(lp4145
cgluon.languages
lazyT_unpickle
p4146
(S't\x04\x00\x00\x00Home'
tRp4147
asbasbasbag48
(g64
g50
NtRp4148
(dp4149
g53
(dp4150
sg62
g4130
sg55
(lp4151
g48
(g69
g50
NtRp4152
(dp4153
g53
(dp4154
sg62
g4148
sg55
(lp4155
g48
(g49
g50
NtRp4156
(dp4157
g53
(dp4158
g61
I3
ssg62
g4152
sg55
(lp4159
g91
asbasbasbag48
(g64
g50
NtRp4160
(dp4161
g53
(dp4162
sg62
g4130
sg55
(lp4163
g48
(g69
g50
NtRp4164
(dp4165
g53
(dp4166
sg62
g4160
sg55
(lp4167
g48
(g49
g50
NtRp4168
(dp4169
g53
(dp4170
g61
I3
ssg62
g4164
sg55
(lp4171
S'/Desglosar_Emails/default/index'
p4172
asbasbasbag48
(g64
g50
NtRp4173
(dp4174
g53
(dp4175
sg62
g4130
sg55
(lp4176
g48
(g69
g50
NtRp4177
(dp4178
g53
(dp4179
sg62
g4173
sg55
(lp4180
g48
(g49
g50
NtRp4181
(dp4182
g53
(dp4183
g61
I3
ssg62
g4177
sg55
(lp4184
g48
(g57
g50
NtRp4185
(dp4186
g53
(dp4187
g61
I2
ssg62
Nsg55
(lp4188
sbasbasbasbasbasbasbasbag48
(g64
g50
NtRp4189
(dp4190
g53
(dp4191
sg62
g4114
sg55
(lp4192
g48
(g69
g50
NtRp4193
(dp4194
g53
(dp4195
sg62
g4189
sg55
(lp4196
g48
(g49
g50
NtRp4197
(dp4198
g53
(dp4199
g61
I4
ssg62
g4193
sg55
(lp4200
g48
(g57
g50
NtRp4201
(dp4202
g53
(dp4203
g61
I3
ssg62
Nsg55
(lp4204
g48
(g64
g50
NtRp4205
(dp4206
g53
(dp4207
sg62
g4201
sg55
(lp4208
g48
(g69
g50
NtRp4209
(dp4210
g53
(dp4211
sg62
g4205
sg55
(lp4212
g48
(g49
g50
NtRp4213
(dp4214
g53
(dp4215
g61
I3
ssg62
g4209
sg55
(lp4216
g4146
(S's\x08\x00\x00\x00This App'
tRp4217
asbasbasbag48
(g64
g50
NtRp4218
(dp4219
g53
(dp4220
sg62
g4201
sg55
(lp4221
g48
(g69
g50
NtRp4222
(dp4223
g53
(dp4224
sg62
g4218
sg55
(lp4225
g48
(g49
g50
NtRp4226
(dp4227
g53
(dp4228
g61
I3
ssg62
g4222
sg55
(lp4229
g91
asbasbasbag48
(g64
g50
NtRp4230
(dp4231
g53
(dp4232
sg62
g4201
sg55
(lp4233
g48
(g69
g50
NtRp4234
(dp4235
g53
(dp4236
sg62
g4230
sg55
(lp4237
g48
(g49
g50
NtRp4238
(dp4239
g53
(dp4240
g61
I3
ssg62
g4234
sg55
(lp4241
S'/admin/default/design/Desglosar_Emails'
p4242
asbasbasbag48
(g64
g50
NtRp4243
(dp4244
g53
(dp4245
sg62
g4201
sg55
(lp4246
g48
(g69
g50
NtRp4247
(dp4248
g53
(dp4249
sg62
g4243
sg55
(lp4250
g48
(g49
g50
NtRp4251
(dp4252
g53
(dp4253
g61
I3
ssg62
g4247
sg55
(lp4254
g48
(g57
g50
NtRp4255
(dp4256
g53
(dp4257
g61
I2
ssg62
Nsg55
(lp4258
g48
(g64
g50
NtRp4259
(dp4260
g53
(dp4261
sg62
g4255
sg55
(lp4262
g48
(g69
g50
NtRp4263
(dp4264
g53
(dp4265
sg62
g4259
sg55
(lp4266
g48
(g49
g50
NtRp4267
(dp4268
g53
(dp4269
g61
I2
ssg62
g4263
sg55
(lp4270
g48
(g57
g50
NtRp4271
(dp4272
g53
(dp4273
g61
I1
ssg62
Nsg55
(lp4274
g48
(g64
g50
NtRp4275
(dp4276
g53
(dp4277
sg62
g4271
sg55
(lp4278
g48
(g69
g50
NtRp4279
(dp4280
g53
(dp4281
sg62
g4275
sg55
(lp4282
g48
(g49
g50
NtRp4283
(dp4284
g53
(dp4285
g61
I1
ssg62
g4279
sg55
(lp4286
g4146
(S't\x0b\x00\x00\x00Controlador'
tRp4287
asbasbasbag48
(g64
g50
NtRp4288
(dp4289
g53
(dp4290
sg62
g4271
sg55
(lp4291
g48
(g69
g50
NtRp4292
(dp4293
g53
(dp4294
sg62
g4288
sg55
(lp4295
g48
(g49
g50
NtRp4296
(dp4297
g53
(dp4298
g61
I1
ssg62
g4292
sg55
(lp4299
I00
asbasbasbag48
(g64
g50
NtRp4300
(dp4301
g53
(dp4302
sg62
g4271
sg55
(lp4303
g48
(g69
g50
NtRp4304
(dp4305
g53
(dp4306
sg62
g4300
sg55
(lp4307
g48
(g49
g50
NtRp4308
(dp4309
g53
(dp4310
g61
I1
ssg62
g4304
sg55
(lp4311
S'/admin/default/edit/Desglosar_Emails/controllers/default.py'
p4312
asbasbasbasbasbasbasbag48
(g64
g50
NtRp4313
(dp4314
g53
(dp4315
sg62
g4255
sg55
(lp4316
g48
(g69
g50
NtRp4317
(dp4318
g53
(dp4319
sg62
g4313
sg55
(lp4320
g48
(g49
g50
NtRp4321
(dp4322
g53
(dp4323
g61
I2
ssg62
g4317
sg55
(lp4324
g48
(g57
g50
NtRp4325
(dp4326
g53
(dp4327
g61
I1
ssg62
Nsg55
(lp4328
g48
(g64
g50
NtRp4329
(dp4330
g53
(dp4331
sg62
g4325
sg55
(lp4332
g48
(g69
g50
NtRp4333
(dp4334
g53
(dp4335
sg62
g4329
sg55
(lp4336
g48
(g49
g50
NtRp4337
(dp4338
g53
(dp4339
g61
I1
ssg62
g4333
sg55
(lp4340
g4146
(S't\x05\x00\x00\x00Vista'
tRp4341
asbasbasbag48
(g64
g50
NtRp4342
(dp4343
g53
(dp4344
sg62
g4325
sg55
(lp4345
g48
(g69
g50
NtRp4346
(dp4347
g53
(dp4348
sg62
g4342
sg55
(lp4349
g48
(g49
g50
NtRp4350
(dp4351
g53
(dp4352
g61
I1
ssg62
g4346
sg55
(lp4353
I00
asbasbasbag48
(g64
g50
NtRp4354
(dp4355
g53
(dp4356
sg62
g4325
sg55
(lp4357
g48
(g69
g50
NtRp4358
(dp4359
g53
(dp4360
sg62
g4354
sg55
(lp4361
g48
(g49
g50
NtRp4362
(dp4363
g53
(dp4364
g61
I1
ssg62
g4358
sg55
(lp4365
S'/admin/default/edit/Desglosar_Emails/views/default/entrada_mod2.html'
p4366
asbasbasbasbasbasbasbag48
(g64
g50
NtRp4367
(dp4368
g53
(dp4369
sg62
g4255
sg55
(lp4370
g48
(g69
g50
NtRp4371
(dp4372
g53
(dp4373
sg62
g4367
sg55
(lp4374
g48
(g49
g50
NtRp4375
(dp4376
g53
(dp4377
g61
I2
ssg62
g4371
sg55
(lp4378
g48
(g57
g50
NtRp4379
(dp4380
g53
(dp4381
g61
I1
ssg62
Nsg55
(lp4382
g48
(g64
g50
NtRp4383
(dp4384
g53
(dp4385
sg62
g4379
sg55
(lp4386
g48
(g69
g50
NtRp4387
(dp4388
g53
(dp4389
sg62
g4383
sg55
(lp4390
g48
(g49
g50
NtRp4391
(dp4392
g53
(dp4393
g61
I1
ssg62
g4387
sg55
(lp4394
g4146
(S's\x12\x00\x00\x00Dise\xc3\xb1o de p\xc3\xa1gina'
tRp4395
asbasbasbag48
(g64
g50
NtRp4396
(dp4397
g53
(dp4398
sg62
g4379
sg55
(lp4399
g48
(g69
g50
NtRp4400
(dp4401
g53
(dp4402
sg62
g4396
sg55
(lp4403
g48
(g49
g50
NtRp4404
(dp4405
g53
(dp4406
g61
I1
ssg62
g4400
sg55
(lp4407
I00
asbasbasbag48
(g64
g50
NtRp4408
(dp4409
g53
(dp4410
sg62
g4379
sg55
(lp4411
g48
(g69
g50
NtRp4412
(dp4413
g53
(dp4414
sg62
g4408
sg55
(lp4415
g48
(g49
g50
NtRp4416
(dp4417
g53
(dp4418
g61
I1
ssg62
g4412
sg55
(lp4419
S'/admin/default/edit/Desglosar_Emails/views/layout.html'
p4420
asbasbasbasbasbasbasbag48
(g64
g50
NtRp4421
(dp4422
g53
(dp4423
sg62
g4255
sg55
(lp4424
g48
(g69
g50
NtRp4425
(dp4426
g53
(dp4427
sg62
g4421
sg55
(lp4428
g48
(g49
g50
NtRp4429
(dp4430
g53
(dp4431
g61
I2
ssg62
g4425
sg55
(lp4432
g48
(g57
g50
NtRp4433
(dp4434
g53
(dp4435
g61
I1
ssg62
Nsg55
(lp4436
g48
(g64
g50
NtRp4437
(dp4438
g53
(dp4439
sg62
g4433
sg55
(lp4440
g48
(g69
g50
NtRp4441
(dp4442
g53
(dp4443
sg62
g4437
sg55
(lp4444
g48
(g49
g50
NtRp4445
(dp4446
g53
(dp4447
g61
I1
ssg62
g4441
sg55
(lp4448
g4146
(S's\x0e\x00\x00\x00Hoja de estilo'
tRp4449
asbasbasbag48
(g64
g50
NtRp4450
(dp4451
g53
(dp4452
sg62
g4433
sg55
(lp4453
g48
(g69
g50
NtRp4454
(dp4455
g53
(dp4456
sg62
g4450
sg55
(lp4457
g48
(g49
g50
NtRp4458
(dp4459
g53
(dp4460
g61
I1
ssg62
g4454
sg55
(lp4461
I00
asbasbasbag48
(g64
g50
NtRp4462
(dp4463
g53
(dp4464
sg62
g4433
sg55
(lp4465
g48
(g69
g50
NtRp4466
(dp4467
g53
(dp4468
sg62
g4462
sg55
(lp4469
g48
(g49
g50
NtRp4470
(dp4471
g53
(dp4472
g61
I1
ssg62
g4466
sg55
(lp4473
S'/admin/default/edit/Desglosar_Emails/static/base.css'
p4474
asbasbasbasbasbasbasbag48
(g64
g50
NtRp4475
(dp4476
g53
(dp4477
sg62
g4255
sg55
(lp4478
g48
(g69
g50
NtRp4479
(dp4480
g53
(dp4481
sg62
g4475
sg55
(lp4482
g48
(g49
g50
NtRp4483
(dp4484
g53
(dp4485
g61
I2
ssg62
g4479
sg55
(lp4486
g48
(g57
g50
NtRp4487
(dp4488
g53
(dp4489
g61
I1
ssg62
Nsg55
(lp4490
g48
(g64
g50
NtRp4491
(dp4492
g53
(dp4493
sg62
g4487
sg55
(lp4494
g48
(g69
g50
NtRp4495
(dp4496
g53
(dp4497
sg62
g4491
sg55
(lp4498
g48
(g49
g50
NtRp4499
(dp4500
g53
(dp4501
g61
I1
ssg62
g4495
sg55
(lp4502
g4146
(S's\x0b\x00\x00\x00Modelo "db"'
tRp4503
asbasbasbag48
(g64
g50
NtRp4504
(dp4505
g53
(dp4506
sg62
g4487
sg55
(lp4507
g48
(g69
g50
NtRp4508
(dp4509
g53
(dp4510
sg62
g4504
sg55
(lp4511
g48
(g49
g50
NtRp4512
(dp4513
g53
(dp4514
g61
I1
ssg62
g4508
sg55
(lp4515
I00
asbasbasbag48
(g64
g50
NtRp4516
(dp4517
g53
(dp4518
sg62
g4487
sg55
(lp4519
g48
(g69
g50
NtRp4520
(dp4521
g53
(dp4522
sg62
g4516
sg55
(lp4523
g48
(g49
g50
NtRp4524
(dp4525
g53
(dp4526
g61
I1
ssg62
g4520
sg55
(lp4527
S'/admin/default/edit/Desglosar_Emails/models/db.py'
p4528
asbasbasbasbasbasbasbag48
(g64
g50
NtRp4529
(dp4530
g53
(dp4531
sg62
g4255
sg55
(lp4532
g48
(g69
g50
NtRp4533
(dp4534
g53
(dp4535
sg62
g4529
sg55
(lp4536
g48
(g49
g50
NtRp4537
(dp4538
g53
(dp4539
g61
I2
ssg62
g4533
sg55
(lp4540
g48
(g57
g50
NtRp4541
(dp4542
g53
(dp4543
g61
I1
ssg62
Nsg55
(lp4544
g48
(g64
g50
NtRp4545
(dp4546
g53
(dp4547
sg62
g4541
sg55
(lp4548
g48
(g69
g50
NtRp4549
(dp4550
g53
(dp4551
sg62
g4545
sg55
(lp4552
g48
(g49
g50
NtRp4553
(dp4554
g53
(dp4555
g61
I1
ssg62
g4549
sg55
(lp4556
g4146
(S's\r\x00\x00\x00Modelo "menu"'
tRp4557
asbasbasbag48
(g64
g50
NtRp4558
(dp4559
g53
(dp4560
sg62
g4541
sg55
(lp4561
g48
(g69
g50
NtRp4562
(dp4563
g53
(dp4564
sg62
g4558
sg55
(lp4565
g48
(g49
g50
NtRp4566
(dp4567
g53
(dp4568
g61
I1
ssg62
g4562
sg55
(lp4569
I00
asbasbasbag48
(g64
g50
NtRp4570
(dp4571
g53
(dp4572
sg62
g4541
sg55
(lp4573
g48
(g69
g50
NtRp4574
(dp4575
g53
(dp4576
sg62
g4570
sg55
(lp4577
g48
(g49
g50
NtRp4578
(dp4579
g53
(dp4580
g61
I1
ssg62
g4574
sg55
(lp4581
S'/admin/default/edit/Desglosar_Emails/models/menu.py'
p4582
asbasbasbasbasbasbasbag48
(g64
g50
NtRp4583
(dp4584
g53
(dp4585
sg62
g4255
sg55
(lp4586
g48
(g69
g50
NtRp4587
(dp4588
g53
(dp4589
sg62
g4583
sg55
(lp4590
g48
(g49
g50
NtRp4591
(dp4592
g53
(dp4593
g61
I2
ssg62
g4587
sg55
(lp4594
g48
(g57
g50
NtRp4595
(dp4596
g53
(dp4597
g61
I1
ssg62
Nsg55
(lp4598
g48
(g64
g50
NtRp4599
(dp4600
g53
(dp4601
sg62
g4595
sg55
(lp4602
g48
(g69
g50
NtRp4603
(dp4604
g53
(dp4605
sg62
g4599
sg55
(lp4606
g48
(g49
g50
NtRp4607
(dp4608
g53
(dp4609
g61
I1
ssg62
g4603
sg55
(lp4610
g4146
(S's\r\x00\x00\x00Base de datos'
tRp4611
asbasbasbag48
(g64
g50
NtRp4612
(dp4613
g53
(dp4614
sg62
g4595
sg55
(lp4615
g48
(g69
g50
NtRp4616
(dp4617
g53
(dp4618
sg62
g4612
sg55
(lp4619
g48
(g49
g50
NtRp4620
(dp4621
g53
(dp4622
g61
I1
ssg62
g4616
sg55
(lp4623
I00
asbasbasbag48
(g64
g50
NtRp4624
(dp4625
g53
(dp4626
sg62
g4595
sg55
(lp4627
g48
(g69
g50
NtRp4628
(dp4629
g53
(dp4630
sg62
g4624
sg55
(lp4631
g48
(g49
g50
NtRp4632
(dp4633
g53
(dp4634
g61
I1
ssg62
g4628
sg55
(lp4635
S'/Desglosar_Emails/appadmin/index'
p4636
asbasbasbasbasbasbasbag48
(g64
g50
NtRp4637
(dp4638
g53
(dp4639
sg62
g4255
sg55
(lp4640
g48
(g69
g50
NtRp4641
(dp4642
g53
(dp4643
sg62
g4637
sg55
(lp4644
g48
(g49
g50
NtRp4645
(dp4646
g53
(dp4647
g61
I2
ssg62
g4641
sg55
(lp4648
g48
(g57
g50
NtRp4649
(dp4650
g53
(dp4651
g61
I1
ssg62
Nsg55
(lp4652
g48
(g64
g50
NtRp4653
(dp4654
g53
(dp4655
sg62
g4649
sg55
(lp4656
g48
(g69
g50
NtRp4657
(dp4658
g53
(dp4659
sg62
g4653
sg55
(lp4660
g48
(g49
g50
NtRp4661
(dp4662
g53
(dp4663
g61
I1
ssg62
g4657
sg55
(lp4664
g4146
(S't\x06\x00\x00\x00Errors'
tRp4665
asbasbasbag48
(g64
g50
NtRp4666
(dp4667
g53
(dp4668
sg62
g4649
sg55
(lp4669
g48
(g69
g50
NtRp4670
(dp4671
g53
(dp4672
sg62
g4666
sg55
(lp4673
g48
(g49
g50
NtRp4674
(dp4675
g53
(dp4676
g61
I1
ssg62
g4670
sg55
(lp4677
I00
asbasbasbag48
(g64
g50
NtRp4678
(dp4679
g53
(dp4680
sg62
g4649
sg55
(lp4681
g48
(g69
g50
NtRp4682
(dp4683
g53
(dp4684
sg62
g4678
sg55
(lp4685
g48
(g49
g50
NtRp4686
(dp4687
g53
(dp4688
g61
I1
ssg62
g4682
sg55
(lp4689
S'/admin/default/errors/Desglosar_Emails'
p4690
asbasbasbasbasbasbasbag48
(g64
g50
NtRp4691
(dp4692
g53
(dp4693
sg62
g4255
sg55
(lp4694
g48
(g69
g50
NtRp4695
(dp4696
g53
(dp4697
sg62
g4691
sg55
(lp4698
g48
(g49
g50
NtRp4699
(dp4700
g53
(dp4701
g61
I2
ssg62
g4695
sg55
(lp4702
g48
(g57
g50
NtRp4703
(dp4704
g53
(dp4705
g61
I1
ssg62
Nsg55
(lp4706
g48
(g64
g50
NtRp4707
(dp4708
g53
(dp4709
sg62
g4703
sg55
(lp4710
g48
(g69
g50
NtRp4711
(dp4712
g53
(dp4713
sg62
g4707
sg55
(lp4714
g48
(g49
g50
NtRp4715
(dp4716
g53
(dp4717
g61
I1
ssg62
g4711
sg55
(lp4718
g4146
(S's\t\x00\x00\x00Acerca de'
tRp4719
asbasbasbag48
(g64
g50
NtRp4720
(dp4721
g53
(dp4722
sg62
g4703
sg55
(lp4723
g48
(g69
g50
NtRp4724
(dp4725
g53
(dp4726
sg62
g4720
sg55
(lp4727
g48
(g49
g50
NtRp4728
(dp4729
g53
(dp4730
g61
I1
ssg62
g4724
sg55
(lp4731
I00
asbasbasbag48
(g64
g50
NtRp4732
(dp4733
g53
(dp4734
sg62
g4703
sg55
(lp4735
g48
(g69
g50
NtRp4736
(dp4737
g53
(dp4738
sg62
g4732
sg55
(lp4739
g48
(g49
g50
NtRp4740
(dp4741
g53
(dp4742
g61
I1
ssg62
g4736
sg55
(lp4743
S'/admin/default/about/Desglosar_Emails'
p4744
asbasbasbasbasbasbasbasbasbasbasbasbasbasbasbag48
(g64
g50
NtRp4745
(dp4746
g53
(dp4747
sg62
g4114
sg55
(lp4748
g48
(g69
g50
NtRp4749
(dp4750
g53
(dp4751
sg62
g4745
sg55
(lp4752
g48
(g49
g50
NtRp4753
(dp4754
g53
(dp4755
g61
I4
ssg62
g4749
sg55
(lp4756
g48
(g57
g50
NtRp4757
(dp4758
g53
(dp4759
g61
I3
ssg62
Nsg55
(lp4760
g48
(g64
g50
NtRp4761
(dp4762
g53
(dp4763
sg62
g4757
sg55
(lp4764
g48
(g69
g50
NtRp4765
(dp4766
g53
(dp4767
sg62
g4761
sg55
(lp4768
g48
(g49
g50
NtRp4769
(dp4770
g53
(dp4771
g61
I3
ssg62
g4765
sg55
(lp4772
g4146
(S't\t\x00\x00\x00Resources'
tRp4773
asbasbasbag48
(g64
g50
NtRp4774
(dp4775
g53
(dp4776
sg62
g4757
sg55
(lp4777
g48
(g69
g50
NtRp4778
(dp4779
g53
(dp4780
sg62
g4774
sg55
(lp4781
g48
(g49
g50
NtRp4782
(dp4783
g53
(dp4784
g61
I3
ssg62
g4778
sg55
(lp4785
g91
asbasbasbag48
(g64
g50
NtRp4786
(dp4787
g53
(dp4788
sg62
g4757
sg55
(lp4789
g48
(g69
g50
NtRp4790
(dp4791
g53
(dp4792
sg62
g4786
sg55
(lp4793
g48
(g49
g50
NtRp4794
(dp4795
g53
(dp4796
g61
I3
ssg62
g4790
sg55
(lp4797
S'None'
p4798
asbasbasbag48
(g64
g50
NtRp4799
(dp4800
g53
(dp4801
sg62
g4757
sg55
(lp4802
g48
(g69
g50
NtRp4803
(dp4804
g53
(dp4805
sg62
g4799
sg55
(lp4806
g48
(g49
g50
NtRp4807
(dp4808
g53
(dp4809
g61
I3
ssg62
g4803
sg55
(lp4810
g48
(g57
g50
NtRp4811
(dp4812
g53
(dp4813
g61
I2
ssg62
Nsg55
(lp4814
g48
(g64
g50
NtRp4815
(dp4816
g53
(dp4817
sg62
g4811
sg55
(lp4818
g48
(g69
g50
NtRp4819
(dp4820
g53
(dp4821
sg62
g4815
sg55
(lp4822
g48
(g49
g50
NtRp4823
(dp4824
g53
(dp4825
g61
I2
ssg62
g4819
sg55
(lp4826
g48
(g57
g50
NtRp4827
(dp4828
g53
(dp4829
g61
I1
ssg62
Nsg55
(lp4830
g48
(g64
g50
NtRp4831
(dp4832
g53
(dp4833
sg62
g4827
sg55
(lp4834
g48
(g69
g50
NtRp4835
(dp4836
g53
(dp4837
sg62
g4831
sg55
(lp4838
g48
(g49
g50
NtRp4839
(dp4840
g53
(dp4841
g61
I1
ssg62
g4835
sg55
(lp4842
g4146
(S's\x0e\x00\x00\x00Documentaci\xc3\xb3n'
tRp4843
asbasbasbag48
(g64
g50
NtRp4844
(dp4845
g53
(dp4846
sg62
g4827
sg55
(lp4847
g48
(g69
g50
NtRp4848
(dp4849
g53
(dp4850
sg62
g4844
sg55
(lp4851
g48
(g49
g50
NtRp4852
(dp4853
g53
(dp4854
g61
I1
ssg62
g4848
sg55
(lp4855
I00
asbasbasbag48
(g64
g50
NtRp4856
(dp4857
g53
(dp4858
sg62
g4827
sg55
(lp4859
g48
(g69
g50
NtRp4860
(dp4861
g53
(dp4862
sg62
g4856
sg55
(lp4863
g48
(g49
g50
NtRp4864
(dp4865
g53
(dp4866
g61
I1
ssg62
g4860
sg55
(lp4867
S'http://www.web2py.com/book'
p4868
asbasbasbag48
(g64
g50
NtRp4869
(dp4870
g53
(dp4871
sg62
g4827
sg55
(lp4872
g48
(g69
g50
NtRp4873
(dp4874
g53
(dp4875
sg62
g4869
sg55
(lp4876
g48
(g49
g50
NtRp4877
(dp4878
g53
(dp4879
g61
I1
ssg62
g4873
sg55
(lp4880
(lp4881
(g4146
(S't\x07\x00\x00\x00Preface'
tRp4882
I00
S'http://www.web2py.com/book/default/chapter/00'
tp4883
a(g4146
(S't\x0c\x00\x00\x00Introduction'
tRp4884
I00
S'http://www.web2py.com/book/default/chapter/01'
tp4885
a(g4146
(S't\x06\x00\x00\x00Python'
tRp4886
I00
S'http://www.web2py.com/book/default/chapter/02'
tp4887
a(g4146
(S't\x08\x00\x00\x00Overview'
tRp4888
I00
S'http://www.web2py.com/book/default/chapter/03'
tp4889
a(g4146
(S's\x08\x00\x00\x00The Core'
tRp4890
I00
S'http://www.web2py.com/book/default/chapter/04'
tp4891
a(g4146
(S's\t\x00\x00\x00The Views'
tRp4892
I00
S'http://www.web2py.com/book/default/chapter/05'
tp4893
a(g4146
(S's\r\x00\x00\x00Base de datos'
tRp4894
I00
S'http://www.web2py.com/book/default/chapter/06'
tp4895
a(g4146
(S's\x14\x00\x00\x00Forms and Validators'
tRp4896
I00
S'http://www.web2py.com/book/default/chapter/07'
tp4897
a(g4146
(S's\x0e\x00\x00\x00Access Control'
tRp4898
I00
S'http://www.web2py.com/book/default/chapter/08'
tp4899
a(g4146
(S't\x08\x00\x00\x00Services'
tRp4900
I00
S'http://www.web2py.com/book/default/chapter/09'
tp4901
a(g4146
(S's\x0c\x00\x00\x00Ajax Recipes'
tRp4902
I00
S'http://www.web2py.com/book/default/chapter/10'
tp4903
a(g4146
(S's\x12\x00\x00\x00Deployment Recipes'
tRp4904
I00
S'http://www.web2py.com/book/default/chapter/11'
tp4905
a(g4146
(S's\r\x00\x00\x00Other Recipes'
tRp4906
I00
S'http://www.web2py.com/book/default/chapter/12'
tp4907
a(g4146
(S's\r\x00\x00\x00Buy this book'
tRp4908
I00
S'http://stores.lulu.com/web2py'
tp4909
aasbasbasbasbasbasbasbag48
(g64
g50
NtRp4910
(dp4911
g53
(dp4912
sg62
g4811
sg55
(lp4913
g48
(g69
g50
NtRp4914
(dp4915
g53
(dp4916
sg62
g4910
sg55
(lp4917
g48
(g49
g50
NtRp4918
(dp4919
g53
(dp4920
g61
I2
ssg62
g4914
sg55
(lp4921
g48
(g57
g50
NtRp4922
(dp4923
g53
(dp4924
g61
I1
ssg62
Nsg55
(lp4925
g48
(g64
g50
NtRp4926
(dp4927
g53
(dp4928
sg62
g4922
sg55
(lp4929
g48
(g69
g50
NtRp4930
(dp4931
g53
(dp4932
sg62
g4926
sg55
(lp4933
g48
(g49
g50
NtRp4934
(dp4935
g53
(dp4936
g61
I1
ssg62
g4930
sg55
(lp4937
g4146
(S't\t\x00\x00\x00Community'
tRp4938
asbasbasbag48
(g64
g50
NtRp4939
(dp4940
g53
(dp4941
sg62
g4922
sg55
(lp4942
g48
(g69
g50
NtRp4943
(dp4944
g53
(dp4945
sg62
g4939
sg55
(lp4946
g48
(g49
g50
NtRp4947
(dp4948
g53
(dp4949
g61
I1
ssg62
g4943
sg55
(lp4950
I00
asbasbasbag48
(g64
g50
NtRp4951
(dp4952
g53
(dp4953
sg62
g4922
sg55
(lp4954
g48
(g69
g50
NtRp4955
(dp4956
g53
(dp4957
sg62
g4951
sg55
(lp4958
g48
(g49
g50
NtRp4959
(dp4960
g53
(dp4961
g61
I1
ssg62
g4955
sg55
(lp4962
Nasbasbasbag48
(g64
g50
NtRp4963
(dp4964
g53
(dp4965
sg62
g4922
sg55
(lp4966
g48
(g69
g50
NtRp4967
(dp4968
g53
(dp4969
sg62
g4963
sg55
(lp4970
g48
(g49
g50
NtRp4971
(dp4972
g53
(dp4973
g61
I1
ssg62
g4967
sg55
(lp4974
(lp4975
(g4146
(S't\x06\x00\x00\x00Groups'
tRp4976
I00
S'http://www.web2py.com/examples/default/usergroups'
tp4977
a(g4146
(S't\x07\x00\x00\x00Twitter'
tRp4978
I00
S'http://twitter.com/web2py'
tp4979
a(g4146
(S's\t\x00\x00\x00Live chat'
tRp4980
I00
S'http://mibbit.com/?channel=%23web2py&server=irc.mibbit.net'
tp4981
a(g4146
(S's\n\x00\x00\x00User Voice'
tRp4982
I00
S'http://web2py.uservoice.com/'
tp4983
aasbasbasbasbasbasbasbag48
(g64
g50
NtRp4984
(dp4985
g53
(dp4986
sg62
g4811
sg55
(lp4987
g48
(g69
g50
NtRp4988
(dp4989
g53
(dp4990
sg62
g4984
sg55
(lp4991
g48
(g49
g50
NtRp4992
(dp4993
g53
(dp4994
g61
I2
ssg62
g4988
sg55
(lp4995
g48
(g57
g50
NtRp4996
(dp4997
g53
(dp4998
g61
I1
ssg62
Nsg55
(lp4999
g48
(g64
g50
NtRp5000
(dp5001
g53
(dp5002
sg62
g4996
sg55
(lp5003
g48
(g69
g50
NtRp5004
(dp5005
g53
(dp5006
sg62
g5000
sg55
(lp5007
g48
(g49
g50
NtRp5008
(dp5009
g53
(dp5010
g61
I1
ssg62
g5004
sg55
(lp5011
g4146
(S't\x06\x00\x00\x00Web2py'
tRp5012
asbasbasbag48
(g64
g50
NtRp5013
(dp5014
g53
(dp5015
sg62
g4996
sg55
(lp5016
g48
(g69
g50
NtRp5017
(dp5018
g53
(dp5019
sg62
g5013
sg55
(lp5020
g48
(g49
g50
NtRp5021
(dp5022
g53
(dp5023
g61
I1
ssg62
g5017
sg55
(lp5024
I00
asbasbasbag48
(g64
g50
NtRp5025
(dp5026
g53
(dp5027
sg62
g4996
sg55
(lp5028
g48
(g69
g50
NtRp5029
(dp5030
g53
(dp5031
sg62
g5025
sg55
(lp5032
g48
(g49
g50
NtRp5033
(dp5034
g53
(dp5035
g61
I1
ssg62
g5029
sg55
(lp5036
S'http://www.web2py.com'
p5037
asbasbasbag48
(g64
g50
NtRp5038
(dp5039
g53
(dp5040
sg62
g4996
sg55
(lp5041
g48
(g69
g50
NtRp5042
(dp5043
g53
(dp5044
sg62
g5038
sg55
(lp5045
g48
(g49
g50
NtRp5046
(dp5047
g53
(dp5048
g61
I1
ssg62
g5042
sg55
(lp5049
(lp5050
(g4146
(S't\x08\x00\x00\x00Download'
tRp5051
I00
S'http://www.web2py.com/examples/default/download'
tp5052
a(g4146
(S't\x07\x00\x00\x00Support'
tRp5053
I00
S'http://www.web2py.com/examples/default/support'
tp5054
a(g4146
(S's\x0e\x00\x00\x00Quick Examples'
tRp5055
I00
S'http://web2py.com/examples/default/examples'
tp5056
a(g4146
(S't\x03\x00\x00\x00FAQ'
tRp5057
I00
S'http://web2py.com/AlterEgo'
tp5058
a(g4146
(S's\x11\x00\x00\x00Free Applications'
tRp5059
I00
S'http://web2py.com/appliances'
tp5060
a(g4146
(S't\x07\x00\x00\x00Plugins'
tRp5061
I00
S'http://web2py.com/plugins'
tp5062
a(g4146
(S't\x07\x00\x00\x00Recipes'
tRp5063
I00
S'http://web2pyslices.com/'
tp5064
a(g4146
(S't\x04\x00\x00\x00Demo'
tRp5065
I00
S'http://web2py.com/demo_admin'
tp5066
a(g4146
(S't\x08\x00\x00\x00Semantic'
tRp5067
I00
S'http://web2py.com/semantic'
tp5068
a(g4146
(S't\x07\x00\x00\x00Layouts'
tRp5069
I00
S'http://web2py.com/layouts'
tp5070
a(g4146
(S't\x06\x00\x00\x00Videos'
tRp5071
I00
S'http://www.web2py.com/examples/default/videos/'
tp5072
aasbasbasbasbasbasbasbasbasbasbasbasbasbasbasbasbasbasbasbag48
(g64
g50
NtRp5073
(dp5074
g53
(dp5075
sg62
g3595
sg55
(lp5076
g48
(g69
g50
NtRp5077
(dp5078
g53
(dp5079
g73
g74
ssg62
g5073
sg55
(lp5080
S'meta'
p5081
asbag48
(g69
g50
NtRp5082
(dp5083
g53
(dp5084
g80
g81
ssg62
g5073
sg55
(lp5085
S':'
asbag48
(g69
g50
NtRp5086
(dp5087
g53
(dp5088
sg62
g5073
sg55
(lp5089
g48
(g49
g50
NtRp5090
(dp5091
g53
(dp5092
g61
I5
ssg62
g5086
sg55
(lp5093
g48
(g57
g50
NtRp5094
(dp5095
g53
(dp5096
g61
I4
ssg62
Nsg55
(lp5097
g48
(g64
g50
NtRp5098
(dp5099
g53
(dp5100
sg62
g5094
sg55
(lp5101
g48
(g69
g50
NtRp5102
(dp5103
g53
(dp5104
g73
g74
ssg62
g5098
sg55
(lp5105
S'author'
p5106
asbag48
(g69
g50
NtRp5107
(dp5108
g53
(dp5109
g80
g81
ssg62
g5098
sg55
(lp5110
S':'
asbag48
(g69
g50
NtRp5111
(dp5112
g53
(dp5113
sg62
g5098
sg55
(lp5114
g48
(g49
g50
NtRp5115
(dp5116
g53
(dp5117
g61
I4
ssg62
g5111
sg55
(lp5118
S'you'
p5119
asbasbasbag48
(g64
g50
NtRp5120
(dp5121
g53
(dp5122
sg62
g5094
sg55
(lp5123
g48
(g69
g50
NtRp5124
(dp5125
g53
(dp5126
g73
g74
ssg62
g5120
sg55
(lp5127
S'copyright'
p5128
asbag48
(g69
g50
NtRp5129
(dp5130
g53
(dp5131
g80
g81
ssg62
g5120
sg55
(lp5132
S':'
asbag48
(g69
g50
NtRp5133
(dp5134
g53
(dp5135
sg62
g5120
sg55
(lp5136
g48
(g49
g50
NtRp5137
(dp5138
g53
(dp5139
g61
I4
ssg62
g5133
sg55
(lp5140
S'Copyright 2007-2010'
p5141
asbasbasbag48
(g64
g50
NtRp5142
(dp5143
g53
(dp5144
sg62
g5094
sg55
(lp5145
g48
(g69
g50
NtRp5146
(dp5147
g53
(dp5148
g73
g74
ssg62
g5142
sg55
(lp5149
S'description'
p5150
asbag48
(g69
g50
NtRp5151
(dp5152
g53
(dp5153
g80
g81
ssg62
g5142
sg55
(lp5154
S':'
asbag48
(g69
g50
NtRp5155
(dp5156
g53
(dp5157
sg62
g5142
sg55
(lp5158
g48
(g49
g50
NtRp5159
(dp5160
g53
(dp5161
g61
I4
ssg62
g5155
sg55
(lp5162
S'Free and open source full-stack enterprise framework for agile development of fast, scalable, secure and portable database-driven web-based applications. Written and programmable in Python'
p5163
asbasbasbag48
(g64
g50
NtRp5164
(dp5165
g53
(dp5166
sg62
g5094
sg55
(lp5167
g48
(g69
g50
NtRp5168
(dp5169
g53
(dp5170
g73
g74
ssg62
g5164
sg55
(lp5171
S'generator'
p5172
asbag48
(g69
g50
NtRp5173
(dp5174
g53
(dp5175
g80
g81
ssg62
g5164
sg55
(lp5176
S':'
asbag48
(g69
g50
NtRp5177
(dp5178
g53
(dp5179
sg62
g5164
sg55
(lp5180
g48
(g49
g50
NtRp5181
(dp5182
g53
(dp5183
g61
I4
ssg62
g5177
sg55
(lp5184
S'Web2py Enterprise Framework'
p5185
asbasbasbag48
(g64
g50
NtRp5186
(dp5187
g53
(dp5188
sg62
g5094
sg55
(lp5189
g48
(g69
g50
NtRp5190
(dp5191
g53
(dp5192
g73
g74
ssg62
g5186
sg55
(lp5193
S'keywords'
p5194
asbag48
(g69
g50
NtRp5195
(dp5196
g53
(dp5197
g80
g81
ssg62
g5186
sg55
(lp5198
S':'
asbag48
(g69
g50
NtRp5199
(dp5200
g53
(dp5201
sg62
g5186
sg55
(lp5202
g48
(g49
g50
NtRp5203
(dp5204
g53
(dp5205
g61
I4
ssg62
g5199
sg55
(lp5206
S'web2py, python, framework'
p5207
asbasbasbasbasbasbasbag48
(g64
g50
NtRp5208
(dp5209
g53
(dp5210
sg62
g3595
sg55
(lp5211
g48
(g69
g50
NtRp5212
(dp5213
g53
(dp5214
g73
g74
ssg62
g5208
sg55
(lp5215
S'postprocessing'
p5216
asbag48
(g69
g50
NtRp5217
(dp5218
g53
(dp5219
g80
g81
ssg62
g5208
sg55
(lp5220
S':'
asbag48
(g69
g50
NtRp5221
(dp5222
g53
(dp5223
sg62
g5208
sg55
(lp5224
g48
(g49
g50
NtRp5225
(dp5226
g53
(dp5227
g61
I5
ssg62
g5221
sg55
(lp5228
g48
(g57
g50
NtRp5229
(dp5230
g53
(dp5231
g61
I4
ssg62
Nsg55
(lp5232
sbasbasbasbag48
(g64
g50
NtRp5233
(dp5234
g53
(dp5235
sg62
g3595
sg55
(lp5236
g48
(g69
g50
NtRp5237
(dp5238
g53
(dp5239
g73
g74
ssg62
g5233
sg55
(lp5240
S'session_file'
p5241
asbag48
(g69
g50
NtRp5242
(dp5243
g53
(dp5244
g80
g81
ssg62
g5233
sg55
(lp5245
S':'
asbag48
(g69
g50
NtRp5246
(dp5247
g53
(dp5248
sg62
g5233
sg55
(lp5249
g48
(g49
g50
NtRp5250
(dp5251
g53
(dp5252
g61
I5
ssg62
g5246
sg55
(lp5253
S"<open file 'C:\\Users\\Atomico\\web2py\\applications\\Desglosar_Emails\\sessions\\127.0.0.1-0a11b3b2-660c-433c-b71f-fc129286f26c', mode 'rb+' at 0x08F5C0F8>"
p5254
asbasbasbag48
(g64
g50
NtRp5255
(dp5256
g53
(dp5257
sg62
g3595
sg55
(lp5258
g48
(g69
g50
NtRp5259
(dp5260
g53
(dp5261
g73
g74
ssg62
g5255
sg55
(lp5262
S'session_filename'
p5263
asbag48
(g69
g50
NtRp5264
(dp5265
g53
(dp5266
g80
g81
ssg62
g5255
sg55
(lp5267
S':'
asbag48
(g69
g50
NtRp5268
(dp5269
g53
(dp5270
sg62
g5255
sg55
(lp5271
g48
(g49
g50
NtRp5272
(dp5273
g53
(dp5274
g61
I5
ssg62
g5268
sg55
(lp5275
S'C:\\Users\\Atomico\\web2py\\applications\\Desglosar_Emails\\sessions\\127.0.0.1-0a11b3b2-660c-433c-b71f-fc129286f26c'
p5276
asbasbasbag48
(g64
g50
NtRp5277
(dp5278
g53
(dp5279
sg62
g3595
sg55
(lp5280
g48
(g69
g50
NtRp5281
(dp5282
g53
(dp5283
g73
g74
ssg62
g5277
sg55
(lp5284
S'session_id'
p5285
asbag48
(g69
g50
NtRp5286
(dp5287
g53
(dp5288
g80
g81
ssg62
g5277
sg55
(lp5289
S':'
asbag48
(g69
g50
NtRp5290
(dp5291
g53
(dp5292
sg62
g5277
sg55
(lp5293
g48
(g49
g50
NtRp5294
(dp5295
g53
(dp5296
g61
I5
ssg62
g5290
sg55
(lp5297
S'127.0.0.1-0a11b3b2-660c-433c-b71f-fc129286f26c'
p5298
asbasbasbag48
(g64
g50
NtRp5299
(dp5300
g53
(dp5301
sg62
g3595
sg55
(lp5302
g48
(g69
g50
NtRp5303
(dp5304
g53
(dp5305
g73
g74
ssg62
g5299
sg55
(lp5306
S'session_id_name'
p5307
asbag48
(g69
g50
NtRp5308
(dp5309
g53
(dp5310
g80
g81
ssg62
g5299
sg55
(lp5311
S':'
asbag48
(g69
g50
NtRp5312
(dp5313
g53
(dp5314
sg62
g5299
sg55
(lp5315
g48
(g49
g50
NtRp5316
(dp5317
g53
(dp5318
g61
I5
ssg62
g5312
sg55
(lp5319
g3652
asbasbasbag48
(g64
g50
NtRp5320
(dp5321
g53
(dp5322
sg62
g3595
sg55
(lp5323
g48
(g69
g50
NtRp5324
(dp5325
g53
(dp5326
g73
g74
ssg62
g5320
sg55
(lp5327
S'session_locked'
p5328
asbag48
(g69
g50
NtRp5329
(dp5330
g53
(dp5331
g80
g81
ssg62
g5320
sg55
(lp5332
S':'
asbag48
(g69
g50
NtRp5333
(dp5334
g53
(dp5335
sg62
g5320
sg55
(lp5336
g48
(g49
g50
NtRp5337
(dp5338
g53
(dp5339
g61
I5
ssg62
g5333
sg55
(lp5340
g2289
asbasbasbag48
(g64
g50
NtRp5341
(dp5342
g53
(dp5343
sg62
g3595
sg55
(lp5344
g48
(g69
g50
NtRp5345
(dp5346
g53
(dp5347
g73
g74
ssg62
g5341
sg55
(lp5348
S'session_new'
p5349
asbag48
(g69
g50
NtRp5350
(dp5351
g53
(dp5352
g80
g81
ssg62
g5341
sg55
(lp5353
S':'
asbag48
(g69
g50
NtRp5354
(dp5355
g53
(dp5356
sg62
g5341
sg55
(lp5357
g48
(g49
g50
NtRp5358
(dp5359
g53
(dp5360
g61
I5
ssg62
g5354
sg55
(lp5361
g91
asbasbasbag48
(g64
g50
NtRp5362
(dp5363
g53
(dp5364
sg62
g3595
sg55
(lp5365
g48
(g69
g50
NtRp5366
(dp5367
g53
(dp5368
g73
g74
ssg62
g5362
sg55
(lp5369
S'status'
p5370
asbag48
(g69
g50
NtRp5371
(dp5372
g53
(dp5373
g80
g81
ssg62
g5362
sg55
(lp5374
S':'
asbag48
(g69
g50
NtRp5375
(dp5376
g53
(dp5377
sg62
g5362
sg55
(lp5378
g48
(g49
g50
NtRp5379
(dp5380
g53
(dp5381
g61
I5
ssg62
g5375
sg55
(lp5382
S'200'
p5383
asbasbasbag48
(g64
g50
NtRp5384
(dp5385
g53
(dp5386
sg62
g3595
sg55
(lp5387
g48
(g69
g50
NtRp5388
(dp5389
g53
(dp5390
g73
g74
ssg62
g5384
sg55
(lp5391
S'subtitle'
p5392
asbag48
(g69
g50
NtRp5393
(dp5394
g53
(dp5395
g80
g81
ssg62
g5384
sg55
(lp5396
S':'
asbag48
(g69
g50
NtRp5397
(dp5398
g53
(dp5399
sg62
g5384
sg55
(lp5400
g48
(g49
g50
NtRp5401
(dp5402
g53
(dp5403
g61
I5
ssg62
g5397
sg55
(lp5404
g4146
(S's\t\x00\x00\x00Adaptame!'
tRp5405
asbasbasbag48
(g64
g50
NtRp5406
(dp5407
g53
(dp5408
sg62
g3595
sg55
(lp5409
g48
(g69
g50
NtRp5410
(dp5411
g53
(dp5412
g73
g74
ssg62
g5406
sg55
(lp5413
S'title'
p5414
asbag48
(g69
g50
NtRp5415
(dp5416
g53
(dp5417
g80
g81
ssg62
g5406
sg55
(lp5418
S':'
asbag48
(g69
g50
NtRp5419
(dp5420
g53
(dp5421
sg62
g5406
sg55
(lp5422
g48
(g49
g50
NtRp5423
(dp5424
g53
(dp5425
g61
I5
ssg62
g5419
sg55
(lp5426
g113
asbasbasbag48
(g64
g50
NtRp5427
(dp5428
g53
(dp5429
sg62
g3595
sg55
(lp5430
g48
(g69
g50
NtRp5431
(dp5432
g53
(dp5433
g73
g74
ssg62
g5427
sg55
(lp5434
g2678
asbag48
(g69
g50
NtRp5435
(dp5436
g53
(dp5437
g80
g81
ssg62
g5427
sg55
(lp5438
S':'
asbag48
(g69
g50
NtRp5439
(dp5440
g53
(dp5441
sg62
g5427
sg55
(lp5442
g48
(g49
g50
NtRp5443
(dp5444
g53
(dp5445
g61
I5
ssg62
g5439
sg55
(lp5446
g2691
asbasbasbag48
(g64
g50
NtRp5447
(dp5448
g53
(dp5449
sg62
g3595
sg55
(lp5450
g48
(g69
g50
NtRp5451
(dp5452
g53
(dp5453
g73
g74
ssg62
g5447
sg55
(lp5454
S'view'
p5455
asbag48
(g69
g50
NtRp5456
(dp5457
g53
(dp5458
g80
g81
ssg62
g5447
sg55
(lp5459
S':'
asbag48
(g69
g50
NtRp5460
(dp5461
g53
(dp5462
sg62
g5447
sg55
(lp5463
g48
(g49
g50
NtRp5464
(dp5465
g53
(dp5466
g61
I5
ssg62
g5460
sg55
(lp5467
S'default/entrada_mod2.html'
p5468
asbasbasbasbasbsS'locals'
p5469
(dp5470
S'self'
p5471
S"<Table {'ALL': <gluon.dal.SQLALL object at 0x07B...>, 'id': <gluon.dal.Field object at 0x07B3C5D0>}>"
p5472
sS'key'
p5473
S"'amo'"
p5474
sssS'traceback'
p5475
S'Traceback (most recent call last):\n  File "gluon/restricted.py", line 192, in restricted\n  File "C:\\Users\\Atomico\\web2py\\applications\\Desglosar_Emails\\views\\default/entrada_mod2.html", line 117, in <module>\n  File "gluon/dal.py", line 4731, in __getattr__\n  File "gluon/dal.py", line 4675, in __getitem__\nKeyError: \'amo\'\n'
p5476
s.