(dp1
S'output'
p2
S''
sS'layer'
p3
S'C:\\Users\\Atomico\\web2py\\applications\\Desglosar_Emails\\views\\default/entrada_mod2.html'
p4
sS'code'
p5
S'response.write(\'<!DOCTYPE html>\\n<html lang="\', escape=False)\nresponse.write(T.accepted_language or \'en\')\nresponse.write(\'" class="no-js"><!-- no-js need it for modernzr -->\\n  <head>\\n    \\n    <meta charset="utf-8" />\\t  \\t\\n    <!-- www.phpied.com/conditional-comments-block-downloads/ -->\\n    <!--[if IE]><![endif]-->    \\n    <!-- Always force latest IE rendering engine \\n\\t (even in intranet) & Chrome Frame \\n\\t Remove this if you use the .htaccess -->\\n    <meta http-equiv="X-UA-Compatible" content="IE=edge,chrome=1">\\n    \\n    <title>\', escape=False)\nresponse.write(response.title or request.application)\nresponse.write(\'</title>\\n    \\n    <!-- http://dev.w3.org/html5/markup/meta.name.html -->\\n    <meta name="application-name" content="\', escape=False)\nresponse.write(request.application)\nresponse.write(\'" />\\t\\n    \\n    <!-- Speaking of Google, don\\\'t forget to set your site up: \\n\\t http://google.com/webmasters -->\\n    <meta name="google-site-verification" content="" />\\n    \\n    <!--  Mobile Viewport Fix\\n\\t  j.mp/mobileviewport & davidbcalhoun.com/2010/viewport-metatag \\n\\t  device-width: Occupy full width of the screen in its current orientation\\n\\t  initial-scale = 1.0 retains dimensions instead of zooming out if page height > device height\\n\\t  maximum-scale = 1.0 retains dimensions instead of zooming in if page width < device width\\n      -->\\n    <meta name="viewport" content="width=device-width, initial-scale=1.0, maximum-scale=1.0">\\n    \\n    <!-- Place favicon.ico and apple-touch-icon.png in the root of your domain and delete these references -->\\n    <link rel="shortcut icon" href="\', escape=False)\nresponse.write(URL(\'static\',\'favicon.ico\'))\nresponse.write(\'" type="image/x-icon">\\n    <link rel="apple-touch-icon" href="\', escape=False)\nresponse.write(URL(\'static\',\'favicon.png\'))\nresponse.write(\'">\\n\\n    <!-- For the less-enabled mobile browsers like Opera Mini -->\\n    <link rel="stylesheet" media="handheld" href="\', escape=False)\nresponse.write(URL(\'static\',\'css/handheld.css\'))\nresponse.write(\'">\\n    \\n    <!-- All JavaScript at the bottom, except for Modernizr which enables HTML5 elements & feature detects -->\\n    <script src="\', escape=False)\nresponse.write(URL(\'static\',\'js/modernizr-1.7.min.js\'))\nresponse.write(\'"></script>\\n    \\n    \', escape=False)\n#------  require CSS and JS files for this page (read info in base.css) ------\nresponse.write(\'\\n    \', escape=False)\nresponse.files.append(URL(\'static\',\'css/base.css\'))\nresponse.write(\'\\n    \', escape=False)\nresponse.files.append(URL(\'static\',\'css/superfish.css\'))\nresponse.write(\'\\n    \', escape=False)\nresponse.files.append(URL(\'static\',\'js/superfish.js\'))\nresponse.write(\'\\n    \', escape=False)\n#------ include web2py specific js code (jquery, calendar, form stuff) ------\nresponse.write(\'\\n    \', escape=False)\nresponse.files.insert(0,URL(\'static\',\'js/jquery.js\'))\nresponse.files.insert(1,URL(\'static\',\'css/calendar.css\'))\nresponse.files.insert(2,URL(\'static\',\'js/calendar.js\'))\nfor _item in response.meta or []:\n    response.write(\'\\n     <meta name="\', escape=False)\n    response.write(_item)\n    response.write(\'" content="\', escape=False)\n    response.write(response.meta[_item])\n    response.write(\'" />\', escape=False)\n    pass\nfor _k,_file in enumerate(response.files or []):\n    if _file in response.files[:_k]:\n        continue\n    _file0=_file.lower().split(\'?\')[0]\n    if _file0.endswith(\'.css\'):\n        response.write(\'\\n     <link href="\', escape=False)\n        response.write(_file)\n        response.write(\'" rel="stylesheet" type="text/css" />\', escape=False)\n    elif _file0.endswith(\'.js\'):\n        response.write(\'\\n     <script src="\', escape=False)\n        response.write(_file)\n        response.write(\'" type="text/javascript"></script>\', escape=False)\n        pass\n    pass\nresponse.write(\'\\n    <script type="text/javascript"><!--\\n    // These variables are used by the web2py_ajax_init function in web2py_ajax.js (which is loaded below).\\n    var w2p_ajax_confirm_message = "\', escape=False)\nresponse.write(T(\'Are you sure you want to delete this object?\'))\nresponse.write(\'";\\n    var w2p_ajax_date_format = "\', escape=False)\nresponse.write(T(\'%Y-%m-%d\'))\nresponse.write(\'";\\n    var w2p_ajax_datetime_format = "\', escape=False)\nresponse.write(T(\'%Y-%m-%d %H:%M:%S\'))\nresponse.write(\'";\\n    //--></script>\\n    <script src="\', escape=False)\nresponse.write(URL(\'static\',\'js/web2py_ajax.js\'))\nresponse.write(\'" type="text/javascript"></script>\\n\', escape=False)\nresponse.write(\'\\n\\n    \', escape=False)\n#using sidebars need to know what sidebar you want to use\n#prior of using it, because of static width size of content, you can use\n#left_sidebar, right_sidebar, both or none (False left and right)\nleft_sidebar_enabled = globals().get(\'left_sidebar_enabled\',False)\nright_sidebar_enabled = globals().get(\'right_sidebar_enabled\',False)\nif left_sidebar_enabled and right_sidebar_enabled: width_content=\'63%\'\nelif left_sidebar_enabled != right_sidebar_enabled: width_content=\'740px\'\nelse: width_content=\'100%\'\nif left_sidebar_enabled: left_sidebar_style = \'style="display: block;"\'\nelse: left_sidebar_style = \'style="display: none;"\'\nif right_sidebar_enabled: right_sidebar_style = \'style="display: block;"\'\nelse: right_sidebar_style = \'style="display: none;"\'\nstyle_content = \'style="width: %s"\' % width_content\nresponse.write(\'\\n  </head>\\n  \\n  <!-- paulirish.com/2008/conditional-stylesheets-vs-css-hacks-answer-neither/ -->\\t\\n  <!--[if lt IE 7 ]> <body class="ie6"> <![endif]-->\\n  <!--[if IE 7 ]>    <body class="ie7"> <![endif]-->\\n  <!--[if IE 8 ]>    <body class="ie8"> <![endif]-->\\n  <!--[if IE 9 ]>    <body class="ie9"> <![endif]-->\\n  <!--[if (gt IE 9)|!(IE)]><!--> <body> <!--<![endif]-->\\n    \\n    <div class="flash">\', escape=False)\nresponse.write(response.flash or \'\')\nresponse.write(\'</div> <!-- notification div -->\\n    \\n    <div id="container">\\t      \\t\\t      \\t\\n      \\n      <div id="wrapper">\\t\\t\\n\\t\\n\\t<div id="header"> <!-- header and login nav -->\\n\\t  \', escape=False)\nresponse.write(\' <!-- this is default header -->\\n\\t  \', escape=False)\ntry:\n    response.write(auth.navbar(action=URL(\'default\',\'user\')))\nexcept:pass\nresponse.write(\'\\t\\t          \\n\\t  <h1><span id="appname">\', escape=False)\nresponse.write(request.application.capitalize())\nresponse.write(\'</span>App</h1>\\n\\t  <div style="clear: both;"></div><!-- Clear the divs -->\\n\\t  \', escape=False)\nresponse.write(\'\\t\\t\\t\\t  \\t\\t\\t\\t\\t  \\n\\t</div><!-- header  -->\\n\\t\\n\\t<div id="statusbar"><!-- statusbar is menu zone -->\\n\\t  \', escape=False)\nresponse.write(\' <!-- this is default statusbar -->\\n\\t  \', escape=False)\n#------ superfish menu ------\nresponse.write(\'\\n\\t  \', escape=False)\nresponse.write(MENU(response.menu,_class=\'sf-menu\'))\nresponse.write(\'\\n\\t  <script type="text/javascript">\\n\\t    jQuery(document).ready(function(){\\n\\t    jQuery(\\\'ul.sf-menu\\\').superfish();});\\n\\t  </script>\\n\\t  <div style="clear: both;"></div><!-- Clear the divs -->\\t\\n\\t  \', escape=False)\nresponse.write(\'\\t\\t\\t\\t\\n\\t</div><!-- statusbar -->\\n\\t\\n\\t<div id="page"> <!-- Here my central body -->\\t  \\n\\n\\t  \', escape=False)\nif left_sidebar_enabled:\n    response.write(\'\\n          <div id="left_sidebar" \', escape=False)\n    response.write(XML(left_sidebar_style))\n    response.write(\' >\\n            <div style="padding: 4px;">\\n\\t      \', escape=False)\n    response.write(\'Content Left Sidebar\', escape=False)\n    response.write(\'\\t\\t  \\n            </div>\\n          </div><!-- left_sidebar -->\\n\\t  \', escape=False)\n    pass\nresponse.write(\'\\n\\n\\t  <!-- content -->\\n\\t  <div id="content" \', escape=False)\nresponse.write(XML(style_content))\nresponse.write(\' >\\n\\t    \', escape=False)\nresponse.write(\'\\r\\n<h1>default/entrada_mod2.html</h1>\\r\\n<h2>Formulario</h2>\\r\\n\', escape=False)\nresponse.write(form)\nresponse.write(\'\\r\\n\\r\\n<h3>Tratamiento darle la longitud a cada elemento</h3>\\r\\n\', escape=False)\nd=dict()\nd[1]=10\nd[2]=20\nresponse.write(d)\nresponse.write(\'\\r\\n<br/>Ahora d2: \\r\\n\', escape=False)\nd2=d.copy()\nd2[4]=\'coche\'\nd2[3]=[\'k2\':\'perro\']\nresponse.write(d2)\nresponse.write(\'\\r\\n\', escape=False)\nresponse.write(\'\\t\\n\\t  </div>\\n\\t  <!-- content -->\\n\\n\\t  \', escape=False)\nif right_sidebar_enabled:\n    response.write(\'\\n          <div id="right_sidebar" \', escape=False)\n    response.write(XML(right_sidebar_style))\n    response.write(\' >\\n            <div style="padding: 4px;">\\n              \', escape=False)\n    response.write(\'Content Right Sidebar\', escape=False)\n    response.write(\'\\n            </div>\\n\\t  </div><!-- right_sidebar -->\\n          \', escape=False)\n    pass\nresponse.write(\'\\n\\n\\n\\t  <div style="clear: both;"></div><!-- Clear the divs -->\\n\\t  \\n\\t</div><!-- page -->\\t\\t\\t\\t\\t\\t\\t\\n\\t\\n\\t<div id="footer">\\n\\t  \', escape=False)\nresponse.write(\' <!-- this is default footer -->\\n\\t  <a href="http://www.web2py.com/" style="float: left; padding-right: 6px;">\\n\\t    <img src="\', escape=False)\nresponse.write(URL(\'static\',\'images/poweredby.png\'))\nresponse.write(\'"/>\\n\\t  </a>\\n\\t  \', escape=False)\nresponse.write(T(\'Copyright\'))\nresponse.write(\' &#169; 2010\\t\\t\\t\\t\\n\\t  <div style="clear: both;"></div><!-- Clear the divs -->\\n\\t  \', escape=False)\nresponse.write(\'\\n\\n\\t</div><!-- footer -->\\t\\t\\t\\n      </div><!-- wrapper -->\\n    </div><!-- container -->\\t\\t\\n    \\n    <!--[if lt IE 7 ]>\\n\\t<script src="\', escape=False)\nresponse.write(URL(\'static\',\'js/dd_belatedpng.js\'))\nresponse.write(\'"></script>\\n\\t<script> DD_belatedPNG.fix(\\\'img, .png_bg\\\'); //fix any <img> or .png_bg background-images </script>\\n\\t<![endif]-->\\n    \\n    <!-- asynchronous google analytics: mathiasbynens.be/notes/async-analytics-snippet \\n\\t change the UA-XXXXX-X to be your site\\\'s ID -->\\n    <!--   \\n\\t   <script>\\n\\t     var _gaq = [[\\\'_setAccount\\\', \\\'UA-XXXXX-X\\\'], [\\\'_trackPageview\\\']];\\n\\t     (function(d, t) {\\n\\t     var g = d.createElement(t),\\n\\t     s = d.getElementsByTagName(t)[0];\\n\\t     g.async = true;\\n\\t     g.src = \\\'//www.google-analytics.com/ga.js\\\';\\n\\t     s.parentNode.insertBefore(g, s);\\n\\t     })(document, \\\'script\\\');\\n\\t   </script>\\n\\t   -->    \\n  </body>\\n</html>\\n\', escape=False)'
p6
sS'snapshot'
p7
(dp8
S'exception'
p9
(dp10
S'__getslice__'
p11
S"<method-wrapper '__getslice__' of exceptions.SyntaxError object at 0x087F8D30>"
p12
sS'text'
p13
S'"d2[3]=[\'k2\':\'perro\']\\n"'
p14
sS'__str__'
p15
S"<method-wrapper '__str__' of exceptions.SyntaxError object at 0x087F8D30>"
p16
sS'__reduce__'
p17
S'<built-in method __reduce__ of exceptions.SyntaxError object at 0x087F8D30>'
p18
sS'__dict__'
p19
S'{}'
p20
sS'__init__'
p21
S"<method-wrapper '__init__' of exceptions.SyntaxError object at 0x087F8D30>"
p22
sS'__setattr__'
p23
S"<method-wrapper '__setattr__' of exceptions.SyntaxError object at 0x087F8D30>"
p24
sS'__reduce_ex__'
p25
S'<built-in method __reduce_ex__ of exceptions.SyntaxError object at 0x087F8D30>'
p26
sS'__new__'
p27
S'<built-in method __new__ of type object at 0x1E1CDBD0>'
p28
sS'__class__'
p29
S"<type 'exceptions.SyntaxError'>"
p30
sS'filename'
p31
S"r'C:\\Users\\Atomico\\web2py\\applications\\Desglosar_Emails\\views\\default/entrada_mod2.html'"
p32
sS'lineno'
p33
S'110'
p34
sS'msg'
p35
S"'invalid syntax'"
p36
sS'__doc__'
p37
S"'Invalid syntax.'"
p38
sS'__getitem__'
p39
S"<method-wrapper '__getitem__' of exceptions.SyntaxError object at 0x087F8D30>"
p40
sS'__setstate__'
p41
S'<built-in method __setstate__ of exceptions.SyntaxError object at 0x087F8D30>'
p42
sS'__getattribute__'
p43
S"<method-wrapper '__getattribute__' of exceptions.SyntaxError object at 0x087F8D30>"
p44
sS'print_file_and_line'
p45
S'None'
p46
sS'args'
p47
S'(\'invalid syntax\', (r\'C:\\Users\\Atomico\\web2py\\applications\\Desglosar_Emails\\views\\default/entrada_mod2.html\', 110, 12, "d2[3]=[\'k2\':\'perro\']\\n"))'
p48
sS'offset'
p49
S'12'
p50
sS'__delattr__'
p51
S"<method-wrapper '__delattr__' of exceptions.SyntaxError object at 0x087F8D30>"
p52
sS'__repr__'
p53
S"<method-wrapper '__repr__' of exceptions.SyntaxError object at 0x087F8D30>"
p54
sS'__hash__'
p55
S"<method-wrapper '__hash__' of exceptions.SyntaxError object at 0x087F8D30>"
p56
ssS'evalue'
p57
S'invalid syntax (default/entrada_mod2.html, line 110)'
p58
sS'request'
p59
ccopy_reg
_reconstructor
p60
(cgluon.html
BEAUTIFY
p61
c__builtin__
object
p62
NtRp63
(dp64
S'attributes'
p65
(dp66
sS'components'
p67
(lp68
g60
(cgluon.html
TABLE
p69
g62
NtRp70
(dp71
g65
(dp72
S'level'
p73
I5
ssS'parent'
p74
Nsg67
(lp75
g60
(cgluon.html
TR
p76
g62
NtRp77
(dp78
g65
(dp79
sg74
g70
sg67
(lp80
g60
(cgluon.html
TD
p81
g62
NtRp82
(dp83
g65
(dp84
S'_style'
p85
S'font-weight:bold;'
p86
ssg74
g77
sg67
(lp87
S'ajax'
p88
asbag60
(g81
g62
NtRp89
(dp90
g65
(dp91
S'_valign'
p92
S'top'
p93
ssg74
g77
sg67
(lp94
S':'
asbag60
(g81
g62
NtRp95
(dp96
g65
(dp97
sg74
g77
sg67
(lp98
g60
(g61
g62
NtRp99
(dp100
g65
(dp101
g73
I5
ssg74
g95
sg67
(lp102
S'False'
p103
asbasbasbag60
(g76
g62
NtRp104
(dp105
g65
(dp106
sg74
g70
sg67
(lp107
g60
(g81
g62
NtRp108
(dp109
g65
(dp110
g85
g86
ssg74
g104
sg67
(lp111
S'application'
p112
asbag60
(g81
g62
NtRp113
(dp114
g65
(dp115
g92
g93
ssg74
g104
sg67
(lp116
S':'
asbag60
(g81
g62
NtRp117
(dp118
g65
(dp119
sg74
g104
sg67
(lp120
g60
(g61
g62
NtRp121
(dp122
g65
(dp123
g73
I5
ssg74
g117
sg67
(lp124
S'Desglosar_Emails'
p125
asbasbasbag60
(g76
g62
NtRp126
(dp127
g65
(dp128
sg74
g70
sg67
(lp129
g60
(g81
g62
NtRp130
(dp131
g65
(dp132
g85
g86
ssg74
g126
sg67
(lp133
g47
asbag60
(g81
g62
NtRp134
(dp135
g65
(dp136
g92
g93
ssg74
g126
sg67
(lp137
S':'
asbag60
(g81
g62
NtRp138
(dp139
g65
(dp140
sg74
g126
sg67
(lp141
g60
(g61
g62
NtRp142
(dp143
g65
(dp144
g73
I5
ssg74
g138
sg67
(lp145
g60
(g69
g62
NtRp146
(dp147
g65
(dp148
g73
I4
ssg74
Nsg67
(lp149
sbasbasbasbag60
(g76
g62
NtRp150
(dp151
g65
(dp152
sg74
g70
sg67
(lp153
g60
(g81
g62
NtRp154
(dp155
g65
(dp156
g85
g86
ssg74
g150
sg67
(lp157
S'body'
p158
asbag60
(g81
g62
NtRp159
(dp160
g65
(dp161
g92
g93
ssg74
g150
sg67
(lp162
S':'
asbag60
(g81
g62
NtRp163
(dp164
g65
(dp165
sg74
g150
sg67
(lp166
g60
(g61
g62
NtRp167
(dp168
g65
(dp169
g73
I5
ssg74
g163
sg67
(lp170
S"<open file '<fdopen>', mode 'w+b' at 0x075C3E78>"
p171
asbasbasbag60
(g76
g62
NtRp172
(dp173
g65
(dp174
sg74
g70
sg67
(lp175
g60
(g81
g62
NtRp176
(dp177
g65
(dp178
g85
g86
ssg74
g172
sg67
(lp179
S'client'
p180
asbag60
(g81
g62
NtRp181
(dp182
g65
(dp183
g92
g93
ssg74
g172
sg67
(lp184
S':'
asbag60
(g81
g62
NtRp185
(dp186
g65
(dp187
sg74
g172
sg67
(lp188
g60
(g61
g62
NtRp189
(dp190
g65
(dp191
g73
I5
ssg74
g185
sg67
(lp192
S'127.0.0.1'
p193
asbasbasbag60
(g76
g62
NtRp194
(dp195
g65
(dp196
sg74
g70
sg67
(lp197
g60
(g81
g62
NtRp198
(dp199
g65
(dp200
g85
g86
ssg74
g194
sg67
(lp201
S'controller'
p202
asbag60
(g81
g62
NtRp203
(dp204
g65
(dp205
g92
g93
ssg74
g194
sg67
(lp206
S':'
asbag60
(g81
g62
NtRp207
(dp208
g65
(dp209
sg74
g194
sg67
(lp210
g60
(g61
g62
NtRp211
(dp212
g65
(dp213
g73
I5
ssg74
g207
sg67
(lp214
S'default'
p215
asbasbasbag60
(g76
g62
NtRp216
(dp217
g65
(dp218
sg74
g70
sg67
(lp219
g60
(g81
g62
NtRp220
(dp221
g65
(dp222
g85
g86
ssg74
g216
sg67
(lp223
S'cookies'
p224
asbag60
(g81
g62
NtRp225
(dp226
g65
(dp227
g92
g93
ssg74
g216
sg67
(lp228
S':'
asbag60
(g81
g62
NtRp229
(dp230
g65
(dp231
sg74
g216
sg67
(lp232
g60
(g61
g62
NtRp233
(dp234
g65
(dp235
g73
I5
ssg74
g229
sg67
(lp236
g60
(g69
g62
NtRp237
(dp238
g65
(dp239
g73
I4
ssg74
Nsg67
(lp240
g60
(g76
g62
NtRp241
(dp242
g65
(dp243
sg74
g237
sg67
(lp244
g60
(g81
g62
NtRp245
(dp246
g65
(dp247
g85
g86
ssg74
g241
sg67
(lp248
S'session_id_admin'
p249
asbag60
(g81
g62
NtRp250
(dp251
g65
(dp252
g92
g93
ssg74
g241
sg67
(lp253
S':'
asbag60
(g81
g62
NtRp254
(dp255
g65
(dp256
sg74
g241
sg67
(lp257
g60
(g61
g62
NtRp258
(dp259
g65
(dp260
g73
I4
ssg74
g254
sg67
(lp261
g60
(g69
g62
NtRp262
(dp263
g65
(dp264
g73
I3
ssg74
Nsg67
(lp265
g60
(g76
g62
NtRp266
(dp267
g65
(dp268
sg74
g262
sg67
(lp269
g60
(g81
g62
NtRp270
(dp271
g65
(dp272
g85
g86
ssg74
g266
sg67
(lp273
S'comment'
p274
asbag60
(g81
g62
NtRp275
(dp276
g65
(dp277
g92
g93
ssg74
g266
sg67
(lp278
S':'
asbag60
(g81
g62
NtRp279
(dp280
g65
(dp281
sg74
g266
sg67
(lp282
g60
(g61
g62
NtRp283
(dp284
g65
(dp285
g73
I3
ssg74
g279
sg67
(lp286
S''
asbasbasbag60
(g76
g62
NtRp287
(dp288
g65
(dp289
sg74
g262
sg67
(lp290
g60
(g81
g62
NtRp291
(dp292
g65
(dp293
g85
g86
ssg74
g287
sg67
(lp294
S'domain'
p295
asbag60
(g81
g62
NtRp296
(dp297
g65
(dp298
g92
g93
ssg74
g287
sg67
(lp299
S':'
asbag60
(g81
g62
NtRp300
(dp301
g65
(dp302
sg74
g287
sg67
(lp303
g60
(g61
g62
NtRp304
(dp305
g65
(dp306
g73
I3
ssg74
g300
sg67
(lp307
S''
asbasbasbag60
(g76
g62
NtRp308
(dp309
g65
(dp310
sg74
g262
sg67
(lp311
g60
(g81
g62
NtRp312
(dp313
g65
(dp314
g85
g86
ssg74
g308
sg67
(lp315
S'expires'
p316
asbag60
(g81
g62
NtRp317
(dp318
g65
(dp319
g92
g93
ssg74
g308
sg67
(lp320
S':'
asbag60
(g81
g62
NtRp321
(dp322
g65
(dp323
sg74
g308
sg67
(lp324
g60
(g61
g62
NtRp325
(dp326
g65
(dp327
g73
I3
ssg74
g321
sg67
(lp328
S''
asbasbasbag60
(g76
g62
NtRp329
(dp330
g65
(dp331
sg74
g262
sg67
(lp332
g60
(g81
g62
NtRp333
(dp334
g65
(dp335
g85
g86
ssg74
g329
sg67
(lp336
S'max-age'
p337
asbag60
(g81
g62
NtRp338
(dp339
g65
(dp340
g92
g93
ssg74
g329
sg67
(lp341
S':'
asbag60
(g81
g62
NtRp342
(dp343
g65
(dp344
sg74
g329
sg67
(lp345
g60
(g61
g62
NtRp346
(dp347
g65
(dp348
g73
I3
ssg74
g342
sg67
(lp349
S''
asbasbasbag60
(g76
g62
NtRp350
(dp351
g65
(dp352
sg74
g262
sg67
(lp353
g60
(g81
g62
NtRp354
(dp355
g65
(dp356
g85
g86
ssg74
g350
sg67
(lp357
S'path'
p358
asbag60
(g81
g62
NtRp359
(dp360
g65
(dp361
g92
g93
ssg74
g350
sg67
(lp362
S':'
asbag60
(g81
g62
NtRp363
(dp364
g65
(dp365
sg74
g350
sg67
(lp366
g60
(g61
g62
NtRp367
(dp368
g65
(dp369
g73
I3
ssg74
g363
sg67
(lp370
S''
asbasbasbag60
(g76
g62
NtRp371
(dp372
g65
(dp373
sg74
g262
sg67
(lp374
g60
(g81
g62
NtRp375
(dp376
g65
(dp377
g85
g86
ssg74
g371
sg67
(lp378
S'secure'
p379
asbag60
(g81
g62
NtRp380
(dp381
g65
(dp382
g92
g93
ssg74
g371
sg67
(lp383
S':'
asbag60
(g81
g62
NtRp384
(dp385
g65
(dp386
sg74
g371
sg67
(lp387
g60
(g61
g62
NtRp388
(dp389
g65
(dp390
g73
I3
ssg74
g384
sg67
(lp391
S''
asbasbasbag60
(g76
g62
NtRp392
(dp393
g65
(dp394
sg74
g262
sg67
(lp395
g60
(g81
g62
NtRp396
(dp397
g65
(dp398
g85
g86
ssg74
g392
sg67
(lp399
S'version'
p400
asbag60
(g81
g62
NtRp401
(dp402
g65
(dp403
g92
g93
ssg74
g392
sg67
(lp404
S':'
asbag60
(g81
g62
NtRp405
(dp406
g65
(dp407
sg74
g392
sg67
(lp408
g60
(g61
g62
NtRp409
(dp410
g65
(dp411
g73
I3
ssg74
g405
sg67
(lp412
S''
asbasbasbasbasbasbasbag60
(g76
g62
NtRp413
(dp414
g65
(dp415
sg74
g237
sg67
(lp416
g60
(g81
g62
NtRp417
(dp418
g65
(dp419
g85
g86
ssg74
g413
sg67
(lp420
S'session_id_cual_es_tu_nombre'
p421
asbag60
(g81
g62
NtRp422
(dp423
g65
(dp424
g92
g93
ssg74
g413
sg67
(lp425
S':'
asbag60
(g81
g62
NtRp426
(dp427
g65
(dp428
sg74
g413
sg67
(lp429
g60
(g61
g62
NtRp430
(dp431
g65
(dp432
g73
I4
ssg74
g426
sg67
(lp433
g60
(g69
g62
NtRp434
(dp435
g65
(dp436
g73
I3
ssg74
Nsg67
(lp437
g60
(g76
g62
NtRp438
(dp439
g65
(dp440
sg74
g434
sg67
(lp441
g60
(g81
g62
NtRp442
(dp443
g65
(dp444
g85
g86
ssg74
g438
sg67
(lp445
g274
asbag60
(g81
g62
NtRp446
(dp447
g65
(dp448
g92
g93
ssg74
g438
sg67
(lp449
S':'
asbag60
(g81
g62
NtRp450
(dp451
g65
(dp452
sg74
g438
sg67
(lp453
g60
(g61
g62
NtRp454
(dp455
g65
(dp456
g73
I3
ssg74
g450
sg67
(lp457
S''
asbasbasbag60
(g76
g62
NtRp458
(dp459
g65
(dp460
sg74
g434
sg67
(lp461
g60
(g81
g62
NtRp462
(dp463
g65
(dp464
g85
g86
ssg74
g458
sg67
(lp465
g295
asbag60
(g81
g62
NtRp466
(dp467
g65
(dp468
g92
g93
ssg74
g458
sg67
(lp469
S':'
asbag60
(g81
g62
NtRp470
(dp471
g65
(dp472
sg74
g458
sg67
(lp473
g60
(g61
g62
NtRp474
(dp475
g65
(dp476
g73
I3
ssg74
g470
sg67
(lp477
S''
asbasbasbag60
(g76
g62
NtRp478
(dp479
g65
(dp480
sg74
g434
sg67
(lp481
g60
(g81
g62
NtRp482
(dp483
g65
(dp484
g85
g86
ssg74
g478
sg67
(lp485
g316
asbag60
(g81
g62
NtRp486
(dp487
g65
(dp488
g92
g93
ssg74
g478
sg67
(lp489
S':'
asbag60
(g81
g62
NtRp490
(dp491
g65
(dp492
sg74
g478
sg67
(lp493
g60
(g61
g62
NtRp494
(dp495
g65
(dp496
g73
I3
ssg74
g490
sg67
(lp497
S''
asbasbasbag60
(g76
g62
NtRp498
(dp499
g65
(dp500
sg74
g434
sg67
(lp501
g60
(g81
g62
NtRp502
(dp503
g65
(dp504
g85
g86
ssg74
g498
sg67
(lp505
g337
asbag60
(g81
g62
NtRp506
(dp507
g65
(dp508
g92
g93
ssg74
g498
sg67
(lp509
S':'
asbag60
(g81
g62
NtRp510
(dp511
g65
(dp512
sg74
g498
sg67
(lp513
g60
(g61
g62
NtRp514
(dp515
g65
(dp516
g73
I3
ssg74
g510
sg67
(lp517
S''
asbasbasbag60
(g76
g62
NtRp518
(dp519
g65
(dp520
sg74
g434
sg67
(lp521
g60
(g81
g62
NtRp522
(dp523
g65
(dp524
g85
g86
ssg74
g518
sg67
(lp525
g358
asbag60
(g81
g62
NtRp526
(dp527
g65
(dp528
g92
g93
ssg74
g518
sg67
(lp529
S':'
asbag60
(g81
g62
NtRp530
(dp531
g65
(dp532
sg74
g518
sg67
(lp533
g60
(g61
g62
NtRp534
(dp535
g65
(dp536
g73
I3
ssg74
g530
sg67
(lp537
S''
asbasbasbag60
(g76
g62
NtRp538
(dp539
g65
(dp540
sg74
g434
sg67
(lp541
g60
(g81
g62
NtRp542
(dp543
g65
(dp544
g85
g86
ssg74
g538
sg67
(lp545
g379
asbag60
(g81
g62
NtRp546
(dp547
g65
(dp548
g92
g93
ssg74
g538
sg67
(lp549
S':'
asbag60
(g81
g62
NtRp550
(dp551
g65
(dp552
sg74
g538
sg67
(lp553
g60
(g61
g62
NtRp554
(dp555
g65
(dp556
g73
I3
ssg74
g550
sg67
(lp557
S''
asbasbasbag60
(g76
g62
NtRp558
(dp559
g65
(dp560
sg74
g434
sg67
(lp561
g60
(g81
g62
NtRp562
(dp563
g65
(dp564
g85
g86
ssg74
g558
sg67
(lp565
g400
asbag60
(g81
g62
NtRp566
(dp567
g65
(dp568
g92
g93
ssg74
g558
sg67
(lp569
S':'
asbag60
(g81
g62
NtRp570
(dp571
g65
(dp572
sg74
g558
sg67
(lp573
g60
(g61
g62
NtRp574
(dp575
g65
(dp576
g73
I3
ssg74
g570
sg67
(lp577
S''
asbasbasbasbasbasbasbag60
(g76
g62
NtRp578
(dp579
g65
(dp580
sg74
g237
sg67
(lp581
g60
(g81
g62
NtRp582
(dp583
g65
(dp584
g85
g86
ssg74
g578
sg67
(lp585
S'session_id_desglosar_emails'
p586
asbag60
(g81
g62
NtRp587
(dp588
g65
(dp589
g92
g93
ssg74
g578
sg67
(lp590
S':'
asbag60
(g81
g62
NtRp591
(dp592
g65
(dp593
sg74
g578
sg67
(lp594
g60
(g61
g62
NtRp595
(dp596
g65
(dp597
g73
I4
ssg74
g591
sg67
(lp598
g60
(g69
g62
NtRp599
(dp600
g65
(dp601
g73
I3
ssg74
Nsg67
(lp602
g60
(g76
g62
NtRp603
(dp604
g65
(dp605
sg74
g599
sg67
(lp606
g60
(g81
g62
NtRp607
(dp608
g65
(dp609
g85
g86
ssg74
g603
sg67
(lp610
g274
asbag60
(g81
g62
NtRp611
(dp612
g65
(dp613
g92
g93
ssg74
g603
sg67
(lp614
S':'
asbag60
(g81
g62
NtRp615
(dp616
g65
(dp617
sg74
g603
sg67
(lp618
g60
(g61
g62
NtRp619
(dp620
g65
(dp621
g73
I3
ssg74
g615
sg67
(lp622
S''
asbasbasbag60
(g76
g62
NtRp623
(dp624
g65
(dp625
sg74
g599
sg67
(lp626
g60
(g81
g62
NtRp627
(dp628
g65
(dp629
g85
g86
ssg74
g623
sg67
(lp630
g295
asbag60
(g81
g62
NtRp631
(dp632
g65
(dp633
g92
g93
ssg74
g623
sg67
(lp634
S':'
asbag60
(g81
g62
NtRp635
(dp636
g65
(dp637
sg74
g623
sg67
(lp638
g60
(g61
g62
NtRp639
(dp640
g65
(dp641
g73
I3
ssg74
g635
sg67
(lp642
S''
asbasbasbag60
(g76
g62
NtRp643
(dp644
g65
(dp645
sg74
g599
sg67
(lp646
g60
(g81
g62
NtRp647
(dp648
g65
(dp649
g85
g86
ssg74
g643
sg67
(lp650
g316
asbag60
(g81
g62
NtRp651
(dp652
g65
(dp653
g92
g93
ssg74
g643
sg67
(lp654
S':'
asbag60
(g81
g62
NtRp655
(dp656
g65
(dp657
sg74
g643
sg67
(lp658
g60
(g61
g62
NtRp659
(dp660
g65
(dp661
g73
I3
ssg74
g655
sg67
(lp662
S''
asbasbasbag60
(g76
g62
NtRp663
(dp664
g65
(dp665
sg74
g599
sg67
(lp666
g60
(g81
g62
NtRp667
(dp668
g65
(dp669
g85
g86
ssg74
g663
sg67
(lp670
g337
asbag60
(g81
g62
NtRp671
(dp672
g65
(dp673
g92
g93
ssg74
g663
sg67
(lp674
S':'
asbag60
(g81
g62
NtRp675
(dp676
g65
(dp677
sg74
g663
sg67
(lp678
g60
(g61
g62
NtRp679
(dp680
g65
(dp681
g73
I3
ssg74
g675
sg67
(lp682
S''
asbasbasbag60
(g76
g62
NtRp683
(dp684
g65
(dp685
sg74
g599
sg67
(lp686
g60
(g81
g62
NtRp687
(dp688
g65
(dp689
g85
g86
ssg74
g683
sg67
(lp690
g358
asbag60
(g81
g62
NtRp691
(dp692
g65
(dp693
g92
g93
ssg74
g683
sg67
(lp694
S':'
asbag60
(g81
g62
NtRp695
(dp696
g65
(dp697
sg74
g683
sg67
(lp698
g60
(g61
g62
NtRp699
(dp700
g65
(dp701
g73
I3
ssg74
g695
sg67
(lp702
S''
asbasbasbag60
(g76
g62
NtRp703
(dp704
g65
(dp705
sg74
g599
sg67
(lp706
g60
(g81
g62
NtRp707
(dp708
g65
(dp709
g85
g86
ssg74
g703
sg67
(lp710
g379
asbag60
(g81
g62
NtRp711
(dp712
g65
(dp713
g92
g93
ssg74
g703
sg67
(lp714
S':'
asbag60
(g81
g62
NtRp715
(dp716
g65
(dp717
sg74
g703
sg67
(lp718
g60
(g61
g62
NtRp719
(dp720
g65
(dp721
g73
I3
ssg74
g715
sg67
(lp722
S''
asbasbasbag60
(g76
g62
NtRp723
(dp724
g65
(dp725
sg74
g599
sg67
(lp726
g60
(g81
g62
NtRp727
(dp728
g65
(dp729
g85
g86
ssg74
g723
sg67
(lp730
g400
asbag60
(g81
g62
NtRp731
(dp732
g65
(dp733
g92
g93
ssg74
g723
sg67
(lp734
S':'
asbag60
(g81
g62
NtRp735
(dp736
g65
(dp737
sg74
g723
sg67
(lp738
g60
(g61
g62
NtRp739
(dp740
g65
(dp741
g73
I3
ssg74
g735
sg67
(lp742
S''
asbasbasbasbasbasbasbag60
(g76
g62
NtRp743
(dp744
g65
(dp745
sg74
g237
sg67
(lp746
g60
(g81
g62
NtRp747
(dp748
g65
(dp749
g85
g86
ssg74
g743
sg67
(lp750
S'session_id_hemoal'
p751
asbag60
(g81
g62
NtRp752
(dp753
g65
(dp754
g92
g93
ssg74
g743
sg67
(lp755
S':'
asbag60
(g81
g62
NtRp756
(dp757
g65
(dp758
sg74
g743
sg67
(lp759
g60
(g61
g62
NtRp760
(dp761
g65
(dp762
g73
I4
ssg74
g756
sg67
(lp763
g60
(g69
g62
NtRp764
(dp765
g65
(dp766
g73
I3
ssg74
Nsg67
(lp767
g60
(g76
g62
NtRp768
(dp769
g65
(dp770
sg74
g764
sg67
(lp771
g60
(g81
g62
NtRp772
(dp773
g65
(dp774
g85
g86
ssg74
g768
sg67
(lp775
g274
asbag60
(g81
g62
NtRp776
(dp777
g65
(dp778
g92
g93
ssg74
g768
sg67
(lp779
S':'
asbag60
(g81
g62
NtRp780
(dp781
g65
(dp782
sg74
g768
sg67
(lp783
g60
(g61
g62
NtRp784
(dp785
g65
(dp786
g73
I3
ssg74
g780
sg67
(lp787
S''
asbasbasbag60
(g76
g62
NtRp788
(dp789
g65
(dp790
sg74
g764
sg67
(lp791
g60
(g81
g62
NtRp792
(dp793
g65
(dp794
g85
g86
ssg74
g788
sg67
(lp795
g295
asbag60
(g81
g62
NtRp796
(dp797
g65
(dp798
g92
g93
ssg74
g788
sg67
(lp799
S':'
asbag60
(g81
g62
NtRp800
(dp801
g65
(dp802
sg74
g788
sg67
(lp803
g60
(g61
g62
NtRp804
(dp805
g65
(dp806
g73
I3
ssg74
g800
sg67
(lp807
S''
asbasbasbag60
(g76
g62
NtRp808
(dp809
g65
(dp810
sg74
g764
sg67
(lp811
g60
(g81
g62
NtRp812
(dp813
g65
(dp814
g85
g86
ssg74
g808
sg67
(lp815
g316
asbag60
(g81
g62
NtRp816
(dp817
g65
(dp818
g92
g93
ssg74
g808
sg67
(lp819
S':'
asbag60
(g81
g62
NtRp820
(dp821
g65
(dp822
sg74
g808
sg67
(lp823
g60
(g61
g62
NtRp824
(dp825
g65
(dp826
g73
I3
ssg74
g820
sg67
(lp827
S''
asbasbasbag60
(g76
g62
NtRp828
(dp829
g65
(dp830
sg74
g764
sg67
(lp831
g60
(g81
g62
NtRp832
(dp833
g65
(dp834
g85
g86
ssg74
g828
sg67
(lp835
g337
asbag60
(g81
g62
NtRp836
(dp837
g65
(dp838
g92
g93
ssg74
g828
sg67
(lp839
S':'
asbag60
(g81
g62
NtRp840
(dp841
g65
(dp842
sg74
g828
sg67
(lp843
g60
(g61
g62
NtRp844
(dp845
g65
(dp846
g73
I3
ssg74
g840
sg67
(lp847
S''
asbasbasbag60
(g76
g62
NtRp848
(dp849
g65
(dp850
sg74
g764
sg67
(lp851
g60
(g81
g62
NtRp852
(dp853
g65
(dp854
g85
g86
ssg74
g848
sg67
(lp855
g358
asbag60
(g81
g62
NtRp856
(dp857
g65
(dp858
g92
g93
ssg74
g848
sg67
(lp859
S':'
asbag60
(g81
g62
NtRp860
(dp861
g65
(dp862
sg74
g848
sg67
(lp863
g60
(g61
g62
NtRp864
(dp865
g65
(dp866
g73
I3
ssg74
g860
sg67
(lp867
S''
asbasbasbag60
(g76
g62
NtRp868
(dp869
g65
(dp870
sg74
g764
sg67
(lp871
g60
(g81
g62
NtRp872
(dp873
g65
(dp874
g85
g86
ssg74
g868
sg67
(lp875
g379
asbag60
(g81
g62
NtRp876
(dp877
g65
(dp878
g92
g93
ssg74
g868
sg67
(lp879
S':'
asbag60
(g81
g62
NtRp880
(dp881
g65
(dp882
sg74
g868
sg67
(lp883
g60
(g61
g62
NtRp884
(dp885
g65
(dp886
g73
I3
ssg74
g880
sg67
(lp887
S''
asbasbasbag60
(g76
g62
NtRp888
(dp889
g65
(dp890
sg74
g764
sg67
(lp891
g60
(g81
g62
NtRp892
(dp893
g65
(dp894
g85
g86
ssg74
g888
sg67
(lp895
g400
asbag60
(g81
g62
NtRp896
(dp897
g65
(dp898
g92
g93
ssg74
g888
sg67
(lp899
S':'
asbag60
(g81
g62
NtRp900
(dp901
g65
(dp902
sg74
g888
sg67
(lp903
g60
(g61
g62
NtRp904
(dp905
g65
(dp906
g73
I3
ssg74
g900
sg67
(lp907
S''
asbasbasbasbasbasbasbag60
(g76
g62
NtRp908
(dp909
g65
(dp910
sg74
g237
sg67
(lp911
g60
(g81
g62
NtRp912
(dp913
g65
(dp914
g85
g86
ssg74
g908
sg67
(lp915
S'session_id_listado_1'
p916
asbag60
(g81
g62
NtRp917
(dp918
g65
(dp919
g92
g93
ssg74
g908
sg67
(lp920
S':'
asbag60
(g81
g62
NtRp921
(dp922
g65
(dp923
sg74
g908
sg67
(lp924
g60
(g61
g62
NtRp925
(dp926
g65
(dp927
g73
I4
ssg74
g921
sg67
(lp928
g60
(g69
g62
NtRp929
(dp930
g65
(dp931
g73
I3
ssg74
Nsg67
(lp932
g60
(g76
g62
NtRp933
(dp934
g65
(dp935
sg74
g929
sg67
(lp936
g60
(g81
g62
NtRp937
(dp938
g65
(dp939
g85
g86
ssg74
g933
sg67
(lp940
g274
asbag60
(g81
g62
NtRp941
(dp942
g65
(dp943
g92
g93
ssg74
g933
sg67
(lp944
S':'
asbag60
(g81
g62
NtRp945
(dp946
g65
(dp947
sg74
g933
sg67
(lp948
g60
(g61
g62
NtRp949
(dp950
g65
(dp951
g73
I3
ssg74
g945
sg67
(lp952
S''
asbasbasbag60
(g76
g62
NtRp953
(dp954
g65
(dp955
sg74
g929
sg67
(lp956
g60
(g81
g62
NtRp957
(dp958
g65
(dp959
g85
g86
ssg74
g953
sg67
(lp960
g295
asbag60
(g81
g62
NtRp961
(dp962
g65
(dp963
g92
g93
ssg74
g953
sg67
(lp964
S':'
asbag60
(g81
g62
NtRp965
(dp966
g65
(dp967
sg74
g953
sg67
(lp968
g60
(g61
g62
NtRp969
(dp970
g65
(dp971
g73
I3
ssg74
g965
sg67
(lp972
S''
asbasbasbag60
(g76
g62
NtRp973
(dp974
g65
(dp975
sg74
g929
sg67
(lp976
g60
(g81
g62
NtRp977
(dp978
g65
(dp979
g85
g86
ssg74
g973
sg67
(lp980
g316
asbag60
(g81
g62
NtRp981
(dp982
g65
(dp983
g92
g93
ssg74
g973
sg67
(lp984
S':'
asbag60
(g81
g62
NtRp985
(dp986
g65
(dp987
sg74
g973
sg67
(lp988
g60
(g61
g62
NtRp989
(dp990
g65
(dp991
g73
I3
ssg74
g985
sg67
(lp992
S''
asbasbasbag60
(g76
g62
NtRp993
(dp994
g65
(dp995
sg74
g929
sg67
(lp996
g60
(g81
g62
NtRp997
(dp998
g65
(dp999
g85
g86
ssg74
g993
sg67
(lp1000
g337
asbag60
(g81
g62
NtRp1001
(dp1002
g65
(dp1003
g92
g93
ssg74
g993
sg67
(lp1004
S':'
asbag60
(g81
g62
NtRp1005
(dp1006
g65
(dp1007
sg74
g993
sg67
(lp1008
g60
(g61
g62
NtRp1009
(dp1010
g65
(dp1011
g73
I3
ssg74
g1005
sg67
(lp1012
S''
asbasbasbag60
(g76
g62
NtRp1013
(dp1014
g65
(dp1015
sg74
g929
sg67
(lp1016
g60
(g81
g62
NtRp1017
(dp1018
g65
(dp1019
g85
g86
ssg74
g1013
sg67
(lp1020
g358
asbag60
(g81
g62
NtRp1021
(dp1022
g65
(dp1023
g92
g93
ssg74
g1013
sg67
(lp1024
S':'
asbag60
(g81
g62
NtRp1025
(dp1026
g65
(dp1027
sg74
g1013
sg67
(lp1028
g60
(g61
g62
NtRp1029
(dp1030
g65
(dp1031
g73
I3
ssg74
g1025
sg67
(lp1032
S''
asbasbasbag60
(g76
g62
NtRp1033
(dp1034
g65
(dp1035
sg74
g929
sg67
(lp1036
g60
(g81
g62
NtRp1037
(dp1038
g65
(dp1039
g85
g86
ssg74
g1033
sg67
(lp1040
g379
asbag60
(g81
g62
NtRp1041
(dp1042
g65
(dp1043
g92
g93
ssg74
g1033
sg67
(lp1044
S':'
asbag60
(g81
g62
NtRp1045
(dp1046
g65
(dp1047
sg74
g1033
sg67
(lp1048
g60
(g61
g62
NtRp1049
(dp1050
g65
(dp1051
g73
I3
ssg74
g1045
sg67
(lp1052
S''
asbasbasbag60
(g76
g62
NtRp1053
(dp1054
g65
(dp1055
sg74
g929
sg67
(lp1056
g60
(g81
g62
NtRp1057
(dp1058
g65
(dp1059
g85
g86
ssg74
g1053
sg67
(lp1060
g400
asbag60
(g81
g62
NtRp1061
(dp1062
g65
(dp1063
g92
g93
ssg74
g1053
sg67
(lp1064
S':'
asbag60
(g81
g62
NtRp1065
(dp1066
g65
(dp1067
sg74
g1053
sg67
(lp1068
g60
(g61
g62
NtRp1069
(dp1070
g65
(dp1071
g73
I3
ssg74
g1065
sg67
(lp1072
S''
asbasbasbasbasbasbasbag60
(g76
g62
NtRp1073
(dp1074
g65
(dp1075
sg74
g237
sg67
(lp1076
g60
(g81
g62
NtRp1077
(dp1078
g65
(dp1079
g85
g86
ssg74
g1073
sg67
(lp1080
S'session_id_myappjav'
p1081
asbag60
(g81
g62
NtRp1082
(dp1083
g65
(dp1084
g92
g93
ssg74
g1073
sg67
(lp1085
S':'
asbag60
(g81
g62
NtRp1086
(dp1087
g65
(dp1088
sg74
g1073
sg67
(lp1089
g60
(g61
g62
NtRp1090
(dp1091
g65
(dp1092
g73
I4
ssg74
g1086
sg67
(lp1093
g60
(g69
g62
NtRp1094
(dp1095
g65
(dp1096
g73
I3
ssg74
Nsg67
(lp1097
g60
(g76
g62
NtRp1098
(dp1099
g65
(dp1100
sg74
g1094
sg67
(lp1101
g60
(g81
g62
NtRp1102
(dp1103
g65
(dp1104
g85
g86
ssg74
g1098
sg67
(lp1105
g274
asbag60
(g81
g62
NtRp1106
(dp1107
g65
(dp1108
g92
g93
ssg74
g1098
sg67
(lp1109
S':'
asbag60
(g81
g62
NtRp1110
(dp1111
g65
(dp1112
sg74
g1098
sg67
(lp1113
g60
(g61
g62
NtRp1114
(dp1115
g65
(dp1116
g73
I3
ssg74
g1110
sg67
(lp1117
S''
asbasbasbag60
(g76
g62
NtRp1118
(dp1119
g65
(dp1120
sg74
g1094
sg67
(lp1121
g60
(g81
g62
NtRp1122
(dp1123
g65
(dp1124
g85
g86
ssg74
g1118
sg67
(lp1125
g295
asbag60
(g81
g62
NtRp1126
(dp1127
g65
(dp1128
g92
g93
ssg74
g1118
sg67
(lp1129
S':'
asbag60
(g81
g62
NtRp1130
(dp1131
g65
(dp1132
sg74
g1118
sg67
(lp1133
g60
(g61
g62
NtRp1134
(dp1135
g65
(dp1136
g73
I3
ssg74
g1130
sg67
(lp1137
S''
asbasbasbag60
(g76
g62
NtRp1138
(dp1139
g65
(dp1140
sg74
g1094
sg67
(lp1141
g60
(g81
g62
NtRp1142
(dp1143
g65
(dp1144
g85
g86
ssg74
g1138
sg67
(lp1145
g316
asbag60
(g81
g62
NtRp1146
(dp1147
g65
(dp1148
g92
g93
ssg74
g1138
sg67
(lp1149
S':'
asbag60
(g81
g62
NtRp1150
(dp1151
g65
(dp1152
sg74
g1138
sg67
(lp1153
g60
(g61
g62
NtRp1154
(dp1155
g65
(dp1156
g73
I3
ssg74
g1150
sg67
(lp1157
S''
asbasbasbag60
(g76
g62
NtRp1158
(dp1159
g65
(dp1160
sg74
g1094
sg67
(lp1161
g60
(g81
g62
NtRp1162
(dp1163
g65
(dp1164
g85
g86
ssg74
g1158
sg67
(lp1165
g337
asbag60
(g81
g62
NtRp1166
(dp1167
g65
(dp1168
g92
g93
ssg74
g1158
sg67
(lp1169
S':'
asbag60
(g81
g62
NtRp1170
(dp1171
g65
(dp1172
sg74
g1158
sg67
(lp1173
g60
(g61
g62
NtRp1174
(dp1175
g65
(dp1176
g73
I3
ssg74
g1170
sg67
(lp1177
S''
asbasbasbag60
(g76
g62
NtRp1178
(dp1179
g65
(dp1180
sg74
g1094
sg67
(lp1181
g60
(g81
g62
NtRp1182
(dp1183
g65
(dp1184
g85
g86
ssg74
g1178
sg67
(lp1185
g358
asbag60
(g81
g62
NtRp1186
(dp1187
g65
(dp1188
g92
g93
ssg74
g1178
sg67
(lp1189
S':'
asbag60
(g81
g62
NtRp1190
(dp1191
g65
(dp1192
sg74
g1178
sg67
(lp1193
g60
(g61
g62
NtRp1194
(dp1195
g65
(dp1196
g73
I3
ssg74
g1190
sg67
(lp1197
S''
asbasbasbag60
(g76
g62
NtRp1198
(dp1199
g65
(dp1200
sg74
g1094
sg67
(lp1201
g60
(g81
g62
NtRp1202
(dp1203
g65
(dp1204
g85
g86
ssg74
g1198
sg67
(lp1205
g379
asbag60
(g81
g62
NtRp1206
(dp1207
g65
(dp1208
g92
g93
ssg74
g1198
sg67
(lp1209
S':'
asbag60
(g81
g62
NtRp1210
(dp1211
g65
(dp1212
sg74
g1198
sg67
(lp1213
g60
(g61
g62
NtRp1214
(dp1215
g65
(dp1216
g73
I3
ssg74
g1210
sg67
(lp1217
S''
asbasbasbag60
(g76
g62
NtRp1218
(dp1219
g65
(dp1220
sg74
g1094
sg67
(lp1221
g60
(g81
g62
NtRp1222
(dp1223
g65
(dp1224
g85
g86
ssg74
g1218
sg67
(lp1225
g400
asbag60
(g81
g62
NtRp1226
(dp1227
g65
(dp1228
g92
g93
ssg74
g1218
sg67
(lp1229
S':'
asbag60
(g81
g62
NtRp1230
(dp1231
g65
(dp1232
sg74
g1218
sg67
(lp1233
g60
(g61
g62
NtRp1234
(dp1235
g65
(dp1236
g73
I3
ssg74
g1230
sg67
(lp1237
S''
asbasbasbasbasbasbasbag60
(g76
g62
NtRp1238
(dp1239
g65
(dp1240
sg74
g237
sg67
(lp1241
g60
(g81
g62
NtRp1242
(dp1243
g65
(dp1244
g85
g86
ssg74
g1238
sg67
(lp1245
S'session_id_welcome'
p1246
asbag60
(g81
g62
NtRp1247
(dp1248
g65
(dp1249
g92
g93
ssg74
g1238
sg67
(lp1250
S':'
asbag60
(g81
g62
NtRp1251
(dp1252
g65
(dp1253
sg74
g1238
sg67
(lp1254
g60
(g61
g62
NtRp1255
(dp1256
g65
(dp1257
g73
I4
ssg74
g1251
sg67
(lp1258
g60
(g69
g62
NtRp1259
(dp1260
g65
(dp1261
g73
I3
ssg74
Nsg67
(lp1262
g60
(g76
g62
NtRp1263
(dp1264
g65
(dp1265
sg74
g1259
sg67
(lp1266
g60
(g81
g62
NtRp1267
(dp1268
g65
(dp1269
g85
g86
ssg74
g1263
sg67
(lp1270
g274
asbag60
(g81
g62
NtRp1271
(dp1272
g65
(dp1273
g92
g93
ssg74
g1263
sg67
(lp1274
S':'
asbag60
(g81
g62
NtRp1275
(dp1276
g65
(dp1277
sg74
g1263
sg67
(lp1278
g60
(g61
g62
NtRp1279
(dp1280
g65
(dp1281
g73
I3
ssg74
g1275
sg67
(lp1282
S''
asbasbasbag60
(g76
g62
NtRp1283
(dp1284
g65
(dp1285
sg74
g1259
sg67
(lp1286
g60
(g81
g62
NtRp1287
(dp1288
g65
(dp1289
g85
g86
ssg74
g1283
sg67
(lp1290
g295
asbag60
(g81
g62
NtRp1291
(dp1292
g65
(dp1293
g92
g93
ssg74
g1283
sg67
(lp1294
S':'
asbag60
(g81
g62
NtRp1295
(dp1296
g65
(dp1297
sg74
g1283
sg67
(lp1298
g60
(g61
g62
NtRp1299
(dp1300
g65
(dp1301
g73
I3
ssg74
g1295
sg67
(lp1302
S''
asbasbasbag60
(g76
g62
NtRp1303
(dp1304
g65
(dp1305
sg74
g1259
sg67
(lp1306
g60
(g81
g62
NtRp1307
(dp1308
g65
(dp1309
g85
g86
ssg74
g1303
sg67
(lp1310
g316
asbag60
(g81
g62
NtRp1311
(dp1312
g65
(dp1313
g92
g93
ssg74
g1303
sg67
(lp1314
S':'
asbag60
(g81
g62
NtRp1315
(dp1316
g65
(dp1317
sg74
g1303
sg67
(lp1318
g60
(g61
g62
NtRp1319
(dp1320
g65
(dp1321
g73
I3
ssg74
g1315
sg67
(lp1322
S''
asbasbasbag60
(g76
g62
NtRp1323
(dp1324
g65
(dp1325
sg74
g1259
sg67
(lp1326
g60
(g81
g62
NtRp1327
(dp1328
g65
(dp1329
g85
g86
ssg74
g1323
sg67
(lp1330
g337
asbag60
(g81
g62
NtRp1331
(dp1332
g65
(dp1333
g92
g93
ssg74
g1323
sg67
(lp1334
S':'
asbag60
(g81
g62
NtRp1335
(dp1336
g65
(dp1337
sg74
g1323
sg67
(lp1338
g60
(g61
g62
NtRp1339
(dp1340
g65
(dp1341
g73
I3
ssg74
g1335
sg67
(lp1342
S''
asbasbasbag60
(g76
g62
NtRp1343
(dp1344
g65
(dp1345
sg74
g1259
sg67
(lp1346
g60
(g81
g62
NtRp1347
(dp1348
g65
(dp1349
g85
g86
ssg74
g1343
sg67
(lp1350
g358
asbag60
(g81
g62
NtRp1351
(dp1352
g65
(dp1353
g92
g93
ssg74
g1343
sg67
(lp1354
S':'
asbag60
(g81
g62
NtRp1355
(dp1356
g65
(dp1357
sg74
g1343
sg67
(lp1358
g60
(g61
g62
NtRp1359
(dp1360
g65
(dp1361
g73
I3
ssg74
g1355
sg67
(lp1362
S''
asbasbasbag60
(g76
g62
NtRp1363
(dp1364
g65
(dp1365
sg74
g1259
sg67
(lp1366
g60
(g81
g62
NtRp1367
(dp1368
g65
(dp1369
g85
g86
ssg74
g1363
sg67
(lp1370
g379
asbag60
(g81
g62
NtRp1371
(dp1372
g65
(dp1373
g92
g93
ssg74
g1363
sg67
(lp1374
S':'
asbag60
(g81
g62
NtRp1375
(dp1376
g65
(dp1377
sg74
g1363
sg67
(lp1378
g60
(g61
g62
NtRp1379
(dp1380
g65
(dp1381
g73
I3
ssg74
g1375
sg67
(lp1382
S''
asbasbasbag60
(g76
g62
NtRp1383
(dp1384
g65
(dp1385
sg74
g1259
sg67
(lp1386
g60
(g81
g62
NtRp1387
(dp1388
g65
(dp1389
g85
g86
ssg74
g1383
sg67
(lp1390
g400
asbag60
(g81
g62
NtRp1391
(dp1392
g65
(dp1393
g92
g93
ssg74
g1383
sg67
(lp1394
S':'
asbag60
(g81
g62
NtRp1395
(dp1396
g65
(dp1397
sg74
g1383
sg67
(lp1398
g60
(g61
g62
NtRp1399
(dp1400
g65
(dp1401
g73
I3
ssg74
g1395
sg67
(lp1402
S''
asbasbasbasbasbasbasbasbasbasbasbag60
(g76
g62
NtRp1403
(dp1404
g65
(dp1405
sg74
g70
sg67
(lp1406
g60
(g81
g62
NtRp1407
(dp1408
g65
(dp1409
g85
g86
ssg74
g1403
sg67
(lp1410
S'env'
p1411
asbag60
(g81
g62
NtRp1412
(dp1413
g65
(dp1414
g92
g93
ssg74
g1403
sg67
(lp1415
S':'
asbag60
(g81
g62
NtRp1416
(dp1417
g65
(dp1418
sg74
g1403
sg67
(lp1419
g60
(g61
g62
NtRp1420
(dp1421
g65
(dp1422
g73
I5
ssg74
g1416
sg67
(lp1423
g60
(g69
g62
NtRp1424
(dp1425
g65
(dp1426
g73
I4
ssg74
Nsg67
(lp1427
g60
(g76
g62
NtRp1428
(dp1429
g65
(dp1430
sg74
g1424
sg67
(lp1431
g60
(g81
g62
NtRp1432
(dp1433
g65
(dp1434
g85
g86
ssg74
g1428
sg67
(lp1435
S'app_folders'
p1436
asbag60
(g81
g62
NtRp1437
(dp1438
g65
(dp1439
g92
g93
ssg74
g1428
sg67
(lp1440
S':'
asbag60
(g81
g62
NtRp1441
(dp1442
g65
(dp1443
sg74
g1428
sg67
(lp1444
g60
(g61
g62
NtRp1445
(dp1446
g65
(dp1447
g73
I4
ssg74
g1441
sg67
(lp1448
S"set(['C:\\\\Users\\\\Atomico\\\\web2py\\\\applications\\\\Desglosar_Emails\\\\', 'C:\\\\Users\\\\Atomico\\\\web2py\\\\applications\\\\Cual_es_tu_nombre\\\\', 'C:\\\\Users\\\\Atomico\\\\web2py\\\\applications\\\\admin\\\\', 'C:\\\\Users\\\\Atomico\\\\web2py\\\\applications\\\\hemoal\\\\', 'C:\\\\Users\\\\Atomico\\\\web2py\\\\applications\\\\myAppJav\\\\', 'C:\\\\Users\\\\Atomico\\\\web2py\\\\applications\\\\welcome\\\\', 'C:\\\\Users\\\\Atomico\\\\web2py\\\\applications\\\\examples\\\\'])"
p1449
asbasbasbag60
(g76
g62
NtRp1450
(dp1451
g65
(dp1452
sg74
g1424
sg67
(lp1453
g60
(g81
g62
NtRp1454
(dp1455
g65
(dp1456
g85
g86
ssg74
g1450
sg67
(lp1457
S'applications_parent'
p1458
asbag60
(g81
g62
NtRp1459
(dp1460
g65
(dp1461
g92
g93
ssg74
g1450
sg67
(lp1462
S':'
asbag60
(g81
g62
NtRp1463
(dp1464
g65
(dp1465
sg74
g1450
sg67
(lp1466
g60
(g61
g62
NtRp1467
(dp1468
g65
(dp1469
g73
I4
ssg74
g1463
sg67
(lp1470
S'C:\\Users\\Atomico\\web2py'
p1471
asbasbasbag60
(g76
g62
NtRp1472
(dp1473
g65
(dp1474
sg74
g1424
sg67
(lp1475
g60
(g81
g62
NtRp1476
(dp1477
g65
(dp1478
g85
g86
ssg74
g1472
sg67
(lp1479
S'cmd_args'
p1480
asbag60
(g81
g62
NtRp1481
(dp1482
g65
(dp1483
g92
g93
ssg74
g1472
sg67
(lp1484
S':'
asbag60
(g81
g62
NtRp1485
(dp1486
g65
(dp1487
sg74
g1472
sg67
(lp1488
g60
(g61
g62
NtRp1489
(dp1490
g65
(dp1491
g73
I4
ssg74
g1485
sg67
(lp1492
g60
(g69
g62
NtRp1493
(dp1494
g65
(dp1495
g73
I3
ssg74
Nsg67
(lp1496
sbasbasbasbag60
(g76
g62
NtRp1497
(dp1498
g65
(dp1499
sg74
g1424
sg67
(lp1500
g60
(g81
g62
NtRp1501
(dp1502
g65
(dp1503
g85
g86
ssg74
g1497
sg67
(lp1504
S'cmd_options'
p1505
asbag60
(g81
g62
NtRp1506
(dp1507
g65
(dp1508
g92
g93
ssg74
g1497
sg67
(lp1509
S':'
asbag60
(g81
g62
NtRp1510
(dp1511
g65
(dp1512
sg74
g1497
sg67
(lp1513
g60
(g61
g62
NtRp1514
(dp1515
g65
(dp1516
g73
I4
ssg74
g1510
sg67
(lp1517
S"<Values at 0x306b620: {'verbose': False, 'ip': '127.0.0.1', 'shutdown_timeout': 5, 'taskbar': False, 'port': 8000, 'maxthreads': None, 'softcron': False, 'server_name': 'Swing', 'bpython': False, 'nogui': False, 'nocron': False, 'extcron': False, 'debuglevel': 30, 'test': None, 'folder': 'C:\\\\Users\\\\Atomico\\\\web2py', 'config': '', 'import_models': False, 'winservice': '', 'shell': None, 'run': '', 'log_filename': 'httpserver.log', 'args': [''], 'profiler_filename': None, 'ssl_private_key': '', 'password': '<ask>', 'request_queue_size': 5, 'ssl_certificate': '', 'cronjob': False, 'plain': False, 'quiet': False, 'interfaces': None, 'minthreads': None, 'timeout': 10, 'numthreads': None, 'nobanner': False, 'pid_filename': 'httpserver.pid'}>"
p1518
asbasbasbag60
(g76
g62
NtRp1519
(dp1520
g65
(dp1521
sg74
g1424
sg67
(lp1522
g60
(g81
g62
NtRp1523
(dp1524
g65
(dp1525
g85
g86
ssg74
g1519
sg67
(lp1526
S'content_length'
p1527
asbag60
(g81
g62
NtRp1528
(dp1529
g65
(dp1530
g92
g93
ssg74
g1519
sg67
(lp1531
S':'
asbag60
(g81
g62
NtRp1532
(dp1533
g65
(dp1534
sg74
g1519
sg67
(lp1535
g60
(g61
g62
NtRp1536
(dp1537
g65
(dp1538
g73
I4
ssg74
g1532
sg67
(lp1539
S'484'
p1540
asbasbasbag60
(g76
g62
NtRp1541
(dp1542
g65
(dp1543
sg74
g1424
sg67
(lp1544
g60
(g81
g62
NtRp1545
(dp1546
g65
(dp1547
g85
g86
ssg74
g1541
sg67
(lp1548
S'content_type'
p1549
asbag60
(g81
g62
NtRp1550
(dp1551
g65
(dp1552
g92
g93
ssg74
g1541
sg67
(lp1553
S':'
asbag60
(g81
g62
NtRp1554
(dp1555
g65
(dp1556
sg74
g1541
sg67
(lp1557
g60
(g61
g62
NtRp1558
(dp1559
g65
(dp1560
g73
I4
ssg74
g1554
sg67
(lp1561
S'multipart/form-data; boundary=---------------------------2192215857755'
p1562
asbasbasbag60
(g76
g62
NtRp1563
(dp1564
g65
(dp1565
sg74
g1424
sg67
(lp1566
g60
(g81
g62
NtRp1567
(dp1568
g65
(dp1569
g85
g86
ssg74
g1563
sg67
(lp1570
S'db_sessions'
p1571
asbag60
(g81
g62
NtRp1572
(dp1573
g65
(dp1574
g92
g93
ssg74
g1563
sg67
(lp1575
S':'
asbag60
(g81
g62
NtRp1576
(dp1577
g65
(dp1578
sg74
g1563
sg67
(lp1579
g60
(g61
g62
NtRp1580
(dp1581
g65
(dp1582
g73
I4
ssg74
g1576
sg67
(lp1583
S'set([])'
p1584
asbasbasbag60
(g76
g62
NtRp1585
(dp1586
g65
(dp1587
sg74
g1424
sg67
(lp1588
g60
(g81
g62
NtRp1589
(dp1590
g65
(dp1591
g85
g86
ssg74
g1585
sg67
(lp1592
S'debugging'
p1593
asbag60
(g81
g62
NtRp1594
(dp1595
g65
(dp1596
g92
g93
ssg74
g1585
sg67
(lp1597
S':'
asbag60
(g81
g62
NtRp1598
(dp1599
g65
(dp1600
sg74
g1585
sg67
(lp1601
g60
(g61
g62
NtRp1602
(dp1603
g65
(dp1604
g73
I4
ssg74
g1598
sg67
(lp1605
g103
asbasbasbag60
(g76
g62
NtRp1606
(dp1607
g65
(dp1608
sg74
g1424
sg67
(lp1609
g60
(g81
g62
NtRp1610
(dp1611
g65
(dp1612
g85
g86
ssg74
g1606
sg67
(lp1613
S'gluon_parent'
p1614
asbag60
(g81
g62
NtRp1615
(dp1616
g65
(dp1617
g92
g93
ssg74
g1606
sg67
(lp1618
S':'
asbag60
(g81
g62
NtRp1619
(dp1620
g65
(dp1621
sg74
g1606
sg67
(lp1622
g60
(g61
g62
NtRp1623
(dp1624
g65
(dp1625
g73
I4
ssg74
g1619
sg67
(lp1626
S'C:\\Users\\Atomico\\web2py'
p1627
asbasbasbag60
(g76
g62
NtRp1628
(dp1629
g65
(dp1630
sg74
g1424
sg67
(lp1631
g60
(g81
g62
NtRp1632
(dp1633
g65
(dp1634
g85
g86
ssg74
g1628
sg67
(lp1635
S'http_accept'
p1636
asbag60
(g81
g62
NtRp1637
(dp1638
g65
(dp1639
g92
g93
ssg74
g1628
sg67
(lp1640
S':'
asbag60
(g81
g62
NtRp1641
(dp1642
g65
(dp1643
sg74
g1628
sg67
(lp1644
g60
(g61
g62
NtRp1645
(dp1646
g65
(dp1647
g73
I4
ssg74
g1641
sg67
(lp1648
S'text/html,application/xhtml+xml,application/xml;q=0.9,*/*;q=0.8'
p1649
asbasbasbag60
(g76
g62
NtRp1650
(dp1651
g65
(dp1652
sg74
g1424
sg67
(lp1653
g60
(g81
g62
NtRp1654
(dp1655
g65
(dp1656
g85
g86
ssg74
g1650
sg67
(lp1657
S'http_accept_charset'
p1658
asbag60
(g81
g62
NtRp1659
(dp1660
g65
(dp1661
g92
g93
ssg74
g1650
sg67
(lp1662
S':'
asbag60
(g81
g62
NtRp1663
(dp1664
g65
(dp1665
sg74
g1650
sg67
(lp1666
g60
(g61
g62
NtRp1667
(dp1668
g65
(dp1669
g73
I4
ssg74
g1663
sg67
(lp1670
S'ISO-8859-1,utf-8;q=0.7,*;q=0.7'
p1671
asbasbasbag60
(g76
g62
NtRp1672
(dp1673
g65
(dp1674
sg74
g1424
sg67
(lp1675
g60
(g81
g62
NtRp1676
(dp1677
g65
(dp1678
g85
g86
ssg74
g1672
sg67
(lp1679
S'http_accept_encoding'
p1680
asbag60
(g81
g62
NtRp1681
(dp1682
g65
(dp1683
g92
g93
ssg74
g1672
sg67
(lp1684
S':'
asbag60
(g81
g62
NtRp1685
(dp1686
g65
(dp1687
sg74
g1672
sg67
(lp1688
g60
(g61
g62
NtRp1689
(dp1690
g65
(dp1691
g73
I4
ssg74
g1685
sg67
(lp1692
S'gzip, deflate'
p1693
asbasbasbag60
(g76
g62
NtRp1694
(dp1695
g65
(dp1696
sg74
g1424
sg67
(lp1697
g60
(g81
g62
NtRp1698
(dp1699
g65
(dp1700
g85
g86
ssg74
g1694
sg67
(lp1701
S'http_accept_language'
p1702
asbag60
(g81
g62
NtRp1703
(dp1704
g65
(dp1705
g92
g93
ssg74
g1694
sg67
(lp1706
S':'
asbag60
(g81
g62
NtRp1707
(dp1708
g65
(dp1709
sg74
g1694
sg67
(lp1710
g60
(g61
g62
NtRp1711
(dp1712
g65
(dp1713
g73
I4
ssg74
g1707
sg67
(lp1714
S'es-es,es;q=0.8,en-us;q=0.5,en;q=0.3'
p1715
asbasbasbag60
(g76
g62
NtRp1716
(dp1717
g65
(dp1718
sg74
g1424
sg67
(lp1719
g60
(g81
g62
NtRp1720
(dp1721
g65
(dp1722
g85
g86
ssg74
g1716
sg67
(lp1723
S'http_cache_control'
p1724
asbag60
(g81
g62
NtRp1725
(dp1726
g65
(dp1727
g92
g93
ssg74
g1716
sg67
(lp1728
S':'
asbag60
(g81
g62
NtRp1729
(dp1730
g65
(dp1731
sg74
g1716
sg67
(lp1732
g60
(g61
g62
NtRp1733
(dp1734
g65
(dp1735
g73
I4
ssg74
g1729
sg67
(lp1736
S'max-age=0'
p1737
asbasbasbag60
(g76
g62
NtRp1738
(dp1739
g65
(dp1740
sg74
g1424
sg67
(lp1741
g60
(g81
g62
NtRp1742
(dp1743
g65
(dp1744
g85
g86
ssg74
g1738
sg67
(lp1745
S'http_connection'
p1746
asbag60
(g81
g62
NtRp1747
(dp1748
g65
(dp1749
g92
g93
ssg74
g1738
sg67
(lp1750
S':'
asbag60
(g81
g62
NtRp1751
(dp1752
g65
(dp1753
sg74
g1738
sg67
(lp1754
g60
(g61
g62
NtRp1755
(dp1756
g65
(dp1757
g73
I4
ssg74
g1751
sg67
(lp1758
S'keep-alive'
p1759
asbasbasbag60
(g76
g62
NtRp1760
(dp1761
g65
(dp1762
sg74
g1424
sg67
(lp1763
g60
(g81
g62
NtRp1764
(dp1765
g65
(dp1766
g85
g86
ssg74
g1760
sg67
(lp1767
S'http_content_length'
p1768
asbag60
(g81
g62
NtRp1769
(dp1770
g65
(dp1771
g92
g93
ssg74
g1760
sg67
(lp1772
S':'
asbag60
(g81
g62
NtRp1773
(dp1774
g65
(dp1775
sg74
g1760
sg67
(lp1776
g60
(g61
g62
NtRp1777
(dp1778
g65
(dp1779
g73
I4
ssg74
g1773
sg67
(lp1780
g1540
asbasbasbag60
(g76
g62
NtRp1781
(dp1782
g65
(dp1783
sg74
g1424
sg67
(lp1784
g60
(g81
g62
NtRp1785
(dp1786
g65
(dp1787
g85
g86
ssg74
g1781
sg67
(lp1788
S'http_content_type'
p1789
asbag60
(g81
g62
NtRp1790
(dp1791
g65
(dp1792
g92
g93
ssg74
g1781
sg67
(lp1793
S':'
asbag60
(g81
g62
NtRp1794
(dp1795
g65
(dp1796
sg74
g1781
sg67
(lp1797
g60
(g61
g62
NtRp1798
(dp1799
g65
(dp1800
g73
I4
ssg74
g1794
sg67
(lp1801
g1562
asbasbasbag60
(g76
g62
NtRp1802
(dp1803
g65
(dp1804
sg74
g1424
sg67
(lp1805
g60
(g81
g62
NtRp1806
(dp1807
g65
(dp1808
g85
g86
ssg74
g1802
sg67
(lp1809
S'http_cookie'
p1810
asbag60
(g81
g62
NtRp1811
(dp1812
g65
(dp1813
g92
g93
ssg74
g1802
sg67
(lp1814
S':'
asbag60
(g81
g62
NtRp1815
(dp1816
g65
(dp1817
sg74
g1802
sg67
(lp1818
g60
(g61
g62
NtRp1819
(dp1820
g65
(dp1821
g73
I4
ssg74
g1815
sg67
(lp1822
S'session_id_welcome=127.0.0.1-082a2830-9bb6-4bfb-b2e2-4857b06c191e; session_id_admin=127.0.0.1-a96e0cfe-5117-4d37-8e25-f7dd128ab504; session_id_listado_1=127.0.0.1-477ec098-5436-4f6e-bfee-1a0bd88f6f9e; session_id_desglosar_emails=127.0.0.1-0a11b3b2-660c-433c-b71f-fc129286f26c; session_id_hemoal=127.0.0.1-442afb36-a73d-4692-979c-372017ada9e5; session_id_myappjav=127.0.0.1-b6da3776-a7b2-40a7-ab82-4eca2d3263a1; session_id_cual_es_tu_nombre=127.0.0.1-5e59e375-704d-4241-8b9c-5fd9f8c15773'
p1823
asbasbasbag60
(g76
g62
NtRp1824
(dp1825
g65
(dp1826
sg74
g1424
sg67
(lp1827
g60
(g81
g62
NtRp1828
(dp1829
g65
(dp1830
g85
g86
ssg74
g1824
sg67
(lp1831
S'http_host'
p1832
asbag60
(g81
g62
NtRp1833
(dp1834
g65
(dp1835
g92
g93
ssg74
g1824
sg67
(lp1836
S':'
asbag60
(g81
g62
NtRp1837
(dp1838
g65
(dp1839
sg74
g1824
sg67
(lp1840
g60
(g61
g62
NtRp1841
(dp1842
g65
(dp1843
g73
I4
ssg74
g1837
sg67
(lp1844
S'127.0.0.1:8000'
p1845
asbasbasbag60
(g76
g62
NtRp1846
(dp1847
g65
(dp1848
sg74
g1424
sg67
(lp1849
g60
(g81
g62
NtRp1850
(dp1851
g65
(dp1852
g85
g86
ssg74
g1846
sg67
(lp1853
S'http_referer'
p1854
asbag60
(g81
g62
NtRp1855
(dp1856
g65
(dp1857
g92
g93
ssg74
g1846
sg67
(lp1858
S':'
asbag60
(g81
g62
NtRp1859
(dp1860
g65
(dp1861
sg74
g1846
sg67
(lp1862
g60
(g61
g62
NtRp1863
(dp1864
g65
(dp1865
g73
I4
ssg74
g1859
sg67
(lp1866
S'http://127.0.0.1:8000/Desglosar_Emails/default/entrada_mod2'
p1867
asbasbasbag60
(g76
g62
NtRp1868
(dp1869
g65
(dp1870
sg74
g1424
sg67
(lp1871
g60
(g81
g62
NtRp1872
(dp1873
g65
(dp1874
g85
g86
ssg74
g1868
sg67
(lp1875
S'http_user_agent'
p1876
asbag60
(g81
g62
NtRp1877
(dp1878
g65
(dp1879
g92
g93
ssg74
g1868
sg67
(lp1880
S':'
asbag60
(g81
g62
NtRp1881
(dp1882
g65
(dp1883
sg74
g1868
sg67
(lp1884
g60
(g61
g62
NtRp1885
(dp1886
g65
(dp1887
g73
I4
ssg74
g1881
sg67
(lp1888
S'Mozilla/5.0 (Windows NT 6.1; WOW64; rv:6.0.2) Gecko/20100101 Firefox/6.0.2'
p1889
asbasbasbag60
(g76
g62
NtRp1890
(dp1891
g65
(dp1892
sg74
g1424
sg67
(lp1893
g60
(g81
g62
NtRp1894
(dp1895
g65
(dp1896
g85
g86
ssg74
g1890
sg67
(lp1897
S'is_jython'
p1898
asbag60
(g81
g62
NtRp1899
(dp1900
g65
(dp1901
g92
g93
ssg74
g1890
sg67
(lp1902
S':'
asbag60
(g81
g62
NtRp1903
(dp1904
g65
(dp1905
sg74
g1890
sg67
(lp1906
g60
(g61
g62
NtRp1907
(dp1908
g65
(dp1909
g73
I4
ssg74
g1903
sg67
(lp1910
g103
asbasbasbag60
(g76
g62
NtRp1911
(dp1912
g65
(dp1913
sg74
g1424
sg67
(lp1914
g60
(g81
g62
NtRp1915
(dp1916
g65
(dp1917
g85
g86
ssg74
g1911
sg67
(lp1918
S'path_info'
p1919
asbag60
(g81
g62
NtRp1920
(dp1921
g65
(dp1922
g92
g93
ssg74
g1911
sg67
(lp1923
S':'
asbag60
(g81
g62
NtRp1924
(dp1925
g65
(dp1926
sg74
g1911
sg67
(lp1927
g60
(g61
g62
NtRp1928
(dp1929
g65
(dp1930
g73
I4
ssg74
g1924
sg67
(lp1931
S'/Desglosar_Emails/default/entrada_mod2'
p1932
asbasbasbag60
(g76
g62
NtRp1933
(dp1934
g65
(dp1935
sg74
g1424
sg67
(lp1936
g60
(g81
g62
NtRp1937
(dp1938
g65
(dp1939
g85
g86
ssg74
g1933
sg67
(lp1940
S'query_string'
p1941
asbag60
(g81
g62
NtRp1942
(dp1943
g65
(dp1944
g92
g93
ssg74
g1933
sg67
(lp1945
S':'
asbag60
(g81
g62
NtRp1946
(dp1947
g65
(dp1948
sg74
g1933
sg67
(lp1949
g60
(g61
g62
NtRp1950
(dp1951
g65
(dp1952
g73
I4
ssg74
g1946
sg67
(lp1953
S''
asbasbasbag60
(g76
g62
NtRp1954
(dp1955
g65
(dp1956
sg74
g1424
sg67
(lp1957
g60
(g81
g62
NtRp1958
(dp1959
g65
(dp1960
g85
g86
ssg74
g1954
sg67
(lp1961
S'remote_addr'
p1962
asbag60
(g81
g62
NtRp1963
(dp1964
g65
(dp1965
g92
g93
ssg74
g1954
sg67
(lp1966
S':'
asbag60
(g81
g62
NtRp1967
(dp1968
g65
(dp1969
sg74
g1954
sg67
(lp1970
g60
(g61
g62
NtRp1971
(dp1972
g65
(dp1973
g73
I4
ssg74
g1967
sg67
(lp1974
g193
asbasbasbag60
(g76
g62
NtRp1975
(dp1976
g65
(dp1977
sg74
g1424
sg67
(lp1978
g60
(g81
g62
NtRp1979
(dp1980
g65
(dp1981
g85
g86
ssg74
g1975
sg67
(lp1982
S'remote_port'
p1983
asbag60
(g81
g62
NtRp1984
(dp1985
g65
(dp1986
g92
g93
ssg74
g1975
sg67
(lp1987
S':'
asbag60
(g81
g62
NtRp1988
(dp1989
g65
(dp1990
sg74
g1975
sg67
(lp1991
g60
(g61
g62
NtRp1992
(dp1993
g65
(dp1994
g73
I4
ssg74
g1988
sg67
(lp1995
S'52270'
p1996
asbasbasbag60
(g76
g62
NtRp1997
(dp1998
g65
(dp1999
sg74
g1424
sg67
(lp2000
g60
(g81
g62
NtRp2001
(dp2002
g65
(dp2003
g85
g86
ssg74
g1997
sg67
(lp2004
S'request_method'
p2005
asbag60
(g81
g62
NtRp2006
(dp2007
g65
(dp2008
g92
g93
ssg74
g1997
sg67
(lp2009
S':'
asbag60
(g81
g62
NtRp2010
(dp2011
g65
(dp2012
sg74
g1997
sg67
(lp2013
g60
(g61
g62
NtRp2014
(dp2015
g65
(dp2016
g73
I4
ssg74
g2010
sg67
(lp2017
S'POST'
p2018
asbasbasbag60
(g76
g62
NtRp2019
(dp2020
g65
(dp2021
sg74
g1424
sg67
(lp2022
g60
(g81
g62
NtRp2023
(dp2024
g65
(dp2025
g85
g86
ssg74
g2019
sg67
(lp2026
S'script_name'
p2027
asbag60
(g81
g62
NtRp2028
(dp2029
g65
(dp2030
g92
g93
ssg74
g2019
sg67
(lp2031
S':'
asbag60
(g81
g62
NtRp2032
(dp2033
g65
(dp2034
sg74
g2019
sg67
(lp2035
g60
(g61
g62
NtRp2036
(dp2037
g65
(dp2038
g73
I4
ssg74
g2032
sg67
(lp2039
S''
asbasbasbag60
(g76
g62
NtRp2040
(dp2041
g65
(dp2042
sg74
g1424
sg67
(lp2043
g60
(g81
g62
NtRp2044
(dp2045
g65
(dp2046
g85
g86
ssg74
g2040
sg67
(lp2047
S'server_name'
p2048
asbag60
(g81
g62
NtRp2049
(dp2050
g65
(dp2051
g92
g93
ssg74
g2040
sg67
(lp2052
S':'
asbag60
(g81
g62
NtRp2053
(dp2054
g65
(dp2055
sg74
g2040
sg67
(lp2056
g60
(g61
g62
NtRp2057
(dp2058
g65
(dp2059
g73
I4
ssg74
g2053
sg67
(lp2060
S'Swing'
p2061
asbasbasbag60
(g76
g62
NtRp2062
(dp2063
g65
(dp2064
sg74
g1424
sg67
(lp2065
g60
(g81
g62
NtRp2066
(dp2067
g65
(dp2068
g85
g86
ssg74
g2062
sg67
(lp2069
S'server_port'
p2070
asbag60
(g81
g62
NtRp2071
(dp2072
g65
(dp2073
g92
g93
ssg74
g2062
sg67
(lp2074
S':'
asbag60
(g81
g62
NtRp2075
(dp2076
g65
(dp2077
sg74
g2062
sg67
(lp2078
g60
(g61
g62
NtRp2079
(dp2080
g65
(dp2081
g73
I4
ssg74
g2075
sg67
(lp2082
S'8000'
p2083
asbasbasbag60
(g76
g62
NtRp2084
(dp2085
g65
(dp2086
sg74
g1424
sg67
(lp2087
g60
(g81
g62
NtRp2088
(dp2089
g65
(dp2090
g85
g86
ssg74
g2084
sg67
(lp2091
S'server_protocol'
p2092
asbag60
(g81
g62
NtRp2093
(dp2094
g65
(dp2095
g92
g93
ssg74
g2084
sg67
(lp2096
S':'
asbag60
(g81
g62
NtRp2097
(dp2098
g65
(dp2099
sg74
g2084
sg67
(lp2100
g60
(g61
g62
NtRp2101
(dp2102
g65
(dp2103
g73
I4
ssg74
g2097
sg67
(lp2104
S'HTTP/1.1'
p2105
asbasbasbag60
(g76
g62
NtRp2106
(dp2107
g65
(dp2108
sg74
g1424
sg67
(lp2109
g60
(g81
g62
NtRp2110
(dp2111
g65
(dp2112
g85
g86
ssg74
g2106
sg67
(lp2113
S'server_software'
p2114
asbag60
(g81
g62
NtRp2115
(dp2116
g65
(dp2117
g92
g93
ssg74
g2106
sg67
(lp2118
S':'
asbag60
(g81
g62
NtRp2119
(dp2120
g65
(dp2121
sg74
g2106
sg67
(lp2122
g60
(g61
g62
NtRp2123
(dp2124
g65
(dp2125
g73
I4
ssg74
g2119
sg67
(lp2126
S'Rocket 1.2.2'
p2127
asbasbasbag60
(g76
g62
NtRp2128
(dp2129
g65
(dp2130
sg74
g1424
sg67
(lp2131
g60
(g81
g62
NtRp2132
(dp2133
g65
(dp2134
g85
g86
ssg74
g2128
sg67
(lp2135
S'web2py_crontype'
p2136
asbag60
(g81
g62
NtRp2137
(dp2138
g65
(dp2139
g92
g93
ssg74
g2128
sg67
(lp2140
S':'
asbag60
(g81
g62
NtRp2141
(dp2142
g65
(dp2143
sg74
g2128
sg67
(lp2144
g60
(g61
g62
NtRp2145
(dp2146
g65
(dp2147
g73
I4
ssg74
g2141
sg67
(lp2148
S'hard'
p2149
asbasbasbag60
(g76
g62
NtRp2150
(dp2151
g65
(dp2152
sg74
g1424
sg67
(lp2153
g60
(g81
g62
NtRp2154
(dp2155
g65
(dp2156
g85
g86
ssg74
g2150
sg67
(lp2157
S'web2py_path'
p2158
asbag60
(g81
g62
NtRp2159
(dp2160
g65
(dp2161
g92
g93
ssg74
g2150
sg67
(lp2162
S':'
asbag60
(g81
g62
NtRp2163
(dp2164
g65
(dp2165
sg74
g2150
sg67
(lp2166
g60
(g61
g62
NtRp2167
(dp2168
g65
(dp2169
g73
I4
ssg74
g2163
sg67
(lp2170
g1471
asbasbasbag60
(g76
g62
NtRp2171
(dp2172
g65
(dp2173
sg74
g1424
sg67
(lp2174
g60
(g81
g62
NtRp2175
(dp2176
g65
(dp2177
g85
g86
ssg74
g2171
sg67
(lp2178
S'web2py_version'
p2179
asbag60
(g81
g62
NtRp2180
(dp2181
g65
(dp2182
g92
g93
ssg74
g2171
sg67
(lp2183
S':'
asbag60
(g81
g62
NtRp2184
(dp2185
g65
(dp2186
sg74
g2171
sg67
(lp2187
g60
(g61
g62
NtRp2188
(dp2189
g65
(dp2190
g73
I4
ssg74
g2184
sg67
(lp2191
S'Version 1.98.2 (2011-08-04 00:47:09)\n'
p2192
asbasbasbag60
(g76
g62
NtRp2193
(dp2194
g65
(dp2195
sg74
g1424
sg67
(lp2196
g60
(g81
g62
NtRp2197
(dp2198
g65
(dp2199
g85
g86
ssg74
g2193
sg67
(lp2200
S'wsgi_errors'
p2201
asbag60
(g81
g62
NtRp2202
(dp2203
g65
(dp2204
g92
g93
ssg74
g2193
sg67
(lp2205
S':'
asbag60
(g81
g62
NtRp2206
(dp2207
g65
(dp2208
sg74
g2193
sg67
(lp2209
g60
(g61
g62
NtRp2210
(dp2211
g65
(dp2212
g73
I4
ssg74
g2206
sg67
(lp2213
S"<open file '<stderr>', mode 'w' at 0x003100B0>"
p2214
asbasbasbag60
(g76
g62
NtRp2215
(dp2216
g65
(dp2217
sg74
g1424
sg67
(lp2218
g60
(g81
g62
NtRp2219
(dp2220
g65
(dp2221
g85
g86
ssg74
g2215
sg67
(lp2222
S'wsgi_file_wrapper'
p2223
asbag60
(g81
g62
NtRp2224
(dp2225
g65
(dp2226
g92
g93
ssg74
g2215
sg67
(lp2227
S':'
asbag60
(g81
g62
NtRp2228
(dp2229
g65
(dp2230
sg74
g2215
sg67
(lp2231
g60
(g61
g62
NtRp2232
(dp2233
g65
(dp2234
g73
I4
ssg74
g2228
sg67
(lp2235
S'<class gluon.rocket.FileWrapper at 0x02FFC1B0>'
p2236
asbasbasbag60
(g76
g62
NtRp2237
(dp2238
g65
(dp2239
sg74
g1424
sg67
(lp2240
g60
(g81
g62
NtRp2241
(dp2242
g65
(dp2243
g85
g86
ssg74
g2237
sg67
(lp2244
S'wsgi_input'
p2245
asbag60
(g81
g62
NtRp2246
(dp2247
g65
(dp2248
g92
g93
ssg74
g2237
sg67
(lp2249
S':'
asbag60
(g81
g62
NtRp2250
(dp2251
g65
(dp2252
sg74
g2237
sg67
(lp2253
g60
(g61
g62
NtRp2254
(dp2255
g65
(dp2256
g73
I4
ssg74
g2250
sg67
(lp2257
S'<socket._fileobject object at 0x0769A0B0>'
p2258
asbasbasbag60
(g76
g62
NtRp2259
(dp2260
g65
(dp2261
sg74
g1424
sg67
(lp2262
g60
(g81
g62
NtRp2263
(dp2264
g65
(dp2265
g85
g86
ssg74
g2259
sg67
(lp2266
S'wsgi_multiprocess'
p2267
asbag60
(g81
g62
NtRp2268
(dp2269
g65
(dp2270
g92
g93
ssg74
g2259
sg67
(lp2271
S':'
asbag60
(g81
g62
NtRp2272
(dp2273
g65
(dp2274
sg74
g2259
sg67
(lp2275
g60
(g61
g62
NtRp2276
(dp2277
g65
(dp2278
g73
I4
ssg74
g2272
sg67
(lp2279
g103
asbasbasbag60
(g76
g62
NtRp2280
(dp2281
g65
(dp2282
sg74
g1424
sg67
(lp2283
g60
(g81
g62
NtRp2284
(dp2285
g65
(dp2286
g85
g86
ssg74
g2280
sg67
(lp2287
S'wsgi_multithread'
p2288
asbag60
(g81
g62
NtRp2289
(dp2290
g65
(dp2291
g92
g93
ssg74
g2280
sg67
(lp2292
S':'
asbag60
(g81
g62
NtRp2293
(dp2294
g65
(dp2295
sg74
g2280
sg67
(lp2296
g60
(g61
g62
NtRp2297
(dp2298
g65
(dp2299
g73
I4
ssg74
g2293
sg67
(lp2300
S'True'
p2301
asbasbasbag60
(g76
g62
NtRp2302
(dp2303
g65
(dp2304
sg74
g1424
sg67
(lp2305
g60
(g81
g62
NtRp2306
(dp2307
g65
(dp2308
g85
g86
ssg74
g2302
sg67
(lp2309
S'wsgi_run_once'
p2310
asbag60
(g81
g62
NtRp2311
(dp2312
g65
(dp2313
g92
g93
ssg74
g2302
sg67
(lp2314
S':'
asbag60
(g81
g62
NtRp2315
(dp2316
g65
(dp2317
sg74
g2302
sg67
(lp2318
g60
(g61
g62
NtRp2319
(dp2320
g65
(dp2321
g73
I4
ssg74
g2315
sg67
(lp2322
g103
asbasbasbag60
(g76
g62
NtRp2323
(dp2324
g65
(dp2325
sg74
g1424
sg67
(lp2326
g60
(g81
g62
NtRp2327
(dp2328
g65
(dp2329
g85
g86
ssg74
g2323
sg67
(lp2330
S'wsgi_url_scheme'
p2331
asbag60
(g81
g62
NtRp2332
(dp2333
g65
(dp2334
g92
g93
ssg74
g2323
sg67
(lp2335
S':'
asbag60
(g81
g62
NtRp2336
(dp2337
g65
(dp2338
sg74
g2323
sg67
(lp2339
g60
(g61
g62
NtRp2340
(dp2341
g65
(dp2342
g73
I4
ssg74
g2336
sg67
(lp2343
S'http'
p2344
asbasbasbag60
(g76
g62
NtRp2345
(dp2346
g65
(dp2347
sg74
g1424
sg67
(lp2348
g60
(g81
g62
NtRp2349
(dp2350
g65
(dp2351
g85
g86
ssg74
g2345
sg67
(lp2352
S'wsgi_version'
p2353
asbag60
(g81
g62
NtRp2354
(dp2355
g65
(dp2356
g92
g93
ssg74
g2345
sg67
(lp2357
S':'
asbag60
(g81
g62
NtRp2358
(dp2359
g65
(dp2360
sg74
g2345
sg67
(lp2361
g60
(g61
g62
NtRp2362
(dp2363
g65
(dp2364
g73
I4
ssg74
g2358
sg67
(lp2365
g60
(g69
g62
NtRp2366
(dp2367
g65
(dp2368
g73
I3
ssg74
Nsg67
(lp2369
g60
(g76
g62
NtRp2370
(dp2371
g65
(dp2372
sg74
g2366
sg67
(lp2373
g60
(g81
g62
NtRp2374
(dp2375
g65
(dp2376
sg74
g2370
sg67
(lp2377
g60
(g61
g62
NtRp2378
(dp2379
g65
(dp2380
g73
I3
ssg74
g2374
sg67
(lp2381
S'1'
asbasbasbag60
(g76
g62
NtRp2382
(dp2383
g65
(dp2384
sg74
g2366
sg67
(lp2385
g60
(g81
g62
NtRp2386
(dp2387
g65
(dp2388
sg74
g2382
sg67
(lp2389
g60
(g61
g62
NtRp2390
(dp2391
g65
(dp2392
g73
I3
ssg74
g2386
sg67
(lp2393
S'0'
asbasbasbasbasbasbasbasbasbasbasbag60
(g76
g62
NtRp2394
(dp2395
g65
(dp2396
sg74
g70
sg67
(lp2397
g60
(g81
g62
NtRp2398
(dp2399
g65
(dp2400
g85
g86
ssg74
g2394
sg67
(lp2401
S'extension'
p2402
asbag60
(g81
g62
NtRp2403
(dp2404
g65
(dp2405
g92
g93
ssg74
g2394
sg67
(lp2406
S':'
asbag60
(g81
g62
NtRp2407
(dp2408
g65
(dp2409
sg74
g2394
sg67
(lp2410
g60
(g61
g62
NtRp2411
(dp2412
g65
(dp2413
g73
I5
ssg74
g2407
sg67
(lp2414
S'html'
p2415
asbasbasbag60
(g76
g62
NtRp2416
(dp2417
g65
(dp2418
sg74
g70
sg67
(lp2419
g60
(g81
g62
NtRp2420
(dp2421
g65
(dp2422
g85
g86
ssg74
g2416
sg67
(lp2423
S'folder'
p2424
asbag60
(g81
g62
NtRp2425
(dp2426
g65
(dp2427
g92
g93
ssg74
g2416
sg67
(lp2428
S':'
asbag60
(g81
g62
NtRp2429
(dp2430
g65
(dp2431
sg74
g2416
sg67
(lp2432
g60
(g61
g62
NtRp2433
(dp2434
g65
(dp2435
g73
I5
ssg74
g2429
sg67
(lp2436
S'C:\\Users\\Atomico\\web2py\\applications\\Desglosar_Emails\\'
p2437
asbasbasbag60
(g76
g62
NtRp2438
(dp2439
g65
(dp2440
sg74
g70
sg67
(lp2441
g60
(g81
g62
NtRp2442
(dp2443
g65
(dp2444
g85
g86
ssg74
g2438
sg67
(lp2445
S'function'
p2446
asbag60
(g81
g62
NtRp2447
(dp2448
g65
(dp2449
g92
g93
ssg74
g2438
sg67
(lp2450
S':'
asbag60
(g81
g62
NtRp2451
(dp2452
g65
(dp2453
sg74
g2438
sg67
(lp2454
g60
(g61
g62
NtRp2455
(dp2456
g65
(dp2457
g73
I5
ssg74
g2451
sg67
(lp2458
S'entrada_mod2'
p2459
asbasbasbag60
(g76
g62
NtRp2460
(dp2461
g65
(dp2462
sg74
g70
sg67
(lp2463
g60
(g81
g62
NtRp2464
(dp2465
g65
(dp2466
g85
g86
ssg74
g2460
sg67
(lp2467
S'get_vars'
p2468
asbag60
(g81
g62
NtRp2469
(dp2470
g65
(dp2471
g92
g93
ssg74
g2460
sg67
(lp2472
S':'
asbag60
(g81
g62
NtRp2473
(dp2474
g65
(dp2475
sg74
g2460
sg67
(lp2476
g60
(g61
g62
NtRp2477
(dp2478
g65
(dp2479
g73
I5
ssg74
g2473
sg67
(lp2480
g60
(g69
g62
NtRp2481
(dp2482
g65
(dp2483
g73
I4
ssg74
Nsg67
(lp2484
sbasbasbasbag60
(g76
g62
NtRp2485
(dp2486
g65
(dp2487
sg74
g70
sg67
(lp2488
g60
(g81
g62
NtRp2489
(dp2490
g65
(dp2491
g85
g86
ssg74
g2485
sg67
(lp2492
S'is_https'
p2493
asbag60
(g81
g62
NtRp2494
(dp2495
g65
(dp2496
g92
g93
ssg74
g2485
sg67
(lp2497
S':'
asbag60
(g81
g62
NtRp2498
(dp2499
g65
(dp2500
sg74
g2485
sg67
(lp2501
g60
(g61
g62
NtRp2502
(dp2503
g65
(dp2504
g73
I5
ssg74
g2498
sg67
(lp2505
g103
asbasbasbag60
(g76
g62
NtRp2506
(dp2507
g65
(dp2508
sg74
g70
sg67
(lp2509
g60
(g81
g62
NtRp2510
(dp2511
g65
(dp2512
g85
g86
ssg74
g2506
sg67
(lp2513
S'is_local'
p2514
asbag60
(g81
g62
NtRp2515
(dp2516
g65
(dp2517
g92
g93
ssg74
g2506
sg67
(lp2518
S':'
asbag60
(g81
g62
NtRp2519
(dp2520
g65
(dp2521
sg74
g2506
sg67
(lp2522
g60
(g61
g62
NtRp2523
(dp2524
g65
(dp2525
g73
I5
ssg74
g2519
sg67
(lp2526
g2301
asbasbasbag60
(g76
g62
NtRp2527
(dp2528
g65
(dp2529
sg74
g70
sg67
(lp2530
g60
(g81
g62
NtRp2531
(dp2532
g65
(dp2533
g85
g86
ssg74
g2527
sg67
(lp2534
S'is_restful'
p2535
asbag60
(g81
g62
NtRp2536
(dp2537
g65
(dp2538
g92
g93
ssg74
g2527
sg67
(lp2539
S':'
asbag60
(g81
g62
NtRp2540
(dp2541
g65
(dp2542
sg74
g2527
sg67
(lp2543
g60
(g61
g62
NtRp2544
(dp2545
g65
(dp2546
g73
I5
ssg74
g2540
sg67
(lp2547
g103
asbasbasbag60
(g76
g62
NtRp2548
(dp2549
g65
(dp2550
sg74
g70
sg67
(lp2551
g60
(g81
g62
NtRp2552
(dp2553
g65
(dp2554
g85
g86
ssg74
g2548
sg67
(lp2555
S'now'
p2556
asbag60
(g81
g62
NtRp2557
(dp2558
g65
(dp2559
g92
g93
ssg74
g2548
sg67
(lp2560
S':'
asbag60
(g81
g62
NtRp2561
(dp2562
g65
(dp2563
sg74
g2548
sg67
(lp2564
g60
(g61
g62
NtRp2565
(dp2566
g65
(dp2567
g73
I5
ssg74
g2561
sg67
(lp2568
S'datetime.datetime(2011, 9, 19, 6, 5, 44, 4000)'
p2569
asbasbasbag60
(g76
g62
NtRp2570
(dp2571
g65
(dp2572
sg74
g70
sg67
(lp2573
g60
(g81
g62
NtRp2574
(dp2575
g65
(dp2576
g85
g86
ssg74
g2570
sg67
(lp2577
S'post_vars'
p2578
asbag60
(g81
g62
NtRp2579
(dp2580
g65
(dp2581
g92
g93
ssg74
g2570
sg67
(lp2582
S':'
asbag60
(g81
g62
NtRp2583
(dp2584
g65
(dp2585
sg74
g2570
sg67
(lp2586
g60
(g61
g62
NtRp2587
(dp2588
g65
(dp2589
g73
I5
ssg74
g2583
sg67
(lp2590
g60
(g69
g62
NtRp2591
(dp2592
g65
(dp2593
g73
I4
ssg74
Nsg67
(lp2594
g60
(g76
g62
NtRp2595
(dp2596
g65
(dp2597
sg74
g2591
sg67
(lp2598
g60
(g81
g62
NtRp2599
(dp2600
g65
(dp2601
g85
g86
ssg74
g2595
sg67
(lp2602
S'longitud'
p2603
asbag60
(g81
g62
NtRp2604
(dp2605
g65
(dp2606
g92
g93
ssg74
g2595
sg67
(lp2607
S':'
asbag60
(g81
g62
NtRp2608
(dp2609
g65
(dp2610
sg74
g2595
sg67
(lp2611
g60
(g61
g62
NtRp2612
(dp2613
g65
(dp2614
g73
I4
ssg74
g2608
sg67
(lp2615
S'asdf'
p2616
asbasbasbag60
(g76
g62
NtRp2617
(dp2618
g65
(dp2619
sg74
g2591
sg67
(lp2620
g60
(g81
g62
NtRp2621
(dp2622
g65
(dp2623
g85
g86
ssg74
g2617
sg67
(lp2624
S'texto'
p2625
asbag60
(g81
g62
NtRp2626
(dp2627
g65
(dp2628
g92
g93
ssg74
g2617
sg67
(lp2629
S':'
asbag60
(g81
g62
NtRp2630
(dp2631
g65
(dp2632
sg74
g2617
sg67
(lp2633
g60
(g61
g62
NtRp2634
(dp2635
g65
(dp2636
g73
I4
ssg74
g2630
sg67
(lp2637
S''
asbasbasbasbasbasbasbag60
(g76
g62
NtRp2638
(dp2639
g65
(dp2640
sg74
g70
sg67
(lp2641
g60
(g81
g62
NtRp2642
(dp2643
g65
(dp2644
g85
g86
ssg74
g2638
sg67
(lp2645
S'url'
p2646
asbag60
(g81
g62
NtRp2647
(dp2648
g65
(dp2649
g92
g93
ssg74
g2638
sg67
(lp2650
S':'
asbag60
(g81
g62
NtRp2651
(dp2652
g65
(dp2653
sg74
g2638
sg67
(lp2654
g60
(g61
g62
NtRp2655
(dp2656
g65
(dp2657
g73
I5
ssg74
g2651
sg67
(lp2658
S'/Desglosar_Emails/default/entrada_mod2'
p2659
asbasbasbag60
(g76
g62
NtRp2660
(dp2661
g65
(dp2662
sg74
g70
sg67
(lp2663
g60
(g81
g62
NtRp2664
(dp2665
g65
(dp2666
g85
g86
ssg74
g2660
sg67
(lp2667
S'uuid'
p2668
asbag60
(g81
g62
NtRp2669
(dp2670
g65
(dp2671
g92
g93
ssg74
g2660
sg67
(lp2672
S':'
asbag60
(g81
g62
NtRp2673
(dp2674
g65
(dp2675
sg74
g2660
sg67
(lp2676
g60
(g61
g62
NtRp2677
(dp2678
g65
(dp2679
g73
I5
ssg74
g2673
sg67
(lp2680
S'Desglosar_Emails/127.0.0.1.2011-09-19.06-05-44.76406a78-0bad-47e1-985b-32e060317c19'
p2681
asbasbasbag60
(g76
g62
NtRp2682
(dp2683
g65
(dp2684
sg74
g70
sg67
(lp2685
g60
(g81
g62
NtRp2686
(dp2687
g65
(dp2688
g85
g86
ssg74
g2682
sg67
(lp2689
S'vars'
p2690
asbag60
(g81
g62
NtRp2691
(dp2692
g65
(dp2693
g92
g93
ssg74
g2682
sg67
(lp2694
S':'
asbag60
(g81
g62
NtRp2695
(dp2696
g65
(dp2697
sg74
g2682
sg67
(lp2698
g60
(g61
g62
NtRp2699
(dp2700
g65
(dp2701
g73
I5
ssg74
g2695
sg67
(lp2702
g60
(g69
g62
NtRp2703
(dp2704
g65
(dp2705
g73
I4
ssg74
Nsg67
(lp2706
g60
(g76
g62
NtRp2707
(dp2708
g65
(dp2709
sg74
g2703
sg67
(lp2710
g60
(g81
g62
NtRp2711
(dp2712
g65
(dp2713
g85
g86
ssg74
g2707
sg67
(lp2714
g2603
asbag60
(g81
g62
NtRp2715
(dp2716
g65
(dp2717
g92
g93
ssg74
g2707
sg67
(lp2718
S':'
asbag60
(g81
g62
NtRp2719
(dp2720
g65
(dp2721
sg74
g2707
sg67
(lp2722
g60
(g61
g62
NtRp2723
(dp2724
g65
(dp2725
g73
I4
ssg74
g2719
sg67
(lp2726
g2616
asbasbasbag60
(g76
g62
NtRp2727
(dp2728
g65
(dp2729
sg74
g2703
sg67
(lp2730
g60
(g81
g62
NtRp2731
(dp2732
g65
(dp2733
g85
g86
ssg74
g2727
sg67
(lp2734
g2625
asbag60
(g81
g62
NtRp2735
(dp2736
g65
(dp2737
g92
g93
ssg74
g2727
sg67
(lp2738
S':'
asbag60
(g81
g62
NtRp2739
(dp2740
g65
(dp2741
sg74
g2727
sg67
(lp2742
g60
(g61
g62
NtRp2743
(dp2744
g65
(dp2745
g73
I4
ssg74
g2739
sg67
(lp2746
S''
asbasbasbasbasbasbasbag60
(g76
g62
NtRp2747
(dp2748
g65
(dp2749
sg74
g70
sg67
(lp2750
g60
(g81
g62
NtRp2751
(dp2752
g65
(dp2753
g85
g86
ssg74
g2747
sg67
(lp2754
S'wsgi'
p2755
asbag60
(g81
g62
NtRp2756
(dp2757
g65
(dp2758
g92
g93
ssg74
g2747
sg67
(lp2759
S':'
asbag60
(g81
g62
NtRp2760
(dp2761
g65
(dp2762
sg74
g2747
sg67
(lp2763
g60
(g61
g62
NtRp2764
(dp2765
g65
(dp2766
g73
I5
ssg74
g2760
sg67
(lp2767
g60
(g69
g62
NtRp2768
(dp2769
g65
(dp2770
g73
I4
ssg74
Nsg67
(lp2771
g60
(g76
g62
NtRp2772
(dp2773
g65
(dp2774
sg74
g2768
sg67
(lp2775
g60
(g81
g62
NtRp2776
(dp2777
g65
(dp2778
g85
g86
ssg74
g2772
sg67
(lp2779
S'environ'
p2780
asbag60
(g81
g62
NtRp2781
(dp2782
g65
(dp2783
g92
g93
ssg74
g2772
sg67
(lp2784
S':'
asbag60
(g81
g62
NtRp2785
(dp2786
g65
(dp2787
sg74
g2772
sg67
(lp2788
g60
(g61
g62
NtRp2789
(dp2790
g65
(dp2791
g73
I4
ssg74
g2785
sg67
(lp2792
g60
(g69
g62
NtRp2793
(dp2794
g65
(dp2795
g73
I3
ssg74
Nsg67
(lp2796
g60
(g76
g62
NtRp2797
(dp2798
g65
(dp2799
sg74
g2793
sg67
(lp2800
g60
(g81
g62
NtRp2801
(dp2802
g65
(dp2803
g85
g86
ssg74
g2797
sg67
(lp2804
S'CONTENT_LENGTH'
p2805
asbag60
(g81
g62
NtRp2806
(dp2807
g65
(dp2808
g92
g93
ssg74
g2797
sg67
(lp2809
S':'
asbag60
(g81
g62
NtRp2810
(dp2811
g65
(dp2812
sg74
g2797
sg67
(lp2813
g60
(g61
g62
NtRp2814
(dp2815
g65
(dp2816
g73
I3
ssg74
g2810
sg67
(lp2817
g1540
asbasbasbag60
(g76
g62
NtRp2818
(dp2819
g65
(dp2820
sg74
g2793
sg67
(lp2821
g60
(g81
g62
NtRp2822
(dp2823
g65
(dp2824
g85
g86
ssg74
g2818
sg67
(lp2825
S'CONTENT_TYPE'
p2826
asbag60
(g81
g62
NtRp2827
(dp2828
g65
(dp2829
g92
g93
ssg74
g2818
sg67
(lp2830
S':'
asbag60
(g81
g62
NtRp2831
(dp2832
g65
(dp2833
sg74
g2818
sg67
(lp2834
g60
(g61
g62
NtRp2835
(dp2836
g65
(dp2837
g73
I3
ssg74
g2831
sg67
(lp2838
g1562
asbasbasbag60
(g76
g62
NtRp2839
(dp2840
g65
(dp2841
sg74
g2793
sg67
(lp2842
g60
(g81
g62
NtRp2843
(dp2844
g65
(dp2845
g85
g86
ssg74
g2839
sg67
(lp2846
S'HTTP_ACCEPT'
p2847
asbag60
(g81
g62
NtRp2848
(dp2849
g65
(dp2850
g92
g93
ssg74
g2839
sg67
(lp2851
S':'
asbag60
(g81
g62
NtRp2852
(dp2853
g65
(dp2854
sg74
g2839
sg67
(lp2855
g60
(g61
g62
NtRp2856
(dp2857
g65
(dp2858
g73
I3
ssg74
g2852
sg67
(lp2859
g1649
asbasbasbag60
(g76
g62
NtRp2860
(dp2861
g65
(dp2862
sg74
g2793
sg67
(lp2863
g60
(g81
g62
NtRp2864
(dp2865
g65
(dp2866
g85
g86
ssg74
g2860
sg67
(lp2867
S'HTTP_ACCEPT_CHARSET'
p2868
asbag60
(g81
g62
NtRp2869
(dp2870
g65
(dp2871
g92
g93
ssg74
g2860
sg67
(lp2872
S':'
asbag60
(g81
g62
NtRp2873
(dp2874
g65
(dp2875
sg74
g2860
sg67
(lp2876
g60
(g61
g62
NtRp2877
(dp2878
g65
(dp2879
g73
I3
ssg74
g2873
sg67
(lp2880
g1671
asbasbasbag60
(g76
g62
NtRp2881
(dp2882
g65
(dp2883
sg74
g2793
sg67
(lp2884
g60
(g81
g62
NtRp2885
(dp2886
g65
(dp2887
g85
g86
ssg74
g2881
sg67
(lp2888
S'HTTP_ACCEPT_ENCODING'
p2889
asbag60
(g81
g62
NtRp2890
(dp2891
g65
(dp2892
g92
g93
ssg74
g2881
sg67
(lp2893
S':'
asbag60
(g81
g62
NtRp2894
(dp2895
g65
(dp2896
sg74
g2881
sg67
(lp2897
g60
(g61
g62
NtRp2898
(dp2899
g65
(dp2900
g73
I3
ssg74
g2894
sg67
(lp2901
g1693
asbasbasbag60
(g76
g62
NtRp2902
(dp2903
g65
(dp2904
sg74
g2793
sg67
(lp2905
g60
(g81
g62
NtRp2906
(dp2907
g65
(dp2908
g85
g86
ssg74
g2902
sg67
(lp2909
S'HTTP_ACCEPT_LANGUAGE'
p2910
asbag60
(g81
g62
NtRp2911
(dp2912
g65
(dp2913
g92
g93
ssg74
g2902
sg67
(lp2914
S':'
asbag60
(g81
g62
NtRp2915
(dp2916
g65
(dp2917
sg74
g2902
sg67
(lp2918
g60
(g61
g62
NtRp2919
(dp2920
g65
(dp2921
g73
I3
ssg74
g2915
sg67
(lp2922
g1715
asbasbasbag60
(g76
g62
NtRp2923
(dp2924
g65
(dp2925
sg74
g2793
sg67
(lp2926
g60
(g81
g62
NtRp2927
(dp2928
g65
(dp2929
g85
g86
ssg74
g2923
sg67
(lp2930
S'HTTP_CACHE_CONTROL'
p2931
asbag60
(g81
g62
NtRp2932
(dp2933
g65
(dp2934
g92
g93
ssg74
g2923
sg67
(lp2935
S':'
asbag60
(g81
g62
NtRp2936
(dp2937
g65
(dp2938
sg74
g2923
sg67
(lp2939
g60
(g61
g62
NtRp2940
(dp2941
g65
(dp2942
g73
I3
ssg74
g2936
sg67
(lp2943
g1737
asbasbasbag60
(g76
g62
NtRp2944
(dp2945
g65
(dp2946
sg74
g2793
sg67
(lp2947
g60
(g81
g62
NtRp2948
(dp2949
g65
(dp2950
g85
g86
ssg74
g2944
sg67
(lp2951
S'HTTP_CONNECTION'
p2952
asbag60
(g81
g62
NtRp2953
(dp2954
g65
(dp2955
g92
g93
ssg74
g2944
sg67
(lp2956
S':'
asbag60
(g81
g62
NtRp2957
(dp2958
g65
(dp2959
sg74
g2944
sg67
(lp2960
g60
(g61
g62
NtRp2961
(dp2962
g65
(dp2963
g73
I3
ssg74
g2957
sg67
(lp2964
g1759
asbasbasbag60
(g76
g62
NtRp2965
(dp2966
g65
(dp2967
sg74
g2793
sg67
(lp2968
g60
(g81
g62
NtRp2969
(dp2970
g65
(dp2971
g85
g86
ssg74
g2965
sg67
(lp2972
S'HTTP_CONTENT_LENGTH'
p2973
asbag60
(g81
g62
NtRp2974
(dp2975
g65
(dp2976
g92
g93
ssg74
g2965
sg67
(lp2977
S':'
asbag60
(g81
g62
NtRp2978
(dp2979
g65
(dp2980
sg74
g2965
sg67
(lp2981
g60
(g61
g62
NtRp2982
(dp2983
g65
(dp2984
g73
I3
ssg74
g2978
sg67
(lp2985
g1540
asbasbasbag60
(g76
g62
NtRp2986
(dp2987
g65
(dp2988
sg74
g2793
sg67
(lp2989
g60
(g81
g62
NtRp2990
(dp2991
g65
(dp2992
g85
g86
ssg74
g2986
sg67
(lp2993
S'HTTP_CONTENT_TYPE'
p2994
asbag60
(g81
g62
NtRp2995
(dp2996
g65
(dp2997
g92
g93
ssg74
g2986
sg67
(lp2998
S':'
asbag60
(g81
g62
NtRp2999
(dp3000
g65
(dp3001
sg74
g2986
sg67
(lp3002
g60
(g61
g62
NtRp3003
(dp3004
g65
(dp3005
g73
I3
ssg74
g2999
sg67
(lp3006
g1562
asbasbasbag60
(g76
g62
NtRp3007
(dp3008
g65
(dp3009
sg74
g2793
sg67
(lp3010
g60
(g81
g62
NtRp3011
(dp3012
g65
(dp3013
g85
g86
ssg74
g3007
sg67
(lp3014
S'HTTP_COOKIE'
p3015
asbag60
(g81
g62
NtRp3016
(dp3017
g65
(dp3018
g92
g93
ssg74
g3007
sg67
(lp3019
S':'
asbag60
(g81
g62
NtRp3020
(dp3021
g65
(dp3022
sg74
g3007
sg67
(lp3023
g60
(g61
g62
NtRp3024
(dp3025
g65
(dp3026
g73
I3
ssg74
g3020
sg67
(lp3027
g1823
asbasbasbag60
(g76
g62
NtRp3028
(dp3029
g65
(dp3030
sg74
g2793
sg67
(lp3031
g60
(g81
g62
NtRp3032
(dp3033
g65
(dp3034
g85
g86
ssg74
g3028
sg67
(lp3035
S'HTTP_HOST'
p3036
asbag60
(g81
g62
NtRp3037
(dp3038
g65
(dp3039
g92
g93
ssg74
g3028
sg67
(lp3040
S':'
asbag60
(g81
g62
NtRp3041
(dp3042
g65
(dp3043
sg74
g3028
sg67
(lp3044
g60
(g61
g62
NtRp3045
(dp3046
g65
(dp3047
g73
I3
ssg74
g3041
sg67
(lp3048
g1845
asbasbasbag60
(g76
g62
NtRp3049
(dp3050
g65
(dp3051
sg74
g2793
sg67
(lp3052
g60
(g81
g62
NtRp3053
(dp3054
g65
(dp3055
g85
g86
ssg74
g3049
sg67
(lp3056
S'HTTP_REFERER'
p3057
asbag60
(g81
g62
NtRp3058
(dp3059
g65
(dp3060
g92
g93
ssg74
g3049
sg67
(lp3061
S':'
asbag60
(g81
g62
NtRp3062
(dp3063
g65
(dp3064
sg74
g3049
sg67
(lp3065
g60
(g61
g62
NtRp3066
(dp3067
g65
(dp3068
g73
I3
ssg74
g3062
sg67
(lp3069
g1867
asbasbasbag60
(g76
g62
NtRp3070
(dp3071
g65
(dp3072
sg74
g2793
sg67
(lp3073
g60
(g81
g62
NtRp3074
(dp3075
g65
(dp3076
g85
g86
ssg74
g3070
sg67
(lp3077
S'HTTP_USER_AGENT'
p3078
asbag60
(g81
g62
NtRp3079
(dp3080
g65
(dp3081
g92
g93
ssg74
g3070
sg67
(lp3082
S':'
asbag60
(g81
g62
NtRp3083
(dp3084
g65
(dp3085
sg74
g3070
sg67
(lp3086
g60
(g61
g62
NtRp3087
(dp3088
g65
(dp3089
g73
I3
ssg74
g3083
sg67
(lp3090
g1889
asbasbasbag60
(g76
g62
NtRp3091
(dp3092
g65
(dp3093
sg74
g2793
sg67
(lp3094
g60
(g81
g62
NtRp3095
(dp3096
g65
(dp3097
g85
g86
ssg74
g3091
sg67
(lp3098
S'PATH_INFO'
p3099
asbag60
(g81
g62
NtRp3100
(dp3101
g65
(dp3102
g92
g93
ssg74
g3091
sg67
(lp3103
S':'
asbag60
(g81
g62
NtRp3104
(dp3105
g65
(dp3106
sg74
g3091
sg67
(lp3107
g60
(g61
g62
NtRp3108
(dp3109
g65
(dp3110
g73
I3
ssg74
g3104
sg67
(lp3111
g1932
asbasbasbag60
(g76
g62
NtRp3112
(dp3113
g65
(dp3114
sg74
g2793
sg67
(lp3115
g60
(g81
g62
NtRp3116
(dp3117
g65
(dp3118
g85
g86
ssg74
g3112
sg67
(lp3119
S'QUERY_STRING'
p3120
asbag60
(g81
g62
NtRp3121
(dp3122
g65
(dp3123
g92
g93
ssg74
g3112
sg67
(lp3124
S':'
asbag60
(g81
g62
NtRp3125
(dp3126
g65
(dp3127
sg74
g3112
sg67
(lp3128
g60
(g61
g62
NtRp3129
(dp3130
g65
(dp3131
g73
I3
ssg74
g3125
sg67
(lp3132
S''
asbasbasbag60
(g76
g62
NtRp3133
(dp3134
g65
(dp3135
sg74
g2793
sg67
(lp3136
g60
(g81
g62
NtRp3137
(dp3138
g65
(dp3139
g85
g86
ssg74
g3133
sg67
(lp3140
S'REMOTE_ADDR'
p3141
asbag60
(g81
g62
NtRp3142
(dp3143
g65
(dp3144
g92
g93
ssg74
g3133
sg67
(lp3145
S':'
asbag60
(g81
g62
NtRp3146
(dp3147
g65
(dp3148
sg74
g3133
sg67
(lp3149
g60
(g61
g62
NtRp3150
(dp3151
g65
(dp3152
g73
I3
ssg74
g3146
sg67
(lp3153
g193
asbasbasbag60
(g76
g62
NtRp3154
(dp3155
g65
(dp3156
sg74
g2793
sg67
(lp3157
g60
(g81
g62
NtRp3158
(dp3159
g65
(dp3160
g85
g86
ssg74
g3154
sg67
(lp3161
S'REMOTE_PORT'
p3162
asbag60
(g81
g62
NtRp3163
(dp3164
g65
(dp3165
g92
g93
ssg74
g3154
sg67
(lp3166
S':'
asbag60
(g81
g62
NtRp3167
(dp3168
g65
(dp3169
sg74
g3154
sg67
(lp3170
g60
(g61
g62
NtRp3171
(dp3172
g65
(dp3173
g73
I3
ssg74
g3167
sg67
(lp3174
g1996
asbasbasbag60
(g76
g62
NtRp3175
(dp3176
g65
(dp3177
sg74
g2793
sg67
(lp3178
g60
(g81
g62
NtRp3179
(dp3180
g65
(dp3181
g85
g86
ssg74
g3175
sg67
(lp3182
S'REQUEST_METHOD'
p3183
asbag60
(g81
g62
NtRp3184
(dp3185
g65
(dp3186
g92
g93
ssg74
g3175
sg67
(lp3187
S':'
asbag60
(g81
g62
NtRp3188
(dp3189
g65
(dp3190
sg74
g3175
sg67
(lp3191
g60
(g61
g62
NtRp3192
(dp3193
g65
(dp3194
g73
I3
ssg74
g3188
sg67
(lp3195
g2018
asbasbasbag60
(g76
g62
NtRp3196
(dp3197
g65
(dp3198
sg74
g2793
sg67
(lp3199
g60
(g81
g62
NtRp3200
(dp3201
g65
(dp3202
g85
g86
ssg74
g3196
sg67
(lp3203
S'SCRIPT_NAME'
p3204
asbag60
(g81
g62
NtRp3205
(dp3206
g65
(dp3207
g92
g93
ssg74
g3196
sg67
(lp3208
S':'
asbag60
(g81
g62
NtRp3209
(dp3210
g65
(dp3211
sg74
g3196
sg67
(lp3212
g60
(g61
g62
NtRp3213
(dp3214
g65
(dp3215
g73
I3
ssg74
g3209
sg67
(lp3216
S''
asbasbasbag60
(g76
g62
NtRp3217
(dp3218
g65
(dp3219
sg74
g2793
sg67
(lp3220
g60
(g81
g62
NtRp3221
(dp3222
g65
(dp3223
g85
g86
ssg74
g3217
sg67
(lp3224
S'SERVER_NAME'
p3225
asbag60
(g81
g62
NtRp3226
(dp3227
g65
(dp3228
g92
g93
ssg74
g3217
sg67
(lp3229
S':'
asbag60
(g81
g62
NtRp3230
(dp3231
g65
(dp3232
sg74
g3217
sg67
(lp3233
g60
(g61
g62
NtRp3234
(dp3235
g65
(dp3236
g73
I3
ssg74
g3230
sg67
(lp3237
g2061
asbasbasbag60
(g76
g62
NtRp3238
(dp3239
g65
(dp3240
sg74
g2793
sg67
(lp3241
g60
(g81
g62
NtRp3242
(dp3243
g65
(dp3244
g85
g86
ssg74
g3238
sg67
(lp3245
S'SERVER_PORT'
p3246
asbag60
(g81
g62
NtRp3247
(dp3248
g65
(dp3249
g92
g93
ssg74
g3238
sg67
(lp3250
S':'
asbag60
(g81
g62
NtRp3251
(dp3252
g65
(dp3253
sg74
g3238
sg67
(lp3254
g60
(g61
g62
NtRp3255
(dp3256
g65
(dp3257
g73
I3
ssg74
g3251
sg67
(lp3258
g2083
asbasbasbag60
(g76
g62
NtRp3259
(dp3260
g65
(dp3261
sg74
g2793
sg67
(lp3262
g60
(g81
g62
NtRp3263
(dp3264
g65
(dp3265
g85
g86
ssg74
g3259
sg67
(lp3266
S'SERVER_PROTOCOL'
p3267
asbag60
(g81
g62
NtRp3268
(dp3269
g65
(dp3270
g92
g93
ssg74
g3259
sg67
(lp3271
S':'
asbag60
(g81
g62
NtRp3272
(dp3273
g65
(dp3274
sg74
g3259
sg67
(lp3275
g60
(g61
g62
NtRp3276
(dp3277
g65
(dp3278
g73
I3
ssg74
g3272
sg67
(lp3279
g2105
asbasbasbag60
(g76
g62
NtRp3280
(dp3281
g65
(dp3282
sg74
g2793
sg67
(lp3283
g60
(g81
g62
NtRp3284
(dp3285
g65
(dp3286
g85
g86
ssg74
g3280
sg67
(lp3287
S'SERVER_SOFTWARE'
p3288
asbag60
(g81
g62
NtRp3289
(dp3290
g65
(dp3291
g92
g93
ssg74
g3280
sg67
(lp3292
S':'
asbag60
(g81
g62
NtRp3293
(dp3294
g65
(dp3295
sg74
g3280
sg67
(lp3296
g60
(g61
g62
NtRp3297
(dp3298
g65
(dp3299
g73
I3
ssg74
g3293
sg67
(lp3300
g2127
asbasbasbag60
(g76
g62
NtRp3301
(dp3302
g65
(dp3303
sg74
g2793
sg67
(lp3304
g60
(g81
g62
NtRp3305
(dp3306
g65
(dp3307
g85
g86
ssg74
g3301
sg67
(lp3308
S'wsgi.errors'
p3309
asbag60
(g81
g62
NtRp3310
(dp3311
g65
(dp3312
g92
g93
ssg74
g3301
sg67
(lp3313
S':'
asbag60
(g81
g62
NtRp3314
(dp3315
g65
(dp3316
sg74
g3301
sg67
(lp3317
g60
(g61
g62
NtRp3318
(dp3319
g65
(dp3320
g73
I3
ssg74
g3314
sg67
(lp3321
S"<open file '<stderr>', mode 'w' at 0x003100B0>"
p3322
asbasbasbag60
(g76
g62
NtRp3323
(dp3324
g65
(dp3325
sg74
g2793
sg67
(lp3326
g60
(g81
g62
NtRp3327
(dp3328
g65
(dp3329
g85
g86
ssg74
g3323
sg67
(lp3330
S'wsgi.file_wrapper'
p3331
asbag60
(g81
g62
NtRp3332
(dp3333
g65
(dp3334
g92
g93
ssg74
g3323
sg67
(lp3335
S':'
asbag60
(g81
g62
NtRp3336
(dp3337
g65
(dp3338
sg74
g3323
sg67
(lp3339
g60
(g61
g62
NtRp3340
(dp3341
g65
(dp3342
g73
I3
ssg74
g3336
sg67
(lp3343
S'<class gluon.rocket.FileWrapper at 0x02FFC1B0>'
p3344
asbasbasbag60
(g76
g62
NtRp3345
(dp3346
g65
(dp3347
sg74
g2793
sg67
(lp3348
g60
(g81
g62
NtRp3349
(dp3350
g65
(dp3351
g85
g86
ssg74
g3345
sg67
(lp3352
S'wsgi.input'
p3353
asbag60
(g81
g62
NtRp3354
(dp3355
g65
(dp3356
g92
g93
ssg74
g3345
sg67
(lp3357
S':'
asbag60
(g81
g62
NtRp3358
(dp3359
g65
(dp3360
sg74
g3345
sg67
(lp3361
g60
(g61
g62
NtRp3362
(dp3363
g65
(dp3364
g73
I3
ssg74
g3358
sg67
(lp3365
S"<open file '<fdopen>', mode 'w+b' at 0x075C3E78>"
p3366
asbasbasbag60
(g76
g62
NtRp3367
(dp3368
g65
(dp3369
sg74
g2793
sg67
(lp3370
g60
(g81
g62
NtRp3371
(dp3372
g65
(dp3373
g85
g86
ssg74
g3367
sg67
(lp3374
S'wsgi.multiprocess'
p3375
asbag60
(g81
g62
NtRp3376
(dp3377
g65
(dp3378
g92
g93
ssg74
g3367
sg67
(lp3379
S':'
asbag60
(g81
g62
NtRp3380
(dp3381
g65
(dp3382
sg74
g3367
sg67
(lp3383
g60
(g61
g62
NtRp3384
(dp3385
g65
(dp3386
g73
I3
ssg74
g3380
sg67
(lp3387
g103
asbasbasbag60
(g76
g62
NtRp3388
(dp3389
g65
(dp3390
sg74
g2793
sg67
(lp3391
g60
(g81
g62
NtRp3392
(dp3393
g65
(dp3394
g85
g86
ssg74
g3388
sg67
(lp3395
S'wsgi.multithread'
p3396
asbag60
(g81
g62
NtRp3397
(dp3398
g65
(dp3399
g92
g93
ssg74
g3388
sg67
(lp3400
S':'
asbag60
(g81
g62
NtRp3401
(dp3402
g65
(dp3403
sg74
g3388
sg67
(lp3404
g60
(g61
g62
NtRp3405
(dp3406
g65
(dp3407
g73
I3
ssg74
g3401
sg67
(lp3408
g2301
asbasbasbag60
(g76
g62
NtRp3409
(dp3410
g65
(dp3411
sg74
g2793
sg67
(lp3412
g60
(g81
g62
NtRp3413
(dp3414
g65
(dp3415
g85
g86
ssg74
g3409
sg67
(lp3416
S'wsgi.run_once'
p3417
asbag60
(g81
g62
NtRp3418
(dp3419
g65
(dp3420
g92
g93
ssg74
g3409
sg67
(lp3421
S':'
asbag60
(g81
g62
NtRp3422
(dp3423
g65
(dp3424
sg74
g3409
sg67
(lp3425
g60
(g61
g62
NtRp3426
(dp3427
g65
(dp3428
g73
I3
ssg74
g3422
sg67
(lp3429
g103
asbasbasbag60
(g76
g62
NtRp3430
(dp3431
g65
(dp3432
sg74
g2793
sg67
(lp3433
g60
(g81
g62
NtRp3434
(dp3435
g65
(dp3436
g85
g86
ssg74
g3430
sg67
(lp3437
S'wsgi.url_scheme'
p3438
asbag60
(g81
g62
NtRp3439
(dp3440
g65
(dp3441
g92
g93
ssg74
g3430
sg67
(lp3442
S':'
asbag60
(g81
g62
NtRp3443
(dp3444
g65
(dp3445
sg74
g3430
sg67
(lp3446
g60
(g61
g62
NtRp3447
(dp3448
g65
(dp3449
g73
I3
ssg74
g3443
sg67
(lp3450
g2344
asbasbasbag60
(g76
g62
NtRp3451
(dp3452
g65
(dp3453
sg74
g2793
sg67
(lp3454
g60
(g81
g62
NtRp3455
(dp3456
g65
(dp3457
g85
g86
ssg74
g3451
sg67
(lp3458
S'wsgi.version'
p3459
asbag60
(g81
g62
NtRp3460
(dp3461
g65
(dp3462
g92
g93
ssg74
g3451
sg67
(lp3463
S':'
asbag60
(g81
g62
NtRp3464
(dp3465
g65
(dp3466
sg74
g3451
sg67
(lp3467
g60
(g61
g62
NtRp3468
(dp3469
g65
(dp3470
g73
I3
ssg74
g3464
sg67
(lp3471
S'1'
asbasbasbasbasbasbasbasbasbasbasbasbasbsS'frames'
p3472
(lp3473
(dp3474
S'file'
p3475
S'C:\\Users\\Atomico\\web2py\\gluon\\restricted.py'
p3476
sS'dump'
p3477
(dp3478
sS'lnum'
p3479
I191
sS'lines'
p3480
(dp3481
sS'call'
p3482
S'(code=\'response.write(\\\'<!DOCTYPE html>\\\\n<html lang="\\\', ...t   -->    \\\\n  </body>\\\\n</html>\\\\n\\\', escape=False)\', environment={\'A\': <class \'gluon.html.A\'>, \'B\': <class \'gluon.html.B\'>, \'BEAUTIFY\': <class \'gluon.html.BEAUTIFY\'>, \'BODY\': <class \'gluon.html.BODY\'>, \'BR\': <class \'gluon.html.BR\'>, \'BUTTON\': <class \'gluon.html.BUTTON\'>, \'CAT\': <class \'gluon.html.CAT\'>, \'CENTER\': <class \'gluon.html.CENTER\'>, \'CLEANUP\': <class \'gluon.validators.CLEANUP\'>, \'CODE\': <class \'gluon.html.CODE\'>, ...}, layer=r\'C:\\Users\\Atomico\\web2py\\applications\\Desglosar_Emails\\views\\default/entrada_mod2.html\')'
p3483
sS'func'
p3484
S'restricted'
p3485
sa(dp3486
g3475
S'C:\\Users\\Atomico\\web2py\\gluon\\restricted.py'
p3487
sg3477
(dp3488
sg3479
I178
sg3480
(dp3489
sg3482
S'(code=\'response.write(\\\'<!DOCTYPE html>\\\\n<html lang="\\\', ...t   -->    \\\\n  </body>\\\\n</html>\\\\n\\\', escape=False)\', layer=r\'C:\\Users\\Atomico\\web2py\\applications\\Desglosar_Emails\\views\\default/entrada_mod2.html\')'
p3490
sg3484
S'compile2'
p3491
sasS'pyver'
p3492
S'Python 2.5.4: C:\\Users\\Atomico\\web2py\\web2py.exe'
p3493
sS'session'
p3494
g60
(g61
g62
NtRp3495
(dp3496
g65
(dp3497
sg67
(lp3498
g60
(g69
g62
NtRp3499
(dp3500
g65
(dp3501
g73
I5
ssg74
Nsg67
(lp3502
g60
(g76
g62
NtRp3503
(dp3504
g65
(dp3505
sg74
g3499
sg67
(lp3506
g60
(g81
g62
NtRp3507
(dp3508
g65
(dp3509
g85
g86
ssg74
g3503
sg67
(lp3510
S'last_query'
p3511
asbag60
(g81
g62
NtRp3512
(dp3513
g65
(dp3514
g92
g93
ssg74
g3503
sg67
(lp3515
S':'
asbag60
(g81
g62
NtRp3516
(dp3517
g65
(dp3518
sg74
g3503
sg67
(lp3519
g60
(g61
g62
NtRp3520
(dp3521
g65
(dp3522
g73
I5
ssg74
g3516
sg67
(lp3523
S'db.info2.id>0'
p3524
asbasbasbasbasbsS'etype'
p3525
S"<type 'exceptions.SyntaxError'>"
p3526
sS'date'
p3527
S'Mon Sep 19 06:05:44 2011'
p3528
sS'response'
p3529
g60
(g61
g62
NtRp3530
(dp3531
g65
(dp3532
sg67
(lp3533
g60
(g69
g62
NtRp3534
(dp3535
g65
(dp3536
g73
I5
ssg74
Nsg67
(lp3537
g60
(g76
g62
NtRp3538
(dp3539
g65
(dp3540
sg74
g3534
sg67
(lp3541
g60
(g81
g62
NtRp3542
(dp3543
g65
(dp3544
g85
g86
ssg74
g3538
sg67
(lp3545
g158
asbag60
(g81
g62
NtRp3546
(dp3547
g65
(dp3548
g92
g93
ssg74
g3538
sg67
(lp3549
S':'
asbag60
(g81
g62
NtRp3550
(dp3551
g65
(dp3552
sg74
g3538
sg67
(lp3553
g60
(g61
g62
NtRp3554
(dp3555
g65
(dp3556
g73
I5
ssg74
g3550
sg67
(lp3557
S'<cStringIO.StringO object at 0x08E35EC0>'
p3558
asbasbasbag60
(g76
g62
NtRp3559
(dp3560
g65
(dp3561
sg74
g3534
sg67
(lp3562
g60
(g81
g62
NtRp3563
(dp3564
g65
(dp3565
g85
g86
ssg74
g3559
sg67
(lp3566
g224
asbag60
(g81
g62
NtRp3567
(dp3568
g65
(dp3569
g92
g93
ssg74
g3559
sg67
(lp3570
S':'
asbag60
(g81
g62
NtRp3571
(dp3572
g65
(dp3573
sg74
g3559
sg67
(lp3574
g60
(g61
g62
NtRp3575
(dp3576
g65
(dp3577
g73
I5
ssg74
g3571
sg67
(lp3578
g60
(g69
g62
NtRp3579
(dp3580
g65
(dp3581
g73
I4
ssg74
Nsg67
(lp3582
g60
(g76
g62
NtRp3583
(dp3584
g65
(dp3585
sg74
g3579
sg67
(lp3586
g60
(g81
g62
NtRp3587
(dp3588
g65
(dp3589
g85
g86
ssg74
g3583
sg67
(lp3590
S'session_id_desglosar_emails'
p3591
asbag60
(g81
g62
NtRp3592
(dp3593
g65
(dp3594
g92
g93
ssg74
g3583
sg67
(lp3595
S':'
asbag60
(g81
g62
NtRp3596
(dp3597
g65
(dp3598
sg74
g3583
sg67
(lp3599
g60
(g61
g62
NtRp3600
(dp3601
g65
(dp3602
g73
I4
ssg74
g3596
sg67
(lp3603
g60
(g69
g62
NtRp3604
(dp3605
g65
(dp3606
g73
I3
ssg74
Nsg67
(lp3607
g60
(g76
g62
NtRp3608
(dp3609
g65
(dp3610
sg74
g3604
sg67
(lp3611
g60
(g81
g62
NtRp3612
(dp3613
g65
(dp3614
g85
g86
ssg74
g3608
sg67
(lp3615
g274
asbag60
(g81
g62
NtRp3616
(dp3617
g65
(dp3618
g92
g93
ssg74
g3608
sg67
(lp3619
S':'
asbag60
(g81
g62
NtRp3620
(dp3621
g65
(dp3622
sg74
g3608
sg67
(lp3623
g60
(g61
g62
NtRp3624
(dp3625
g65
(dp3626
g73
I3
ssg74
g3620
sg67
(lp3627
S''
asbasbasbag60
(g76
g62
NtRp3628
(dp3629
g65
(dp3630
sg74
g3604
sg67
(lp3631
g60
(g81
g62
NtRp3632
(dp3633
g65
(dp3634
g85
g86
ssg74
g3628
sg67
(lp3635
g295
asbag60
(g81
g62
NtRp3636
(dp3637
g65
(dp3638
g92
g93
ssg74
g3628
sg67
(lp3639
S':'
asbag60
(g81
g62
NtRp3640
(dp3641
g65
(dp3642
sg74
g3628
sg67
(lp3643
g60
(g61
g62
NtRp3644
(dp3645
g65
(dp3646
g73
I3
ssg74
g3640
sg67
(lp3647
S''
asbasbasbag60
(g76
g62
NtRp3648
(dp3649
g65
(dp3650
sg74
g3604
sg67
(lp3651
g60
(g81
g62
NtRp3652
(dp3653
g65
(dp3654
g85
g86
ssg74
g3648
sg67
(lp3655
g316
asbag60
(g81
g62
NtRp3656
(dp3657
g65
(dp3658
g92
g93
ssg74
g3648
sg67
(lp3659
S':'
asbag60
(g81
g62
NtRp3660
(dp3661
g65
(dp3662
sg74
g3648
sg67
(lp3663
g60
(g61
g62
NtRp3664
(dp3665
g65
(dp3666
g73
I3
ssg74
g3660
sg67
(lp3667
S''
asbasbasbag60
(g76
g62
NtRp3668
(dp3669
g65
(dp3670
sg74
g3604
sg67
(lp3671
g60
(g81
g62
NtRp3672
(dp3673
g65
(dp3674
g85
g86
ssg74
g3668
sg67
(lp3675
g337
asbag60
(g81
g62
NtRp3676
(dp3677
g65
(dp3678
g92
g93
ssg74
g3668
sg67
(lp3679
S':'
asbag60
(g81
g62
NtRp3680
(dp3681
g65
(dp3682
sg74
g3668
sg67
(lp3683
g60
(g61
g62
NtRp3684
(dp3685
g65
(dp3686
g73
I3
ssg74
g3680
sg67
(lp3687
S''
asbasbasbag60
(g76
g62
NtRp3688
(dp3689
g65
(dp3690
sg74
g3604
sg67
(lp3691
g60
(g81
g62
NtRp3692
(dp3693
g65
(dp3694
g85
g86
ssg74
g3688
sg67
(lp3695
g358
asbag60
(g81
g62
NtRp3696
(dp3697
g65
(dp3698
g92
g93
ssg74
g3688
sg67
(lp3699
S':'
asbag60
(g81
g62
NtRp3700
(dp3701
g65
(dp3702
sg74
g3688
sg67
(lp3703
g60
(g61
g62
NtRp3704
(dp3705
g65
(dp3706
g73
I3
ssg74
g3700
sg67
(lp3707
S'/'
asbasbasbag60
(g76
g62
NtRp3708
(dp3709
g65
(dp3710
sg74
g3604
sg67
(lp3711
g60
(g81
g62
NtRp3712
(dp3713
g65
(dp3714
g85
g86
ssg74
g3708
sg67
(lp3715
g379
asbag60
(g81
g62
NtRp3716
(dp3717
g65
(dp3718
g92
g93
ssg74
g3708
sg67
(lp3719
S':'
asbag60
(g81
g62
NtRp3720
(dp3721
g65
(dp3722
sg74
g3708
sg67
(lp3723
g60
(g61
g62
NtRp3724
(dp3725
g65
(dp3726
g73
I3
ssg74
g3720
sg67
(lp3727
S''
asbasbasbag60
(g76
g62
NtRp3728
(dp3729
g65
(dp3730
sg74
g3604
sg67
(lp3731
g60
(g81
g62
NtRp3732
(dp3733
g65
(dp3734
g85
g86
ssg74
g3728
sg67
(lp3735
g400
asbag60
(g81
g62
NtRp3736
(dp3737
g65
(dp3738
g92
g93
ssg74
g3728
sg67
(lp3739
S':'
asbag60
(g81
g62
NtRp3740
(dp3741
g65
(dp3742
sg74
g3728
sg67
(lp3743
g60
(g61
g62
NtRp3744
(dp3745
g65
(dp3746
g73
I3
ssg74
g3740
sg67
(lp3747
S''
asbasbasbasbasbasbasbasbasbasbasbag60
(g76
g62
NtRp3748
(dp3749
g65
(dp3750
sg74
g3534
sg67
(lp3751
g60
(g81
g62
NtRp3752
(dp3753
g65
(dp3754
g85
g86
ssg74
g3748
sg67
(lp3755
S'files'
p3756
asbag60
(g81
g62
NtRp3757
(dp3758
g65
(dp3759
g92
g93
ssg74
g3748
sg67
(lp3760
S':'
asbag60
(g81
g62
NtRp3761
(dp3762
g65
(dp3763
sg74
g3748
sg67
(lp3764
g60
(g61
g62
NtRp3765
(dp3766
g65
(dp3767
g73
I5
ssg74
g3761
sg67
(lp3768
g60
(g69
g62
NtRp3769
(dp3770
g65
(dp3771
g73
I4
ssg74
Nsg67
(lp3772
sbasbasbasbag60
(g76
g62
NtRp3773
(dp3774
g65
(dp3775
sg74
g3534
sg67
(lp3776
g60
(g81
g62
NtRp3777
(dp3778
g65
(dp3779
g85
g86
ssg74
g3773
sg67
(lp3780
S'flash'
p3781
asbag60
(g81
g62
NtRp3782
(dp3783
g65
(dp3784
g92
g93
ssg74
g3773
sg67
(lp3785
S':'
asbag60
(g81
g62
NtRp3786
(dp3787
g65
(dp3788
sg74
g3773
sg67
(lp3789
g60
(g61
g62
NtRp3790
(dp3791
g65
(dp3792
g73
I5
ssg74
g3786
sg67
(lp3793
S''
asbasbasbag60
(g76
g62
NtRp3794
(dp3795
g65
(dp3796
sg74
g3534
sg67
(lp3797
g60
(g81
g62
NtRp3798
(dp3799
g65
(dp3800
g85
g86
ssg74
g3794
sg67
(lp3801
S'generic_patterns'
p3802
asbag60
(g81
g62
NtRp3803
(dp3804
g65
(dp3805
g92
g93
ssg74
g3794
sg67
(lp3806
S':'
asbag60
(g81
g62
NtRp3807
(dp3808
g65
(dp3809
sg74
g3794
sg67
(lp3810
g60
(g61
g62
NtRp3811
(dp3812
g65
(dp3813
g73
I5
ssg74
g3807
sg67
(lp3814
g60
(g69
g62
NtRp3815
(dp3816
g65
(dp3817
g73
I4
ssg74
Nsg67
(lp3818
sbasbasbasbag60
(g76
g62
NtRp3819
(dp3820
g65
(dp3821
sg74
g3534
sg67
(lp3822
g60
(g81
g62
NtRp3823
(dp3824
g65
(dp3825
g85
g86
ssg74
g3819
sg67
(lp3826
S'headers'
p3827
asbag60
(g81
g62
NtRp3828
(dp3829
g65
(dp3830
g92
g93
ssg74
g3819
sg67
(lp3831
S':'
asbag60
(g81
g62
NtRp3832
(dp3833
g65
(dp3834
sg74
g3819
sg67
(lp3835
g60
(g61
g62
NtRp3836
(dp3837
g65
(dp3838
g73
I5
ssg74
g3832
sg67
(lp3839
g60
(g69
g62
NtRp3840
(dp3841
g65
(dp3842
g73
I4
ssg74
Nsg67
(lp3843
g60
(g76
g62
NtRp3844
(dp3845
g65
(dp3846
sg74
g3840
sg67
(lp3847
g60
(g81
g62
NtRp3848
(dp3849
g65
(dp3850
g85
g86
ssg74
g3844
sg67
(lp3851
S'Cache-Control'
p3852
asbag60
(g81
g62
NtRp3853
(dp3854
g65
(dp3855
g92
g93
ssg74
g3844
sg67
(lp3856
S':'
asbag60
(g81
g62
NtRp3857
(dp3858
g65
(dp3859
sg74
g3844
sg67
(lp3860
g60
(g61
g62
NtRp3861
(dp3862
g65
(dp3863
g73
I4
ssg74
g3857
sg67
(lp3864
S'no-store, no-cache, must-revalidate, post-check=0, pre-check=0'
p3865
asbasbasbag60
(g76
g62
NtRp3866
(dp3867
g65
(dp3868
sg74
g3840
sg67
(lp3869
g60
(g81
g62
NtRp3870
(dp3871
g65
(dp3872
g85
g86
ssg74
g3866
sg67
(lp3873
S'Content-Type'
p3874
asbag60
(g81
g62
NtRp3875
(dp3876
g65
(dp3877
g92
g93
ssg74
g3866
sg67
(lp3878
S':'
asbag60
(g81
g62
NtRp3879
(dp3880
g65
(dp3881
sg74
g3866
sg67
(lp3882
g60
(g61
g62
NtRp3883
(dp3884
g65
(dp3885
g73
I4
ssg74
g3879
sg67
(lp3886
S'text/html; charset=utf-8'
p3887
asbasbasbag60
(g76
g62
NtRp3888
(dp3889
g65
(dp3890
sg74
g3840
sg67
(lp3891
g60
(g81
g62
NtRp3892
(dp3893
g65
(dp3894
g85
g86
ssg74
g3888
sg67
(lp3895
S'Expires'
p3896
asbag60
(g81
g62
NtRp3897
(dp3898
g65
(dp3899
g92
g93
ssg74
g3888
sg67
(lp3900
S':'
asbag60
(g81
g62
NtRp3901
(dp3902
g65
(dp3903
sg74
g3888
sg67
(lp3904
g60
(g61
g62
NtRp3905
(dp3906
g65
(dp3907
g73
I4
ssg74
g3901
sg67
(lp3908
S'Mon, 19 Sep 2011 04:05:44 GMT'
p3909
asbasbasbag60
(g76
g62
NtRp3910
(dp3911
g65
(dp3912
sg74
g3840
sg67
(lp3913
g60
(g81
g62
NtRp3914
(dp3915
g65
(dp3916
g85
g86
ssg74
g3910
sg67
(lp3917
S'Pragma'
p3918
asbag60
(g81
g62
NtRp3919
(dp3920
g65
(dp3921
g92
g93
ssg74
g3910
sg67
(lp3922
S':'
asbag60
(g81
g62
NtRp3923
(dp3924
g65
(dp3925
sg74
g3910
sg67
(lp3926
g60
(g61
g62
NtRp3927
(dp3928
g65
(dp3929
g73
I4
ssg74
g3923
sg67
(lp3930
S'no-cache'
p3931
asbasbasbag60
(g76
g62
NtRp3932
(dp3933
g65
(dp3934
sg74
g3840
sg67
(lp3935
g60
(g81
g62
NtRp3936
(dp3937
g65
(dp3938
g85
g86
ssg74
g3932
sg67
(lp3939
S'X-Powered-By'
p3940
asbag60
(g81
g62
NtRp3941
(dp3942
g65
(dp3943
g92
g93
ssg74
g3932
sg67
(lp3944
S':'
asbag60
(g81
g62
NtRp3945
(dp3946
g65
(dp3947
sg74
g3932
sg67
(lp3948
g60
(g61
g62
NtRp3949
(dp3950
g65
(dp3951
g73
I4
ssg74
g3945
sg67
(lp3952
S'web2py'
p3953
asbasbasbasbasbasbasbag60
(g76
g62
NtRp3954
(dp3955
g65
(dp3956
sg74
g3534
sg67
(lp3957
g60
(g81
g62
NtRp3958
(dp3959
g65
(dp3960
g85
g86
ssg74
g3954
sg67
(lp3961
S'menu'
p3962
asbag60
(g81
g62
NtRp3963
(dp3964
g65
(dp3965
g92
g93
ssg74
g3954
sg67
(lp3966
S':'
asbag60
(g81
g62
NtRp3967
(dp3968
g65
(dp3969
sg74
g3954
sg67
(lp3970
g60
(g61
g62
NtRp3971
(dp3972
g65
(dp3973
g73
I5
ssg74
g3967
sg67
(lp3974
g60
(g69
g62
NtRp3975
(dp3976
g65
(dp3977
g73
I4
ssg74
Nsg67
(lp3978
g60
(g76
g62
NtRp3979
(dp3980
g65
(dp3981
sg74
g3975
sg67
(lp3982
g60
(g81
g62
NtRp3983
(dp3984
g65
(dp3985
sg74
g3979
sg67
(lp3986
g60
(g61
g62
NtRp3987
(dp3988
g65
(dp3989
g73
I4
ssg74
g3983
sg67
(lp3990
g60
(g69
g62
NtRp3991
(dp3992
g65
(dp3993
g73
I3
ssg74
Nsg67
(lp3994
g60
(g76
g62
NtRp3995
(dp3996
g65
(dp3997
sg74
g3991
sg67
(lp3998
g60
(g81
g62
NtRp3999
(dp4000
g65
(dp4001
sg74
g3995
sg67
(lp4002
g60
(g61
g62
NtRp4003
(dp4004
g65
(dp4005
g73
I3
ssg74
g3999
sg67
(lp4006
cgluon.languages
lazyT_unpickle
p4007
(S't\x04\x00\x00\x00Home'
tRp4008
asbasbasbag60
(g76
g62
NtRp4009
(dp4010
g65
(dp4011
sg74
g3991
sg67
(lp4012
g60
(g81
g62
NtRp4013
(dp4014
g65
(dp4015
sg74
g4009
sg67
(lp4016
g60
(g61
g62
NtRp4017
(dp4018
g65
(dp4019
g73
I3
ssg74
g4013
sg67
(lp4020
g103
asbasbasbag60
(g76
g62
NtRp4021
(dp4022
g65
(dp4023
sg74
g3991
sg67
(lp4024
g60
(g81
g62
NtRp4025
(dp4026
g65
(dp4027
sg74
g4021
sg67
(lp4028
g60
(g61
g62
NtRp4029
(dp4030
g65
(dp4031
g73
I3
ssg74
g4025
sg67
(lp4032
S'/Desglosar_Emails/default/index'
p4033
asbasbasbag60
(g76
g62
NtRp4034
(dp4035
g65
(dp4036
sg74
g3991
sg67
(lp4037
g60
(g81
g62
NtRp4038
(dp4039
g65
(dp4040
sg74
g4034
sg67
(lp4041
g60
(g61
g62
NtRp4042
(dp4043
g65
(dp4044
g73
I3
ssg74
g4038
sg67
(lp4045
g60
(g69
g62
NtRp4046
(dp4047
g65
(dp4048
g73
I2
ssg74
Nsg67
(lp4049
sbasbasbasbasbasbasbasbag60
(g76
g62
NtRp4050
(dp4051
g65
(dp4052
sg74
g3975
sg67
(lp4053
g60
(g81
g62
NtRp4054
(dp4055
g65
(dp4056
sg74
g4050
sg67
(lp4057
g60
(g61
g62
NtRp4058
(dp4059
g65
(dp4060
g73
I4
ssg74
g4054
sg67
(lp4061
g60
(g69
g62
NtRp4062
(dp4063
g65
(dp4064
g73
I3
ssg74
Nsg67
(lp4065
g60
(g76
g62
NtRp4066
(dp4067
g65
(dp4068
sg74
g4062
sg67
(lp4069
g60
(g81
g62
NtRp4070
(dp4071
g65
(dp4072
sg74
g4066
sg67
(lp4073
g60
(g61
g62
NtRp4074
(dp4075
g65
(dp4076
g73
I3
ssg74
g4070
sg67
(lp4077
g4007
(S's\x08\x00\x00\x00This App'
tRp4078
asbasbasbag60
(g76
g62
NtRp4079
(dp4080
g65
(dp4081
sg74
g4062
sg67
(lp4082
g60
(g81
g62
NtRp4083
(dp4084
g65
(dp4085
sg74
g4079
sg67
(lp4086
g60
(g61
g62
NtRp4087
(dp4088
g65
(dp4089
g73
I3
ssg74
g4083
sg67
(lp4090
g103
asbasbasbag60
(g76
g62
NtRp4091
(dp4092
g65
(dp4093
sg74
g4062
sg67
(lp4094
g60
(g81
g62
NtRp4095
(dp4096
g65
(dp4097
sg74
g4091
sg67
(lp4098
g60
(g61
g62
NtRp4099
(dp4100
g65
(dp4101
g73
I3
ssg74
g4095
sg67
(lp4102
S'/admin/default/design/Desglosar_Emails'
p4103
asbasbasbag60
(g76
g62
NtRp4104
(dp4105
g65
(dp4106
sg74
g4062
sg67
(lp4107
g60
(g81
g62
NtRp4108
(dp4109
g65
(dp4110
sg74
g4104
sg67
(lp4111
g60
(g61
g62
NtRp4112
(dp4113
g65
(dp4114
g73
I3
ssg74
g4108
sg67
(lp4115
g60
(g69
g62
NtRp4116
(dp4117
g65
(dp4118
g73
I2
ssg74
Nsg67
(lp4119
g60
(g76
g62
NtRp4120
(dp4121
g65
(dp4122
sg74
g4116
sg67
(lp4123
g60
(g81
g62
NtRp4124
(dp4125
g65
(dp4126
sg74
g4120
sg67
(lp4127
g60
(g61
g62
NtRp4128
(dp4129
g65
(dp4130
g73
I2
ssg74
g4124
sg67
(lp4131
g60
(g69
g62
NtRp4132
(dp4133
g65
(dp4134
g73
I1
ssg74
Nsg67
(lp4135
g60
(g76
g62
NtRp4136
(dp4137
g65
(dp4138
sg74
g4132
sg67
(lp4139
g60
(g81
g62
NtRp4140
(dp4141
g65
(dp4142
sg74
g4136
sg67
(lp4143
g60
(g61
g62
NtRp4144
(dp4145
g65
(dp4146
g73
I1
ssg74
g4140
sg67
(lp4147
g4007
(S't\x0b\x00\x00\x00Controlador'
tRp4148
asbasbasbag60
(g76
g62
NtRp4149
(dp4150
g65
(dp4151
sg74
g4132
sg67
(lp4152
g60
(g81
g62
NtRp4153
(dp4154
g65
(dp4155
sg74
g4149
sg67
(lp4156
g60
(g61
g62
NtRp4157
(dp4158
g65
(dp4159
g73
I1
ssg74
g4153
sg67
(lp4160
I00
asbasbasbag60
(g76
g62
NtRp4161
(dp4162
g65
(dp4163
sg74
g4132
sg67
(lp4164
g60
(g81
g62
NtRp4165
(dp4166
g65
(dp4167
sg74
g4161
sg67
(lp4168
g60
(g61
g62
NtRp4169
(dp4170
g65
(dp4171
g73
I1
ssg74
g4165
sg67
(lp4172
S'/admin/default/edit/Desglosar_Emails/controllers/default.py'
p4173
asbasbasbasbasbasbasbag60
(g76
g62
NtRp4174
(dp4175
g65
(dp4176
sg74
g4116
sg67
(lp4177
g60
(g81
g62
NtRp4178
(dp4179
g65
(dp4180
sg74
g4174
sg67
(lp4181
g60
(g61
g62
NtRp4182
(dp4183
g65
(dp4184
g73
I2
ssg74
g4178
sg67
(lp4185
g60
(g69
g62
NtRp4186
(dp4187
g65
(dp4188
g73
I1
ssg74
Nsg67
(lp4189
g60
(g76
g62
NtRp4190
(dp4191
g65
(dp4192
sg74
g4186
sg67
(lp4193
g60
(g81
g62
NtRp4194
(dp4195
g65
(dp4196
sg74
g4190
sg67
(lp4197
g60
(g61
g62
NtRp4198
(dp4199
g65
(dp4200
g73
I1
ssg74
g4194
sg67
(lp4201
g4007
(S't\x05\x00\x00\x00Vista'
tRp4202
asbasbasbag60
(g76
g62
NtRp4203
(dp4204
g65
(dp4205
sg74
g4186
sg67
(lp4206
g60
(g81
g62
NtRp4207
(dp4208
g65
(dp4209
sg74
g4203
sg67
(lp4210
g60
(g61
g62
NtRp4211
(dp4212
g65
(dp4213
g73
I1
ssg74
g4207
sg67
(lp4214
I00
asbasbasbag60
(g76
g62
NtRp4215
(dp4216
g65
(dp4217
sg74
g4186
sg67
(lp4218
g60
(g81
g62
NtRp4219
(dp4220
g65
(dp4221
sg74
g4215
sg67
(lp4222
g60
(g61
g62
NtRp4223
(dp4224
g65
(dp4225
g73
I1
ssg74
g4219
sg67
(lp4226
S'/admin/default/edit/Desglosar_Emails/views/default/entrada_mod2.html'
p4227
asbasbasbasbasbasbasbag60
(g76
g62
NtRp4228
(dp4229
g65
(dp4230
sg74
g4116
sg67
(lp4231
g60
(g81
g62
NtRp4232
(dp4233
g65
(dp4234
sg74
g4228
sg67
(lp4235
g60
(g61
g62
NtRp4236
(dp4237
g65
(dp4238
g73
I2
ssg74
g4232
sg67
(lp4239
g60
(g69
g62
NtRp4240
(dp4241
g65
(dp4242
g73
I1
ssg74
Nsg67
(lp4243
g60
(g76
g62
NtRp4244
(dp4245
g65
(dp4246
sg74
g4240
sg67
(lp4247
g60
(g81
g62
NtRp4248
(dp4249
g65
(dp4250
sg74
g4244
sg67
(lp4251
g60
(g61
g62
NtRp4252
(dp4253
g65
(dp4254
g73
I1
ssg74
g4248
sg67
(lp4255
g4007
(S's\x12\x00\x00\x00Dise\xc3\xb1o de p\xc3\xa1gina'
tRp4256
asbasbasbag60
(g76
g62
NtRp4257
(dp4258
g65
(dp4259
sg74
g4240
sg67
(lp4260
g60
(g81
g62
NtRp4261
(dp4262
g65
(dp4263
sg74
g4257
sg67
(lp4264
g60
(g61
g62
NtRp4265
(dp4266
g65
(dp4267
g73
I1
ssg74
g4261
sg67
(lp4268
I00
asbasbasbag60
(g76
g62
NtRp4269
(dp4270
g65
(dp4271
sg74
g4240
sg67
(lp4272
g60
(g81
g62
NtRp4273
(dp4274
g65
(dp4275
sg74
g4269
sg67
(lp4276
g60
(g61
g62
NtRp4277
(dp4278
g65
(dp4279
g73
I1
ssg74
g4273
sg67
(lp4280
S'/admin/default/edit/Desglosar_Emails/views/layout.html'
p4281
asbasbasbasbasbasbasbag60
(g76
g62
NtRp4282
(dp4283
g65
(dp4284
sg74
g4116
sg67
(lp4285
g60
(g81
g62
NtRp4286
(dp4287
g65
(dp4288
sg74
g4282
sg67
(lp4289
g60
(g61
g62
NtRp4290
(dp4291
g65
(dp4292
g73
I2
ssg74
g4286
sg67
(lp4293
g60
(g69
g62
NtRp4294
(dp4295
g65
(dp4296
g73
I1
ssg74
Nsg67
(lp4297
g60
(g76
g62
NtRp4298
(dp4299
g65
(dp4300
sg74
g4294
sg67
(lp4301
g60
(g81
g62
NtRp4302
(dp4303
g65
(dp4304
sg74
g4298
sg67
(lp4305
g60
(g61
g62
NtRp4306
(dp4307
g65
(dp4308
g73
I1
ssg74
g4302
sg67
(lp4309
g4007
(S's\x0e\x00\x00\x00Hoja de estilo'
tRp4310
asbasbasbag60
(g76
g62
NtRp4311
(dp4312
g65
(dp4313
sg74
g4294
sg67
(lp4314
g60
(g81
g62
NtRp4315
(dp4316
g65
(dp4317
sg74
g4311
sg67
(lp4318
g60
(g61
g62
NtRp4319
(dp4320
g65
(dp4321
g73
I1
ssg74
g4315
sg67
(lp4322
I00
asbasbasbag60
(g76
g62
NtRp4323
(dp4324
g65
(dp4325
sg74
g4294
sg67
(lp4326
g60
(g81
g62
NtRp4327
(dp4328
g65
(dp4329
sg74
g4323
sg67
(lp4330
g60
(g61
g62
NtRp4331
(dp4332
g65
(dp4333
g73
I1
ssg74
g4327
sg67
(lp4334
S'/admin/default/edit/Desglosar_Emails/static/base.css'
p4335
asbasbasbasbasbasbasbag60
(g76
g62
NtRp4336
(dp4337
g65
(dp4338
sg74
g4116
sg67
(lp4339
g60
(g81
g62
NtRp4340
(dp4341
g65
(dp4342
sg74
g4336
sg67
(lp4343
g60
(g61
g62
NtRp4344
(dp4345
g65
(dp4346
g73
I2
ssg74
g4340
sg67
(lp4347
g60
(g69
g62
NtRp4348
(dp4349
g65
(dp4350
g73
I1
ssg74
Nsg67
(lp4351
g60
(g76
g62
NtRp4352
(dp4353
g65
(dp4354
sg74
g4348
sg67
(lp4355
g60
(g81
g62
NtRp4356
(dp4357
g65
(dp4358
sg74
g4352
sg67
(lp4359
g60
(g61
g62
NtRp4360
(dp4361
g65
(dp4362
g73
I1
ssg74
g4356
sg67
(lp4363
g4007
(S's\x0b\x00\x00\x00Modelo "db"'
tRp4364
asbasbasbag60
(g76
g62
NtRp4365
(dp4366
g65
(dp4367
sg74
g4348
sg67
(lp4368
g60
(g81
g62
NtRp4369
(dp4370
g65
(dp4371
sg74
g4365
sg67
(lp4372
g60
(g61
g62
NtRp4373
(dp4374
g65
(dp4375
g73
I1
ssg74
g4369
sg67
(lp4376
I00
asbasbasbag60
(g76
g62
NtRp4377
(dp4378
g65
(dp4379
sg74
g4348
sg67
(lp4380
g60
(g81
g62
NtRp4381
(dp4382
g65
(dp4383
sg74
g4377
sg67
(lp4384
g60
(g61
g62
NtRp4385
(dp4386
g65
(dp4387
g73
I1
ssg74
g4381
sg67
(lp4388
S'/admin/default/edit/Desglosar_Emails/models/db.py'
p4389
asbasbasbasbasbasbasbag60
(g76
g62
NtRp4390
(dp4391
g65
(dp4392
sg74
g4116
sg67
(lp4393
g60
(g81
g62
NtRp4394
(dp4395
g65
(dp4396
sg74
g4390
sg67
(lp4397
g60
(g61
g62
NtRp4398
(dp4399
g65
(dp4400
g73
I2
ssg74
g4394
sg67
(lp4401
g60
(g69
g62
NtRp4402
(dp4403
g65
(dp4404
g73
I1
ssg74
Nsg67
(lp4405
g60
(g76
g62
NtRp4406
(dp4407
g65
(dp4408
sg74
g4402
sg67
(lp4409
g60
(g81
g62
NtRp4410
(dp4411
g65
(dp4412
sg74
g4406
sg67
(lp4413
g60
(g61
g62
NtRp4414
(dp4415
g65
(dp4416
g73
I1
ssg74
g4410
sg67
(lp4417
g4007
(S's\r\x00\x00\x00Modelo "menu"'
tRp4418
asbasbasbag60
(g76
g62
NtRp4419
(dp4420
g65
(dp4421
sg74
g4402
sg67
(lp4422
g60
(g81
g62
NtRp4423
(dp4424
g65
(dp4425
sg74
g4419
sg67
(lp4426
g60
(g61
g62
NtRp4427
(dp4428
g65
(dp4429
g73
I1
ssg74
g4423
sg67
(lp4430
I00
asbasbasbag60
(g76
g62
NtRp4431
(dp4432
g65
(dp4433
sg74
g4402
sg67
(lp4434
g60
(g81
g62
NtRp4435
(dp4436
g65
(dp4437
sg74
g4431
sg67
(lp4438
g60
(g61
g62
NtRp4439
(dp4440
g65
(dp4441
g73
I1
ssg74
g4435
sg67
(lp4442
S'/admin/default/edit/Desglosar_Emails/models/menu.py'
p4443
asbasbasbasbasbasbasbag60
(g76
g62
NtRp4444
(dp4445
g65
(dp4446
sg74
g4116
sg67
(lp4447
g60
(g81
g62
NtRp4448
(dp4449
g65
(dp4450
sg74
g4444
sg67
(lp4451
g60
(g61
g62
NtRp4452
(dp4453
g65
(dp4454
g73
I2
ssg74
g4448
sg67
(lp4455
g60
(g69
g62
NtRp4456
(dp4457
g65
(dp4458
g73
I1
ssg74
Nsg67
(lp4459
g60
(g76
g62
NtRp4460
(dp4461
g65
(dp4462
sg74
g4456
sg67
(lp4463
g60
(g81
g62
NtRp4464
(dp4465
g65
(dp4466
sg74
g4460
sg67
(lp4467
g60
(g61
g62
NtRp4468
(dp4469
g65
(dp4470
g73
I1
ssg74
g4464
sg67
(lp4471
g4007
(S's\r\x00\x00\x00Base de datos'
tRp4472
asbasbasbag60
(g76
g62
NtRp4473
(dp4474
g65
(dp4475
sg74
g4456
sg67
(lp4476
g60
(g81
g62
NtRp4477
(dp4478
g65
(dp4479
sg74
g4473
sg67
(lp4480
g60
(g61
g62
NtRp4481
(dp4482
g65
(dp4483
g73
I1
ssg74
g4477
sg67
(lp4484
I00
asbasbasbag60
(g76
g62
NtRp4485
(dp4486
g65
(dp4487
sg74
g4456
sg67
(lp4488
g60
(g81
g62
NtRp4489
(dp4490
g65
(dp4491
sg74
g4485
sg67
(lp4492
g60
(g61
g62
NtRp4493
(dp4494
g65
(dp4495
g73
I1
ssg74
g4489
sg67
(lp4496
S'/Desglosar_Emails/appadmin/index'
p4497
asbasbasbasbasbasbasbag60
(g76
g62
NtRp4498
(dp4499
g65
(dp4500
sg74
g4116
sg67
(lp4501
g60
(g81
g62
NtRp4502
(dp4503
g65
(dp4504
sg74
g4498
sg67
(lp4505
g60
(g61
g62
NtRp4506
(dp4507
g65
(dp4508
g73
I2
ssg74
g4502
sg67
(lp4509
g60
(g69
g62
NtRp4510
(dp4511
g65
(dp4512
g73
I1
ssg74
Nsg67
(lp4513
g60
(g76
g62
NtRp4514
(dp4515
g65
(dp4516
sg74
g4510
sg67
(lp4517
g60
(g81
g62
NtRp4518
(dp4519
g65
(dp4520
sg74
g4514
sg67
(lp4521
g60
(g61
g62
NtRp4522
(dp4523
g65
(dp4524
g73
I1
ssg74
g4518
sg67
(lp4525
g4007
(S't\x06\x00\x00\x00Errors'
tRp4526
asbasbasbag60
(g76
g62
NtRp4527
(dp4528
g65
(dp4529
sg74
g4510
sg67
(lp4530
g60
(g81
g62
NtRp4531
(dp4532
g65
(dp4533
sg74
g4527
sg67
(lp4534
g60
(g61
g62
NtRp4535
(dp4536
g65
(dp4537
g73
I1
ssg74
g4531
sg67
(lp4538
I00
asbasbasbag60
(g76
g62
NtRp4539
(dp4540
g65
(dp4541
sg74
g4510
sg67
(lp4542
g60
(g81
g62
NtRp4543
(dp4544
g65
(dp4545
sg74
g4539
sg67
(lp4546
g60
(g61
g62
NtRp4547
(dp4548
g65
(dp4549
g73
I1
ssg74
g4543
sg67
(lp4550
S'/admin/default/errors/Desglosar_Emails'
p4551
asbasbasbasbasbasbasbag60
(g76
g62
NtRp4552
(dp4553
g65
(dp4554
sg74
g4116
sg67
(lp4555
g60
(g81
g62
NtRp4556
(dp4557
g65
(dp4558
sg74
g4552
sg67
(lp4559
g60
(g61
g62
NtRp4560
(dp4561
g65
(dp4562
g73
I2
ssg74
g4556
sg67
(lp4563
g60
(g69
g62
NtRp4564
(dp4565
g65
(dp4566
g73
I1
ssg74
Nsg67
(lp4567
g60
(g76
g62
NtRp4568
(dp4569
g65
(dp4570
sg74
g4564
sg67
(lp4571
g60
(g81
g62
NtRp4572
(dp4573
g65
(dp4574
sg74
g4568
sg67
(lp4575
g60
(g61
g62
NtRp4576
(dp4577
g65
(dp4578
g73
I1
ssg74
g4572
sg67
(lp4579
g4007
(S's\t\x00\x00\x00Acerca de'
tRp4580
asbasbasbag60
(g76
g62
NtRp4581
(dp4582
g65
(dp4583
sg74
g4564
sg67
(lp4584
g60
(g81
g62
NtRp4585
(dp4586
g65
(dp4587
sg74
g4581
sg67
(lp4588
g60
(g61
g62
NtRp4589
(dp4590
g65
(dp4591
g73
I1
ssg74
g4585
sg67
(lp4592
I00
asbasbasbag60
(g76
g62
NtRp4593
(dp4594
g65
(dp4595
sg74
g4564
sg67
(lp4596
g60
(g81
g62
NtRp4597
(dp4598
g65
(dp4599
sg74
g4593
sg67
(lp4600
g60
(g61
g62
NtRp4601
(dp4602
g65
(dp4603
g73
I1
ssg74
g4597
sg67
(lp4604
S'/admin/default/about/Desglosar_Emails'
p4605
asbasbasbasbasbasbasbasbasbasbasbasbasbasbasbag60
(g76
g62
NtRp4606
(dp4607
g65
(dp4608
sg74
g3975
sg67
(lp4609
g60
(g81
g62
NtRp4610
(dp4611
g65
(dp4612
sg74
g4606
sg67
(lp4613
g60
(g61
g62
NtRp4614
(dp4615
g65
(dp4616
g73
I4
ssg74
g4610
sg67
(lp4617
g60
(g69
g62
NtRp4618
(dp4619
g65
(dp4620
g73
I3
ssg74
Nsg67
(lp4621
g60
(g76
g62
NtRp4622
(dp4623
g65
(dp4624
sg74
g4618
sg67
(lp4625
g60
(g81
g62
NtRp4626
(dp4627
g65
(dp4628
sg74
g4622
sg67
(lp4629
g60
(g61
g62
NtRp4630
(dp4631
g65
(dp4632
g73
I3
ssg74
g4626
sg67
(lp4633
g4007
(S't\t\x00\x00\x00Resources'
tRp4634
asbasbasbag60
(g76
g62
NtRp4635
(dp4636
g65
(dp4637
sg74
g4618
sg67
(lp4638
g60
(g81
g62
NtRp4639
(dp4640
g65
(dp4641
sg74
g4635
sg67
(lp4642
g60
(g61
g62
NtRp4643
(dp4644
g65
(dp4645
g73
I3
ssg74
g4639
sg67
(lp4646
g103
asbasbasbag60
(g76
g62
NtRp4647
(dp4648
g65
(dp4649
sg74
g4618
sg67
(lp4650
g60
(g81
g62
NtRp4651
(dp4652
g65
(dp4653
sg74
g4647
sg67
(lp4654
g60
(g61
g62
NtRp4655
(dp4656
g65
(dp4657
g73
I3
ssg74
g4651
sg67
(lp4658
S'None'
p4659
asbasbasbag60
(g76
g62
NtRp4660
(dp4661
g65
(dp4662
sg74
g4618
sg67
(lp4663
g60
(g81
g62
NtRp4664
(dp4665
g65
(dp4666
sg74
g4660
sg67
(lp4667
g60
(g61
g62
NtRp4668
(dp4669
g65
(dp4670
g73
I3
ssg74
g4664
sg67
(lp4671
g60
(g69
g62
NtRp4672
(dp4673
g65
(dp4674
g73
I2
ssg74
Nsg67
(lp4675
g60
(g76
g62
NtRp4676
(dp4677
g65
(dp4678
sg74
g4672
sg67
(lp4679
g60
(g81
g62
NtRp4680
(dp4681
g65
(dp4682
sg74
g4676
sg67
(lp4683
g60
(g61
g62
NtRp4684
(dp4685
g65
(dp4686
g73
I2
ssg74
g4680
sg67
(lp4687
g60
(g69
g62
NtRp4688
(dp4689
g65
(dp4690
g73
I1
ssg74
Nsg67
(lp4691
g60
(g76
g62
NtRp4692
(dp4693
g65
(dp4694
sg74
g4688
sg67
(lp4695
g60
(g81
g62
NtRp4696
(dp4697
g65
(dp4698
sg74
g4692
sg67
(lp4699
g60
(g61
g62
NtRp4700
(dp4701
g65
(dp4702
g73
I1
ssg74
g4696
sg67
(lp4703
g4007
(S's\x0e\x00\x00\x00Documentaci\xc3\xb3n'
tRp4704
asbasbasbag60
(g76
g62
NtRp4705
(dp4706
g65
(dp4707
sg74
g4688
sg67
(lp4708
g60
(g81
g62
NtRp4709
(dp4710
g65
(dp4711
sg74
g4705
sg67
(lp4712
g60
(g61
g62
NtRp4713
(dp4714
g65
(dp4715
g73
I1
ssg74
g4709
sg67
(lp4716
I00
asbasbasbag60
(g76
g62
NtRp4717
(dp4718
g65
(dp4719
sg74
g4688
sg67
(lp4720
g60
(g81
g62
NtRp4721
(dp4722
g65
(dp4723
sg74
g4717
sg67
(lp4724
g60
(g61
g62
NtRp4725
(dp4726
g65
(dp4727
g73
I1
ssg74
g4721
sg67
(lp4728
S'http://www.web2py.com/book'
p4729
asbasbasbag60
(g76
g62
NtRp4730
(dp4731
g65
(dp4732
sg74
g4688
sg67
(lp4733
g60
(g81
g62
NtRp4734
(dp4735
g65
(dp4736
sg74
g4730
sg67
(lp4737
g60
(g61
g62
NtRp4738
(dp4739
g65
(dp4740
g73
I1
ssg74
g4734
sg67
(lp4741
(lp4742
(g4007
(S't\x07\x00\x00\x00Preface'
tRp4743
I00
S'http://www.web2py.com/book/default/chapter/00'
tp4744
a(g4007
(S't\x0c\x00\x00\x00Introduction'
tRp4745
I00
S'http://www.web2py.com/book/default/chapter/01'
tp4746
a(g4007
(S't\x06\x00\x00\x00Python'
tRp4747
I00
S'http://www.web2py.com/book/default/chapter/02'
tp4748
a(g4007
(S't\x08\x00\x00\x00Overview'
tRp4749
I00
S'http://www.web2py.com/book/default/chapter/03'
tp4750
a(g4007
(S's\x08\x00\x00\x00The Core'
tRp4751
I00
S'http://www.web2py.com/book/default/chapter/04'
tp4752
a(g4007
(S's\t\x00\x00\x00The Views'
tRp4753
I00
S'http://www.web2py.com/book/default/chapter/05'
tp4754
a(g4007
(S's\r\x00\x00\x00Base de datos'
tRp4755
I00
S'http://www.web2py.com/book/default/chapter/06'
tp4756
a(g4007
(S's\x14\x00\x00\x00Forms and Validators'
tRp4757
I00
S'http://www.web2py.com/book/default/chapter/07'
tp4758
a(g4007
(S's\x0e\x00\x00\x00Access Control'
tRp4759
I00
S'http://www.web2py.com/book/default/chapter/08'
tp4760
a(g4007
(S't\x08\x00\x00\x00Services'
tRp4761
I00
S'http://www.web2py.com/book/default/chapter/09'
tp4762
a(g4007
(S's\x0c\x00\x00\x00Ajax Recipes'
tRp4763
I00
S'http://www.web2py.com/book/default/chapter/10'
tp4764
a(g4007
(S's\x12\x00\x00\x00Deployment Recipes'
tRp4765
I00
S'http://www.web2py.com/book/default/chapter/11'
tp4766
a(g4007
(S's\r\x00\x00\x00Other Recipes'
tRp4767
I00
S'http://www.web2py.com/book/default/chapter/12'
tp4768
a(g4007
(S's\r\x00\x00\x00Buy this book'
tRp4769
I00
S'http://stores.lulu.com/web2py'
tp4770
aasbasbasbasbasbasbasbag60
(g76
g62
NtRp4771
(dp4772
g65
(dp4773
sg74
g4672
sg67
(lp4774
g60
(g81
g62
NtRp4775
(dp4776
g65
(dp4777
sg74
g4771
sg67
(lp4778
g60
(g61
g62
NtRp4779
(dp4780
g65
(dp4781
g73
I2
ssg74
g4775
sg67
(lp4782
g60
(g69
g62
NtRp4783
(dp4784
g65
(dp4785
g73
I1
ssg74
Nsg67
(lp4786
g60
(g76
g62
NtRp4787
(dp4788
g65
(dp4789
sg74
g4783
sg67
(lp4790
g60
(g81
g62
NtRp4791
(dp4792
g65
(dp4793
sg74
g4787
sg67
(lp4794
g60
(g61
g62
NtRp4795
(dp4796
g65
(dp4797
g73
I1
ssg74
g4791
sg67
(lp4798
g4007
(S't\t\x00\x00\x00Community'
tRp4799
asbasbasbag60
(g76
g62
NtRp4800
(dp4801
g65
(dp4802
sg74
g4783
sg67
(lp4803
g60
(g81
g62
NtRp4804
(dp4805
g65
(dp4806
sg74
g4800
sg67
(lp4807
g60
(g61
g62
NtRp4808
(dp4809
g65
(dp4810
g73
I1
ssg74
g4804
sg67
(lp4811
I00
asbasbasbag60
(g76
g62
NtRp4812
(dp4813
g65
(dp4814
sg74
g4783
sg67
(lp4815
g60
(g81
g62
NtRp4816
(dp4817
g65
(dp4818
sg74
g4812
sg67
(lp4819
g60
(g61
g62
NtRp4820
(dp4821
g65
(dp4822
g73
I1
ssg74
g4816
sg67
(lp4823
Nasbasbasbag60
(g76
g62
NtRp4824
(dp4825
g65
(dp4826
sg74
g4783
sg67
(lp4827
g60
(g81
g62
NtRp4828
(dp4829
g65
(dp4830
sg74
g4824
sg67
(lp4831
g60
(g61
g62
NtRp4832
(dp4833
g65
(dp4834
g73
I1
ssg74
g4828
sg67
(lp4835
(lp4836
(g4007
(S't\x06\x00\x00\x00Groups'
tRp4837
I00
S'http://www.web2py.com/examples/default/usergroups'
tp4838
a(g4007
(S't\x07\x00\x00\x00Twitter'
tRp4839
I00
S'http://twitter.com/web2py'
tp4840
a(g4007
(S's\t\x00\x00\x00Live chat'
tRp4841
I00
S'http://mibbit.com/?channel=%23web2py&server=irc.mibbit.net'
tp4842
a(g4007
(S's\n\x00\x00\x00User Voice'
tRp4843
I00
S'http://web2py.uservoice.com/'
tp4844
aasbasbasbasbasbasbasbag60
(g76
g62
NtRp4845
(dp4846
g65
(dp4847
sg74
g4672
sg67
(lp4848
g60
(g81
g62
NtRp4849
(dp4850
g65
(dp4851
sg74
g4845
sg67
(lp4852
g60
(g61
g62
NtRp4853
(dp4854
g65
(dp4855
g73
I2
ssg74
g4849
sg67
(lp4856
g60
(g69
g62
NtRp4857
(dp4858
g65
(dp4859
g73
I1
ssg74
Nsg67
(lp4860
g60
(g76
g62
NtRp4861
(dp4862
g65
(dp4863
sg74
g4857
sg67
(lp4864
g60
(g81
g62
NtRp4865
(dp4866
g65
(dp4867
sg74
g4861
sg67
(lp4868
g60
(g61
g62
NtRp4869
(dp4870
g65
(dp4871
g73
I1
ssg74
g4865
sg67
(lp4872
g4007
(S't\x06\x00\x00\x00Web2py'
tRp4873
asbasbasbag60
(g76
g62
NtRp4874
(dp4875
g65
(dp4876
sg74
g4857
sg67
(lp4877
g60
(g81
g62
NtRp4878
(dp4879
g65
(dp4880
sg74
g4874
sg67
(lp4881
g60
(g61
g62
NtRp4882
(dp4883
g65
(dp4884
g73
I1
ssg74
g4878
sg67
(lp4885
I00
asbasbasbag60
(g76
g62
NtRp4886
(dp4887
g65
(dp4888
sg74
g4857
sg67
(lp4889
g60
(g81
g62
NtRp4890
(dp4891
g65
(dp4892
sg74
g4886
sg67
(lp4893
g60
(g61
g62
NtRp4894
(dp4895
g65
(dp4896
g73
I1
ssg74
g4890
sg67
(lp4897
S'http://www.web2py.com'
p4898
asbasbasbag60
(g76
g62
NtRp4899
(dp4900
g65
(dp4901
sg74
g4857
sg67
(lp4902
g60
(g81
g62
NtRp4903
(dp4904
g65
(dp4905
sg74
g4899
sg67
(lp4906
g60
(g61
g62
NtRp4907
(dp4908
g65
(dp4909
g73
I1
ssg74
g4903
sg67
(lp4910
(lp4911
(g4007
(S't\x08\x00\x00\x00Download'
tRp4912
I00
S'http://www.web2py.com/examples/default/download'
tp4913
a(g4007
(S't\x07\x00\x00\x00Support'
tRp4914
I00
S'http://www.web2py.com/examples/default/support'
tp4915
a(g4007
(S's\x0e\x00\x00\x00Quick Examples'
tRp4916
I00
S'http://web2py.com/examples/default/examples'
tp4917
a(g4007
(S't\x03\x00\x00\x00FAQ'
tRp4918
I00
S'http://web2py.com/AlterEgo'
tp4919
a(g4007
(S's\x11\x00\x00\x00Free Applications'
tRp4920
I00
S'http://web2py.com/appliances'
tp4921
a(g4007
(S't\x07\x00\x00\x00Plugins'
tRp4922
I00
S'http://web2py.com/plugins'
tp4923
a(g4007
(S't\x07\x00\x00\x00Recipes'
tRp4924
I00
S'http://web2pyslices.com/'
tp4925
a(g4007
(S't\x04\x00\x00\x00Demo'
tRp4926
I00
S'http://web2py.com/demo_admin'
tp4927
a(g4007
(S't\x08\x00\x00\x00Semantic'
tRp4928
I00
S'http://web2py.com/semantic'
tp4929
a(g4007
(S't\x07\x00\x00\x00Layouts'
tRp4930
I00
S'http://web2py.com/layouts'
tp4931
a(g4007
(S't\x06\x00\x00\x00Videos'
tRp4932
I00
S'http://www.web2py.com/examples/default/videos/'
tp4933
aasbasbasbasbasbasbasbasbasbasbasbasbasbasbasbasbasbasbasbag60
(g76
g62
NtRp4934
(dp4935
g65
(dp4936
sg74
g3534
sg67
(lp4937
g60
(g81
g62
NtRp4938
(dp4939
g65
(dp4940
g85
g86
ssg74
g4934
sg67
(lp4941
S'meta'
p4942
asbag60
(g81
g62
NtRp4943
(dp4944
g65
(dp4945
g92
g93
ssg74
g4934
sg67
(lp4946
S':'
asbag60
(g81
g62
NtRp4947
(dp4948
g65
(dp4949
sg74
g4934
sg67
(lp4950
g60
(g61
g62
NtRp4951
(dp4952
g65
(dp4953
g73
I5
ssg74
g4947
sg67
(lp4954
g60
(g69
g62
NtRp4955
(dp4956
g65
(dp4957
g73
I4
ssg74
Nsg67
(lp4958
g60
(g76
g62
NtRp4959
(dp4960
g65
(dp4961
sg74
g4955
sg67
(lp4962
g60
(g81
g62
NtRp4963
(dp4964
g65
(dp4965
g85
g86
ssg74
g4959
sg67
(lp4966
S'author'
p4967
asbag60
(g81
g62
NtRp4968
(dp4969
g65
(dp4970
g92
g93
ssg74
g4959
sg67
(lp4971
S':'
asbag60
(g81
g62
NtRp4972
(dp4973
g65
(dp4974
sg74
g4959
sg67
(lp4975
g60
(g61
g62
NtRp4976
(dp4977
g65
(dp4978
g73
I4
ssg74
g4972
sg67
(lp4979
S'you'
p4980
asbasbasbag60
(g76
g62
NtRp4981
(dp4982
g65
(dp4983
sg74
g4955
sg67
(lp4984
g60
(g81
g62
NtRp4985
(dp4986
g65
(dp4987
g85
g86
ssg74
g4981
sg67
(lp4988
S'copyright'
p4989
asbag60
(g81
g62
NtRp4990
(dp4991
g65
(dp4992
g92
g93
ssg74
g4981
sg67
(lp4993
S':'
asbag60
(g81
g62
NtRp4994
(dp4995
g65
(dp4996
sg74
g4981
sg67
(lp4997
g60
(g61
g62
NtRp4998
(dp4999
g65
(dp5000
g73
I4
ssg74
g4994
sg67
(lp5001
S'Copyright 2007-2010'
p5002
asbasbasbag60
(g76
g62
NtRp5003
(dp5004
g65
(dp5005
sg74
g4955
sg67
(lp5006
g60
(g81
g62
NtRp5007
(dp5008
g65
(dp5009
g85
g86
ssg74
g5003
sg67
(lp5010
S'description'
p5011
asbag60
(g81
g62
NtRp5012
(dp5013
g65
(dp5014
g92
g93
ssg74
g5003
sg67
(lp5015
S':'
asbag60
(g81
g62
NtRp5016
(dp5017
g65
(dp5018
sg74
g5003
sg67
(lp5019
g60
(g61
g62
NtRp5020
(dp5021
g65
(dp5022
g73
I4
ssg74
g5016
sg67
(lp5023
S'Free and open source full-stack enterprise framework for agile development of fast, scalable, secure and portable database-driven web-based applications. Written and programmable in Python'
p5024
asbasbasbag60
(g76
g62
NtRp5025
(dp5026
g65
(dp5027
sg74
g4955
sg67
(lp5028
g60
(g81
g62
NtRp5029
(dp5030
g65
(dp5031
g85
g86
ssg74
g5025
sg67
(lp5032
S'generator'
p5033
asbag60
(g81
g62
NtRp5034
(dp5035
g65
(dp5036
g92
g93
ssg74
g5025
sg67
(lp5037
S':'
asbag60
(g81
g62
NtRp5038
(dp5039
g65
(dp5040
sg74
g5025
sg67
(lp5041
g60
(g61
g62
NtRp5042
(dp5043
g65
(dp5044
g73
I4
ssg74
g5038
sg67
(lp5045
S'Web2py Enterprise Framework'
p5046
asbasbasbag60
(g76
g62
NtRp5047
(dp5048
g65
(dp5049
sg74
g4955
sg67
(lp5050
g60
(g81
g62
NtRp5051
(dp5052
g65
(dp5053
g85
g86
ssg74
g5047
sg67
(lp5054
S'keywords'
p5055
asbag60
(g81
g62
NtRp5056
(dp5057
g65
(dp5058
g92
g93
ssg74
g5047
sg67
(lp5059
S':'
asbag60
(g81
g62
NtRp5060
(dp5061
g65
(dp5062
sg74
g5047
sg67
(lp5063
g60
(g61
g62
NtRp5064
(dp5065
g65
(dp5066
g73
I4
ssg74
g5060
sg67
(lp5067
S'web2py, python, framework'
p5068
asbasbasbasbasbasbasbag60
(g76
g62
NtRp5069
(dp5070
g65
(dp5071
sg74
g3534
sg67
(lp5072
g60
(g81
g62
NtRp5073
(dp5074
g65
(dp5075
g85
g86
ssg74
g5069
sg67
(lp5076
S'postprocessing'
p5077
asbag60
(g81
g62
NtRp5078
(dp5079
g65
(dp5080
g92
g93
ssg74
g5069
sg67
(lp5081
S':'
asbag60
(g81
g62
NtRp5082
(dp5083
g65
(dp5084
sg74
g5069
sg67
(lp5085
g60
(g61
g62
NtRp5086
(dp5087
g65
(dp5088
g73
I5
ssg74
g5082
sg67
(lp5089
g60
(g69
g62
NtRp5090
(dp5091
g65
(dp5092
g73
I4
ssg74
Nsg67
(lp5093
sbasbasbasbag60
(g76
g62
NtRp5094
(dp5095
g65
(dp5096
sg74
g3534
sg67
(lp5097
g60
(g81
g62
NtRp5098
(dp5099
g65
(dp5100
g85
g86
ssg74
g5094
sg67
(lp5101
S'session_file'
p5102
asbag60
(g81
g62
NtRp5103
(dp5104
g65
(dp5105
g92
g93
ssg74
g5094
sg67
(lp5106
S':'
asbag60
(g81
g62
NtRp5107
(dp5108
g65
(dp5109
sg74
g5094
sg67
(lp5110
g60
(g61
g62
NtRp5111
(dp5112
g65
(dp5113
g73
I5
ssg74
g5107
sg67
(lp5114
S"<open file 'C:\\Users\\Atomico\\web2py\\applications\\Desglosar_Emails\\sessions\\127.0.0.1-0a11b3b2-660c-433c-b71f-fc129286f26c', mode 'rb+' at 0x07B44D58>"
p5115
asbasbasbag60
(g76
g62
NtRp5116
(dp5117
g65
(dp5118
sg74
g3534
sg67
(lp5119
g60
(g81
g62
NtRp5120
(dp5121
g65
(dp5122
g85
g86
ssg74
g5116
sg67
(lp5123
S'session_filename'
p5124
asbag60
(g81
g62
NtRp5125
(dp5126
g65
(dp5127
g92
g93
ssg74
g5116
sg67
(lp5128
S':'
asbag60
(g81
g62
NtRp5129
(dp5130
g65
(dp5131
sg74
g5116
sg67
(lp5132
g60
(g61
g62
NtRp5133
(dp5134
g65
(dp5135
g73
I5
ssg74
g5129
sg67
(lp5136
S'C:\\Users\\Atomico\\web2py\\applications\\Desglosar_Emails\\sessions\\127.0.0.1-0a11b3b2-660c-433c-b71f-fc129286f26c'
p5137
asbasbasbag60
(g76
g62
NtRp5138
(dp5139
g65
(dp5140
sg74
g3534
sg67
(lp5141
g60
(g81
g62
NtRp5142
(dp5143
g65
(dp5144
g85
g86
ssg74
g5138
sg67
(lp5145
S'session_id'
p5146
asbag60
(g81
g62
NtRp5147
(dp5148
g65
(dp5149
g92
g93
ssg74
g5138
sg67
(lp5150
S':'
asbag60
(g81
g62
NtRp5151
(dp5152
g65
(dp5153
sg74
g5138
sg67
(lp5154
g60
(g61
g62
NtRp5155
(dp5156
g65
(dp5157
g73
I5
ssg74
g5151
sg67
(lp5158
S'127.0.0.1-0a11b3b2-660c-433c-b71f-fc129286f26c'
p5159
asbasbasbag60
(g76
g62
NtRp5160
(dp5161
g65
(dp5162
sg74
g3534
sg67
(lp5163
g60
(g81
g62
NtRp5164
(dp5165
g65
(dp5166
g85
g86
ssg74
g5160
sg67
(lp5167
S'session_id_name'
p5168
asbag60
(g81
g62
NtRp5169
(dp5170
g65
(dp5171
g92
g93
ssg74
g5160
sg67
(lp5172
S':'
asbag60
(g81
g62
NtRp5173
(dp5174
g65
(dp5175
sg74
g5160
sg67
(lp5176
g60
(g61
g62
NtRp5177
(dp5178
g65
(dp5179
g73
I5
ssg74
g5173
sg67
(lp5180
g3591
asbasbasbag60
(g76
g62
NtRp5181
(dp5182
g65
(dp5183
sg74
g3534
sg67
(lp5184
g60
(g81
g62
NtRp5185
(dp5186
g65
(dp5187
g85
g86
ssg74
g5181
sg67
(lp5188
S'session_locked'
p5189
asbag60
(g81
g62
NtRp5190
(dp5191
g65
(dp5192
g92
g93
ssg74
g5181
sg67
(lp5193
S':'
asbag60
(g81
g62
NtRp5194
(dp5195
g65
(dp5196
sg74
g5181
sg67
(lp5197
g60
(g61
g62
NtRp5198
(dp5199
g65
(dp5200
g73
I5
ssg74
g5194
sg67
(lp5201
g2301
asbasbasbag60
(g76
g62
NtRp5202
(dp5203
g65
(dp5204
sg74
g3534
sg67
(lp5205
g60
(g81
g62
NtRp5206
(dp5207
g65
(dp5208
g85
g86
ssg74
g5202
sg67
(lp5209
S'session_new'
p5210
asbag60
(g81
g62
NtRp5211
(dp5212
g65
(dp5213
g92
g93
ssg74
g5202
sg67
(lp5214
S':'
asbag60
(g81
g62
NtRp5215
(dp5216
g65
(dp5217
sg74
g5202
sg67
(lp5218
g60
(g61
g62
NtRp5219
(dp5220
g65
(dp5221
g73
I5
ssg74
g5215
sg67
(lp5222
g103
asbasbasbag60
(g76
g62
NtRp5223
(dp5224
g65
(dp5225
sg74
g3534
sg67
(lp5226
g60
(g81
g62
NtRp5227
(dp5228
g65
(dp5229
g85
g86
ssg74
g5223
sg67
(lp5230
S'status'
p5231
asbag60
(g81
g62
NtRp5232
(dp5233
g65
(dp5234
g92
g93
ssg74
g5223
sg67
(lp5235
S':'
asbag60
(g81
g62
NtRp5236
(dp5237
g65
(dp5238
sg74
g5223
sg67
(lp5239
g60
(g61
g62
NtRp5240
(dp5241
g65
(dp5242
g73
I5
ssg74
g5236
sg67
(lp5243
S'200'
p5244
asbasbasbag60
(g76
g62
NtRp5245
(dp5246
g65
(dp5247
sg74
g3534
sg67
(lp5248
g60
(g81
g62
NtRp5249
(dp5250
g65
(dp5251
g85
g86
ssg74
g5245
sg67
(lp5252
S'subtitle'
p5253
asbag60
(g81
g62
NtRp5254
(dp5255
g65
(dp5256
g92
g93
ssg74
g5245
sg67
(lp5257
S':'
asbag60
(g81
g62
NtRp5258
(dp5259
g65
(dp5260
sg74
g5245
sg67
(lp5261
g60
(g61
g62
NtRp5262
(dp5263
g65
(dp5264
g73
I5
ssg74
g5258
sg67
(lp5265
g4007
(S's\t\x00\x00\x00Adaptame!'
tRp5266
asbasbasbag60
(g76
g62
NtRp5267
(dp5268
g65
(dp5269
sg74
g3534
sg67
(lp5270
g60
(g81
g62
NtRp5271
(dp5272
g65
(dp5273
g85
g86
ssg74
g5267
sg67
(lp5274
S'title'
p5275
asbag60
(g81
g62
NtRp5276
(dp5277
g65
(dp5278
g92
g93
ssg74
g5267
sg67
(lp5279
S':'
asbag60
(g81
g62
NtRp5280
(dp5281
g65
(dp5282
sg74
g5267
sg67
(lp5283
g60
(g61
g62
NtRp5284
(dp5285
g65
(dp5286
g73
I5
ssg74
g5280
sg67
(lp5287
g125
asbasbasbag60
(g76
g62
NtRp5288
(dp5289
g65
(dp5290
sg74
g3534
sg67
(lp5291
g60
(g81
g62
NtRp5292
(dp5293
g65
(dp5294
g85
g86
ssg74
g5288
sg67
(lp5295
g2668
asbag60
(g81
g62
NtRp5296
(dp5297
g65
(dp5298
g92
g93
ssg74
g5288
sg67
(lp5299
S':'
asbag60
(g81
g62
NtRp5300
(dp5301
g65
(dp5302
sg74
g5288
sg67
(lp5303
g60
(g61
g62
NtRp5304
(dp5305
g65
(dp5306
g73
I5
ssg74
g5300
sg67
(lp5307
g2681
asbasbasbag60
(g76
g62
NtRp5308
(dp5309
g65
(dp5310
sg74
g3534
sg67
(lp5311
g60
(g81
g62
NtRp5312
(dp5313
g65
(dp5314
g85
g86
ssg74
g5308
sg67
(lp5315
S'view'
p5316
asbag60
(g81
g62
NtRp5317
(dp5318
g65
(dp5319
g92
g93
ssg74
g5308
sg67
(lp5320
S':'
asbag60
(g81
g62
NtRp5321
(dp5322
g65
(dp5323
sg74
g5308
sg67
(lp5324
g60
(g61
g62
NtRp5325
(dp5326
g65
(dp5327
g73
I5
ssg74
g5321
sg67
(lp5328
S'default/entrada_mod2.html'
p5329
asbasbasbasbasbsS'locals'
p5330
(dp5331
g3
S"r'C:\\Users\\Atomico\\web2py\\applications\\Desglosar_Emails\\views\\default/entrada_mod2.html'"
p5332
sg5
S'\'response.write(\\\'<!DOCTYPE html>\\\\n<html lang="\\\', ...t   -->    \\\\n  </body>\\\\n</html>\\\\n\\\', escape=False)\''
p5333
sssS'traceback'
p5334
S'Traceback (most recent call last):\n  File "gluon/restricted.py", line 191, in restricted\n  File "gluon/restricted.py", line 178, in compile2\n  File "C:\\Users\\Atomico\\web2py\\applications\\Desglosar_Emails\\views\\default/entrada_mod2.html", line 110\n    d2[3]=[\'k2\':\'perro\']\n               ^\nSyntaxError: invalid syntax\n'
p5335
s.