(dp1
S'output'
p2
S''
sS'layer'
p3
S'C:\\Users\\Atomico\\web2py\\applications\\Desglosar_Emails\\controllers/default.py'
p4
sS'code'
p5
S'def entrada():\n    form=SQLFORM(db.info)\n    if form.accepts(request.vars,session): pass\n    \n    txt=db.info[12].texto\n    c=0\n    for i in range(len(txt)): c=c+1\n    response.write(\'el total de c es \'+str(c)+\'. \')\n   \n    import re\n    pattern=re.compile(".*a[0-5].*")\n    for i in range(len(txt)):\n    ## encontrar el primer email\n        s=txt[:i]\n        if pattern.search(s):\n            response.write(\'Se ha encontrado a1 o a2 o a3 o a4 o a5 o a0\')\n        elif not pattern.search(s) and i==(len(txt)-1):\n            response.write(\'Nanai contrai\')\n        \n    response.write(\'La len(txt) es \'+str(len(txt))+\' y la i es \'+str(i))\n    response.write(\'*********************\')\n\n    cont=0\n    for i in xrange(0,4):\n        cont=cont+1\n        response.write(\'Para el valor i \'+str(i)+\' el contador se pone a \'+str(cont))\n    response.write(\' y el resultado final es de i \'+str(i)+\' el contador se pone a \'+str(cont)+\'. \')\n    i=0\n    while i<len(txt):\n        response.write(txt[i]+\'-\')\n        i=i+1\n    response.write(\'. La len(txt) es de \'+str(len(txt))+\' y la i se ha quedado en \'+str(i))\n    \n    return dict(form=form)\n    \ndef entrada_mod1():\n    form=SQLFORM(db.info2)\n    if form.accepts(request.vars,session): pass\n    i=0\n    while not db.info2[i]==None:\n        response.write(i)\n        i=i+1\n        \n    \n       \n\n   return form\n\nresponse._vars=response._caller(entrada_mod1)\n'
p6
sS'snapshot'
p7
(dp8
S'exception'
p9
(dp10
S'__getslice__'
p11
S"<method-wrapper '__getslice__' of exceptions.IndentationError object at 0x03280CB0>"
p12
sS'text'
p13
S"'   return form\\n'"
p14
sS'__str__'
p15
S"<method-wrapper '__str__' of exceptions.IndentationError object at 0x03280CB0>"
p16
sS'__reduce__'
p17
S'<built-in method __reduce__ of exceptions.IndentationError object at 0x03280CB0>'
p18
sS'__dict__'
p19
S'{}'
p20
sS'__init__'
p21
S"<method-wrapper '__init__' of exceptions.IndentationError object at 0x03280CB0>"
p22
sS'__setattr__'
p23
S"<method-wrapper '__setattr__' of exceptions.IndentationError object at 0x03280CB0>"
p24
sS'__reduce_ex__'
p25
S'<built-in method __reduce_ex__ of exceptions.IndentationError object at 0x03280CB0>'
p26
sS'__new__'
p27
S'<built-in method __new__ of type object at 0x1E1CDC98>'
p28
sS'__class__'
p29
S"<type 'exceptions.IndentationError'>"
p30
sS'filename'
p31
S"r'C:\\Users\\Atomico\\web2py\\applications\\Desglosar_Emails\\controllers/default.py'"
p32
sS'lineno'
p33
S'47'
p34
sS'msg'
p35
S"'unindent does not match any outer indentation level'"
p36
sS'__doc__'
p37
S"'Improper indentation.'"
p38
sS'__getitem__'
p39
S"<method-wrapper '__getitem__' of exceptions.IndentationError object at 0x03280CB0>"
p40
sS'__setstate__'
p41
S'<built-in method __setstate__ of exceptions.IndentationError object at 0x03280CB0>'
p42
sS'__getattribute__'
p43
S"<method-wrapper '__getattribute__' of exceptions.IndentationError object at 0x03280CB0>"
p44
sS'print_file_and_line'
p45
S'None'
p46
sS'args'
p47
S"('unindent does not match any outer indentation level', (r'C:\\Users\\Atomico\\web2py\\applications\\Desglosar_Emails\\controllers/default.py', 47, 15, '   return form\\n'))"
p48
sS'offset'
p49
S'15'
p50
sS'__delattr__'
p51
S"<method-wrapper '__delattr__' of exceptions.IndentationError object at 0x03280CB0>"
p52
sS'__repr__'
p53
S"<method-wrapper '__repr__' of exceptions.IndentationError object at 0x03280CB0>"
p54
sS'__hash__'
p55
S"<method-wrapper '__hash__' of exceptions.IndentationError object at 0x03280CB0>"
p56
ssS'evalue'
p57
S'unindent does not match any outer indentation level (controllers/default.py, line 47)'
p58
sS'request'
p59
ccopy_reg
_reconstructor
p60
(cgluon.html
BEAUTIFY
p61
c__builtin__
object
p62
NtRp63
(dp64
S'attributes'
p65
(dp66
sS'components'
p67
(lp68
g60
(cgluon.html
TABLE
p69
g62
NtRp70
(dp71
g65
(dp72
S'level'
p73
I5
ssS'parent'
p74
Nsg67
(lp75
g60
(cgluon.html
TR
p76
g62
NtRp77
(dp78
g65
(dp79
sg74
g70
sg67
(lp80
g60
(cgluon.html
TD
p81
g62
NtRp82
(dp83
g65
(dp84
S'_style'
p85
S'font-weight:bold;'
p86
ssg74
g77
sg67
(lp87
S'ajax'
p88
asbag60
(g81
g62
NtRp89
(dp90
g65
(dp91
S'_valign'
p92
S'top'
p93
ssg74
g77
sg67
(lp94
S':'
asbag60
(g81
g62
NtRp95
(dp96
g65
(dp97
sg74
g77
sg67
(lp98
g60
(g61
g62
NtRp99
(dp100
g65
(dp101
g73
I5
ssg74
g95
sg67
(lp102
S'False'
p103
asbasbasbag60
(g76
g62
NtRp104
(dp105
g65
(dp106
sg74
g70
sg67
(lp107
g60
(g81
g62
NtRp108
(dp109
g65
(dp110
g85
g86
ssg74
g104
sg67
(lp111
S'application'
p112
asbag60
(g81
g62
NtRp113
(dp114
g65
(dp115
g92
g93
ssg74
g104
sg67
(lp116
S':'
asbag60
(g81
g62
NtRp117
(dp118
g65
(dp119
sg74
g104
sg67
(lp120
g60
(g61
g62
NtRp121
(dp122
g65
(dp123
g73
I5
ssg74
g117
sg67
(lp124
S'Desglosar_Emails'
p125
asbasbasbag60
(g76
g62
NtRp126
(dp127
g65
(dp128
sg74
g70
sg67
(lp129
g60
(g81
g62
NtRp130
(dp131
g65
(dp132
g85
g86
ssg74
g126
sg67
(lp133
g47
asbag60
(g81
g62
NtRp134
(dp135
g65
(dp136
g92
g93
ssg74
g126
sg67
(lp137
S':'
asbag60
(g81
g62
NtRp138
(dp139
g65
(dp140
sg74
g126
sg67
(lp141
g60
(g61
g62
NtRp142
(dp143
g65
(dp144
g73
I5
ssg74
g138
sg67
(lp145
g60
(g69
g62
NtRp146
(dp147
g65
(dp148
g73
I4
ssg74
Nsg67
(lp149
sbasbasbasbag60
(g76
g62
NtRp150
(dp151
g65
(dp152
sg74
g70
sg67
(lp153
g60
(g81
g62
NtRp154
(dp155
g65
(dp156
g85
g86
ssg74
g150
sg67
(lp157
S'body'
p158
asbag60
(g81
g62
NtRp159
(dp160
g65
(dp161
g92
g93
ssg74
g150
sg67
(lp162
S':'
asbag60
(g81
g62
NtRp163
(dp164
g65
(dp165
sg74
g150
sg67
(lp166
g60
(g61
g62
NtRp167
(dp168
g65
(dp169
g73
I5
ssg74
g163
sg67
(lp170
S'<cStringIO.StringO object at 0x076AFE60>'
p171
asbasbasbag60
(g76
g62
NtRp172
(dp173
g65
(dp174
sg74
g70
sg67
(lp175
g60
(g81
g62
NtRp176
(dp177
g65
(dp178
g85
g86
ssg74
g172
sg67
(lp179
S'client'
p180
asbag60
(g81
g62
NtRp181
(dp182
g65
(dp183
g92
g93
ssg74
g172
sg67
(lp184
S':'
asbag60
(g81
g62
NtRp185
(dp186
g65
(dp187
sg74
g172
sg67
(lp188
g60
(g61
g62
NtRp189
(dp190
g65
(dp191
g73
I5
ssg74
g185
sg67
(lp192
S'127.0.0.1'
p193
asbasbasbag60
(g76
g62
NtRp194
(dp195
g65
(dp196
sg74
g70
sg67
(lp197
g60
(g81
g62
NtRp198
(dp199
g65
(dp200
g85
g86
ssg74
g194
sg67
(lp201
S'controller'
p202
asbag60
(g81
g62
NtRp203
(dp204
g65
(dp205
g92
g93
ssg74
g194
sg67
(lp206
S':'
asbag60
(g81
g62
NtRp207
(dp208
g65
(dp209
sg74
g194
sg67
(lp210
g60
(g61
g62
NtRp211
(dp212
g65
(dp213
g73
I5
ssg74
g207
sg67
(lp214
S'default'
p215
asbasbasbag60
(g76
g62
NtRp216
(dp217
g65
(dp218
sg74
g70
sg67
(lp219
g60
(g81
g62
NtRp220
(dp221
g65
(dp222
g85
g86
ssg74
g216
sg67
(lp223
S'cookies'
p224
asbag60
(g81
g62
NtRp225
(dp226
g65
(dp227
g92
g93
ssg74
g216
sg67
(lp228
S':'
asbag60
(g81
g62
NtRp229
(dp230
g65
(dp231
sg74
g216
sg67
(lp232
g60
(g61
g62
NtRp233
(dp234
g65
(dp235
g73
I5
ssg74
g229
sg67
(lp236
g60
(g69
g62
NtRp237
(dp238
g65
(dp239
g73
I4
ssg74
Nsg67
(lp240
g60
(g76
g62
NtRp241
(dp242
g65
(dp243
sg74
g237
sg67
(lp244
g60
(g81
g62
NtRp245
(dp246
g65
(dp247
g85
g86
ssg74
g241
sg67
(lp248
S'session_id_admin'
p249
asbag60
(g81
g62
NtRp250
(dp251
g65
(dp252
g92
g93
ssg74
g241
sg67
(lp253
S':'
asbag60
(g81
g62
NtRp254
(dp255
g65
(dp256
sg74
g241
sg67
(lp257
g60
(g61
g62
NtRp258
(dp259
g65
(dp260
g73
I4
ssg74
g254
sg67
(lp261
g60
(g69
g62
NtRp262
(dp263
g65
(dp264
g73
I3
ssg74
Nsg67
(lp265
g60
(g76
g62
NtRp266
(dp267
g65
(dp268
sg74
g262
sg67
(lp269
g60
(g81
g62
NtRp270
(dp271
g65
(dp272
g85
g86
ssg74
g266
sg67
(lp273
S'comment'
p274
asbag60
(g81
g62
NtRp275
(dp276
g65
(dp277
g92
g93
ssg74
g266
sg67
(lp278
S':'
asbag60
(g81
g62
NtRp279
(dp280
g65
(dp281
sg74
g266
sg67
(lp282
g60
(g61
g62
NtRp283
(dp284
g65
(dp285
g73
I3
ssg74
g279
sg67
(lp286
S''
asbasbasbag60
(g76
g62
NtRp287
(dp288
g65
(dp289
sg74
g262
sg67
(lp290
g60
(g81
g62
NtRp291
(dp292
g65
(dp293
g85
g86
ssg74
g287
sg67
(lp294
S'domain'
p295
asbag60
(g81
g62
NtRp296
(dp297
g65
(dp298
g92
g93
ssg74
g287
sg67
(lp299
S':'
asbag60
(g81
g62
NtRp300
(dp301
g65
(dp302
sg74
g287
sg67
(lp303
g60
(g61
g62
NtRp304
(dp305
g65
(dp306
g73
I3
ssg74
g300
sg67
(lp307
S''
asbasbasbag60
(g76
g62
NtRp308
(dp309
g65
(dp310
sg74
g262
sg67
(lp311
g60
(g81
g62
NtRp312
(dp313
g65
(dp314
g85
g86
ssg74
g308
sg67
(lp315
S'expires'
p316
asbag60
(g81
g62
NtRp317
(dp318
g65
(dp319
g92
g93
ssg74
g308
sg67
(lp320
S':'
asbag60
(g81
g62
NtRp321
(dp322
g65
(dp323
sg74
g308
sg67
(lp324
g60
(g61
g62
NtRp325
(dp326
g65
(dp327
g73
I3
ssg74
g321
sg67
(lp328
S''
asbasbasbag60
(g76
g62
NtRp329
(dp330
g65
(dp331
sg74
g262
sg67
(lp332
g60
(g81
g62
NtRp333
(dp334
g65
(dp335
g85
g86
ssg74
g329
sg67
(lp336
S'max-age'
p337
asbag60
(g81
g62
NtRp338
(dp339
g65
(dp340
g92
g93
ssg74
g329
sg67
(lp341
S':'
asbag60
(g81
g62
NtRp342
(dp343
g65
(dp344
sg74
g329
sg67
(lp345
g60
(g61
g62
NtRp346
(dp347
g65
(dp348
g73
I3
ssg74
g342
sg67
(lp349
S''
asbasbasbag60
(g76
g62
NtRp350
(dp351
g65
(dp352
sg74
g262
sg67
(lp353
g60
(g81
g62
NtRp354
(dp355
g65
(dp356
g85
g86
ssg74
g350
sg67
(lp357
S'path'
p358
asbag60
(g81
g62
NtRp359
(dp360
g65
(dp361
g92
g93
ssg74
g350
sg67
(lp362
S':'
asbag60
(g81
g62
NtRp363
(dp364
g65
(dp365
sg74
g350
sg67
(lp366
g60
(g61
g62
NtRp367
(dp368
g65
(dp369
g73
I3
ssg74
g363
sg67
(lp370
S''
asbasbasbag60
(g76
g62
NtRp371
(dp372
g65
(dp373
sg74
g262
sg67
(lp374
g60
(g81
g62
NtRp375
(dp376
g65
(dp377
g85
g86
ssg74
g371
sg67
(lp378
S'secure'
p379
asbag60
(g81
g62
NtRp380
(dp381
g65
(dp382
g92
g93
ssg74
g371
sg67
(lp383
S':'
asbag60
(g81
g62
NtRp384
(dp385
g65
(dp386
sg74
g371
sg67
(lp387
g60
(g61
g62
NtRp388
(dp389
g65
(dp390
g73
I3
ssg74
g384
sg67
(lp391
S''
asbasbasbag60
(g76
g62
NtRp392
(dp393
g65
(dp394
sg74
g262
sg67
(lp395
g60
(g81
g62
NtRp396
(dp397
g65
(dp398
g85
g86
ssg74
g392
sg67
(lp399
S'version'
p400
asbag60
(g81
g62
NtRp401
(dp402
g65
(dp403
g92
g93
ssg74
g392
sg67
(lp404
S':'
asbag60
(g81
g62
NtRp405
(dp406
g65
(dp407
sg74
g392
sg67
(lp408
g60
(g61
g62
NtRp409
(dp410
g65
(dp411
g73
I3
ssg74
g405
sg67
(lp412
S''
asbasbasbasbasbasbasbag60
(g76
g62
NtRp413
(dp414
g65
(dp415
sg74
g237
sg67
(lp416
g60
(g81
g62
NtRp417
(dp418
g65
(dp419
g85
g86
ssg74
g413
sg67
(lp420
S'session_id_desglosar_emails'
p421
asbag60
(g81
g62
NtRp422
(dp423
g65
(dp424
g92
g93
ssg74
g413
sg67
(lp425
S':'
asbag60
(g81
g62
NtRp426
(dp427
g65
(dp428
sg74
g413
sg67
(lp429
g60
(g61
g62
NtRp430
(dp431
g65
(dp432
g73
I4
ssg74
g426
sg67
(lp433
g60
(g69
g62
NtRp434
(dp435
g65
(dp436
g73
I3
ssg74
Nsg67
(lp437
g60
(g76
g62
NtRp438
(dp439
g65
(dp440
sg74
g434
sg67
(lp441
g60
(g81
g62
NtRp442
(dp443
g65
(dp444
g85
g86
ssg74
g438
sg67
(lp445
g274
asbag60
(g81
g62
NtRp446
(dp447
g65
(dp448
g92
g93
ssg74
g438
sg67
(lp449
S':'
asbag60
(g81
g62
NtRp450
(dp451
g65
(dp452
sg74
g438
sg67
(lp453
g60
(g61
g62
NtRp454
(dp455
g65
(dp456
g73
I3
ssg74
g450
sg67
(lp457
S''
asbasbasbag60
(g76
g62
NtRp458
(dp459
g65
(dp460
sg74
g434
sg67
(lp461
g60
(g81
g62
NtRp462
(dp463
g65
(dp464
g85
g86
ssg74
g458
sg67
(lp465
g295
asbag60
(g81
g62
NtRp466
(dp467
g65
(dp468
g92
g93
ssg74
g458
sg67
(lp469
S':'
asbag60
(g81
g62
NtRp470
(dp471
g65
(dp472
sg74
g458
sg67
(lp473
g60
(g61
g62
NtRp474
(dp475
g65
(dp476
g73
I3
ssg74
g470
sg67
(lp477
S''
asbasbasbag60
(g76
g62
NtRp478
(dp479
g65
(dp480
sg74
g434
sg67
(lp481
g60
(g81
g62
NtRp482
(dp483
g65
(dp484
g85
g86
ssg74
g478
sg67
(lp485
g316
asbag60
(g81
g62
NtRp486
(dp487
g65
(dp488
g92
g93
ssg74
g478
sg67
(lp489
S':'
asbag60
(g81
g62
NtRp490
(dp491
g65
(dp492
sg74
g478
sg67
(lp493
g60
(g61
g62
NtRp494
(dp495
g65
(dp496
g73
I3
ssg74
g490
sg67
(lp497
S''
asbasbasbag60
(g76
g62
NtRp498
(dp499
g65
(dp500
sg74
g434
sg67
(lp501
g60
(g81
g62
NtRp502
(dp503
g65
(dp504
g85
g86
ssg74
g498
sg67
(lp505
g337
asbag60
(g81
g62
NtRp506
(dp507
g65
(dp508
g92
g93
ssg74
g498
sg67
(lp509
S':'
asbag60
(g81
g62
NtRp510
(dp511
g65
(dp512
sg74
g498
sg67
(lp513
g60
(g61
g62
NtRp514
(dp515
g65
(dp516
g73
I3
ssg74
g510
sg67
(lp517
S''
asbasbasbag60
(g76
g62
NtRp518
(dp519
g65
(dp520
sg74
g434
sg67
(lp521
g60
(g81
g62
NtRp522
(dp523
g65
(dp524
g85
g86
ssg74
g518
sg67
(lp525
g358
asbag60
(g81
g62
NtRp526
(dp527
g65
(dp528
g92
g93
ssg74
g518
sg67
(lp529
S':'
asbag60
(g81
g62
NtRp530
(dp531
g65
(dp532
sg74
g518
sg67
(lp533
g60
(g61
g62
NtRp534
(dp535
g65
(dp536
g73
I3
ssg74
g530
sg67
(lp537
S''
asbasbasbag60
(g76
g62
NtRp538
(dp539
g65
(dp540
sg74
g434
sg67
(lp541
g60
(g81
g62
NtRp542
(dp543
g65
(dp544
g85
g86
ssg74
g538
sg67
(lp545
g379
asbag60
(g81
g62
NtRp546
(dp547
g65
(dp548
g92
g93
ssg74
g538
sg67
(lp549
S':'
asbag60
(g81
g62
NtRp550
(dp551
g65
(dp552
sg74
g538
sg67
(lp553
g60
(g61
g62
NtRp554
(dp555
g65
(dp556
g73
I3
ssg74
g550
sg67
(lp557
S''
asbasbasbag60
(g76
g62
NtRp558
(dp559
g65
(dp560
sg74
g434
sg67
(lp561
g60
(g81
g62
NtRp562
(dp563
g65
(dp564
g85
g86
ssg74
g558
sg67
(lp565
g400
asbag60
(g81
g62
NtRp566
(dp567
g65
(dp568
g92
g93
ssg74
g558
sg67
(lp569
S':'
asbag60
(g81
g62
NtRp570
(dp571
g65
(dp572
sg74
g558
sg67
(lp573
g60
(g61
g62
NtRp574
(dp575
g65
(dp576
g73
I3
ssg74
g570
sg67
(lp577
S''
asbasbasbasbasbasbasbag60
(g76
g62
NtRp578
(dp579
g65
(dp580
sg74
g237
sg67
(lp581
g60
(g81
g62
NtRp582
(dp583
g65
(dp584
g85
g86
ssg74
g578
sg67
(lp585
S'session_id_hemoal'
p586
asbag60
(g81
g62
NtRp587
(dp588
g65
(dp589
g92
g93
ssg74
g578
sg67
(lp590
S':'
asbag60
(g81
g62
NtRp591
(dp592
g65
(dp593
sg74
g578
sg67
(lp594
g60
(g61
g62
NtRp595
(dp596
g65
(dp597
g73
I4
ssg74
g591
sg67
(lp598
g60
(g69
g62
NtRp599
(dp600
g65
(dp601
g73
I3
ssg74
Nsg67
(lp602
g60
(g76
g62
NtRp603
(dp604
g65
(dp605
sg74
g599
sg67
(lp606
g60
(g81
g62
NtRp607
(dp608
g65
(dp609
g85
g86
ssg74
g603
sg67
(lp610
g274
asbag60
(g81
g62
NtRp611
(dp612
g65
(dp613
g92
g93
ssg74
g603
sg67
(lp614
S':'
asbag60
(g81
g62
NtRp615
(dp616
g65
(dp617
sg74
g603
sg67
(lp618
g60
(g61
g62
NtRp619
(dp620
g65
(dp621
g73
I3
ssg74
g615
sg67
(lp622
S''
asbasbasbag60
(g76
g62
NtRp623
(dp624
g65
(dp625
sg74
g599
sg67
(lp626
g60
(g81
g62
NtRp627
(dp628
g65
(dp629
g85
g86
ssg74
g623
sg67
(lp630
g295
asbag60
(g81
g62
NtRp631
(dp632
g65
(dp633
g92
g93
ssg74
g623
sg67
(lp634
S':'
asbag60
(g81
g62
NtRp635
(dp636
g65
(dp637
sg74
g623
sg67
(lp638
g60
(g61
g62
NtRp639
(dp640
g65
(dp641
g73
I3
ssg74
g635
sg67
(lp642
S''
asbasbasbag60
(g76
g62
NtRp643
(dp644
g65
(dp645
sg74
g599
sg67
(lp646
g60
(g81
g62
NtRp647
(dp648
g65
(dp649
g85
g86
ssg74
g643
sg67
(lp650
g316
asbag60
(g81
g62
NtRp651
(dp652
g65
(dp653
g92
g93
ssg74
g643
sg67
(lp654
S':'
asbag60
(g81
g62
NtRp655
(dp656
g65
(dp657
sg74
g643
sg67
(lp658
g60
(g61
g62
NtRp659
(dp660
g65
(dp661
g73
I3
ssg74
g655
sg67
(lp662
S''
asbasbasbag60
(g76
g62
NtRp663
(dp664
g65
(dp665
sg74
g599
sg67
(lp666
g60
(g81
g62
NtRp667
(dp668
g65
(dp669
g85
g86
ssg74
g663
sg67
(lp670
g337
asbag60
(g81
g62
NtRp671
(dp672
g65
(dp673
g92
g93
ssg74
g663
sg67
(lp674
S':'
asbag60
(g81
g62
NtRp675
(dp676
g65
(dp677
sg74
g663
sg67
(lp678
g60
(g61
g62
NtRp679
(dp680
g65
(dp681
g73
I3
ssg74
g675
sg67
(lp682
S''
asbasbasbag60
(g76
g62
NtRp683
(dp684
g65
(dp685
sg74
g599
sg67
(lp686
g60
(g81
g62
NtRp687
(dp688
g65
(dp689
g85
g86
ssg74
g683
sg67
(lp690
g358
asbag60
(g81
g62
NtRp691
(dp692
g65
(dp693
g92
g93
ssg74
g683
sg67
(lp694
S':'
asbag60
(g81
g62
NtRp695
(dp696
g65
(dp697
sg74
g683
sg67
(lp698
g60
(g61
g62
NtRp699
(dp700
g65
(dp701
g73
I3
ssg74
g695
sg67
(lp702
S''
asbasbasbag60
(g76
g62
NtRp703
(dp704
g65
(dp705
sg74
g599
sg67
(lp706
g60
(g81
g62
NtRp707
(dp708
g65
(dp709
g85
g86
ssg74
g703
sg67
(lp710
g379
asbag60
(g81
g62
NtRp711
(dp712
g65
(dp713
g92
g93
ssg74
g703
sg67
(lp714
S':'
asbag60
(g81
g62
NtRp715
(dp716
g65
(dp717
sg74
g703
sg67
(lp718
g60
(g61
g62
NtRp719
(dp720
g65
(dp721
g73
I3
ssg74
g715
sg67
(lp722
S''
asbasbasbag60
(g76
g62
NtRp723
(dp724
g65
(dp725
sg74
g599
sg67
(lp726
g60
(g81
g62
NtRp727
(dp728
g65
(dp729
g85
g86
ssg74
g723
sg67
(lp730
g400
asbag60
(g81
g62
NtRp731
(dp732
g65
(dp733
g92
g93
ssg74
g723
sg67
(lp734
S':'
asbag60
(g81
g62
NtRp735
(dp736
g65
(dp737
sg74
g723
sg67
(lp738
g60
(g61
g62
NtRp739
(dp740
g65
(dp741
g73
I3
ssg74
g735
sg67
(lp742
S''
asbasbasbasbasbasbasbag60
(g76
g62
NtRp743
(dp744
g65
(dp745
sg74
g237
sg67
(lp746
g60
(g81
g62
NtRp747
(dp748
g65
(dp749
g85
g86
ssg74
g743
sg67
(lp750
S'session_id_listado_1'
p751
asbag60
(g81
g62
NtRp752
(dp753
g65
(dp754
g92
g93
ssg74
g743
sg67
(lp755
S':'
asbag60
(g81
g62
NtRp756
(dp757
g65
(dp758
sg74
g743
sg67
(lp759
g60
(g61
g62
NtRp760
(dp761
g65
(dp762
g73
I4
ssg74
g756
sg67
(lp763
g60
(g69
g62
NtRp764
(dp765
g65
(dp766
g73
I3
ssg74
Nsg67
(lp767
g60
(g76
g62
NtRp768
(dp769
g65
(dp770
sg74
g764
sg67
(lp771
g60
(g81
g62
NtRp772
(dp773
g65
(dp774
g85
g86
ssg74
g768
sg67
(lp775
g274
asbag60
(g81
g62
NtRp776
(dp777
g65
(dp778
g92
g93
ssg74
g768
sg67
(lp779
S':'
asbag60
(g81
g62
NtRp780
(dp781
g65
(dp782
sg74
g768
sg67
(lp783
g60
(g61
g62
NtRp784
(dp785
g65
(dp786
g73
I3
ssg74
g780
sg67
(lp787
S''
asbasbasbag60
(g76
g62
NtRp788
(dp789
g65
(dp790
sg74
g764
sg67
(lp791
g60
(g81
g62
NtRp792
(dp793
g65
(dp794
g85
g86
ssg74
g788
sg67
(lp795
g295
asbag60
(g81
g62
NtRp796
(dp797
g65
(dp798
g92
g93
ssg74
g788
sg67
(lp799
S':'
asbag60
(g81
g62
NtRp800
(dp801
g65
(dp802
sg74
g788
sg67
(lp803
g60
(g61
g62
NtRp804
(dp805
g65
(dp806
g73
I3
ssg74
g800
sg67
(lp807
S''
asbasbasbag60
(g76
g62
NtRp808
(dp809
g65
(dp810
sg74
g764
sg67
(lp811
g60
(g81
g62
NtRp812
(dp813
g65
(dp814
g85
g86
ssg74
g808
sg67
(lp815
g316
asbag60
(g81
g62
NtRp816
(dp817
g65
(dp818
g92
g93
ssg74
g808
sg67
(lp819
S':'
asbag60
(g81
g62
NtRp820
(dp821
g65
(dp822
sg74
g808
sg67
(lp823
g60
(g61
g62
NtRp824
(dp825
g65
(dp826
g73
I3
ssg74
g820
sg67
(lp827
S''
asbasbasbag60
(g76
g62
NtRp828
(dp829
g65
(dp830
sg74
g764
sg67
(lp831
g60
(g81
g62
NtRp832
(dp833
g65
(dp834
g85
g86
ssg74
g828
sg67
(lp835
g337
asbag60
(g81
g62
NtRp836
(dp837
g65
(dp838
g92
g93
ssg74
g828
sg67
(lp839
S':'
asbag60
(g81
g62
NtRp840
(dp841
g65
(dp842
sg74
g828
sg67
(lp843
g60
(g61
g62
NtRp844
(dp845
g65
(dp846
g73
I3
ssg74
g840
sg67
(lp847
S''
asbasbasbag60
(g76
g62
NtRp848
(dp849
g65
(dp850
sg74
g764
sg67
(lp851
g60
(g81
g62
NtRp852
(dp853
g65
(dp854
g85
g86
ssg74
g848
sg67
(lp855
g358
asbag60
(g81
g62
NtRp856
(dp857
g65
(dp858
g92
g93
ssg74
g848
sg67
(lp859
S':'
asbag60
(g81
g62
NtRp860
(dp861
g65
(dp862
sg74
g848
sg67
(lp863
g60
(g61
g62
NtRp864
(dp865
g65
(dp866
g73
I3
ssg74
g860
sg67
(lp867
S''
asbasbasbag60
(g76
g62
NtRp868
(dp869
g65
(dp870
sg74
g764
sg67
(lp871
g60
(g81
g62
NtRp872
(dp873
g65
(dp874
g85
g86
ssg74
g868
sg67
(lp875
g379
asbag60
(g81
g62
NtRp876
(dp877
g65
(dp878
g92
g93
ssg74
g868
sg67
(lp879
S':'
asbag60
(g81
g62
NtRp880
(dp881
g65
(dp882
sg74
g868
sg67
(lp883
g60
(g61
g62
NtRp884
(dp885
g65
(dp886
g73
I3
ssg74
g880
sg67
(lp887
S''
asbasbasbag60
(g76
g62
NtRp888
(dp889
g65
(dp890
sg74
g764
sg67
(lp891
g60
(g81
g62
NtRp892
(dp893
g65
(dp894
g85
g86
ssg74
g888
sg67
(lp895
g400
asbag60
(g81
g62
NtRp896
(dp897
g65
(dp898
g92
g93
ssg74
g888
sg67
(lp899
S':'
asbag60
(g81
g62
NtRp900
(dp901
g65
(dp902
sg74
g888
sg67
(lp903
g60
(g61
g62
NtRp904
(dp905
g65
(dp906
g73
I3
ssg74
g900
sg67
(lp907
S''
asbasbasbasbasbasbasbag60
(g76
g62
NtRp908
(dp909
g65
(dp910
sg74
g237
sg67
(lp911
g60
(g81
g62
NtRp912
(dp913
g65
(dp914
g85
g86
ssg74
g908
sg67
(lp915
S'session_id_welcome'
p916
asbag60
(g81
g62
NtRp917
(dp918
g65
(dp919
g92
g93
ssg74
g908
sg67
(lp920
S':'
asbag60
(g81
g62
NtRp921
(dp922
g65
(dp923
sg74
g908
sg67
(lp924
g60
(g61
g62
NtRp925
(dp926
g65
(dp927
g73
I4
ssg74
g921
sg67
(lp928
g60
(g69
g62
NtRp929
(dp930
g65
(dp931
g73
I3
ssg74
Nsg67
(lp932
g60
(g76
g62
NtRp933
(dp934
g65
(dp935
sg74
g929
sg67
(lp936
g60
(g81
g62
NtRp937
(dp938
g65
(dp939
g85
g86
ssg74
g933
sg67
(lp940
g274
asbag60
(g81
g62
NtRp941
(dp942
g65
(dp943
g92
g93
ssg74
g933
sg67
(lp944
S':'
asbag60
(g81
g62
NtRp945
(dp946
g65
(dp947
sg74
g933
sg67
(lp948
g60
(g61
g62
NtRp949
(dp950
g65
(dp951
g73
I3
ssg74
g945
sg67
(lp952
S''
asbasbasbag60
(g76
g62
NtRp953
(dp954
g65
(dp955
sg74
g929
sg67
(lp956
g60
(g81
g62
NtRp957
(dp958
g65
(dp959
g85
g86
ssg74
g953
sg67
(lp960
g295
asbag60
(g81
g62
NtRp961
(dp962
g65
(dp963
g92
g93
ssg74
g953
sg67
(lp964
S':'
asbag60
(g81
g62
NtRp965
(dp966
g65
(dp967
sg74
g953
sg67
(lp968
g60
(g61
g62
NtRp969
(dp970
g65
(dp971
g73
I3
ssg74
g965
sg67
(lp972
S''
asbasbasbag60
(g76
g62
NtRp973
(dp974
g65
(dp975
sg74
g929
sg67
(lp976
g60
(g81
g62
NtRp977
(dp978
g65
(dp979
g85
g86
ssg74
g973
sg67
(lp980
g316
asbag60
(g81
g62
NtRp981
(dp982
g65
(dp983
g92
g93
ssg74
g973
sg67
(lp984
S':'
asbag60
(g81
g62
NtRp985
(dp986
g65
(dp987
sg74
g973
sg67
(lp988
g60
(g61
g62
NtRp989
(dp990
g65
(dp991
g73
I3
ssg74
g985
sg67
(lp992
S''
asbasbasbag60
(g76
g62
NtRp993
(dp994
g65
(dp995
sg74
g929
sg67
(lp996
g60
(g81
g62
NtRp997
(dp998
g65
(dp999
g85
g86
ssg74
g993
sg67
(lp1000
g337
asbag60
(g81
g62
NtRp1001
(dp1002
g65
(dp1003
g92
g93
ssg74
g993
sg67
(lp1004
S':'
asbag60
(g81
g62
NtRp1005
(dp1006
g65
(dp1007
sg74
g993
sg67
(lp1008
g60
(g61
g62
NtRp1009
(dp1010
g65
(dp1011
g73
I3
ssg74
g1005
sg67
(lp1012
S''
asbasbasbag60
(g76
g62
NtRp1013
(dp1014
g65
(dp1015
sg74
g929
sg67
(lp1016
g60
(g81
g62
NtRp1017
(dp1018
g65
(dp1019
g85
g86
ssg74
g1013
sg67
(lp1020
g358
asbag60
(g81
g62
NtRp1021
(dp1022
g65
(dp1023
g92
g93
ssg74
g1013
sg67
(lp1024
S':'
asbag60
(g81
g62
NtRp1025
(dp1026
g65
(dp1027
sg74
g1013
sg67
(lp1028
g60
(g61
g62
NtRp1029
(dp1030
g65
(dp1031
g73
I3
ssg74
g1025
sg67
(lp1032
S''
asbasbasbag60
(g76
g62
NtRp1033
(dp1034
g65
(dp1035
sg74
g929
sg67
(lp1036
g60
(g81
g62
NtRp1037
(dp1038
g65
(dp1039
g85
g86
ssg74
g1033
sg67
(lp1040
g379
asbag60
(g81
g62
NtRp1041
(dp1042
g65
(dp1043
g92
g93
ssg74
g1033
sg67
(lp1044
S':'
asbag60
(g81
g62
NtRp1045
(dp1046
g65
(dp1047
sg74
g1033
sg67
(lp1048
g60
(g61
g62
NtRp1049
(dp1050
g65
(dp1051
g73
I3
ssg74
g1045
sg67
(lp1052
S''
asbasbasbag60
(g76
g62
NtRp1053
(dp1054
g65
(dp1055
sg74
g929
sg67
(lp1056
g60
(g81
g62
NtRp1057
(dp1058
g65
(dp1059
g85
g86
ssg74
g1053
sg67
(lp1060
g400
asbag60
(g81
g62
NtRp1061
(dp1062
g65
(dp1063
g92
g93
ssg74
g1053
sg67
(lp1064
S':'
asbag60
(g81
g62
NtRp1065
(dp1066
g65
(dp1067
sg74
g1053
sg67
(lp1068
g60
(g61
g62
NtRp1069
(dp1070
g65
(dp1071
g73
I3
ssg74
g1065
sg67
(lp1072
S''
asbasbasbasbasbasbasbasbasbasbasbag60
(g76
g62
NtRp1073
(dp1074
g65
(dp1075
sg74
g70
sg67
(lp1076
g60
(g81
g62
NtRp1077
(dp1078
g65
(dp1079
g85
g86
ssg74
g1073
sg67
(lp1080
S'env'
p1081
asbag60
(g81
g62
NtRp1082
(dp1083
g65
(dp1084
g92
g93
ssg74
g1073
sg67
(lp1085
S':'
asbag60
(g81
g62
NtRp1086
(dp1087
g65
(dp1088
sg74
g1073
sg67
(lp1089
g60
(g61
g62
NtRp1090
(dp1091
g65
(dp1092
g73
I5
ssg74
g1086
sg67
(lp1093
g60
(g69
g62
NtRp1094
(dp1095
g65
(dp1096
g73
I4
ssg74
Nsg67
(lp1097
g60
(g76
g62
NtRp1098
(dp1099
g65
(dp1100
sg74
g1094
sg67
(lp1101
g60
(g81
g62
NtRp1102
(dp1103
g65
(dp1104
g85
g86
ssg74
g1098
sg67
(lp1105
S'app_folders'
p1106
asbag60
(g81
g62
NtRp1107
(dp1108
g65
(dp1109
g92
g93
ssg74
g1098
sg67
(lp1110
S':'
asbag60
(g81
g62
NtRp1111
(dp1112
g65
(dp1113
sg74
g1098
sg67
(lp1114
g60
(g61
g62
NtRp1115
(dp1116
g65
(dp1117
g73
I4
ssg74
g1111
sg67
(lp1118
S"set(['C:\\\\Users\\\\Atomico\\\\web2py\\\\applications\\\\welcome\\\\', 'C:\\\\Users\\\\Atomico\\\\web2py\\\\applications\\\\hemoal\\\\', 'C:\\\\Users\\\\Atomico\\\\web2py\\\\applications\\\\Desglosar_Emails\\\\', 'C:\\\\Users\\\\Atomico\\\\web2py\\\\applications\\\\admin\\\\'])"
p1119
asbasbasbag60
(g76
g62
NtRp1120
(dp1121
g65
(dp1122
sg74
g1094
sg67
(lp1123
g60
(g81
g62
NtRp1124
(dp1125
g65
(dp1126
g85
g86
ssg74
g1120
sg67
(lp1127
S'applications_parent'
p1128
asbag60
(g81
g62
NtRp1129
(dp1130
g65
(dp1131
g92
g93
ssg74
g1120
sg67
(lp1132
S':'
asbag60
(g81
g62
NtRp1133
(dp1134
g65
(dp1135
sg74
g1120
sg67
(lp1136
g60
(g61
g62
NtRp1137
(dp1138
g65
(dp1139
g73
I4
ssg74
g1133
sg67
(lp1140
S'C:\\Users\\Atomico\\web2py'
p1141
asbasbasbag60
(g76
g62
NtRp1142
(dp1143
g65
(dp1144
sg74
g1094
sg67
(lp1145
g60
(g81
g62
NtRp1146
(dp1147
g65
(dp1148
g85
g86
ssg74
g1142
sg67
(lp1149
S'cmd_args'
p1150
asbag60
(g81
g62
NtRp1151
(dp1152
g65
(dp1153
g92
g93
ssg74
g1142
sg67
(lp1154
S':'
asbag60
(g81
g62
NtRp1155
(dp1156
g65
(dp1157
sg74
g1142
sg67
(lp1158
g60
(g61
g62
NtRp1159
(dp1160
g65
(dp1161
g73
I4
ssg74
g1155
sg67
(lp1162
g60
(g69
g62
NtRp1163
(dp1164
g65
(dp1165
g73
I3
ssg74
Nsg67
(lp1166
sbasbasbasbag60
(g76
g62
NtRp1167
(dp1168
g65
(dp1169
sg74
g1094
sg67
(lp1170
g60
(g81
g62
NtRp1171
(dp1172
g65
(dp1173
g85
g86
ssg74
g1167
sg67
(lp1174
S'cmd_options'
p1175
asbag60
(g81
g62
NtRp1176
(dp1177
g65
(dp1178
g92
g93
ssg74
g1167
sg67
(lp1179
S':'
asbag60
(g81
g62
NtRp1180
(dp1181
g65
(dp1182
sg74
g1167
sg67
(lp1183
g60
(g61
g62
NtRp1184
(dp1185
g65
(dp1186
g73
I4
ssg74
g1180
sg67
(lp1187
S"<Values at 0x304b620: {'verbose': False, 'ip': '127.0.0.1', 'shutdown_timeout': 5, 'taskbar': False, 'port': 8000, 'maxthreads': None, 'softcron': False, 'server_name': 'Swing', 'bpython': False, 'nogui': False, 'nocron': False, 'extcron': False, 'debuglevel': 30, 'test': None, 'folder': 'C:\\\\Users\\\\Atomico\\\\web2py', 'config': '', 'import_models': False, 'winservice': '', 'shell': None, 'run': '', 'log_filename': 'httpserver.log', 'args': [''], 'profiler_filename': None, 'ssl_private_key': '', 'password': '<ask>', 'request_queue_size': 5, 'ssl_certificate': '', 'cronjob': False, 'plain': False, 'quiet': False, 'interfaces': None, 'minthreads': None, 'timeout': 10, 'numthreads': None, 'nobanner': False, 'pid_filename': 'httpserver.pid'}>"
p1188
asbasbasbag60
(g76
g62
NtRp1189
(dp1190
g65
(dp1191
sg74
g1094
sg67
(lp1192
g60
(g81
g62
NtRp1193
(dp1194
g65
(dp1195
g85
g86
ssg74
g1189
sg67
(lp1196
S'db_sessions'
p1197
asbag60
(g81
g62
NtRp1198
(dp1199
g65
(dp1200
g92
g93
ssg74
g1189
sg67
(lp1201
S':'
asbag60
(g81
g62
NtRp1202
(dp1203
g65
(dp1204
sg74
g1189
sg67
(lp1205
g60
(g61
g62
NtRp1206
(dp1207
g65
(dp1208
g73
I4
ssg74
g1202
sg67
(lp1209
S'set([])'
p1210
asbasbasbag60
(g76
g62
NtRp1211
(dp1212
g65
(dp1213
sg74
g1094
sg67
(lp1214
g60
(g81
g62
NtRp1215
(dp1216
g65
(dp1217
g85
g86
ssg74
g1211
sg67
(lp1218
S'debugging'
p1219
asbag60
(g81
g62
NtRp1220
(dp1221
g65
(dp1222
g92
g93
ssg74
g1211
sg67
(lp1223
S':'
asbag60
(g81
g62
NtRp1224
(dp1225
g65
(dp1226
sg74
g1211
sg67
(lp1227
g60
(g61
g62
NtRp1228
(dp1229
g65
(dp1230
g73
I4
ssg74
g1224
sg67
(lp1231
g103
asbasbasbag60
(g76
g62
NtRp1232
(dp1233
g65
(dp1234
sg74
g1094
sg67
(lp1235
g60
(g81
g62
NtRp1236
(dp1237
g65
(dp1238
g85
g86
ssg74
g1232
sg67
(lp1239
S'gluon_parent'
p1240
asbag60
(g81
g62
NtRp1241
(dp1242
g65
(dp1243
g92
g93
ssg74
g1232
sg67
(lp1244
S':'
asbag60
(g81
g62
NtRp1245
(dp1246
g65
(dp1247
sg74
g1232
sg67
(lp1248
g60
(g61
g62
NtRp1249
(dp1250
g65
(dp1251
g73
I4
ssg74
g1245
sg67
(lp1252
S'C:\\Users\\Atomico\\web2py'
p1253
asbasbasbag60
(g76
g62
NtRp1254
(dp1255
g65
(dp1256
sg74
g1094
sg67
(lp1257
g60
(g81
g62
NtRp1258
(dp1259
g65
(dp1260
g85
g86
ssg74
g1254
sg67
(lp1261
S'http_accept'
p1262
asbag60
(g81
g62
NtRp1263
(dp1264
g65
(dp1265
g92
g93
ssg74
g1254
sg67
(lp1266
S':'
asbag60
(g81
g62
NtRp1267
(dp1268
g65
(dp1269
sg74
g1254
sg67
(lp1270
g60
(g61
g62
NtRp1271
(dp1272
g65
(dp1273
g73
I4
ssg74
g1267
sg67
(lp1274
S'text/html,application/xhtml+xml,application/xml;q=0.9,*/*;q=0.8'
p1275
asbasbasbag60
(g76
g62
NtRp1276
(dp1277
g65
(dp1278
sg74
g1094
sg67
(lp1279
g60
(g81
g62
NtRp1280
(dp1281
g65
(dp1282
g85
g86
ssg74
g1276
sg67
(lp1283
S'http_accept_charset'
p1284
asbag60
(g81
g62
NtRp1285
(dp1286
g65
(dp1287
g92
g93
ssg74
g1276
sg67
(lp1288
S':'
asbag60
(g81
g62
NtRp1289
(dp1290
g65
(dp1291
sg74
g1276
sg67
(lp1292
g60
(g61
g62
NtRp1293
(dp1294
g65
(dp1295
g73
I4
ssg74
g1289
sg67
(lp1296
S'ISO-8859-1,utf-8;q=0.7,*;q=0.7'
p1297
asbasbasbag60
(g76
g62
NtRp1298
(dp1299
g65
(dp1300
sg74
g1094
sg67
(lp1301
g60
(g81
g62
NtRp1302
(dp1303
g65
(dp1304
g85
g86
ssg74
g1298
sg67
(lp1305
S'http_accept_encoding'
p1306
asbag60
(g81
g62
NtRp1307
(dp1308
g65
(dp1309
g92
g93
ssg74
g1298
sg67
(lp1310
S':'
asbag60
(g81
g62
NtRp1311
(dp1312
g65
(dp1313
sg74
g1298
sg67
(lp1314
g60
(g61
g62
NtRp1315
(dp1316
g65
(dp1317
g73
I4
ssg74
g1311
sg67
(lp1318
S'gzip, deflate'
p1319
asbasbasbag60
(g76
g62
NtRp1320
(dp1321
g65
(dp1322
sg74
g1094
sg67
(lp1323
g60
(g81
g62
NtRp1324
(dp1325
g65
(dp1326
g85
g86
ssg74
g1320
sg67
(lp1327
S'http_accept_language'
p1328
asbag60
(g81
g62
NtRp1329
(dp1330
g65
(dp1331
g92
g93
ssg74
g1320
sg67
(lp1332
S':'
asbag60
(g81
g62
NtRp1333
(dp1334
g65
(dp1335
sg74
g1320
sg67
(lp1336
g60
(g61
g62
NtRp1337
(dp1338
g65
(dp1339
g73
I4
ssg74
g1333
sg67
(lp1340
S'es-es,es;q=0.8,en-us;q=0.5,en;q=0.3'
p1341
asbasbasbag60
(g76
g62
NtRp1342
(dp1343
g65
(dp1344
sg74
g1094
sg67
(lp1345
g60
(g81
g62
NtRp1346
(dp1347
g65
(dp1348
g85
g86
ssg74
g1342
sg67
(lp1349
S'http_connection'
p1350
asbag60
(g81
g62
NtRp1351
(dp1352
g65
(dp1353
g92
g93
ssg74
g1342
sg67
(lp1354
S':'
asbag60
(g81
g62
NtRp1355
(dp1356
g65
(dp1357
sg74
g1342
sg67
(lp1358
g60
(g61
g62
NtRp1359
(dp1360
g65
(dp1361
g73
I4
ssg74
g1355
sg67
(lp1362
S'keep-alive'
p1363
asbasbasbag60
(g76
g62
NtRp1364
(dp1365
g65
(dp1366
sg74
g1094
sg67
(lp1367
g60
(g81
g62
NtRp1368
(dp1369
g65
(dp1370
g85
g86
ssg74
g1364
sg67
(lp1371
S'http_cookie'
p1372
asbag60
(g81
g62
NtRp1373
(dp1374
g65
(dp1375
g92
g93
ssg74
g1364
sg67
(lp1376
S':'
asbag60
(g81
g62
NtRp1377
(dp1378
g65
(dp1379
sg74
g1364
sg67
(lp1380
g60
(g61
g62
NtRp1381
(dp1382
g65
(dp1383
g73
I4
ssg74
g1377
sg67
(lp1384
S'session_id_welcome=127.0.0.1-082a2830-9bb6-4bfb-b2e2-4857b06c191e; session_id_admin=127.0.0.1-47fb3a34-c5d7-4353-b3ad-9fae00359bf6; session_id_listado_1=127.0.0.1-477ec098-5436-4f6e-bfee-1a0bd88f6f9e; session_id_desglosar_emails=127.0.0.1-0a11b3b2-660c-433c-b71f-fc129286f26c; session_id_hemoal=127.0.0.1-d0733478-bcf9-46cd-b929-6ad399646751'
p1385
asbasbasbag60
(g76
g62
NtRp1386
(dp1387
g65
(dp1388
sg74
g1094
sg67
(lp1389
g60
(g81
g62
NtRp1390
(dp1391
g65
(dp1392
g85
g86
ssg74
g1386
sg67
(lp1393
S'http_host'
p1394
asbag60
(g81
g62
NtRp1395
(dp1396
g65
(dp1397
g92
g93
ssg74
g1386
sg67
(lp1398
S':'
asbag60
(g81
g62
NtRp1399
(dp1400
g65
(dp1401
sg74
g1386
sg67
(lp1402
g60
(g61
g62
NtRp1403
(dp1404
g65
(dp1405
g73
I4
ssg74
g1399
sg67
(lp1406
S'127.0.0.1:8000'
p1407
asbasbasbag60
(g76
g62
NtRp1408
(dp1409
g65
(dp1410
sg74
g1094
sg67
(lp1411
g60
(g81
g62
NtRp1412
(dp1413
g65
(dp1414
g85
g86
ssg74
g1408
sg67
(lp1415
S'http_referer'
p1416
asbag60
(g81
g62
NtRp1417
(dp1418
g65
(dp1419
g92
g93
ssg74
g1408
sg67
(lp1420
S':'
asbag60
(g81
g62
NtRp1421
(dp1422
g65
(dp1423
sg74
g1408
sg67
(lp1424
g60
(g61
g62
NtRp1425
(dp1426
g65
(dp1427
g73
I4
ssg74
g1421
sg67
(lp1428
S'http://127.0.0.1:8000/admin/default/design/Desglosar_Emails'
p1429
asbasbasbag60
(g76
g62
NtRp1430
(dp1431
g65
(dp1432
sg74
g1094
sg67
(lp1433
g60
(g81
g62
NtRp1434
(dp1435
g65
(dp1436
g85
g86
ssg74
g1430
sg67
(lp1437
S'http_user_agent'
p1438
asbag60
(g81
g62
NtRp1439
(dp1440
g65
(dp1441
g92
g93
ssg74
g1430
sg67
(lp1442
S':'
asbag60
(g81
g62
NtRp1443
(dp1444
g65
(dp1445
sg74
g1430
sg67
(lp1446
g60
(g61
g62
NtRp1447
(dp1448
g65
(dp1449
g73
I4
ssg74
g1443
sg67
(lp1450
S'Mozilla/5.0 (Windows NT 6.1; WOW64; rv:6.0.2) Gecko/20100101 Firefox/6.0.2'
p1451
asbasbasbag60
(g76
g62
NtRp1452
(dp1453
g65
(dp1454
sg74
g1094
sg67
(lp1455
g60
(g81
g62
NtRp1456
(dp1457
g65
(dp1458
g85
g86
ssg74
g1452
sg67
(lp1459
S'is_jython'
p1460
asbag60
(g81
g62
NtRp1461
(dp1462
g65
(dp1463
g92
g93
ssg74
g1452
sg67
(lp1464
S':'
asbag60
(g81
g62
NtRp1465
(dp1466
g65
(dp1467
sg74
g1452
sg67
(lp1468
g60
(g61
g62
NtRp1469
(dp1470
g65
(dp1471
g73
I4
ssg74
g1465
sg67
(lp1472
g103
asbasbasbag60
(g76
g62
NtRp1473
(dp1474
g65
(dp1475
sg74
g1094
sg67
(lp1476
g60
(g81
g62
NtRp1477
(dp1478
g65
(dp1479
g85
g86
ssg74
g1473
sg67
(lp1480
S'path_info'
p1481
asbag60
(g81
g62
NtRp1482
(dp1483
g65
(dp1484
g92
g93
ssg74
g1473
sg67
(lp1485
S':'
asbag60
(g81
g62
NtRp1486
(dp1487
g65
(dp1488
sg74
g1473
sg67
(lp1489
g60
(g61
g62
NtRp1490
(dp1491
g65
(dp1492
g73
I4
ssg74
g1486
sg67
(lp1493
S'/Desglosar_Emails/default/entrada_mod1'
p1494
asbasbasbag60
(g76
g62
NtRp1495
(dp1496
g65
(dp1497
sg74
g1094
sg67
(lp1498
g60
(g81
g62
NtRp1499
(dp1500
g65
(dp1501
g85
g86
ssg74
g1495
sg67
(lp1502
S'query_string'
p1503
asbag60
(g81
g62
NtRp1504
(dp1505
g65
(dp1506
g92
g93
ssg74
g1495
sg67
(lp1507
S':'
asbag60
(g81
g62
NtRp1508
(dp1509
g65
(dp1510
sg74
g1495
sg67
(lp1511
g60
(g61
g62
NtRp1512
(dp1513
g65
(dp1514
g73
I4
ssg74
g1508
sg67
(lp1515
S''
asbasbasbag60
(g76
g62
NtRp1516
(dp1517
g65
(dp1518
sg74
g1094
sg67
(lp1519
g60
(g81
g62
NtRp1520
(dp1521
g65
(dp1522
g85
g86
ssg74
g1516
sg67
(lp1523
S'remote_addr'
p1524
asbag60
(g81
g62
NtRp1525
(dp1526
g65
(dp1527
g92
g93
ssg74
g1516
sg67
(lp1528
S':'
asbag60
(g81
g62
NtRp1529
(dp1530
g65
(dp1531
sg74
g1516
sg67
(lp1532
g60
(g61
g62
NtRp1533
(dp1534
g65
(dp1535
g73
I4
ssg74
g1529
sg67
(lp1536
g193
asbasbasbag60
(g76
g62
NtRp1537
(dp1538
g65
(dp1539
sg74
g1094
sg67
(lp1540
g60
(g81
g62
NtRp1541
(dp1542
g65
(dp1543
g85
g86
ssg74
g1537
sg67
(lp1544
S'remote_port'
p1545
asbag60
(g81
g62
NtRp1546
(dp1547
g65
(dp1548
g92
g93
ssg74
g1537
sg67
(lp1549
S':'
asbag60
(g81
g62
NtRp1550
(dp1551
g65
(dp1552
sg74
g1537
sg67
(lp1553
g60
(g61
g62
NtRp1554
(dp1555
g65
(dp1556
g73
I4
ssg74
g1550
sg67
(lp1557
S'62286'
p1558
asbasbasbag60
(g76
g62
NtRp1559
(dp1560
g65
(dp1561
sg74
g1094
sg67
(lp1562
g60
(g81
g62
NtRp1563
(dp1564
g65
(dp1565
g85
g86
ssg74
g1559
sg67
(lp1566
S'request_method'
p1567
asbag60
(g81
g62
NtRp1568
(dp1569
g65
(dp1570
g92
g93
ssg74
g1559
sg67
(lp1571
S':'
asbag60
(g81
g62
NtRp1572
(dp1573
g65
(dp1574
sg74
g1559
sg67
(lp1575
g60
(g61
g62
NtRp1576
(dp1577
g65
(dp1578
g73
I4
ssg74
g1572
sg67
(lp1579
S'GET'
p1580
asbasbasbag60
(g76
g62
NtRp1581
(dp1582
g65
(dp1583
sg74
g1094
sg67
(lp1584
g60
(g81
g62
NtRp1585
(dp1586
g65
(dp1587
g85
g86
ssg74
g1581
sg67
(lp1588
S'script_name'
p1589
asbag60
(g81
g62
NtRp1590
(dp1591
g65
(dp1592
g92
g93
ssg74
g1581
sg67
(lp1593
S':'
asbag60
(g81
g62
NtRp1594
(dp1595
g65
(dp1596
sg74
g1581
sg67
(lp1597
g60
(g61
g62
NtRp1598
(dp1599
g65
(dp1600
g73
I4
ssg74
g1594
sg67
(lp1601
S''
asbasbasbag60
(g76
g62
NtRp1602
(dp1603
g65
(dp1604
sg74
g1094
sg67
(lp1605
g60
(g81
g62
NtRp1606
(dp1607
g65
(dp1608
g85
g86
ssg74
g1602
sg67
(lp1609
S'server_name'
p1610
asbag60
(g81
g62
NtRp1611
(dp1612
g65
(dp1613
g92
g93
ssg74
g1602
sg67
(lp1614
S':'
asbag60
(g81
g62
NtRp1615
(dp1616
g65
(dp1617
sg74
g1602
sg67
(lp1618
g60
(g61
g62
NtRp1619
(dp1620
g65
(dp1621
g73
I4
ssg74
g1615
sg67
(lp1622
S'Swing'
p1623
asbasbasbag60
(g76
g62
NtRp1624
(dp1625
g65
(dp1626
sg74
g1094
sg67
(lp1627
g60
(g81
g62
NtRp1628
(dp1629
g65
(dp1630
g85
g86
ssg74
g1624
sg67
(lp1631
S'server_port'
p1632
asbag60
(g81
g62
NtRp1633
(dp1634
g65
(dp1635
g92
g93
ssg74
g1624
sg67
(lp1636
S':'
asbag60
(g81
g62
NtRp1637
(dp1638
g65
(dp1639
sg74
g1624
sg67
(lp1640
g60
(g61
g62
NtRp1641
(dp1642
g65
(dp1643
g73
I4
ssg74
g1637
sg67
(lp1644
S'8000'
p1645
asbasbasbag60
(g76
g62
NtRp1646
(dp1647
g65
(dp1648
sg74
g1094
sg67
(lp1649
g60
(g81
g62
NtRp1650
(dp1651
g65
(dp1652
g85
g86
ssg74
g1646
sg67
(lp1653
S'server_protocol'
p1654
asbag60
(g81
g62
NtRp1655
(dp1656
g65
(dp1657
g92
g93
ssg74
g1646
sg67
(lp1658
S':'
asbag60
(g81
g62
NtRp1659
(dp1660
g65
(dp1661
sg74
g1646
sg67
(lp1662
g60
(g61
g62
NtRp1663
(dp1664
g65
(dp1665
g73
I4
ssg74
g1659
sg67
(lp1666
S'HTTP/1.1'
p1667
asbasbasbag60
(g76
g62
NtRp1668
(dp1669
g65
(dp1670
sg74
g1094
sg67
(lp1671
g60
(g81
g62
NtRp1672
(dp1673
g65
(dp1674
g85
g86
ssg74
g1668
sg67
(lp1675
S'server_software'
p1676
asbag60
(g81
g62
NtRp1677
(dp1678
g65
(dp1679
g92
g93
ssg74
g1668
sg67
(lp1680
S':'
asbag60
(g81
g62
NtRp1681
(dp1682
g65
(dp1683
sg74
g1668
sg67
(lp1684
g60
(g61
g62
NtRp1685
(dp1686
g65
(dp1687
g73
I4
ssg74
g1681
sg67
(lp1688
S'Rocket 1.2.2'
p1689
asbasbasbag60
(g76
g62
NtRp1690
(dp1691
g65
(dp1692
sg74
g1094
sg67
(lp1693
g60
(g81
g62
NtRp1694
(dp1695
g65
(dp1696
g85
g86
ssg74
g1690
sg67
(lp1697
S'web2py_crontype'
p1698
asbag60
(g81
g62
NtRp1699
(dp1700
g65
(dp1701
g92
g93
ssg74
g1690
sg67
(lp1702
S':'
asbag60
(g81
g62
NtRp1703
(dp1704
g65
(dp1705
sg74
g1690
sg67
(lp1706
g60
(g61
g62
NtRp1707
(dp1708
g65
(dp1709
g73
I4
ssg74
g1703
sg67
(lp1710
S'hard'
p1711
asbasbasbag60
(g76
g62
NtRp1712
(dp1713
g65
(dp1714
sg74
g1094
sg67
(lp1715
g60
(g81
g62
NtRp1716
(dp1717
g65
(dp1718
g85
g86
ssg74
g1712
sg67
(lp1719
S'web2py_path'
p1720
asbag60
(g81
g62
NtRp1721
(dp1722
g65
(dp1723
g92
g93
ssg74
g1712
sg67
(lp1724
S':'
asbag60
(g81
g62
NtRp1725
(dp1726
g65
(dp1727
sg74
g1712
sg67
(lp1728
g60
(g61
g62
NtRp1729
(dp1730
g65
(dp1731
g73
I4
ssg74
g1725
sg67
(lp1732
g1141
asbasbasbag60
(g76
g62
NtRp1733
(dp1734
g65
(dp1735
sg74
g1094
sg67
(lp1736
g60
(g81
g62
NtRp1737
(dp1738
g65
(dp1739
g85
g86
ssg74
g1733
sg67
(lp1740
S'web2py_version'
p1741
asbag60
(g81
g62
NtRp1742
(dp1743
g65
(dp1744
g92
g93
ssg74
g1733
sg67
(lp1745
S':'
asbag60
(g81
g62
NtRp1746
(dp1747
g65
(dp1748
sg74
g1733
sg67
(lp1749
g60
(g61
g62
NtRp1750
(dp1751
g65
(dp1752
g73
I4
ssg74
g1746
sg67
(lp1753
S'Version 1.98.2 (2011-08-04 00:47:09)\n'
p1754
asbasbasbag60
(g76
g62
NtRp1755
(dp1756
g65
(dp1757
sg74
g1094
sg67
(lp1758
g60
(g81
g62
NtRp1759
(dp1760
g65
(dp1761
g85
g86
ssg74
g1755
sg67
(lp1762
S'wsgi_errors'
p1763
asbag60
(g81
g62
NtRp1764
(dp1765
g65
(dp1766
g92
g93
ssg74
g1755
sg67
(lp1767
S':'
asbag60
(g81
g62
NtRp1768
(dp1769
g65
(dp1770
sg74
g1755
sg67
(lp1771
g60
(g61
g62
NtRp1772
(dp1773
g65
(dp1774
g73
I4
ssg74
g1768
sg67
(lp1775
S"<open file '<stderr>', mode 'w' at 0x004800B0>"
p1776
asbasbasbag60
(g76
g62
NtRp1777
(dp1778
g65
(dp1779
sg74
g1094
sg67
(lp1780
g60
(g81
g62
NtRp1781
(dp1782
g65
(dp1783
g85
g86
ssg74
g1777
sg67
(lp1784
S'wsgi_file_wrapper'
p1785
asbag60
(g81
g62
NtRp1786
(dp1787
g65
(dp1788
g92
g93
ssg74
g1777
sg67
(lp1789
S':'
asbag60
(g81
g62
NtRp1790
(dp1791
g65
(dp1792
sg74
g1777
sg67
(lp1793
g60
(g61
g62
NtRp1794
(dp1795
g65
(dp1796
g73
I4
ssg74
g1790
sg67
(lp1797
S'<class gluon.rocket.FileWrapper at 0x02FDC1B0>'
p1798
asbasbasbag60
(g76
g62
NtRp1799
(dp1800
g65
(dp1801
sg74
g1094
sg67
(lp1802
g60
(g81
g62
NtRp1803
(dp1804
g65
(dp1805
g85
g86
ssg74
g1799
sg67
(lp1806
S'wsgi_input'
p1807
asbag60
(g81
g62
NtRp1808
(dp1809
g65
(dp1810
g92
g93
ssg74
g1799
sg67
(lp1811
S':'
asbag60
(g81
g62
NtRp1812
(dp1813
g65
(dp1814
sg74
g1799
sg67
(lp1815
g60
(g61
g62
NtRp1816
(dp1817
g65
(dp1818
g73
I4
ssg74
g1812
sg67
(lp1819
S'<socket._fileobject object at 0x032088B0>'
p1820
asbasbasbag60
(g76
g62
NtRp1821
(dp1822
g65
(dp1823
sg74
g1094
sg67
(lp1824
g60
(g81
g62
NtRp1825
(dp1826
g65
(dp1827
g85
g86
ssg74
g1821
sg67
(lp1828
S'wsgi_multiprocess'
p1829
asbag60
(g81
g62
NtRp1830
(dp1831
g65
(dp1832
g92
g93
ssg74
g1821
sg67
(lp1833
S':'
asbag60
(g81
g62
NtRp1834
(dp1835
g65
(dp1836
sg74
g1821
sg67
(lp1837
g60
(g61
g62
NtRp1838
(dp1839
g65
(dp1840
g73
I4
ssg74
g1834
sg67
(lp1841
g103
asbasbasbag60
(g76
g62
NtRp1842
(dp1843
g65
(dp1844
sg74
g1094
sg67
(lp1845
g60
(g81
g62
NtRp1846
(dp1847
g65
(dp1848
g85
g86
ssg74
g1842
sg67
(lp1849
S'wsgi_multithread'
p1850
asbag60
(g81
g62
NtRp1851
(dp1852
g65
(dp1853
g92
g93
ssg74
g1842
sg67
(lp1854
S':'
asbag60
(g81
g62
NtRp1855
(dp1856
g65
(dp1857
sg74
g1842
sg67
(lp1858
g60
(g61
g62
NtRp1859
(dp1860
g65
(dp1861
g73
I4
ssg74
g1855
sg67
(lp1862
S'True'
p1863
asbasbasbag60
(g76
g62
NtRp1864
(dp1865
g65
(dp1866
sg74
g1094
sg67
(lp1867
g60
(g81
g62
NtRp1868
(dp1869
g65
(dp1870
g85
g86
ssg74
g1864
sg67
(lp1871
S'wsgi_run_once'
p1872
asbag60
(g81
g62
NtRp1873
(dp1874
g65
(dp1875
g92
g93
ssg74
g1864
sg67
(lp1876
S':'
asbag60
(g81
g62
NtRp1877
(dp1878
g65
(dp1879
sg74
g1864
sg67
(lp1880
g60
(g61
g62
NtRp1881
(dp1882
g65
(dp1883
g73
I4
ssg74
g1877
sg67
(lp1884
g103
asbasbasbag60
(g76
g62
NtRp1885
(dp1886
g65
(dp1887
sg74
g1094
sg67
(lp1888
g60
(g81
g62
NtRp1889
(dp1890
g65
(dp1891
g85
g86
ssg74
g1885
sg67
(lp1892
S'wsgi_url_scheme'
p1893
asbag60
(g81
g62
NtRp1894
(dp1895
g65
(dp1896
g92
g93
ssg74
g1885
sg67
(lp1897
S':'
asbag60
(g81
g62
NtRp1898
(dp1899
g65
(dp1900
sg74
g1885
sg67
(lp1901
g60
(g61
g62
NtRp1902
(dp1903
g65
(dp1904
g73
I4
ssg74
g1898
sg67
(lp1905
S'http'
p1906
asbasbasbag60
(g76
g62
NtRp1907
(dp1908
g65
(dp1909
sg74
g1094
sg67
(lp1910
g60
(g81
g62
NtRp1911
(dp1912
g65
(dp1913
g85
g86
ssg74
g1907
sg67
(lp1914
S'wsgi_version'
p1915
asbag60
(g81
g62
NtRp1916
(dp1917
g65
(dp1918
g92
g93
ssg74
g1907
sg67
(lp1919
S':'
asbag60
(g81
g62
NtRp1920
(dp1921
g65
(dp1922
sg74
g1907
sg67
(lp1923
g60
(g61
g62
NtRp1924
(dp1925
g65
(dp1926
g73
I4
ssg74
g1920
sg67
(lp1927
g60
(g69
g62
NtRp1928
(dp1929
g65
(dp1930
g73
I3
ssg74
Nsg67
(lp1931
g60
(g76
g62
NtRp1932
(dp1933
g65
(dp1934
sg74
g1928
sg67
(lp1935
g60
(g81
g62
NtRp1936
(dp1937
g65
(dp1938
sg74
g1932
sg67
(lp1939
g60
(g61
g62
NtRp1940
(dp1941
g65
(dp1942
g73
I3
ssg74
g1936
sg67
(lp1943
S'1'
asbasbasbag60
(g76
g62
NtRp1944
(dp1945
g65
(dp1946
sg74
g1928
sg67
(lp1947
g60
(g81
g62
NtRp1948
(dp1949
g65
(dp1950
sg74
g1944
sg67
(lp1951
g60
(g61
g62
NtRp1952
(dp1953
g65
(dp1954
g73
I3
ssg74
g1948
sg67
(lp1955
S'0'
asbasbasbasbasbasbasbasbasbasbasbag60
(g76
g62
NtRp1956
(dp1957
g65
(dp1958
sg74
g70
sg67
(lp1959
g60
(g81
g62
NtRp1960
(dp1961
g65
(dp1962
g85
g86
ssg74
g1956
sg67
(lp1963
S'extension'
p1964
asbag60
(g81
g62
NtRp1965
(dp1966
g65
(dp1967
g92
g93
ssg74
g1956
sg67
(lp1968
S':'
asbag60
(g81
g62
NtRp1969
(dp1970
g65
(dp1971
sg74
g1956
sg67
(lp1972
g60
(g61
g62
NtRp1973
(dp1974
g65
(dp1975
g73
I5
ssg74
g1969
sg67
(lp1976
S'html'
p1977
asbasbasbag60
(g76
g62
NtRp1978
(dp1979
g65
(dp1980
sg74
g70
sg67
(lp1981
g60
(g81
g62
NtRp1982
(dp1983
g65
(dp1984
g85
g86
ssg74
g1978
sg67
(lp1985
S'folder'
p1986
asbag60
(g81
g62
NtRp1987
(dp1988
g65
(dp1989
g92
g93
ssg74
g1978
sg67
(lp1990
S':'
asbag60
(g81
g62
NtRp1991
(dp1992
g65
(dp1993
sg74
g1978
sg67
(lp1994
g60
(g61
g62
NtRp1995
(dp1996
g65
(dp1997
g73
I5
ssg74
g1991
sg67
(lp1998
S'C:\\Users\\Atomico\\web2py\\applications\\Desglosar_Emails\\'
p1999
asbasbasbag60
(g76
g62
NtRp2000
(dp2001
g65
(dp2002
sg74
g70
sg67
(lp2003
g60
(g81
g62
NtRp2004
(dp2005
g65
(dp2006
g85
g86
ssg74
g2000
sg67
(lp2007
S'function'
p2008
asbag60
(g81
g62
NtRp2009
(dp2010
g65
(dp2011
g92
g93
ssg74
g2000
sg67
(lp2012
S':'
asbag60
(g81
g62
NtRp2013
(dp2014
g65
(dp2015
sg74
g2000
sg67
(lp2016
g60
(g61
g62
NtRp2017
(dp2018
g65
(dp2019
g73
I5
ssg74
g2013
sg67
(lp2020
S'entrada_mod1'
p2021
asbasbasbag60
(g76
g62
NtRp2022
(dp2023
g65
(dp2024
sg74
g70
sg67
(lp2025
g60
(g81
g62
NtRp2026
(dp2027
g65
(dp2028
g85
g86
ssg74
g2022
sg67
(lp2029
S'get_vars'
p2030
asbag60
(g81
g62
NtRp2031
(dp2032
g65
(dp2033
g92
g93
ssg74
g2022
sg67
(lp2034
S':'
asbag60
(g81
g62
NtRp2035
(dp2036
g65
(dp2037
sg74
g2022
sg67
(lp2038
g60
(g61
g62
NtRp2039
(dp2040
g65
(dp2041
g73
I5
ssg74
g2035
sg67
(lp2042
g60
(g69
g62
NtRp2043
(dp2044
g65
(dp2045
g73
I4
ssg74
Nsg67
(lp2046
sbasbasbasbag60
(g76
g62
NtRp2047
(dp2048
g65
(dp2049
sg74
g70
sg67
(lp2050
g60
(g81
g62
NtRp2051
(dp2052
g65
(dp2053
g85
g86
ssg74
g2047
sg67
(lp2054
S'is_https'
p2055
asbag60
(g81
g62
NtRp2056
(dp2057
g65
(dp2058
g92
g93
ssg74
g2047
sg67
(lp2059
S':'
asbag60
(g81
g62
NtRp2060
(dp2061
g65
(dp2062
sg74
g2047
sg67
(lp2063
g60
(g61
g62
NtRp2064
(dp2065
g65
(dp2066
g73
I5
ssg74
g2060
sg67
(lp2067
g103
asbasbasbag60
(g76
g62
NtRp2068
(dp2069
g65
(dp2070
sg74
g70
sg67
(lp2071
g60
(g81
g62
NtRp2072
(dp2073
g65
(dp2074
g85
g86
ssg74
g2068
sg67
(lp2075
S'is_local'
p2076
asbag60
(g81
g62
NtRp2077
(dp2078
g65
(dp2079
g92
g93
ssg74
g2068
sg67
(lp2080
S':'
asbag60
(g81
g62
NtRp2081
(dp2082
g65
(dp2083
sg74
g2068
sg67
(lp2084
g60
(g61
g62
NtRp2085
(dp2086
g65
(dp2087
g73
I5
ssg74
g2081
sg67
(lp2088
g1863
asbasbasbag60
(g76
g62
NtRp2089
(dp2090
g65
(dp2091
sg74
g70
sg67
(lp2092
g60
(g81
g62
NtRp2093
(dp2094
g65
(dp2095
g85
g86
ssg74
g2089
sg67
(lp2096
S'is_restful'
p2097
asbag60
(g81
g62
NtRp2098
(dp2099
g65
(dp2100
g92
g93
ssg74
g2089
sg67
(lp2101
S':'
asbag60
(g81
g62
NtRp2102
(dp2103
g65
(dp2104
sg74
g2089
sg67
(lp2105
g60
(g61
g62
NtRp2106
(dp2107
g65
(dp2108
g73
I5
ssg74
g2102
sg67
(lp2109
g103
asbasbasbag60
(g76
g62
NtRp2110
(dp2111
g65
(dp2112
sg74
g70
sg67
(lp2113
g60
(g81
g62
NtRp2114
(dp2115
g65
(dp2116
g85
g86
ssg74
g2110
sg67
(lp2117
S'now'
p2118
asbag60
(g81
g62
NtRp2119
(dp2120
g65
(dp2121
g92
g93
ssg74
g2110
sg67
(lp2122
S':'
asbag60
(g81
g62
NtRp2123
(dp2124
g65
(dp2125
sg74
g2110
sg67
(lp2126
g60
(g61
g62
NtRp2127
(dp2128
g65
(dp2129
g73
I5
ssg74
g2123
sg67
(lp2130
S'datetime.datetime(2011, 9, 18, 21, 57, 6, 313000)'
p2131
asbasbasbag60
(g76
g62
NtRp2132
(dp2133
g65
(dp2134
sg74
g70
sg67
(lp2135
g60
(g81
g62
NtRp2136
(dp2137
g65
(dp2138
g85
g86
ssg74
g2132
sg67
(lp2139
S'post_vars'
p2140
asbag60
(g81
g62
NtRp2141
(dp2142
g65
(dp2143
g92
g93
ssg74
g2132
sg67
(lp2144
S':'
asbag60
(g81
g62
NtRp2145
(dp2146
g65
(dp2147
sg74
g2132
sg67
(lp2148
g60
(g61
g62
NtRp2149
(dp2150
g65
(dp2151
g73
I5
ssg74
g2145
sg67
(lp2152
g60
(g69
g62
NtRp2153
(dp2154
g65
(dp2155
g73
I4
ssg74
Nsg67
(lp2156
sbasbasbasbag60
(g76
g62
NtRp2157
(dp2158
g65
(dp2159
sg74
g70
sg67
(lp2160
g60
(g81
g62
NtRp2161
(dp2162
g65
(dp2163
g85
g86
ssg74
g2157
sg67
(lp2164
S'url'
p2165
asbag60
(g81
g62
NtRp2166
(dp2167
g65
(dp2168
g92
g93
ssg74
g2157
sg67
(lp2169
S':'
asbag60
(g81
g62
NtRp2170
(dp2171
g65
(dp2172
sg74
g2157
sg67
(lp2173
g60
(g61
g62
NtRp2174
(dp2175
g65
(dp2176
g73
I5
ssg74
g2170
sg67
(lp2177
S'/Desglosar_Emails/default/entrada_mod1'
p2178
asbasbasbag60
(g76
g62
NtRp2179
(dp2180
g65
(dp2181
sg74
g70
sg67
(lp2182
g60
(g81
g62
NtRp2183
(dp2184
g65
(dp2185
g85
g86
ssg74
g2179
sg67
(lp2186
S'uuid'
p2187
asbag60
(g81
g62
NtRp2188
(dp2189
g65
(dp2190
g92
g93
ssg74
g2179
sg67
(lp2191
S':'
asbag60
(g81
g62
NtRp2192
(dp2193
g65
(dp2194
sg74
g2179
sg67
(lp2195
g60
(g61
g62
NtRp2196
(dp2197
g65
(dp2198
g73
I5
ssg74
g2192
sg67
(lp2199
S'Desglosar_Emails/127.0.0.1.2011-09-18.21-57-06.16bbcfa7-2f3e-454e-a206-54ce6c90b9cc'
p2200
asbasbasbag60
(g76
g62
NtRp2201
(dp2202
g65
(dp2203
sg74
g70
sg67
(lp2204
g60
(g81
g62
NtRp2205
(dp2206
g65
(dp2207
g85
g86
ssg74
g2201
sg67
(lp2208
S'vars'
p2209
asbag60
(g81
g62
NtRp2210
(dp2211
g65
(dp2212
g92
g93
ssg74
g2201
sg67
(lp2213
S':'
asbag60
(g81
g62
NtRp2214
(dp2215
g65
(dp2216
sg74
g2201
sg67
(lp2217
g60
(g61
g62
NtRp2218
(dp2219
g65
(dp2220
g73
I5
ssg74
g2214
sg67
(lp2221
g60
(g69
g62
NtRp2222
(dp2223
g65
(dp2224
g73
I4
ssg74
Nsg67
(lp2225
sbasbasbasbag60
(g76
g62
NtRp2226
(dp2227
g65
(dp2228
sg74
g70
sg67
(lp2229
g60
(g81
g62
NtRp2230
(dp2231
g65
(dp2232
g85
g86
ssg74
g2226
sg67
(lp2233
S'wsgi'
p2234
asbag60
(g81
g62
NtRp2235
(dp2236
g65
(dp2237
g92
g93
ssg74
g2226
sg67
(lp2238
S':'
asbag60
(g81
g62
NtRp2239
(dp2240
g65
(dp2241
sg74
g2226
sg67
(lp2242
g60
(g61
g62
NtRp2243
(dp2244
g65
(dp2245
g73
I5
ssg74
g2239
sg67
(lp2246
g60
(g69
g62
NtRp2247
(dp2248
g65
(dp2249
g73
I4
ssg74
Nsg67
(lp2250
g60
(g76
g62
NtRp2251
(dp2252
g65
(dp2253
sg74
g2247
sg67
(lp2254
g60
(g81
g62
NtRp2255
(dp2256
g65
(dp2257
g85
g86
ssg74
g2251
sg67
(lp2258
S'environ'
p2259
asbag60
(g81
g62
NtRp2260
(dp2261
g65
(dp2262
g92
g93
ssg74
g2251
sg67
(lp2263
S':'
asbag60
(g81
g62
NtRp2264
(dp2265
g65
(dp2266
sg74
g2251
sg67
(lp2267
g60
(g61
g62
NtRp2268
(dp2269
g65
(dp2270
g73
I4
ssg74
g2264
sg67
(lp2271
g60
(g69
g62
NtRp2272
(dp2273
g65
(dp2274
g73
I3
ssg74
Nsg67
(lp2275
g60
(g76
g62
NtRp2276
(dp2277
g65
(dp2278
sg74
g2272
sg67
(lp2279
g60
(g81
g62
NtRp2280
(dp2281
g65
(dp2282
g85
g86
ssg74
g2276
sg67
(lp2283
S'HTTP_ACCEPT'
p2284
asbag60
(g81
g62
NtRp2285
(dp2286
g65
(dp2287
g92
g93
ssg74
g2276
sg67
(lp2288
S':'
asbag60
(g81
g62
NtRp2289
(dp2290
g65
(dp2291
sg74
g2276
sg67
(lp2292
g60
(g61
g62
NtRp2293
(dp2294
g65
(dp2295
g73
I3
ssg74
g2289
sg67
(lp2296
g1275
asbasbasbag60
(g76
g62
NtRp2297
(dp2298
g65
(dp2299
sg74
g2272
sg67
(lp2300
g60
(g81
g62
NtRp2301
(dp2302
g65
(dp2303
g85
g86
ssg74
g2297
sg67
(lp2304
S'HTTP_ACCEPT_CHARSET'
p2305
asbag60
(g81
g62
NtRp2306
(dp2307
g65
(dp2308
g92
g93
ssg74
g2297
sg67
(lp2309
S':'
asbag60
(g81
g62
NtRp2310
(dp2311
g65
(dp2312
sg74
g2297
sg67
(lp2313
g60
(g61
g62
NtRp2314
(dp2315
g65
(dp2316
g73
I3
ssg74
g2310
sg67
(lp2317
g1297
asbasbasbag60
(g76
g62
NtRp2318
(dp2319
g65
(dp2320
sg74
g2272
sg67
(lp2321
g60
(g81
g62
NtRp2322
(dp2323
g65
(dp2324
g85
g86
ssg74
g2318
sg67
(lp2325
S'HTTP_ACCEPT_ENCODING'
p2326
asbag60
(g81
g62
NtRp2327
(dp2328
g65
(dp2329
g92
g93
ssg74
g2318
sg67
(lp2330
S':'
asbag60
(g81
g62
NtRp2331
(dp2332
g65
(dp2333
sg74
g2318
sg67
(lp2334
g60
(g61
g62
NtRp2335
(dp2336
g65
(dp2337
g73
I3
ssg74
g2331
sg67
(lp2338
g1319
asbasbasbag60
(g76
g62
NtRp2339
(dp2340
g65
(dp2341
sg74
g2272
sg67
(lp2342
g60
(g81
g62
NtRp2343
(dp2344
g65
(dp2345
g85
g86
ssg74
g2339
sg67
(lp2346
S'HTTP_ACCEPT_LANGUAGE'
p2347
asbag60
(g81
g62
NtRp2348
(dp2349
g65
(dp2350
g92
g93
ssg74
g2339
sg67
(lp2351
S':'
asbag60
(g81
g62
NtRp2352
(dp2353
g65
(dp2354
sg74
g2339
sg67
(lp2355
g60
(g61
g62
NtRp2356
(dp2357
g65
(dp2358
g73
I3
ssg74
g2352
sg67
(lp2359
g1341
asbasbasbag60
(g76
g62
NtRp2360
(dp2361
g65
(dp2362
sg74
g2272
sg67
(lp2363
g60
(g81
g62
NtRp2364
(dp2365
g65
(dp2366
g85
g86
ssg74
g2360
sg67
(lp2367
S'HTTP_CONNECTION'
p2368
asbag60
(g81
g62
NtRp2369
(dp2370
g65
(dp2371
g92
g93
ssg74
g2360
sg67
(lp2372
S':'
asbag60
(g81
g62
NtRp2373
(dp2374
g65
(dp2375
sg74
g2360
sg67
(lp2376
g60
(g61
g62
NtRp2377
(dp2378
g65
(dp2379
g73
I3
ssg74
g2373
sg67
(lp2380
g1363
asbasbasbag60
(g76
g62
NtRp2381
(dp2382
g65
(dp2383
sg74
g2272
sg67
(lp2384
g60
(g81
g62
NtRp2385
(dp2386
g65
(dp2387
g85
g86
ssg74
g2381
sg67
(lp2388
S'HTTP_COOKIE'
p2389
asbag60
(g81
g62
NtRp2390
(dp2391
g65
(dp2392
g92
g93
ssg74
g2381
sg67
(lp2393
S':'
asbag60
(g81
g62
NtRp2394
(dp2395
g65
(dp2396
sg74
g2381
sg67
(lp2397
g60
(g61
g62
NtRp2398
(dp2399
g65
(dp2400
g73
I3
ssg74
g2394
sg67
(lp2401
g1385
asbasbasbag60
(g76
g62
NtRp2402
(dp2403
g65
(dp2404
sg74
g2272
sg67
(lp2405
g60
(g81
g62
NtRp2406
(dp2407
g65
(dp2408
g85
g86
ssg74
g2402
sg67
(lp2409
S'HTTP_HOST'
p2410
asbag60
(g81
g62
NtRp2411
(dp2412
g65
(dp2413
g92
g93
ssg74
g2402
sg67
(lp2414
S':'
asbag60
(g81
g62
NtRp2415
(dp2416
g65
(dp2417
sg74
g2402
sg67
(lp2418
g60
(g61
g62
NtRp2419
(dp2420
g65
(dp2421
g73
I3
ssg74
g2415
sg67
(lp2422
g1407
asbasbasbag60
(g76
g62
NtRp2423
(dp2424
g65
(dp2425
sg74
g2272
sg67
(lp2426
g60
(g81
g62
NtRp2427
(dp2428
g65
(dp2429
g85
g86
ssg74
g2423
sg67
(lp2430
S'HTTP_REFERER'
p2431
asbag60
(g81
g62
NtRp2432
(dp2433
g65
(dp2434
g92
g93
ssg74
g2423
sg67
(lp2435
S':'
asbag60
(g81
g62
NtRp2436
(dp2437
g65
(dp2438
sg74
g2423
sg67
(lp2439
g60
(g61
g62
NtRp2440
(dp2441
g65
(dp2442
g73
I3
ssg74
g2436
sg67
(lp2443
g1429
asbasbasbag60
(g76
g62
NtRp2444
(dp2445
g65
(dp2446
sg74
g2272
sg67
(lp2447
g60
(g81
g62
NtRp2448
(dp2449
g65
(dp2450
g85
g86
ssg74
g2444
sg67
(lp2451
S'HTTP_USER_AGENT'
p2452
asbag60
(g81
g62
NtRp2453
(dp2454
g65
(dp2455
g92
g93
ssg74
g2444
sg67
(lp2456
S':'
asbag60
(g81
g62
NtRp2457
(dp2458
g65
(dp2459
sg74
g2444
sg67
(lp2460
g60
(g61
g62
NtRp2461
(dp2462
g65
(dp2463
g73
I3
ssg74
g2457
sg67
(lp2464
g1451
asbasbasbag60
(g76
g62
NtRp2465
(dp2466
g65
(dp2467
sg74
g2272
sg67
(lp2468
g60
(g81
g62
NtRp2469
(dp2470
g65
(dp2471
g85
g86
ssg74
g2465
sg67
(lp2472
S'PATH_INFO'
p2473
asbag60
(g81
g62
NtRp2474
(dp2475
g65
(dp2476
g92
g93
ssg74
g2465
sg67
(lp2477
S':'
asbag60
(g81
g62
NtRp2478
(dp2479
g65
(dp2480
sg74
g2465
sg67
(lp2481
g60
(g61
g62
NtRp2482
(dp2483
g65
(dp2484
g73
I3
ssg74
g2478
sg67
(lp2485
g1494
asbasbasbag60
(g76
g62
NtRp2486
(dp2487
g65
(dp2488
sg74
g2272
sg67
(lp2489
g60
(g81
g62
NtRp2490
(dp2491
g65
(dp2492
g85
g86
ssg74
g2486
sg67
(lp2493
S'QUERY_STRING'
p2494
asbag60
(g81
g62
NtRp2495
(dp2496
g65
(dp2497
g92
g93
ssg74
g2486
sg67
(lp2498
S':'
asbag60
(g81
g62
NtRp2499
(dp2500
g65
(dp2501
sg74
g2486
sg67
(lp2502
g60
(g61
g62
NtRp2503
(dp2504
g65
(dp2505
g73
I3
ssg74
g2499
sg67
(lp2506
S''
asbasbasbag60
(g76
g62
NtRp2507
(dp2508
g65
(dp2509
sg74
g2272
sg67
(lp2510
g60
(g81
g62
NtRp2511
(dp2512
g65
(dp2513
g85
g86
ssg74
g2507
sg67
(lp2514
S'REMOTE_ADDR'
p2515
asbag60
(g81
g62
NtRp2516
(dp2517
g65
(dp2518
g92
g93
ssg74
g2507
sg67
(lp2519
S':'
asbag60
(g81
g62
NtRp2520
(dp2521
g65
(dp2522
sg74
g2507
sg67
(lp2523
g60
(g61
g62
NtRp2524
(dp2525
g65
(dp2526
g73
I3
ssg74
g2520
sg67
(lp2527
g193
asbasbasbag60
(g76
g62
NtRp2528
(dp2529
g65
(dp2530
sg74
g2272
sg67
(lp2531
g60
(g81
g62
NtRp2532
(dp2533
g65
(dp2534
g85
g86
ssg74
g2528
sg67
(lp2535
S'REMOTE_PORT'
p2536
asbag60
(g81
g62
NtRp2537
(dp2538
g65
(dp2539
g92
g93
ssg74
g2528
sg67
(lp2540
S':'
asbag60
(g81
g62
NtRp2541
(dp2542
g65
(dp2543
sg74
g2528
sg67
(lp2544
g60
(g61
g62
NtRp2545
(dp2546
g65
(dp2547
g73
I3
ssg74
g2541
sg67
(lp2548
g1558
asbasbasbag60
(g76
g62
NtRp2549
(dp2550
g65
(dp2551
sg74
g2272
sg67
(lp2552
g60
(g81
g62
NtRp2553
(dp2554
g65
(dp2555
g85
g86
ssg74
g2549
sg67
(lp2556
S'REQUEST_METHOD'
p2557
asbag60
(g81
g62
NtRp2558
(dp2559
g65
(dp2560
g92
g93
ssg74
g2549
sg67
(lp2561
S':'
asbag60
(g81
g62
NtRp2562
(dp2563
g65
(dp2564
sg74
g2549
sg67
(lp2565
g60
(g61
g62
NtRp2566
(dp2567
g65
(dp2568
g73
I3
ssg74
g2562
sg67
(lp2569
g1580
asbasbasbag60
(g76
g62
NtRp2570
(dp2571
g65
(dp2572
sg74
g2272
sg67
(lp2573
g60
(g81
g62
NtRp2574
(dp2575
g65
(dp2576
g85
g86
ssg74
g2570
sg67
(lp2577
S'SCRIPT_NAME'
p2578
asbag60
(g81
g62
NtRp2579
(dp2580
g65
(dp2581
g92
g93
ssg74
g2570
sg67
(lp2582
S':'
asbag60
(g81
g62
NtRp2583
(dp2584
g65
(dp2585
sg74
g2570
sg67
(lp2586
g60
(g61
g62
NtRp2587
(dp2588
g65
(dp2589
g73
I3
ssg74
g2583
sg67
(lp2590
S''
asbasbasbag60
(g76
g62
NtRp2591
(dp2592
g65
(dp2593
sg74
g2272
sg67
(lp2594
g60
(g81
g62
NtRp2595
(dp2596
g65
(dp2597
g85
g86
ssg74
g2591
sg67
(lp2598
S'SERVER_NAME'
p2599
asbag60
(g81
g62
NtRp2600
(dp2601
g65
(dp2602
g92
g93
ssg74
g2591
sg67
(lp2603
S':'
asbag60
(g81
g62
NtRp2604
(dp2605
g65
(dp2606
sg74
g2591
sg67
(lp2607
g60
(g61
g62
NtRp2608
(dp2609
g65
(dp2610
g73
I3
ssg74
g2604
sg67
(lp2611
g1623
asbasbasbag60
(g76
g62
NtRp2612
(dp2613
g65
(dp2614
sg74
g2272
sg67
(lp2615
g60
(g81
g62
NtRp2616
(dp2617
g65
(dp2618
g85
g86
ssg74
g2612
sg67
(lp2619
S'SERVER_PORT'
p2620
asbag60
(g81
g62
NtRp2621
(dp2622
g65
(dp2623
g92
g93
ssg74
g2612
sg67
(lp2624
S':'
asbag60
(g81
g62
NtRp2625
(dp2626
g65
(dp2627
sg74
g2612
sg67
(lp2628
g60
(g61
g62
NtRp2629
(dp2630
g65
(dp2631
g73
I3
ssg74
g2625
sg67
(lp2632
g1645
asbasbasbag60
(g76
g62
NtRp2633
(dp2634
g65
(dp2635
sg74
g2272
sg67
(lp2636
g60
(g81
g62
NtRp2637
(dp2638
g65
(dp2639
g85
g86
ssg74
g2633
sg67
(lp2640
S'SERVER_PROTOCOL'
p2641
asbag60
(g81
g62
NtRp2642
(dp2643
g65
(dp2644
g92
g93
ssg74
g2633
sg67
(lp2645
S':'
asbag60
(g81
g62
NtRp2646
(dp2647
g65
(dp2648
sg74
g2633
sg67
(lp2649
g60
(g61
g62
NtRp2650
(dp2651
g65
(dp2652
g73
I3
ssg74
g2646
sg67
(lp2653
g1667
asbasbasbag60
(g76
g62
NtRp2654
(dp2655
g65
(dp2656
sg74
g2272
sg67
(lp2657
g60
(g81
g62
NtRp2658
(dp2659
g65
(dp2660
g85
g86
ssg74
g2654
sg67
(lp2661
S'SERVER_SOFTWARE'
p2662
asbag60
(g81
g62
NtRp2663
(dp2664
g65
(dp2665
g92
g93
ssg74
g2654
sg67
(lp2666
S':'
asbag60
(g81
g62
NtRp2667
(dp2668
g65
(dp2669
sg74
g2654
sg67
(lp2670
g60
(g61
g62
NtRp2671
(dp2672
g65
(dp2673
g73
I3
ssg74
g2667
sg67
(lp2674
g1689
asbasbasbag60
(g76
g62
NtRp2675
(dp2676
g65
(dp2677
sg74
g2272
sg67
(lp2678
g60
(g81
g62
NtRp2679
(dp2680
g65
(dp2681
g85
g86
ssg74
g2675
sg67
(lp2682
S'wsgi.errors'
p2683
asbag60
(g81
g62
NtRp2684
(dp2685
g65
(dp2686
g92
g93
ssg74
g2675
sg67
(lp2687
S':'
asbag60
(g81
g62
NtRp2688
(dp2689
g65
(dp2690
sg74
g2675
sg67
(lp2691
g60
(g61
g62
NtRp2692
(dp2693
g65
(dp2694
g73
I3
ssg74
g2688
sg67
(lp2695
S"<open file '<stderr>', mode 'w' at 0x004800B0>"
p2696
asbasbasbag60
(g76
g62
NtRp2697
(dp2698
g65
(dp2699
sg74
g2272
sg67
(lp2700
g60
(g81
g62
NtRp2701
(dp2702
g65
(dp2703
g85
g86
ssg74
g2697
sg67
(lp2704
S'wsgi.file_wrapper'
p2705
asbag60
(g81
g62
NtRp2706
(dp2707
g65
(dp2708
g92
g93
ssg74
g2697
sg67
(lp2709
S':'
asbag60
(g81
g62
NtRp2710
(dp2711
g65
(dp2712
sg74
g2697
sg67
(lp2713
g60
(g61
g62
NtRp2714
(dp2715
g65
(dp2716
g73
I3
ssg74
g2710
sg67
(lp2717
S'<class gluon.rocket.FileWrapper at 0x02FDC1B0>'
p2718
asbasbasbag60
(g76
g62
NtRp2719
(dp2720
g65
(dp2721
sg74
g2272
sg67
(lp2722
g60
(g81
g62
NtRp2723
(dp2724
g65
(dp2725
g85
g86
ssg74
g2719
sg67
(lp2726
S'wsgi.input'
p2727
asbag60
(g81
g62
NtRp2728
(dp2729
g65
(dp2730
g92
g93
ssg74
g2719
sg67
(lp2731
S':'
asbag60
(g81
g62
NtRp2732
(dp2733
g65
(dp2734
sg74
g2719
sg67
(lp2735
g60
(g61
g62
NtRp2736
(dp2737
g65
(dp2738
g73
I3
ssg74
g2732
sg67
(lp2739
S'<cStringIO.StringO object at 0x076AFE60>'
p2740
asbasbasbag60
(g76
g62
NtRp2741
(dp2742
g65
(dp2743
sg74
g2272
sg67
(lp2744
g60
(g81
g62
NtRp2745
(dp2746
g65
(dp2747
g85
g86
ssg74
g2741
sg67
(lp2748
S'wsgi.multiprocess'
p2749
asbag60
(g81
g62
NtRp2750
(dp2751
g65
(dp2752
g92
g93
ssg74
g2741
sg67
(lp2753
S':'
asbag60
(g81
g62
NtRp2754
(dp2755
g65
(dp2756
sg74
g2741
sg67
(lp2757
g60
(g61
g62
NtRp2758
(dp2759
g65
(dp2760
g73
I3
ssg74
g2754
sg67
(lp2761
g103
asbasbasbag60
(g76
g62
NtRp2762
(dp2763
g65
(dp2764
sg74
g2272
sg67
(lp2765
g60
(g81
g62
NtRp2766
(dp2767
g65
(dp2768
g85
g86
ssg74
g2762
sg67
(lp2769
S'wsgi.multithread'
p2770
asbag60
(g81
g62
NtRp2771
(dp2772
g65
(dp2773
g92
g93
ssg74
g2762
sg67
(lp2774
S':'
asbag60
(g81
g62
NtRp2775
(dp2776
g65
(dp2777
sg74
g2762
sg67
(lp2778
g60
(g61
g62
NtRp2779
(dp2780
g65
(dp2781
g73
I3
ssg74
g2775
sg67
(lp2782
g1863
asbasbasbag60
(g76
g62
NtRp2783
(dp2784
g65
(dp2785
sg74
g2272
sg67
(lp2786
g60
(g81
g62
NtRp2787
(dp2788
g65
(dp2789
g85
g86
ssg74
g2783
sg67
(lp2790
S'wsgi.run_once'
p2791
asbag60
(g81
g62
NtRp2792
(dp2793
g65
(dp2794
g92
g93
ssg74
g2783
sg67
(lp2795
S':'
asbag60
(g81
g62
NtRp2796
(dp2797
g65
(dp2798
sg74
g2783
sg67
(lp2799
g60
(g61
g62
NtRp2800
(dp2801
g65
(dp2802
g73
I3
ssg74
g2796
sg67
(lp2803
g103
asbasbasbag60
(g76
g62
NtRp2804
(dp2805
g65
(dp2806
sg74
g2272
sg67
(lp2807
g60
(g81
g62
NtRp2808
(dp2809
g65
(dp2810
g85
g86
ssg74
g2804
sg67
(lp2811
S'wsgi.url_scheme'
p2812
asbag60
(g81
g62
NtRp2813
(dp2814
g65
(dp2815
g92
g93
ssg74
g2804
sg67
(lp2816
S':'
asbag60
(g81
g62
NtRp2817
(dp2818
g65
(dp2819
sg74
g2804
sg67
(lp2820
g60
(g61
g62
NtRp2821
(dp2822
g65
(dp2823
g73
I3
ssg74
g2817
sg67
(lp2824
g1906
asbasbasbag60
(g76
g62
NtRp2825
(dp2826
g65
(dp2827
sg74
g2272
sg67
(lp2828
g60
(g81
g62
NtRp2829
(dp2830
g65
(dp2831
g85
g86
ssg74
g2825
sg67
(lp2832
S'wsgi.version'
p2833
asbag60
(g81
g62
NtRp2834
(dp2835
g65
(dp2836
g92
g93
ssg74
g2825
sg67
(lp2837
S':'
asbag60
(g81
g62
NtRp2838
(dp2839
g65
(dp2840
sg74
g2825
sg67
(lp2841
g60
(g61
g62
NtRp2842
(dp2843
g65
(dp2844
g73
I3
ssg74
g2838
sg67
(lp2845
S'1'
asbasbasbasbasbasbasbasbasbasbasbasbasbsS'frames'
p2846
(lp2847
(dp2848
S'file'
p2849
S'C:\\Users\\Atomico\\web2py\\gluon\\restricted.py'
p2850
sS'dump'
p2851
(dp2852
sS'lnum'
p2853
I191
sS'lines'
p2854
(dp2855
sS'call'
p2856
S"(code='def entrada():\\n    form=SQLFORM(db.info)\\n    if ...m\\n\\nresponse._vars=response._caller(entrada_mod1)\\n', environment={'A': <class 'gluon.html.A'>, 'B': <class 'gluon.html.B'>, 'BEAUTIFY': <class 'gluon.html.BEAUTIFY'>, 'BODY': <class 'gluon.html.BODY'>, 'BR': <class 'gluon.html.BR'>, 'BUTTON': <class 'gluon.html.BUTTON'>, 'CAT': <class 'gluon.html.CAT'>, 'CENTER': <class 'gluon.html.CENTER'>, 'CLEANUP': <class 'gluon.validators.CLEANUP'>, 'CODE': <class 'gluon.html.CODE'>, ...}, layer=r'C:\\Users\\Atomico\\web2py\\applications\\Desglosar_Emails\\controllers/default.py')"
p2857
sS'func'
p2858
S'restricted'
p2859
sa(dp2860
g2849
S'C:\\Users\\Atomico\\web2py\\gluon\\restricted.py'
p2861
sg2851
(dp2862
sg2853
I178
sg2854
(dp2863
sg2856
S"(code='def entrada():\\n    form=SQLFORM(db.info)\\n    if ...m\\n\\nresponse._vars=response._caller(entrada_mod1)\\n', layer=r'C:\\Users\\Atomico\\web2py\\applications\\Desglosar_Emails\\controllers/default.py')"
p2864
sg2858
S'compile2'
p2865
sasS'pyver'
p2866
S'Python 2.5.4: C:\\Users\\Atomico\\web2py\\web2py.exe'
p2867
sS'session'
p2868
g60
(g61
g62
NtRp2869
(dp2870
g65
(dp2871
sg67
(lp2872
g60
(g69
g62
NtRp2873
(dp2874
g65
(dp2875
g73
I5
ssg74
Nsg67
(lp2876
g60
(g76
g62
NtRp2877
(dp2878
g65
(dp2879
sg74
g2873
sg67
(lp2880
g60
(g81
g62
NtRp2881
(dp2882
g65
(dp2883
g85
g86
ssg74
g2877
sg67
(lp2884
S'last_query'
p2885
asbag60
(g81
g62
NtRp2886
(dp2887
g65
(dp2888
g92
g93
ssg74
g2877
sg67
(lp2889
S':'
asbag60
(g81
g62
NtRp2890
(dp2891
g65
(dp2892
sg74
g2877
sg67
(lp2893
g60
(g61
g62
NtRp2894
(dp2895
g65
(dp2896
g73
I5
ssg74
g2890
sg67
(lp2897
S'db.info2.id>0'
p2898
asbasbasbasbasbsS'etype'
p2899
S"<type 'exceptions.IndentationError'>"
p2900
sS'date'
p2901
S'Sun Sep 18 22:01:59 2011'
p2902
sS'response'
p2903
g60
(g61
g62
NtRp2904
(dp2905
g65
(dp2906
sg67
(lp2907
g60
(g69
g62
NtRp2908
(dp2909
g65
(dp2910
g73
I5
ssg74
Nsg67
(lp2911
g60
(g76
g62
NtRp2912
(dp2913
g65
(dp2914
sg74
g2908
sg67
(lp2915
g60
(g81
g62
NtRp2916
(dp2917
g65
(dp2918
g85
g86
ssg74
g2912
sg67
(lp2919
g158
asbag60
(g81
g62
NtRp2920
(dp2921
g65
(dp2922
g92
g93
ssg74
g2912
sg67
(lp2923
S':'
asbag60
(g81
g62
NtRp2924
(dp2925
g65
(dp2926
sg74
g2912
sg67
(lp2927
g60
(g61
g62
NtRp2928
(dp2929
g65
(dp2930
g73
I5
ssg74
g2924
sg67
(lp2931
S'<cStringIO.StringO object at 0x07599CE0>'
p2932
asbasbasbag60
(g76
g62
NtRp2933
(dp2934
g65
(dp2935
sg74
g2908
sg67
(lp2936
g60
(g81
g62
NtRp2937
(dp2938
g65
(dp2939
g85
g86
ssg74
g2933
sg67
(lp2940
g224
asbag60
(g81
g62
NtRp2941
(dp2942
g65
(dp2943
g92
g93
ssg74
g2933
sg67
(lp2944
S':'
asbag60
(g81
g62
NtRp2945
(dp2946
g65
(dp2947
sg74
g2933
sg67
(lp2948
g60
(g61
g62
NtRp2949
(dp2950
g65
(dp2951
g73
I5
ssg74
g2945
sg67
(lp2952
g60
(g69
g62
NtRp2953
(dp2954
g65
(dp2955
g73
I4
ssg74
Nsg67
(lp2956
g60
(g76
g62
NtRp2957
(dp2958
g65
(dp2959
sg74
g2953
sg67
(lp2960
g60
(g81
g62
NtRp2961
(dp2962
g65
(dp2963
g85
g86
ssg74
g2957
sg67
(lp2964
S'session_id_desglosar_emails'
p2965
asbag60
(g81
g62
NtRp2966
(dp2967
g65
(dp2968
g92
g93
ssg74
g2957
sg67
(lp2969
S':'
asbag60
(g81
g62
NtRp2970
(dp2971
g65
(dp2972
sg74
g2957
sg67
(lp2973
g60
(g61
g62
NtRp2974
(dp2975
g65
(dp2976
g73
I4
ssg74
g2970
sg67
(lp2977
g60
(g69
g62
NtRp2978
(dp2979
g65
(dp2980
g73
I3
ssg74
Nsg67
(lp2981
g60
(g76
g62
NtRp2982
(dp2983
g65
(dp2984
sg74
g2978
sg67
(lp2985
g60
(g81
g62
NtRp2986
(dp2987
g65
(dp2988
g85
g86
ssg74
g2982
sg67
(lp2989
g274
asbag60
(g81
g62
NtRp2990
(dp2991
g65
(dp2992
g92
g93
ssg74
g2982
sg67
(lp2993
S':'
asbag60
(g81
g62
NtRp2994
(dp2995
g65
(dp2996
sg74
g2982
sg67
(lp2997
g60
(g61
g62
NtRp2998
(dp2999
g65
(dp3000
g73
I3
ssg74
g2994
sg67
(lp3001
S''
asbasbasbag60
(g76
g62
NtRp3002
(dp3003
g65
(dp3004
sg74
g2978
sg67
(lp3005
g60
(g81
g62
NtRp3006
(dp3007
g65
(dp3008
g85
g86
ssg74
g3002
sg67
(lp3009
g295
asbag60
(g81
g62
NtRp3010
(dp3011
g65
(dp3012
g92
g93
ssg74
g3002
sg67
(lp3013
S':'
asbag60
(g81
g62
NtRp3014
(dp3015
g65
(dp3016
sg74
g3002
sg67
(lp3017
g60
(g61
g62
NtRp3018
(dp3019
g65
(dp3020
g73
I3
ssg74
g3014
sg67
(lp3021
S''
asbasbasbag60
(g76
g62
NtRp3022
(dp3023
g65
(dp3024
sg74
g2978
sg67
(lp3025
g60
(g81
g62
NtRp3026
(dp3027
g65
(dp3028
g85
g86
ssg74
g3022
sg67
(lp3029
g316
asbag60
(g81
g62
NtRp3030
(dp3031
g65
(dp3032
g92
g93
ssg74
g3022
sg67
(lp3033
S':'
asbag60
(g81
g62
NtRp3034
(dp3035
g65
(dp3036
sg74
g3022
sg67
(lp3037
g60
(g61
g62
NtRp3038
(dp3039
g65
(dp3040
g73
I3
ssg74
g3034
sg67
(lp3041
S''
asbasbasbag60
(g76
g62
NtRp3042
(dp3043
g65
(dp3044
sg74
g2978
sg67
(lp3045
g60
(g81
g62
NtRp3046
(dp3047
g65
(dp3048
g85
g86
ssg74
g3042
sg67
(lp3049
g337
asbag60
(g81
g62
NtRp3050
(dp3051
g65
(dp3052
g92
g93
ssg74
g3042
sg67
(lp3053
S':'
asbag60
(g81
g62
NtRp3054
(dp3055
g65
(dp3056
sg74
g3042
sg67
(lp3057
g60
(g61
g62
NtRp3058
(dp3059
g65
(dp3060
g73
I3
ssg74
g3054
sg67
(lp3061
S''
asbasbasbag60
(g76
g62
NtRp3062
(dp3063
g65
(dp3064
sg74
g2978
sg67
(lp3065
g60
(g81
g62
NtRp3066
(dp3067
g65
(dp3068
g85
g86
ssg74
g3062
sg67
(lp3069
g358
asbag60
(g81
g62
NtRp3070
(dp3071
g65
(dp3072
g92
g93
ssg74
g3062
sg67
(lp3073
S':'
asbag60
(g81
g62
NtRp3074
(dp3075
g65
(dp3076
sg74
g3062
sg67
(lp3077
g60
(g61
g62
NtRp3078
(dp3079
g65
(dp3080
g73
I3
ssg74
g3074
sg67
(lp3081
S'/'
asbasbasbag60
(g76
g62
NtRp3082
(dp3083
g65
(dp3084
sg74
g2978
sg67
(lp3085
g60
(g81
g62
NtRp3086
(dp3087
g65
(dp3088
g85
g86
ssg74
g3082
sg67
(lp3089
g379
asbag60
(g81
g62
NtRp3090
(dp3091
g65
(dp3092
g92
g93
ssg74
g3082
sg67
(lp3093
S':'
asbag60
(g81
g62
NtRp3094
(dp3095
g65
(dp3096
sg74
g3082
sg67
(lp3097
g60
(g61
g62
NtRp3098
(dp3099
g65
(dp3100
g73
I3
ssg74
g3094
sg67
(lp3101
S''
asbasbasbag60
(g76
g62
NtRp3102
(dp3103
g65
(dp3104
sg74
g2978
sg67
(lp3105
g60
(g81
g62
NtRp3106
(dp3107
g65
(dp3108
g85
g86
ssg74
g3102
sg67
(lp3109
g400
asbag60
(g81
g62
NtRp3110
(dp3111
g65
(dp3112
g92
g93
ssg74
g3102
sg67
(lp3113
S':'
asbag60
(g81
g62
NtRp3114
(dp3115
g65
(dp3116
sg74
g3102
sg67
(lp3117
g60
(g61
g62
NtRp3118
(dp3119
g65
(dp3120
g73
I3
ssg74
g3114
sg67
(lp3121
S''
asbasbasbasbasbasbasbasbasbasbasbag60
(g76
g62
NtRp3122
(dp3123
g65
(dp3124
sg74
g2908
sg67
(lp3125
g60
(g81
g62
NtRp3126
(dp3127
g65
(dp3128
g85
g86
ssg74
g3122
sg67
(lp3129
S'files'
p3130
asbag60
(g81
g62
NtRp3131
(dp3132
g65
(dp3133
g92
g93
ssg74
g3122
sg67
(lp3134
S':'
asbag60
(g81
g62
NtRp3135
(dp3136
g65
(dp3137
sg74
g3122
sg67
(lp3138
g60
(g61
g62
NtRp3139
(dp3140
g65
(dp3141
g73
I5
ssg74
g3135
sg67
(lp3142
g60
(g69
g62
NtRp3143
(dp3144
g65
(dp3145
g73
I4
ssg74
Nsg67
(lp3146
sbasbasbasbag60
(g76
g62
NtRp3147
(dp3148
g65
(dp3149
sg74
g2908
sg67
(lp3150
g60
(g81
g62
NtRp3151
(dp3152
g65
(dp3153
g85
g86
ssg74
g3147
sg67
(lp3154
S'flash'
p3155
asbag60
(g81
g62
NtRp3156
(dp3157
g65
(dp3158
g92
g93
ssg74
g3147
sg67
(lp3159
S':'
asbag60
(g81
g62
NtRp3160
(dp3161
g65
(dp3162
sg74
g3147
sg67
(lp3163
g60
(g61
g62
NtRp3164
(dp3165
g65
(dp3166
g73
I5
ssg74
g3160
sg67
(lp3167
S''
asbasbasbag60
(g76
g62
NtRp3168
(dp3169
g65
(dp3170
sg74
g2908
sg67
(lp3171
g60
(g81
g62
NtRp3172
(dp3173
g65
(dp3174
g85
g86
ssg74
g3168
sg67
(lp3175
S'generic_patterns'
p3176
asbag60
(g81
g62
NtRp3177
(dp3178
g65
(dp3179
g92
g93
ssg74
g3168
sg67
(lp3180
S':'
asbag60
(g81
g62
NtRp3181
(dp3182
g65
(dp3183
sg74
g3168
sg67
(lp3184
g60
(g61
g62
NtRp3185
(dp3186
g65
(dp3187
g73
I5
ssg74
g3181
sg67
(lp3188
g60
(g69
g62
NtRp3189
(dp3190
g65
(dp3191
g73
I4
ssg74
Nsg67
(lp3192
sbasbasbasbag60
(g76
g62
NtRp3193
(dp3194
g65
(dp3195
sg74
g2908
sg67
(lp3196
g60
(g81
g62
NtRp3197
(dp3198
g65
(dp3199
g85
g86
ssg74
g3193
sg67
(lp3200
S'headers'
p3201
asbag60
(g81
g62
NtRp3202
(dp3203
g65
(dp3204
g92
g93
ssg74
g3193
sg67
(lp3205
S':'
asbag60
(g81
g62
NtRp3206
(dp3207
g65
(dp3208
sg74
g3193
sg67
(lp3209
g60
(g61
g62
NtRp3210
(dp3211
g65
(dp3212
g73
I5
ssg74
g3206
sg67
(lp3213
g60
(g69
g62
NtRp3214
(dp3215
g65
(dp3216
g73
I4
ssg74
Nsg67
(lp3217
g60
(g76
g62
NtRp3218
(dp3219
g65
(dp3220
sg74
g3214
sg67
(lp3221
g60
(g81
g62
NtRp3222
(dp3223
g65
(dp3224
g85
g86
ssg74
g3218
sg67
(lp3225
S'Cache-Control'
p3226
asbag60
(g81
g62
NtRp3227
(dp3228
g65
(dp3229
g92
g93
ssg74
g3218
sg67
(lp3230
S':'
asbag60
(g81
g62
NtRp3231
(dp3232
g65
(dp3233
sg74
g3218
sg67
(lp3234
g60
(g61
g62
NtRp3235
(dp3236
g65
(dp3237
g73
I4
ssg74
g3231
sg67
(lp3238
S'no-store, no-cache, must-revalidate, post-check=0, pre-check=0'
p3239
asbasbasbag60
(g76
g62
NtRp3240
(dp3241
g65
(dp3242
sg74
g3214
sg67
(lp3243
g60
(g81
g62
NtRp3244
(dp3245
g65
(dp3246
g85
g86
ssg74
g3240
sg67
(lp3247
S'Content-Type'
p3248
asbag60
(g81
g62
NtRp3249
(dp3250
g65
(dp3251
g92
g93
ssg74
g3240
sg67
(lp3252
S':'
asbag60
(g81
g62
NtRp3253
(dp3254
g65
(dp3255
sg74
g3240
sg67
(lp3256
g60
(g61
g62
NtRp3257
(dp3258
g65
(dp3259
g73
I4
ssg74
g3253
sg67
(lp3260
S'text/html; charset=utf-8'
p3261
asbasbasbag60
(g76
g62
NtRp3262
(dp3263
g65
(dp3264
sg74
g3214
sg67
(lp3265
g60
(g81
g62
NtRp3266
(dp3267
g65
(dp3268
g85
g86
ssg74
g3262
sg67
(lp3269
S'Expires'
p3270
asbag60
(g81
g62
NtRp3271
(dp3272
g65
(dp3273
g92
g93
ssg74
g3262
sg67
(lp3274
S':'
asbag60
(g81
g62
NtRp3275
(dp3276
g65
(dp3277
sg74
g3262
sg67
(lp3278
g60
(g61
g62
NtRp3279
(dp3280
g65
(dp3281
g73
I4
ssg74
g3275
sg67
(lp3282
S'Sun, 18 Sep 2011 20:01:59 GMT'
p3283
asbasbasbag60
(g76
g62
NtRp3284
(dp3285
g65
(dp3286
sg74
g3214
sg67
(lp3287
g60
(g81
g62
NtRp3288
(dp3289
g65
(dp3290
g85
g86
ssg74
g3284
sg67
(lp3291
S'Pragma'
p3292
asbag60
(g81
g62
NtRp3293
(dp3294
g65
(dp3295
g92
g93
ssg74
g3284
sg67
(lp3296
S':'
asbag60
(g81
g62
NtRp3297
(dp3298
g65
(dp3299
sg74
g3284
sg67
(lp3300
g60
(g61
g62
NtRp3301
(dp3302
g65
(dp3303
g73
I4
ssg74
g3297
sg67
(lp3304
S'no-cache'
p3305
asbasbasbag60
(g76
g62
NtRp3306
(dp3307
g65
(dp3308
sg74
g3214
sg67
(lp3309
g60
(g81
g62
NtRp3310
(dp3311
g65
(dp3312
g85
g86
ssg74
g3306
sg67
(lp3313
S'X-Powered-By'
p3314
asbag60
(g81
g62
NtRp3315
(dp3316
g65
(dp3317
g92
g93
ssg74
g3306
sg67
(lp3318
S':'
asbag60
(g81
g62
NtRp3319
(dp3320
g65
(dp3321
sg74
g3306
sg67
(lp3322
g60
(g61
g62
NtRp3323
(dp3324
g65
(dp3325
g73
I4
ssg74
g3319
sg67
(lp3326
S'web2py'
p3327
asbasbasbasbasbasbasbag60
(g76
g62
NtRp3328
(dp3329
g65
(dp3330
sg74
g2908
sg67
(lp3331
g60
(g81
g62
NtRp3332
(dp3333
g65
(dp3334
g85
g86
ssg74
g3328
sg67
(lp3335
S'menu'
p3336
asbag60
(g81
g62
NtRp3337
(dp3338
g65
(dp3339
g92
g93
ssg74
g3328
sg67
(lp3340
S':'
asbag60
(g81
g62
NtRp3341
(dp3342
g65
(dp3343
sg74
g3328
sg67
(lp3344
g60
(g61
g62
NtRp3345
(dp3346
g65
(dp3347
g73
I5
ssg74
g3341
sg67
(lp3348
g60
(g69
g62
NtRp3349
(dp3350
g65
(dp3351
g73
I4
ssg74
Nsg67
(lp3352
g60
(g76
g62
NtRp3353
(dp3354
g65
(dp3355
sg74
g3349
sg67
(lp3356
g60
(g81
g62
NtRp3357
(dp3358
g65
(dp3359
sg74
g3353
sg67
(lp3360
g60
(g61
g62
NtRp3361
(dp3362
g65
(dp3363
g73
I4
ssg74
g3357
sg67
(lp3364
g60
(g69
g62
NtRp3365
(dp3366
g65
(dp3367
g73
I3
ssg74
Nsg67
(lp3368
g60
(g76
g62
NtRp3369
(dp3370
g65
(dp3371
sg74
g3365
sg67
(lp3372
g60
(g81
g62
NtRp3373
(dp3374
g65
(dp3375
sg74
g3369
sg67
(lp3376
g60
(g61
g62
NtRp3377
(dp3378
g65
(dp3379
g73
I3
ssg74
g3373
sg67
(lp3380
cgluon.languages
lazyT_unpickle
p3381
(S't\x04\x00\x00\x00Home'
tRp3382
asbasbasbag60
(g76
g62
NtRp3383
(dp3384
g65
(dp3385
sg74
g3365
sg67
(lp3386
g60
(g81
g62
NtRp3387
(dp3388
g65
(dp3389
sg74
g3383
sg67
(lp3390
g60
(g61
g62
NtRp3391
(dp3392
g65
(dp3393
g73
I3
ssg74
g3387
sg67
(lp3394
g103
asbasbasbag60
(g76
g62
NtRp3395
(dp3396
g65
(dp3397
sg74
g3365
sg67
(lp3398
g60
(g81
g62
NtRp3399
(dp3400
g65
(dp3401
sg74
g3395
sg67
(lp3402
g60
(g61
g62
NtRp3403
(dp3404
g65
(dp3405
g73
I3
ssg74
g3399
sg67
(lp3406
S'/Desglosar_Emails/default/index'
p3407
asbasbasbag60
(g76
g62
NtRp3408
(dp3409
g65
(dp3410
sg74
g3365
sg67
(lp3411
g60
(g81
g62
NtRp3412
(dp3413
g65
(dp3414
sg74
g3408
sg67
(lp3415
g60
(g61
g62
NtRp3416
(dp3417
g65
(dp3418
g73
I3
ssg74
g3412
sg67
(lp3419
g60
(g69
g62
NtRp3420
(dp3421
g65
(dp3422
g73
I2
ssg74
Nsg67
(lp3423
sbasbasbasbasbasbasbasbag60
(g76
g62
NtRp3424
(dp3425
g65
(dp3426
sg74
g3349
sg67
(lp3427
g60
(g81
g62
NtRp3428
(dp3429
g65
(dp3430
sg74
g3424
sg67
(lp3431
g60
(g61
g62
NtRp3432
(dp3433
g65
(dp3434
g73
I4
ssg74
g3428
sg67
(lp3435
g60
(g69
g62
NtRp3436
(dp3437
g65
(dp3438
g73
I3
ssg74
Nsg67
(lp3439
g60
(g76
g62
NtRp3440
(dp3441
g65
(dp3442
sg74
g3436
sg67
(lp3443
g60
(g81
g62
NtRp3444
(dp3445
g65
(dp3446
sg74
g3440
sg67
(lp3447
g60
(g61
g62
NtRp3448
(dp3449
g65
(dp3450
g73
I3
ssg74
g3444
sg67
(lp3451
g3381
(S's\x08\x00\x00\x00This App'
tRp3452
asbasbasbag60
(g76
g62
NtRp3453
(dp3454
g65
(dp3455
sg74
g3436
sg67
(lp3456
g60
(g81
g62
NtRp3457
(dp3458
g65
(dp3459
sg74
g3453
sg67
(lp3460
g60
(g61
g62
NtRp3461
(dp3462
g65
(dp3463
g73
I3
ssg74
g3457
sg67
(lp3464
g103
asbasbasbag60
(g76
g62
NtRp3465
(dp3466
g65
(dp3467
sg74
g3436
sg67
(lp3468
g60
(g81
g62
NtRp3469
(dp3470
g65
(dp3471
sg74
g3465
sg67
(lp3472
g60
(g61
g62
NtRp3473
(dp3474
g65
(dp3475
g73
I3
ssg74
g3469
sg67
(lp3476
S'/admin/default/design/Desglosar_Emails'
p3477
asbasbasbag60
(g76
g62
NtRp3478
(dp3479
g65
(dp3480
sg74
g3436
sg67
(lp3481
g60
(g81
g62
NtRp3482
(dp3483
g65
(dp3484
sg74
g3478
sg67
(lp3485
g60
(g61
g62
NtRp3486
(dp3487
g65
(dp3488
g73
I3
ssg74
g3482
sg67
(lp3489
g60
(g69
g62
NtRp3490
(dp3491
g65
(dp3492
g73
I2
ssg74
Nsg67
(lp3493
g60
(g76
g62
NtRp3494
(dp3495
g65
(dp3496
sg74
g3490
sg67
(lp3497
g60
(g81
g62
NtRp3498
(dp3499
g65
(dp3500
sg74
g3494
sg67
(lp3501
g60
(g61
g62
NtRp3502
(dp3503
g65
(dp3504
g73
I2
ssg74
g3498
sg67
(lp3505
g60
(g69
g62
NtRp3506
(dp3507
g65
(dp3508
g73
I1
ssg74
Nsg67
(lp3509
g60
(g76
g62
NtRp3510
(dp3511
g65
(dp3512
sg74
g3506
sg67
(lp3513
g60
(g81
g62
NtRp3514
(dp3515
g65
(dp3516
sg74
g3510
sg67
(lp3517
g60
(g61
g62
NtRp3518
(dp3519
g65
(dp3520
g73
I1
ssg74
g3514
sg67
(lp3521
g3381
(S't\x0b\x00\x00\x00Controlador'
tRp3522
asbasbasbag60
(g76
g62
NtRp3523
(dp3524
g65
(dp3525
sg74
g3506
sg67
(lp3526
g60
(g81
g62
NtRp3527
(dp3528
g65
(dp3529
sg74
g3523
sg67
(lp3530
g60
(g61
g62
NtRp3531
(dp3532
g65
(dp3533
g73
I1
ssg74
g3527
sg67
(lp3534
I00
asbasbasbag60
(g76
g62
NtRp3535
(dp3536
g65
(dp3537
sg74
g3506
sg67
(lp3538
g60
(g81
g62
NtRp3539
(dp3540
g65
(dp3541
sg74
g3535
sg67
(lp3542
g60
(g61
g62
NtRp3543
(dp3544
g65
(dp3545
g73
I1
ssg74
g3539
sg67
(lp3546
S'/admin/default/edit/Desglosar_Emails/controllers/default.py'
p3547
asbasbasbasbasbasbasbag60
(g76
g62
NtRp3548
(dp3549
g65
(dp3550
sg74
g3490
sg67
(lp3551
g60
(g81
g62
NtRp3552
(dp3553
g65
(dp3554
sg74
g3548
sg67
(lp3555
g60
(g61
g62
NtRp3556
(dp3557
g65
(dp3558
g73
I2
ssg74
g3552
sg67
(lp3559
g60
(g69
g62
NtRp3560
(dp3561
g65
(dp3562
g73
I1
ssg74
Nsg67
(lp3563
g60
(g76
g62
NtRp3564
(dp3565
g65
(dp3566
sg74
g3560
sg67
(lp3567
g60
(g81
g62
NtRp3568
(dp3569
g65
(dp3570
sg74
g3564
sg67
(lp3571
g60
(g61
g62
NtRp3572
(dp3573
g65
(dp3574
g73
I1
ssg74
g3568
sg67
(lp3575
g3381
(S't\x05\x00\x00\x00Vista'
tRp3576
asbasbasbag60
(g76
g62
NtRp3577
(dp3578
g65
(dp3579
sg74
g3560
sg67
(lp3580
g60
(g81
g62
NtRp3581
(dp3582
g65
(dp3583
sg74
g3577
sg67
(lp3584
g60
(g61
g62
NtRp3585
(dp3586
g65
(dp3587
g73
I1
ssg74
g3581
sg67
(lp3588
I00
asbasbasbag60
(g76
g62
NtRp3589
(dp3590
g65
(dp3591
sg74
g3560
sg67
(lp3592
g60
(g81
g62
NtRp3593
(dp3594
g65
(dp3595
sg74
g3589
sg67
(lp3596
g60
(g61
g62
NtRp3597
(dp3598
g65
(dp3599
g73
I1
ssg74
g3593
sg67
(lp3600
S'/admin/default/edit/Desglosar_Emails/views/default/entrada_mod1.html'
p3601
asbasbasbasbasbasbasbag60
(g76
g62
NtRp3602
(dp3603
g65
(dp3604
sg74
g3490
sg67
(lp3605
g60
(g81
g62
NtRp3606
(dp3607
g65
(dp3608
sg74
g3602
sg67
(lp3609
g60
(g61
g62
NtRp3610
(dp3611
g65
(dp3612
g73
I2
ssg74
g3606
sg67
(lp3613
g60
(g69
g62
NtRp3614
(dp3615
g65
(dp3616
g73
I1
ssg74
Nsg67
(lp3617
g60
(g76
g62
NtRp3618
(dp3619
g65
(dp3620
sg74
g3614
sg67
(lp3621
g60
(g81
g62
NtRp3622
(dp3623
g65
(dp3624
sg74
g3618
sg67
(lp3625
g60
(g61
g62
NtRp3626
(dp3627
g65
(dp3628
g73
I1
ssg74
g3622
sg67
(lp3629
g3381
(S's\x12\x00\x00\x00Dise\xc3\xb1o de p\xc3\xa1gina'
tRp3630
asbasbasbag60
(g76
g62
NtRp3631
(dp3632
g65
(dp3633
sg74
g3614
sg67
(lp3634
g60
(g81
g62
NtRp3635
(dp3636
g65
(dp3637
sg74
g3631
sg67
(lp3638
g60
(g61
g62
NtRp3639
(dp3640
g65
(dp3641
g73
I1
ssg74
g3635
sg67
(lp3642
I00
asbasbasbag60
(g76
g62
NtRp3643
(dp3644
g65
(dp3645
sg74
g3614
sg67
(lp3646
g60
(g81
g62
NtRp3647
(dp3648
g65
(dp3649
sg74
g3643
sg67
(lp3650
g60
(g61
g62
NtRp3651
(dp3652
g65
(dp3653
g73
I1
ssg74
g3647
sg67
(lp3654
S'/admin/default/edit/Desglosar_Emails/views/layout.html'
p3655
asbasbasbasbasbasbasbag60
(g76
g62
NtRp3656
(dp3657
g65
(dp3658
sg74
g3490
sg67
(lp3659
g60
(g81
g62
NtRp3660
(dp3661
g65
(dp3662
sg74
g3656
sg67
(lp3663
g60
(g61
g62
NtRp3664
(dp3665
g65
(dp3666
g73
I2
ssg74
g3660
sg67
(lp3667
g60
(g69
g62
NtRp3668
(dp3669
g65
(dp3670
g73
I1
ssg74
Nsg67
(lp3671
g60
(g76
g62
NtRp3672
(dp3673
g65
(dp3674
sg74
g3668
sg67
(lp3675
g60
(g81
g62
NtRp3676
(dp3677
g65
(dp3678
sg74
g3672
sg67
(lp3679
g60
(g61
g62
NtRp3680
(dp3681
g65
(dp3682
g73
I1
ssg74
g3676
sg67
(lp3683
g3381
(S's\x0e\x00\x00\x00Hoja de estilo'
tRp3684
asbasbasbag60
(g76
g62
NtRp3685
(dp3686
g65
(dp3687
sg74
g3668
sg67
(lp3688
g60
(g81
g62
NtRp3689
(dp3690
g65
(dp3691
sg74
g3685
sg67
(lp3692
g60
(g61
g62
NtRp3693
(dp3694
g65
(dp3695
g73
I1
ssg74
g3689
sg67
(lp3696
I00
asbasbasbag60
(g76
g62
NtRp3697
(dp3698
g65
(dp3699
sg74
g3668
sg67
(lp3700
g60
(g81
g62
NtRp3701
(dp3702
g65
(dp3703
sg74
g3697
sg67
(lp3704
g60
(g61
g62
NtRp3705
(dp3706
g65
(dp3707
g73
I1
ssg74
g3701
sg67
(lp3708
S'/admin/default/edit/Desglosar_Emails/static/base.css'
p3709
asbasbasbasbasbasbasbag60
(g76
g62
NtRp3710
(dp3711
g65
(dp3712
sg74
g3490
sg67
(lp3713
g60
(g81
g62
NtRp3714
(dp3715
g65
(dp3716
sg74
g3710
sg67
(lp3717
g60
(g61
g62
NtRp3718
(dp3719
g65
(dp3720
g73
I2
ssg74
g3714
sg67
(lp3721
g60
(g69
g62
NtRp3722
(dp3723
g65
(dp3724
g73
I1
ssg74
Nsg67
(lp3725
g60
(g76
g62
NtRp3726
(dp3727
g65
(dp3728
sg74
g3722
sg67
(lp3729
g60
(g81
g62
NtRp3730
(dp3731
g65
(dp3732
sg74
g3726
sg67
(lp3733
g60
(g61
g62
NtRp3734
(dp3735
g65
(dp3736
g73
I1
ssg74
g3730
sg67
(lp3737
g3381
(S's\x0b\x00\x00\x00Modelo "db"'
tRp3738
asbasbasbag60
(g76
g62
NtRp3739
(dp3740
g65
(dp3741
sg74
g3722
sg67
(lp3742
g60
(g81
g62
NtRp3743
(dp3744
g65
(dp3745
sg74
g3739
sg67
(lp3746
g60
(g61
g62
NtRp3747
(dp3748
g65
(dp3749
g73
I1
ssg74
g3743
sg67
(lp3750
I00
asbasbasbag60
(g76
g62
NtRp3751
(dp3752
g65
(dp3753
sg74
g3722
sg67
(lp3754
g60
(g81
g62
NtRp3755
(dp3756
g65
(dp3757
sg74
g3751
sg67
(lp3758
g60
(g61
g62
NtRp3759
(dp3760
g65
(dp3761
g73
I1
ssg74
g3755
sg67
(lp3762
S'/admin/default/edit/Desglosar_Emails/models/db.py'
p3763
asbasbasbasbasbasbasbag60
(g76
g62
NtRp3764
(dp3765
g65
(dp3766
sg74
g3490
sg67
(lp3767
g60
(g81
g62
NtRp3768
(dp3769
g65
(dp3770
sg74
g3764
sg67
(lp3771
g60
(g61
g62
NtRp3772
(dp3773
g65
(dp3774
g73
I2
ssg74
g3768
sg67
(lp3775
g60
(g69
g62
NtRp3776
(dp3777
g65
(dp3778
g73
I1
ssg74
Nsg67
(lp3779
g60
(g76
g62
NtRp3780
(dp3781
g65
(dp3782
sg74
g3776
sg67
(lp3783
g60
(g81
g62
NtRp3784
(dp3785
g65
(dp3786
sg74
g3780
sg67
(lp3787
g60
(g61
g62
NtRp3788
(dp3789
g65
(dp3790
g73
I1
ssg74
g3784
sg67
(lp3791
g3381
(S's\r\x00\x00\x00Modelo "menu"'
tRp3792
asbasbasbag60
(g76
g62
NtRp3793
(dp3794
g65
(dp3795
sg74
g3776
sg67
(lp3796
g60
(g81
g62
NtRp3797
(dp3798
g65
(dp3799
sg74
g3793
sg67
(lp3800
g60
(g61
g62
NtRp3801
(dp3802
g65
(dp3803
g73
I1
ssg74
g3797
sg67
(lp3804
I00
asbasbasbag60
(g76
g62
NtRp3805
(dp3806
g65
(dp3807
sg74
g3776
sg67
(lp3808
g60
(g81
g62
NtRp3809
(dp3810
g65
(dp3811
sg74
g3805
sg67
(lp3812
g60
(g61
g62
NtRp3813
(dp3814
g65
(dp3815
g73
I1
ssg74
g3809
sg67
(lp3816
S'/admin/default/edit/Desglosar_Emails/models/menu.py'
p3817
asbasbasbasbasbasbasbag60
(g76
g62
NtRp3818
(dp3819
g65
(dp3820
sg74
g3490
sg67
(lp3821
g60
(g81
g62
NtRp3822
(dp3823
g65
(dp3824
sg74
g3818
sg67
(lp3825
g60
(g61
g62
NtRp3826
(dp3827
g65
(dp3828
g73
I2
ssg74
g3822
sg67
(lp3829
g60
(g69
g62
NtRp3830
(dp3831
g65
(dp3832
g73
I1
ssg74
Nsg67
(lp3833
g60
(g76
g62
NtRp3834
(dp3835
g65
(dp3836
sg74
g3830
sg67
(lp3837
g60
(g81
g62
NtRp3838
(dp3839
g65
(dp3840
sg74
g3834
sg67
(lp3841
g60
(g61
g62
NtRp3842
(dp3843
g65
(dp3844
g73
I1
ssg74
g3838
sg67
(lp3845
g3381
(S's\r\x00\x00\x00Base de datos'
tRp3846
asbasbasbag60
(g76
g62
NtRp3847
(dp3848
g65
(dp3849
sg74
g3830
sg67
(lp3850
g60
(g81
g62
NtRp3851
(dp3852
g65
(dp3853
sg74
g3847
sg67
(lp3854
g60
(g61
g62
NtRp3855
(dp3856
g65
(dp3857
g73
I1
ssg74
g3851
sg67
(lp3858
I00
asbasbasbag60
(g76
g62
NtRp3859
(dp3860
g65
(dp3861
sg74
g3830
sg67
(lp3862
g60
(g81
g62
NtRp3863
(dp3864
g65
(dp3865
sg74
g3859
sg67
(lp3866
g60
(g61
g62
NtRp3867
(dp3868
g65
(dp3869
g73
I1
ssg74
g3863
sg67
(lp3870
S'/Desglosar_Emails/appadmin/index'
p3871
asbasbasbasbasbasbasbag60
(g76
g62
NtRp3872
(dp3873
g65
(dp3874
sg74
g3490
sg67
(lp3875
g60
(g81
g62
NtRp3876
(dp3877
g65
(dp3878
sg74
g3872
sg67
(lp3879
g60
(g61
g62
NtRp3880
(dp3881
g65
(dp3882
g73
I2
ssg74
g3876
sg67
(lp3883
g60
(g69
g62
NtRp3884
(dp3885
g65
(dp3886
g73
I1
ssg74
Nsg67
(lp3887
g60
(g76
g62
NtRp3888
(dp3889
g65
(dp3890
sg74
g3884
sg67
(lp3891
g60
(g81
g62
NtRp3892
(dp3893
g65
(dp3894
sg74
g3888
sg67
(lp3895
g60
(g61
g62
NtRp3896
(dp3897
g65
(dp3898
g73
I1
ssg74
g3892
sg67
(lp3899
g3381
(S't\x06\x00\x00\x00Errors'
tRp3900
asbasbasbag60
(g76
g62
NtRp3901
(dp3902
g65
(dp3903
sg74
g3884
sg67
(lp3904
g60
(g81
g62
NtRp3905
(dp3906
g65
(dp3907
sg74
g3901
sg67
(lp3908
g60
(g61
g62
NtRp3909
(dp3910
g65
(dp3911
g73
I1
ssg74
g3905
sg67
(lp3912
I00
asbasbasbag60
(g76
g62
NtRp3913
(dp3914
g65
(dp3915
sg74
g3884
sg67
(lp3916
g60
(g81
g62
NtRp3917
(dp3918
g65
(dp3919
sg74
g3913
sg67
(lp3920
g60
(g61
g62
NtRp3921
(dp3922
g65
(dp3923
g73
I1
ssg74
g3917
sg67
(lp3924
S'/admin/default/errors/Desglosar_Emails'
p3925
asbasbasbasbasbasbasbag60
(g76
g62
NtRp3926
(dp3927
g65
(dp3928
sg74
g3490
sg67
(lp3929
g60
(g81
g62
NtRp3930
(dp3931
g65
(dp3932
sg74
g3926
sg67
(lp3933
g60
(g61
g62
NtRp3934
(dp3935
g65
(dp3936
g73
I2
ssg74
g3930
sg67
(lp3937
g60
(g69
g62
NtRp3938
(dp3939
g65
(dp3940
g73
I1
ssg74
Nsg67
(lp3941
g60
(g76
g62
NtRp3942
(dp3943
g65
(dp3944
sg74
g3938
sg67
(lp3945
g60
(g81
g62
NtRp3946
(dp3947
g65
(dp3948
sg74
g3942
sg67
(lp3949
g60
(g61
g62
NtRp3950
(dp3951
g65
(dp3952
g73
I1
ssg74
g3946
sg67
(lp3953
g3381
(S's\t\x00\x00\x00Acerca de'
tRp3954
asbasbasbag60
(g76
g62
NtRp3955
(dp3956
g65
(dp3957
sg74
g3938
sg67
(lp3958
g60
(g81
g62
NtRp3959
(dp3960
g65
(dp3961
sg74
g3955
sg67
(lp3962
g60
(g61
g62
NtRp3963
(dp3964
g65
(dp3965
g73
I1
ssg74
g3959
sg67
(lp3966
I00
asbasbasbag60
(g76
g62
NtRp3967
(dp3968
g65
(dp3969
sg74
g3938
sg67
(lp3970
g60
(g81
g62
NtRp3971
(dp3972
g65
(dp3973
sg74
g3967
sg67
(lp3974
g60
(g61
g62
NtRp3975
(dp3976
g65
(dp3977
g73
I1
ssg74
g3971
sg67
(lp3978
S'/admin/default/about/Desglosar_Emails'
p3979
asbasbasbasbasbasbasbasbasbasbasbasbasbasbasbag60
(g76
g62
NtRp3980
(dp3981
g65
(dp3982
sg74
g3349
sg67
(lp3983
g60
(g81
g62
NtRp3984
(dp3985
g65
(dp3986
sg74
g3980
sg67
(lp3987
g60
(g61
g62
NtRp3988
(dp3989
g65
(dp3990
g73
I4
ssg74
g3984
sg67
(lp3991
g60
(g69
g62
NtRp3992
(dp3993
g65
(dp3994
g73
I3
ssg74
Nsg67
(lp3995
g60
(g76
g62
NtRp3996
(dp3997
g65
(dp3998
sg74
g3992
sg67
(lp3999
g60
(g81
g62
NtRp4000
(dp4001
g65
(dp4002
sg74
g3996
sg67
(lp4003
g60
(g61
g62
NtRp4004
(dp4005
g65
(dp4006
g73
I3
ssg74
g4000
sg67
(lp4007
g3381
(S't\t\x00\x00\x00Resources'
tRp4008
asbasbasbag60
(g76
g62
NtRp4009
(dp4010
g65
(dp4011
sg74
g3992
sg67
(lp4012
g60
(g81
g62
NtRp4013
(dp4014
g65
(dp4015
sg74
g4009
sg67
(lp4016
g60
(g61
g62
NtRp4017
(dp4018
g65
(dp4019
g73
I3
ssg74
g4013
sg67
(lp4020
g103
asbasbasbag60
(g76
g62
NtRp4021
(dp4022
g65
(dp4023
sg74
g3992
sg67
(lp4024
g60
(g81
g62
NtRp4025
(dp4026
g65
(dp4027
sg74
g4021
sg67
(lp4028
g60
(g61
g62
NtRp4029
(dp4030
g65
(dp4031
g73
I3
ssg74
g4025
sg67
(lp4032
S'None'
p4033
asbasbasbag60
(g76
g62
NtRp4034
(dp4035
g65
(dp4036
sg74
g3992
sg67
(lp4037
g60
(g81
g62
NtRp4038
(dp4039
g65
(dp4040
sg74
g4034
sg67
(lp4041
g60
(g61
g62
NtRp4042
(dp4043
g65
(dp4044
g73
I3
ssg74
g4038
sg67
(lp4045
g60
(g69
g62
NtRp4046
(dp4047
g65
(dp4048
g73
I2
ssg74
Nsg67
(lp4049
g60
(g76
g62
NtRp4050
(dp4051
g65
(dp4052
sg74
g4046
sg67
(lp4053
g60
(g81
g62
NtRp4054
(dp4055
g65
(dp4056
sg74
g4050
sg67
(lp4057
g60
(g61
g62
NtRp4058
(dp4059
g65
(dp4060
g73
I2
ssg74
g4054
sg67
(lp4061
g60
(g69
g62
NtRp4062
(dp4063
g65
(dp4064
g73
I1
ssg74
Nsg67
(lp4065
g60
(g76
g62
NtRp4066
(dp4067
g65
(dp4068
sg74
g4062
sg67
(lp4069
g60
(g81
g62
NtRp4070
(dp4071
g65
(dp4072
sg74
g4066
sg67
(lp4073
g60
(g61
g62
NtRp4074
(dp4075
g65
(dp4076
g73
I1
ssg74
g4070
sg67
(lp4077
g3381
(S's\x0e\x00\x00\x00Documentaci\xc3\xb3n'
tRp4078
asbasbasbag60
(g76
g62
NtRp4079
(dp4080
g65
(dp4081
sg74
g4062
sg67
(lp4082
g60
(g81
g62
NtRp4083
(dp4084
g65
(dp4085
sg74
g4079
sg67
(lp4086
g60
(g61
g62
NtRp4087
(dp4088
g65
(dp4089
g73
I1
ssg74
g4083
sg67
(lp4090
I00
asbasbasbag60
(g76
g62
NtRp4091
(dp4092
g65
(dp4093
sg74
g4062
sg67
(lp4094
g60
(g81
g62
NtRp4095
(dp4096
g65
(dp4097
sg74
g4091
sg67
(lp4098
g60
(g61
g62
NtRp4099
(dp4100
g65
(dp4101
g73
I1
ssg74
g4095
sg67
(lp4102
S'http://www.web2py.com/book'
p4103
asbasbasbag60
(g76
g62
NtRp4104
(dp4105
g65
(dp4106
sg74
g4062
sg67
(lp4107
g60
(g81
g62
NtRp4108
(dp4109
g65
(dp4110
sg74
g4104
sg67
(lp4111
g60
(g61
g62
NtRp4112
(dp4113
g65
(dp4114
g73
I1
ssg74
g4108
sg67
(lp4115
(lp4116
(g3381
(S't\x07\x00\x00\x00Preface'
tRp4117
I00
S'http://www.web2py.com/book/default/chapter/00'
tp4118
a(g3381
(S't\x0c\x00\x00\x00Introduction'
tRp4119
I00
S'http://www.web2py.com/book/default/chapter/01'
tp4120
a(g3381
(S't\x06\x00\x00\x00Python'
tRp4121
I00
S'http://www.web2py.com/book/default/chapter/02'
tp4122
a(g3381
(S't\x08\x00\x00\x00Overview'
tRp4123
I00
S'http://www.web2py.com/book/default/chapter/03'
tp4124
a(g3381
(S's\x08\x00\x00\x00The Core'
tRp4125
I00
S'http://www.web2py.com/book/default/chapter/04'
tp4126
a(g3381
(S's\t\x00\x00\x00The Views'
tRp4127
I00
S'http://www.web2py.com/book/default/chapter/05'
tp4128
a(g3381
(S's\r\x00\x00\x00Base de datos'
tRp4129
I00
S'http://www.web2py.com/book/default/chapter/06'
tp4130
a(g3381
(S's\x14\x00\x00\x00Forms and Validators'
tRp4131
I00
S'http://www.web2py.com/book/default/chapter/07'
tp4132
a(g3381
(S's\x0e\x00\x00\x00Access Control'
tRp4133
I00
S'http://www.web2py.com/book/default/chapter/08'
tp4134
a(g3381
(S't\x08\x00\x00\x00Services'
tRp4135
I00
S'http://www.web2py.com/book/default/chapter/09'
tp4136
a(g3381
(S's\x0c\x00\x00\x00Ajax Recipes'
tRp4137
I00
S'http://www.web2py.com/book/default/chapter/10'
tp4138
a(g3381
(S's\x12\x00\x00\x00Deployment Recipes'
tRp4139
I00
S'http://www.web2py.com/book/default/chapter/11'
tp4140
a(g3381
(S's\r\x00\x00\x00Other Recipes'
tRp4141
I00
S'http://www.web2py.com/book/default/chapter/12'
tp4142
a(g3381
(S's\r\x00\x00\x00Buy this book'
tRp4143
I00
S'http://stores.lulu.com/web2py'
tp4144
aasbasbasbasbasbasbasbag60
(g76
g62
NtRp4145
(dp4146
g65
(dp4147
sg74
g4046
sg67
(lp4148
g60
(g81
g62
NtRp4149
(dp4150
g65
(dp4151
sg74
g4145
sg67
(lp4152
g60
(g61
g62
NtRp4153
(dp4154
g65
(dp4155
g73
I2
ssg74
g4149
sg67
(lp4156
g60
(g69
g62
NtRp4157
(dp4158
g65
(dp4159
g73
I1
ssg74
Nsg67
(lp4160
g60
(g76
g62
NtRp4161
(dp4162
g65
(dp4163
sg74
g4157
sg67
(lp4164
g60
(g81
g62
NtRp4165
(dp4166
g65
(dp4167
sg74
g4161
sg67
(lp4168
g60
(g61
g62
NtRp4169
(dp4170
g65
(dp4171
g73
I1
ssg74
g4165
sg67
(lp4172
g3381
(S't\t\x00\x00\x00Community'
tRp4173
asbasbasbag60
(g76
g62
NtRp4174
(dp4175
g65
(dp4176
sg74
g4157
sg67
(lp4177
g60
(g81
g62
NtRp4178
(dp4179
g65
(dp4180
sg74
g4174
sg67
(lp4181
g60
(g61
g62
NtRp4182
(dp4183
g65
(dp4184
g73
I1
ssg74
g4178
sg67
(lp4185
I00
asbasbasbag60
(g76
g62
NtRp4186
(dp4187
g65
(dp4188
sg74
g4157
sg67
(lp4189
g60
(g81
g62
NtRp4190
(dp4191
g65
(dp4192
sg74
g4186
sg67
(lp4193
g60
(g61
g62
NtRp4194
(dp4195
g65
(dp4196
g73
I1
ssg74
g4190
sg67
(lp4197
Nasbasbasbag60
(g76
g62
NtRp4198
(dp4199
g65
(dp4200
sg74
g4157
sg67
(lp4201
g60
(g81
g62
NtRp4202
(dp4203
g65
(dp4204
sg74
g4198
sg67
(lp4205
g60
(g61
g62
NtRp4206
(dp4207
g65
(dp4208
g73
I1
ssg74
g4202
sg67
(lp4209
(lp4210
(g3381
(S't\x06\x00\x00\x00Groups'
tRp4211
I00
S'http://www.web2py.com/examples/default/usergroups'
tp4212
a(g3381
(S't\x07\x00\x00\x00Twitter'
tRp4213
I00
S'http://twitter.com/web2py'
tp4214
a(g3381
(S's\t\x00\x00\x00Live chat'
tRp4215
I00
S'http://mibbit.com/?channel=%23web2py&server=irc.mibbit.net'
tp4216
a(g3381
(S's\n\x00\x00\x00User Voice'
tRp4217
I00
S'http://web2py.uservoice.com/'
tp4218
aasbasbasbasbasbasbasbag60
(g76
g62
NtRp4219
(dp4220
g65
(dp4221
sg74
g4046
sg67
(lp4222
g60
(g81
g62
NtRp4223
(dp4224
g65
(dp4225
sg74
g4219
sg67
(lp4226
g60
(g61
g62
NtRp4227
(dp4228
g65
(dp4229
g73
I2
ssg74
g4223
sg67
(lp4230
g60
(g69
g62
NtRp4231
(dp4232
g65
(dp4233
g73
I1
ssg74
Nsg67
(lp4234
g60
(g76
g62
NtRp4235
(dp4236
g65
(dp4237
sg74
g4231
sg67
(lp4238
g60
(g81
g62
NtRp4239
(dp4240
g65
(dp4241
sg74
g4235
sg67
(lp4242
g60
(g61
g62
NtRp4243
(dp4244
g65
(dp4245
g73
I1
ssg74
g4239
sg67
(lp4246
g3381
(S't\x06\x00\x00\x00Web2py'
tRp4247
asbasbasbag60
(g76
g62
NtRp4248
(dp4249
g65
(dp4250
sg74
g4231
sg67
(lp4251
g60
(g81
g62
NtRp4252
(dp4253
g65
(dp4254
sg74
g4248
sg67
(lp4255
g60
(g61
g62
NtRp4256
(dp4257
g65
(dp4258
g73
I1
ssg74
g4252
sg67
(lp4259
I00
asbasbasbag60
(g76
g62
NtRp4260
(dp4261
g65
(dp4262
sg74
g4231
sg67
(lp4263
g60
(g81
g62
NtRp4264
(dp4265
g65
(dp4266
sg74
g4260
sg67
(lp4267
g60
(g61
g62
NtRp4268
(dp4269
g65
(dp4270
g73
I1
ssg74
g4264
sg67
(lp4271
S'http://www.web2py.com'
p4272
asbasbasbag60
(g76
g62
NtRp4273
(dp4274
g65
(dp4275
sg74
g4231
sg67
(lp4276
g60
(g81
g62
NtRp4277
(dp4278
g65
(dp4279
sg74
g4273
sg67
(lp4280
g60
(g61
g62
NtRp4281
(dp4282
g65
(dp4283
g73
I1
ssg74
g4277
sg67
(lp4284
(lp4285
(g3381
(S't\x08\x00\x00\x00Download'
tRp4286
I00
S'http://www.web2py.com/examples/default/download'
tp4287
a(g3381
(S't\x07\x00\x00\x00Support'
tRp4288
I00
S'http://www.web2py.com/examples/default/support'
tp4289
a(g3381
(S's\x0e\x00\x00\x00Quick Examples'
tRp4290
I00
S'http://web2py.com/examples/default/examples'
tp4291
a(g3381
(S't\x03\x00\x00\x00FAQ'
tRp4292
I00
S'http://web2py.com/AlterEgo'
tp4293
a(g3381
(S's\x11\x00\x00\x00Free Applications'
tRp4294
I00
S'http://web2py.com/appliances'
tp4295
a(g3381
(S't\x07\x00\x00\x00Plugins'
tRp4296
I00
S'http://web2py.com/plugins'
tp4297
a(g3381
(S't\x07\x00\x00\x00Recipes'
tRp4298
I00
S'http://web2pyslices.com/'
tp4299
a(g3381
(S't\x04\x00\x00\x00Demo'
tRp4300
I00
S'http://web2py.com/demo_admin'
tp4301
a(g3381
(S't\x08\x00\x00\x00Semantic'
tRp4302
I00
S'http://web2py.com/semantic'
tp4303
a(g3381
(S't\x07\x00\x00\x00Layouts'
tRp4304
I00
S'http://web2py.com/layouts'
tp4305
a(g3381
(S't\x06\x00\x00\x00Videos'
tRp4306
I00
S'http://www.web2py.com/examples/default/videos/'
tp4307
aasbasbasbasbasbasbasbasbasbasbasbasbasbasbasbasbasbasbasbag60
(g76
g62
NtRp4308
(dp4309
g65
(dp4310
sg74
g2908
sg67
(lp4311
g60
(g81
g62
NtRp4312
(dp4313
g65
(dp4314
g85
g86
ssg74
g4308
sg67
(lp4315
S'meta'
p4316
asbag60
(g81
g62
NtRp4317
(dp4318
g65
(dp4319
g92
g93
ssg74
g4308
sg67
(lp4320
S':'
asbag60
(g81
g62
NtRp4321
(dp4322
g65
(dp4323
sg74
g4308
sg67
(lp4324
g60
(g61
g62
NtRp4325
(dp4326
g65
(dp4327
g73
I5
ssg74
g4321
sg67
(lp4328
g60
(g69
g62
NtRp4329
(dp4330
g65
(dp4331
g73
I4
ssg74
Nsg67
(lp4332
g60
(g76
g62
NtRp4333
(dp4334
g65
(dp4335
sg74
g4329
sg67
(lp4336
g60
(g81
g62
NtRp4337
(dp4338
g65
(dp4339
g85
g86
ssg74
g4333
sg67
(lp4340
S'author'
p4341
asbag60
(g81
g62
NtRp4342
(dp4343
g65
(dp4344
g92
g93
ssg74
g4333
sg67
(lp4345
S':'
asbag60
(g81
g62
NtRp4346
(dp4347
g65
(dp4348
sg74
g4333
sg67
(lp4349
g60
(g61
g62
NtRp4350
(dp4351
g65
(dp4352
g73
I4
ssg74
g4346
sg67
(lp4353
S'you'
p4354
asbasbasbag60
(g76
g62
NtRp4355
(dp4356
g65
(dp4357
sg74
g4329
sg67
(lp4358
g60
(g81
g62
NtRp4359
(dp4360
g65
(dp4361
g85
g86
ssg74
g4355
sg67
(lp4362
S'copyright'
p4363
asbag60
(g81
g62
NtRp4364
(dp4365
g65
(dp4366
g92
g93
ssg74
g4355
sg67
(lp4367
S':'
asbag60
(g81
g62
NtRp4368
(dp4369
g65
(dp4370
sg74
g4355
sg67
(lp4371
g60
(g61
g62
NtRp4372
(dp4373
g65
(dp4374
g73
I4
ssg74
g4368
sg67
(lp4375
S'Copyright 2007-2010'
p4376
asbasbasbag60
(g76
g62
NtRp4377
(dp4378
g65
(dp4379
sg74
g4329
sg67
(lp4380
g60
(g81
g62
NtRp4381
(dp4382
g65
(dp4383
g85
g86
ssg74
g4377
sg67
(lp4384
S'description'
p4385
asbag60
(g81
g62
NtRp4386
(dp4387
g65
(dp4388
g92
g93
ssg74
g4377
sg67
(lp4389
S':'
asbag60
(g81
g62
NtRp4390
(dp4391
g65
(dp4392
sg74
g4377
sg67
(lp4393
g60
(g61
g62
NtRp4394
(dp4395
g65
(dp4396
g73
I4
ssg74
g4390
sg67
(lp4397
S'Free and open source full-stack enterprise framework for agile development of fast, scalable, secure and portable database-driven web-based applications. Written and programmable in Python'
p4398
asbasbasbag60
(g76
g62
NtRp4399
(dp4400
g65
(dp4401
sg74
g4329
sg67
(lp4402
g60
(g81
g62
NtRp4403
(dp4404
g65
(dp4405
g85
g86
ssg74
g4399
sg67
(lp4406
S'generator'
p4407
asbag60
(g81
g62
NtRp4408
(dp4409
g65
(dp4410
g92
g93
ssg74
g4399
sg67
(lp4411
S':'
asbag60
(g81
g62
NtRp4412
(dp4413
g65
(dp4414
sg74
g4399
sg67
(lp4415
g60
(g61
g62
NtRp4416
(dp4417
g65
(dp4418
g73
I4
ssg74
g4412
sg67
(lp4419
S'Web2py Enterprise Framework'
p4420
asbasbasbag60
(g76
g62
NtRp4421
(dp4422
g65
(dp4423
sg74
g4329
sg67
(lp4424
g60
(g81
g62
NtRp4425
(dp4426
g65
(dp4427
g85
g86
ssg74
g4421
sg67
(lp4428
S'keywords'
p4429
asbag60
(g81
g62
NtRp4430
(dp4431
g65
(dp4432
g92
g93
ssg74
g4421
sg67
(lp4433
S':'
asbag60
(g81
g62
NtRp4434
(dp4435
g65
(dp4436
sg74
g4421
sg67
(lp4437
g60
(g61
g62
NtRp4438
(dp4439
g65
(dp4440
g73
I4
ssg74
g4434
sg67
(lp4441
S'web2py, python, framework'
p4442
asbasbasbasbasbasbasbag60
(g76
g62
NtRp4443
(dp4444
g65
(dp4445
sg74
g2908
sg67
(lp4446
g60
(g81
g62
NtRp4447
(dp4448
g65
(dp4449
g85
g86
ssg74
g4443
sg67
(lp4450
S'postprocessing'
p4451
asbag60
(g81
g62
NtRp4452
(dp4453
g65
(dp4454
g92
g93
ssg74
g4443
sg67
(lp4455
S':'
asbag60
(g81
g62
NtRp4456
(dp4457
g65
(dp4458
sg74
g4443
sg67
(lp4459
g60
(g61
g62
NtRp4460
(dp4461
g65
(dp4462
g73
I5
ssg74
g4456
sg67
(lp4463
g60
(g69
g62
NtRp4464
(dp4465
g65
(dp4466
g73
I4
ssg74
Nsg67
(lp4467
sbasbasbasbag60
(g76
g62
NtRp4468
(dp4469
g65
(dp4470
sg74
g2908
sg67
(lp4471
g60
(g81
g62
NtRp4472
(dp4473
g65
(dp4474
g85
g86
ssg74
g4468
sg67
(lp4475
S'session_file'
p4476
asbag60
(g81
g62
NtRp4477
(dp4478
g65
(dp4479
g92
g93
ssg74
g4468
sg67
(lp4480
S':'
asbag60
(g81
g62
NtRp4481
(dp4482
g65
(dp4483
sg74
g4468
sg67
(lp4484
g60
(g61
g62
NtRp4485
(dp4486
g65
(dp4487
g73
I5
ssg74
g4481
sg67
(lp4488
S"<open file 'C:\\Users\\Atomico\\web2py\\applications\\Desglosar_Emails\\sessions\\127.0.0.1-0a11b3b2-660c-433c-b71f-fc129286f26c', mode 'rb+' at 0x076339F8>"
p4489
asbasbasbag60
(g76
g62
NtRp4490
(dp4491
g65
(dp4492
sg74
g2908
sg67
(lp4493
g60
(g81
g62
NtRp4494
(dp4495
g65
(dp4496
g85
g86
ssg74
g4490
sg67
(lp4497
S'session_filename'
p4498
asbag60
(g81
g62
NtRp4499
(dp4500
g65
(dp4501
g92
g93
ssg74
g4490
sg67
(lp4502
S':'
asbag60
(g81
g62
NtRp4503
(dp4504
g65
(dp4505
sg74
g4490
sg67
(lp4506
g60
(g61
g62
NtRp4507
(dp4508
g65
(dp4509
g73
I5
ssg74
g4503
sg67
(lp4510
S'C:\\Users\\Atomico\\web2py\\applications\\Desglosar_Emails\\sessions\\127.0.0.1-0a11b3b2-660c-433c-b71f-fc129286f26c'
p4511
asbasbasbag60
(g76
g62
NtRp4512
(dp4513
g65
(dp4514
sg74
g2908
sg67
(lp4515
g60
(g81
g62
NtRp4516
(dp4517
g65
(dp4518
g85
g86
ssg74
g4512
sg67
(lp4519
S'session_id'
p4520
asbag60
(g81
g62
NtRp4521
(dp4522
g65
(dp4523
g92
g93
ssg74
g4512
sg67
(lp4524
S':'
asbag60
(g81
g62
NtRp4525
(dp4526
g65
(dp4527
sg74
g4512
sg67
(lp4528
g60
(g61
g62
NtRp4529
(dp4530
g65
(dp4531
g73
I5
ssg74
g4525
sg67
(lp4532
S'127.0.0.1-0a11b3b2-660c-433c-b71f-fc129286f26c'
p4533
asbasbasbag60
(g76
g62
NtRp4534
(dp4535
g65
(dp4536
sg74
g2908
sg67
(lp4537
g60
(g81
g62
NtRp4538
(dp4539
g65
(dp4540
g85
g86
ssg74
g4534
sg67
(lp4541
S'session_id_name'
p4542
asbag60
(g81
g62
NtRp4543
(dp4544
g65
(dp4545
g92
g93
ssg74
g4534
sg67
(lp4546
S':'
asbag60
(g81
g62
NtRp4547
(dp4548
g65
(dp4549
sg74
g4534
sg67
(lp4550
g60
(g61
g62
NtRp4551
(dp4552
g65
(dp4553
g73
I5
ssg74
g4547
sg67
(lp4554
g2965
asbasbasbag60
(g76
g62
NtRp4555
(dp4556
g65
(dp4557
sg74
g2908
sg67
(lp4558
g60
(g81
g62
NtRp4559
(dp4560
g65
(dp4561
g85
g86
ssg74
g4555
sg67
(lp4562
S'session_locked'
p4563
asbag60
(g81
g62
NtRp4564
(dp4565
g65
(dp4566
g92
g93
ssg74
g4555
sg67
(lp4567
S':'
asbag60
(g81
g62
NtRp4568
(dp4569
g65
(dp4570
sg74
g4555
sg67
(lp4571
g60
(g61
g62
NtRp4572
(dp4573
g65
(dp4574
g73
I5
ssg74
g4568
sg67
(lp4575
g1863
asbasbasbag60
(g76
g62
NtRp4576
(dp4577
g65
(dp4578
sg74
g2908
sg67
(lp4579
g60
(g81
g62
NtRp4580
(dp4581
g65
(dp4582
g85
g86
ssg74
g4576
sg67
(lp4583
S'session_new'
p4584
asbag60
(g81
g62
NtRp4585
(dp4586
g65
(dp4587
g92
g93
ssg74
g4576
sg67
(lp4588
S':'
asbag60
(g81
g62
NtRp4589
(dp4590
g65
(dp4591
sg74
g4576
sg67
(lp4592
g60
(g61
g62
NtRp4593
(dp4594
g65
(dp4595
g73
I5
ssg74
g4589
sg67
(lp4596
g103
asbasbasbag60
(g76
g62
NtRp4597
(dp4598
g65
(dp4599
sg74
g2908
sg67
(lp4600
g60
(g81
g62
NtRp4601
(dp4602
g65
(dp4603
g85
g86
ssg74
g4597
sg67
(lp4604
S'status'
p4605
asbag60
(g81
g62
NtRp4606
(dp4607
g65
(dp4608
g92
g93
ssg74
g4597
sg67
(lp4609
S':'
asbag60
(g81
g62
NtRp4610
(dp4611
g65
(dp4612
sg74
g4597
sg67
(lp4613
g60
(g61
g62
NtRp4614
(dp4615
g65
(dp4616
g73
I5
ssg74
g4610
sg67
(lp4617
S'200'
p4618
asbasbasbag60
(g76
g62
NtRp4619
(dp4620
g65
(dp4621
sg74
g2908
sg67
(lp4622
g60
(g81
g62
NtRp4623
(dp4624
g65
(dp4625
g85
g86
ssg74
g4619
sg67
(lp4626
S'subtitle'
p4627
asbag60
(g81
g62
NtRp4628
(dp4629
g65
(dp4630
g92
g93
ssg74
g4619
sg67
(lp4631
S':'
asbag60
(g81
g62
NtRp4632
(dp4633
g65
(dp4634
sg74
g4619
sg67
(lp4635
g60
(g61
g62
NtRp4636
(dp4637
g65
(dp4638
g73
I5
ssg74
g4632
sg67
(lp4639
g3381
(S's\t\x00\x00\x00Adaptame!'
tRp4640
asbasbasbag60
(g76
g62
NtRp4641
(dp4642
g65
(dp4643
sg74
g2908
sg67
(lp4644
g60
(g81
g62
NtRp4645
(dp4646
g65
(dp4647
g85
g86
ssg74
g4641
sg67
(lp4648
S'title'
p4649
asbag60
(g81
g62
NtRp4650
(dp4651
g65
(dp4652
g92
g93
ssg74
g4641
sg67
(lp4653
S':'
asbag60
(g81
g62
NtRp4654
(dp4655
g65
(dp4656
sg74
g4641
sg67
(lp4657
g60
(g61
g62
NtRp4658
(dp4659
g65
(dp4660
g73
I5
ssg74
g4654
sg67
(lp4661
g125
asbasbasbag60
(g76
g62
NtRp4662
(dp4663
g65
(dp4664
sg74
g2908
sg67
(lp4665
g60
(g81
g62
NtRp4666
(dp4667
g65
(dp4668
g85
g86
ssg74
g4662
sg67
(lp4669
g2187
asbag60
(g81
g62
NtRp4670
(dp4671
g65
(dp4672
g92
g93
ssg74
g4662
sg67
(lp4673
S':'
asbag60
(g81
g62
NtRp4674
(dp4675
g65
(dp4676
sg74
g4662
sg67
(lp4677
g60
(g61
g62
NtRp4678
(dp4679
g65
(dp4680
g73
I5
ssg74
g4674
sg67
(lp4681
g2200
asbasbasbag60
(g76
g62
NtRp4682
(dp4683
g65
(dp4684
sg74
g2908
sg67
(lp4685
g60
(g81
g62
NtRp4686
(dp4687
g65
(dp4688
g85
g86
ssg74
g4682
sg67
(lp4689
S'view'
p4690
asbag60
(g81
g62
NtRp4691
(dp4692
g65
(dp4693
g92
g93
ssg74
g4682
sg67
(lp4694
S':'
asbag60
(g81
g62
NtRp4695
(dp4696
g65
(dp4697
sg74
g4682
sg67
(lp4698
g60
(g61
g62
NtRp4699
(dp4700
g65
(dp4701
g73
I5
ssg74
g4695
sg67
(lp4702
S'default/entrada_mod1.html'
p4703
asbasbasbasbasbsS'locals'
p4704
(dp4705
g3
S"r'C:\\Users\\Atomico\\web2py\\applications\\Desglosar_Emails\\controllers/default.py'"
p4706
sg5
S"'def entrada():\\n    form=SQLFORM(db.info)\\n    if ...m\\n\\nresponse._vars=response._caller(entrada_mod1)\\n'"
p4707
sssS'traceback'
p4708
S'Traceback (most recent call last):\n  File "gluon/restricted.py", line 191, in restricted\n  File "gluon/restricted.py", line 178, in compile2\n  File "C:\\Users\\Atomico\\web2py\\applications\\Desglosar_Emails\\controllers/default.py", line 47\n    return form\n              \n^\nIndentationError: unindent does not match any outer indentation level\n'
p4709
s.