(dp1
S'output'
p2
S''
sS'layer'
p3
S'C:\\Users\\Atomico\\web2py\\applications\\Desglosar_Emails\\views\\default/entrada_mod3.html'
p4
sS'code'
p5
S'response.write(\'<!DOCTYPE html>\\n<html lang="\', escape=False)\nresponse.write(T.accepted_language or \'en\')\nresponse.write(\'" class="no-js"><!-- no-js need it for modernzr -->\\n  <head>\\n    \\n    <meta charset="utf-8" />\\t  \\t\\n    <!-- www.phpied.com/conditional-comments-block-downloads/ -->\\n    <!--[if IE]><![endif]-->    \\n    <!-- Always force latest IE rendering engine \\n\\t (even in intranet) & Chrome Frame \\n\\t Remove this if you use the .htaccess -->\\n    <meta http-equiv="X-UA-Compatible" content="IE=edge,chrome=1">\\n    \\n    <title>\', escape=False)\nresponse.write(response.title or request.application)\nresponse.write(\'</title>\\n    \\n    <!-- http://dev.w3.org/html5/markup/meta.name.html -->\\n    <meta name="application-name" content="\', escape=False)\nresponse.write(request.application)\nresponse.write(\'" />\\t\\n    \\n    <!-- Speaking of Google, don\\\'t forget to set your site up: \\n\\t http://google.com/webmasters -->\\n    <meta name="google-site-verification" content="" />\\n    \\n    <!--  Mobile Viewport Fix\\n\\t  j.mp/mobileviewport & davidbcalhoun.com/2010/viewport-metatag \\n\\t  device-width: Occupy full width of the screen in its current orientation\\n\\t  initial-scale = 1.0 retains dimensions instead of zooming out if page height > device height\\n\\t  maximum-scale = 1.0 retains dimensions instead of zooming in if page width < device width\\n      -->\\n    <meta name="viewport" content="width=device-width, initial-scale=1.0, maximum-scale=1.0">\\n    \\n    <!-- Place favicon.ico and apple-touch-icon.png in the root of your domain and delete these references -->\\n    <link rel="shortcut icon" href="\', escape=False)\nresponse.write(URL(\'static\',\'favicon.ico\'))\nresponse.write(\'" type="image/x-icon">\\n    <link rel="apple-touch-icon" href="\', escape=False)\nresponse.write(URL(\'static\',\'favicon.png\'))\nresponse.write(\'">\\n\\n    <!-- For the less-enabled mobile browsers like Opera Mini -->\\n    <link rel="stylesheet" media="handheld" href="\', escape=False)\nresponse.write(URL(\'static\',\'css/handheld.css\'))\nresponse.write(\'">\\n    \\n    <!-- All JavaScript at the bottom, except for Modernizr which enables HTML5 elements & feature detects -->\\n    <script src="\', escape=False)\nresponse.write(URL(\'static\',\'js/modernizr-1.7.min.js\'))\nresponse.write(\'"></script>\\n    \\n    \', escape=False)\n#------  require CSS and JS files for this page (read info in base.css) ------\nresponse.write(\'\\n    \', escape=False)\nresponse.files.append(URL(\'static\',\'css/base.css\'))\nresponse.write(\'\\n    \', escape=False)\nresponse.files.append(URL(\'static\',\'css/superfish.css\'))\nresponse.write(\'\\n    \', escape=False)\nresponse.files.append(URL(\'static\',\'js/superfish.js\'))\nresponse.write(\'\\n    \', escape=False)\n#------ include web2py specific js code (jquery, calendar, form stuff) ------\nresponse.write(\'\\n    \', escape=False)\nresponse.files.insert(0,URL(\'static\',\'js/jquery.js\'))\nresponse.files.insert(1,URL(\'static\',\'css/calendar.css\'))\nresponse.files.insert(2,URL(\'static\',\'js/calendar.js\'))\nfor _item in response.meta or []:\n    response.write(\'\\n     <meta name="\', escape=False)\n    response.write(_item)\n    response.write(\'" content="\', escape=False)\n    response.write(response.meta[_item])\n    response.write(\'" />\', escape=False)\n    pass\nfor _k,_file in enumerate(response.files or []):\n    if _file in response.files[:_k]:\n        continue\n    _file0=_file.lower().split(\'?\')[0]\n    if _file0.endswith(\'.css\'):\n        response.write(\'\\n     <link href="\', escape=False)\n        response.write(_file)\n        response.write(\'" rel="stylesheet" type="text/css" />\', escape=False)\n    elif _file0.endswith(\'.js\'):\n        response.write(\'\\n     <script src="\', escape=False)\n        response.write(_file)\n        response.write(\'" type="text/javascript"></script>\', escape=False)\n        pass\n    pass\nresponse.write(\'\\n    <script type="text/javascript"><!--\\n    // These variables are used by the web2py_ajax_init function in web2py_ajax.js (which is loaded below).\\n    var w2p_ajax_confirm_message = "\', escape=False)\nresponse.write(T(\'Are you sure you want to delete this object?\'))\nresponse.write(\'";\\n    var w2p_ajax_date_format = "\', escape=False)\nresponse.write(T(\'%Y-%m-%d\'))\nresponse.write(\'";\\n    var w2p_ajax_datetime_format = "\', escape=False)\nresponse.write(T(\'%Y-%m-%d %H:%M:%S\'))\nresponse.write(\'";\\n    //--></script>\\n    <script src="\', escape=False)\nresponse.write(URL(\'static\',\'js/web2py_ajax.js\'))\nresponse.write(\'" type="text/javascript"></script>\\n\', escape=False)\nresponse.write(\'\\n\\n    \', escape=False)\n#using sidebars need to know what sidebar you want to use\n#prior of using it, because of static width size of content, you can use\n#left_sidebar, right_sidebar, both or none (False left and right)\nleft_sidebar_enabled = globals().get(\'left_sidebar_enabled\',False)\nright_sidebar_enabled = globals().get(\'right_sidebar_enabled\',False)\nif left_sidebar_enabled and right_sidebar_enabled: width_content=\'63%\'\nelif left_sidebar_enabled != right_sidebar_enabled: width_content=\'740px\'\nelse: width_content=\'100%\'\nif left_sidebar_enabled: left_sidebar_style = \'style="display: block;"\'\nelse: left_sidebar_style = \'style="display: none;"\'\nif right_sidebar_enabled: right_sidebar_style = \'style="display: block;"\'\nelse: right_sidebar_style = \'style="display: none;"\'\nstyle_content = \'style="width: %s"\' % width_content\nresponse.write(\'\\n  </head>\\n  \\n  <!-- paulirish.com/2008/conditional-stylesheets-vs-css-hacks-answer-neither/ -->\\t\\n  <!--[if lt IE 7 ]> <body class="ie6"> <![endif]-->\\n  <!--[if IE 7 ]>    <body class="ie7"> <![endif]-->\\n  <!--[if IE 8 ]>    <body class="ie8"> <![endif]-->\\n  <!--[if IE 9 ]>    <body class="ie9"> <![endif]-->\\n  <!--[if (gt IE 9)|!(IE)]><!--> <body> <!--<![endif]-->\\n    \\n    <div class="flash">\', escape=False)\nresponse.write(response.flash or \'\')\nresponse.write(\'</div> <!-- notification div -->\\n    \\n    <div id="container">\\t      \\t\\t      \\t\\n      \\n      <div id="wrapper">\\t\\t\\n\\t\\n\\t<div id="header"> <!-- header and login nav -->\\n\\t  \', escape=False)\nresponse.write(\' <!-- this is default header -->\\n\\t  \', escape=False)\ntry:\n    response.write(auth.navbar(action=URL(\'default\',\'user\')))\nexcept:pass\nresponse.write(\'\\t\\t          \\n\\t  <h1><span id="appname">\', escape=False)\nresponse.write(request.application.capitalize())\nresponse.write(\'</span>App</h1>\\n\\t  <div style="clear: both;"></div><!-- Clear the divs -->\\n\\t  \', escape=False)\nresponse.write(\'\\t\\t\\t\\t  \\t\\t\\t\\t\\t  \\n\\t</div><!-- header  -->\\n\\t\\n\\t<div id="statusbar"><!-- statusbar is menu zone -->\\n\\t  \', escape=False)\nresponse.write(\' <!-- this is default statusbar -->\\n\\t  \', escape=False)\n#------ superfish menu ------\nresponse.write(\'\\n\\t  \', escape=False)\nresponse.write(MENU(response.menu,_class=\'sf-menu\'))\nresponse.write(\'\\n\\t  <script type="text/javascript">\\n\\t    jQuery(document).ready(function(){\\n\\t    jQuery(\\\'ul.sf-menu\\\').superfish();});\\n\\t  </script>\\n\\t  <div style="clear: both;"></div><!-- Clear the divs -->\\t\\n\\t  \', escape=False)\nresponse.write(\'\\t\\t\\t\\t\\n\\t</div><!-- statusbar -->\\n\\t\\n\\t<div id="page"> <!-- Here my central body -->\\t  \\n\\n\\t  \', escape=False)\nif left_sidebar_enabled:\n    response.write(\'\\n          <div id="left_sidebar" \', escape=False)\n    response.write(XML(left_sidebar_style))\n    response.write(\' >\\n            <div style="padding: 4px;">\\n\\t      \', escape=False)\n    response.write(\'Content Left Sidebar\', escape=False)\n    response.write(\'\\t\\t  \\n            </div>\\n          </div><!-- left_sidebar -->\\n\\t  \', escape=False)\n    pass\nresponse.write(\'\\n\\n\\t  <!-- content -->\\n\\t  <div id="content" \', escape=False)\nresponse.write(XML(style_content))\nresponse.write(\' >\\n\\t    \', escape=False)\nresponse.write(\'\\r\\n<h1>Esta es la plantilla default/entrada_mod3.html</h1>\\r\\n<h2>Formulario</h2>\\r\\n\', escape=False)\nresponse.write(form)\nresponse.write(\'\\r\\n<br/>\\r\\n<h3>Tratamientos</h3>\\r\\n\', escape=False)\ntextual=db(db.info4.id==1).select()[0]\ntxt=textual.texto\nresponse.write(len(txt))\nresponse.write(\'\\r\\n es la longitud del texto.\\r\\n<br/> Claro: \\r\\n\\r\\n\', escape=False)\nimport re\npattern=re.compile("[\\w|\xc3\xb1|\xc3\x91]+.\\w+.\\w+")\npatternemail=re.compile("@\\w+[.]\\w+")\nclavos=[\'(\',\')\',\',\',\';\',\' \']\nres=pattern.findall(txt)\nresponse.write(len(res))\nfor i in res: response.write(i+\'    \',escape=False)\nres2=patternemail.findall(txt)\nresponse.write(len(res2))\nfor i in res2: response.write(i)\nresponse.write(\'\\r\\n<br/>\\r\\n\', escape=False)\ni=0\nwhile i<len(res):\n    if patternemail.search(res[i])==False:\n        db.contactos.insert(nombre=res[i],email=res[i+1])\n        i=i+2\n    elif patternemail.search(res[i]):\n        db.contactos.insert(email=res[i])\n        i=i+1\n    else: response.write(\'Aqu\xc3\xad hay un problema\')\n    pass\nresponse.write(\'\\r\\n<br/> s\\xc3\\xb3c el peU.\\r\\n\', escape=False)\nresponse.write(\'\\t\\n\\t  </div>\\n\\t  <!-- content -->\\n\\n\\t  \', escape=False)\nif right_sidebar_enabled:\n    response.write(\'\\n          <div id="right_sidebar" \', escape=False)\n    response.write(XML(right_sidebar_style))\n    response.write(\' >\\n            <div style="padding: 4px;">\\n              \', escape=False)\n    response.write(\'Content Right Sidebar\', escape=False)\n    response.write(\'\\n            </div>\\n\\t  </div><!-- right_sidebar -->\\n          \', escape=False)\n    pass\nresponse.write(\'\\n\\n\\n\\t  <div style="clear: both;"></div><!-- Clear the divs -->\\n\\t  \\n\\t</div><!-- page -->\\t\\t\\t\\t\\t\\t\\t\\n\\t\\n\\t<div id="footer">\\n\\t  \', escape=False)\nresponse.write(\' <!-- this is default footer -->\\n\\t  <a href="http://www.web2py.com/" style="float: left; padding-right: 6px;">\\n\\t    <img src="\', escape=False)\nresponse.write(URL(\'static\',\'images/poweredby.png\'))\nresponse.write(\'"/>\\n\\t  </a>\\n\\t  \', escape=False)\nresponse.write(T(\'Copyright\'))\nresponse.write(\' &#169; 2010\\t\\t\\t\\t\\n\\t  <div style="clear: both;"></div><!-- Clear the divs -->\\n\\t  \', escape=False)\nresponse.write(\'\\n\\n\\t</div><!-- footer -->\\t\\t\\t\\n      </div><!-- wrapper -->\\n    </div><!-- container -->\\t\\t\\n    \\n    <!--[if lt IE 7 ]>\\n\\t<script src="\', escape=False)\nresponse.write(URL(\'static\',\'js/dd_belatedpng.js\'))\nresponse.write(\'"></script>\\n\\t<script> DD_belatedPNG.fix(\\\'img, .png_bg\\\'); //fix any <img> or .png_bg background-images </script>\\n\\t<![endif]-->\\n    \\n    <!-- asynchronous google analytics: mathiasbynens.be/notes/async-analytics-snippet \\n\\t change the UA-XXXXX-X to be your site\\\'s ID -->\\n    <!--   \\n\\t   <script>\\n\\t     var _gaq = [[\\\'_setAccount\\\', \\\'UA-XXXXX-X\\\'], [\\\'_trackPageview\\\']];\\n\\t     (function(d, t) {\\n\\t     var g = d.createElement(t),\\n\\t     s = d.getElementsByTagName(t)[0];\\n\\t     g.async = true;\\n\\t     g.src = \\\'//www.google-analytics.com/ga.js\\\';\\n\\t     s.parentNode.insertBefore(g, s);\\n\\t     })(document, \\\'script\\\');\\n\\t   </script>\\n\\t   -->    \\n  </body>\\n</html>\\n\', escape=False)'
p6
sS'snapshot'
p7
(dp8
S'exception'
p9
(dp10
S'__hash__'
p11
S"<method-wrapper '__hash__' of OperationalError object at 0x03002828>"
p12
sS'__module__'
p13
S"'sqlite3'"
p14
sS'__reduce_ex__'
p15
S'<built-in method __reduce_ex__ of OperationalError object at 0x03002828>'
p16
sS'__getslice__'
p17
S"<method-wrapper '__getslice__' of OperationalError object at 0x03002828>"
p18
sS'__getitem__'
p19
S"<method-wrapper '__getitem__' of OperationalError object at 0x03002828>"
p20
sS'__setstate__'
p21
S'<built-in method __setstate__ of OperationalError object at 0x03002828>'
p22
sS'__reduce__'
p23
S'<built-in method __reduce__ of OperationalError object at 0x03002828>'
p24
sS'__str__'
p25
S"<method-wrapper '__str__' of OperationalError object at 0x03002828>"
p26
sS'args'
p27
S"('database is locked',)"
p28
sS'__getattribute__'
p29
S"<method-wrapper '__getattribute__' of OperationalError object at 0x03002828>"
p30
sS'__class__'
p31
S"<class 'sqlite3.OperationalError'>"
p32
sS'__delattr__'
p33
S"<method-wrapper '__delattr__' of OperationalError object at 0x03002828>"
p34
sS'__repr__'
p35
S"<method-wrapper '__repr__' of OperationalError object at 0x03002828>"
p36
sS'__setattr__'
p37
S"<method-wrapper '__setattr__' of OperationalError object at 0x03002828>"
p38
sS'__dict__'
p39
S'{}'
p40
sS'__weakref__'
p41
S'None'
p42
sS'__doc__'
p43
S'None'
p44
sS'__init__'
p45
S"<method-wrapper '__init__' of OperationalError object at 0x03002828>"
p46
sS'__new__'
p47
S'<built-in method __new__ of type object at 0x1E1CCCB0>'
p48
ssS'evalue'
p49
S'database is locked'
p50
sS'request'
p51
ccopy_reg
_reconstructor
p52
(cgluon.html
BEAUTIFY
p53
c__builtin__
object
p54
NtRp55
(dp56
S'attributes'
p57
(dp58
sS'components'
p59
(lp60
g52
(cgluon.html
TABLE
p61
g54
NtRp62
(dp63
g57
(dp64
S'level'
p65
I5
ssS'parent'
p66
Nsg59
(lp67
g52
(cgluon.html
TR
p68
g54
NtRp69
(dp70
g57
(dp71
sg66
g62
sg59
(lp72
g52
(cgluon.html
TD
p73
g54
NtRp74
(dp75
g57
(dp76
S'_style'
p77
S'font-weight:bold;'
p78
ssg66
g69
sg59
(lp79
S'ajax'
p80
asbag52
(g73
g54
NtRp81
(dp82
g57
(dp83
S'_valign'
p84
S'top'
p85
ssg66
g69
sg59
(lp86
S':'
asbag52
(g73
g54
NtRp87
(dp88
g57
(dp89
sg66
g69
sg59
(lp90
g52
(g53
g54
NtRp91
(dp92
g57
(dp93
g65
I5
ssg66
g87
sg59
(lp94
S'False'
p95
asbasbasbag52
(g68
g54
NtRp96
(dp97
g57
(dp98
sg66
g62
sg59
(lp99
g52
(g73
g54
NtRp100
(dp101
g57
(dp102
g77
g78
ssg66
g96
sg59
(lp103
S'application'
p104
asbag52
(g73
g54
NtRp105
(dp106
g57
(dp107
g84
g85
ssg66
g96
sg59
(lp108
S':'
asbag52
(g73
g54
NtRp109
(dp110
g57
(dp111
sg66
g96
sg59
(lp112
g52
(g53
g54
NtRp113
(dp114
g57
(dp115
g65
I5
ssg66
g109
sg59
(lp116
S'Desglosar_Emails'
p117
asbasbasbag52
(g68
g54
NtRp118
(dp119
g57
(dp120
sg66
g62
sg59
(lp121
g52
(g73
g54
NtRp122
(dp123
g57
(dp124
g77
g78
ssg66
g118
sg59
(lp125
g27
asbag52
(g73
g54
NtRp126
(dp127
g57
(dp128
g84
g85
ssg66
g118
sg59
(lp129
S':'
asbag52
(g73
g54
NtRp130
(dp131
g57
(dp132
sg66
g118
sg59
(lp133
g52
(g53
g54
NtRp134
(dp135
g57
(dp136
g65
I5
ssg66
g130
sg59
(lp137
g52
(g61
g54
NtRp138
(dp139
g57
(dp140
g65
I4
ssg66
Nsg59
(lp141
sbasbasbasbag52
(g68
g54
NtRp142
(dp143
g57
(dp144
sg66
g62
sg59
(lp145
g52
(g73
g54
NtRp146
(dp147
g57
(dp148
g77
g78
ssg66
g142
sg59
(lp149
S'body'
p150
asbag52
(g73
g54
NtRp151
(dp152
g57
(dp153
g84
g85
ssg66
g142
sg59
(lp154
S':'
asbag52
(g73
g54
NtRp155
(dp156
g57
(dp157
sg66
g142
sg59
(lp158
g52
(g53
g54
NtRp159
(dp160
g57
(dp161
g65
I5
ssg66
g155
sg59
(lp162
S'<cStringIO.StringO object at 0x08706120>'
p163
asbasbasbag52
(g68
g54
NtRp164
(dp165
g57
(dp166
sg66
g62
sg59
(lp167
g52
(g73
g54
NtRp168
(dp169
g57
(dp170
g77
g78
ssg66
g164
sg59
(lp171
S'client'
p172
asbag52
(g73
g54
NtRp173
(dp174
g57
(dp175
g84
g85
ssg66
g164
sg59
(lp176
S':'
asbag52
(g73
g54
NtRp177
(dp178
g57
(dp179
sg66
g164
sg59
(lp180
g52
(g53
g54
NtRp181
(dp182
g57
(dp183
g65
I5
ssg66
g177
sg59
(lp184
S'127.0.0.1'
p185
asbasbasbag52
(g68
g54
NtRp186
(dp187
g57
(dp188
sg66
g62
sg59
(lp189
g52
(g73
g54
NtRp190
(dp191
g57
(dp192
g77
g78
ssg66
g186
sg59
(lp193
S'controller'
p194
asbag52
(g73
g54
NtRp195
(dp196
g57
(dp197
g84
g85
ssg66
g186
sg59
(lp198
S':'
asbag52
(g73
g54
NtRp199
(dp200
g57
(dp201
sg66
g186
sg59
(lp202
g52
(g53
g54
NtRp203
(dp204
g57
(dp205
g65
I5
ssg66
g199
sg59
(lp206
S'default'
p207
asbasbasbag52
(g68
g54
NtRp208
(dp209
g57
(dp210
sg66
g62
sg59
(lp211
g52
(g73
g54
NtRp212
(dp213
g57
(dp214
g77
g78
ssg66
g208
sg59
(lp215
S'cookies'
p216
asbag52
(g73
g54
NtRp217
(dp218
g57
(dp219
g84
g85
ssg66
g208
sg59
(lp220
S':'
asbag52
(g73
g54
NtRp221
(dp222
g57
(dp223
sg66
g208
sg59
(lp224
g52
(g53
g54
NtRp225
(dp226
g57
(dp227
g65
I5
ssg66
g221
sg59
(lp228
g52
(g61
g54
NtRp229
(dp230
g57
(dp231
g65
I4
ssg66
Nsg59
(lp232
g52
(g68
g54
NtRp233
(dp234
g57
(dp235
sg66
g229
sg59
(lp236
g52
(g73
g54
NtRp237
(dp238
g57
(dp239
g77
g78
ssg66
g233
sg59
(lp240
S'session_id_admin'
p241
asbag52
(g73
g54
NtRp242
(dp243
g57
(dp244
g84
g85
ssg66
g233
sg59
(lp245
S':'
asbag52
(g73
g54
NtRp246
(dp247
g57
(dp248
sg66
g233
sg59
(lp249
g52
(g53
g54
NtRp250
(dp251
g57
(dp252
g65
I4
ssg66
g246
sg59
(lp253
g52
(g61
g54
NtRp254
(dp255
g57
(dp256
g65
I3
ssg66
Nsg59
(lp257
g52
(g68
g54
NtRp258
(dp259
g57
(dp260
sg66
g254
sg59
(lp261
g52
(g73
g54
NtRp262
(dp263
g57
(dp264
g77
g78
ssg66
g258
sg59
(lp265
S'comment'
p266
asbag52
(g73
g54
NtRp267
(dp268
g57
(dp269
g84
g85
ssg66
g258
sg59
(lp270
S':'
asbag52
(g73
g54
NtRp271
(dp272
g57
(dp273
sg66
g258
sg59
(lp274
g52
(g53
g54
NtRp275
(dp276
g57
(dp277
g65
I3
ssg66
g271
sg59
(lp278
S''
asbasbasbag52
(g68
g54
NtRp279
(dp280
g57
(dp281
sg66
g254
sg59
(lp282
g52
(g73
g54
NtRp283
(dp284
g57
(dp285
g77
g78
ssg66
g279
sg59
(lp286
S'domain'
p287
asbag52
(g73
g54
NtRp288
(dp289
g57
(dp290
g84
g85
ssg66
g279
sg59
(lp291
S':'
asbag52
(g73
g54
NtRp292
(dp293
g57
(dp294
sg66
g279
sg59
(lp295
g52
(g53
g54
NtRp296
(dp297
g57
(dp298
g65
I3
ssg66
g292
sg59
(lp299
S''
asbasbasbag52
(g68
g54
NtRp300
(dp301
g57
(dp302
sg66
g254
sg59
(lp303
g52
(g73
g54
NtRp304
(dp305
g57
(dp306
g77
g78
ssg66
g300
sg59
(lp307
S'expires'
p308
asbag52
(g73
g54
NtRp309
(dp310
g57
(dp311
g84
g85
ssg66
g300
sg59
(lp312
S':'
asbag52
(g73
g54
NtRp313
(dp314
g57
(dp315
sg66
g300
sg59
(lp316
g52
(g53
g54
NtRp317
(dp318
g57
(dp319
g65
I3
ssg66
g313
sg59
(lp320
S''
asbasbasbag52
(g68
g54
NtRp321
(dp322
g57
(dp323
sg66
g254
sg59
(lp324
g52
(g73
g54
NtRp325
(dp326
g57
(dp327
g77
g78
ssg66
g321
sg59
(lp328
S'max-age'
p329
asbag52
(g73
g54
NtRp330
(dp331
g57
(dp332
g84
g85
ssg66
g321
sg59
(lp333
S':'
asbag52
(g73
g54
NtRp334
(dp335
g57
(dp336
sg66
g321
sg59
(lp337
g52
(g53
g54
NtRp338
(dp339
g57
(dp340
g65
I3
ssg66
g334
sg59
(lp341
S''
asbasbasbag52
(g68
g54
NtRp342
(dp343
g57
(dp344
sg66
g254
sg59
(lp345
g52
(g73
g54
NtRp346
(dp347
g57
(dp348
g77
g78
ssg66
g342
sg59
(lp349
S'path'
p350
asbag52
(g73
g54
NtRp351
(dp352
g57
(dp353
g84
g85
ssg66
g342
sg59
(lp354
S':'
asbag52
(g73
g54
NtRp355
(dp356
g57
(dp357
sg66
g342
sg59
(lp358
g52
(g53
g54
NtRp359
(dp360
g57
(dp361
g65
I3
ssg66
g355
sg59
(lp362
S''
asbasbasbag52
(g68
g54
NtRp363
(dp364
g57
(dp365
sg66
g254
sg59
(lp366
g52
(g73
g54
NtRp367
(dp368
g57
(dp369
g77
g78
ssg66
g363
sg59
(lp370
S'secure'
p371
asbag52
(g73
g54
NtRp372
(dp373
g57
(dp374
g84
g85
ssg66
g363
sg59
(lp375
S':'
asbag52
(g73
g54
NtRp376
(dp377
g57
(dp378
sg66
g363
sg59
(lp379
g52
(g53
g54
NtRp380
(dp381
g57
(dp382
g65
I3
ssg66
g376
sg59
(lp383
S''
asbasbasbag52
(g68
g54
NtRp384
(dp385
g57
(dp386
sg66
g254
sg59
(lp387
g52
(g73
g54
NtRp388
(dp389
g57
(dp390
g77
g78
ssg66
g384
sg59
(lp391
S'version'
p392
asbag52
(g73
g54
NtRp393
(dp394
g57
(dp395
g84
g85
ssg66
g384
sg59
(lp396
S':'
asbag52
(g73
g54
NtRp397
(dp398
g57
(dp399
sg66
g384
sg59
(lp400
g52
(g53
g54
NtRp401
(dp402
g57
(dp403
g65
I3
ssg66
g397
sg59
(lp404
S''
asbasbasbasbasbasbasbag52
(g68
g54
NtRp405
(dp406
g57
(dp407
sg66
g229
sg59
(lp408
g52
(g73
g54
NtRp409
(dp410
g57
(dp411
g77
g78
ssg66
g405
sg59
(lp412
S'session_id_desglosar_emails'
p413
asbag52
(g73
g54
NtRp414
(dp415
g57
(dp416
g84
g85
ssg66
g405
sg59
(lp417
S':'
asbag52
(g73
g54
NtRp418
(dp419
g57
(dp420
sg66
g405
sg59
(lp421
g52
(g53
g54
NtRp422
(dp423
g57
(dp424
g65
I4
ssg66
g418
sg59
(lp425
g52
(g61
g54
NtRp426
(dp427
g57
(dp428
g65
I3
ssg66
Nsg59
(lp429
g52
(g68
g54
NtRp430
(dp431
g57
(dp432
sg66
g426
sg59
(lp433
g52
(g73
g54
NtRp434
(dp435
g57
(dp436
g77
g78
ssg66
g430
sg59
(lp437
g266
asbag52
(g73
g54
NtRp438
(dp439
g57
(dp440
g84
g85
ssg66
g430
sg59
(lp441
S':'
asbag52
(g73
g54
NtRp442
(dp443
g57
(dp444
sg66
g430
sg59
(lp445
g52
(g53
g54
NtRp446
(dp447
g57
(dp448
g65
I3
ssg66
g442
sg59
(lp449
S''
asbasbasbag52
(g68
g54
NtRp450
(dp451
g57
(dp452
sg66
g426
sg59
(lp453
g52
(g73
g54
NtRp454
(dp455
g57
(dp456
g77
g78
ssg66
g450
sg59
(lp457
g287
asbag52
(g73
g54
NtRp458
(dp459
g57
(dp460
g84
g85
ssg66
g450
sg59
(lp461
S':'
asbag52
(g73
g54
NtRp462
(dp463
g57
(dp464
sg66
g450
sg59
(lp465
g52
(g53
g54
NtRp466
(dp467
g57
(dp468
g65
I3
ssg66
g462
sg59
(lp469
S''
asbasbasbag52
(g68
g54
NtRp470
(dp471
g57
(dp472
sg66
g426
sg59
(lp473
g52
(g73
g54
NtRp474
(dp475
g57
(dp476
g77
g78
ssg66
g470
sg59
(lp477
g308
asbag52
(g73
g54
NtRp478
(dp479
g57
(dp480
g84
g85
ssg66
g470
sg59
(lp481
S':'
asbag52
(g73
g54
NtRp482
(dp483
g57
(dp484
sg66
g470
sg59
(lp485
g52
(g53
g54
NtRp486
(dp487
g57
(dp488
g65
I3
ssg66
g482
sg59
(lp489
S''
asbasbasbag52
(g68
g54
NtRp490
(dp491
g57
(dp492
sg66
g426
sg59
(lp493
g52
(g73
g54
NtRp494
(dp495
g57
(dp496
g77
g78
ssg66
g490
sg59
(lp497
g329
asbag52
(g73
g54
NtRp498
(dp499
g57
(dp500
g84
g85
ssg66
g490
sg59
(lp501
S':'
asbag52
(g73
g54
NtRp502
(dp503
g57
(dp504
sg66
g490
sg59
(lp505
g52
(g53
g54
NtRp506
(dp507
g57
(dp508
g65
I3
ssg66
g502
sg59
(lp509
S''
asbasbasbag52
(g68
g54
NtRp510
(dp511
g57
(dp512
sg66
g426
sg59
(lp513
g52
(g73
g54
NtRp514
(dp515
g57
(dp516
g77
g78
ssg66
g510
sg59
(lp517
g350
asbag52
(g73
g54
NtRp518
(dp519
g57
(dp520
g84
g85
ssg66
g510
sg59
(lp521
S':'
asbag52
(g73
g54
NtRp522
(dp523
g57
(dp524
sg66
g510
sg59
(lp525
g52
(g53
g54
NtRp526
(dp527
g57
(dp528
g65
I3
ssg66
g522
sg59
(lp529
S''
asbasbasbag52
(g68
g54
NtRp530
(dp531
g57
(dp532
sg66
g426
sg59
(lp533
g52
(g73
g54
NtRp534
(dp535
g57
(dp536
g77
g78
ssg66
g530
sg59
(lp537
g371
asbag52
(g73
g54
NtRp538
(dp539
g57
(dp540
g84
g85
ssg66
g530
sg59
(lp541
S':'
asbag52
(g73
g54
NtRp542
(dp543
g57
(dp544
sg66
g530
sg59
(lp545
g52
(g53
g54
NtRp546
(dp547
g57
(dp548
g65
I3
ssg66
g542
sg59
(lp549
S''
asbasbasbag52
(g68
g54
NtRp550
(dp551
g57
(dp552
sg66
g426
sg59
(lp553
g52
(g73
g54
NtRp554
(dp555
g57
(dp556
g77
g78
ssg66
g550
sg59
(lp557
g392
asbag52
(g73
g54
NtRp558
(dp559
g57
(dp560
g84
g85
ssg66
g550
sg59
(lp561
S':'
asbag52
(g73
g54
NtRp562
(dp563
g57
(dp564
sg66
g550
sg59
(lp565
g52
(g53
g54
NtRp566
(dp567
g57
(dp568
g65
I3
ssg66
g562
sg59
(lp569
S''
asbasbasbasbasbasbasbasbasbasbasbag52
(g68
g54
NtRp570
(dp571
g57
(dp572
sg66
g62
sg59
(lp573
g52
(g73
g54
NtRp574
(dp575
g57
(dp576
g77
g78
ssg66
g570
sg59
(lp577
S'env'
p578
asbag52
(g73
g54
NtRp579
(dp580
g57
(dp581
g84
g85
ssg66
g570
sg59
(lp582
S':'
asbag52
(g73
g54
NtRp583
(dp584
g57
(dp585
sg66
g570
sg59
(lp586
g52
(g53
g54
NtRp587
(dp588
g57
(dp589
g65
I5
ssg66
g583
sg59
(lp590
g52
(g61
g54
NtRp591
(dp592
g57
(dp593
g65
I4
ssg66
Nsg59
(lp594
g52
(g68
g54
NtRp595
(dp596
g57
(dp597
sg66
g591
sg59
(lp598
g52
(g73
g54
NtRp599
(dp600
g57
(dp601
g77
g78
ssg66
g595
sg59
(lp602
S'app_folders'
p603
asbag52
(g73
g54
NtRp604
(dp605
g57
(dp606
g84
g85
ssg66
g595
sg59
(lp607
S':'
asbag52
(g73
g54
NtRp608
(dp609
g57
(dp610
sg66
g595
sg59
(lp611
g52
(g53
g54
NtRp612
(dp613
g57
(dp614
g65
I4
ssg66
g608
sg59
(lp615
S"set(['C:\\\\Users\\\\Atomico\\\\web2py\\\\applications\\\\Desglosar_Emails\\\\', 'C:\\\\Users\\\\Atomico\\\\web2py\\\\applications\\\\Cual_es_tu_nombre\\\\', 'C:\\\\Users\\\\Atomico\\\\web2py\\\\applications\\\\admin\\\\', 'C:\\\\Users\\\\Atomico\\\\web2py\\\\applications\\\\hemoal\\\\', 'C:\\\\Users\\\\Atomico\\\\web2py\\\\applications\\\\myAppJav\\\\', 'C:\\\\Users\\\\Atomico\\\\web2py\\\\applications\\\\welcome\\\\', 'C:\\\\Users\\\\Atomico\\\\web2py\\\\applications\\\\borrar2\\\\', 'C:\\\\Users\\\\Atomico\\\\web2py\\\\applications\\\\examples\\\\'])"
p616
asbasbasbag52
(g68
g54
NtRp617
(dp618
g57
(dp619
sg66
g591
sg59
(lp620
g52
(g73
g54
NtRp621
(dp622
g57
(dp623
g77
g78
ssg66
g617
sg59
(lp624
S'applications_parent'
p625
asbag52
(g73
g54
NtRp626
(dp627
g57
(dp628
g84
g85
ssg66
g617
sg59
(lp629
S':'
asbag52
(g73
g54
NtRp630
(dp631
g57
(dp632
sg66
g617
sg59
(lp633
g52
(g53
g54
NtRp634
(dp635
g57
(dp636
g65
I4
ssg66
g630
sg59
(lp637
S'C:\\Users\\Atomico\\web2py'
p638
asbasbasbag52
(g68
g54
NtRp639
(dp640
g57
(dp641
sg66
g591
sg59
(lp642
g52
(g73
g54
NtRp643
(dp644
g57
(dp645
g77
g78
ssg66
g639
sg59
(lp646
S'cmd_args'
p647
asbag52
(g73
g54
NtRp648
(dp649
g57
(dp650
g84
g85
ssg66
g639
sg59
(lp651
S':'
asbag52
(g73
g54
NtRp652
(dp653
g57
(dp654
sg66
g639
sg59
(lp655
g52
(g53
g54
NtRp656
(dp657
g57
(dp658
g65
I4
ssg66
g652
sg59
(lp659
g52
(g61
g54
NtRp660
(dp661
g57
(dp662
g65
I3
ssg66
Nsg59
(lp663
sbasbasbasbag52
(g68
g54
NtRp664
(dp665
g57
(dp666
sg66
g591
sg59
(lp667
g52
(g73
g54
NtRp668
(dp669
g57
(dp670
g77
g78
ssg66
g664
sg59
(lp671
S'cmd_options'
p672
asbag52
(g73
g54
NtRp673
(dp674
g57
(dp675
g84
g85
ssg66
g664
sg59
(lp676
S':'
asbag52
(g73
g54
NtRp677
(dp678
g57
(dp679
sg66
g664
sg59
(lp680
g52
(g53
g54
NtRp681
(dp682
g57
(dp683
g65
I4
ssg66
g677
sg59
(lp684
S"<Values at 0x306b620: {'verbose': False, 'ip': '127.0.0.1', 'shutdown_timeout': 5, 'taskbar': False, 'port': 8000, 'maxthreads': None, 'softcron': False, 'server_name': 'Swing', 'bpython': False, 'nogui': False, 'nocron': False, 'extcron': False, 'debuglevel': 30, 'test': None, 'folder': 'C:\\\\Users\\\\Atomico\\\\web2py', 'config': '', 'import_models': False, 'winservice': '', 'shell': None, 'run': '', 'log_filename': 'httpserver.log', 'args': [''], 'profiler_filename': None, 'ssl_private_key': '', 'password': '<ask>', 'request_queue_size': 5, 'ssl_certificate': '', 'cronjob': False, 'plain': False, 'quiet': False, 'interfaces': None, 'minthreads': None, 'timeout': 10, 'numthreads': None, 'nobanner': False, 'pid_filename': 'httpserver.pid'}>"
p685
asbasbasbag52
(g68
g54
NtRp686
(dp687
g57
(dp688
sg66
g591
sg59
(lp689
g52
(g73
g54
NtRp690
(dp691
g57
(dp692
g77
g78
ssg66
g686
sg59
(lp693
S'db_sessions'
p694
asbag52
(g73
g54
NtRp695
(dp696
g57
(dp697
g84
g85
ssg66
g686
sg59
(lp698
S':'
asbag52
(g73
g54
NtRp699
(dp700
g57
(dp701
sg66
g686
sg59
(lp702
g52
(g53
g54
NtRp703
(dp704
g57
(dp705
g65
I4
ssg66
g699
sg59
(lp706
S'set([])'
p707
asbasbasbag52
(g68
g54
NtRp708
(dp709
g57
(dp710
sg66
g591
sg59
(lp711
g52
(g73
g54
NtRp712
(dp713
g57
(dp714
g77
g78
ssg66
g708
sg59
(lp715
S'debugging'
p716
asbag52
(g73
g54
NtRp717
(dp718
g57
(dp719
g84
g85
ssg66
g708
sg59
(lp720
S':'
asbag52
(g73
g54
NtRp721
(dp722
g57
(dp723
sg66
g708
sg59
(lp724
g52
(g53
g54
NtRp725
(dp726
g57
(dp727
g65
I4
ssg66
g721
sg59
(lp728
g95
asbasbasbag52
(g68
g54
NtRp729
(dp730
g57
(dp731
sg66
g591
sg59
(lp732
g52
(g73
g54
NtRp733
(dp734
g57
(dp735
g77
g78
ssg66
g729
sg59
(lp736
S'gluon_parent'
p737
asbag52
(g73
g54
NtRp738
(dp739
g57
(dp740
g84
g85
ssg66
g729
sg59
(lp741
S':'
asbag52
(g73
g54
NtRp742
(dp743
g57
(dp744
sg66
g729
sg59
(lp745
g52
(g53
g54
NtRp746
(dp747
g57
(dp748
g65
I4
ssg66
g742
sg59
(lp749
S'C:\\Users\\Atomico\\web2py'
p750
asbasbasbag52
(g68
g54
NtRp751
(dp752
g57
(dp753
sg66
g591
sg59
(lp754
g52
(g73
g54
NtRp755
(dp756
g57
(dp757
g77
g78
ssg66
g751
sg59
(lp758
S'http_accept'
p759
asbag52
(g73
g54
NtRp760
(dp761
g57
(dp762
g84
g85
ssg66
g751
sg59
(lp763
S':'
asbag52
(g73
g54
NtRp764
(dp765
g57
(dp766
sg66
g751
sg59
(lp767
g52
(g53
g54
NtRp768
(dp769
g57
(dp770
g65
I4
ssg66
g764
sg59
(lp771
S'application/x-ms-application, image/jpeg, application/xaml+xml, image/gif, image/pjpeg, application/x-ms-xbap, */*'
p772
asbasbasbag52
(g68
g54
NtRp773
(dp774
g57
(dp775
sg66
g591
sg59
(lp776
g52
(g73
g54
NtRp777
(dp778
g57
(dp779
g77
g78
ssg66
g773
sg59
(lp780
S'http_accept_encoding'
p781
asbag52
(g73
g54
NtRp782
(dp783
g57
(dp784
g84
g85
ssg66
g773
sg59
(lp785
S':'
asbag52
(g73
g54
NtRp786
(dp787
g57
(dp788
sg66
g773
sg59
(lp789
g52
(g53
g54
NtRp790
(dp791
g57
(dp792
g65
I4
ssg66
g786
sg59
(lp793
S'gzip, deflate'
p794
asbasbasbag52
(g68
g54
NtRp795
(dp796
g57
(dp797
sg66
g591
sg59
(lp798
g52
(g73
g54
NtRp799
(dp800
g57
(dp801
g77
g78
ssg66
g795
sg59
(lp802
S'http_accept_language'
p803
asbag52
(g73
g54
NtRp804
(dp805
g57
(dp806
g84
g85
ssg66
g795
sg59
(lp807
S':'
asbag52
(g73
g54
NtRp808
(dp809
g57
(dp810
sg66
g795
sg59
(lp811
g52
(g53
g54
NtRp812
(dp813
g57
(dp814
g65
I4
ssg66
g808
sg59
(lp815
S'es-ES'
p816
asbasbasbag52
(g68
g54
NtRp817
(dp818
g57
(dp819
sg66
g591
sg59
(lp820
g52
(g73
g54
NtRp821
(dp822
g57
(dp823
g77
g78
ssg66
g817
sg59
(lp824
S'http_connection'
p825
asbag52
(g73
g54
NtRp826
(dp827
g57
(dp828
g84
g85
ssg66
g817
sg59
(lp829
S':'
asbag52
(g73
g54
NtRp830
(dp831
g57
(dp832
sg66
g817
sg59
(lp833
g52
(g53
g54
NtRp834
(dp835
g57
(dp836
g65
I4
ssg66
g830
sg59
(lp837
S'Keep-Alive'
p838
asbasbasbag52
(g68
g54
NtRp839
(dp840
g57
(dp841
sg66
g591
sg59
(lp842
g52
(g73
g54
NtRp843
(dp844
g57
(dp845
g77
g78
ssg66
g839
sg59
(lp846
S'http_cookie'
p847
asbag52
(g73
g54
NtRp848
(dp849
g57
(dp850
g84
g85
ssg66
g839
sg59
(lp851
S':'
asbag52
(g73
g54
NtRp852
(dp853
g57
(dp854
sg66
g839
sg59
(lp855
g52
(g53
g54
NtRp856
(dp857
g57
(dp858
g65
I4
ssg66
g852
sg59
(lp859
S'session_id_admin=127.0.0.1-18096655-b96f-4bb7-9eaf-1b23c4de6172; session_id_desglosar_emails=127.0.0.1-3b6245e1-5068-4c33-ba16-794aa1fa6a64'
p860
asbasbasbag52
(g68
g54
NtRp861
(dp862
g57
(dp863
sg66
g591
sg59
(lp864
g52
(g73
g54
NtRp865
(dp866
g57
(dp867
g77
g78
ssg66
g861
sg59
(lp868
S'http_host'
p869
asbag52
(g73
g54
NtRp870
(dp871
g57
(dp872
g84
g85
ssg66
g861
sg59
(lp873
S':'
asbag52
(g73
g54
NtRp874
(dp875
g57
(dp876
sg66
g861
sg59
(lp877
g52
(g53
g54
NtRp878
(dp879
g57
(dp880
g65
I4
ssg66
g874
sg59
(lp881
S'127.0.0.1:8000'
p882
asbasbasbag52
(g68
g54
NtRp883
(dp884
g57
(dp885
sg66
g591
sg59
(lp886
g52
(g73
g54
NtRp887
(dp888
g57
(dp889
g77
g78
ssg66
g883
sg59
(lp890
S'http_referer'
p891
asbag52
(g73
g54
NtRp892
(dp893
g57
(dp894
g84
g85
ssg66
g883
sg59
(lp895
S':'
asbag52
(g73
g54
NtRp896
(dp897
g57
(dp898
sg66
g883
sg59
(lp899
g52
(g53
g54
NtRp900
(dp901
g57
(dp902
g65
I4
ssg66
g896
sg59
(lp903
S'http://127.0.0.1:8000/admin/default/edit/Desglosar_Emails/controllers/default.py'
p904
asbasbasbag52
(g68
g54
NtRp905
(dp906
g57
(dp907
sg66
g591
sg59
(lp908
g52
(g73
g54
NtRp909
(dp910
g57
(dp911
g77
g78
ssg66
g905
sg59
(lp912
S'http_user_agent'
p913
asbag52
(g73
g54
NtRp914
(dp915
g57
(dp916
g84
g85
ssg66
g905
sg59
(lp917
S':'
asbag52
(g73
g54
NtRp918
(dp919
g57
(dp920
sg66
g905
sg59
(lp921
g52
(g53
g54
NtRp922
(dp923
g57
(dp924
g65
I4
ssg66
g918
sg59
(lp925
S'Mozilla/4.0 (compatible; MSIE 8.0; Windows NT 6.1; WOW64; Trident/4.0; SLCC2; .NET CLR 2.0.50727; .NET CLR 3.5.30729; .NET CLR 3.0.30729; Media Center PC 6.0; .NET4.0C; InfoPath.3; .NET4.0E)'
p926
asbasbasbag52
(g68
g54
NtRp927
(dp928
g57
(dp929
sg66
g591
sg59
(lp930
g52
(g73
g54
NtRp931
(dp932
g57
(dp933
g77
g78
ssg66
g927
sg59
(lp934
S'is_jython'
p935
asbag52
(g73
g54
NtRp936
(dp937
g57
(dp938
g84
g85
ssg66
g927
sg59
(lp939
S':'
asbag52
(g73
g54
NtRp940
(dp941
g57
(dp942
sg66
g927
sg59
(lp943
g52
(g53
g54
NtRp944
(dp945
g57
(dp946
g65
I4
ssg66
g940
sg59
(lp947
g95
asbasbasbag52
(g68
g54
NtRp948
(dp949
g57
(dp950
sg66
g591
sg59
(lp951
g52
(g73
g54
NtRp952
(dp953
g57
(dp954
g77
g78
ssg66
g948
sg59
(lp955
S'path_info'
p956
asbag52
(g73
g54
NtRp957
(dp958
g57
(dp959
g84
g85
ssg66
g948
sg59
(lp960
S':'
asbag52
(g73
g54
NtRp961
(dp962
g57
(dp963
sg66
g948
sg59
(lp964
g52
(g53
g54
NtRp965
(dp966
g57
(dp967
g65
I4
ssg66
g961
sg59
(lp968
S'/Desglosar_Emails/default/entrada_mod3'
p969
asbasbasbag52
(g68
g54
NtRp970
(dp971
g57
(dp972
sg66
g591
sg59
(lp973
g52
(g73
g54
NtRp974
(dp975
g57
(dp976
g77
g78
ssg66
g970
sg59
(lp977
S'query_string'
p978
asbag52
(g73
g54
NtRp979
(dp980
g57
(dp981
g84
g85
ssg66
g970
sg59
(lp982
S':'
asbag52
(g73
g54
NtRp983
(dp984
g57
(dp985
sg66
g970
sg59
(lp986
g52
(g53
g54
NtRp987
(dp988
g57
(dp989
g65
I4
ssg66
g983
sg59
(lp990
S''
asbasbasbag52
(g68
g54
NtRp991
(dp992
g57
(dp993
sg66
g591
sg59
(lp994
g52
(g73
g54
NtRp995
(dp996
g57
(dp997
g77
g78
ssg66
g991
sg59
(lp998
S'remote_addr'
p999
asbag52
(g73
g54
NtRp1000
(dp1001
g57
(dp1002
g84
g85
ssg66
g991
sg59
(lp1003
S':'
asbag52
(g73
g54
NtRp1004
(dp1005
g57
(dp1006
sg66
g991
sg59
(lp1007
g52
(g53
g54
NtRp1008
(dp1009
g57
(dp1010
g65
I4
ssg66
g1004
sg59
(lp1011
g185
asbasbasbag52
(g68
g54
NtRp1012
(dp1013
g57
(dp1014
sg66
g591
sg59
(lp1015
g52
(g73
g54
NtRp1016
(dp1017
g57
(dp1018
g77
g78
ssg66
g1012
sg59
(lp1019
S'remote_port'
p1020
asbag52
(g73
g54
NtRp1021
(dp1022
g57
(dp1023
g84
g85
ssg66
g1012
sg59
(lp1024
S':'
asbag52
(g73
g54
NtRp1025
(dp1026
g57
(dp1027
sg66
g1012
sg59
(lp1028
g52
(g53
g54
NtRp1029
(dp1030
g57
(dp1031
g65
I4
ssg66
g1025
sg59
(lp1032
S'62935'
p1033
asbasbasbag52
(g68
g54
NtRp1034
(dp1035
g57
(dp1036
sg66
g591
sg59
(lp1037
g52
(g73
g54
NtRp1038
(dp1039
g57
(dp1040
g77
g78
ssg66
g1034
sg59
(lp1041
S'request_method'
p1042
asbag52
(g73
g54
NtRp1043
(dp1044
g57
(dp1045
g84
g85
ssg66
g1034
sg59
(lp1046
S':'
asbag52
(g73
g54
NtRp1047
(dp1048
g57
(dp1049
sg66
g1034
sg59
(lp1050
g52
(g53
g54
NtRp1051
(dp1052
g57
(dp1053
g65
I4
ssg66
g1047
sg59
(lp1054
S'GET'
p1055
asbasbasbag52
(g68
g54
NtRp1056
(dp1057
g57
(dp1058
sg66
g591
sg59
(lp1059
g52
(g73
g54
NtRp1060
(dp1061
g57
(dp1062
g77
g78
ssg66
g1056
sg59
(lp1063
S'script_name'
p1064
asbag52
(g73
g54
NtRp1065
(dp1066
g57
(dp1067
g84
g85
ssg66
g1056
sg59
(lp1068
S':'
asbag52
(g73
g54
NtRp1069
(dp1070
g57
(dp1071
sg66
g1056
sg59
(lp1072
g52
(g53
g54
NtRp1073
(dp1074
g57
(dp1075
g65
I4
ssg66
g1069
sg59
(lp1076
S''
asbasbasbag52
(g68
g54
NtRp1077
(dp1078
g57
(dp1079
sg66
g591
sg59
(lp1080
g52
(g73
g54
NtRp1081
(dp1082
g57
(dp1083
g77
g78
ssg66
g1077
sg59
(lp1084
S'server_name'
p1085
asbag52
(g73
g54
NtRp1086
(dp1087
g57
(dp1088
g84
g85
ssg66
g1077
sg59
(lp1089
S':'
asbag52
(g73
g54
NtRp1090
(dp1091
g57
(dp1092
sg66
g1077
sg59
(lp1093
g52
(g53
g54
NtRp1094
(dp1095
g57
(dp1096
g65
I4
ssg66
g1090
sg59
(lp1097
S'Swing'
p1098
asbasbasbag52
(g68
g54
NtRp1099
(dp1100
g57
(dp1101
sg66
g591
sg59
(lp1102
g52
(g73
g54
NtRp1103
(dp1104
g57
(dp1105
g77
g78
ssg66
g1099
sg59
(lp1106
S'server_port'
p1107
asbag52
(g73
g54
NtRp1108
(dp1109
g57
(dp1110
g84
g85
ssg66
g1099
sg59
(lp1111
S':'
asbag52
(g73
g54
NtRp1112
(dp1113
g57
(dp1114
sg66
g1099
sg59
(lp1115
g52
(g53
g54
NtRp1116
(dp1117
g57
(dp1118
g65
I4
ssg66
g1112
sg59
(lp1119
S'8000'
p1120
asbasbasbag52
(g68
g54
NtRp1121
(dp1122
g57
(dp1123
sg66
g591
sg59
(lp1124
g52
(g73
g54
NtRp1125
(dp1126
g57
(dp1127
g77
g78
ssg66
g1121
sg59
(lp1128
S'server_protocol'
p1129
asbag52
(g73
g54
NtRp1130
(dp1131
g57
(dp1132
g84
g85
ssg66
g1121
sg59
(lp1133
S':'
asbag52
(g73
g54
NtRp1134
(dp1135
g57
(dp1136
sg66
g1121
sg59
(lp1137
g52
(g53
g54
NtRp1138
(dp1139
g57
(dp1140
g65
I4
ssg66
g1134
sg59
(lp1141
S'HTTP/1.1'
p1142
asbasbasbag52
(g68
g54
NtRp1143
(dp1144
g57
(dp1145
sg66
g591
sg59
(lp1146
g52
(g73
g54
NtRp1147
(dp1148
g57
(dp1149
g77
g78
ssg66
g1143
sg59
(lp1150
S'server_software'
p1151
asbag52
(g73
g54
NtRp1152
(dp1153
g57
(dp1154
g84
g85
ssg66
g1143
sg59
(lp1155
S':'
asbag52
(g73
g54
NtRp1156
(dp1157
g57
(dp1158
sg66
g1143
sg59
(lp1159
g52
(g53
g54
NtRp1160
(dp1161
g57
(dp1162
g65
I4
ssg66
g1156
sg59
(lp1163
S'Rocket 1.2.2'
p1164
asbasbasbag52
(g68
g54
NtRp1165
(dp1166
g57
(dp1167
sg66
g591
sg59
(lp1168
g52
(g73
g54
NtRp1169
(dp1170
g57
(dp1171
g77
g78
ssg66
g1165
sg59
(lp1172
S'web2py_crontype'
p1173
asbag52
(g73
g54
NtRp1174
(dp1175
g57
(dp1176
g84
g85
ssg66
g1165
sg59
(lp1177
S':'
asbag52
(g73
g54
NtRp1178
(dp1179
g57
(dp1180
sg66
g1165
sg59
(lp1181
g52
(g53
g54
NtRp1182
(dp1183
g57
(dp1184
g65
I4
ssg66
g1178
sg59
(lp1185
S'hard'
p1186
asbasbasbag52
(g68
g54
NtRp1187
(dp1188
g57
(dp1189
sg66
g591
sg59
(lp1190
g52
(g73
g54
NtRp1191
(dp1192
g57
(dp1193
g77
g78
ssg66
g1187
sg59
(lp1194
S'web2py_path'
p1195
asbag52
(g73
g54
NtRp1196
(dp1197
g57
(dp1198
g84
g85
ssg66
g1187
sg59
(lp1199
S':'
asbag52
(g73
g54
NtRp1200
(dp1201
g57
(dp1202
sg66
g1187
sg59
(lp1203
g52
(g53
g54
NtRp1204
(dp1205
g57
(dp1206
g65
I4
ssg66
g1200
sg59
(lp1207
g638
asbasbasbag52
(g68
g54
NtRp1208
(dp1209
g57
(dp1210
sg66
g591
sg59
(lp1211
g52
(g73
g54
NtRp1212
(dp1213
g57
(dp1214
g77
g78
ssg66
g1208
sg59
(lp1215
S'web2py_version'
p1216
asbag52
(g73
g54
NtRp1217
(dp1218
g57
(dp1219
g84
g85
ssg66
g1208
sg59
(lp1220
S':'
asbag52
(g73
g54
NtRp1221
(dp1222
g57
(dp1223
sg66
g1208
sg59
(lp1224
g52
(g53
g54
NtRp1225
(dp1226
g57
(dp1227
g65
I4
ssg66
g1221
sg59
(lp1228
S'Version 1.98.2 (2011-08-04 00:47:09)\n'
p1229
asbasbasbag52
(g68
g54
NtRp1230
(dp1231
g57
(dp1232
sg66
g591
sg59
(lp1233
g52
(g73
g54
NtRp1234
(dp1235
g57
(dp1236
g77
g78
ssg66
g1230
sg59
(lp1237
S'wsgi_errors'
p1238
asbag52
(g73
g54
NtRp1239
(dp1240
g57
(dp1241
g84
g85
ssg66
g1230
sg59
(lp1242
S':'
asbag52
(g73
g54
NtRp1243
(dp1244
g57
(dp1245
sg66
g1230
sg59
(lp1246
g52
(g53
g54
NtRp1247
(dp1248
g57
(dp1249
g65
I4
ssg66
g1243
sg59
(lp1250
S"<open file '<stderr>', mode 'w' at 0x003100B0>"
p1251
asbasbasbag52
(g68
g54
NtRp1252
(dp1253
g57
(dp1254
sg66
g591
sg59
(lp1255
g52
(g73
g54
NtRp1256
(dp1257
g57
(dp1258
g77
g78
ssg66
g1252
sg59
(lp1259
S'wsgi_file_wrapper'
p1260
asbag52
(g73
g54
NtRp1261
(dp1262
g57
(dp1263
g84
g85
ssg66
g1252
sg59
(lp1264
S':'
asbag52
(g73
g54
NtRp1265
(dp1266
g57
(dp1267
sg66
g1252
sg59
(lp1268
g52
(g53
g54
NtRp1269
(dp1270
g57
(dp1271
g65
I4
ssg66
g1265
sg59
(lp1272
S'<class gluon.rocket.FileWrapper at 0x02FFC1B0>'
p1273
asbasbasbag52
(g68
g54
NtRp1274
(dp1275
g57
(dp1276
sg66
g591
sg59
(lp1277
g52
(g73
g54
NtRp1278
(dp1279
g57
(dp1280
g77
g78
ssg66
g1274
sg59
(lp1281
S'wsgi_input'
p1282
asbag52
(g73
g54
NtRp1283
(dp1284
g57
(dp1285
g84
g85
ssg66
g1274
sg59
(lp1286
S':'
asbag52
(g73
g54
NtRp1287
(dp1288
g57
(dp1289
sg66
g1274
sg59
(lp1290
g52
(g53
g54
NtRp1291
(dp1292
g57
(dp1293
g65
I4
ssg66
g1287
sg59
(lp1294
S'<socket._fileobject object at 0x03071230>'
p1295
asbasbasbag52
(g68
g54
NtRp1296
(dp1297
g57
(dp1298
sg66
g591
sg59
(lp1299
g52
(g73
g54
NtRp1300
(dp1301
g57
(dp1302
g77
g78
ssg66
g1296
sg59
(lp1303
S'wsgi_multiprocess'
p1304
asbag52
(g73
g54
NtRp1305
(dp1306
g57
(dp1307
g84
g85
ssg66
g1296
sg59
(lp1308
S':'
asbag52
(g73
g54
NtRp1309
(dp1310
g57
(dp1311
sg66
g1296
sg59
(lp1312
g52
(g53
g54
NtRp1313
(dp1314
g57
(dp1315
g65
I4
ssg66
g1309
sg59
(lp1316
g95
asbasbasbag52
(g68
g54
NtRp1317
(dp1318
g57
(dp1319
sg66
g591
sg59
(lp1320
g52
(g73
g54
NtRp1321
(dp1322
g57
(dp1323
g77
g78
ssg66
g1317
sg59
(lp1324
S'wsgi_multithread'
p1325
asbag52
(g73
g54
NtRp1326
(dp1327
g57
(dp1328
g84
g85
ssg66
g1317
sg59
(lp1329
S':'
asbag52
(g73
g54
NtRp1330
(dp1331
g57
(dp1332
sg66
g1317
sg59
(lp1333
g52
(g53
g54
NtRp1334
(dp1335
g57
(dp1336
g65
I4
ssg66
g1330
sg59
(lp1337
S'True'
p1338
asbasbasbag52
(g68
g54
NtRp1339
(dp1340
g57
(dp1341
sg66
g591
sg59
(lp1342
g52
(g73
g54
NtRp1343
(dp1344
g57
(dp1345
g77
g78
ssg66
g1339
sg59
(lp1346
S'wsgi_run_once'
p1347
asbag52
(g73
g54
NtRp1348
(dp1349
g57
(dp1350
g84
g85
ssg66
g1339
sg59
(lp1351
S':'
asbag52
(g73
g54
NtRp1352
(dp1353
g57
(dp1354
sg66
g1339
sg59
(lp1355
g52
(g53
g54
NtRp1356
(dp1357
g57
(dp1358
g65
I4
ssg66
g1352
sg59
(lp1359
g95
asbasbasbag52
(g68
g54
NtRp1360
(dp1361
g57
(dp1362
sg66
g591
sg59
(lp1363
g52
(g73
g54
NtRp1364
(dp1365
g57
(dp1366
g77
g78
ssg66
g1360
sg59
(lp1367
S'wsgi_url_scheme'
p1368
asbag52
(g73
g54
NtRp1369
(dp1370
g57
(dp1371
g84
g85
ssg66
g1360
sg59
(lp1372
S':'
asbag52
(g73
g54
NtRp1373
(dp1374
g57
(dp1375
sg66
g1360
sg59
(lp1376
g52
(g53
g54
NtRp1377
(dp1378
g57
(dp1379
g65
I4
ssg66
g1373
sg59
(lp1380
S'http'
p1381
asbasbasbag52
(g68
g54
NtRp1382
(dp1383
g57
(dp1384
sg66
g591
sg59
(lp1385
g52
(g73
g54
NtRp1386
(dp1387
g57
(dp1388
g77
g78
ssg66
g1382
sg59
(lp1389
S'wsgi_version'
p1390
asbag52
(g73
g54
NtRp1391
(dp1392
g57
(dp1393
g84
g85
ssg66
g1382
sg59
(lp1394
S':'
asbag52
(g73
g54
NtRp1395
(dp1396
g57
(dp1397
sg66
g1382
sg59
(lp1398
g52
(g53
g54
NtRp1399
(dp1400
g57
(dp1401
g65
I4
ssg66
g1395
sg59
(lp1402
g52
(g61
g54
NtRp1403
(dp1404
g57
(dp1405
g65
I3
ssg66
Nsg59
(lp1406
g52
(g68
g54
NtRp1407
(dp1408
g57
(dp1409
sg66
g1403
sg59
(lp1410
g52
(g73
g54
NtRp1411
(dp1412
g57
(dp1413
sg66
g1407
sg59
(lp1414
g52
(g53
g54
NtRp1415
(dp1416
g57
(dp1417
g65
I3
ssg66
g1411
sg59
(lp1418
S'1'
asbasbasbag52
(g68
g54
NtRp1419
(dp1420
g57
(dp1421
sg66
g1403
sg59
(lp1422
g52
(g73
g54
NtRp1423
(dp1424
g57
(dp1425
sg66
g1419
sg59
(lp1426
g52
(g53
g54
NtRp1427
(dp1428
g57
(dp1429
g65
I3
ssg66
g1423
sg59
(lp1430
S'0'
asbasbasbasbasbasbasbasbasbasbasbag52
(g68
g54
NtRp1431
(dp1432
g57
(dp1433
sg66
g62
sg59
(lp1434
g52
(g73
g54
NtRp1435
(dp1436
g57
(dp1437
g77
g78
ssg66
g1431
sg59
(lp1438
S'extension'
p1439
asbag52
(g73
g54
NtRp1440
(dp1441
g57
(dp1442
g84
g85
ssg66
g1431
sg59
(lp1443
S':'
asbag52
(g73
g54
NtRp1444
(dp1445
g57
(dp1446
sg66
g1431
sg59
(lp1447
g52
(g53
g54
NtRp1448
(dp1449
g57
(dp1450
g65
I5
ssg66
g1444
sg59
(lp1451
S'html'
p1452
asbasbasbag52
(g68
g54
NtRp1453
(dp1454
g57
(dp1455
sg66
g62
sg59
(lp1456
g52
(g73
g54
NtRp1457
(dp1458
g57
(dp1459
g77
g78
ssg66
g1453
sg59
(lp1460
S'folder'
p1461
asbag52
(g73
g54
NtRp1462
(dp1463
g57
(dp1464
g84
g85
ssg66
g1453
sg59
(lp1465
S':'
asbag52
(g73
g54
NtRp1466
(dp1467
g57
(dp1468
sg66
g1453
sg59
(lp1469
g52
(g53
g54
NtRp1470
(dp1471
g57
(dp1472
g65
I5
ssg66
g1466
sg59
(lp1473
S'C:\\Users\\Atomico\\web2py\\applications\\Desglosar_Emails\\'
p1474
asbasbasbag52
(g68
g54
NtRp1475
(dp1476
g57
(dp1477
sg66
g62
sg59
(lp1478
g52
(g73
g54
NtRp1479
(dp1480
g57
(dp1481
g77
g78
ssg66
g1475
sg59
(lp1482
S'function'
p1483
asbag52
(g73
g54
NtRp1484
(dp1485
g57
(dp1486
g84
g85
ssg66
g1475
sg59
(lp1487
S':'
asbag52
(g73
g54
NtRp1488
(dp1489
g57
(dp1490
sg66
g1475
sg59
(lp1491
g52
(g53
g54
NtRp1492
(dp1493
g57
(dp1494
g65
I5
ssg66
g1488
sg59
(lp1495
S'entrada_mod3'
p1496
asbasbasbag52
(g68
g54
NtRp1497
(dp1498
g57
(dp1499
sg66
g62
sg59
(lp1500
g52
(g73
g54
NtRp1501
(dp1502
g57
(dp1503
g77
g78
ssg66
g1497
sg59
(lp1504
S'get_vars'
p1505
asbag52
(g73
g54
NtRp1506
(dp1507
g57
(dp1508
g84
g85
ssg66
g1497
sg59
(lp1509
S':'
asbag52
(g73
g54
NtRp1510
(dp1511
g57
(dp1512
sg66
g1497
sg59
(lp1513
g52
(g53
g54
NtRp1514
(dp1515
g57
(dp1516
g65
I5
ssg66
g1510
sg59
(lp1517
g52
(g61
g54
NtRp1518
(dp1519
g57
(dp1520
g65
I4
ssg66
Nsg59
(lp1521
sbasbasbasbag52
(g68
g54
NtRp1522
(dp1523
g57
(dp1524
sg66
g62
sg59
(lp1525
g52
(g73
g54
NtRp1526
(dp1527
g57
(dp1528
g77
g78
ssg66
g1522
sg59
(lp1529
S'is_https'
p1530
asbag52
(g73
g54
NtRp1531
(dp1532
g57
(dp1533
g84
g85
ssg66
g1522
sg59
(lp1534
S':'
asbag52
(g73
g54
NtRp1535
(dp1536
g57
(dp1537
sg66
g1522
sg59
(lp1538
g52
(g53
g54
NtRp1539
(dp1540
g57
(dp1541
g65
I5
ssg66
g1535
sg59
(lp1542
g95
asbasbasbag52
(g68
g54
NtRp1543
(dp1544
g57
(dp1545
sg66
g62
sg59
(lp1546
g52
(g73
g54
NtRp1547
(dp1548
g57
(dp1549
g77
g78
ssg66
g1543
sg59
(lp1550
S'is_local'
p1551
asbag52
(g73
g54
NtRp1552
(dp1553
g57
(dp1554
g84
g85
ssg66
g1543
sg59
(lp1555
S':'
asbag52
(g73
g54
NtRp1556
(dp1557
g57
(dp1558
sg66
g1543
sg59
(lp1559
g52
(g53
g54
NtRp1560
(dp1561
g57
(dp1562
g65
I5
ssg66
g1556
sg59
(lp1563
g1338
asbasbasbag52
(g68
g54
NtRp1564
(dp1565
g57
(dp1566
sg66
g62
sg59
(lp1567
g52
(g73
g54
NtRp1568
(dp1569
g57
(dp1570
g77
g78
ssg66
g1564
sg59
(lp1571
S'is_restful'
p1572
asbag52
(g73
g54
NtRp1573
(dp1574
g57
(dp1575
g84
g85
ssg66
g1564
sg59
(lp1576
S':'
asbag52
(g73
g54
NtRp1577
(dp1578
g57
(dp1579
sg66
g1564
sg59
(lp1580
g52
(g53
g54
NtRp1581
(dp1582
g57
(dp1583
g65
I5
ssg66
g1577
sg59
(lp1584
g95
asbasbasbag52
(g68
g54
NtRp1585
(dp1586
g57
(dp1587
sg66
g62
sg59
(lp1588
g52
(g73
g54
NtRp1589
(dp1590
g57
(dp1591
g77
g78
ssg66
g1585
sg59
(lp1592
S'now'
p1593
asbag52
(g73
g54
NtRp1594
(dp1595
g57
(dp1596
g84
g85
ssg66
g1585
sg59
(lp1597
S':'
asbag52
(g73
g54
NtRp1598
(dp1599
g57
(dp1600
sg66
g1585
sg59
(lp1601
g52
(g53
g54
NtRp1602
(dp1603
g57
(dp1604
g65
I5
ssg66
g1598
sg59
(lp1605
S'datetime.datetime(2011, 9, 20, 8, 48, 1, 111000)'
p1606
asbasbasbag52
(g68
g54
NtRp1607
(dp1608
g57
(dp1609
sg66
g62
sg59
(lp1610
g52
(g73
g54
NtRp1611
(dp1612
g57
(dp1613
g77
g78
ssg66
g1607
sg59
(lp1614
S'post_vars'
p1615
asbag52
(g73
g54
NtRp1616
(dp1617
g57
(dp1618
g84
g85
ssg66
g1607
sg59
(lp1619
S':'
asbag52
(g73
g54
NtRp1620
(dp1621
g57
(dp1622
sg66
g1607
sg59
(lp1623
g52
(g53
g54
NtRp1624
(dp1625
g57
(dp1626
g65
I5
ssg66
g1620
sg59
(lp1627
g52
(g61
g54
NtRp1628
(dp1629
g57
(dp1630
g65
I4
ssg66
Nsg59
(lp1631
sbasbasbasbag52
(g68
g54
NtRp1632
(dp1633
g57
(dp1634
sg66
g62
sg59
(lp1635
g52
(g73
g54
NtRp1636
(dp1637
g57
(dp1638
g77
g78
ssg66
g1632
sg59
(lp1639
S'url'
p1640
asbag52
(g73
g54
NtRp1641
(dp1642
g57
(dp1643
g84
g85
ssg66
g1632
sg59
(lp1644
S':'
asbag52
(g73
g54
NtRp1645
(dp1646
g57
(dp1647
sg66
g1632
sg59
(lp1648
g52
(g53
g54
NtRp1649
(dp1650
g57
(dp1651
g65
I5
ssg66
g1645
sg59
(lp1652
S'/Desglosar_Emails/default/entrada_mod3'
p1653
asbasbasbag52
(g68
g54
NtRp1654
(dp1655
g57
(dp1656
sg66
g62
sg59
(lp1657
g52
(g73
g54
NtRp1658
(dp1659
g57
(dp1660
g77
g78
ssg66
g1654
sg59
(lp1661
S'uuid'
p1662
asbag52
(g73
g54
NtRp1663
(dp1664
g57
(dp1665
g84
g85
ssg66
g1654
sg59
(lp1666
S':'
asbag52
(g73
g54
NtRp1667
(dp1668
g57
(dp1669
sg66
g1654
sg59
(lp1670
g52
(g53
g54
NtRp1671
(dp1672
g57
(dp1673
g65
I5
ssg66
g1667
sg59
(lp1674
S'Desglosar_Emails/127.0.0.1.2011-09-20.08-48-01.83dcc77c-258d-4106-8b60-28b2631980b4'
p1675
asbasbasbag52
(g68
g54
NtRp1676
(dp1677
g57
(dp1678
sg66
g62
sg59
(lp1679
g52
(g73
g54
NtRp1680
(dp1681
g57
(dp1682
g77
g78
ssg66
g1676
sg59
(lp1683
S'vars'
p1684
asbag52
(g73
g54
NtRp1685
(dp1686
g57
(dp1687
g84
g85
ssg66
g1676
sg59
(lp1688
S':'
asbag52
(g73
g54
NtRp1689
(dp1690
g57
(dp1691
sg66
g1676
sg59
(lp1692
g52
(g53
g54
NtRp1693
(dp1694
g57
(dp1695
g65
I5
ssg66
g1689
sg59
(lp1696
g52
(g61
g54
NtRp1697
(dp1698
g57
(dp1699
g65
I4
ssg66
Nsg59
(lp1700
sbasbasbasbag52
(g68
g54
NtRp1701
(dp1702
g57
(dp1703
sg66
g62
sg59
(lp1704
g52
(g73
g54
NtRp1705
(dp1706
g57
(dp1707
g77
g78
ssg66
g1701
sg59
(lp1708
S'wsgi'
p1709
asbag52
(g73
g54
NtRp1710
(dp1711
g57
(dp1712
g84
g85
ssg66
g1701
sg59
(lp1713
S':'
asbag52
(g73
g54
NtRp1714
(dp1715
g57
(dp1716
sg66
g1701
sg59
(lp1717
g52
(g53
g54
NtRp1718
(dp1719
g57
(dp1720
g65
I5
ssg66
g1714
sg59
(lp1721
g52
(g61
g54
NtRp1722
(dp1723
g57
(dp1724
g65
I4
ssg66
Nsg59
(lp1725
g52
(g68
g54
NtRp1726
(dp1727
g57
(dp1728
sg66
g1722
sg59
(lp1729
g52
(g73
g54
NtRp1730
(dp1731
g57
(dp1732
g77
g78
ssg66
g1726
sg59
(lp1733
S'environ'
p1734
asbag52
(g73
g54
NtRp1735
(dp1736
g57
(dp1737
g84
g85
ssg66
g1726
sg59
(lp1738
S':'
asbag52
(g73
g54
NtRp1739
(dp1740
g57
(dp1741
sg66
g1726
sg59
(lp1742
g52
(g53
g54
NtRp1743
(dp1744
g57
(dp1745
g65
I4
ssg66
g1739
sg59
(lp1746
g52
(g61
g54
NtRp1747
(dp1748
g57
(dp1749
g65
I3
ssg66
Nsg59
(lp1750
g52
(g68
g54
NtRp1751
(dp1752
g57
(dp1753
sg66
g1747
sg59
(lp1754
g52
(g73
g54
NtRp1755
(dp1756
g57
(dp1757
g77
g78
ssg66
g1751
sg59
(lp1758
S'HTTP_ACCEPT'
p1759
asbag52
(g73
g54
NtRp1760
(dp1761
g57
(dp1762
g84
g85
ssg66
g1751
sg59
(lp1763
S':'
asbag52
(g73
g54
NtRp1764
(dp1765
g57
(dp1766
sg66
g1751
sg59
(lp1767
g52
(g53
g54
NtRp1768
(dp1769
g57
(dp1770
g65
I3
ssg66
g1764
sg59
(lp1771
g772
asbasbasbag52
(g68
g54
NtRp1772
(dp1773
g57
(dp1774
sg66
g1747
sg59
(lp1775
g52
(g73
g54
NtRp1776
(dp1777
g57
(dp1778
g77
g78
ssg66
g1772
sg59
(lp1779
S'HTTP_ACCEPT_ENCODING'
p1780
asbag52
(g73
g54
NtRp1781
(dp1782
g57
(dp1783
g84
g85
ssg66
g1772
sg59
(lp1784
S':'
asbag52
(g73
g54
NtRp1785
(dp1786
g57
(dp1787
sg66
g1772
sg59
(lp1788
g52
(g53
g54
NtRp1789
(dp1790
g57
(dp1791
g65
I3
ssg66
g1785
sg59
(lp1792
g794
asbasbasbag52
(g68
g54
NtRp1793
(dp1794
g57
(dp1795
sg66
g1747
sg59
(lp1796
g52
(g73
g54
NtRp1797
(dp1798
g57
(dp1799
g77
g78
ssg66
g1793
sg59
(lp1800
S'HTTP_ACCEPT_LANGUAGE'
p1801
asbag52
(g73
g54
NtRp1802
(dp1803
g57
(dp1804
g84
g85
ssg66
g1793
sg59
(lp1805
S':'
asbag52
(g73
g54
NtRp1806
(dp1807
g57
(dp1808
sg66
g1793
sg59
(lp1809
g52
(g53
g54
NtRp1810
(dp1811
g57
(dp1812
g65
I3
ssg66
g1806
sg59
(lp1813
g816
asbasbasbag52
(g68
g54
NtRp1814
(dp1815
g57
(dp1816
sg66
g1747
sg59
(lp1817
g52
(g73
g54
NtRp1818
(dp1819
g57
(dp1820
g77
g78
ssg66
g1814
sg59
(lp1821
S'HTTP_CONNECTION'
p1822
asbag52
(g73
g54
NtRp1823
(dp1824
g57
(dp1825
g84
g85
ssg66
g1814
sg59
(lp1826
S':'
asbag52
(g73
g54
NtRp1827
(dp1828
g57
(dp1829
sg66
g1814
sg59
(lp1830
g52
(g53
g54
NtRp1831
(dp1832
g57
(dp1833
g65
I3
ssg66
g1827
sg59
(lp1834
g838
asbasbasbag52
(g68
g54
NtRp1835
(dp1836
g57
(dp1837
sg66
g1747
sg59
(lp1838
g52
(g73
g54
NtRp1839
(dp1840
g57
(dp1841
g77
g78
ssg66
g1835
sg59
(lp1842
S'HTTP_COOKIE'
p1843
asbag52
(g73
g54
NtRp1844
(dp1845
g57
(dp1846
g84
g85
ssg66
g1835
sg59
(lp1847
S':'
asbag52
(g73
g54
NtRp1848
(dp1849
g57
(dp1850
sg66
g1835
sg59
(lp1851
g52
(g53
g54
NtRp1852
(dp1853
g57
(dp1854
g65
I3
ssg66
g1848
sg59
(lp1855
g860
asbasbasbag52
(g68
g54
NtRp1856
(dp1857
g57
(dp1858
sg66
g1747
sg59
(lp1859
g52
(g73
g54
NtRp1860
(dp1861
g57
(dp1862
g77
g78
ssg66
g1856
sg59
(lp1863
S'HTTP_HOST'
p1864
asbag52
(g73
g54
NtRp1865
(dp1866
g57
(dp1867
g84
g85
ssg66
g1856
sg59
(lp1868
S':'
asbag52
(g73
g54
NtRp1869
(dp1870
g57
(dp1871
sg66
g1856
sg59
(lp1872
g52
(g53
g54
NtRp1873
(dp1874
g57
(dp1875
g65
I3
ssg66
g1869
sg59
(lp1876
g882
asbasbasbag52
(g68
g54
NtRp1877
(dp1878
g57
(dp1879
sg66
g1747
sg59
(lp1880
g52
(g73
g54
NtRp1881
(dp1882
g57
(dp1883
g77
g78
ssg66
g1877
sg59
(lp1884
S'HTTP_REFERER'
p1885
asbag52
(g73
g54
NtRp1886
(dp1887
g57
(dp1888
g84
g85
ssg66
g1877
sg59
(lp1889
S':'
asbag52
(g73
g54
NtRp1890
(dp1891
g57
(dp1892
sg66
g1877
sg59
(lp1893
g52
(g53
g54
NtRp1894
(dp1895
g57
(dp1896
g65
I3
ssg66
g1890
sg59
(lp1897
g904
asbasbasbag52
(g68
g54
NtRp1898
(dp1899
g57
(dp1900
sg66
g1747
sg59
(lp1901
g52
(g73
g54
NtRp1902
(dp1903
g57
(dp1904
g77
g78
ssg66
g1898
sg59
(lp1905
S'HTTP_USER_AGENT'
p1906
asbag52
(g73
g54
NtRp1907
(dp1908
g57
(dp1909
g84
g85
ssg66
g1898
sg59
(lp1910
S':'
asbag52
(g73
g54
NtRp1911
(dp1912
g57
(dp1913
sg66
g1898
sg59
(lp1914
g52
(g53
g54
NtRp1915
(dp1916
g57
(dp1917
g65
I3
ssg66
g1911
sg59
(lp1918
g926
asbasbasbag52
(g68
g54
NtRp1919
(dp1920
g57
(dp1921
sg66
g1747
sg59
(lp1922
g52
(g73
g54
NtRp1923
(dp1924
g57
(dp1925
g77
g78
ssg66
g1919
sg59
(lp1926
S'PATH_INFO'
p1927
asbag52
(g73
g54
NtRp1928
(dp1929
g57
(dp1930
g84
g85
ssg66
g1919
sg59
(lp1931
S':'
asbag52
(g73
g54
NtRp1932
(dp1933
g57
(dp1934
sg66
g1919
sg59
(lp1935
g52
(g53
g54
NtRp1936
(dp1937
g57
(dp1938
g65
I3
ssg66
g1932
sg59
(lp1939
g969
asbasbasbag52
(g68
g54
NtRp1940
(dp1941
g57
(dp1942
sg66
g1747
sg59
(lp1943
g52
(g73
g54
NtRp1944
(dp1945
g57
(dp1946
g77
g78
ssg66
g1940
sg59
(lp1947
S'QUERY_STRING'
p1948
asbag52
(g73
g54
NtRp1949
(dp1950
g57
(dp1951
g84
g85
ssg66
g1940
sg59
(lp1952
S':'
asbag52
(g73
g54
NtRp1953
(dp1954
g57
(dp1955
sg66
g1940
sg59
(lp1956
g52
(g53
g54
NtRp1957
(dp1958
g57
(dp1959
g65
I3
ssg66
g1953
sg59
(lp1960
S''
asbasbasbag52
(g68
g54
NtRp1961
(dp1962
g57
(dp1963
sg66
g1747
sg59
(lp1964
g52
(g73
g54
NtRp1965
(dp1966
g57
(dp1967
g77
g78
ssg66
g1961
sg59
(lp1968
S'REMOTE_ADDR'
p1969
asbag52
(g73
g54
NtRp1970
(dp1971
g57
(dp1972
g84
g85
ssg66
g1961
sg59
(lp1973
S':'
asbag52
(g73
g54
NtRp1974
(dp1975
g57
(dp1976
sg66
g1961
sg59
(lp1977
g52
(g53
g54
NtRp1978
(dp1979
g57
(dp1980
g65
I3
ssg66
g1974
sg59
(lp1981
g185
asbasbasbag52
(g68
g54
NtRp1982
(dp1983
g57
(dp1984
sg66
g1747
sg59
(lp1985
g52
(g73
g54
NtRp1986
(dp1987
g57
(dp1988
g77
g78
ssg66
g1982
sg59
(lp1989
S'REMOTE_PORT'
p1990
asbag52
(g73
g54
NtRp1991
(dp1992
g57
(dp1993
g84
g85
ssg66
g1982
sg59
(lp1994
S':'
asbag52
(g73
g54
NtRp1995
(dp1996
g57
(dp1997
sg66
g1982
sg59
(lp1998
g52
(g53
g54
NtRp1999
(dp2000
g57
(dp2001
g65
I3
ssg66
g1995
sg59
(lp2002
g1033
asbasbasbag52
(g68
g54
NtRp2003
(dp2004
g57
(dp2005
sg66
g1747
sg59
(lp2006
g52
(g73
g54
NtRp2007
(dp2008
g57
(dp2009
g77
g78
ssg66
g2003
sg59
(lp2010
S'REQUEST_METHOD'
p2011
asbag52
(g73
g54
NtRp2012
(dp2013
g57
(dp2014
g84
g85
ssg66
g2003
sg59
(lp2015
S':'
asbag52
(g73
g54
NtRp2016
(dp2017
g57
(dp2018
sg66
g2003
sg59
(lp2019
g52
(g53
g54
NtRp2020
(dp2021
g57
(dp2022
g65
I3
ssg66
g2016
sg59
(lp2023
g1055
asbasbasbag52
(g68
g54
NtRp2024
(dp2025
g57
(dp2026
sg66
g1747
sg59
(lp2027
g52
(g73
g54
NtRp2028
(dp2029
g57
(dp2030
g77
g78
ssg66
g2024
sg59
(lp2031
S'SCRIPT_NAME'
p2032
asbag52
(g73
g54
NtRp2033
(dp2034
g57
(dp2035
g84
g85
ssg66
g2024
sg59
(lp2036
S':'
asbag52
(g73
g54
NtRp2037
(dp2038
g57
(dp2039
sg66
g2024
sg59
(lp2040
g52
(g53
g54
NtRp2041
(dp2042
g57
(dp2043
g65
I3
ssg66
g2037
sg59
(lp2044
S''
asbasbasbag52
(g68
g54
NtRp2045
(dp2046
g57
(dp2047
sg66
g1747
sg59
(lp2048
g52
(g73
g54
NtRp2049
(dp2050
g57
(dp2051
g77
g78
ssg66
g2045
sg59
(lp2052
S'SERVER_NAME'
p2053
asbag52
(g73
g54
NtRp2054
(dp2055
g57
(dp2056
g84
g85
ssg66
g2045
sg59
(lp2057
S':'
asbag52
(g73
g54
NtRp2058
(dp2059
g57
(dp2060
sg66
g2045
sg59
(lp2061
g52
(g53
g54
NtRp2062
(dp2063
g57
(dp2064
g65
I3
ssg66
g2058
sg59
(lp2065
g1098
asbasbasbag52
(g68
g54
NtRp2066
(dp2067
g57
(dp2068
sg66
g1747
sg59
(lp2069
g52
(g73
g54
NtRp2070
(dp2071
g57
(dp2072
g77
g78
ssg66
g2066
sg59
(lp2073
S'SERVER_PORT'
p2074
asbag52
(g73
g54
NtRp2075
(dp2076
g57
(dp2077
g84
g85
ssg66
g2066
sg59
(lp2078
S':'
asbag52
(g73
g54
NtRp2079
(dp2080
g57
(dp2081
sg66
g2066
sg59
(lp2082
g52
(g53
g54
NtRp2083
(dp2084
g57
(dp2085
g65
I3
ssg66
g2079
sg59
(lp2086
g1120
asbasbasbag52
(g68
g54
NtRp2087
(dp2088
g57
(dp2089
sg66
g1747
sg59
(lp2090
g52
(g73
g54
NtRp2091
(dp2092
g57
(dp2093
g77
g78
ssg66
g2087
sg59
(lp2094
S'SERVER_PROTOCOL'
p2095
asbag52
(g73
g54
NtRp2096
(dp2097
g57
(dp2098
g84
g85
ssg66
g2087
sg59
(lp2099
S':'
asbag52
(g73
g54
NtRp2100
(dp2101
g57
(dp2102
sg66
g2087
sg59
(lp2103
g52
(g53
g54
NtRp2104
(dp2105
g57
(dp2106
g65
I3
ssg66
g2100
sg59
(lp2107
g1142
asbasbasbag52
(g68
g54
NtRp2108
(dp2109
g57
(dp2110
sg66
g1747
sg59
(lp2111
g52
(g73
g54
NtRp2112
(dp2113
g57
(dp2114
g77
g78
ssg66
g2108
sg59
(lp2115
S'SERVER_SOFTWARE'
p2116
asbag52
(g73
g54
NtRp2117
(dp2118
g57
(dp2119
g84
g85
ssg66
g2108
sg59
(lp2120
S':'
asbag52
(g73
g54
NtRp2121
(dp2122
g57
(dp2123
sg66
g2108
sg59
(lp2124
g52
(g53
g54
NtRp2125
(dp2126
g57
(dp2127
g65
I3
ssg66
g2121
sg59
(lp2128
g1164
asbasbasbag52
(g68
g54
NtRp2129
(dp2130
g57
(dp2131
sg66
g1747
sg59
(lp2132
g52
(g73
g54
NtRp2133
(dp2134
g57
(dp2135
g77
g78
ssg66
g2129
sg59
(lp2136
S'wsgi.errors'
p2137
asbag52
(g73
g54
NtRp2138
(dp2139
g57
(dp2140
g84
g85
ssg66
g2129
sg59
(lp2141
S':'
asbag52
(g73
g54
NtRp2142
(dp2143
g57
(dp2144
sg66
g2129
sg59
(lp2145
g52
(g53
g54
NtRp2146
(dp2147
g57
(dp2148
g65
I3
ssg66
g2142
sg59
(lp2149
S"<open file '<stderr>', mode 'w' at 0x003100B0>"
p2150
asbasbasbag52
(g68
g54
NtRp2151
(dp2152
g57
(dp2153
sg66
g1747
sg59
(lp2154
g52
(g73
g54
NtRp2155
(dp2156
g57
(dp2157
g77
g78
ssg66
g2151
sg59
(lp2158
S'wsgi.file_wrapper'
p2159
asbag52
(g73
g54
NtRp2160
(dp2161
g57
(dp2162
g84
g85
ssg66
g2151
sg59
(lp2163
S':'
asbag52
(g73
g54
NtRp2164
(dp2165
g57
(dp2166
sg66
g2151
sg59
(lp2167
g52
(g53
g54
NtRp2168
(dp2169
g57
(dp2170
g65
I3
ssg66
g2164
sg59
(lp2171
S'<class gluon.rocket.FileWrapper at 0x02FFC1B0>'
p2172
asbasbasbag52
(g68
g54
NtRp2173
(dp2174
g57
(dp2175
sg66
g1747
sg59
(lp2176
g52
(g73
g54
NtRp2177
(dp2178
g57
(dp2179
g77
g78
ssg66
g2173
sg59
(lp2180
S'wsgi.input'
p2181
asbag52
(g73
g54
NtRp2182
(dp2183
g57
(dp2184
g84
g85
ssg66
g2173
sg59
(lp2185
S':'
asbag52
(g73
g54
NtRp2186
(dp2187
g57
(dp2188
sg66
g2173
sg59
(lp2189
g52
(g53
g54
NtRp2190
(dp2191
g57
(dp2192
g65
I3
ssg66
g2186
sg59
(lp2193
S'<cStringIO.StringO object at 0x08706120>'
p2194
asbasbasbag52
(g68
g54
NtRp2195
(dp2196
g57
(dp2197
sg66
g1747
sg59
(lp2198
g52
(g73
g54
NtRp2199
(dp2200
g57
(dp2201
g77
g78
ssg66
g2195
sg59
(lp2202
S'wsgi.multiprocess'
p2203
asbag52
(g73
g54
NtRp2204
(dp2205
g57
(dp2206
g84
g85
ssg66
g2195
sg59
(lp2207
S':'
asbag52
(g73
g54
NtRp2208
(dp2209
g57
(dp2210
sg66
g2195
sg59
(lp2211
g52
(g53
g54
NtRp2212
(dp2213
g57
(dp2214
g65
I3
ssg66
g2208
sg59
(lp2215
g95
asbasbasbag52
(g68
g54
NtRp2216
(dp2217
g57
(dp2218
sg66
g1747
sg59
(lp2219
g52
(g73
g54
NtRp2220
(dp2221
g57
(dp2222
g77
g78
ssg66
g2216
sg59
(lp2223
S'wsgi.multithread'
p2224
asbag52
(g73
g54
NtRp2225
(dp2226
g57
(dp2227
g84
g85
ssg66
g2216
sg59
(lp2228
S':'
asbag52
(g73
g54
NtRp2229
(dp2230
g57
(dp2231
sg66
g2216
sg59
(lp2232
g52
(g53
g54
NtRp2233
(dp2234
g57
(dp2235
g65
I3
ssg66
g2229
sg59
(lp2236
g1338
asbasbasbag52
(g68
g54
NtRp2237
(dp2238
g57
(dp2239
sg66
g1747
sg59
(lp2240
g52
(g73
g54
NtRp2241
(dp2242
g57
(dp2243
g77
g78
ssg66
g2237
sg59
(lp2244
S'wsgi.run_once'
p2245
asbag52
(g73
g54
NtRp2246
(dp2247
g57
(dp2248
g84
g85
ssg66
g2237
sg59
(lp2249
S':'
asbag52
(g73
g54
NtRp2250
(dp2251
g57
(dp2252
sg66
g2237
sg59
(lp2253
g52
(g53
g54
NtRp2254
(dp2255
g57
(dp2256
g65
I3
ssg66
g2250
sg59
(lp2257
g95
asbasbasbag52
(g68
g54
NtRp2258
(dp2259
g57
(dp2260
sg66
g1747
sg59
(lp2261
g52
(g73
g54
NtRp2262
(dp2263
g57
(dp2264
g77
g78
ssg66
g2258
sg59
(lp2265
S'wsgi.url_scheme'
p2266
asbag52
(g73
g54
NtRp2267
(dp2268
g57
(dp2269
g84
g85
ssg66
g2258
sg59
(lp2270
S':'
asbag52
(g73
g54
NtRp2271
(dp2272
g57
(dp2273
sg66
g2258
sg59
(lp2274
g52
(g53
g54
NtRp2275
(dp2276
g57
(dp2277
g65
I3
ssg66
g2271
sg59
(lp2278
g1381
asbasbasbag52
(g68
g54
NtRp2279
(dp2280
g57
(dp2281
sg66
g1747
sg59
(lp2282
g52
(g73
g54
NtRp2283
(dp2284
g57
(dp2285
g77
g78
ssg66
g2279
sg59
(lp2286
S'wsgi.version'
p2287
asbag52
(g73
g54
NtRp2288
(dp2289
g57
(dp2290
g84
g85
ssg66
g2279
sg59
(lp2291
S':'
asbag52
(g73
g54
NtRp2292
(dp2293
g57
(dp2294
sg66
g2279
sg59
(lp2295
g52
(g53
g54
NtRp2296
(dp2297
g57
(dp2298
g65
I3
ssg66
g2292
sg59
(lp2299
S'1'
asbasbasbasbasbasbasbasbasbasbasbasbasbsS'frames'
p2300
(lp2301
(dp2302
S'file'
p2303
S'C:\\Users\\Atomico\\web2py\\gluon\\restricted.py'
p2304
sS'dump'
p2305
(dp2306
sS'lnum'
p2307
I192
sS'lines'
p2308
(dp2309
sS'call'
p2310
S'(code=\'response.write(\\\'<!DOCTYPE html>\\\\n<html lang="\\\', ...t   -->    \\\\n  </body>\\\\n</html>\\\\n\\\', escape=False)\', environment={\'A\': <class \'gluon.html.A\'>, \'B\': <class \'gluon.html.B\'>, \'BEAUTIFY\': <class \'gluon.html.BEAUTIFY\'>, \'BODY\': <class \'gluon.html.BODY\'>, \'BR\': <class \'gluon.html.BR\'>, \'BUTTON\': <class \'gluon.html.BUTTON\'>, \'CAT\': <class \'gluon.html.CAT\'>, \'CENTER\': <class \'gluon.html.CENTER\'>, \'CLEANUP\': <class \'gluon.validators.CLEANUP\'>, \'CODE\': <class \'gluon.html.CODE\'>, ...}, layer=r\'C:\\Users\\Atomico\\web2py\\applications\\Desglosar_Emails\\views\\default/entrada_mod3.html\')'
p2311
sS'func'
p2312
S'restricted'
p2313
sa(dp2314
g2303
S'C:\\Users\\Atomico\\web2py\\applications\\Desglosar_Emails\\views\\default\\entrada_mod3.html'
p2315
sg2305
(dp2316
sg2307
I124
sg2308
(dp2317
I128
S"response.write('\\r\\n<br/> s\\xc3\\xb3c el peU.\\r\\n', escape=False)"
p2318
sI129
S"response.write('\\t\\n\\t  </div>\\n\\t  <!-- content -->\\n\\n\\t  ', escape=False)"
p2319
sI130
S'if right_sidebar_enabled:'
p2320
sI131
S'    response.write(\'\\n          <div id="right_sidebar" \', escape=False)'
p2321
sI132
S'    response.write(XML(right_sidebar_style))'
p2322
sI133
S'    response.write(\' >\\n            <div style="padding: 4px;">\\n              \', escape=False)'
p2323
sI134
S"    response.write('Content Right Sidebar', escape=False)"
p2324
sI115
S'response.write(len(res2))'
p2325
sI116
S'for i in res2: response.write(i)'
p2326
sI117
S"response.write('\\r\\n<br/>\\r\\n', escape=False)"
p2327
sI118
S'i=0'
p2328
sI119
S'while i<len(res):'
p2329
sI120
S'    if patternemail.search(res[i])==False:'
p2330
sI121
S'        db.contactos.insert(nombre=res[i],email=res[i+1])'
p2331
sI122
S'        i=i+2'
p2332
sI123
S'    elif patternemail.search(res[i]):'
p2333
sI124
S'        db.contactos.insert(email=res[i])'
p2334
sI125
S'        i=i+1'
p2335
sI126
S"    else: response.write('Aqu\xc3\xad hay un problema')"
p2336
sI127
S'    pass'
p2337
ssg2310
S'()'
p2338
sg2312
S'<module>'
p2339
sa(dp2340
g2303
S'C:\\Users\\Atomico\\web2py\\gluon\\dal.py'
p2341
sg2305
(dp2342
sg2307
I4786
sg2308
(dp2343
sg2310
S"(self=<Table {'remitentesant': <gluon.dal.Field object...>, 'id': <gluon.dal.Field object at 0x08AE77B0>}>, **fields={'email': 'onkicaronki@hotmail.com'})"
p2344
sg2312
S'insert'
p2345
sa(dp2346
g2303
S'C:\\Users\\Atomico\\web2py\\gluon\\dal.py'
p2347
sg2305
(dp2348
sg2307
I844
sg2308
(dp2349
sg2310
S"(self=<gluon.dal.SQLiteAdapter object at 0x08AE7050>, table=<Table {'remitentesant': <gluon.dal.Field object...>, 'id': <gluon.dal.Field object at 0x08AE77B0>}>, fields=[(<gluon.dal.Field object at 0x08AE7FB0>, 'onkicaronki@hotmail.com')])"
p2350
sg2312
g2345
sasS'pyver'
p2351
S'Python 2.5.4: C:\\Users\\Atomico\\web2py\\web2py.exe'
p2352
sS'session'
p2353
g52
(g53
g54
NtRp2354
(dp2355
g57
(dp2356
sg59
(lp2357
g52
(g61
g54
NtRp2358
(dp2359
g57
(dp2360
g65
I5
ssg66
Nsg59
(lp2361
sbasbsS'etype'
p2362
S"<class 'sqlite3.OperationalError'>"
p2363
sS'date'
p2364
S'Tue Sep 20 08:48:06 2011'
p2365
sS'response'
p2366
g52
(g53
g54
NtRp2367
(dp2368
g57
(dp2369
sg59
(lp2370
g52
(g61
g54
NtRp2371
(dp2372
g57
(dp2373
g65
I5
ssg66
Nsg59
(lp2374
g52
(g68
g54
NtRp2375
(dp2376
g57
(dp2377
sg66
g2371
sg59
(lp2378
g52
(g73
g54
NtRp2379
(dp2380
g57
(dp2381
g77
g78
ssg66
g2375
sg59
(lp2382
g150
asbag52
(g73
g54
NtRp2383
(dp2384
g57
(dp2385
g84
g85
ssg66
g2375
sg59
(lp2386
S':'
asbag52
(g73
g54
NtRp2387
(dp2388
g57
(dp2389
sg66
g2375
sg59
(lp2390
g52
(g53
g54
NtRp2391
(dp2392
g57
(dp2393
g65
I5
ssg66
g2387
sg59
(lp2394
S'<cStringIO.StringO object at 0x07E4F5C0>'
p2395
asbasbasbag52
(g68
g54
NtRp2396
(dp2397
g57
(dp2398
sg66
g2371
sg59
(lp2399
g52
(g73
g54
NtRp2400
(dp2401
g57
(dp2402
g77
g78
ssg66
g2396
sg59
(lp2403
g216
asbag52
(g73
g54
NtRp2404
(dp2405
g57
(dp2406
g84
g85
ssg66
g2396
sg59
(lp2407
S':'
asbag52
(g73
g54
NtRp2408
(dp2409
g57
(dp2410
sg66
g2396
sg59
(lp2411
g52
(g53
g54
NtRp2412
(dp2413
g57
(dp2414
g65
I5
ssg66
g2408
sg59
(lp2415
g52
(g61
g54
NtRp2416
(dp2417
g57
(dp2418
g65
I4
ssg66
Nsg59
(lp2419
g52
(g68
g54
NtRp2420
(dp2421
g57
(dp2422
sg66
g2416
sg59
(lp2423
g52
(g73
g54
NtRp2424
(dp2425
g57
(dp2426
g77
g78
ssg66
g2420
sg59
(lp2427
S'session_id_desglosar_emails'
p2428
asbag52
(g73
g54
NtRp2429
(dp2430
g57
(dp2431
g84
g85
ssg66
g2420
sg59
(lp2432
S':'
asbag52
(g73
g54
NtRp2433
(dp2434
g57
(dp2435
sg66
g2420
sg59
(lp2436
g52
(g53
g54
NtRp2437
(dp2438
g57
(dp2439
g65
I4
ssg66
g2433
sg59
(lp2440
g52
(g61
g54
NtRp2441
(dp2442
g57
(dp2443
g65
I3
ssg66
Nsg59
(lp2444
g52
(g68
g54
NtRp2445
(dp2446
g57
(dp2447
sg66
g2441
sg59
(lp2448
g52
(g73
g54
NtRp2449
(dp2450
g57
(dp2451
g77
g78
ssg66
g2445
sg59
(lp2452
g266
asbag52
(g73
g54
NtRp2453
(dp2454
g57
(dp2455
g84
g85
ssg66
g2445
sg59
(lp2456
S':'
asbag52
(g73
g54
NtRp2457
(dp2458
g57
(dp2459
sg66
g2445
sg59
(lp2460
g52
(g53
g54
NtRp2461
(dp2462
g57
(dp2463
g65
I3
ssg66
g2457
sg59
(lp2464
S''
asbasbasbag52
(g68
g54
NtRp2465
(dp2466
g57
(dp2467
sg66
g2441
sg59
(lp2468
g52
(g73
g54
NtRp2469
(dp2470
g57
(dp2471
g77
g78
ssg66
g2465
sg59
(lp2472
g287
asbag52
(g73
g54
NtRp2473
(dp2474
g57
(dp2475
g84
g85
ssg66
g2465
sg59
(lp2476
S':'
asbag52
(g73
g54
NtRp2477
(dp2478
g57
(dp2479
sg66
g2465
sg59
(lp2480
g52
(g53
g54
NtRp2481
(dp2482
g57
(dp2483
g65
I3
ssg66
g2477
sg59
(lp2484
S''
asbasbasbag52
(g68
g54
NtRp2485
(dp2486
g57
(dp2487
sg66
g2441
sg59
(lp2488
g52
(g73
g54
NtRp2489
(dp2490
g57
(dp2491
g77
g78
ssg66
g2485
sg59
(lp2492
g308
asbag52
(g73
g54
NtRp2493
(dp2494
g57
(dp2495
g84
g85
ssg66
g2485
sg59
(lp2496
S':'
asbag52
(g73
g54
NtRp2497
(dp2498
g57
(dp2499
sg66
g2485
sg59
(lp2500
g52
(g53
g54
NtRp2501
(dp2502
g57
(dp2503
g65
I3
ssg66
g2497
sg59
(lp2504
S''
asbasbasbag52
(g68
g54
NtRp2505
(dp2506
g57
(dp2507
sg66
g2441
sg59
(lp2508
g52
(g73
g54
NtRp2509
(dp2510
g57
(dp2511
g77
g78
ssg66
g2505
sg59
(lp2512
g329
asbag52
(g73
g54
NtRp2513
(dp2514
g57
(dp2515
g84
g85
ssg66
g2505
sg59
(lp2516
S':'
asbag52
(g73
g54
NtRp2517
(dp2518
g57
(dp2519
sg66
g2505
sg59
(lp2520
g52
(g53
g54
NtRp2521
(dp2522
g57
(dp2523
g65
I3
ssg66
g2517
sg59
(lp2524
S''
asbasbasbag52
(g68
g54
NtRp2525
(dp2526
g57
(dp2527
sg66
g2441
sg59
(lp2528
g52
(g73
g54
NtRp2529
(dp2530
g57
(dp2531
g77
g78
ssg66
g2525
sg59
(lp2532
g350
asbag52
(g73
g54
NtRp2533
(dp2534
g57
(dp2535
g84
g85
ssg66
g2525
sg59
(lp2536
S':'
asbag52
(g73
g54
NtRp2537
(dp2538
g57
(dp2539
sg66
g2525
sg59
(lp2540
g52
(g53
g54
NtRp2541
(dp2542
g57
(dp2543
g65
I3
ssg66
g2537
sg59
(lp2544
S'/'
asbasbasbag52
(g68
g54
NtRp2545
(dp2546
g57
(dp2547
sg66
g2441
sg59
(lp2548
g52
(g73
g54
NtRp2549
(dp2550
g57
(dp2551
g77
g78
ssg66
g2545
sg59
(lp2552
g371
asbag52
(g73
g54
NtRp2553
(dp2554
g57
(dp2555
g84
g85
ssg66
g2545
sg59
(lp2556
S':'
asbag52
(g73
g54
NtRp2557
(dp2558
g57
(dp2559
sg66
g2545
sg59
(lp2560
g52
(g53
g54
NtRp2561
(dp2562
g57
(dp2563
g65
I3
ssg66
g2557
sg59
(lp2564
S''
asbasbasbag52
(g68
g54
NtRp2565
(dp2566
g57
(dp2567
sg66
g2441
sg59
(lp2568
g52
(g73
g54
NtRp2569
(dp2570
g57
(dp2571
g77
g78
ssg66
g2565
sg59
(lp2572
g392
asbag52
(g73
g54
NtRp2573
(dp2574
g57
(dp2575
g84
g85
ssg66
g2565
sg59
(lp2576
S':'
asbag52
(g73
g54
NtRp2577
(dp2578
g57
(dp2579
sg66
g2565
sg59
(lp2580
g52
(g53
g54
NtRp2581
(dp2582
g57
(dp2583
g65
I3
ssg66
g2577
sg59
(lp2584
S''
asbasbasbasbasbasbasbasbasbasbasbag52
(g68
g54
NtRp2585
(dp2586
g57
(dp2587
sg66
g2371
sg59
(lp2588
g52
(g73
g54
NtRp2589
(dp2590
g57
(dp2591
g77
g78
ssg66
g2585
sg59
(lp2592
S'files'
p2593
asbag52
(g73
g54
NtRp2594
(dp2595
g57
(dp2596
g84
g85
ssg66
g2585
sg59
(lp2597
S':'
asbag52
(g73
g54
NtRp2598
(dp2599
g57
(dp2600
sg66
g2585
sg59
(lp2601
g52
(g53
g54
NtRp2602
(dp2603
g57
(dp2604
g65
I5
ssg66
g2598
sg59
(lp2605
g52
(g61
g54
NtRp2606
(dp2607
g57
(dp2608
g65
I4
ssg66
Nsg59
(lp2609
g52
(g68
g54
NtRp2610
(dp2611
g57
(dp2612
sg66
g2606
sg59
(lp2613
g52
(g73
g54
NtRp2614
(dp2615
g57
(dp2616
sg66
g2610
sg59
(lp2617
g52
(g53
g54
NtRp2618
(dp2619
g57
(dp2620
g65
I4
ssg66
g2614
sg59
(lp2621
S'/Desglosar_Emails/static/js/jquery.js'
p2622
asbasbasbag52
(g68
g54
NtRp2623
(dp2624
g57
(dp2625
sg66
g2606
sg59
(lp2626
g52
(g73
g54
NtRp2627
(dp2628
g57
(dp2629
sg66
g2623
sg59
(lp2630
g52
(g53
g54
NtRp2631
(dp2632
g57
(dp2633
g65
I4
ssg66
g2627
sg59
(lp2634
S'/Desglosar_Emails/static/css/calendar.css'
p2635
asbasbasbag52
(g68
g54
NtRp2636
(dp2637
g57
(dp2638
sg66
g2606
sg59
(lp2639
g52
(g73
g54
NtRp2640
(dp2641
g57
(dp2642
sg66
g2636
sg59
(lp2643
g52
(g53
g54
NtRp2644
(dp2645
g57
(dp2646
g65
I4
ssg66
g2640
sg59
(lp2647
S'/Desglosar_Emails/static/js/calendar.js'
p2648
asbasbasbag52
(g68
g54
NtRp2649
(dp2650
g57
(dp2651
sg66
g2606
sg59
(lp2652
g52
(g73
g54
NtRp2653
(dp2654
g57
(dp2655
sg66
g2649
sg59
(lp2656
g52
(g53
g54
NtRp2657
(dp2658
g57
(dp2659
g65
I4
ssg66
g2653
sg59
(lp2660
S'/Desglosar_Emails/static/css/base.css'
p2661
asbasbasbag52
(g68
g54
NtRp2662
(dp2663
g57
(dp2664
sg66
g2606
sg59
(lp2665
g52
(g73
g54
NtRp2666
(dp2667
g57
(dp2668
sg66
g2662
sg59
(lp2669
g52
(g53
g54
NtRp2670
(dp2671
g57
(dp2672
g65
I4
ssg66
g2666
sg59
(lp2673
S'/Desglosar_Emails/static/css/superfish.css'
p2674
asbasbasbag52
(g68
g54
NtRp2675
(dp2676
g57
(dp2677
sg66
g2606
sg59
(lp2678
g52
(g73
g54
NtRp2679
(dp2680
g57
(dp2681
sg66
g2675
sg59
(lp2682
g52
(g53
g54
NtRp2683
(dp2684
g57
(dp2685
g65
I4
ssg66
g2679
sg59
(lp2686
S'/Desglosar_Emails/static/js/superfish.js'
p2687
asbasbasbasbasbasbasbag52
(g68
g54
NtRp2688
(dp2689
g57
(dp2690
sg66
g2371
sg59
(lp2691
g52
(g73
g54
NtRp2692
(dp2693
g57
(dp2694
g77
g78
ssg66
g2688
sg59
(lp2695
S'flash'
p2696
asbag52
(g73
g54
NtRp2697
(dp2698
g57
(dp2699
g84
g85
ssg66
g2688
sg59
(lp2700
S':'
asbag52
(g73
g54
NtRp2701
(dp2702
g57
(dp2703
sg66
g2688
sg59
(lp2704
g52
(g53
g54
NtRp2705
(dp2706
g57
(dp2707
g65
I5
ssg66
g2701
sg59
(lp2708
S''
asbasbasbag52
(g68
g54
NtRp2709
(dp2710
g57
(dp2711
sg66
g2371
sg59
(lp2712
g52
(g73
g54
NtRp2713
(dp2714
g57
(dp2715
g77
g78
ssg66
g2709
sg59
(lp2716
S'generic_patterns'
p2717
asbag52
(g73
g54
NtRp2718
(dp2719
g57
(dp2720
g84
g85
ssg66
g2709
sg59
(lp2721
S':'
asbag52
(g73
g54
NtRp2722
(dp2723
g57
(dp2724
sg66
g2709
sg59
(lp2725
g52
(g53
g54
NtRp2726
(dp2727
g57
(dp2728
g65
I5
ssg66
g2722
sg59
(lp2729
g52
(g61
g54
NtRp2730
(dp2731
g57
(dp2732
g65
I4
ssg66
Nsg59
(lp2733
sbasbasbasbag52
(g68
g54
NtRp2734
(dp2735
g57
(dp2736
sg66
g2371
sg59
(lp2737
g52
(g73
g54
NtRp2738
(dp2739
g57
(dp2740
g77
g78
ssg66
g2734
sg59
(lp2741
S'headers'
p2742
asbag52
(g73
g54
NtRp2743
(dp2744
g57
(dp2745
g84
g85
ssg66
g2734
sg59
(lp2746
S':'
asbag52
(g73
g54
NtRp2747
(dp2748
g57
(dp2749
sg66
g2734
sg59
(lp2750
g52
(g53
g54
NtRp2751
(dp2752
g57
(dp2753
g65
I5
ssg66
g2747
sg59
(lp2754
g52
(g61
g54
NtRp2755
(dp2756
g57
(dp2757
g65
I4
ssg66
Nsg59
(lp2758
g52
(g68
g54
NtRp2759
(dp2760
g57
(dp2761
sg66
g2755
sg59
(lp2762
g52
(g73
g54
NtRp2763
(dp2764
g57
(dp2765
g77
g78
ssg66
g2759
sg59
(lp2766
S'Cache-Control'
p2767
asbag52
(g73
g54
NtRp2768
(dp2769
g57
(dp2770
g84
g85
ssg66
g2759
sg59
(lp2771
S':'
asbag52
(g73
g54
NtRp2772
(dp2773
g57
(dp2774
sg66
g2759
sg59
(lp2775
g52
(g53
g54
NtRp2776
(dp2777
g57
(dp2778
g65
I4
ssg66
g2772
sg59
(lp2779
S'no-store, no-cache, must-revalidate, post-check=0, pre-check=0'
p2780
asbasbasbag52
(g68
g54
NtRp2781
(dp2782
g57
(dp2783
sg66
g2755
sg59
(lp2784
g52
(g73
g54
NtRp2785
(dp2786
g57
(dp2787
g77
g78
ssg66
g2781
sg59
(lp2788
S'Content-Type'
p2789
asbag52
(g73
g54
NtRp2790
(dp2791
g57
(dp2792
g84
g85
ssg66
g2781
sg59
(lp2793
S':'
asbag52
(g73
g54
NtRp2794
(dp2795
g57
(dp2796
sg66
g2781
sg59
(lp2797
g52
(g53
g54
NtRp2798
(dp2799
g57
(dp2800
g65
I4
ssg66
g2794
sg59
(lp2801
S'text/html; charset=utf-8'
p2802
asbasbasbag52
(g68
g54
NtRp2803
(dp2804
g57
(dp2805
sg66
g2755
sg59
(lp2806
g52
(g73
g54
NtRp2807
(dp2808
g57
(dp2809
g77
g78
ssg66
g2803
sg59
(lp2810
S'Expires'
p2811
asbag52
(g73
g54
NtRp2812
(dp2813
g57
(dp2814
g84
g85
ssg66
g2803
sg59
(lp2815
S':'
asbag52
(g73
g54
NtRp2816
(dp2817
g57
(dp2818
sg66
g2803
sg59
(lp2819
g52
(g53
g54
NtRp2820
(dp2821
g57
(dp2822
g65
I4
ssg66
g2816
sg59
(lp2823
S'Tue, 20 Sep 2011 06:48:01 GMT'
p2824
asbasbasbag52
(g68
g54
NtRp2825
(dp2826
g57
(dp2827
sg66
g2755
sg59
(lp2828
g52
(g73
g54
NtRp2829
(dp2830
g57
(dp2831
g77
g78
ssg66
g2825
sg59
(lp2832
S'Pragma'
p2833
asbag52
(g73
g54
NtRp2834
(dp2835
g57
(dp2836
g84
g85
ssg66
g2825
sg59
(lp2837
S':'
asbag52
(g73
g54
NtRp2838
(dp2839
g57
(dp2840
sg66
g2825
sg59
(lp2841
g52
(g53
g54
NtRp2842
(dp2843
g57
(dp2844
g65
I4
ssg66
g2838
sg59
(lp2845
S'no-cache'
p2846
asbasbasbag52
(g68
g54
NtRp2847
(dp2848
g57
(dp2849
sg66
g2755
sg59
(lp2850
g52
(g73
g54
NtRp2851
(dp2852
g57
(dp2853
g77
g78
ssg66
g2847
sg59
(lp2854
S'X-Powered-By'
p2855
asbag52
(g73
g54
NtRp2856
(dp2857
g57
(dp2858
g84
g85
ssg66
g2847
sg59
(lp2859
S':'
asbag52
(g73
g54
NtRp2860
(dp2861
g57
(dp2862
sg66
g2847
sg59
(lp2863
g52
(g53
g54
NtRp2864
(dp2865
g57
(dp2866
g65
I4
ssg66
g2860
sg59
(lp2867
S'web2py'
p2868
asbasbasbasbasbasbasbag52
(g68
g54
NtRp2869
(dp2870
g57
(dp2871
sg66
g2371
sg59
(lp2872
g52
(g73
g54
NtRp2873
(dp2874
g57
(dp2875
g77
g78
ssg66
g2869
sg59
(lp2876
S'menu'
p2877
asbag52
(g73
g54
NtRp2878
(dp2879
g57
(dp2880
g84
g85
ssg66
g2869
sg59
(lp2881
S':'
asbag52
(g73
g54
NtRp2882
(dp2883
g57
(dp2884
sg66
g2869
sg59
(lp2885
g52
(g53
g54
NtRp2886
(dp2887
g57
(dp2888
g65
I5
ssg66
g2882
sg59
(lp2889
g52
(g61
g54
NtRp2890
(dp2891
g57
(dp2892
g65
I4
ssg66
Nsg59
(lp2893
g52
(g68
g54
NtRp2894
(dp2895
g57
(dp2896
sg66
g2890
sg59
(lp2897
g52
(g73
g54
NtRp2898
(dp2899
g57
(dp2900
sg66
g2894
sg59
(lp2901
g52
(g53
g54
NtRp2902
(dp2903
g57
(dp2904
g65
I4
ssg66
g2898
sg59
(lp2905
g52
(g61
g54
NtRp2906
(dp2907
g57
(dp2908
g65
I3
ssg66
Nsg59
(lp2909
g52
(g68
g54
NtRp2910
(dp2911
g57
(dp2912
sg66
g2906
sg59
(lp2913
g52
(g73
g54
NtRp2914
(dp2915
g57
(dp2916
sg66
g2910
sg59
(lp2917
g52
(g53
g54
NtRp2918
(dp2919
g57
(dp2920
g65
I3
ssg66
g2914
sg59
(lp2921
cgluon.languages
lazyT_unpickle
p2922
(S't\x04\x00\x00\x00Home'
tRp2923
asbasbasbag52
(g68
g54
NtRp2924
(dp2925
g57
(dp2926
sg66
g2906
sg59
(lp2927
g52
(g73
g54
NtRp2928
(dp2929
g57
(dp2930
sg66
g2924
sg59
(lp2931
g52
(g53
g54
NtRp2932
(dp2933
g57
(dp2934
g65
I3
ssg66
g2928
sg59
(lp2935
g95
asbasbasbag52
(g68
g54
NtRp2936
(dp2937
g57
(dp2938
sg66
g2906
sg59
(lp2939
g52
(g73
g54
NtRp2940
(dp2941
g57
(dp2942
sg66
g2936
sg59
(lp2943
g52
(g53
g54
NtRp2944
(dp2945
g57
(dp2946
g65
I3
ssg66
g2940
sg59
(lp2947
S'/Desglosar_Emails/default/index'
p2948
asbasbasbag52
(g68
g54
NtRp2949
(dp2950
g57
(dp2951
sg66
g2906
sg59
(lp2952
g52
(g73
g54
NtRp2953
(dp2954
g57
(dp2955
sg66
g2949
sg59
(lp2956
g52
(g53
g54
NtRp2957
(dp2958
g57
(dp2959
g65
I3
ssg66
g2953
sg59
(lp2960
g52
(g61
g54
NtRp2961
(dp2962
g57
(dp2963
g65
I2
ssg66
Nsg59
(lp2964
sbasbasbasbasbasbasbasbag52
(g68
g54
NtRp2965
(dp2966
g57
(dp2967
sg66
g2890
sg59
(lp2968
g52
(g73
g54
NtRp2969
(dp2970
g57
(dp2971
sg66
g2965
sg59
(lp2972
g52
(g53
g54
NtRp2973
(dp2974
g57
(dp2975
g65
I4
ssg66
g2969
sg59
(lp2976
g52
(g61
g54
NtRp2977
(dp2978
g57
(dp2979
g65
I3
ssg66
Nsg59
(lp2980
g52
(g68
g54
NtRp2981
(dp2982
g57
(dp2983
sg66
g2977
sg59
(lp2984
g52
(g73
g54
NtRp2985
(dp2986
g57
(dp2987
sg66
g2981
sg59
(lp2988
g52
(g53
g54
NtRp2989
(dp2990
g57
(dp2991
g65
I3
ssg66
g2985
sg59
(lp2992
g2922
(S's\x08\x00\x00\x00This App'
tRp2993
asbasbasbag52
(g68
g54
NtRp2994
(dp2995
g57
(dp2996
sg66
g2977
sg59
(lp2997
g52
(g73
g54
NtRp2998
(dp2999
g57
(dp3000
sg66
g2994
sg59
(lp3001
g52
(g53
g54
NtRp3002
(dp3003
g57
(dp3004
g65
I3
ssg66
g2998
sg59
(lp3005
g95
asbasbasbag52
(g68
g54
NtRp3006
(dp3007
g57
(dp3008
sg66
g2977
sg59
(lp3009
g52
(g73
g54
NtRp3010
(dp3011
g57
(dp3012
sg66
g3006
sg59
(lp3013
g52
(g53
g54
NtRp3014
(dp3015
g57
(dp3016
g65
I3
ssg66
g3010
sg59
(lp3017
S'/admin/default/design/Desglosar_Emails'
p3018
asbasbasbag52
(g68
g54
NtRp3019
(dp3020
g57
(dp3021
sg66
g2977
sg59
(lp3022
g52
(g73
g54
NtRp3023
(dp3024
g57
(dp3025
sg66
g3019
sg59
(lp3026
g52
(g53
g54
NtRp3027
(dp3028
g57
(dp3029
g65
I3
ssg66
g3023
sg59
(lp3030
g52
(g61
g54
NtRp3031
(dp3032
g57
(dp3033
g65
I2
ssg66
Nsg59
(lp3034
g52
(g68
g54
NtRp3035
(dp3036
g57
(dp3037
sg66
g3031
sg59
(lp3038
g52
(g73
g54
NtRp3039
(dp3040
g57
(dp3041
sg66
g3035
sg59
(lp3042
g52
(g53
g54
NtRp3043
(dp3044
g57
(dp3045
g65
I2
ssg66
g3039
sg59
(lp3046
g52
(g61
g54
NtRp3047
(dp3048
g57
(dp3049
g65
I1
ssg66
Nsg59
(lp3050
g52
(g68
g54
NtRp3051
(dp3052
g57
(dp3053
sg66
g3047
sg59
(lp3054
g52
(g73
g54
NtRp3055
(dp3056
g57
(dp3057
sg66
g3051
sg59
(lp3058
g52
(g53
g54
NtRp3059
(dp3060
g57
(dp3061
g65
I1
ssg66
g3055
sg59
(lp3062
g2922
(S't\x0b\x00\x00\x00Controlador'
tRp3063
asbasbasbag52
(g68
g54
NtRp3064
(dp3065
g57
(dp3066
sg66
g3047
sg59
(lp3067
g52
(g73
g54
NtRp3068
(dp3069
g57
(dp3070
sg66
g3064
sg59
(lp3071
g52
(g53
g54
NtRp3072
(dp3073
g57
(dp3074
g65
I1
ssg66
g3068
sg59
(lp3075
I00
asbasbasbag52
(g68
g54
NtRp3076
(dp3077
g57
(dp3078
sg66
g3047
sg59
(lp3079
g52
(g73
g54
NtRp3080
(dp3081
g57
(dp3082
sg66
g3076
sg59
(lp3083
g52
(g53
g54
NtRp3084
(dp3085
g57
(dp3086
g65
I1
ssg66
g3080
sg59
(lp3087
S'/admin/default/edit/Desglosar_Emails/controllers/default.py'
p3088
asbasbasbasbasbasbasbag52
(g68
g54
NtRp3089
(dp3090
g57
(dp3091
sg66
g3031
sg59
(lp3092
g52
(g73
g54
NtRp3093
(dp3094
g57
(dp3095
sg66
g3089
sg59
(lp3096
g52
(g53
g54
NtRp3097
(dp3098
g57
(dp3099
g65
I2
ssg66
g3093
sg59
(lp3100
g52
(g61
g54
NtRp3101
(dp3102
g57
(dp3103
g65
I1
ssg66
Nsg59
(lp3104
g52
(g68
g54
NtRp3105
(dp3106
g57
(dp3107
sg66
g3101
sg59
(lp3108
g52
(g73
g54
NtRp3109
(dp3110
g57
(dp3111
sg66
g3105
sg59
(lp3112
g52
(g53
g54
NtRp3113
(dp3114
g57
(dp3115
g65
I1
ssg66
g3109
sg59
(lp3116
g2922
(S't\x05\x00\x00\x00Vista'
tRp3117
asbasbasbag52
(g68
g54
NtRp3118
(dp3119
g57
(dp3120
sg66
g3101
sg59
(lp3121
g52
(g73
g54
NtRp3122
(dp3123
g57
(dp3124
sg66
g3118
sg59
(lp3125
g52
(g53
g54
NtRp3126
(dp3127
g57
(dp3128
g65
I1
ssg66
g3122
sg59
(lp3129
I00
asbasbasbag52
(g68
g54
NtRp3130
(dp3131
g57
(dp3132
sg66
g3101
sg59
(lp3133
g52
(g73
g54
NtRp3134
(dp3135
g57
(dp3136
sg66
g3130
sg59
(lp3137
g52
(g53
g54
NtRp3138
(dp3139
g57
(dp3140
g65
I1
ssg66
g3134
sg59
(lp3141
S'/admin/default/edit/Desglosar_Emails/views/default/entrada_mod3.html'
p3142
asbasbasbasbasbasbasbag52
(g68
g54
NtRp3143
(dp3144
g57
(dp3145
sg66
g3031
sg59
(lp3146
g52
(g73
g54
NtRp3147
(dp3148
g57
(dp3149
sg66
g3143
sg59
(lp3150
g52
(g53
g54
NtRp3151
(dp3152
g57
(dp3153
g65
I2
ssg66
g3147
sg59
(lp3154
g52
(g61
g54
NtRp3155
(dp3156
g57
(dp3157
g65
I1
ssg66
Nsg59
(lp3158
g52
(g68
g54
NtRp3159
(dp3160
g57
(dp3161
sg66
g3155
sg59
(lp3162
g52
(g73
g54
NtRp3163
(dp3164
g57
(dp3165
sg66
g3159
sg59
(lp3166
g52
(g53
g54
NtRp3167
(dp3168
g57
(dp3169
g65
I1
ssg66
g3163
sg59
(lp3170
g2922
(S's\x12\x00\x00\x00Dise\xc3\xb1o de p\xc3\xa1gina'
tRp3171
asbasbasbag52
(g68
g54
NtRp3172
(dp3173
g57
(dp3174
sg66
g3155
sg59
(lp3175
g52
(g73
g54
NtRp3176
(dp3177
g57
(dp3178
sg66
g3172
sg59
(lp3179
g52
(g53
g54
NtRp3180
(dp3181
g57
(dp3182
g65
I1
ssg66
g3176
sg59
(lp3183
I00
asbasbasbag52
(g68
g54
NtRp3184
(dp3185
g57
(dp3186
sg66
g3155
sg59
(lp3187
g52
(g73
g54
NtRp3188
(dp3189
g57
(dp3190
sg66
g3184
sg59
(lp3191
g52
(g53
g54
NtRp3192
(dp3193
g57
(dp3194
g65
I1
ssg66
g3188
sg59
(lp3195
S'/admin/default/edit/Desglosar_Emails/views/layout.html'
p3196
asbasbasbasbasbasbasbag52
(g68
g54
NtRp3197
(dp3198
g57
(dp3199
sg66
g3031
sg59
(lp3200
g52
(g73
g54
NtRp3201
(dp3202
g57
(dp3203
sg66
g3197
sg59
(lp3204
g52
(g53
g54
NtRp3205
(dp3206
g57
(dp3207
g65
I2
ssg66
g3201
sg59
(lp3208
g52
(g61
g54
NtRp3209
(dp3210
g57
(dp3211
g65
I1
ssg66
Nsg59
(lp3212
g52
(g68
g54
NtRp3213
(dp3214
g57
(dp3215
sg66
g3209
sg59
(lp3216
g52
(g73
g54
NtRp3217
(dp3218
g57
(dp3219
sg66
g3213
sg59
(lp3220
g52
(g53
g54
NtRp3221
(dp3222
g57
(dp3223
g65
I1
ssg66
g3217
sg59
(lp3224
g2922
(S's\x0e\x00\x00\x00Hoja de estilo'
tRp3225
asbasbasbag52
(g68
g54
NtRp3226
(dp3227
g57
(dp3228
sg66
g3209
sg59
(lp3229
g52
(g73
g54
NtRp3230
(dp3231
g57
(dp3232
sg66
g3226
sg59
(lp3233
g52
(g53
g54
NtRp3234
(dp3235
g57
(dp3236
g65
I1
ssg66
g3230
sg59
(lp3237
I00
asbasbasbag52
(g68
g54
NtRp3238
(dp3239
g57
(dp3240
sg66
g3209
sg59
(lp3241
g52
(g73
g54
NtRp3242
(dp3243
g57
(dp3244
sg66
g3238
sg59
(lp3245
g52
(g53
g54
NtRp3246
(dp3247
g57
(dp3248
g65
I1
ssg66
g3242
sg59
(lp3249
S'/admin/default/edit/Desglosar_Emails/static/base.css'
p3250
asbasbasbasbasbasbasbag52
(g68
g54
NtRp3251
(dp3252
g57
(dp3253
sg66
g3031
sg59
(lp3254
g52
(g73
g54
NtRp3255
(dp3256
g57
(dp3257
sg66
g3251
sg59
(lp3258
g52
(g53
g54
NtRp3259
(dp3260
g57
(dp3261
g65
I2
ssg66
g3255
sg59
(lp3262
g52
(g61
g54
NtRp3263
(dp3264
g57
(dp3265
g65
I1
ssg66
Nsg59
(lp3266
g52
(g68
g54
NtRp3267
(dp3268
g57
(dp3269
sg66
g3263
sg59
(lp3270
g52
(g73
g54
NtRp3271
(dp3272
g57
(dp3273
sg66
g3267
sg59
(lp3274
g52
(g53
g54
NtRp3275
(dp3276
g57
(dp3277
g65
I1
ssg66
g3271
sg59
(lp3278
g2922
(S's\x0b\x00\x00\x00Modelo "db"'
tRp3279
asbasbasbag52
(g68
g54
NtRp3280
(dp3281
g57
(dp3282
sg66
g3263
sg59
(lp3283
g52
(g73
g54
NtRp3284
(dp3285
g57
(dp3286
sg66
g3280
sg59
(lp3287
g52
(g53
g54
NtRp3288
(dp3289
g57
(dp3290
g65
I1
ssg66
g3284
sg59
(lp3291
I00
asbasbasbag52
(g68
g54
NtRp3292
(dp3293
g57
(dp3294
sg66
g3263
sg59
(lp3295
g52
(g73
g54
NtRp3296
(dp3297
g57
(dp3298
sg66
g3292
sg59
(lp3299
g52
(g53
g54
NtRp3300
(dp3301
g57
(dp3302
g65
I1
ssg66
g3296
sg59
(lp3303
S'/admin/default/edit/Desglosar_Emails/models/db.py'
p3304
asbasbasbasbasbasbasbag52
(g68
g54
NtRp3305
(dp3306
g57
(dp3307
sg66
g3031
sg59
(lp3308
g52
(g73
g54
NtRp3309
(dp3310
g57
(dp3311
sg66
g3305
sg59
(lp3312
g52
(g53
g54
NtRp3313
(dp3314
g57
(dp3315
g65
I2
ssg66
g3309
sg59
(lp3316
g52
(g61
g54
NtRp3317
(dp3318
g57
(dp3319
g65
I1
ssg66
Nsg59
(lp3320
g52
(g68
g54
NtRp3321
(dp3322
g57
(dp3323
sg66
g3317
sg59
(lp3324
g52
(g73
g54
NtRp3325
(dp3326
g57
(dp3327
sg66
g3321
sg59
(lp3328
g52
(g53
g54
NtRp3329
(dp3330
g57
(dp3331
g65
I1
ssg66
g3325
sg59
(lp3332
g2922
(S's\r\x00\x00\x00Modelo "menu"'
tRp3333
asbasbasbag52
(g68
g54
NtRp3334
(dp3335
g57
(dp3336
sg66
g3317
sg59
(lp3337
g52
(g73
g54
NtRp3338
(dp3339
g57
(dp3340
sg66
g3334
sg59
(lp3341
g52
(g53
g54
NtRp3342
(dp3343
g57
(dp3344
g65
I1
ssg66
g3338
sg59
(lp3345
I00
asbasbasbag52
(g68
g54
NtRp3346
(dp3347
g57
(dp3348
sg66
g3317
sg59
(lp3349
g52
(g73
g54
NtRp3350
(dp3351
g57
(dp3352
sg66
g3346
sg59
(lp3353
g52
(g53
g54
NtRp3354
(dp3355
g57
(dp3356
g65
I1
ssg66
g3350
sg59
(lp3357
S'/admin/default/edit/Desglosar_Emails/models/menu.py'
p3358
asbasbasbasbasbasbasbag52
(g68
g54
NtRp3359
(dp3360
g57
(dp3361
sg66
g3031
sg59
(lp3362
g52
(g73
g54
NtRp3363
(dp3364
g57
(dp3365
sg66
g3359
sg59
(lp3366
g52
(g53
g54
NtRp3367
(dp3368
g57
(dp3369
g65
I2
ssg66
g3363
sg59
(lp3370
g52
(g61
g54
NtRp3371
(dp3372
g57
(dp3373
g65
I1
ssg66
Nsg59
(lp3374
g52
(g68
g54
NtRp3375
(dp3376
g57
(dp3377
sg66
g3371
sg59
(lp3378
g52
(g73
g54
NtRp3379
(dp3380
g57
(dp3381
sg66
g3375
sg59
(lp3382
g52
(g53
g54
NtRp3383
(dp3384
g57
(dp3385
g65
I1
ssg66
g3379
sg59
(lp3386
g2922
(S's\r\x00\x00\x00Base de datos'
tRp3387
asbasbasbag52
(g68
g54
NtRp3388
(dp3389
g57
(dp3390
sg66
g3371
sg59
(lp3391
g52
(g73
g54
NtRp3392
(dp3393
g57
(dp3394
sg66
g3388
sg59
(lp3395
g52
(g53
g54
NtRp3396
(dp3397
g57
(dp3398
g65
I1
ssg66
g3392
sg59
(lp3399
I00
asbasbasbag52
(g68
g54
NtRp3400
(dp3401
g57
(dp3402
sg66
g3371
sg59
(lp3403
g52
(g73
g54
NtRp3404
(dp3405
g57
(dp3406
sg66
g3400
sg59
(lp3407
g52
(g53
g54
NtRp3408
(dp3409
g57
(dp3410
g65
I1
ssg66
g3404
sg59
(lp3411
S'/Desglosar_Emails/appadmin/index'
p3412
asbasbasbasbasbasbasbag52
(g68
g54
NtRp3413
(dp3414
g57
(dp3415
sg66
g3031
sg59
(lp3416
g52
(g73
g54
NtRp3417
(dp3418
g57
(dp3419
sg66
g3413
sg59
(lp3420
g52
(g53
g54
NtRp3421
(dp3422
g57
(dp3423
g65
I2
ssg66
g3417
sg59
(lp3424
g52
(g61
g54
NtRp3425
(dp3426
g57
(dp3427
g65
I1
ssg66
Nsg59
(lp3428
g52
(g68
g54
NtRp3429
(dp3430
g57
(dp3431
sg66
g3425
sg59
(lp3432
g52
(g73
g54
NtRp3433
(dp3434
g57
(dp3435
sg66
g3429
sg59
(lp3436
g52
(g53
g54
NtRp3437
(dp3438
g57
(dp3439
g65
I1
ssg66
g3433
sg59
(lp3440
g2922
(S't\x06\x00\x00\x00Errors'
tRp3441
asbasbasbag52
(g68
g54
NtRp3442
(dp3443
g57
(dp3444
sg66
g3425
sg59
(lp3445
g52
(g73
g54
NtRp3446
(dp3447
g57
(dp3448
sg66
g3442
sg59
(lp3449
g52
(g53
g54
NtRp3450
(dp3451
g57
(dp3452
g65
I1
ssg66
g3446
sg59
(lp3453
I00
asbasbasbag52
(g68
g54
NtRp3454
(dp3455
g57
(dp3456
sg66
g3425
sg59
(lp3457
g52
(g73
g54
NtRp3458
(dp3459
g57
(dp3460
sg66
g3454
sg59
(lp3461
g52
(g53
g54
NtRp3462
(dp3463
g57
(dp3464
g65
I1
ssg66
g3458
sg59
(lp3465
S'/admin/default/errors/Desglosar_Emails'
p3466
asbasbasbasbasbasbasbag52
(g68
g54
NtRp3467
(dp3468
g57
(dp3469
sg66
g3031
sg59
(lp3470
g52
(g73
g54
NtRp3471
(dp3472
g57
(dp3473
sg66
g3467
sg59
(lp3474
g52
(g53
g54
NtRp3475
(dp3476
g57
(dp3477
g65
I2
ssg66
g3471
sg59
(lp3478
g52
(g61
g54
NtRp3479
(dp3480
g57
(dp3481
g65
I1
ssg66
Nsg59
(lp3482
g52
(g68
g54
NtRp3483
(dp3484
g57
(dp3485
sg66
g3479
sg59
(lp3486
g52
(g73
g54
NtRp3487
(dp3488
g57
(dp3489
sg66
g3483
sg59
(lp3490
g52
(g53
g54
NtRp3491
(dp3492
g57
(dp3493
g65
I1
ssg66
g3487
sg59
(lp3494
g2922
(S's\t\x00\x00\x00Acerca de'
tRp3495
asbasbasbag52
(g68
g54
NtRp3496
(dp3497
g57
(dp3498
sg66
g3479
sg59
(lp3499
g52
(g73
g54
NtRp3500
(dp3501
g57
(dp3502
sg66
g3496
sg59
(lp3503
g52
(g53
g54
NtRp3504
(dp3505
g57
(dp3506
g65
I1
ssg66
g3500
sg59
(lp3507
I00
asbasbasbag52
(g68
g54
NtRp3508
(dp3509
g57
(dp3510
sg66
g3479
sg59
(lp3511
g52
(g73
g54
NtRp3512
(dp3513
g57
(dp3514
sg66
g3508
sg59
(lp3515
g52
(g53
g54
NtRp3516
(dp3517
g57
(dp3518
g65
I1
ssg66
g3512
sg59
(lp3519
S'/admin/default/about/Desglosar_Emails'
p3520
asbasbasbasbasbasbasbasbasbasbasbasbasbasbasbag52
(g68
g54
NtRp3521
(dp3522
g57
(dp3523
sg66
g2890
sg59
(lp3524
g52
(g73
g54
NtRp3525
(dp3526
g57
(dp3527
sg66
g3521
sg59
(lp3528
g52
(g53
g54
NtRp3529
(dp3530
g57
(dp3531
g65
I4
ssg66
g3525
sg59
(lp3532
g52
(g61
g54
NtRp3533
(dp3534
g57
(dp3535
g65
I3
ssg66
Nsg59
(lp3536
g52
(g68
g54
NtRp3537
(dp3538
g57
(dp3539
sg66
g3533
sg59
(lp3540
g52
(g73
g54
NtRp3541
(dp3542
g57
(dp3543
sg66
g3537
sg59
(lp3544
g52
(g53
g54
NtRp3545
(dp3546
g57
(dp3547
g65
I3
ssg66
g3541
sg59
(lp3548
g2922
(S't\t\x00\x00\x00Resources'
tRp3549
asbasbasbag52
(g68
g54
NtRp3550
(dp3551
g57
(dp3552
sg66
g3533
sg59
(lp3553
g52
(g73
g54
NtRp3554
(dp3555
g57
(dp3556
sg66
g3550
sg59
(lp3557
g52
(g53
g54
NtRp3558
(dp3559
g57
(dp3560
g65
I3
ssg66
g3554
sg59
(lp3561
g95
asbasbasbag52
(g68
g54
NtRp3562
(dp3563
g57
(dp3564
sg66
g3533
sg59
(lp3565
g52
(g73
g54
NtRp3566
(dp3567
g57
(dp3568
sg66
g3562
sg59
(lp3569
g52
(g53
g54
NtRp3570
(dp3571
g57
(dp3572
g65
I3
ssg66
g3566
sg59
(lp3573
S'None'
p3574
asbasbasbag52
(g68
g54
NtRp3575
(dp3576
g57
(dp3577
sg66
g3533
sg59
(lp3578
g52
(g73
g54
NtRp3579
(dp3580
g57
(dp3581
sg66
g3575
sg59
(lp3582
g52
(g53
g54
NtRp3583
(dp3584
g57
(dp3585
g65
I3
ssg66
g3579
sg59
(lp3586
g52
(g61
g54
NtRp3587
(dp3588
g57
(dp3589
g65
I2
ssg66
Nsg59
(lp3590
g52
(g68
g54
NtRp3591
(dp3592
g57
(dp3593
sg66
g3587
sg59
(lp3594
g52
(g73
g54
NtRp3595
(dp3596
g57
(dp3597
sg66
g3591
sg59
(lp3598
g52
(g53
g54
NtRp3599
(dp3600
g57
(dp3601
g65
I2
ssg66
g3595
sg59
(lp3602
g52
(g61
g54
NtRp3603
(dp3604
g57
(dp3605
g65
I1
ssg66
Nsg59
(lp3606
g52
(g68
g54
NtRp3607
(dp3608
g57
(dp3609
sg66
g3603
sg59
(lp3610
g52
(g73
g54
NtRp3611
(dp3612
g57
(dp3613
sg66
g3607
sg59
(lp3614
g52
(g53
g54
NtRp3615
(dp3616
g57
(dp3617
g65
I1
ssg66
g3611
sg59
(lp3618
g2922
(S's\x0e\x00\x00\x00Documentaci\xc3\xb3n'
tRp3619
asbasbasbag52
(g68
g54
NtRp3620
(dp3621
g57
(dp3622
sg66
g3603
sg59
(lp3623
g52
(g73
g54
NtRp3624
(dp3625
g57
(dp3626
sg66
g3620
sg59
(lp3627
g52
(g53
g54
NtRp3628
(dp3629
g57
(dp3630
g65
I1
ssg66
g3624
sg59
(lp3631
I00
asbasbasbag52
(g68
g54
NtRp3632
(dp3633
g57
(dp3634
sg66
g3603
sg59
(lp3635
g52
(g73
g54
NtRp3636
(dp3637
g57
(dp3638
sg66
g3632
sg59
(lp3639
g52
(g53
g54
NtRp3640
(dp3641
g57
(dp3642
g65
I1
ssg66
g3636
sg59
(lp3643
S'http://www.web2py.com/book'
p3644
asbasbasbag52
(g68
g54
NtRp3645
(dp3646
g57
(dp3647
sg66
g3603
sg59
(lp3648
g52
(g73
g54
NtRp3649
(dp3650
g57
(dp3651
sg66
g3645
sg59
(lp3652
g52
(g53
g54
NtRp3653
(dp3654
g57
(dp3655
g65
I1
ssg66
g3649
sg59
(lp3656
(lp3657
(g2922
(S't\x07\x00\x00\x00Preface'
tRp3658
I00
S'http://www.web2py.com/book/default/chapter/00'
tp3659
a(g2922
(S't\x0c\x00\x00\x00Introduction'
tRp3660
I00
S'http://www.web2py.com/book/default/chapter/01'
tp3661
a(g2922
(S't\x06\x00\x00\x00Python'
tRp3662
I00
S'http://www.web2py.com/book/default/chapter/02'
tp3663
a(g2922
(S't\x08\x00\x00\x00Overview'
tRp3664
I00
S'http://www.web2py.com/book/default/chapter/03'
tp3665
a(g2922
(S's\x08\x00\x00\x00The Core'
tRp3666
I00
S'http://www.web2py.com/book/default/chapter/04'
tp3667
a(g2922
(S's\t\x00\x00\x00The Views'
tRp3668
I00
S'http://www.web2py.com/book/default/chapter/05'
tp3669
a(g2922
(S's\r\x00\x00\x00Base de datos'
tRp3670
I00
S'http://www.web2py.com/book/default/chapter/06'
tp3671
a(g2922
(S's\x14\x00\x00\x00Forms and Validators'
tRp3672
I00
S'http://www.web2py.com/book/default/chapter/07'
tp3673
a(g2922
(S's\x0e\x00\x00\x00Access Control'
tRp3674
I00
S'http://www.web2py.com/book/default/chapter/08'
tp3675
a(g2922
(S't\x08\x00\x00\x00Services'
tRp3676
I00
S'http://www.web2py.com/book/default/chapter/09'
tp3677
a(g2922
(S's\x0c\x00\x00\x00Ajax Recipes'
tRp3678
I00
S'http://www.web2py.com/book/default/chapter/10'
tp3679
a(g2922
(S's\x12\x00\x00\x00Deployment Recipes'
tRp3680
I00
S'http://www.web2py.com/book/default/chapter/11'
tp3681
a(g2922
(S's\r\x00\x00\x00Other Recipes'
tRp3682
I00
S'http://www.web2py.com/book/default/chapter/12'
tp3683
a(g2922
(S's\r\x00\x00\x00Buy this book'
tRp3684
I00
S'http://stores.lulu.com/web2py'
tp3685
aasbasbasbasbasbasbasbag52
(g68
g54
NtRp3686
(dp3687
g57
(dp3688
sg66
g3587
sg59
(lp3689
g52
(g73
g54
NtRp3690
(dp3691
g57
(dp3692
sg66
g3686
sg59
(lp3693
g52
(g53
g54
NtRp3694
(dp3695
g57
(dp3696
g65
I2
ssg66
g3690
sg59
(lp3697
g52
(g61
g54
NtRp3698
(dp3699
g57
(dp3700
g65
I1
ssg66
Nsg59
(lp3701
g52
(g68
g54
NtRp3702
(dp3703
g57
(dp3704
sg66
g3698
sg59
(lp3705
g52
(g73
g54
NtRp3706
(dp3707
g57
(dp3708
sg66
g3702
sg59
(lp3709
g52
(g53
g54
NtRp3710
(dp3711
g57
(dp3712
g65
I1
ssg66
g3706
sg59
(lp3713
g2922
(S't\t\x00\x00\x00Community'
tRp3714
asbasbasbag52
(g68
g54
NtRp3715
(dp3716
g57
(dp3717
sg66
g3698
sg59
(lp3718
g52
(g73
g54
NtRp3719
(dp3720
g57
(dp3721
sg66
g3715
sg59
(lp3722
g52
(g53
g54
NtRp3723
(dp3724
g57
(dp3725
g65
I1
ssg66
g3719
sg59
(lp3726
I00
asbasbasbag52
(g68
g54
NtRp3727
(dp3728
g57
(dp3729
sg66
g3698
sg59
(lp3730
g52
(g73
g54
NtRp3731
(dp3732
g57
(dp3733
sg66
g3727
sg59
(lp3734
g52
(g53
g54
NtRp3735
(dp3736
g57
(dp3737
g65
I1
ssg66
g3731
sg59
(lp3738
Nasbasbasbag52
(g68
g54
NtRp3739
(dp3740
g57
(dp3741
sg66
g3698
sg59
(lp3742
g52
(g73
g54
NtRp3743
(dp3744
g57
(dp3745
sg66
g3739
sg59
(lp3746
g52
(g53
g54
NtRp3747
(dp3748
g57
(dp3749
g65
I1
ssg66
g3743
sg59
(lp3750
(lp3751
(g2922
(S't\x06\x00\x00\x00Groups'
tRp3752
I00
S'http://www.web2py.com/examples/default/usergroups'
tp3753
a(g2922
(S't\x07\x00\x00\x00Twitter'
tRp3754
I00
S'http://twitter.com/web2py'
tp3755
a(g2922
(S's\t\x00\x00\x00Live chat'
tRp3756
I00
S'http://mibbit.com/?channel=%23web2py&server=irc.mibbit.net'
tp3757
a(g2922
(S's\n\x00\x00\x00User Voice'
tRp3758
I00
S'http://web2py.uservoice.com/'
tp3759
aasbasbasbasbasbasbasbag52
(g68
g54
NtRp3760
(dp3761
g57
(dp3762
sg66
g3587
sg59
(lp3763
g52
(g73
g54
NtRp3764
(dp3765
g57
(dp3766
sg66
g3760
sg59
(lp3767
g52
(g53
g54
NtRp3768
(dp3769
g57
(dp3770
g65
I2
ssg66
g3764
sg59
(lp3771
g52
(g61
g54
NtRp3772
(dp3773
g57
(dp3774
g65
I1
ssg66
Nsg59
(lp3775
g52
(g68
g54
NtRp3776
(dp3777
g57
(dp3778
sg66
g3772
sg59
(lp3779
g52
(g73
g54
NtRp3780
(dp3781
g57
(dp3782
sg66
g3776
sg59
(lp3783
g52
(g53
g54
NtRp3784
(dp3785
g57
(dp3786
g65
I1
ssg66
g3780
sg59
(lp3787
g2922
(S't\x06\x00\x00\x00Web2py'
tRp3788
asbasbasbag52
(g68
g54
NtRp3789
(dp3790
g57
(dp3791
sg66
g3772
sg59
(lp3792
g52
(g73
g54
NtRp3793
(dp3794
g57
(dp3795
sg66
g3789
sg59
(lp3796
g52
(g53
g54
NtRp3797
(dp3798
g57
(dp3799
g65
I1
ssg66
g3793
sg59
(lp3800
I00
asbasbasbag52
(g68
g54
NtRp3801
(dp3802
g57
(dp3803
sg66
g3772
sg59
(lp3804
g52
(g73
g54
NtRp3805
(dp3806
g57
(dp3807
sg66
g3801
sg59
(lp3808
g52
(g53
g54
NtRp3809
(dp3810
g57
(dp3811
g65
I1
ssg66
g3805
sg59
(lp3812
S'http://www.web2py.com'
p3813
asbasbasbag52
(g68
g54
NtRp3814
(dp3815
g57
(dp3816
sg66
g3772
sg59
(lp3817
g52
(g73
g54
NtRp3818
(dp3819
g57
(dp3820
sg66
g3814
sg59
(lp3821
g52
(g53
g54
NtRp3822
(dp3823
g57
(dp3824
g65
I1
ssg66
g3818
sg59
(lp3825
(lp3826
(g2922
(S't\x08\x00\x00\x00Download'
tRp3827
I00
S'http://www.web2py.com/examples/default/download'
tp3828
a(g2922
(S't\x07\x00\x00\x00Support'
tRp3829
I00
S'http://www.web2py.com/examples/default/support'
tp3830
a(g2922
(S's\x0e\x00\x00\x00Quick Examples'
tRp3831
I00
S'http://web2py.com/examples/default/examples'
tp3832
a(g2922
(S't\x03\x00\x00\x00FAQ'
tRp3833
I00
S'http://web2py.com/AlterEgo'
tp3834
a(g2922
(S's\x11\x00\x00\x00Free Applications'
tRp3835
I00
S'http://web2py.com/appliances'
tp3836
a(g2922
(S't\x07\x00\x00\x00Plugins'
tRp3837
I00
S'http://web2py.com/plugins'
tp3838
a(g2922
(S't\x07\x00\x00\x00Recipes'
tRp3839
I00
S'http://web2pyslices.com/'
tp3840
a(g2922
(S't\x04\x00\x00\x00Demo'
tRp3841
I00
S'http://web2py.com/demo_admin'
tp3842
a(g2922
(S't\x08\x00\x00\x00Semantic'
tRp3843
I00
S'http://web2py.com/semantic'
tp3844
a(g2922
(S't\x07\x00\x00\x00Layouts'
tRp3845
I00
S'http://web2py.com/layouts'
tp3846
a(g2922
(S't\x06\x00\x00\x00Videos'
tRp3847
I00
S'http://www.web2py.com/examples/default/videos/'
tp3848
aasbasbasbasbasbasbasbasbasbasbasbasbasbasbasbasbasbasbasbag52
(g68
g54
NtRp3849
(dp3850
g57
(dp3851
sg66
g2371
sg59
(lp3852
g52
(g73
g54
NtRp3853
(dp3854
g57
(dp3855
g77
g78
ssg66
g3849
sg59
(lp3856
S'meta'
p3857
asbag52
(g73
g54
NtRp3858
(dp3859
g57
(dp3860
g84
g85
ssg66
g3849
sg59
(lp3861
S':'
asbag52
(g73
g54
NtRp3862
(dp3863
g57
(dp3864
sg66
g3849
sg59
(lp3865
g52
(g53
g54
NtRp3866
(dp3867
g57
(dp3868
g65
I5
ssg66
g3862
sg59
(lp3869
g52
(g61
g54
NtRp3870
(dp3871
g57
(dp3872
g65
I4
ssg66
Nsg59
(lp3873
g52
(g68
g54
NtRp3874
(dp3875
g57
(dp3876
sg66
g3870
sg59
(lp3877
g52
(g73
g54
NtRp3878
(dp3879
g57
(dp3880
g77
g78
ssg66
g3874
sg59
(lp3881
S'author'
p3882
asbag52
(g73
g54
NtRp3883
(dp3884
g57
(dp3885
g84
g85
ssg66
g3874
sg59
(lp3886
S':'
asbag52
(g73
g54
NtRp3887
(dp3888
g57
(dp3889
sg66
g3874
sg59
(lp3890
g52
(g53
g54
NtRp3891
(dp3892
g57
(dp3893
g65
I4
ssg66
g3887
sg59
(lp3894
S'you'
p3895
asbasbasbag52
(g68
g54
NtRp3896
(dp3897
g57
(dp3898
sg66
g3870
sg59
(lp3899
g52
(g73
g54
NtRp3900
(dp3901
g57
(dp3902
g77
g78
ssg66
g3896
sg59
(lp3903
S'copyright'
p3904
asbag52
(g73
g54
NtRp3905
(dp3906
g57
(dp3907
g84
g85
ssg66
g3896
sg59
(lp3908
S':'
asbag52
(g73
g54
NtRp3909
(dp3910
g57
(dp3911
sg66
g3896
sg59
(lp3912
g52
(g53
g54
NtRp3913
(dp3914
g57
(dp3915
g65
I4
ssg66
g3909
sg59
(lp3916
S'Copyright 2007-2010'
p3917
asbasbasbag52
(g68
g54
NtRp3918
(dp3919
g57
(dp3920
sg66
g3870
sg59
(lp3921
g52
(g73
g54
NtRp3922
(dp3923
g57
(dp3924
g77
g78
ssg66
g3918
sg59
(lp3925
S'description'
p3926
asbag52
(g73
g54
NtRp3927
(dp3928
g57
(dp3929
g84
g85
ssg66
g3918
sg59
(lp3930
S':'
asbag52
(g73
g54
NtRp3931
(dp3932
g57
(dp3933
sg66
g3918
sg59
(lp3934
g52
(g53
g54
NtRp3935
(dp3936
g57
(dp3937
g65
I4
ssg66
g3931
sg59
(lp3938
S'Free and open source full-stack enterprise framework for agile development of fast, scalable, secure and portable database-driven web-based applications. Written and programmable in Python'
p3939
asbasbasbag52
(g68
g54
NtRp3940
(dp3941
g57
(dp3942
sg66
g3870
sg59
(lp3943
g52
(g73
g54
NtRp3944
(dp3945
g57
(dp3946
g77
g78
ssg66
g3940
sg59
(lp3947
S'generator'
p3948
asbag52
(g73
g54
NtRp3949
(dp3950
g57
(dp3951
g84
g85
ssg66
g3940
sg59
(lp3952
S':'
asbag52
(g73
g54
NtRp3953
(dp3954
g57
(dp3955
sg66
g3940
sg59
(lp3956
g52
(g53
g54
NtRp3957
(dp3958
g57
(dp3959
g65
I4
ssg66
g3953
sg59
(lp3960
S'Web2py Enterprise Framework'
p3961
asbasbasbag52
(g68
g54
NtRp3962
(dp3963
g57
(dp3964
sg66
g3870
sg59
(lp3965
g52
(g73
g54
NtRp3966
(dp3967
g57
(dp3968
g77
g78
ssg66
g3962
sg59
(lp3969
S'keywords'
p3970
asbag52
(g73
g54
NtRp3971
(dp3972
g57
(dp3973
g84
g85
ssg66
g3962
sg59
(lp3974
S':'
asbag52
(g73
g54
NtRp3975
(dp3976
g57
(dp3977
sg66
g3962
sg59
(lp3978
g52
(g53
g54
NtRp3979
(dp3980
g57
(dp3981
g65
I4
ssg66
g3975
sg59
(lp3982
S'web2py, python, framework'
p3983
asbasbasbasbasbasbasbag52
(g68
g54
NtRp3984
(dp3985
g57
(dp3986
sg66
g2371
sg59
(lp3987
g52
(g73
g54
NtRp3988
(dp3989
g57
(dp3990
g77
g78
ssg66
g3984
sg59
(lp3991
S'postprocessing'
p3992
asbag52
(g73
g54
NtRp3993
(dp3994
g57
(dp3995
g84
g85
ssg66
g3984
sg59
(lp3996
S':'
asbag52
(g73
g54
NtRp3997
(dp3998
g57
(dp3999
sg66
g3984
sg59
(lp4000
g52
(g53
g54
NtRp4001
(dp4002
g57
(dp4003
g65
I5
ssg66
g3997
sg59
(lp4004
g52
(g61
g54
NtRp4005
(dp4006
g57
(dp4007
g65
I4
ssg66
Nsg59
(lp4008
sbasbasbasbag52
(g68
g54
NtRp4009
(dp4010
g57
(dp4011
sg66
g2371
sg59
(lp4012
g52
(g73
g54
NtRp4013
(dp4014
g57
(dp4015
g77
g78
ssg66
g4009
sg59
(lp4016
S'session_file'
p4017
asbag52
(g73
g54
NtRp4018
(dp4019
g57
(dp4020
g84
g85
ssg66
g4009
sg59
(lp4021
S':'
asbag52
(g73
g54
NtRp4022
(dp4023
g57
(dp4024
sg66
g4009
sg59
(lp4025
g52
(g53
g54
NtRp4026
(dp4027
g57
(dp4028
g65
I5
ssg66
g4022
sg59
(lp4029
S"<open file 'C:\\Users\\Atomico\\web2py\\applications\\Desglosar_Emails\\sessions\\127.0.0.1-3b6245e1-5068-4c33-ba16-794aa1fa6a64', mode 'rb+' at 0x076C3698>"
p4030
asbasbasbag52
(g68
g54
NtRp4031
(dp4032
g57
(dp4033
sg66
g2371
sg59
(lp4034
g52
(g73
g54
NtRp4035
(dp4036
g57
(dp4037
g77
g78
ssg66
g4031
sg59
(lp4038
S'session_filename'
p4039
asbag52
(g73
g54
NtRp4040
(dp4041
g57
(dp4042
g84
g85
ssg66
g4031
sg59
(lp4043
S':'
asbag52
(g73
g54
NtRp4044
(dp4045
g57
(dp4046
sg66
g4031
sg59
(lp4047
g52
(g53
g54
NtRp4048
(dp4049
g57
(dp4050
g65
I5
ssg66
g4044
sg59
(lp4051
S'C:\\Users\\Atomico\\web2py\\applications\\Desglosar_Emails\\sessions\\127.0.0.1-3b6245e1-5068-4c33-ba16-794aa1fa6a64'
p4052
asbasbasbag52
(g68
g54
NtRp4053
(dp4054
g57
(dp4055
sg66
g2371
sg59
(lp4056
g52
(g73
g54
NtRp4057
(dp4058
g57
(dp4059
g77
g78
ssg66
g4053
sg59
(lp4060
S'session_id'
p4061
asbag52
(g73
g54
NtRp4062
(dp4063
g57
(dp4064
g84
g85
ssg66
g4053
sg59
(lp4065
S':'
asbag52
(g73
g54
NtRp4066
(dp4067
g57
(dp4068
sg66
g4053
sg59
(lp4069
g52
(g53
g54
NtRp4070
(dp4071
g57
(dp4072
g65
I5
ssg66
g4066
sg59
(lp4073
S'127.0.0.1-3b6245e1-5068-4c33-ba16-794aa1fa6a64'
p4074
asbasbasbag52
(g68
g54
NtRp4075
(dp4076
g57
(dp4077
sg66
g2371
sg59
(lp4078
g52
(g73
g54
NtRp4079
(dp4080
g57
(dp4081
g77
g78
ssg66
g4075
sg59
(lp4082
S'session_id_name'
p4083
asbag52
(g73
g54
NtRp4084
(dp4085
g57
(dp4086
g84
g85
ssg66
g4075
sg59
(lp4087
S':'
asbag52
(g73
g54
NtRp4088
(dp4089
g57
(dp4090
sg66
g4075
sg59
(lp4091
g52
(g53
g54
NtRp4092
(dp4093
g57
(dp4094
g65
I5
ssg66
g4088
sg59
(lp4095
g2428
asbasbasbag52
(g68
g54
NtRp4096
(dp4097
g57
(dp4098
sg66
g2371
sg59
(lp4099
g52
(g73
g54
NtRp4100
(dp4101
g57
(dp4102
g77
g78
ssg66
g4096
sg59
(lp4103
S'session_locked'
p4104
asbag52
(g73
g54
NtRp4105
(dp4106
g57
(dp4107
g84
g85
ssg66
g4096
sg59
(lp4108
S':'
asbag52
(g73
g54
NtRp4109
(dp4110
g57
(dp4111
sg66
g4096
sg59
(lp4112
g52
(g53
g54
NtRp4113
(dp4114
g57
(dp4115
g65
I5
ssg66
g4109
sg59
(lp4116
g1338
asbasbasbag52
(g68
g54
NtRp4117
(dp4118
g57
(dp4119
sg66
g2371
sg59
(lp4120
g52
(g73
g54
NtRp4121
(dp4122
g57
(dp4123
g77
g78
ssg66
g4117
sg59
(lp4124
S'session_new'
p4125
asbag52
(g73
g54
NtRp4126
(dp4127
g57
(dp4128
g84
g85
ssg66
g4117
sg59
(lp4129
S':'
asbag52
(g73
g54
NtRp4130
(dp4131
g57
(dp4132
sg66
g4117
sg59
(lp4133
g52
(g53
g54
NtRp4134
(dp4135
g57
(dp4136
g65
I5
ssg66
g4130
sg59
(lp4137
g95
asbasbasbag52
(g68
g54
NtRp4138
(dp4139
g57
(dp4140
sg66
g2371
sg59
(lp4141
g52
(g73
g54
NtRp4142
(dp4143
g57
(dp4144
g77
g78
ssg66
g4138
sg59
(lp4145
S'status'
p4146
asbag52
(g73
g54
NtRp4147
(dp4148
g57
(dp4149
g84
g85
ssg66
g4138
sg59
(lp4150
S':'
asbag52
(g73
g54
NtRp4151
(dp4152
g57
(dp4153
sg66
g4138
sg59
(lp4154
g52
(g53
g54
NtRp4155
(dp4156
g57
(dp4157
g65
I5
ssg66
g4151
sg59
(lp4158
S'200'
p4159
asbasbasbag52
(g68
g54
NtRp4160
(dp4161
g57
(dp4162
sg66
g2371
sg59
(lp4163
g52
(g73
g54
NtRp4164
(dp4165
g57
(dp4166
g77
g78
ssg66
g4160
sg59
(lp4167
S'subtitle'
p4168
asbag52
(g73
g54
NtRp4169
(dp4170
g57
(dp4171
g84
g85
ssg66
g4160
sg59
(lp4172
S':'
asbag52
(g73
g54
NtRp4173
(dp4174
g57
(dp4175
sg66
g4160
sg59
(lp4176
g52
(g53
g54
NtRp4177
(dp4178
g57
(dp4179
g65
I5
ssg66
g4173
sg59
(lp4180
g2922
(S's\t\x00\x00\x00Adaptame!'
tRp4181
asbasbasbag52
(g68
g54
NtRp4182
(dp4183
g57
(dp4184
sg66
g2371
sg59
(lp4185
g52
(g73
g54
NtRp4186
(dp4187
g57
(dp4188
g77
g78
ssg66
g4182
sg59
(lp4189
S'title'
p4190
asbag52
(g73
g54
NtRp4191
(dp4192
g57
(dp4193
g84
g85
ssg66
g4182
sg59
(lp4194
S':'
asbag52
(g73
g54
NtRp4195
(dp4196
g57
(dp4197
sg66
g4182
sg59
(lp4198
g52
(g53
g54
NtRp4199
(dp4200
g57
(dp4201
g65
I5
ssg66
g4195
sg59
(lp4202
g117
asbasbasbag52
(g68
g54
NtRp4203
(dp4204
g57
(dp4205
sg66
g2371
sg59
(lp4206
g52
(g73
g54
NtRp4207
(dp4208
g57
(dp4209
g77
g78
ssg66
g4203
sg59
(lp4210
g1662
asbag52
(g73
g54
NtRp4211
(dp4212
g57
(dp4213
g84
g85
ssg66
g4203
sg59
(lp4214
S':'
asbag52
(g73
g54
NtRp4215
(dp4216
g57
(dp4217
sg66
g4203
sg59
(lp4218
g52
(g53
g54
NtRp4219
(dp4220
g57
(dp4221
g65
I5
ssg66
g4215
sg59
(lp4222
g1675
asbasbasbag52
(g68
g54
NtRp4223
(dp4224
g57
(dp4225
sg66
g2371
sg59
(lp4226
g52
(g73
g54
NtRp4227
(dp4228
g57
(dp4229
g77
g78
ssg66
g4223
sg59
(lp4230
S'view'
p4231
asbag52
(g73
g54
NtRp4232
(dp4233
g57
(dp4234
g84
g85
ssg66
g4223
sg59
(lp4235
S':'
asbag52
(g73
g54
NtRp4236
(dp4237
g57
(dp4238
sg66
g4223
sg59
(lp4239
g52
(g53
g54
NtRp4240
(dp4241
g57
(dp4242
g65
I5
ssg66
g4236
sg59
(lp4243
S'default/entrada_mod3.html'
p4244
asbasbasbasbasbsS'locals'
p4245
(dp4246
S'query'
p4247
S'"INSERT INTO contactos(email) VALUES (\'onkicaronki@hotmail.com\');"'
p4248
sS'self'
p4249
S'<gluon.dal.SQLiteAdapter object at 0x08AE7050>'
p4250
sS'e'
S"OperationalError('database is locked',)"
p4251
sS'fields'
p4252
S"[(<gluon.dal.Field object at 0x08AE7FB0>, 'onkicaronki@hotmail.com')]"
p4253
sS'table'
p4254
S"<Table {'remitentesant': <gluon.dal.Field object...>, 'id': <gluon.dal.Field object at 0x08AE77B0>}>"
p4255
sssS'traceback'
p4256
S'Traceback (most recent call last):\n  File "gluon/restricted.py", line 192, in restricted\n  File "C:\\Users\\Atomico\\web2py\\applications\\Desglosar_Emails\\views\\default/entrada_mod3.html", line 124, in <module>\n  File "gluon/dal.py", line 4786, in insert\n  File "gluon/dal.py", line 844, in insert\nOperationalError: database is locked\n'
p4257
s.