(dp1
S'output'
p2
S''
sS'layer'
p3
S'C:\\Users\\Atomico\\web2py\\applications\\Desglosar_Emails\\controllers/default.py'
p4
sS'code'
p5
S'def entrada():\n    form=SQLFORM(db.info)\n    if form.accepts(request.vars,session): pass\n    \n    txt=db.info[12].texto\n    c=0\n    for i in range(len(txt)): c=c+1\n    response.write(\'el total de c es \'+str(c)+\'. \')\n   \n    import re\n    pattern=re.compile(".*a[0-5].*")\n    for i in range(len(txt)):\n    ## encontrar el primer email\n        s=txt[:i]\n        if pattern.search(s):\n            response.write(\'Se ha encontrado a1 o a2 o a3 \\r o a4 o a5 o a0\\n\')\n        elif not pattern.search(s) and i==(len(txt)-1):\n            response.write(\'Nanai contrai\')\n        \n    response.write(\'La len(txt) es \'+str(len(txt))+\' y la i es \'+str(i))\n    response.write(\'*********************\')\n\n    cont=0\n    for i in xrange(0,4):\n        cont=cont+1\n        response.write(\'Para el valor i \'+str(i)+\' el contador se pone a \'+str(cont))\n    response.write(\' y el resultado final es de i \'+str(i)+\' el contador se pone a \'+str(cont)+\'. \')\n    i=0\n    while i<len(txt):\n        response.write(txt[i]+\'-\')\n        i=i+1\n    response.write(\'. La len(txt) es de \'+str(len(txt))+\' y la i se ha quedado en \'+str(i))\n    db.info.insert(texto="Vete a Cascarla")\n    \n    return dict(form=form)\n    \ndef entrada_mod1():\n    form=SQLFORM(db.info2)\n    if form.accepts(request.vars,session): pass\n    i=0\n    # while  not db.info2[i].texto==\'\':\n    #    response.write(i)\n    #    i=i+1\n    db.info2.insert(texto=\'Vete a cascarla\')\n    \n    return dict(form=form)\n    \ndef salto():\n    for x in range (10):\n        response . write (x)\n        response . write ( \'hello<br />\' , escape=False )\n    return dict(x=x)\n    \ndef entrada_mod2():\n    db.info2=0\n    \n    form=SQLFORM(db.info2)\n    if form.accepts(request.vars,session):pass\n    \n    return dict(form=form)\n\nresponse._vars=response._caller(entrada_mod2)\n'
p6
sS'snapshot'
p7
(dp8
S'exception'
p9
(dp10
S'__getslice__'
p11
S"<method-wrapper '__getslice__' of exceptions.SyntaxError object at 0x08072EF0>"
p12
sS'text'
p13
S'None'
p14
sS'__str__'
p15
S"<method-wrapper '__str__' of exceptions.SyntaxError object at 0x08072EF0>"
p16
sS'__reduce__'
p17
S'<built-in method __reduce__ of exceptions.SyntaxError object at 0x08072EF0>'
p18
sS'__dict__'
p19
S'{}'
p20
sS'__init__'
p21
S"<method-wrapper '__init__' of exceptions.SyntaxError object at 0x08072EF0>"
p22
sS'__setattr__'
p23
S"<method-wrapper '__setattr__' of exceptions.SyntaxError object at 0x08072EF0>"
p24
sS'__reduce_ex__'
p25
S'<built-in method __reduce_ex__ of exceptions.SyntaxError object at 0x08072EF0>'
p26
sS'__new__'
p27
S'<built-in method __new__ of type object at 0x1E1CDBD0>'
p28
sS'__class__'
p29
S"<type 'exceptions.SyntaxError'>"
p30
sS'filename'
p31
S'None'
p32
sS'lineno'
p33
S'None'
p34
sS'msg'
p35
S"'Object info2 exists and cannot be redefined'"
p36
sS'__doc__'
p37
S"'Invalid syntax.'"
p38
sS'__getitem__'
p39
S"<method-wrapper '__getitem__' of exceptions.SyntaxError object at 0x08072EF0>"
p40
sS'__setstate__'
p41
S'<built-in method __setstate__ of exceptions.SyntaxError object at 0x08072EF0>'
p42
sS'__getattribute__'
p43
S"<method-wrapper '__getattribute__' of exceptions.SyntaxError object at 0x08072EF0>"
p44
sS'print_file_and_line'
p45
S'None'
p46
sS'args'
p47
S"('Object info2 exists and cannot be redefined',)"
p48
sS'offset'
p49
S'None'
p50
sS'__delattr__'
p51
S"<method-wrapper '__delattr__' of exceptions.SyntaxError object at 0x08072EF0>"
p52
sS'__repr__'
p53
S"<method-wrapper '__repr__' of exceptions.SyntaxError object at 0x08072EF0>"
p54
sS'__hash__'
p55
S"<method-wrapper '__hash__' of exceptions.SyntaxError object at 0x08072EF0>"
p56
ssS'evalue'
p57
S'Object info2 exists and cannot be redefined'
p58
sS'request'
p59
ccopy_reg
_reconstructor
p60
(cgluon.html
BEAUTIFY
p61
c__builtin__
object
p62
NtRp63
(dp64
S'attributes'
p65
(dp66
sS'components'
p67
(lp68
g60
(cgluon.html
TABLE
p69
g62
NtRp70
(dp71
g65
(dp72
S'level'
p73
I5
ssS'parent'
p74
Nsg67
(lp75
g60
(cgluon.html
TR
p76
g62
NtRp77
(dp78
g65
(dp79
sg74
g70
sg67
(lp80
g60
(cgluon.html
TD
p81
g62
NtRp82
(dp83
g65
(dp84
S'_style'
p85
S'font-weight:bold;'
p86
ssg74
g77
sg67
(lp87
S'ajax'
p88
asbag60
(g81
g62
NtRp89
(dp90
g65
(dp91
S'_valign'
p92
S'top'
p93
ssg74
g77
sg67
(lp94
S':'
asbag60
(g81
g62
NtRp95
(dp96
g65
(dp97
sg74
g77
sg67
(lp98
g60
(g61
g62
NtRp99
(dp100
g65
(dp101
g73
I5
ssg74
g95
sg67
(lp102
S'False'
p103
asbasbasbag60
(g76
g62
NtRp104
(dp105
g65
(dp106
sg74
g70
sg67
(lp107
g60
(g81
g62
NtRp108
(dp109
g65
(dp110
g85
g86
ssg74
g104
sg67
(lp111
S'application'
p112
asbag60
(g81
g62
NtRp113
(dp114
g65
(dp115
g92
g93
ssg74
g104
sg67
(lp116
S':'
asbag60
(g81
g62
NtRp117
(dp118
g65
(dp119
sg74
g104
sg67
(lp120
g60
(g61
g62
NtRp121
(dp122
g65
(dp123
g73
I5
ssg74
g117
sg67
(lp124
S'Desglosar_Emails'
p125
asbasbasbag60
(g76
g62
NtRp126
(dp127
g65
(dp128
sg74
g70
sg67
(lp129
g60
(g81
g62
NtRp130
(dp131
g65
(dp132
g85
g86
ssg74
g126
sg67
(lp133
g47
asbag60
(g81
g62
NtRp134
(dp135
g65
(dp136
g92
g93
ssg74
g126
sg67
(lp137
S':'
asbag60
(g81
g62
NtRp138
(dp139
g65
(dp140
sg74
g126
sg67
(lp141
g60
(g61
g62
NtRp142
(dp143
g65
(dp144
g73
I5
ssg74
g138
sg67
(lp145
g60
(g69
g62
NtRp146
(dp147
g65
(dp148
g73
I4
ssg74
Nsg67
(lp149
sbasbasbasbag60
(g76
g62
NtRp150
(dp151
g65
(dp152
sg74
g70
sg67
(lp153
g60
(g81
g62
NtRp154
(dp155
g65
(dp156
g85
g86
ssg74
g150
sg67
(lp157
S'body'
p158
asbag60
(g81
g62
NtRp159
(dp160
g65
(dp161
g92
g93
ssg74
g150
sg67
(lp162
S':'
asbag60
(g81
g62
NtRp163
(dp164
g65
(dp165
sg74
g150
sg67
(lp166
g60
(g61
g62
NtRp167
(dp168
g65
(dp169
g73
I5
ssg74
g163
sg67
(lp170
S"<open file '<fdopen>', mode 'w+b' at 0x07A80A88>"
p171
asbasbasbag60
(g76
g62
NtRp172
(dp173
g65
(dp174
sg74
g70
sg67
(lp175
g60
(g81
g62
NtRp176
(dp177
g65
(dp178
g85
g86
ssg74
g172
sg67
(lp179
S'client'
p180
asbag60
(g81
g62
NtRp181
(dp182
g65
(dp183
g92
g93
ssg74
g172
sg67
(lp184
S':'
asbag60
(g81
g62
NtRp185
(dp186
g65
(dp187
sg74
g172
sg67
(lp188
g60
(g61
g62
NtRp189
(dp190
g65
(dp191
g73
I5
ssg74
g185
sg67
(lp192
S'127.0.0.1'
p193
asbasbasbag60
(g76
g62
NtRp194
(dp195
g65
(dp196
sg74
g70
sg67
(lp197
g60
(g81
g62
NtRp198
(dp199
g65
(dp200
g85
g86
ssg74
g194
sg67
(lp201
S'controller'
p202
asbag60
(g81
g62
NtRp203
(dp204
g65
(dp205
g92
g93
ssg74
g194
sg67
(lp206
S':'
asbag60
(g81
g62
NtRp207
(dp208
g65
(dp209
sg74
g194
sg67
(lp210
g60
(g61
g62
NtRp211
(dp212
g65
(dp213
g73
I5
ssg74
g207
sg67
(lp214
S'default'
p215
asbasbasbag60
(g76
g62
NtRp216
(dp217
g65
(dp218
sg74
g70
sg67
(lp219
g60
(g81
g62
NtRp220
(dp221
g65
(dp222
g85
g86
ssg74
g216
sg67
(lp223
S'cookies'
p224
asbag60
(g81
g62
NtRp225
(dp226
g65
(dp227
g92
g93
ssg74
g216
sg67
(lp228
S':'
asbag60
(g81
g62
NtRp229
(dp230
g65
(dp231
sg74
g216
sg67
(lp232
g60
(g61
g62
NtRp233
(dp234
g65
(dp235
g73
I5
ssg74
g229
sg67
(lp236
g60
(g69
g62
NtRp237
(dp238
g65
(dp239
g73
I4
ssg74
Nsg67
(lp240
g60
(g76
g62
NtRp241
(dp242
g65
(dp243
sg74
g237
sg67
(lp244
g60
(g81
g62
NtRp245
(dp246
g65
(dp247
g85
g86
ssg74
g241
sg67
(lp248
S'session_id_admin'
p249
asbag60
(g81
g62
NtRp250
(dp251
g65
(dp252
g92
g93
ssg74
g241
sg67
(lp253
S':'
asbag60
(g81
g62
NtRp254
(dp255
g65
(dp256
sg74
g241
sg67
(lp257
g60
(g61
g62
NtRp258
(dp259
g65
(dp260
g73
I4
ssg74
g254
sg67
(lp261
g60
(g69
g62
NtRp262
(dp263
g65
(dp264
g73
I3
ssg74
Nsg67
(lp265
g60
(g76
g62
NtRp266
(dp267
g65
(dp268
sg74
g262
sg67
(lp269
g60
(g81
g62
NtRp270
(dp271
g65
(dp272
g85
g86
ssg74
g266
sg67
(lp273
S'comment'
p274
asbag60
(g81
g62
NtRp275
(dp276
g65
(dp277
g92
g93
ssg74
g266
sg67
(lp278
S':'
asbag60
(g81
g62
NtRp279
(dp280
g65
(dp281
sg74
g266
sg67
(lp282
g60
(g61
g62
NtRp283
(dp284
g65
(dp285
g73
I3
ssg74
g279
sg67
(lp286
S''
asbasbasbag60
(g76
g62
NtRp287
(dp288
g65
(dp289
sg74
g262
sg67
(lp290
g60
(g81
g62
NtRp291
(dp292
g65
(dp293
g85
g86
ssg74
g287
sg67
(lp294
S'domain'
p295
asbag60
(g81
g62
NtRp296
(dp297
g65
(dp298
g92
g93
ssg74
g287
sg67
(lp299
S':'
asbag60
(g81
g62
NtRp300
(dp301
g65
(dp302
sg74
g287
sg67
(lp303
g60
(g61
g62
NtRp304
(dp305
g65
(dp306
g73
I3
ssg74
g300
sg67
(lp307
S''
asbasbasbag60
(g76
g62
NtRp308
(dp309
g65
(dp310
sg74
g262
sg67
(lp311
g60
(g81
g62
NtRp312
(dp313
g65
(dp314
g85
g86
ssg74
g308
sg67
(lp315
S'expires'
p316
asbag60
(g81
g62
NtRp317
(dp318
g65
(dp319
g92
g93
ssg74
g308
sg67
(lp320
S':'
asbag60
(g81
g62
NtRp321
(dp322
g65
(dp323
sg74
g308
sg67
(lp324
g60
(g61
g62
NtRp325
(dp326
g65
(dp327
g73
I3
ssg74
g321
sg67
(lp328
S''
asbasbasbag60
(g76
g62
NtRp329
(dp330
g65
(dp331
sg74
g262
sg67
(lp332
g60
(g81
g62
NtRp333
(dp334
g65
(dp335
g85
g86
ssg74
g329
sg67
(lp336
S'max-age'
p337
asbag60
(g81
g62
NtRp338
(dp339
g65
(dp340
g92
g93
ssg74
g329
sg67
(lp341
S':'
asbag60
(g81
g62
NtRp342
(dp343
g65
(dp344
sg74
g329
sg67
(lp345
g60
(g61
g62
NtRp346
(dp347
g65
(dp348
g73
I3
ssg74
g342
sg67
(lp349
S''
asbasbasbag60
(g76
g62
NtRp350
(dp351
g65
(dp352
sg74
g262
sg67
(lp353
g60
(g81
g62
NtRp354
(dp355
g65
(dp356
g85
g86
ssg74
g350
sg67
(lp357
S'path'
p358
asbag60
(g81
g62
NtRp359
(dp360
g65
(dp361
g92
g93
ssg74
g350
sg67
(lp362
S':'
asbag60
(g81
g62
NtRp363
(dp364
g65
(dp365
sg74
g350
sg67
(lp366
g60
(g61
g62
NtRp367
(dp368
g65
(dp369
g73
I3
ssg74
g363
sg67
(lp370
S''
asbasbasbag60
(g76
g62
NtRp371
(dp372
g65
(dp373
sg74
g262
sg67
(lp374
g60
(g81
g62
NtRp375
(dp376
g65
(dp377
g85
g86
ssg74
g371
sg67
(lp378
S'secure'
p379
asbag60
(g81
g62
NtRp380
(dp381
g65
(dp382
g92
g93
ssg74
g371
sg67
(lp383
S':'
asbag60
(g81
g62
NtRp384
(dp385
g65
(dp386
sg74
g371
sg67
(lp387
g60
(g61
g62
NtRp388
(dp389
g65
(dp390
g73
I3
ssg74
g384
sg67
(lp391
S''
asbasbasbag60
(g76
g62
NtRp392
(dp393
g65
(dp394
sg74
g262
sg67
(lp395
g60
(g81
g62
NtRp396
(dp397
g65
(dp398
g85
g86
ssg74
g392
sg67
(lp399
S'version'
p400
asbag60
(g81
g62
NtRp401
(dp402
g65
(dp403
g92
g93
ssg74
g392
sg67
(lp404
S':'
asbag60
(g81
g62
NtRp405
(dp406
g65
(dp407
sg74
g392
sg67
(lp408
g60
(g61
g62
NtRp409
(dp410
g65
(dp411
g73
I3
ssg74
g405
sg67
(lp412
S''
asbasbasbasbasbasbasbag60
(g76
g62
NtRp413
(dp414
g65
(dp415
sg74
g237
sg67
(lp416
g60
(g81
g62
NtRp417
(dp418
g65
(dp419
g85
g86
ssg74
g413
sg67
(lp420
S'session_id_cual_es_tu_nombre'
p421
asbag60
(g81
g62
NtRp422
(dp423
g65
(dp424
g92
g93
ssg74
g413
sg67
(lp425
S':'
asbag60
(g81
g62
NtRp426
(dp427
g65
(dp428
sg74
g413
sg67
(lp429
g60
(g61
g62
NtRp430
(dp431
g65
(dp432
g73
I4
ssg74
g426
sg67
(lp433
g60
(g69
g62
NtRp434
(dp435
g65
(dp436
g73
I3
ssg74
Nsg67
(lp437
g60
(g76
g62
NtRp438
(dp439
g65
(dp440
sg74
g434
sg67
(lp441
g60
(g81
g62
NtRp442
(dp443
g65
(dp444
g85
g86
ssg74
g438
sg67
(lp445
g274
asbag60
(g81
g62
NtRp446
(dp447
g65
(dp448
g92
g93
ssg74
g438
sg67
(lp449
S':'
asbag60
(g81
g62
NtRp450
(dp451
g65
(dp452
sg74
g438
sg67
(lp453
g60
(g61
g62
NtRp454
(dp455
g65
(dp456
g73
I3
ssg74
g450
sg67
(lp457
S''
asbasbasbag60
(g76
g62
NtRp458
(dp459
g65
(dp460
sg74
g434
sg67
(lp461
g60
(g81
g62
NtRp462
(dp463
g65
(dp464
g85
g86
ssg74
g458
sg67
(lp465
g295
asbag60
(g81
g62
NtRp466
(dp467
g65
(dp468
g92
g93
ssg74
g458
sg67
(lp469
S':'
asbag60
(g81
g62
NtRp470
(dp471
g65
(dp472
sg74
g458
sg67
(lp473
g60
(g61
g62
NtRp474
(dp475
g65
(dp476
g73
I3
ssg74
g470
sg67
(lp477
S''
asbasbasbag60
(g76
g62
NtRp478
(dp479
g65
(dp480
sg74
g434
sg67
(lp481
g60
(g81
g62
NtRp482
(dp483
g65
(dp484
g85
g86
ssg74
g478
sg67
(lp485
g316
asbag60
(g81
g62
NtRp486
(dp487
g65
(dp488
g92
g93
ssg74
g478
sg67
(lp489
S':'
asbag60
(g81
g62
NtRp490
(dp491
g65
(dp492
sg74
g478
sg67
(lp493
g60
(g61
g62
NtRp494
(dp495
g65
(dp496
g73
I3
ssg74
g490
sg67
(lp497
S''
asbasbasbag60
(g76
g62
NtRp498
(dp499
g65
(dp500
sg74
g434
sg67
(lp501
g60
(g81
g62
NtRp502
(dp503
g65
(dp504
g85
g86
ssg74
g498
sg67
(lp505
g337
asbag60
(g81
g62
NtRp506
(dp507
g65
(dp508
g92
g93
ssg74
g498
sg67
(lp509
S':'
asbag60
(g81
g62
NtRp510
(dp511
g65
(dp512
sg74
g498
sg67
(lp513
g60
(g61
g62
NtRp514
(dp515
g65
(dp516
g73
I3
ssg74
g510
sg67
(lp517
S''
asbasbasbag60
(g76
g62
NtRp518
(dp519
g65
(dp520
sg74
g434
sg67
(lp521
g60
(g81
g62
NtRp522
(dp523
g65
(dp524
g85
g86
ssg74
g518
sg67
(lp525
g358
asbag60
(g81
g62
NtRp526
(dp527
g65
(dp528
g92
g93
ssg74
g518
sg67
(lp529
S':'
asbag60
(g81
g62
NtRp530
(dp531
g65
(dp532
sg74
g518
sg67
(lp533
g60
(g61
g62
NtRp534
(dp535
g65
(dp536
g73
I3
ssg74
g530
sg67
(lp537
S''
asbasbasbag60
(g76
g62
NtRp538
(dp539
g65
(dp540
sg74
g434
sg67
(lp541
g60
(g81
g62
NtRp542
(dp543
g65
(dp544
g85
g86
ssg74
g538
sg67
(lp545
g379
asbag60
(g81
g62
NtRp546
(dp547
g65
(dp548
g92
g93
ssg74
g538
sg67
(lp549
S':'
asbag60
(g81
g62
NtRp550
(dp551
g65
(dp552
sg74
g538
sg67
(lp553
g60
(g61
g62
NtRp554
(dp555
g65
(dp556
g73
I3
ssg74
g550
sg67
(lp557
S''
asbasbasbag60
(g76
g62
NtRp558
(dp559
g65
(dp560
sg74
g434
sg67
(lp561
g60
(g81
g62
NtRp562
(dp563
g65
(dp564
g85
g86
ssg74
g558
sg67
(lp565
g400
asbag60
(g81
g62
NtRp566
(dp567
g65
(dp568
g92
g93
ssg74
g558
sg67
(lp569
S':'
asbag60
(g81
g62
NtRp570
(dp571
g65
(dp572
sg74
g558
sg67
(lp573
g60
(g61
g62
NtRp574
(dp575
g65
(dp576
g73
I3
ssg74
g570
sg67
(lp577
S''
asbasbasbasbasbasbasbag60
(g76
g62
NtRp578
(dp579
g65
(dp580
sg74
g237
sg67
(lp581
g60
(g81
g62
NtRp582
(dp583
g65
(dp584
g85
g86
ssg74
g578
sg67
(lp585
S'session_id_desglosar_emails'
p586
asbag60
(g81
g62
NtRp587
(dp588
g65
(dp589
g92
g93
ssg74
g578
sg67
(lp590
S':'
asbag60
(g81
g62
NtRp591
(dp592
g65
(dp593
sg74
g578
sg67
(lp594
g60
(g61
g62
NtRp595
(dp596
g65
(dp597
g73
I4
ssg74
g591
sg67
(lp598
g60
(g69
g62
NtRp599
(dp600
g65
(dp601
g73
I3
ssg74
Nsg67
(lp602
g60
(g76
g62
NtRp603
(dp604
g65
(dp605
sg74
g599
sg67
(lp606
g60
(g81
g62
NtRp607
(dp608
g65
(dp609
g85
g86
ssg74
g603
sg67
(lp610
g274
asbag60
(g81
g62
NtRp611
(dp612
g65
(dp613
g92
g93
ssg74
g603
sg67
(lp614
S':'
asbag60
(g81
g62
NtRp615
(dp616
g65
(dp617
sg74
g603
sg67
(lp618
g60
(g61
g62
NtRp619
(dp620
g65
(dp621
g73
I3
ssg74
g615
sg67
(lp622
S''
asbasbasbag60
(g76
g62
NtRp623
(dp624
g65
(dp625
sg74
g599
sg67
(lp626
g60
(g81
g62
NtRp627
(dp628
g65
(dp629
g85
g86
ssg74
g623
sg67
(lp630
g295
asbag60
(g81
g62
NtRp631
(dp632
g65
(dp633
g92
g93
ssg74
g623
sg67
(lp634
S':'
asbag60
(g81
g62
NtRp635
(dp636
g65
(dp637
sg74
g623
sg67
(lp638
g60
(g61
g62
NtRp639
(dp640
g65
(dp641
g73
I3
ssg74
g635
sg67
(lp642
S''
asbasbasbag60
(g76
g62
NtRp643
(dp644
g65
(dp645
sg74
g599
sg67
(lp646
g60
(g81
g62
NtRp647
(dp648
g65
(dp649
g85
g86
ssg74
g643
sg67
(lp650
g316
asbag60
(g81
g62
NtRp651
(dp652
g65
(dp653
g92
g93
ssg74
g643
sg67
(lp654
S':'
asbag60
(g81
g62
NtRp655
(dp656
g65
(dp657
sg74
g643
sg67
(lp658
g60
(g61
g62
NtRp659
(dp660
g65
(dp661
g73
I3
ssg74
g655
sg67
(lp662
S''
asbasbasbag60
(g76
g62
NtRp663
(dp664
g65
(dp665
sg74
g599
sg67
(lp666
g60
(g81
g62
NtRp667
(dp668
g65
(dp669
g85
g86
ssg74
g663
sg67
(lp670
g337
asbag60
(g81
g62
NtRp671
(dp672
g65
(dp673
g92
g93
ssg74
g663
sg67
(lp674
S':'
asbag60
(g81
g62
NtRp675
(dp676
g65
(dp677
sg74
g663
sg67
(lp678
g60
(g61
g62
NtRp679
(dp680
g65
(dp681
g73
I3
ssg74
g675
sg67
(lp682
S''
asbasbasbag60
(g76
g62
NtRp683
(dp684
g65
(dp685
sg74
g599
sg67
(lp686
g60
(g81
g62
NtRp687
(dp688
g65
(dp689
g85
g86
ssg74
g683
sg67
(lp690
g358
asbag60
(g81
g62
NtRp691
(dp692
g65
(dp693
g92
g93
ssg74
g683
sg67
(lp694
S':'
asbag60
(g81
g62
NtRp695
(dp696
g65
(dp697
sg74
g683
sg67
(lp698
g60
(g61
g62
NtRp699
(dp700
g65
(dp701
g73
I3
ssg74
g695
sg67
(lp702
S''
asbasbasbag60
(g76
g62
NtRp703
(dp704
g65
(dp705
sg74
g599
sg67
(lp706
g60
(g81
g62
NtRp707
(dp708
g65
(dp709
g85
g86
ssg74
g703
sg67
(lp710
g379
asbag60
(g81
g62
NtRp711
(dp712
g65
(dp713
g92
g93
ssg74
g703
sg67
(lp714
S':'
asbag60
(g81
g62
NtRp715
(dp716
g65
(dp717
sg74
g703
sg67
(lp718
g60
(g61
g62
NtRp719
(dp720
g65
(dp721
g73
I3
ssg74
g715
sg67
(lp722
S''
asbasbasbag60
(g76
g62
NtRp723
(dp724
g65
(dp725
sg74
g599
sg67
(lp726
g60
(g81
g62
NtRp727
(dp728
g65
(dp729
g85
g86
ssg74
g723
sg67
(lp730
g400
asbag60
(g81
g62
NtRp731
(dp732
g65
(dp733
g92
g93
ssg74
g723
sg67
(lp734
S':'
asbag60
(g81
g62
NtRp735
(dp736
g65
(dp737
sg74
g723
sg67
(lp738
g60
(g61
g62
NtRp739
(dp740
g65
(dp741
g73
I3
ssg74
g735
sg67
(lp742
S''
asbasbasbasbasbasbasbag60
(g76
g62
NtRp743
(dp744
g65
(dp745
sg74
g237
sg67
(lp746
g60
(g81
g62
NtRp747
(dp748
g65
(dp749
g85
g86
ssg74
g743
sg67
(lp750
S'session_id_hemoal'
p751
asbag60
(g81
g62
NtRp752
(dp753
g65
(dp754
g92
g93
ssg74
g743
sg67
(lp755
S':'
asbag60
(g81
g62
NtRp756
(dp757
g65
(dp758
sg74
g743
sg67
(lp759
g60
(g61
g62
NtRp760
(dp761
g65
(dp762
g73
I4
ssg74
g756
sg67
(lp763
g60
(g69
g62
NtRp764
(dp765
g65
(dp766
g73
I3
ssg74
Nsg67
(lp767
g60
(g76
g62
NtRp768
(dp769
g65
(dp770
sg74
g764
sg67
(lp771
g60
(g81
g62
NtRp772
(dp773
g65
(dp774
g85
g86
ssg74
g768
sg67
(lp775
g274
asbag60
(g81
g62
NtRp776
(dp777
g65
(dp778
g92
g93
ssg74
g768
sg67
(lp779
S':'
asbag60
(g81
g62
NtRp780
(dp781
g65
(dp782
sg74
g768
sg67
(lp783
g60
(g61
g62
NtRp784
(dp785
g65
(dp786
g73
I3
ssg74
g780
sg67
(lp787
S''
asbasbasbag60
(g76
g62
NtRp788
(dp789
g65
(dp790
sg74
g764
sg67
(lp791
g60
(g81
g62
NtRp792
(dp793
g65
(dp794
g85
g86
ssg74
g788
sg67
(lp795
g295
asbag60
(g81
g62
NtRp796
(dp797
g65
(dp798
g92
g93
ssg74
g788
sg67
(lp799
S':'
asbag60
(g81
g62
NtRp800
(dp801
g65
(dp802
sg74
g788
sg67
(lp803
g60
(g61
g62
NtRp804
(dp805
g65
(dp806
g73
I3
ssg74
g800
sg67
(lp807
S''
asbasbasbag60
(g76
g62
NtRp808
(dp809
g65
(dp810
sg74
g764
sg67
(lp811
g60
(g81
g62
NtRp812
(dp813
g65
(dp814
g85
g86
ssg74
g808
sg67
(lp815
g316
asbag60
(g81
g62
NtRp816
(dp817
g65
(dp818
g92
g93
ssg74
g808
sg67
(lp819
S':'
asbag60
(g81
g62
NtRp820
(dp821
g65
(dp822
sg74
g808
sg67
(lp823
g60
(g61
g62
NtRp824
(dp825
g65
(dp826
g73
I3
ssg74
g820
sg67
(lp827
S''
asbasbasbag60
(g76
g62
NtRp828
(dp829
g65
(dp830
sg74
g764
sg67
(lp831
g60
(g81
g62
NtRp832
(dp833
g65
(dp834
g85
g86
ssg74
g828
sg67
(lp835
g337
asbag60
(g81
g62
NtRp836
(dp837
g65
(dp838
g92
g93
ssg74
g828
sg67
(lp839
S':'
asbag60
(g81
g62
NtRp840
(dp841
g65
(dp842
sg74
g828
sg67
(lp843
g60
(g61
g62
NtRp844
(dp845
g65
(dp846
g73
I3
ssg74
g840
sg67
(lp847
S''
asbasbasbag60
(g76
g62
NtRp848
(dp849
g65
(dp850
sg74
g764
sg67
(lp851
g60
(g81
g62
NtRp852
(dp853
g65
(dp854
g85
g86
ssg74
g848
sg67
(lp855
g358
asbag60
(g81
g62
NtRp856
(dp857
g65
(dp858
g92
g93
ssg74
g848
sg67
(lp859
S':'
asbag60
(g81
g62
NtRp860
(dp861
g65
(dp862
sg74
g848
sg67
(lp863
g60
(g61
g62
NtRp864
(dp865
g65
(dp866
g73
I3
ssg74
g860
sg67
(lp867
S''
asbasbasbag60
(g76
g62
NtRp868
(dp869
g65
(dp870
sg74
g764
sg67
(lp871
g60
(g81
g62
NtRp872
(dp873
g65
(dp874
g85
g86
ssg74
g868
sg67
(lp875
g379
asbag60
(g81
g62
NtRp876
(dp877
g65
(dp878
g92
g93
ssg74
g868
sg67
(lp879
S':'
asbag60
(g81
g62
NtRp880
(dp881
g65
(dp882
sg74
g868
sg67
(lp883
g60
(g61
g62
NtRp884
(dp885
g65
(dp886
g73
I3
ssg74
g880
sg67
(lp887
S''
asbasbasbag60
(g76
g62
NtRp888
(dp889
g65
(dp890
sg74
g764
sg67
(lp891
g60
(g81
g62
NtRp892
(dp893
g65
(dp894
g85
g86
ssg74
g888
sg67
(lp895
g400
asbag60
(g81
g62
NtRp896
(dp897
g65
(dp898
g92
g93
ssg74
g888
sg67
(lp899
S':'
asbag60
(g81
g62
NtRp900
(dp901
g65
(dp902
sg74
g888
sg67
(lp903
g60
(g61
g62
NtRp904
(dp905
g65
(dp906
g73
I3
ssg74
g900
sg67
(lp907
S''
asbasbasbasbasbasbasbag60
(g76
g62
NtRp908
(dp909
g65
(dp910
sg74
g237
sg67
(lp911
g60
(g81
g62
NtRp912
(dp913
g65
(dp914
g85
g86
ssg74
g908
sg67
(lp915
S'session_id_listado_1'
p916
asbag60
(g81
g62
NtRp917
(dp918
g65
(dp919
g92
g93
ssg74
g908
sg67
(lp920
S':'
asbag60
(g81
g62
NtRp921
(dp922
g65
(dp923
sg74
g908
sg67
(lp924
g60
(g61
g62
NtRp925
(dp926
g65
(dp927
g73
I4
ssg74
g921
sg67
(lp928
g60
(g69
g62
NtRp929
(dp930
g65
(dp931
g73
I3
ssg74
Nsg67
(lp932
g60
(g76
g62
NtRp933
(dp934
g65
(dp935
sg74
g929
sg67
(lp936
g60
(g81
g62
NtRp937
(dp938
g65
(dp939
g85
g86
ssg74
g933
sg67
(lp940
g274
asbag60
(g81
g62
NtRp941
(dp942
g65
(dp943
g92
g93
ssg74
g933
sg67
(lp944
S':'
asbag60
(g81
g62
NtRp945
(dp946
g65
(dp947
sg74
g933
sg67
(lp948
g60
(g61
g62
NtRp949
(dp950
g65
(dp951
g73
I3
ssg74
g945
sg67
(lp952
S''
asbasbasbag60
(g76
g62
NtRp953
(dp954
g65
(dp955
sg74
g929
sg67
(lp956
g60
(g81
g62
NtRp957
(dp958
g65
(dp959
g85
g86
ssg74
g953
sg67
(lp960
g295
asbag60
(g81
g62
NtRp961
(dp962
g65
(dp963
g92
g93
ssg74
g953
sg67
(lp964
S':'
asbag60
(g81
g62
NtRp965
(dp966
g65
(dp967
sg74
g953
sg67
(lp968
g60
(g61
g62
NtRp969
(dp970
g65
(dp971
g73
I3
ssg74
g965
sg67
(lp972
S''
asbasbasbag60
(g76
g62
NtRp973
(dp974
g65
(dp975
sg74
g929
sg67
(lp976
g60
(g81
g62
NtRp977
(dp978
g65
(dp979
g85
g86
ssg74
g973
sg67
(lp980
g316
asbag60
(g81
g62
NtRp981
(dp982
g65
(dp983
g92
g93
ssg74
g973
sg67
(lp984
S':'
asbag60
(g81
g62
NtRp985
(dp986
g65
(dp987
sg74
g973
sg67
(lp988
g60
(g61
g62
NtRp989
(dp990
g65
(dp991
g73
I3
ssg74
g985
sg67
(lp992
S''
asbasbasbag60
(g76
g62
NtRp993
(dp994
g65
(dp995
sg74
g929
sg67
(lp996
g60
(g81
g62
NtRp997
(dp998
g65
(dp999
g85
g86
ssg74
g993
sg67
(lp1000
g337
asbag60
(g81
g62
NtRp1001
(dp1002
g65
(dp1003
g92
g93
ssg74
g993
sg67
(lp1004
S':'
asbag60
(g81
g62
NtRp1005
(dp1006
g65
(dp1007
sg74
g993
sg67
(lp1008
g60
(g61
g62
NtRp1009
(dp1010
g65
(dp1011
g73
I3
ssg74
g1005
sg67
(lp1012
S''
asbasbasbag60
(g76
g62
NtRp1013
(dp1014
g65
(dp1015
sg74
g929
sg67
(lp1016
g60
(g81
g62
NtRp1017
(dp1018
g65
(dp1019
g85
g86
ssg74
g1013
sg67
(lp1020
g358
asbag60
(g81
g62
NtRp1021
(dp1022
g65
(dp1023
g92
g93
ssg74
g1013
sg67
(lp1024
S':'
asbag60
(g81
g62
NtRp1025
(dp1026
g65
(dp1027
sg74
g1013
sg67
(lp1028
g60
(g61
g62
NtRp1029
(dp1030
g65
(dp1031
g73
I3
ssg74
g1025
sg67
(lp1032
S''
asbasbasbag60
(g76
g62
NtRp1033
(dp1034
g65
(dp1035
sg74
g929
sg67
(lp1036
g60
(g81
g62
NtRp1037
(dp1038
g65
(dp1039
g85
g86
ssg74
g1033
sg67
(lp1040
g379
asbag60
(g81
g62
NtRp1041
(dp1042
g65
(dp1043
g92
g93
ssg74
g1033
sg67
(lp1044
S':'
asbag60
(g81
g62
NtRp1045
(dp1046
g65
(dp1047
sg74
g1033
sg67
(lp1048
g60
(g61
g62
NtRp1049
(dp1050
g65
(dp1051
g73
I3
ssg74
g1045
sg67
(lp1052
S''
asbasbasbag60
(g76
g62
NtRp1053
(dp1054
g65
(dp1055
sg74
g929
sg67
(lp1056
g60
(g81
g62
NtRp1057
(dp1058
g65
(dp1059
g85
g86
ssg74
g1053
sg67
(lp1060
g400
asbag60
(g81
g62
NtRp1061
(dp1062
g65
(dp1063
g92
g93
ssg74
g1053
sg67
(lp1064
S':'
asbag60
(g81
g62
NtRp1065
(dp1066
g65
(dp1067
sg74
g1053
sg67
(lp1068
g60
(g61
g62
NtRp1069
(dp1070
g65
(dp1071
g73
I3
ssg74
g1065
sg67
(lp1072
S''
asbasbasbasbasbasbasbag60
(g76
g62
NtRp1073
(dp1074
g65
(dp1075
sg74
g237
sg67
(lp1076
g60
(g81
g62
NtRp1077
(dp1078
g65
(dp1079
g85
g86
ssg74
g1073
sg67
(lp1080
S'session_id_myappjav'
p1081
asbag60
(g81
g62
NtRp1082
(dp1083
g65
(dp1084
g92
g93
ssg74
g1073
sg67
(lp1085
S':'
asbag60
(g81
g62
NtRp1086
(dp1087
g65
(dp1088
sg74
g1073
sg67
(lp1089
g60
(g61
g62
NtRp1090
(dp1091
g65
(dp1092
g73
I4
ssg74
g1086
sg67
(lp1093
g60
(g69
g62
NtRp1094
(dp1095
g65
(dp1096
g73
I3
ssg74
Nsg67
(lp1097
g60
(g76
g62
NtRp1098
(dp1099
g65
(dp1100
sg74
g1094
sg67
(lp1101
g60
(g81
g62
NtRp1102
(dp1103
g65
(dp1104
g85
g86
ssg74
g1098
sg67
(lp1105
g274
asbag60
(g81
g62
NtRp1106
(dp1107
g65
(dp1108
g92
g93
ssg74
g1098
sg67
(lp1109
S':'
asbag60
(g81
g62
NtRp1110
(dp1111
g65
(dp1112
sg74
g1098
sg67
(lp1113
g60
(g61
g62
NtRp1114
(dp1115
g65
(dp1116
g73
I3
ssg74
g1110
sg67
(lp1117
S''
asbasbasbag60
(g76
g62
NtRp1118
(dp1119
g65
(dp1120
sg74
g1094
sg67
(lp1121
g60
(g81
g62
NtRp1122
(dp1123
g65
(dp1124
g85
g86
ssg74
g1118
sg67
(lp1125
g295
asbag60
(g81
g62
NtRp1126
(dp1127
g65
(dp1128
g92
g93
ssg74
g1118
sg67
(lp1129
S':'
asbag60
(g81
g62
NtRp1130
(dp1131
g65
(dp1132
sg74
g1118
sg67
(lp1133
g60
(g61
g62
NtRp1134
(dp1135
g65
(dp1136
g73
I3
ssg74
g1130
sg67
(lp1137
S''
asbasbasbag60
(g76
g62
NtRp1138
(dp1139
g65
(dp1140
sg74
g1094
sg67
(lp1141
g60
(g81
g62
NtRp1142
(dp1143
g65
(dp1144
g85
g86
ssg74
g1138
sg67
(lp1145
g316
asbag60
(g81
g62
NtRp1146
(dp1147
g65
(dp1148
g92
g93
ssg74
g1138
sg67
(lp1149
S':'
asbag60
(g81
g62
NtRp1150
(dp1151
g65
(dp1152
sg74
g1138
sg67
(lp1153
g60
(g61
g62
NtRp1154
(dp1155
g65
(dp1156
g73
I3
ssg74
g1150
sg67
(lp1157
S''
asbasbasbag60
(g76
g62
NtRp1158
(dp1159
g65
(dp1160
sg74
g1094
sg67
(lp1161
g60
(g81
g62
NtRp1162
(dp1163
g65
(dp1164
g85
g86
ssg74
g1158
sg67
(lp1165
g337
asbag60
(g81
g62
NtRp1166
(dp1167
g65
(dp1168
g92
g93
ssg74
g1158
sg67
(lp1169
S':'
asbag60
(g81
g62
NtRp1170
(dp1171
g65
(dp1172
sg74
g1158
sg67
(lp1173
g60
(g61
g62
NtRp1174
(dp1175
g65
(dp1176
g73
I3
ssg74
g1170
sg67
(lp1177
S''
asbasbasbag60
(g76
g62
NtRp1178
(dp1179
g65
(dp1180
sg74
g1094
sg67
(lp1181
g60
(g81
g62
NtRp1182
(dp1183
g65
(dp1184
g85
g86
ssg74
g1178
sg67
(lp1185
g358
asbag60
(g81
g62
NtRp1186
(dp1187
g65
(dp1188
g92
g93
ssg74
g1178
sg67
(lp1189
S':'
asbag60
(g81
g62
NtRp1190
(dp1191
g65
(dp1192
sg74
g1178
sg67
(lp1193
g60
(g61
g62
NtRp1194
(dp1195
g65
(dp1196
g73
I3
ssg74
g1190
sg67
(lp1197
S''
asbasbasbag60
(g76
g62
NtRp1198
(dp1199
g65
(dp1200
sg74
g1094
sg67
(lp1201
g60
(g81
g62
NtRp1202
(dp1203
g65
(dp1204
g85
g86
ssg74
g1198
sg67
(lp1205
g379
asbag60
(g81
g62
NtRp1206
(dp1207
g65
(dp1208
g92
g93
ssg74
g1198
sg67
(lp1209
S':'
asbag60
(g81
g62
NtRp1210
(dp1211
g65
(dp1212
sg74
g1198
sg67
(lp1213
g60
(g61
g62
NtRp1214
(dp1215
g65
(dp1216
g73
I3
ssg74
g1210
sg67
(lp1217
S''
asbasbasbag60
(g76
g62
NtRp1218
(dp1219
g65
(dp1220
sg74
g1094
sg67
(lp1221
g60
(g81
g62
NtRp1222
(dp1223
g65
(dp1224
g85
g86
ssg74
g1218
sg67
(lp1225
g400
asbag60
(g81
g62
NtRp1226
(dp1227
g65
(dp1228
g92
g93
ssg74
g1218
sg67
(lp1229
S':'
asbag60
(g81
g62
NtRp1230
(dp1231
g65
(dp1232
sg74
g1218
sg67
(lp1233
g60
(g61
g62
NtRp1234
(dp1235
g65
(dp1236
g73
I3
ssg74
g1230
sg67
(lp1237
S''
asbasbasbasbasbasbasbag60
(g76
g62
NtRp1238
(dp1239
g65
(dp1240
sg74
g237
sg67
(lp1241
g60
(g81
g62
NtRp1242
(dp1243
g65
(dp1244
g85
g86
ssg74
g1238
sg67
(lp1245
S'session_id_welcome'
p1246
asbag60
(g81
g62
NtRp1247
(dp1248
g65
(dp1249
g92
g93
ssg74
g1238
sg67
(lp1250
S':'
asbag60
(g81
g62
NtRp1251
(dp1252
g65
(dp1253
sg74
g1238
sg67
(lp1254
g60
(g61
g62
NtRp1255
(dp1256
g65
(dp1257
g73
I4
ssg74
g1251
sg67
(lp1258
g60
(g69
g62
NtRp1259
(dp1260
g65
(dp1261
g73
I3
ssg74
Nsg67
(lp1262
g60
(g76
g62
NtRp1263
(dp1264
g65
(dp1265
sg74
g1259
sg67
(lp1266
g60
(g81
g62
NtRp1267
(dp1268
g65
(dp1269
g85
g86
ssg74
g1263
sg67
(lp1270
g274
asbag60
(g81
g62
NtRp1271
(dp1272
g65
(dp1273
g92
g93
ssg74
g1263
sg67
(lp1274
S':'
asbag60
(g81
g62
NtRp1275
(dp1276
g65
(dp1277
sg74
g1263
sg67
(lp1278
g60
(g61
g62
NtRp1279
(dp1280
g65
(dp1281
g73
I3
ssg74
g1275
sg67
(lp1282
S''
asbasbasbag60
(g76
g62
NtRp1283
(dp1284
g65
(dp1285
sg74
g1259
sg67
(lp1286
g60
(g81
g62
NtRp1287
(dp1288
g65
(dp1289
g85
g86
ssg74
g1283
sg67
(lp1290
g295
asbag60
(g81
g62
NtRp1291
(dp1292
g65
(dp1293
g92
g93
ssg74
g1283
sg67
(lp1294
S':'
asbag60
(g81
g62
NtRp1295
(dp1296
g65
(dp1297
sg74
g1283
sg67
(lp1298
g60
(g61
g62
NtRp1299
(dp1300
g65
(dp1301
g73
I3
ssg74
g1295
sg67
(lp1302
S''
asbasbasbag60
(g76
g62
NtRp1303
(dp1304
g65
(dp1305
sg74
g1259
sg67
(lp1306
g60
(g81
g62
NtRp1307
(dp1308
g65
(dp1309
g85
g86
ssg74
g1303
sg67
(lp1310
g316
asbag60
(g81
g62
NtRp1311
(dp1312
g65
(dp1313
g92
g93
ssg74
g1303
sg67
(lp1314
S':'
asbag60
(g81
g62
NtRp1315
(dp1316
g65
(dp1317
sg74
g1303
sg67
(lp1318
g60
(g61
g62
NtRp1319
(dp1320
g65
(dp1321
g73
I3
ssg74
g1315
sg67
(lp1322
S''
asbasbasbag60
(g76
g62
NtRp1323
(dp1324
g65
(dp1325
sg74
g1259
sg67
(lp1326
g60
(g81
g62
NtRp1327
(dp1328
g65
(dp1329
g85
g86
ssg74
g1323
sg67
(lp1330
g337
asbag60
(g81
g62
NtRp1331
(dp1332
g65
(dp1333
g92
g93
ssg74
g1323
sg67
(lp1334
S':'
asbag60
(g81
g62
NtRp1335
(dp1336
g65
(dp1337
sg74
g1323
sg67
(lp1338
g60
(g61
g62
NtRp1339
(dp1340
g65
(dp1341
g73
I3
ssg74
g1335
sg67
(lp1342
S''
asbasbasbag60
(g76
g62
NtRp1343
(dp1344
g65
(dp1345
sg74
g1259
sg67
(lp1346
g60
(g81
g62
NtRp1347
(dp1348
g65
(dp1349
g85
g86
ssg74
g1343
sg67
(lp1350
g358
asbag60
(g81
g62
NtRp1351
(dp1352
g65
(dp1353
g92
g93
ssg74
g1343
sg67
(lp1354
S':'
asbag60
(g81
g62
NtRp1355
(dp1356
g65
(dp1357
sg74
g1343
sg67
(lp1358
g60
(g61
g62
NtRp1359
(dp1360
g65
(dp1361
g73
I3
ssg74
g1355
sg67
(lp1362
S''
asbasbasbag60
(g76
g62
NtRp1363
(dp1364
g65
(dp1365
sg74
g1259
sg67
(lp1366
g60
(g81
g62
NtRp1367
(dp1368
g65
(dp1369
g85
g86
ssg74
g1363
sg67
(lp1370
g379
asbag60
(g81
g62
NtRp1371
(dp1372
g65
(dp1373
g92
g93
ssg74
g1363
sg67
(lp1374
S':'
asbag60
(g81
g62
NtRp1375
(dp1376
g65
(dp1377
sg74
g1363
sg67
(lp1378
g60
(g61
g62
NtRp1379
(dp1380
g65
(dp1381
g73
I3
ssg74
g1375
sg67
(lp1382
S''
asbasbasbag60
(g76
g62
NtRp1383
(dp1384
g65
(dp1385
sg74
g1259
sg67
(lp1386
g60
(g81
g62
NtRp1387
(dp1388
g65
(dp1389
g85
g86
ssg74
g1383
sg67
(lp1390
g400
asbag60
(g81
g62
NtRp1391
(dp1392
g65
(dp1393
g92
g93
ssg74
g1383
sg67
(lp1394
S':'
asbag60
(g81
g62
NtRp1395
(dp1396
g65
(dp1397
sg74
g1383
sg67
(lp1398
g60
(g61
g62
NtRp1399
(dp1400
g65
(dp1401
g73
I3
ssg74
g1395
sg67
(lp1402
S''
asbasbasbasbasbasbasbasbasbasbasbag60
(g76
g62
NtRp1403
(dp1404
g65
(dp1405
sg74
g70
sg67
(lp1406
g60
(g81
g62
NtRp1407
(dp1408
g65
(dp1409
g85
g86
ssg74
g1403
sg67
(lp1410
S'env'
p1411
asbag60
(g81
g62
NtRp1412
(dp1413
g65
(dp1414
g92
g93
ssg74
g1403
sg67
(lp1415
S':'
asbag60
(g81
g62
NtRp1416
(dp1417
g65
(dp1418
sg74
g1403
sg67
(lp1419
g60
(g61
g62
NtRp1420
(dp1421
g65
(dp1422
g73
I5
ssg74
g1416
sg67
(lp1423
g60
(g69
g62
NtRp1424
(dp1425
g65
(dp1426
g73
I4
ssg74
Nsg67
(lp1427
g60
(g76
g62
NtRp1428
(dp1429
g65
(dp1430
sg74
g1424
sg67
(lp1431
g60
(g81
g62
NtRp1432
(dp1433
g65
(dp1434
g85
g86
ssg74
g1428
sg67
(lp1435
S'app_folders'
p1436
asbag60
(g81
g62
NtRp1437
(dp1438
g65
(dp1439
g92
g93
ssg74
g1428
sg67
(lp1440
S':'
asbag60
(g81
g62
NtRp1441
(dp1442
g65
(dp1443
sg74
g1428
sg67
(lp1444
g60
(g61
g62
NtRp1445
(dp1446
g65
(dp1447
g73
I4
ssg74
g1441
sg67
(lp1448
S"set(['C:\\\\Users\\\\Atomico\\\\web2py\\\\applications\\\\Desglosar_Emails\\\\', 'C:\\\\Users\\\\Atomico\\\\web2py\\\\applications\\\\Cual_es_tu_nombre\\\\', 'C:\\\\Users\\\\Atomico\\\\web2py\\\\applications\\\\admin\\\\', 'C:\\\\Users\\\\Atomico\\\\web2py\\\\applications\\\\hemoal\\\\', 'C:\\\\Users\\\\Atomico\\\\web2py\\\\applications\\\\myAppJav\\\\', 'C:\\\\Users\\\\Atomico\\\\web2py\\\\applications\\\\welcome\\\\', 'C:\\\\Users\\\\Atomico\\\\web2py\\\\applications\\\\examples\\\\'])"
p1449
asbasbasbag60
(g76
g62
NtRp1450
(dp1451
g65
(dp1452
sg74
g1424
sg67
(lp1453
g60
(g81
g62
NtRp1454
(dp1455
g65
(dp1456
g85
g86
ssg74
g1450
sg67
(lp1457
S'applications_parent'
p1458
asbag60
(g81
g62
NtRp1459
(dp1460
g65
(dp1461
g92
g93
ssg74
g1450
sg67
(lp1462
S':'
asbag60
(g81
g62
NtRp1463
(dp1464
g65
(dp1465
sg74
g1450
sg67
(lp1466
g60
(g61
g62
NtRp1467
(dp1468
g65
(dp1469
g73
I4
ssg74
g1463
sg67
(lp1470
S'C:\\Users\\Atomico\\web2py'
p1471
asbasbasbag60
(g76
g62
NtRp1472
(dp1473
g65
(dp1474
sg74
g1424
sg67
(lp1475
g60
(g81
g62
NtRp1476
(dp1477
g65
(dp1478
g85
g86
ssg74
g1472
sg67
(lp1479
S'cmd_args'
p1480
asbag60
(g81
g62
NtRp1481
(dp1482
g65
(dp1483
g92
g93
ssg74
g1472
sg67
(lp1484
S':'
asbag60
(g81
g62
NtRp1485
(dp1486
g65
(dp1487
sg74
g1472
sg67
(lp1488
g60
(g61
g62
NtRp1489
(dp1490
g65
(dp1491
g73
I4
ssg74
g1485
sg67
(lp1492
g60
(g69
g62
NtRp1493
(dp1494
g65
(dp1495
g73
I3
ssg74
Nsg67
(lp1496
sbasbasbasbag60
(g76
g62
NtRp1497
(dp1498
g65
(dp1499
sg74
g1424
sg67
(lp1500
g60
(g81
g62
NtRp1501
(dp1502
g65
(dp1503
g85
g86
ssg74
g1497
sg67
(lp1504
S'cmd_options'
p1505
asbag60
(g81
g62
NtRp1506
(dp1507
g65
(dp1508
g92
g93
ssg74
g1497
sg67
(lp1509
S':'
asbag60
(g81
g62
NtRp1510
(dp1511
g65
(dp1512
sg74
g1497
sg67
(lp1513
g60
(g61
g62
NtRp1514
(dp1515
g65
(dp1516
g73
I4
ssg74
g1510
sg67
(lp1517
S"<Values at 0x306b620: {'verbose': False, 'ip': '127.0.0.1', 'shutdown_timeout': 5, 'taskbar': False, 'port': 8000, 'maxthreads': None, 'softcron': False, 'server_name': 'Swing', 'bpython': False, 'nogui': False, 'nocron': False, 'extcron': False, 'debuglevel': 30, 'test': None, 'folder': 'C:\\\\Users\\\\Atomico\\\\web2py', 'config': '', 'import_models': False, 'winservice': '', 'shell': None, 'run': '', 'log_filename': 'httpserver.log', 'args': [''], 'profiler_filename': None, 'ssl_private_key': '', 'password': '<ask>', 'request_queue_size': 5, 'ssl_certificate': '', 'cronjob': False, 'plain': False, 'quiet': False, 'interfaces': None, 'minthreads': None, 'timeout': 10, 'numthreads': None, 'nobanner': False, 'pid_filename': 'httpserver.pid'}>"
p1518
asbasbasbag60
(g76
g62
NtRp1519
(dp1520
g65
(dp1521
sg74
g1424
sg67
(lp1522
g60
(g81
g62
NtRp1523
(dp1524
g65
(dp1525
g85
g86
ssg74
g1519
sg67
(lp1526
S'content_length'
p1527
asbag60
(g81
g62
NtRp1528
(dp1529
g65
(dp1530
g92
g93
ssg74
g1519
sg67
(lp1531
S':'
asbag60
(g81
g62
NtRp1532
(dp1533
g65
(dp1534
sg74
g1519
sg67
(lp1535
g60
(g61
g62
NtRp1536
(dp1537
g65
(dp1538
g73
I4
ssg74
g1532
sg67
(lp1539
S'480'
p1540
asbasbasbag60
(g76
g62
NtRp1541
(dp1542
g65
(dp1543
sg74
g1424
sg67
(lp1544
g60
(g81
g62
NtRp1545
(dp1546
g65
(dp1547
g85
g86
ssg74
g1541
sg67
(lp1548
S'content_type'
p1549
asbag60
(g81
g62
NtRp1550
(dp1551
g65
(dp1552
g92
g93
ssg74
g1541
sg67
(lp1553
S':'
asbag60
(g81
g62
NtRp1554
(dp1555
g65
(dp1556
sg74
g1541
sg67
(lp1557
g60
(g61
g62
NtRp1558
(dp1559
g65
(dp1560
g73
I4
ssg74
g1554
sg67
(lp1561
S'multipart/form-data; boundary=---------------------------1741225648853'
p1562
asbasbasbag60
(g76
g62
NtRp1563
(dp1564
g65
(dp1565
sg74
g1424
sg67
(lp1566
g60
(g81
g62
NtRp1567
(dp1568
g65
(dp1569
g85
g86
ssg74
g1563
sg67
(lp1570
S'db_sessions'
p1571
asbag60
(g81
g62
NtRp1572
(dp1573
g65
(dp1574
g92
g93
ssg74
g1563
sg67
(lp1575
S':'
asbag60
(g81
g62
NtRp1576
(dp1577
g65
(dp1578
sg74
g1563
sg67
(lp1579
g60
(g61
g62
NtRp1580
(dp1581
g65
(dp1582
g73
I4
ssg74
g1576
sg67
(lp1583
S'set([])'
p1584
asbasbasbag60
(g76
g62
NtRp1585
(dp1586
g65
(dp1587
sg74
g1424
sg67
(lp1588
g60
(g81
g62
NtRp1589
(dp1590
g65
(dp1591
g85
g86
ssg74
g1585
sg67
(lp1592
S'debugging'
p1593
asbag60
(g81
g62
NtRp1594
(dp1595
g65
(dp1596
g92
g93
ssg74
g1585
sg67
(lp1597
S':'
asbag60
(g81
g62
NtRp1598
(dp1599
g65
(dp1600
sg74
g1585
sg67
(lp1601
g60
(g61
g62
NtRp1602
(dp1603
g65
(dp1604
g73
I4
ssg74
g1598
sg67
(lp1605
g103
asbasbasbag60
(g76
g62
NtRp1606
(dp1607
g65
(dp1608
sg74
g1424
sg67
(lp1609
g60
(g81
g62
NtRp1610
(dp1611
g65
(dp1612
g85
g86
ssg74
g1606
sg67
(lp1613
S'gluon_parent'
p1614
asbag60
(g81
g62
NtRp1615
(dp1616
g65
(dp1617
g92
g93
ssg74
g1606
sg67
(lp1618
S':'
asbag60
(g81
g62
NtRp1619
(dp1620
g65
(dp1621
sg74
g1606
sg67
(lp1622
g60
(g61
g62
NtRp1623
(dp1624
g65
(dp1625
g73
I4
ssg74
g1619
sg67
(lp1626
S'C:\\Users\\Atomico\\web2py'
p1627
asbasbasbag60
(g76
g62
NtRp1628
(dp1629
g65
(dp1630
sg74
g1424
sg67
(lp1631
g60
(g81
g62
NtRp1632
(dp1633
g65
(dp1634
g85
g86
ssg74
g1628
sg67
(lp1635
S'http_accept'
p1636
asbag60
(g81
g62
NtRp1637
(dp1638
g65
(dp1639
g92
g93
ssg74
g1628
sg67
(lp1640
S':'
asbag60
(g81
g62
NtRp1641
(dp1642
g65
(dp1643
sg74
g1628
sg67
(lp1644
g60
(g61
g62
NtRp1645
(dp1646
g65
(dp1647
g73
I4
ssg74
g1641
sg67
(lp1648
S'text/html,application/xhtml+xml,application/xml;q=0.9,*/*;q=0.8'
p1649
asbasbasbag60
(g76
g62
NtRp1650
(dp1651
g65
(dp1652
sg74
g1424
sg67
(lp1653
g60
(g81
g62
NtRp1654
(dp1655
g65
(dp1656
g85
g86
ssg74
g1650
sg67
(lp1657
S'http_accept_charset'
p1658
asbag60
(g81
g62
NtRp1659
(dp1660
g65
(dp1661
g92
g93
ssg74
g1650
sg67
(lp1662
S':'
asbag60
(g81
g62
NtRp1663
(dp1664
g65
(dp1665
sg74
g1650
sg67
(lp1666
g60
(g61
g62
NtRp1667
(dp1668
g65
(dp1669
g73
I4
ssg74
g1663
sg67
(lp1670
S'ISO-8859-1,utf-8;q=0.7,*;q=0.7'
p1671
asbasbasbag60
(g76
g62
NtRp1672
(dp1673
g65
(dp1674
sg74
g1424
sg67
(lp1675
g60
(g81
g62
NtRp1676
(dp1677
g65
(dp1678
g85
g86
ssg74
g1672
sg67
(lp1679
S'http_accept_encoding'
p1680
asbag60
(g81
g62
NtRp1681
(dp1682
g65
(dp1683
g92
g93
ssg74
g1672
sg67
(lp1684
S':'
asbag60
(g81
g62
NtRp1685
(dp1686
g65
(dp1687
sg74
g1672
sg67
(lp1688
g60
(g61
g62
NtRp1689
(dp1690
g65
(dp1691
g73
I4
ssg74
g1685
sg67
(lp1692
S'gzip, deflate'
p1693
asbasbasbag60
(g76
g62
NtRp1694
(dp1695
g65
(dp1696
sg74
g1424
sg67
(lp1697
g60
(g81
g62
NtRp1698
(dp1699
g65
(dp1700
g85
g86
ssg74
g1694
sg67
(lp1701
S'http_accept_language'
p1702
asbag60
(g81
g62
NtRp1703
(dp1704
g65
(dp1705
g92
g93
ssg74
g1694
sg67
(lp1706
S':'
asbag60
(g81
g62
NtRp1707
(dp1708
g65
(dp1709
sg74
g1694
sg67
(lp1710
g60
(g61
g62
NtRp1711
(dp1712
g65
(dp1713
g73
I4
ssg74
g1707
sg67
(lp1714
S'es-es,es;q=0.8,en-us;q=0.5,en;q=0.3'
p1715
asbasbasbag60
(g76
g62
NtRp1716
(dp1717
g65
(dp1718
sg74
g1424
sg67
(lp1719
g60
(g81
g62
NtRp1720
(dp1721
g65
(dp1722
g85
g86
ssg74
g1716
sg67
(lp1723
S'http_cache_control'
p1724
asbag60
(g81
g62
NtRp1725
(dp1726
g65
(dp1727
g92
g93
ssg74
g1716
sg67
(lp1728
S':'
asbag60
(g81
g62
NtRp1729
(dp1730
g65
(dp1731
sg74
g1716
sg67
(lp1732
g60
(g61
g62
NtRp1733
(dp1734
g65
(dp1735
g73
I4
ssg74
g1729
sg67
(lp1736
S'max-age=0'
p1737
asbasbasbag60
(g76
g62
NtRp1738
(dp1739
g65
(dp1740
sg74
g1424
sg67
(lp1741
g60
(g81
g62
NtRp1742
(dp1743
g65
(dp1744
g85
g86
ssg74
g1738
sg67
(lp1745
S'http_connection'
p1746
asbag60
(g81
g62
NtRp1747
(dp1748
g65
(dp1749
g92
g93
ssg74
g1738
sg67
(lp1750
S':'
asbag60
(g81
g62
NtRp1751
(dp1752
g65
(dp1753
sg74
g1738
sg67
(lp1754
g60
(g61
g62
NtRp1755
(dp1756
g65
(dp1757
g73
I4
ssg74
g1751
sg67
(lp1758
S'keep-alive'
p1759
asbasbasbag60
(g76
g62
NtRp1760
(dp1761
g65
(dp1762
sg74
g1424
sg67
(lp1763
g60
(g81
g62
NtRp1764
(dp1765
g65
(dp1766
g85
g86
ssg74
g1760
sg67
(lp1767
S'http_content_length'
p1768
asbag60
(g81
g62
NtRp1769
(dp1770
g65
(dp1771
g92
g93
ssg74
g1760
sg67
(lp1772
S':'
asbag60
(g81
g62
NtRp1773
(dp1774
g65
(dp1775
sg74
g1760
sg67
(lp1776
g60
(g61
g62
NtRp1777
(dp1778
g65
(dp1779
g73
I4
ssg74
g1773
sg67
(lp1780
g1540
asbasbasbag60
(g76
g62
NtRp1781
(dp1782
g65
(dp1783
sg74
g1424
sg67
(lp1784
g60
(g81
g62
NtRp1785
(dp1786
g65
(dp1787
g85
g86
ssg74
g1781
sg67
(lp1788
S'http_content_type'
p1789
asbag60
(g81
g62
NtRp1790
(dp1791
g65
(dp1792
g92
g93
ssg74
g1781
sg67
(lp1793
S':'
asbag60
(g81
g62
NtRp1794
(dp1795
g65
(dp1796
sg74
g1781
sg67
(lp1797
g60
(g61
g62
NtRp1798
(dp1799
g65
(dp1800
g73
I4
ssg74
g1794
sg67
(lp1801
g1562
asbasbasbag60
(g76
g62
NtRp1802
(dp1803
g65
(dp1804
sg74
g1424
sg67
(lp1805
g60
(g81
g62
NtRp1806
(dp1807
g65
(dp1808
g85
g86
ssg74
g1802
sg67
(lp1809
S'http_cookie'
p1810
asbag60
(g81
g62
NtRp1811
(dp1812
g65
(dp1813
g92
g93
ssg74
g1802
sg67
(lp1814
S':'
asbag60
(g81
g62
NtRp1815
(dp1816
g65
(dp1817
sg74
g1802
sg67
(lp1818
g60
(g61
g62
NtRp1819
(dp1820
g65
(dp1821
g73
I4
ssg74
g1815
sg67
(lp1822
S'session_id_welcome=127.0.0.1-082a2830-9bb6-4bfb-b2e2-4857b06c191e; session_id_admin=127.0.0.1-a96e0cfe-5117-4d37-8e25-f7dd128ab504; session_id_listado_1=127.0.0.1-477ec098-5436-4f6e-bfee-1a0bd88f6f9e; session_id_desglosar_emails=127.0.0.1-0a11b3b2-660c-433c-b71f-fc129286f26c; session_id_hemoal=127.0.0.1-442afb36-a73d-4692-979c-372017ada9e5; session_id_myappjav=127.0.0.1-b6da3776-a7b2-40a7-ab82-4eca2d3263a1; session_id_cual_es_tu_nombre=127.0.0.1-5e59e375-704d-4241-8b9c-5fd9f8c15773'
p1823
asbasbasbag60
(g76
g62
NtRp1824
(dp1825
g65
(dp1826
sg74
g1424
sg67
(lp1827
g60
(g81
g62
NtRp1828
(dp1829
g65
(dp1830
g85
g86
ssg74
g1824
sg67
(lp1831
S'http_host'
p1832
asbag60
(g81
g62
NtRp1833
(dp1834
g65
(dp1835
g92
g93
ssg74
g1824
sg67
(lp1836
S':'
asbag60
(g81
g62
NtRp1837
(dp1838
g65
(dp1839
sg74
g1824
sg67
(lp1840
g60
(g61
g62
NtRp1841
(dp1842
g65
(dp1843
g73
I4
ssg74
g1837
sg67
(lp1844
S'127.0.0.1:8000'
p1845
asbasbasbag60
(g76
g62
NtRp1846
(dp1847
g65
(dp1848
sg74
g1424
sg67
(lp1849
g60
(g81
g62
NtRp1850
(dp1851
g65
(dp1852
g85
g86
ssg74
g1846
sg67
(lp1853
S'http_referer'
p1854
asbag60
(g81
g62
NtRp1855
(dp1856
g65
(dp1857
g92
g93
ssg74
g1846
sg67
(lp1858
S':'
asbag60
(g81
g62
NtRp1859
(dp1860
g65
(dp1861
sg74
g1846
sg67
(lp1862
g60
(g61
g62
NtRp1863
(dp1864
g65
(dp1865
g73
I4
ssg74
g1859
sg67
(lp1866
S'http://127.0.0.1:8000/Desglosar_Emails/default/entrada_mod2'
p1867
asbasbasbag60
(g76
g62
NtRp1868
(dp1869
g65
(dp1870
sg74
g1424
sg67
(lp1871
g60
(g81
g62
NtRp1872
(dp1873
g65
(dp1874
g85
g86
ssg74
g1868
sg67
(lp1875
S'http_user_agent'
p1876
asbag60
(g81
g62
NtRp1877
(dp1878
g65
(dp1879
g92
g93
ssg74
g1868
sg67
(lp1880
S':'
asbag60
(g81
g62
NtRp1881
(dp1882
g65
(dp1883
sg74
g1868
sg67
(lp1884
g60
(g61
g62
NtRp1885
(dp1886
g65
(dp1887
g73
I4
ssg74
g1881
sg67
(lp1888
S'Mozilla/5.0 (Windows NT 6.1; WOW64; rv:6.0.2) Gecko/20100101 Firefox/6.0.2'
p1889
asbasbasbag60
(g76
g62
NtRp1890
(dp1891
g65
(dp1892
sg74
g1424
sg67
(lp1893
g60
(g81
g62
NtRp1894
(dp1895
g65
(dp1896
g85
g86
ssg74
g1890
sg67
(lp1897
S'is_jython'
p1898
asbag60
(g81
g62
NtRp1899
(dp1900
g65
(dp1901
g92
g93
ssg74
g1890
sg67
(lp1902
S':'
asbag60
(g81
g62
NtRp1903
(dp1904
g65
(dp1905
sg74
g1890
sg67
(lp1906
g60
(g61
g62
NtRp1907
(dp1908
g65
(dp1909
g73
I4
ssg74
g1903
sg67
(lp1910
g103
asbasbasbag60
(g76
g62
NtRp1911
(dp1912
g65
(dp1913
sg74
g1424
sg67
(lp1914
g60
(g81
g62
NtRp1915
(dp1916
g65
(dp1917
g85
g86
ssg74
g1911
sg67
(lp1918
S'path_info'
p1919
asbag60
(g81
g62
NtRp1920
(dp1921
g65
(dp1922
g92
g93
ssg74
g1911
sg67
(lp1923
S':'
asbag60
(g81
g62
NtRp1924
(dp1925
g65
(dp1926
sg74
g1911
sg67
(lp1927
g60
(g61
g62
NtRp1928
(dp1929
g65
(dp1930
g73
I4
ssg74
g1924
sg67
(lp1931
S'/Desglosar_Emails/default/entrada_mod2'
p1932
asbasbasbag60
(g76
g62
NtRp1933
(dp1934
g65
(dp1935
sg74
g1424
sg67
(lp1936
g60
(g81
g62
NtRp1937
(dp1938
g65
(dp1939
g85
g86
ssg74
g1933
sg67
(lp1940
S'query_string'
p1941
asbag60
(g81
g62
NtRp1942
(dp1943
g65
(dp1944
g92
g93
ssg74
g1933
sg67
(lp1945
S':'
asbag60
(g81
g62
NtRp1946
(dp1947
g65
(dp1948
sg74
g1933
sg67
(lp1949
g60
(g61
g62
NtRp1950
(dp1951
g65
(dp1952
g73
I4
ssg74
g1946
sg67
(lp1953
S''
asbasbasbag60
(g76
g62
NtRp1954
(dp1955
g65
(dp1956
sg74
g1424
sg67
(lp1957
g60
(g81
g62
NtRp1958
(dp1959
g65
(dp1960
g85
g86
ssg74
g1954
sg67
(lp1961
S'remote_addr'
p1962
asbag60
(g81
g62
NtRp1963
(dp1964
g65
(dp1965
g92
g93
ssg74
g1954
sg67
(lp1966
S':'
asbag60
(g81
g62
NtRp1967
(dp1968
g65
(dp1969
sg74
g1954
sg67
(lp1970
g60
(g61
g62
NtRp1971
(dp1972
g65
(dp1973
g73
I4
ssg74
g1967
sg67
(lp1974
g193
asbasbasbag60
(g76
g62
NtRp1975
(dp1976
g65
(dp1977
sg74
g1424
sg67
(lp1978
g60
(g81
g62
NtRp1979
(dp1980
g65
(dp1981
g85
g86
ssg74
g1975
sg67
(lp1982
S'remote_port'
p1983
asbag60
(g81
g62
NtRp1984
(dp1985
g65
(dp1986
g92
g93
ssg74
g1975
sg67
(lp1987
S':'
asbag60
(g81
g62
NtRp1988
(dp1989
g65
(dp1990
sg74
g1975
sg67
(lp1991
g60
(g61
g62
NtRp1992
(dp1993
g65
(dp1994
g73
I4
ssg74
g1988
sg67
(lp1995
S'52346'
p1996
asbasbasbag60
(g76
g62
NtRp1997
(dp1998
g65
(dp1999
sg74
g1424
sg67
(lp2000
g60
(g81
g62
NtRp2001
(dp2002
g65
(dp2003
g85
g86
ssg74
g1997
sg67
(lp2004
S'request_method'
p2005
asbag60
(g81
g62
NtRp2006
(dp2007
g65
(dp2008
g92
g93
ssg74
g1997
sg67
(lp2009
S':'
asbag60
(g81
g62
NtRp2010
(dp2011
g65
(dp2012
sg74
g1997
sg67
(lp2013
g60
(g61
g62
NtRp2014
(dp2015
g65
(dp2016
g73
I4
ssg74
g2010
sg67
(lp2017
S'POST'
p2018
asbasbasbag60
(g76
g62
NtRp2019
(dp2020
g65
(dp2021
sg74
g1424
sg67
(lp2022
g60
(g81
g62
NtRp2023
(dp2024
g65
(dp2025
g85
g86
ssg74
g2019
sg67
(lp2026
S'script_name'
p2027
asbag60
(g81
g62
NtRp2028
(dp2029
g65
(dp2030
g92
g93
ssg74
g2019
sg67
(lp2031
S':'
asbag60
(g81
g62
NtRp2032
(dp2033
g65
(dp2034
sg74
g2019
sg67
(lp2035
g60
(g61
g62
NtRp2036
(dp2037
g65
(dp2038
g73
I4
ssg74
g2032
sg67
(lp2039
S''
asbasbasbag60
(g76
g62
NtRp2040
(dp2041
g65
(dp2042
sg74
g1424
sg67
(lp2043
g60
(g81
g62
NtRp2044
(dp2045
g65
(dp2046
g85
g86
ssg74
g2040
sg67
(lp2047
S'server_name'
p2048
asbag60
(g81
g62
NtRp2049
(dp2050
g65
(dp2051
g92
g93
ssg74
g2040
sg67
(lp2052
S':'
asbag60
(g81
g62
NtRp2053
(dp2054
g65
(dp2055
sg74
g2040
sg67
(lp2056
g60
(g61
g62
NtRp2057
(dp2058
g65
(dp2059
g73
I4
ssg74
g2053
sg67
(lp2060
S'Swing'
p2061
asbasbasbag60
(g76
g62
NtRp2062
(dp2063
g65
(dp2064
sg74
g1424
sg67
(lp2065
g60
(g81
g62
NtRp2066
(dp2067
g65
(dp2068
g85
g86
ssg74
g2062
sg67
(lp2069
S'server_port'
p2070
asbag60
(g81
g62
NtRp2071
(dp2072
g65
(dp2073
g92
g93
ssg74
g2062
sg67
(lp2074
S':'
asbag60
(g81
g62
NtRp2075
(dp2076
g65
(dp2077
sg74
g2062
sg67
(lp2078
g60
(g61
g62
NtRp2079
(dp2080
g65
(dp2081
g73
I4
ssg74
g2075
sg67
(lp2082
S'8000'
p2083
asbasbasbag60
(g76
g62
NtRp2084
(dp2085
g65
(dp2086
sg74
g1424
sg67
(lp2087
g60
(g81
g62
NtRp2088
(dp2089
g65
(dp2090
g85
g86
ssg74
g2084
sg67
(lp2091
S'server_protocol'
p2092
asbag60
(g81
g62
NtRp2093
(dp2094
g65
(dp2095
g92
g93
ssg74
g2084
sg67
(lp2096
S':'
asbag60
(g81
g62
NtRp2097
(dp2098
g65
(dp2099
sg74
g2084
sg67
(lp2100
g60
(g61
g62
NtRp2101
(dp2102
g65
(dp2103
g73
I4
ssg74
g2097
sg67
(lp2104
S'HTTP/1.1'
p2105
asbasbasbag60
(g76
g62
NtRp2106
(dp2107
g65
(dp2108
sg74
g1424
sg67
(lp2109
g60
(g81
g62
NtRp2110
(dp2111
g65
(dp2112
g85
g86
ssg74
g2106
sg67
(lp2113
S'server_software'
p2114
asbag60
(g81
g62
NtRp2115
(dp2116
g65
(dp2117
g92
g93
ssg74
g2106
sg67
(lp2118
S':'
asbag60
(g81
g62
NtRp2119
(dp2120
g65
(dp2121
sg74
g2106
sg67
(lp2122
g60
(g61
g62
NtRp2123
(dp2124
g65
(dp2125
g73
I4
ssg74
g2119
sg67
(lp2126
S'Rocket 1.2.2'
p2127
asbasbasbag60
(g76
g62
NtRp2128
(dp2129
g65
(dp2130
sg74
g1424
sg67
(lp2131
g60
(g81
g62
NtRp2132
(dp2133
g65
(dp2134
g85
g86
ssg74
g2128
sg67
(lp2135
S'web2py_crontype'
p2136
asbag60
(g81
g62
NtRp2137
(dp2138
g65
(dp2139
g92
g93
ssg74
g2128
sg67
(lp2140
S':'
asbag60
(g81
g62
NtRp2141
(dp2142
g65
(dp2143
sg74
g2128
sg67
(lp2144
g60
(g61
g62
NtRp2145
(dp2146
g65
(dp2147
g73
I4
ssg74
g2141
sg67
(lp2148
S'hard'
p2149
asbasbasbag60
(g76
g62
NtRp2150
(dp2151
g65
(dp2152
sg74
g1424
sg67
(lp2153
g60
(g81
g62
NtRp2154
(dp2155
g65
(dp2156
g85
g86
ssg74
g2150
sg67
(lp2157
S'web2py_path'
p2158
asbag60
(g81
g62
NtRp2159
(dp2160
g65
(dp2161
g92
g93
ssg74
g2150
sg67
(lp2162
S':'
asbag60
(g81
g62
NtRp2163
(dp2164
g65
(dp2165
sg74
g2150
sg67
(lp2166
g60
(g61
g62
NtRp2167
(dp2168
g65
(dp2169
g73
I4
ssg74
g2163
sg67
(lp2170
g1471
asbasbasbag60
(g76
g62
NtRp2171
(dp2172
g65
(dp2173
sg74
g1424
sg67
(lp2174
g60
(g81
g62
NtRp2175
(dp2176
g65
(dp2177
g85
g86
ssg74
g2171
sg67
(lp2178
S'web2py_version'
p2179
asbag60
(g81
g62
NtRp2180
(dp2181
g65
(dp2182
g92
g93
ssg74
g2171
sg67
(lp2183
S':'
asbag60
(g81
g62
NtRp2184
(dp2185
g65
(dp2186
sg74
g2171
sg67
(lp2187
g60
(g61
g62
NtRp2188
(dp2189
g65
(dp2190
g73
I4
ssg74
g2184
sg67
(lp2191
S'Version 1.98.2 (2011-08-04 00:47:09)\n'
p2192
asbasbasbag60
(g76
g62
NtRp2193
(dp2194
g65
(dp2195
sg74
g1424
sg67
(lp2196
g60
(g81
g62
NtRp2197
(dp2198
g65
(dp2199
g85
g86
ssg74
g2193
sg67
(lp2200
S'wsgi_errors'
p2201
asbag60
(g81
g62
NtRp2202
(dp2203
g65
(dp2204
g92
g93
ssg74
g2193
sg67
(lp2205
S':'
asbag60
(g81
g62
NtRp2206
(dp2207
g65
(dp2208
sg74
g2193
sg67
(lp2209
g60
(g61
g62
NtRp2210
(dp2211
g65
(dp2212
g73
I4
ssg74
g2206
sg67
(lp2213
S"<open file '<stderr>', mode 'w' at 0x003100B0>"
p2214
asbasbasbag60
(g76
g62
NtRp2215
(dp2216
g65
(dp2217
sg74
g1424
sg67
(lp2218
g60
(g81
g62
NtRp2219
(dp2220
g65
(dp2221
g85
g86
ssg74
g2215
sg67
(lp2222
S'wsgi_file_wrapper'
p2223
asbag60
(g81
g62
NtRp2224
(dp2225
g65
(dp2226
g92
g93
ssg74
g2215
sg67
(lp2227
S':'
asbag60
(g81
g62
NtRp2228
(dp2229
g65
(dp2230
sg74
g2215
sg67
(lp2231
g60
(g61
g62
NtRp2232
(dp2233
g65
(dp2234
g73
I4
ssg74
g2228
sg67
(lp2235
S'<class gluon.rocket.FileWrapper at 0x02FFC1B0>'
p2236
asbasbasbag60
(g76
g62
NtRp2237
(dp2238
g65
(dp2239
sg74
g1424
sg67
(lp2240
g60
(g81
g62
NtRp2241
(dp2242
g65
(dp2243
g85
g86
ssg74
g2237
sg67
(lp2244
S'wsgi_input'
p2245
asbag60
(g81
g62
NtRp2246
(dp2247
g65
(dp2248
g92
g93
ssg74
g2237
sg67
(lp2249
S':'
asbag60
(g81
g62
NtRp2250
(dp2251
g65
(dp2252
sg74
g2237
sg67
(lp2253
g60
(g61
g62
NtRp2254
(dp2255
g65
(dp2256
g73
I4
ssg74
g2250
sg67
(lp2257
S'<socket._fileobject object at 0x0873DCF0>'
p2258
asbasbasbag60
(g76
g62
NtRp2259
(dp2260
g65
(dp2261
sg74
g1424
sg67
(lp2262
g60
(g81
g62
NtRp2263
(dp2264
g65
(dp2265
g85
g86
ssg74
g2259
sg67
(lp2266
S'wsgi_multiprocess'
p2267
asbag60
(g81
g62
NtRp2268
(dp2269
g65
(dp2270
g92
g93
ssg74
g2259
sg67
(lp2271
S':'
asbag60
(g81
g62
NtRp2272
(dp2273
g65
(dp2274
sg74
g2259
sg67
(lp2275
g60
(g61
g62
NtRp2276
(dp2277
g65
(dp2278
g73
I4
ssg74
g2272
sg67
(lp2279
g103
asbasbasbag60
(g76
g62
NtRp2280
(dp2281
g65
(dp2282
sg74
g1424
sg67
(lp2283
g60
(g81
g62
NtRp2284
(dp2285
g65
(dp2286
g85
g86
ssg74
g2280
sg67
(lp2287
S'wsgi_multithread'
p2288
asbag60
(g81
g62
NtRp2289
(dp2290
g65
(dp2291
g92
g93
ssg74
g2280
sg67
(lp2292
S':'
asbag60
(g81
g62
NtRp2293
(dp2294
g65
(dp2295
sg74
g2280
sg67
(lp2296
g60
(g61
g62
NtRp2297
(dp2298
g65
(dp2299
g73
I4
ssg74
g2293
sg67
(lp2300
S'True'
p2301
asbasbasbag60
(g76
g62
NtRp2302
(dp2303
g65
(dp2304
sg74
g1424
sg67
(lp2305
g60
(g81
g62
NtRp2306
(dp2307
g65
(dp2308
g85
g86
ssg74
g2302
sg67
(lp2309
S'wsgi_run_once'
p2310
asbag60
(g81
g62
NtRp2311
(dp2312
g65
(dp2313
g92
g93
ssg74
g2302
sg67
(lp2314
S':'
asbag60
(g81
g62
NtRp2315
(dp2316
g65
(dp2317
sg74
g2302
sg67
(lp2318
g60
(g61
g62
NtRp2319
(dp2320
g65
(dp2321
g73
I4
ssg74
g2315
sg67
(lp2322
g103
asbasbasbag60
(g76
g62
NtRp2323
(dp2324
g65
(dp2325
sg74
g1424
sg67
(lp2326
g60
(g81
g62
NtRp2327
(dp2328
g65
(dp2329
g85
g86
ssg74
g2323
sg67
(lp2330
S'wsgi_url_scheme'
p2331
asbag60
(g81
g62
NtRp2332
(dp2333
g65
(dp2334
g92
g93
ssg74
g2323
sg67
(lp2335
S':'
asbag60
(g81
g62
NtRp2336
(dp2337
g65
(dp2338
sg74
g2323
sg67
(lp2339
g60
(g61
g62
NtRp2340
(dp2341
g65
(dp2342
g73
I4
ssg74
g2336
sg67
(lp2343
S'http'
p2344
asbasbasbag60
(g76
g62
NtRp2345
(dp2346
g65
(dp2347
sg74
g1424
sg67
(lp2348
g60
(g81
g62
NtRp2349
(dp2350
g65
(dp2351
g85
g86
ssg74
g2345
sg67
(lp2352
S'wsgi_version'
p2353
asbag60
(g81
g62
NtRp2354
(dp2355
g65
(dp2356
g92
g93
ssg74
g2345
sg67
(lp2357
S':'
asbag60
(g81
g62
NtRp2358
(dp2359
g65
(dp2360
sg74
g2345
sg67
(lp2361
g60
(g61
g62
NtRp2362
(dp2363
g65
(dp2364
g73
I4
ssg74
g2358
sg67
(lp2365
g60
(g69
g62
NtRp2366
(dp2367
g65
(dp2368
g73
I3
ssg74
Nsg67
(lp2369
g60
(g76
g62
NtRp2370
(dp2371
g65
(dp2372
sg74
g2366
sg67
(lp2373
g60
(g81
g62
NtRp2374
(dp2375
g65
(dp2376
sg74
g2370
sg67
(lp2377
g60
(g61
g62
NtRp2378
(dp2379
g65
(dp2380
g73
I3
ssg74
g2374
sg67
(lp2381
S'1'
asbasbasbag60
(g76
g62
NtRp2382
(dp2383
g65
(dp2384
sg74
g2366
sg67
(lp2385
g60
(g81
g62
NtRp2386
(dp2387
g65
(dp2388
sg74
g2382
sg67
(lp2389
g60
(g61
g62
NtRp2390
(dp2391
g65
(dp2392
g73
I3
ssg74
g2386
sg67
(lp2393
S'0'
asbasbasbasbasbasbasbasbasbasbasbag60
(g76
g62
NtRp2394
(dp2395
g65
(dp2396
sg74
g70
sg67
(lp2397
g60
(g81
g62
NtRp2398
(dp2399
g65
(dp2400
g85
g86
ssg74
g2394
sg67
(lp2401
S'extension'
p2402
asbag60
(g81
g62
NtRp2403
(dp2404
g65
(dp2405
g92
g93
ssg74
g2394
sg67
(lp2406
S':'
asbag60
(g81
g62
NtRp2407
(dp2408
g65
(dp2409
sg74
g2394
sg67
(lp2410
g60
(g61
g62
NtRp2411
(dp2412
g65
(dp2413
g73
I5
ssg74
g2407
sg67
(lp2414
S'html'
p2415
asbasbasbag60
(g76
g62
NtRp2416
(dp2417
g65
(dp2418
sg74
g70
sg67
(lp2419
g60
(g81
g62
NtRp2420
(dp2421
g65
(dp2422
g85
g86
ssg74
g2416
sg67
(lp2423
S'folder'
p2424
asbag60
(g81
g62
NtRp2425
(dp2426
g65
(dp2427
g92
g93
ssg74
g2416
sg67
(lp2428
S':'
asbag60
(g81
g62
NtRp2429
(dp2430
g65
(dp2431
sg74
g2416
sg67
(lp2432
g60
(g61
g62
NtRp2433
(dp2434
g65
(dp2435
g73
I5
ssg74
g2429
sg67
(lp2436
S'C:\\Users\\Atomico\\web2py\\applications\\Desglosar_Emails\\'
p2437
asbasbasbag60
(g76
g62
NtRp2438
(dp2439
g65
(dp2440
sg74
g70
sg67
(lp2441
g60
(g81
g62
NtRp2442
(dp2443
g65
(dp2444
g85
g86
ssg74
g2438
sg67
(lp2445
S'function'
p2446
asbag60
(g81
g62
NtRp2447
(dp2448
g65
(dp2449
g92
g93
ssg74
g2438
sg67
(lp2450
S':'
asbag60
(g81
g62
NtRp2451
(dp2452
g65
(dp2453
sg74
g2438
sg67
(lp2454
g60
(g61
g62
NtRp2455
(dp2456
g65
(dp2457
g73
I5
ssg74
g2451
sg67
(lp2458
S'entrada_mod2'
p2459
asbasbasbag60
(g76
g62
NtRp2460
(dp2461
g65
(dp2462
sg74
g70
sg67
(lp2463
g60
(g81
g62
NtRp2464
(dp2465
g65
(dp2466
g85
g86
ssg74
g2460
sg67
(lp2467
S'get_vars'
p2468
asbag60
(g81
g62
NtRp2469
(dp2470
g65
(dp2471
g92
g93
ssg74
g2460
sg67
(lp2472
S':'
asbag60
(g81
g62
NtRp2473
(dp2474
g65
(dp2475
sg74
g2460
sg67
(lp2476
g60
(g61
g62
NtRp2477
(dp2478
g65
(dp2479
g73
I5
ssg74
g2473
sg67
(lp2480
g60
(g69
g62
NtRp2481
(dp2482
g65
(dp2483
g73
I4
ssg74
Nsg67
(lp2484
sbasbasbasbag60
(g76
g62
NtRp2485
(dp2486
g65
(dp2487
sg74
g70
sg67
(lp2488
g60
(g81
g62
NtRp2489
(dp2490
g65
(dp2491
g85
g86
ssg74
g2485
sg67
(lp2492
S'is_https'
p2493
asbag60
(g81
g62
NtRp2494
(dp2495
g65
(dp2496
g92
g93
ssg74
g2485
sg67
(lp2497
S':'
asbag60
(g81
g62
NtRp2498
(dp2499
g65
(dp2500
sg74
g2485
sg67
(lp2501
g60
(g61
g62
NtRp2502
(dp2503
g65
(dp2504
g73
I5
ssg74
g2498
sg67
(lp2505
g103
asbasbasbag60
(g76
g62
NtRp2506
(dp2507
g65
(dp2508
sg74
g70
sg67
(lp2509
g60
(g81
g62
NtRp2510
(dp2511
g65
(dp2512
g85
g86
ssg74
g2506
sg67
(lp2513
S'is_local'
p2514
asbag60
(g81
g62
NtRp2515
(dp2516
g65
(dp2517
g92
g93
ssg74
g2506
sg67
(lp2518
S':'
asbag60
(g81
g62
NtRp2519
(dp2520
g65
(dp2521
sg74
g2506
sg67
(lp2522
g60
(g61
g62
NtRp2523
(dp2524
g65
(dp2525
g73
I5
ssg74
g2519
sg67
(lp2526
g2301
asbasbasbag60
(g76
g62
NtRp2527
(dp2528
g65
(dp2529
sg74
g70
sg67
(lp2530
g60
(g81
g62
NtRp2531
(dp2532
g65
(dp2533
g85
g86
ssg74
g2527
sg67
(lp2534
S'is_restful'
p2535
asbag60
(g81
g62
NtRp2536
(dp2537
g65
(dp2538
g92
g93
ssg74
g2527
sg67
(lp2539
S':'
asbag60
(g81
g62
NtRp2540
(dp2541
g65
(dp2542
sg74
g2527
sg67
(lp2543
g60
(g61
g62
NtRp2544
(dp2545
g65
(dp2546
g73
I5
ssg74
g2540
sg67
(lp2547
g103
asbasbasbag60
(g76
g62
NtRp2548
(dp2549
g65
(dp2550
sg74
g70
sg67
(lp2551
g60
(g81
g62
NtRp2552
(dp2553
g65
(dp2554
g85
g86
ssg74
g2548
sg67
(lp2555
S'now'
p2556
asbag60
(g81
g62
NtRp2557
(dp2558
g65
(dp2559
g92
g93
ssg74
g2548
sg67
(lp2560
S':'
asbag60
(g81
g62
NtRp2561
(dp2562
g65
(dp2563
sg74
g2548
sg67
(lp2564
g60
(g61
g62
NtRp2565
(dp2566
g65
(dp2567
g73
I5
ssg74
g2561
sg67
(lp2568
S'datetime.datetime(2011, 9, 19, 6, 11, 48, 311000)'
p2569
asbasbasbag60
(g76
g62
NtRp2570
(dp2571
g65
(dp2572
sg74
g70
sg67
(lp2573
g60
(g81
g62
NtRp2574
(dp2575
g65
(dp2576
g85
g86
ssg74
g2570
sg67
(lp2577
S'post_vars'
p2578
asbag60
(g81
g62
NtRp2579
(dp2580
g65
(dp2581
g92
g93
ssg74
g2570
sg67
(lp2582
S':'
asbag60
(g81
g62
NtRp2583
(dp2584
g65
(dp2585
sg74
g2570
sg67
(lp2586
g60
(g61
g62
NtRp2587
(dp2588
g65
(dp2589
g73
I5
ssg74
g2583
sg67
(lp2590
g60
(g69
g62
NtRp2591
(dp2592
g65
(dp2593
g73
I4
ssg74
Nsg67
(lp2594
g60
(g76
g62
NtRp2595
(dp2596
g65
(dp2597
sg74
g2591
sg67
(lp2598
g60
(g81
g62
NtRp2599
(dp2600
g65
(dp2601
g85
g86
ssg74
g2595
sg67
(lp2602
S'longitud'
p2603
asbag60
(g81
g62
NtRp2604
(dp2605
g65
(dp2606
g92
g93
ssg74
g2595
sg67
(lp2607
S':'
asbag60
(g81
g62
NtRp2608
(dp2609
g65
(dp2610
sg74
g2595
sg67
(lp2611
g60
(g61
g62
NtRp2612
(dp2613
g65
(dp2614
g73
I4
ssg74
g2608
sg67
(lp2615
S''
asbasbasbag60
(g76
g62
NtRp2616
(dp2617
g65
(dp2618
sg74
g2591
sg67
(lp2619
g60
(g81
g62
NtRp2620
(dp2621
g65
(dp2622
g85
g86
ssg74
g2616
sg67
(lp2623
S'texto'
p2624
asbag60
(g81
g62
NtRp2625
(dp2626
g65
(dp2627
g92
g93
ssg74
g2616
sg67
(lp2628
S':'
asbag60
(g81
g62
NtRp2629
(dp2630
g65
(dp2631
sg74
g2616
sg67
(lp2632
g60
(g61
g62
NtRp2633
(dp2634
g65
(dp2635
g73
I4
ssg74
g2629
sg67
(lp2636
S''
asbasbasbasbasbasbasbag60
(g76
g62
NtRp2637
(dp2638
g65
(dp2639
sg74
g70
sg67
(lp2640
g60
(g81
g62
NtRp2641
(dp2642
g65
(dp2643
g85
g86
ssg74
g2637
sg67
(lp2644
S'url'
p2645
asbag60
(g81
g62
NtRp2646
(dp2647
g65
(dp2648
g92
g93
ssg74
g2637
sg67
(lp2649
S':'
asbag60
(g81
g62
NtRp2650
(dp2651
g65
(dp2652
sg74
g2637
sg67
(lp2653
g60
(g61
g62
NtRp2654
(dp2655
g65
(dp2656
g73
I5
ssg74
g2650
sg67
(lp2657
S'/Desglosar_Emails/default/entrada_mod2'
p2658
asbasbasbag60
(g76
g62
NtRp2659
(dp2660
g65
(dp2661
sg74
g70
sg67
(lp2662
g60
(g81
g62
NtRp2663
(dp2664
g65
(dp2665
g85
g86
ssg74
g2659
sg67
(lp2666
S'uuid'
p2667
asbag60
(g81
g62
NtRp2668
(dp2669
g65
(dp2670
g92
g93
ssg74
g2659
sg67
(lp2671
S':'
asbag60
(g81
g62
NtRp2672
(dp2673
g65
(dp2674
sg74
g2659
sg67
(lp2675
g60
(g61
g62
NtRp2676
(dp2677
g65
(dp2678
g73
I5
ssg74
g2672
sg67
(lp2679
S'Desglosar_Emails/127.0.0.1.2011-09-19.06-11-48.c5c8c2a5-602a-4ec7-b36f-7845a1c0cdd5'
p2680
asbasbasbag60
(g76
g62
NtRp2681
(dp2682
g65
(dp2683
sg74
g70
sg67
(lp2684
g60
(g81
g62
NtRp2685
(dp2686
g65
(dp2687
g85
g86
ssg74
g2681
sg67
(lp2688
S'vars'
p2689
asbag60
(g81
g62
NtRp2690
(dp2691
g65
(dp2692
g92
g93
ssg74
g2681
sg67
(lp2693
S':'
asbag60
(g81
g62
NtRp2694
(dp2695
g65
(dp2696
sg74
g2681
sg67
(lp2697
g60
(g61
g62
NtRp2698
(dp2699
g65
(dp2700
g73
I5
ssg74
g2694
sg67
(lp2701
g60
(g69
g62
NtRp2702
(dp2703
g65
(dp2704
g73
I4
ssg74
Nsg67
(lp2705
g60
(g76
g62
NtRp2706
(dp2707
g65
(dp2708
sg74
g2702
sg67
(lp2709
g60
(g81
g62
NtRp2710
(dp2711
g65
(dp2712
g85
g86
ssg74
g2706
sg67
(lp2713
g2603
asbag60
(g81
g62
NtRp2714
(dp2715
g65
(dp2716
g92
g93
ssg74
g2706
sg67
(lp2717
S':'
asbag60
(g81
g62
NtRp2718
(dp2719
g65
(dp2720
sg74
g2706
sg67
(lp2721
g60
(g61
g62
NtRp2722
(dp2723
g65
(dp2724
g73
I4
ssg74
g2718
sg67
(lp2725
S''
asbasbasbag60
(g76
g62
NtRp2726
(dp2727
g65
(dp2728
sg74
g2702
sg67
(lp2729
g60
(g81
g62
NtRp2730
(dp2731
g65
(dp2732
g85
g86
ssg74
g2726
sg67
(lp2733
g2624
asbag60
(g81
g62
NtRp2734
(dp2735
g65
(dp2736
g92
g93
ssg74
g2726
sg67
(lp2737
S':'
asbag60
(g81
g62
NtRp2738
(dp2739
g65
(dp2740
sg74
g2726
sg67
(lp2741
g60
(g61
g62
NtRp2742
(dp2743
g65
(dp2744
g73
I4
ssg74
g2738
sg67
(lp2745
S''
asbasbasbasbasbasbasbag60
(g76
g62
NtRp2746
(dp2747
g65
(dp2748
sg74
g70
sg67
(lp2749
g60
(g81
g62
NtRp2750
(dp2751
g65
(dp2752
g85
g86
ssg74
g2746
sg67
(lp2753
S'wsgi'
p2754
asbag60
(g81
g62
NtRp2755
(dp2756
g65
(dp2757
g92
g93
ssg74
g2746
sg67
(lp2758
S':'
asbag60
(g81
g62
NtRp2759
(dp2760
g65
(dp2761
sg74
g2746
sg67
(lp2762
g60
(g61
g62
NtRp2763
(dp2764
g65
(dp2765
g73
I5
ssg74
g2759
sg67
(lp2766
g60
(g69
g62
NtRp2767
(dp2768
g65
(dp2769
g73
I4
ssg74
Nsg67
(lp2770
g60
(g76
g62
NtRp2771
(dp2772
g65
(dp2773
sg74
g2767
sg67
(lp2774
g60
(g81
g62
NtRp2775
(dp2776
g65
(dp2777
g85
g86
ssg74
g2771
sg67
(lp2778
S'environ'
p2779
asbag60
(g81
g62
NtRp2780
(dp2781
g65
(dp2782
g92
g93
ssg74
g2771
sg67
(lp2783
S':'
asbag60
(g81
g62
NtRp2784
(dp2785
g65
(dp2786
sg74
g2771
sg67
(lp2787
g60
(g61
g62
NtRp2788
(dp2789
g65
(dp2790
g73
I4
ssg74
g2784
sg67
(lp2791
g60
(g69
g62
NtRp2792
(dp2793
g65
(dp2794
g73
I3
ssg74
Nsg67
(lp2795
g60
(g76
g62
NtRp2796
(dp2797
g65
(dp2798
sg74
g2792
sg67
(lp2799
g60
(g81
g62
NtRp2800
(dp2801
g65
(dp2802
g85
g86
ssg74
g2796
sg67
(lp2803
S'CONTENT_LENGTH'
p2804
asbag60
(g81
g62
NtRp2805
(dp2806
g65
(dp2807
g92
g93
ssg74
g2796
sg67
(lp2808
S':'
asbag60
(g81
g62
NtRp2809
(dp2810
g65
(dp2811
sg74
g2796
sg67
(lp2812
g60
(g61
g62
NtRp2813
(dp2814
g65
(dp2815
g73
I3
ssg74
g2809
sg67
(lp2816
g1540
asbasbasbag60
(g76
g62
NtRp2817
(dp2818
g65
(dp2819
sg74
g2792
sg67
(lp2820
g60
(g81
g62
NtRp2821
(dp2822
g65
(dp2823
g85
g86
ssg74
g2817
sg67
(lp2824
S'CONTENT_TYPE'
p2825
asbag60
(g81
g62
NtRp2826
(dp2827
g65
(dp2828
g92
g93
ssg74
g2817
sg67
(lp2829
S':'
asbag60
(g81
g62
NtRp2830
(dp2831
g65
(dp2832
sg74
g2817
sg67
(lp2833
g60
(g61
g62
NtRp2834
(dp2835
g65
(dp2836
g73
I3
ssg74
g2830
sg67
(lp2837
g1562
asbasbasbag60
(g76
g62
NtRp2838
(dp2839
g65
(dp2840
sg74
g2792
sg67
(lp2841
g60
(g81
g62
NtRp2842
(dp2843
g65
(dp2844
g85
g86
ssg74
g2838
sg67
(lp2845
S'HTTP_ACCEPT'
p2846
asbag60
(g81
g62
NtRp2847
(dp2848
g65
(dp2849
g92
g93
ssg74
g2838
sg67
(lp2850
S':'
asbag60
(g81
g62
NtRp2851
(dp2852
g65
(dp2853
sg74
g2838
sg67
(lp2854
g60
(g61
g62
NtRp2855
(dp2856
g65
(dp2857
g73
I3
ssg74
g2851
sg67
(lp2858
g1649
asbasbasbag60
(g76
g62
NtRp2859
(dp2860
g65
(dp2861
sg74
g2792
sg67
(lp2862
g60
(g81
g62
NtRp2863
(dp2864
g65
(dp2865
g85
g86
ssg74
g2859
sg67
(lp2866
S'HTTP_ACCEPT_CHARSET'
p2867
asbag60
(g81
g62
NtRp2868
(dp2869
g65
(dp2870
g92
g93
ssg74
g2859
sg67
(lp2871
S':'
asbag60
(g81
g62
NtRp2872
(dp2873
g65
(dp2874
sg74
g2859
sg67
(lp2875
g60
(g61
g62
NtRp2876
(dp2877
g65
(dp2878
g73
I3
ssg74
g2872
sg67
(lp2879
g1671
asbasbasbag60
(g76
g62
NtRp2880
(dp2881
g65
(dp2882
sg74
g2792
sg67
(lp2883
g60
(g81
g62
NtRp2884
(dp2885
g65
(dp2886
g85
g86
ssg74
g2880
sg67
(lp2887
S'HTTP_ACCEPT_ENCODING'
p2888
asbag60
(g81
g62
NtRp2889
(dp2890
g65
(dp2891
g92
g93
ssg74
g2880
sg67
(lp2892
S':'
asbag60
(g81
g62
NtRp2893
(dp2894
g65
(dp2895
sg74
g2880
sg67
(lp2896
g60
(g61
g62
NtRp2897
(dp2898
g65
(dp2899
g73
I3
ssg74
g2893
sg67
(lp2900
g1693
asbasbasbag60
(g76
g62
NtRp2901
(dp2902
g65
(dp2903
sg74
g2792
sg67
(lp2904
g60
(g81
g62
NtRp2905
(dp2906
g65
(dp2907
g85
g86
ssg74
g2901
sg67
(lp2908
S'HTTP_ACCEPT_LANGUAGE'
p2909
asbag60
(g81
g62
NtRp2910
(dp2911
g65
(dp2912
g92
g93
ssg74
g2901
sg67
(lp2913
S':'
asbag60
(g81
g62
NtRp2914
(dp2915
g65
(dp2916
sg74
g2901
sg67
(lp2917
g60
(g61
g62
NtRp2918
(dp2919
g65
(dp2920
g73
I3
ssg74
g2914
sg67
(lp2921
g1715
asbasbasbag60
(g76
g62
NtRp2922
(dp2923
g65
(dp2924
sg74
g2792
sg67
(lp2925
g60
(g81
g62
NtRp2926
(dp2927
g65
(dp2928
g85
g86
ssg74
g2922
sg67
(lp2929
S'HTTP_CACHE_CONTROL'
p2930
asbag60
(g81
g62
NtRp2931
(dp2932
g65
(dp2933
g92
g93
ssg74
g2922
sg67
(lp2934
S':'
asbag60
(g81
g62
NtRp2935
(dp2936
g65
(dp2937
sg74
g2922
sg67
(lp2938
g60
(g61
g62
NtRp2939
(dp2940
g65
(dp2941
g73
I3
ssg74
g2935
sg67
(lp2942
g1737
asbasbasbag60
(g76
g62
NtRp2943
(dp2944
g65
(dp2945
sg74
g2792
sg67
(lp2946
g60
(g81
g62
NtRp2947
(dp2948
g65
(dp2949
g85
g86
ssg74
g2943
sg67
(lp2950
S'HTTP_CONNECTION'
p2951
asbag60
(g81
g62
NtRp2952
(dp2953
g65
(dp2954
g92
g93
ssg74
g2943
sg67
(lp2955
S':'
asbag60
(g81
g62
NtRp2956
(dp2957
g65
(dp2958
sg74
g2943
sg67
(lp2959
g60
(g61
g62
NtRp2960
(dp2961
g65
(dp2962
g73
I3
ssg74
g2956
sg67
(lp2963
g1759
asbasbasbag60
(g76
g62
NtRp2964
(dp2965
g65
(dp2966
sg74
g2792
sg67
(lp2967
g60
(g81
g62
NtRp2968
(dp2969
g65
(dp2970
g85
g86
ssg74
g2964
sg67
(lp2971
S'HTTP_CONTENT_LENGTH'
p2972
asbag60
(g81
g62
NtRp2973
(dp2974
g65
(dp2975
g92
g93
ssg74
g2964
sg67
(lp2976
S':'
asbag60
(g81
g62
NtRp2977
(dp2978
g65
(dp2979
sg74
g2964
sg67
(lp2980
g60
(g61
g62
NtRp2981
(dp2982
g65
(dp2983
g73
I3
ssg74
g2977
sg67
(lp2984
g1540
asbasbasbag60
(g76
g62
NtRp2985
(dp2986
g65
(dp2987
sg74
g2792
sg67
(lp2988
g60
(g81
g62
NtRp2989
(dp2990
g65
(dp2991
g85
g86
ssg74
g2985
sg67
(lp2992
S'HTTP_CONTENT_TYPE'
p2993
asbag60
(g81
g62
NtRp2994
(dp2995
g65
(dp2996
g92
g93
ssg74
g2985
sg67
(lp2997
S':'
asbag60
(g81
g62
NtRp2998
(dp2999
g65
(dp3000
sg74
g2985
sg67
(lp3001
g60
(g61
g62
NtRp3002
(dp3003
g65
(dp3004
g73
I3
ssg74
g2998
sg67
(lp3005
g1562
asbasbasbag60
(g76
g62
NtRp3006
(dp3007
g65
(dp3008
sg74
g2792
sg67
(lp3009
g60
(g81
g62
NtRp3010
(dp3011
g65
(dp3012
g85
g86
ssg74
g3006
sg67
(lp3013
S'HTTP_COOKIE'
p3014
asbag60
(g81
g62
NtRp3015
(dp3016
g65
(dp3017
g92
g93
ssg74
g3006
sg67
(lp3018
S':'
asbag60
(g81
g62
NtRp3019
(dp3020
g65
(dp3021
sg74
g3006
sg67
(lp3022
g60
(g61
g62
NtRp3023
(dp3024
g65
(dp3025
g73
I3
ssg74
g3019
sg67
(lp3026
g1823
asbasbasbag60
(g76
g62
NtRp3027
(dp3028
g65
(dp3029
sg74
g2792
sg67
(lp3030
g60
(g81
g62
NtRp3031
(dp3032
g65
(dp3033
g85
g86
ssg74
g3027
sg67
(lp3034
S'HTTP_HOST'
p3035
asbag60
(g81
g62
NtRp3036
(dp3037
g65
(dp3038
g92
g93
ssg74
g3027
sg67
(lp3039
S':'
asbag60
(g81
g62
NtRp3040
(dp3041
g65
(dp3042
sg74
g3027
sg67
(lp3043
g60
(g61
g62
NtRp3044
(dp3045
g65
(dp3046
g73
I3
ssg74
g3040
sg67
(lp3047
g1845
asbasbasbag60
(g76
g62
NtRp3048
(dp3049
g65
(dp3050
sg74
g2792
sg67
(lp3051
g60
(g81
g62
NtRp3052
(dp3053
g65
(dp3054
g85
g86
ssg74
g3048
sg67
(lp3055
S'HTTP_REFERER'
p3056
asbag60
(g81
g62
NtRp3057
(dp3058
g65
(dp3059
g92
g93
ssg74
g3048
sg67
(lp3060
S':'
asbag60
(g81
g62
NtRp3061
(dp3062
g65
(dp3063
sg74
g3048
sg67
(lp3064
g60
(g61
g62
NtRp3065
(dp3066
g65
(dp3067
g73
I3
ssg74
g3061
sg67
(lp3068
g1867
asbasbasbag60
(g76
g62
NtRp3069
(dp3070
g65
(dp3071
sg74
g2792
sg67
(lp3072
g60
(g81
g62
NtRp3073
(dp3074
g65
(dp3075
g85
g86
ssg74
g3069
sg67
(lp3076
S'HTTP_USER_AGENT'
p3077
asbag60
(g81
g62
NtRp3078
(dp3079
g65
(dp3080
g92
g93
ssg74
g3069
sg67
(lp3081
S':'
asbag60
(g81
g62
NtRp3082
(dp3083
g65
(dp3084
sg74
g3069
sg67
(lp3085
g60
(g61
g62
NtRp3086
(dp3087
g65
(dp3088
g73
I3
ssg74
g3082
sg67
(lp3089
g1889
asbasbasbag60
(g76
g62
NtRp3090
(dp3091
g65
(dp3092
sg74
g2792
sg67
(lp3093
g60
(g81
g62
NtRp3094
(dp3095
g65
(dp3096
g85
g86
ssg74
g3090
sg67
(lp3097
S'PATH_INFO'
p3098
asbag60
(g81
g62
NtRp3099
(dp3100
g65
(dp3101
g92
g93
ssg74
g3090
sg67
(lp3102
S':'
asbag60
(g81
g62
NtRp3103
(dp3104
g65
(dp3105
sg74
g3090
sg67
(lp3106
g60
(g61
g62
NtRp3107
(dp3108
g65
(dp3109
g73
I3
ssg74
g3103
sg67
(lp3110
g1932
asbasbasbag60
(g76
g62
NtRp3111
(dp3112
g65
(dp3113
sg74
g2792
sg67
(lp3114
g60
(g81
g62
NtRp3115
(dp3116
g65
(dp3117
g85
g86
ssg74
g3111
sg67
(lp3118
S'QUERY_STRING'
p3119
asbag60
(g81
g62
NtRp3120
(dp3121
g65
(dp3122
g92
g93
ssg74
g3111
sg67
(lp3123
S':'
asbag60
(g81
g62
NtRp3124
(dp3125
g65
(dp3126
sg74
g3111
sg67
(lp3127
g60
(g61
g62
NtRp3128
(dp3129
g65
(dp3130
g73
I3
ssg74
g3124
sg67
(lp3131
S''
asbasbasbag60
(g76
g62
NtRp3132
(dp3133
g65
(dp3134
sg74
g2792
sg67
(lp3135
g60
(g81
g62
NtRp3136
(dp3137
g65
(dp3138
g85
g86
ssg74
g3132
sg67
(lp3139
S'REMOTE_ADDR'
p3140
asbag60
(g81
g62
NtRp3141
(dp3142
g65
(dp3143
g92
g93
ssg74
g3132
sg67
(lp3144
S':'
asbag60
(g81
g62
NtRp3145
(dp3146
g65
(dp3147
sg74
g3132
sg67
(lp3148
g60
(g61
g62
NtRp3149
(dp3150
g65
(dp3151
g73
I3
ssg74
g3145
sg67
(lp3152
g193
asbasbasbag60
(g76
g62
NtRp3153
(dp3154
g65
(dp3155
sg74
g2792
sg67
(lp3156
g60
(g81
g62
NtRp3157
(dp3158
g65
(dp3159
g85
g86
ssg74
g3153
sg67
(lp3160
S'REMOTE_PORT'
p3161
asbag60
(g81
g62
NtRp3162
(dp3163
g65
(dp3164
g92
g93
ssg74
g3153
sg67
(lp3165
S':'
asbag60
(g81
g62
NtRp3166
(dp3167
g65
(dp3168
sg74
g3153
sg67
(lp3169
g60
(g61
g62
NtRp3170
(dp3171
g65
(dp3172
g73
I3
ssg74
g3166
sg67
(lp3173
g1996
asbasbasbag60
(g76
g62
NtRp3174
(dp3175
g65
(dp3176
sg74
g2792
sg67
(lp3177
g60
(g81
g62
NtRp3178
(dp3179
g65
(dp3180
g85
g86
ssg74
g3174
sg67
(lp3181
S'REQUEST_METHOD'
p3182
asbag60
(g81
g62
NtRp3183
(dp3184
g65
(dp3185
g92
g93
ssg74
g3174
sg67
(lp3186
S':'
asbag60
(g81
g62
NtRp3187
(dp3188
g65
(dp3189
sg74
g3174
sg67
(lp3190
g60
(g61
g62
NtRp3191
(dp3192
g65
(dp3193
g73
I3
ssg74
g3187
sg67
(lp3194
g2018
asbasbasbag60
(g76
g62
NtRp3195
(dp3196
g65
(dp3197
sg74
g2792
sg67
(lp3198
g60
(g81
g62
NtRp3199
(dp3200
g65
(dp3201
g85
g86
ssg74
g3195
sg67
(lp3202
S'SCRIPT_NAME'
p3203
asbag60
(g81
g62
NtRp3204
(dp3205
g65
(dp3206
g92
g93
ssg74
g3195
sg67
(lp3207
S':'
asbag60
(g81
g62
NtRp3208
(dp3209
g65
(dp3210
sg74
g3195
sg67
(lp3211
g60
(g61
g62
NtRp3212
(dp3213
g65
(dp3214
g73
I3
ssg74
g3208
sg67
(lp3215
S''
asbasbasbag60
(g76
g62
NtRp3216
(dp3217
g65
(dp3218
sg74
g2792
sg67
(lp3219
g60
(g81
g62
NtRp3220
(dp3221
g65
(dp3222
g85
g86
ssg74
g3216
sg67
(lp3223
S'SERVER_NAME'
p3224
asbag60
(g81
g62
NtRp3225
(dp3226
g65
(dp3227
g92
g93
ssg74
g3216
sg67
(lp3228
S':'
asbag60
(g81
g62
NtRp3229
(dp3230
g65
(dp3231
sg74
g3216
sg67
(lp3232
g60
(g61
g62
NtRp3233
(dp3234
g65
(dp3235
g73
I3
ssg74
g3229
sg67
(lp3236
g2061
asbasbasbag60
(g76
g62
NtRp3237
(dp3238
g65
(dp3239
sg74
g2792
sg67
(lp3240
g60
(g81
g62
NtRp3241
(dp3242
g65
(dp3243
g85
g86
ssg74
g3237
sg67
(lp3244
S'SERVER_PORT'
p3245
asbag60
(g81
g62
NtRp3246
(dp3247
g65
(dp3248
g92
g93
ssg74
g3237
sg67
(lp3249
S':'
asbag60
(g81
g62
NtRp3250
(dp3251
g65
(dp3252
sg74
g3237
sg67
(lp3253
g60
(g61
g62
NtRp3254
(dp3255
g65
(dp3256
g73
I3
ssg74
g3250
sg67
(lp3257
g2083
asbasbasbag60
(g76
g62
NtRp3258
(dp3259
g65
(dp3260
sg74
g2792
sg67
(lp3261
g60
(g81
g62
NtRp3262
(dp3263
g65
(dp3264
g85
g86
ssg74
g3258
sg67
(lp3265
S'SERVER_PROTOCOL'
p3266
asbag60
(g81
g62
NtRp3267
(dp3268
g65
(dp3269
g92
g93
ssg74
g3258
sg67
(lp3270
S':'
asbag60
(g81
g62
NtRp3271
(dp3272
g65
(dp3273
sg74
g3258
sg67
(lp3274
g60
(g61
g62
NtRp3275
(dp3276
g65
(dp3277
g73
I3
ssg74
g3271
sg67
(lp3278
g2105
asbasbasbag60
(g76
g62
NtRp3279
(dp3280
g65
(dp3281
sg74
g2792
sg67
(lp3282
g60
(g81
g62
NtRp3283
(dp3284
g65
(dp3285
g85
g86
ssg74
g3279
sg67
(lp3286
S'SERVER_SOFTWARE'
p3287
asbag60
(g81
g62
NtRp3288
(dp3289
g65
(dp3290
g92
g93
ssg74
g3279
sg67
(lp3291
S':'
asbag60
(g81
g62
NtRp3292
(dp3293
g65
(dp3294
sg74
g3279
sg67
(lp3295
g60
(g61
g62
NtRp3296
(dp3297
g65
(dp3298
g73
I3
ssg74
g3292
sg67
(lp3299
g2127
asbasbasbag60
(g76
g62
NtRp3300
(dp3301
g65
(dp3302
sg74
g2792
sg67
(lp3303
g60
(g81
g62
NtRp3304
(dp3305
g65
(dp3306
g85
g86
ssg74
g3300
sg67
(lp3307
S'wsgi.errors'
p3308
asbag60
(g81
g62
NtRp3309
(dp3310
g65
(dp3311
g92
g93
ssg74
g3300
sg67
(lp3312
S':'
asbag60
(g81
g62
NtRp3313
(dp3314
g65
(dp3315
sg74
g3300
sg67
(lp3316
g60
(g61
g62
NtRp3317
(dp3318
g65
(dp3319
g73
I3
ssg74
g3313
sg67
(lp3320
S"<open file '<stderr>', mode 'w' at 0x003100B0>"
p3321
asbasbasbag60
(g76
g62
NtRp3322
(dp3323
g65
(dp3324
sg74
g2792
sg67
(lp3325
g60
(g81
g62
NtRp3326
(dp3327
g65
(dp3328
g85
g86
ssg74
g3322
sg67
(lp3329
S'wsgi.file_wrapper'
p3330
asbag60
(g81
g62
NtRp3331
(dp3332
g65
(dp3333
g92
g93
ssg74
g3322
sg67
(lp3334
S':'
asbag60
(g81
g62
NtRp3335
(dp3336
g65
(dp3337
sg74
g3322
sg67
(lp3338
g60
(g61
g62
NtRp3339
(dp3340
g65
(dp3341
g73
I3
ssg74
g3335
sg67
(lp3342
S'<class gluon.rocket.FileWrapper at 0x02FFC1B0>'
p3343
asbasbasbag60
(g76
g62
NtRp3344
(dp3345
g65
(dp3346
sg74
g2792
sg67
(lp3347
g60
(g81
g62
NtRp3348
(dp3349
g65
(dp3350
g85
g86
ssg74
g3344
sg67
(lp3351
S'wsgi.input'
p3352
asbag60
(g81
g62
NtRp3353
(dp3354
g65
(dp3355
g92
g93
ssg74
g3344
sg67
(lp3356
S':'
asbag60
(g81
g62
NtRp3357
(dp3358
g65
(dp3359
sg74
g3344
sg67
(lp3360
g60
(g61
g62
NtRp3361
(dp3362
g65
(dp3363
g73
I3
ssg74
g3357
sg67
(lp3364
S"<open file '<fdopen>', mode 'w+b' at 0x07A80A88>"
p3365
asbasbasbag60
(g76
g62
NtRp3366
(dp3367
g65
(dp3368
sg74
g2792
sg67
(lp3369
g60
(g81
g62
NtRp3370
(dp3371
g65
(dp3372
g85
g86
ssg74
g3366
sg67
(lp3373
S'wsgi.multiprocess'
p3374
asbag60
(g81
g62
NtRp3375
(dp3376
g65
(dp3377
g92
g93
ssg74
g3366
sg67
(lp3378
S':'
asbag60
(g81
g62
NtRp3379
(dp3380
g65
(dp3381
sg74
g3366
sg67
(lp3382
g60
(g61
g62
NtRp3383
(dp3384
g65
(dp3385
g73
I3
ssg74
g3379
sg67
(lp3386
g103
asbasbasbag60
(g76
g62
NtRp3387
(dp3388
g65
(dp3389
sg74
g2792
sg67
(lp3390
g60
(g81
g62
NtRp3391
(dp3392
g65
(dp3393
g85
g86
ssg74
g3387
sg67
(lp3394
S'wsgi.multithread'
p3395
asbag60
(g81
g62
NtRp3396
(dp3397
g65
(dp3398
g92
g93
ssg74
g3387
sg67
(lp3399
S':'
asbag60
(g81
g62
NtRp3400
(dp3401
g65
(dp3402
sg74
g3387
sg67
(lp3403
g60
(g61
g62
NtRp3404
(dp3405
g65
(dp3406
g73
I3
ssg74
g3400
sg67
(lp3407
g2301
asbasbasbag60
(g76
g62
NtRp3408
(dp3409
g65
(dp3410
sg74
g2792
sg67
(lp3411
g60
(g81
g62
NtRp3412
(dp3413
g65
(dp3414
g85
g86
ssg74
g3408
sg67
(lp3415
S'wsgi.run_once'
p3416
asbag60
(g81
g62
NtRp3417
(dp3418
g65
(dp3419
g92
g93
ssg74
g3408
sg67
(lp3420
S':'
asbag60
(g81
g62
NtRp3421
(dp3422
g65
(dp3423
sg74
g3408
sg67
(lp3424
g60
(g61
g62
NtRp3425
(dp3426
g65
(dp3427
g73
I3
ssg74
g3421
sg67
(lp3428
g103
asbasbasbag60
(g76
g62
NtRp3429
(dp3430
g65
(dp3431
sg74
g2792
sg67
(lp3432
g60
(g81
g62
NtRp3433
(dp3434
g65
(dp3435
g85
g86
ssg74
g3429
sg67
(lp3436
S'wsgi.url_scheme'
p3437
asbag60
(g81
g62
NtRp3438
(dp3439
g65
(dp3440
g92
g93
ssg74
g3429
sg67
(lp3441
S':'
asbag60
(g81
g62
NtRp3442
(dp3443
g65
(dp3444
sg74
g3429
sg67
(lp3445
g60
(g61
g62
NtRp3446
(dp3447
g65
(dp3448
g73
I3
ssg74
g3442
sg67
(lp3449
g2344
asbasbasbag60
(g76
g62
NtRp3450
(dp3451
g65
(dp3452
sg74
g2792
sg67
(lp3453
g60
(g81
g62
NtRp3454
(dp3455
g65
(dp3456
g85
g86
ssg74
g3450
sg67
(lp3457
S'wsgi.version'
p3458
asbag60
(g81
g62
NtRp3459
(dp3460
g65
(dp3461
g92
g93
ssg74
g3450
sg67
(lp3462
S':'
asbag60
(g81
g62
NtRp3463
(dp3464
g65
(dp3465
sg74
g3450
sg67
(lp3466
g60
(g61
g62
NtRp3467
(dp3468
g65
(dp3469
g73
I3
ssg74
g3463
sg67
(lp3470
S'1'
asbasbasbasbasbasbasbasbasbasbasbasbasbsS'frames'
p3471
(lp3472
(dp3473
S'file'
p3474
S'C:\\Users\\Atomico\\web2py\\gluon\\restricted.py'
p3475
sS'dump'
p3476
(dp3477
sS'lnum'
p3478
I192
sS'lines'
p3479
(dp3480
sS'call'
p3481
S"(code='def entrada():\\n    form=SQLFORM(db.info)\\n    if ...)\\n\\nresponse._vars=response._caller(entrada_mod2)\\n', environment={'A': <class 'gluon.html.A'>, 'B': <class 'gluon.html.B'>, 'BEAUTIFY': <class 'gluon.html.BEAUTIFY'>, 'BODY': <class 'gluon.html.BODY'>, 'BR': <class 'gluon.html.BR'>, 'BUTTON': <class 'gluon.html.BUTTON'>, 'CAT': <class 'gluon.html.CAT'>, 'CENTER': <class 'gluon.html.CENTER'>, 'CLEANUP': <class 'gluon.validators.CLEANUP'>, 'CODE': <class 'gluon.html.CODE'>, ...}, layer=r'C:\\Users\\Atomico\\web2py\\applications\\Desglosar_Emails\\controllers/default.py')"
p3482
sS'func'
p3483
S'restricted'
p3484
sa(dp3485
g3474
S'C:\\Users\\Atomico\\web2py\\applications\\Desglosar_Emails\\controllers\\default.py'
p3486
sg3476
(dp3487
sg3478
I62
sg3479
(dp3488
I51
S"        response . write ( 'hello<br />' , escape=False )"
p3489
sI52
S'    return dict(x=x)'
p3490
sI53
S''
sI54
S'def entrada_mod2():'
p3491
sI55
S'    db.info2=0'
p3492
sI56
S''
sI57
S'    form=SQLFORM(db.info2)'
p3493
sI58
S'    if form.accepts(request.vars,session):pass'
p3494
sI59
S''
sI60
S'    return dict(form=form)'
p3495
ssg3481
S'()'
p3496
sg3483
S'<module>'
p3497
sa(dp3498
g3474
S'C:\\Users\\Atomico\\web2py\\gluon\\globals.py'
p3499
sg3476
(dp3500
sg3478
I145
sg3479
(dp3501
sg3481
S'(f=<function entrada_mod2 at 0x080722B0>)'
p3502
sg3483
S'<lambda>'
p3503
sa(dp3504
g3474
S'C:\\Users\\Atomico\\web2py\\applications\\Desglosar_Emails\\controllers\\default.py'
p3505
sg3476
(dp3506
sg3478
I55
sg3479
(dp3507
I50
S'        response . write (x)'
p3508
sI51
S"        response . write ( 'hello<br />' , escape=False )"
p3509
sI52
S'    return dict(x=x)'
p3510
sI53
S''
sI54
S'def entrada_mod2():'
p3511
sI55
S'    db.info2=0'
p3512
sI56
S''
sI57
S'    form=SQLFORM(db.info2)'
p3513
sI58
S'    if form.accepts(request.vars,session):pass'
p3514
sI59
S''
ssg3481
S'()'
p3515
sg3483
S'entrada_mod2'
p3516
sa(dp3517
g3474
S'C:\\Users\\Atomico\\web2py\\gluon\\dal.py'
p3518
sg3476
(dp3519
sg3478
I4336
sg3479
(dp3520
sg3481
S"(self=<DAL {'_migrate_enabled': True, '_lastsql': '', ...'_uri_hash': '83307e19c28ada51de864a31fe97b329'}>, key='info2', value=0)"
p3521
sg3483
g23
sasS'pyver'
p3522
S'Python 2.5.4: C:\\Users\\Atomico\\web2py\\web2py.exe'
p3523
sS'session'
p3524
g60
(g61
g62
NtRp3525
(dp3526
g65
(dp3527
sg67
(lp3528
g60
(g69
g62
NtRp3529
(dp3530
g65
(dp3531
g73
I5
ssg74
Nsg67
(lp3532
g60
(g76
g62
NtRp3533
(dp3534
g65
(dp3535
sg74
g3529
sg67
(lp3536
g60
(g81
g62
NtRp3537
(dp3538
g65
(dp3539
g85
g86
ssg74
g3533
sg67
(lp3540
S'last_orderby'
p3541
asbag60
(g81
g62
NtRp3542
(dp3543
g65
(dp3544
g92
g93
ssg74
g3533
sg67
(lp3545
S':'
asbag60
(g81
g62
NtRp3546
(dp3547
g65
(dp3548
sg74
g3533
sg67
(lp3549
g60
(g61
g62
NtRp3550
(dp3551
g65
(dp3552
g73
I5
ssg74
g3546
sg67
(lp3553
S'db.info2.id'
p3554
asbasbasbag60
(g76
g62
NtRp3555
(dp3556
g65
(dp3557
sg74
g3529
sg67
(lp3558
g60
(g81
g62
NtRp3559
(dp3560
g65
(dp3561
g85
g86
ssg74
g3555
sg67
(lp3562
S'last_query'
p3563
asbag60
(g81
g62
NtRp3564
(dp3565
g65
(dp3566
g92
g93
ssg74
g3555
sg67
(lp3567
S':'
asbag60
(g81
g62
NtRp3568
(dp3569
g65
(dp3570
sg74
g3555
sg67
(lp3571
g60
(g61
g62
NtRp3572
(dp3573
g65
(dp3574
g73
I5
ssg74
g3568
sg67
(lp3575
S'db.info2.id>0'
p3576
asbasbasbasbasbsS'etype'
p3577
S"<type 'exceptions.SyntaxError'>"
p3578
sS'date'
p3579
S'Mon Sep 19 06:11:48 2011'
p3580
sS'response'
p3581
g60
(g61
g62
NtRp3582
(dp3583
g65
(dp3584
sg67
(lp3585
g60
(g69
g62
NtRp3586
(dp3587
g65
(dp3588
g73
I5
ssg74
Nsg67
(lp3589
g60
(g76
g62
NtRp3590
(dp3591
g65
(dp3592
sg74
g3586
sg67
(lp3593
g60
(g81
g62
NtRp3594
(dp3595
g65
(dp3596
g85
g86
ssg74
g3590
sg67
(lp3597
g158
asbag60
(g81
g62
NtRp3598
(dp3599
g65
(dp3600
g92
g93
ssg74
g3590
sg67
(lp3601
S':'
asbag60
(g81
g62
NtRp3602
(dp3603
g65
(dp3604
sg74
g3590
sg67
(lp3605
g60
(g61
g62
NtRp3606
(dp3607
g65
(dp3608
g73
I5
ssg74
g3602
sg67
(lp3609
S'<cStringIO.StringO object at 0x08B987C0>'
p3610
asbasbasbag60
(g76
g62
NtRp3611
(dp3612
g65
(dp3613
sg74
g3586
sg67
(lp3614
g60
(g81
g62
NtRp3615
(dp3616
g65
(dp3617
g85
g86
ssg74
g3611
sg67
(lp3618
g224
asbag60
(g81
g62
NtRp3619
(dp3620
g65
(dp3621
g92
g93
ssg74
g3611
sg67
(lp3622
S':'
asbag60
(g81
g62
NtRp3623
(dp3624
g65
(dp3625
sg74
g3611
sg67
(lp3626
g60
(g61
g62
NtRp3627
(dp3628
g65
(dp3629
g73
I5
ssg74
g3623
sg67
(lp3630
g60
(g69
g62
NtRp3631
(dp3632
g65
(dp3633
g73
I4
ssg74
Nsg67
(lp3634
g60
(g76
g62
NtRp3635
(dp3636
g65
(dp3637
sg74
g3631
sg67
(lp3638
g60
(g81
g62
NtRp3639
(dp3640
g65
(dp3641
g85
g86
ssg74
g3635
sg67
(lp3642
S'session_id_desglosar_emails'
p3643
asbag60
(g81
g62
NtRp3644
(dp3645
g65
(dp3646
g92
g93
ssg74
g3635
sg67
(lp3647
S':'
asbag60
(g81
g62
NtRp3648
(dp3649
g65
(dp3650
sg74
g3635
sg67
(lp3651
g60
(g61
g62
NtRp3652
(dp3653
g65
(dp3654
g73
I4
ssg74
g3648
sg67
(lp3655
g60
(g69
g62
NtRp3656
(dp3657
g65
(dp3658
g73
I3
ssg74
Nsg67
(lp3659
g60
(g76
g62
NtRp3660
(dp3661
g65
(dp3662
sg74
g3656
sg67
(lp3663
g60
(g81
g62
NtRp3664
(dp3665
g65
(dp3666
g85
g86
ssg74
g3660
sg67
(lp3667
g274
asbag60
(g81
g62
NtRp3668
(dp3669
g65
(dp3670
g92
g93
ssg74
g3660
sg67
(lp3671
S':'
asbag60
(g81
g62
NtRp3672
(dp3673
g65
(dp3674
sg74
g3660
sg67
(lp3675
g60
(g61
g62
NtRp3676
(dp3677
g65
(dp3678
g73
I3
ssg74
g3672
sg67
(lp3679
S''
asbasbasbag60
(g76
g62
NtRp3680
(dp3681
g65
(dp3682
sg74
g3656
sg67
(lp3683
g60
(g81
g62
NtRp3684
(dp3685
g65
(dp3686
g85
g86
ssg74
g3680
sg67
(lp3687
g295
asbag60
(g81
g62
NtRp3688
(dp3689
g65
(dp3690
g92
g93
ssg74
g3680
sg67
(lp3691
S':'
asbag60
(g81
g62
NtRp3692
(dp3693
g65
(dp3694
sg74
g3680
sg67
(lp3695
g60
(g61
g62
NtRp3696
(dp3697
g65
(dp3698
g73
I3
ssg74
g3692
sg67
(lp3699
S''
asbasbasbag60
(g76
g62
NtRp3700
(dp3701
g65
(dp3702
sg74
g3656
sg67
(lp3703
g60
(g81
g62
NtRp3704
(dp3705
g65
(dp3706
g85
g86
ssg74
g3700
sg67
(lp3707
g316
asbag60
(g81
g62
NtRp3708
(dp3709
g65
(dp3710
g92
g93
ssg74
g3700
sg67
(lp3711
S':'
asbag60
(g81
g62
NtRp3712
(dp3713
g65
(dp3714
sg74
g3700
sg67
(lp3715
g60
(g61
g62
NtRp3716
(dp3717
g65
(dp3718
g73
I3
ssg74
g3712
sg67
(lp3719
S''
asbasbasbag60
(g76
g62
NtRp3720
(dp3721
g65
(dp3722
sg74
g3656
sg67
(lp3723
g60
(g81
g62
NtRp3724
(dp3725
g65
(dp3726
g85
g86
ssg74
g3720
sg67
(lp3727
g337
asbag60
(g81
g62
NtRp3728
(dp3729
g65
(dp3730
g92
g93
ssg74
g3720
sg67
(lp3731
S':'
asbag60
(g81
g62
NtRp3732
(dp3733
g65
(dp3734
sg74
g3720
sg67
(lp3735
g60
(g61
g62
NtRp3736
(dp3737
g65
(dp3738
g73
I3
ssg74
g3732
sg67
(lp3739
S''
asbasbasbag60
(g76
g62
NtRp3740
(dp3741
g65
(dp3742
sg74
g3656
sg67
(lp3743
g60
(g81
g62
NtRp3744
(dp3745
g65
(dp3746
g85
g86
ssg74
g3740
sg67
(lp3747
g358
asbag60
(g81
g62
NtRp3748
(dp3749
g65
(dp3750
g92
g93
ssg74
g3740
sg67
(lp3751
S':'
asbag60
(g81
g62
NtRp3752
(dp3753
g65
(dp3754
sg74
g3740
sg67
(lp3755
g60
(g61
g62
NtRp3756
(dp3757
g65
(dp3758
g73
I3
ssg74
g3752
sg67
(lp3759
S'/'
asbasbasbag60
(g76
g62
NtRp3760
(dp3761
g65
(dp3762
sg74
g3656
sg67
(lp3763
g60
(g81
g62
NtRp3764
(dp3765
g65
(dp3766
g85
g86
ssg74
g3760
sg67
(lp3767
g379
asbag60
(g81
g62
NtRp3768
(dp3769
g65
(dp3770
g92
g93
ssg74
g3760
sg67
(lp3771
S':'
asbag60
(g81
g62
NtRp3772
(dp3773
g65
(dp3774
sg74
g3760
sg67
(lp3775
g60
(g61
g62
NtRp3776
(dp3777
g65
(dp3778
g73
I3
ssg74
g3772
sg67
(lp3779
S''
asbasbasbag60
(g76
g62
NtRp3780
(dp3781
g65
(dp3782
sg74
g3656
sg67
(lp3783
g60
(g81
g62
NtRp3784
(dp3785
g65
(dp3786
g85
g86
ssg74
g3780
sg67
(lp3787
g400
asbag60
(g81
g62
NtRp3788
(dp3789
g65
(dp3790
g92
g93
ssg74
g3780
sg67
(lp3791
S':'
asbag60
(g81
g62
NtRp3792
(dp3793
g65
(dp3794
sg74
g3780
sg67
(lp3795
g60
(g61
g62
NtRp3796
(dp3797
g65
(dp3798
g73
I3
ssg74
g3792
sg67
(lp3799
S''
asbasbasbasbasbasbasbasbasbasbasbag60
(g76
g62
NtRp3800
(dp3801
g65
(dp3802
sg74
g3586
sg67
(lp3803
g60
(g81
g62
NtRp3804
(dp3805
g65
(dp3806
g85
g86
ssg74
g3800
sg67
(lp3807
S'files'
p3808
asbag60
(g81
g62
NtRp3809
(dp3810
g65
(dp3811
g92
g93
ssg74
g3800
sg67
(lp3812
S':'
asbag60
(g81
g62
NtRp3813
(dp3814
g65
(dp3815
sg74
g3800
sg67
(lp3816
g60
(g61
g62
NtRp3817
(dp3818
g65
(dp3819
g73
I5
ssg74
g3813
sg67
(lp3820
g60
(g69
g62
NtRp3821
(dp3822
g65
(dp3823
g73
I4
ssg74
Nsg67
(lp3824
sbasbasbasbag60
(g76
g62
NtRp3825
(dp3826
g65
(dp3827
sg74
g3586
sg67
(lp3828
g60
(g81
g62
NtRp3829
(dp3830
g65
(dp3831
g85
g86
ssg74
g3825
sg67
(lp3832
S'flash'
p3833
asbag60
(g81
g62
NtRp3834
(dp3835
g65
(dp3836
g92
g93
ssg74
g3825
sg67
(lp3837
S':'
asbag60
(g81
g62
NtRp3838
(dp3839
g65
(dp3840
sg74
g3825
sg67
(lp3841
g60
(g61
g62
NtRp3842
(dp3843
g65
(dp3844
g73
I5
ssg74
g3838
sg67
(lp3845
S''
asbasbasbag60
(g76
g62
NtRp3846
(dp3847
g65
(dp3848
sg74
g3586
sg67
(lp3849
g60
(g81
g62
NtRp3850
(dp3851
g65
(dp3852
g85
g86
ssg74
g3846
sg67
(lp3853
S'generic_patterns'
p3854
asbag60
(g81
g62
NtRp3855
(dp3856
g65
(dp3857
g92
g93
ssg74
g3846
sg67
(lp3858
S':'
asbag60
(g81
g62
NtRp3859
(dp3860
g65
(dp3861
sg74
g3846
sg67
(lp3862
g60
(g61
g62
NtRp3863
(dp3864
g65
(dp3865
g73
I5
ssg74
g3859
sg67
(lp3866
g60
(g69
g62
NtRp3867
(dp3868
g65
(dp3869
g73
I4
ssg74
Nsg67
(lp3870
sbasbasbasbag60
(g76
g62
NtRp3871
(dp3872
g65
(dp3873
sg74
g3586
sg67
(lp3874
g60
(g81
g62
NtRp3875
(dp3876
g65
(dp3877
g85
g86
ssg74
g3871
sg67
(lp3878
S'headers'
p3879
asbag60
(g81
g62
NtRp3880
(dp3881
g65
(dp3882
g92
g93
ssg74
g3871
sg67
(lp3883
S':'
asbag60
(g81
g62
NtRp3884
(dp3885
g65
(dp3886
sg74
g3871
sg67
(lp3887
g60
(g61
g62
NtRp3888
(dp3889
g65
(dp3890
g73
I5
ssg74
g3884
sg67
(lp3891
g60
(g69
g62
NtRp3892
(dp3893
g65
(dp3894
g73
I4
ssg74
Nsg67
(lp3895
g60
(g76
g62
NtRp3896
(dp3897
g65
(dp3898
sg74
g3892
sg67
(lp3899
g60
(g81
g62
NtRp3900
(dp3901
g65
(dp3902
g85
g86
ssg74
g3896
sg67
(lp3903
S'Cache-Control'
p3904
asbag60
(g81
g62
NtRp3905
(dp3906
g65
(dp3907
g92
g93
ssg74
g3896
sg67
(lp3908
S':'
asbag60
(g81
g62
NtRp3909
(dp3910
g65
(dp3911
sg74
g3896
sg67
(lp3912
g60
(g61
g62
NtRp3913
(dp3914
g65
(dp3915
g73
I4
ssg74
g3909
sg67
(lp3916
S'no-store, no-cache, must-revalidate, post-check=0, pre-check=0'
p3917
asbasbasbag60
(g76
g62
NtRp3918
(dp3919
g65
(dp3920
sg74
g3892
sg67
(lp3921
g60
(g81
g62
NtRp3922
(dp3923
g65
(dp3924
g85
g86
ssg74
g3918
sg67
(lp3925
S'Content-Type'
p3926
asbag60
(g81
g62
NtRp3927
(dp3928
g65
(dp3929
g92
g93
ssg74
g3918
sg67
(lp3930
S':'
asbag60
(g81
g62
NtRp3931
(dp3932
g65
(dp3933
sg74
g3918
sg67
(lp3934
g60
(g61
g62
NtRp3935
(dp3936
g65
(dp3937
g73
I4
ssg74
g3931
sg67
(lp3938
S'text/html; charset=utf-8'
p3939
asbasbasbag60
(g76
g62
NtRp3940
(dp3941
g65
(dp3942
sg74
g3892
sg67
(lp3943
g60
(g81
g62
NtRp3944
(dp3945
g65
(dp3946
g85
g86
ssg74
g3940
sg67
(lp3947
S'Expires'
p3948
asbag60
(g81
g62
NtRp3949
(dp3950
g65
(dp3951
g92
g93
ssg74
g3940
sg67
(lp3952
S':'
asbag60
(g81
g62
NtRp3953
(dp3954
g65
(dp3955
sg74
g3940
sg67
(lp3956
g60
(g61
g62
NtRp3957
(dp3958
g65
(dp3959
g73
I4
ssg74
g3953
sg67
(lp3960
S'Mon, 19 Sep 2011 04:11:48 GMT'
p3961
asbasbasbag60
(g76
g62
NtRp3962
(dp3963
g65
(dp3964
sg74
g3892
sg67
(lp3965
g60
(g81
g62
NtRp3966
(dp3967
g65
(dp3968
g85
g86
ssg74
g3962
sg67
(lp3969
S'Pragma'
p3970
asbag60
(g81
g62
NtRp3971
(dp3972
g65
(dp3973
g92
g93
ssg74
g3962
sg67
(lp3974
S':'
asbag60
(g81
g62
NtRp3975
(dp3976
g65
(dp3977
sg74
g3962
sg67
(lp3978
g60
(g61
g62
NtRp3979
(dp3980
g65
(dp3981
g73
I4
ssg74
g3975
sg67
(lp3982
S'no-cache'
p3983
asbasbasbag60
(g76
g62
NtRp3984
(dp3985
g65
(dp3986
sg74
g3892
sg67
(lp3987
g60
(g81
g62
NtRp3988
(dp3989
g65
(dp3990
g85
g86
ssg74
g3984
sg67
(lp3991
S'X-Powered-By'
p3992
asbag60
(g81
g62
NtRp3993
(dp3994
g65
(dp3995
g92
g93
ssg74
g3984
sg67
(lp3996
S':'
asbag60
(g81
g62
NtRp3997
(dp3998
g65
(dp3999
sg74
g3984
sg67
(lp4000
g60
(g61
g62
NtRp4001
(dp4002
g65
(dp4003
g73
I4
ssg74
g3997
sg67
(lp4004
S'web2py'
p4005
asbasbasbasbasbasbasbag60
(g76
g62
NtRp4006
(dp4007
g65
(dp4008
sg74
g3586
sg67
(lp4009
g60
(g81
g62
NtRp4010
(dp4011
g65
(dp4012
g85
g86
ssg74
g4006
sg67
(lp4013
S'menu'
p4014
asbag60
(g81
g62
NtRp4015
(dp4016
g65
(dp4017
g92
g93
ssg74
g4006
sg67
(lp4018
S':'
asbag60
(g81
g62
NtRp4019
(dp4020
g65
(dp4021
sg74
g4006
sg67
(lp4022
g60
(g61
g62
NtRp4023
(dp4024
g65
(dp4025
g73
I5
ssg74
g4019
sg67
(lp4026
g60
(g69
g62
NtRp4027
(dp4028
g65
(dp4029
g73
I4
ssg74
Nsg67
(lp4030
g60
(g76
g62
NtRp4031
(dp4032
g65
(dp4033
sg74
g4027
sg67
(lp4034
g60
(g81
g62
NtRp4035
(dp4036
g65
(dp4037
sg74
g4031
sg67
(lp4038
g60
(g61
g62
NtRp4039
(dp4040
g65
(dp4041
g73
I4
ssg74
g4035
sg67
(lp4042
g60
(g69
g62
NtRp4043
(dp4044
g65
(dp4045
g73
I3
ssg74
Nsg67
(lp4046
g60
(g76
g62
NtRp4047
(dp4048
g65
(dp4049
sg74
g4043
sg67
(lp4050
g60
(g81
g62
NtRp4051
(dp4052
g65
(dp4053
sg74
g4047
sg67
(lp4054
g60
(g61
g62
NtRp4055
(dp4056
g65
(dp4057
g73
I3
ssg74
g4051
sg67
(lp4058
cgluon.languages
lazyT_unpickle
p4059
(S't\x04\x00\x00\x00Home'
tRp4060
asbasbasbag60
(g76
g62
NtRp4061
(dp4062
g65
(dp4063
sg74
g4043
sg67
(lp4064
g60
(g81
g62
NtRp4065
(dp4066
g65
(dp4067
sg74
g4061
sg67
(lp4068
g60
(g61
g62
NtRp4069
(dp4070
g65
(dp4071
g73
I3
ssg74
g4065
sg67
(lp4072
g103
asbasbasbag60
(g76
g62
NtRp4073
(dp4074
g65
(dp4075
sg74
g4043
sg67
(lp4076
g60
(g81
g62
NtRp4077
(dp4078
g65
(dp4079
sg74
g4073
sg67
(lp4080
g60
(g61
g62
NtRp4081
(dp4082
g65
(dp4083
g73
I3
ssg74
g4077
sg67
(lp4084
S'/Desglosar_Emails/default/index'
p4085
asbasbasbag60
(g76
g62
NtRp4086
(dp4087
g65
(dp4088
sg74
g4043
sg67
(lp4089
g60
(g81
g62
NtRp4090
(dp4091
g65
(dp4092
sg74
g4086
sg67
(lp4093
g60
(g61
g62
NtRp4094
(dp4095
g65
(dp4096
g73
I3
ssg74
g4090
sg67
(lp4097
g60
(g69
g62
NtRp4098
(dp4099
g65
(dp4100
g73
I2
ssg74
Nsg67
(lp4101
sbasbasbasbasbasbasbasbag60
(g76
g62
NtRp4102
(dp4103
g65
(dp4104
sg74
g4027
sg67
(lp4105
g60
(g81
g62
NtRp4106
(dp4107
g65
(dp4108
sg74
g4102
sg67
(lp4109
g60
(g61
g62
NtRp4110
(dp4111
g65
(dp4112
g73
I4
ssg74
g4106
sg67
(lp4113
g60
(g69
g62
NtRp4114
(dp4115
g65
(dp4116
g73
I3
ssg74
Nsg67
(lp4117
g60
(g76
g62
NtRp4118
(dp4119
g65
(dp4120
sg74
g4114
sg67
(lp4121
g60
(g81
g62
NtRp4122
(dp4123
g65
(dp4124
sg74
g4118
sg67
(lp4125
g60
(g61
g62
NtRp4126
(dp4127
g65
(dp4128
g73
I3
ssg74
g4122
sg67
(lp4129
g4059
(S's\x08\x00\x00\x00This App'
tRp4130
asbasbasbag60
(g76
g62
NtRp4131
(dp4132
g65
(dp4133
sg74
g4114
sg67
(lp4134
g60
(g81
g62
NtRp4135
(dp4136
g65
(dp4137
sg74
g4131
sg67
(lp4138
g60
(g61
g62
NtRp4139
(dp4140
g65
(dp4141
g73
I3
ssg74
g4135
sg67
(lp4142
g103
asbasbasbag60
(g76
g62
NtRp4143
(dp4144
g65
(dp4145
sg74
g4114
sg67
(lp4146
g60
(g81
g62
NtRp4147
(dp4148
g65
(dp4149
sg74
g4143
sg67
(lp4150
g60
(g61
g62
NtRp4151
(dp4152
g65
(dp4153
g73
I3
ssg74
g4147
sg67
(lp4154
S'/admin/default/design/Desglosar_Emails'
p4155
asbasbasbag60
(g76
g62
NtRp4156
(dp4157
g65
(dp4158
sg74
g4114
sg67
(lp4159
g60
(g81
g62
NtRp4160
(dp4161
g65
(dp4162
sg74
g4156
sg67
(lp4163
g60
(g61
g62
NtRp4164
(dp4165
g65
(dp4166
g73
I3
ssg74
g4160
sg67
(lp4167
g60
(g69
g62
NtRp4168
(dp4169
g65
(dp4170
g73
I2
ssg74
Nsg67
(lp4171
g60
(g76
g62
NtRp4172
(dp4173
g65
(dp4174
sg74
g4168
sg67
(lp4175
g60
(g81
g62
NtRp4176
(dp4177
g65
(dp4178
sg74
g4172
sg67
(lp4179
g60
(g61
g62
NtRp4180
(dp4181
g65
(dp4182
g73
I2
ssg74
g4176
sg67
(lp4183
g60
(g69
g62
NtRp4184
(dp4185
g65
(dp4186
g73
I1
ssg74
Nsg67
(lp4187
g60
(g76
g62
NtRp4188
(dp4189
g65
(dp4190
sg74
g4184
sg67
(lp4191
g60
(g81
g62
NtRp4192
(dp4193
g65
(dp4194
sg74
g4188
sg67
(lp4195
g60
(g61
g62
NtRp4196
(dp4197
g65
(dp4198
g73
I1
ssg74
g4192
sg67
(lp4199
g4059
(S't\x0b\x00\x00\x00Controlador'
tRp4200
asbasbasbag60
(g76
g62
NtRp4201
(dp4202
g65
(dp4203
sg74
g4184
sg67
(lp4204
g60
(g81
g62
NtRp4205
(dp4206
g65
(dp4207
sg74
g4201
sg67
(lp4208
g60
(g61
g62
NtRp4209
(dp4210
g65
(dp4211
g73
I1
ssg74
g4205
sg67
(lp4212
I00
asbasbasbag60
(g76
g62
NtRp4213
(dp4214
g65
(dp4215
sg74
g4184
sg67
(lp4216
g60
(g81
g62
NtRp4217
(dp4218
g65
(dp4219
sg74
g4213
sg67
(lp4220
g60
(g61
g62
NtRp4221
(dp4222
g65
(dp4223
g73
I1
ssg74
g4217
sg67
(lp4224
S'/admin/default/edit/Desglosar_Emails/controllers/default.py'
p4225
asbasbasbasbasbasbasbag60
(g76
g62
NtRp4226
(dp4227
g65
(dp4228
sg74
g4168
sg67
(lp4229
g60
(g81
g62
NtRp4230
(dp4231
g65
(dp4232
sg74
g4226
sg67
(lp4233
g60
(g61
g62
NtRp4234
(dp4235
g65
(dp4236
g73
I2
ssg74
g4230
sg67
(lp4237
g60
(g69
g62
NtRp4238
(dp4239
g65
(dp4240
g73
I1
ssg74
Nsg67
(lp4241
g60
(g76
g62
NtRp4242
(dp4243
g65
(dp4244
sg74
g4238
sg67
(lp4245
g60
(g81
g62
NtRp4246
(dp4247
g65
(dp4248
sg74
g4242
sg67
(lp4249
g60
(g61
g62
NtRp4250
(dp4251
g65
(dp4252
g73
I1
ssg74
g4246
sg67
(lp4253
g4059
(S't\x05\x00\x00\x00Vista'
tRp4254
asbasbasbag60
(g76
g62
NtRp4255
(dp4256
g65
(dp4257
sg74
g4238
sg67
(lp4258
g60
(g81
g62
NtRp4259
(dp4260
g65
(dp4261
sg74
g4255
sg67
(lp4262
g60
(g61
g62
NtRp4263
(dp4264
g65
(dp4265
g73
I1
ssg74
g4259
sg67
(lp4266
I00
asbasbasbag60
(g76
g62
NtRp4267
(dp4268
g65
(dp4269
sg74
g4238
sg67
(lp4270
g60
(g81
g62
NtRp4271
(dp4272
g65
(dp4273
sg74
g4267
sg67
(lp4274
g60
(g61
g62
NtRp4275
(dp4276
g65
(dp4277
g73
I1
ssg74
g4271
sg67
(lp4278
S'/admin/default/edit/Desglosar_Emails/views/default/entrada_mod2.html'
p4279
asbasbasbasbasbasbasbag60
(g76
g62
NtRp4280
(dp4281
g65
(dp4282
sg74
g4168
sg67
(lp4283
g60
(g81
g62
NtRp4284
(dp4285
g65
(dp4286
sg74
g4280
sg67
(lp4287
g60
(g61
g62
NtRp4288
(dp4289
g65
(dp4290
g73
I2
ssg74
g4284
sg67
(lp4291
g60
(g69
g62
NtRp4292
(dp4293
g65
(dp4294
g73
I1
ssg74
Nsg67
(lp4295
g60
(g76
g62
NtRp4296
(dp4297
g65
(dp4298
sg74
g4292
sg67
(lp4299
g60
(g81
g62
NtRp4300
(dp4301
g65
(dp4302
sg74
g4296
sg67
(lp4303
g60
(g61
g62
NtRp4304
(dp4305
g65
(dp4306
g73
I1
ssg74
g4300
sg67
(lp4307
g4059
(S's\x12\x00\x00\x00Dise\xc3\xb1o de p\xc3\xa1gina'
tRp4308
asbasbasbag60
(g76
g62
NtRp4309
(dp4310
g65
(dp4311
sg74
g4292
sg67
(lp4312
g60
(g81
g62
NtRp4313
(dp4314
g65
(dp4315
sg74
g4309
sg67
(lp4316
g60
(g61
g62
NtRp4317
(dp4318
g65
(dp4319
g73
I1
ssg74
g4313
sg67
(lp4320
I00
asbasbasbag60
(g76
g62
NtRp4321
(dp4322
g65
(dp4323
sg74
g4292
sg67
(lp4324
g60
(g81
g62
NtRp4325
(dp4326
g65
(dp4327
sg74
g4321
sg67
(lp4328
g60
(g61
g62
NtRp4329
(dp4330
g65
(dp4331
g73
I1
ssg74
g4325
sg67
(lp4332
S'/admin/default/edit/Desglosar_Emails/views/layout.html'
p4333
asbasbasbasbasbasbasbag60
(g76
g62
NtRp4334
(dp4335
g65
(dp4336
sg74
g4168
sg67
(lp4337
g60
(g81
g62
NtRp4338
(dp4339
g65
(dp4340
sg74
g4334
sg67
(lp4341
g60
(g61
g62
NtRp4342
(dp4343
g65
(dp4344
g73
I2
ssg74
g4338
sg67
(lp4345
g60
(g69
g62
NtRp4346
(dp4347
g65
(dp4348
g73
I1
ssg74
Nsg67
(lp4349
g60
(g76
g62
NtRp4350
(dp4351
g65
(dp4352
sg74
g4346
sg67
(lp4353
g60
(g81
g62
NtRp4354
(dp4355
g65
(dp4356
sg74
g4350
sg67
(lp4357
g60
(g61
g62
NtRp4358
(dp4359
g65
(dp4360
g73
I1
ssg74
g4354
sg67
(lp4361
g4059
(S's\x0e\x00\x00\x00Hoja de estilo'
tRp4362
asbasbasbag60
(g76
g62
NtRp4363
(dp4364
g65
(dp4365
sg74
g4346
sg67
(lp4366
g60
(g81
g62
NtRp4367
(dp4368
g65
(dp4369
sg74
g4363
sg67
(lp4370
g60
(g61
g62
NtRp4371
(dp4372
g65
(dp4373
g73
I1
ssg74
g4367
sg67
(lp4374
I00
asbasbasbag60
(g76
g62
NtRp4375
(dp4376
g65
(dp4377
sg74
g4346
sg67
(lp4378
g60
(g81
g62
NtRp4379
(dp4380
g65
(dp4381
sg74
g4375
sg67
(lp4382
g60
(g61
g62
NtRp4383
(dp4384
g65
(dp4385
g73
I1
ssg74
g4379
sg67
(lp4386
S'/admin/default/edit/Desglosar_Emails/static/base.css'
p4387
asbasbasbasbasbasbasbag60
(g76
g62
NtRp4388
(dp4389
g65
(dp4390
sg74
g4168
sg67
(lp4391
g60
(g81
g62
NtRp4392
(dp4393
g65
(dp4394
sg74
g4388
sg67
(lp4395
g60
(g61
g62
NtRp4396
(dp4397
g65
(dp4398
g73
I2
ssg74
g4392
sg67
(lp4399
g60
(g69
g62
NtRp4400
(dp4401
g65
(dp4402
g73
I1
ssg74
Nsg67
(lp4403
g60
(g76
g62
NtRp4404
(dp4405
g65
(dp4406
sg74
g4400
sg67
(lp4407
g60
(g81
g62
NtRp4408
(dp4409
g65
(dp4410
sg74
g4404
sg67
(lp4411
g60
(g61
g62
NtRp4412
(dp4413
g65
(dp4414
g73
I1
ssg74
g4408
sg67
(lp4415
g4059
(S's\x0b\x00\x00\x00Modelo "db"'
tRp4416
asbasbasbag60
(g76
g62
NtRp4417
(dp4418
g65
(dp4419
sg74
g4400
sg67
(lp4420
g60
(g81
g62
NtRp4421
(dp4422
g65
(dp4423
sg74
g4417
sg67
(lp4424
g60
(g61
g62
NtRp4425
(dp4426
g65
(dp4427
g73
I1
ssg74
g4421
sg67
(lp4428
I00
asbasbasbag60
(g76
g62
NtRp4429
(dp4430
g65
(dp4431
sg74
g4400
sg67
(lp4432
g60
(g81
g62
NtRp4433
(dp4434
g65
(dp4435
sg74
g4429
sg67
(lp4436
g60
(g61
g62
NtRp4437
(dp4438
g65
(dp4439
g73
I1
ssg74
g4433
sg67
(lp4440
S'/admin/default/edit/Desglosar_Emails/models/db.py'
p4441
asbasbasbasbasbasbasbag60
(g76
g62
NtRp4442
(dp4443
g65
(dp4444
sg74
g4168
sg67
(lp4445
g60
(g81
g62
NtRp4446
(dp4447
g65
(dp4448
sg74
g4442
sg67
(lp4449
g60
(g61
g62
NtRp4450
(dp4451
g65
(dp4452
g73
I2
ssg74
g4446
sg67
(lp4453
g60
(g69
g62
NtRp4454
(dp4455
g65
(dp4456
g73
I1
ssg74
Nsg67
(lp4457
g60
(g76
g62
NtRp4458
(dp4459
g65
(dp4460
sg74
g4454
sg67
(lp4461
g60
(g81
g62
NtRp4462
(dp4463
g65
(dp4464
sg74
g4458
sg67
(lp4465
g60
(g61
g62
NtRp4466
(dp4467
g65
(dp4468
g73
I1
ssg74
g4462
sg67
(lp4469
g4059
(S's\r\x00\x00\x00Modelo "menu"'
tRp4470
asbasbasbag60
(g76
g62
NtRp4471
(dp4472
g65
(dp4473
sg74
g4454
sg67
(lp4474
g60
(g81
g62
NtRp4475
(dp4476
g65
(dp4477
sg74
g4471
sg67
(lp4478
g60
(g61
g62
NtRp4479
(dp4480
g65
(dp4481
g73
I1
ssg74
g4475
sg67
(lp4482
I00
asbasbasbag60
(g76
g62
NtRp4483
(dp4484
g65
(dp4485
sg74
g4454
sg67
(lp4486
g60
(g81
g62
NtRp4487
(dp4488
g65
(dp4489
sg74
g4483
sg67
(lp4490
g60
(g61
g62
NtRp4491
(dp4492
g65
(dp4493
g73
I1
ssg74
g4487
sg67
(lp4494
S'/admin/default/edit/Desglosar_Emails/models/menu.py'
p4495
asbasbasbasbasbasbasbag60
(g76
g62
NtRp4496
(dp4497
g65
(dp4498
sg74
g4168
sg67
(lp4499
g60
(g81
g62
NtRp4500
(dp4501
g65
(dp4502
sg74
g4496
sg67
(lp4503
g60
(g61
g62
NtRp4504
(dp4505
g65
(dp4506
g73
I2
ssg74
g4500
sg67
(lp4507
g60
(g69
g62
NtRp4508
(dp4509
g65
(dp4510
g73
I1
ssg74
Nsg67
(lp4511
g60
(g76
g62
NtRp4512
(dp4513
g65
(dp4514
sg74
g4508
sg67
(lp4515
g60
(g81
g62
NtRp4516
(dp4517
g65
(dp4518
sg74
g4512
sg67
(lp4519
g60
(g61
g62
NtRp4520
(dp4521
g65
(dp4522
g73
I1
ssg74
g4516
sg67
(lp4523
g4059
(S's\r\x00\x00\x00Base de datos'
tRp4524
asbasbasbag60
(g76
g62
NtRp4525
(dp4526
g65
(dp4527
sg74
g4508
sg67
(lp4528
g60
(g81
g62
NtRp4529
(dp4530
g65
(dp4531
sg74
g4525
sg67
(lp4532
g60
(g61
g62
NtRp4533
(dp4534
g65
(dp4535
g73
I1
ssg74
g4529
sg67
(lp4536
I00
asbasbasbag60
(g76
g62
NtRp4537
(dp4538
g65
(dp4539
sg74
g4508
sg67
(lp4540
g60
(g81
g62
NtRp4541
(dp4542
g65
(dp4543
sg74
g4537
sg67
(lp4544
g60
(g61
g62
NtRp4545
(dp4546
g65
(dp4547
g73
I1
ssg74
g4541
sg67
(lp4548
S'/Desglosar_Emails/appadmin/index'
p4549
asbasbasbasbasbasbasbag60
(g76
g62
NtRp4550
(dp4551
g65
(dp4552
sg74
g4168
sg67
(lp4553
g60
(g81
g62
NtRp4554
(dp4555
g65
(dp4556
sg74
g4550
sg67
(lp4557
g60
(g61
g62
NtRp4558
(dp4559
g65
(dp4560
g73
I2
ssg74
g4554
sg67
(lp4561
g60
(g69
g62
NtRp4562
(dp4563
g65
(dp4564
g73
I1
ssg74
Nsg67
(lp4565
g60
(g76
g62
NtRp4566
(dp4567
g65
(dp4568
sg74
g4562
sg67
(lp4569
g60
(g81
g62
NtRp4570
(dp4571
g65
(dp4572
sg74
g4566
sg67
(lp4573
g60
(g61
g62
NtRp4574
(dp4575
g65
(dp4576
g73
I1
ssg74
g4570
sg67
(lp4577
g4059
(S't\x06\x00\x00\x00Errors'
tRp4578
asbasbasbag60
(g76
g62
NtRp4579
(dp4580
g65
(dp4581
sg74
g4562
sg67
(lp4582
g60
(g81
g62
NtRp4583
(dp4584
g65
(dp4585
sg74
g4579
sg67
(lp4586
g60
(g61
g62
NtRp4587
(dp4588
g65
(dp4589
g73
I1
ssg74
g4583
sg67
(lp4590
I00
asbasbasbag60
(g76
g62
NtRp4591
(dp4592
g65
(dp4593
sg74
g4562
sg67
(lp4594
g60
(g81
g62
NtRp4595
(dp4596
g65
(dp4597
sg74
g4591
sg67
(lp4598
g60
(g61
g62
NtRp4599
(dp4600
g65
(dp4601
g73
I1
ssg74
g4595
sg67
(lp4602
S'/admin/default/errors/Desglosar_Emails'
p4603
asbasbasbasbasbasbasbag60
(g76
g62
NtRp4604
(dp4605
g65
(dp4606
sg74
g4168
sg67
(lp4607
g60
(g81
g62
NtRp4608
(dp4609
g65
(dp4610
sg74
g4604
sg67
(lp4611
g60
(g61
g62
NtRp4612
(dp4613
g65
(dp4614
g73
I2
ssg74
g4608
sg67
(lp4615
g60
(g69
g62
NtRp4616
(dp4617
g65
(dp4618
g73
I1
ssg74
Nsg67
(lp4619
g60
(g76
g62
NtRp4620
(dp4621
g65
(dp4622
sg74
g4616
sg67
(lp4623
g60
(g81
g62
NtRp4624
(dp4625
g65
(dp4626
sg74
g4620
sg67
(lp4627
g60
(g61
g62
NtRp4628
(dp4629
g65
(dp4630
g73
I1
ssg74
g4624
sg67
(lp4631
g4059
(S's\t\x00\x00\x00Acerca de'
tRp4632
asbasbasbag60
(g76
g62
NtRp4633
(dp4634
g65
(dp4635
sg74
g4616
sg67
(lp4636
g60
(g81
g62
NtRp4637
(dp4638
g65
(dp4639
sg74
g4633
sg67
(lp4640
g60
(g61
g62
NtRp4641
(dp4642
g65
(dp4643
g73
I1
ssg74
g4637
sg67
(lp4644
I00
asbasbasbag60
(g76
g62
NtRp4645
(dp4646
g65
(dp4647
sg74
g4616
sg67
(lp4648
g60
(g81
g62
NtRp4649
(dp4650
g65
(dp4651
sg74
g4645
sg67
(lp4652
g60
(g61
g62
NtRp4653
(dp4654
g65
(dp4655
g73
I1
ssg74
g4649
sg67
(lp4656
S'/admin/default/about/Desglosar_Emails'
p4657
asbasbasbasbasbasbasbasbasbasbasbasbasbasbasbag60
(g76
g62
NtRp4658
(dp4659
g65
(dp4660
sg74
g4027
sg67
(lp4661
g60
(g81
g62
NtRp4662
(dp4663
g65
(dp4664
sg74
g4658
sg67
(lp4665
g60
(g61
g62
NtRp4666
(dp4667
g65
(dp4668
g73
I4
ssg74
g4662
sg67
(lp4669
g60
(g69
g62
NtRp4670
(dp4671
g65
(dp4672
g73
I3
ssg74
Nsg67
(lp4673
g60
(g76
g62
NtRp4674
(dp4675
g65
(dp4676
sg74
g4670
sg67
(lp4677
g60
(g81
g62
NtRp4678
(dp4679
g65
(dp4680
sg74
g4674
sg67
(lp4681
g60
(g61
g62
NtRp4682
(dp4683
g65
(dp4684
g73
I3
ssg74
g4678
sg67
(lp4685
g4059
(S't\t\x00\x00\x00Resources'
tRp4686
asbasbasbag60
(g76
g62
NtRp4687
(dp4688
g65
(dp4689
sg74
g4670
sg67
(lp4690
g60
(g81
g62
NtRp4691
(dp4692
g65
(dp4693
sg74
g4687
sg67
(lp4694
g60
(g61
g62
NtRp4695
(dp4696
g65
(dp4697
g73
I3
ssg74
g4691
sg67
(lp4698
g103
asbasbasbag60
(g76
g62
NtRp4699
(dp4700
g65
(dp4701
sg74
g4670
sg67
(lp4702
g60
(g81
g62
NtRp4703
(dp4704
g65
(dp4705
sg74
g4699
sg67
(lp4706
g60
(g61
g62
NtRp4707
(dp4708
g65
(dp4709
g73
I3
ssg74
g4703
sg67
(lp4710
S'None'
p4711
asbasbasbag60
(g76
g62
NtRp4712
(dp4713
g65
(dp4714
sg74
g4670
sg67
(lp4715
g60
(g81
g62
NtRp4716
(dp4717
g65
(dp4718
sg74
g4712
sg67
(lp4719
g60
(g61
g62
NtRp4720
(dp4721
g65
(dp4722
g73
I3
ssg74
g4716
sg67
(lp4723
g60
(g69
g62
NtRp4724
(dp4725
g65
(dp4726
g73
I2
ssg74
Nsg67
(lp4727
g60
(g76
g62
NtRp4728
(dp4729
g65
(dp4730
sg74
g4724
sg67
(lp4731
g60
(g81
g62
NtRp4732
(dp4733
g65
(dp4734
sg74
g4728
sg67
(lp4735
g60
(g61
g62
NtRp4736
(dp4737
g65
(dp4738
g73
I2
ssg74
g4732
sg67
(lp4739
g60
(g69
g62
NtRp4740
(dp4741
g65
(dp4742
g73
I1
ssg74
Nsg67
(lp4743
g60
(g76
g62
NtRp4744
(dp4745
g65
(dp4746
sg74
g4740
sg67
(lp4747
g60
(g81
g62
NtRp4748
(dp4749
g65
(dp4750
sg74
g4744
sg67
(lp4751
g60
(g61
g62
NtRp4752
(dp4753
g65
(dp4754
g73
I1
ssg74
g4748
sg67
(lp4755
g4059
(S's\x0e\x00\x00\x00Documentaci\xc3\xb3n'
tRp4756
asbasbasbag60
(g76
g62
NtRp4757
(dp4758
g65
(dp4759
sg74
g4740
sg67
(lp4760
g60
(g81
g62
NtRp4761
(dp4762
g65
(dp4763
sg74
g4757
sg67
(lp4764
g60
(g61
g62
NtRp4765
(dp4766
g65
(dp4767
g73
I1
ssg74
g4761
sg67
(lp4768
I00
asbasbasbag60
(g76
g62
NtRp4769
(dp4770
g65
(dp4771
sg74
g4740
sg67
(lp4772
g60
(g81
g62
NtRp4773
(dp4774
g65
(dp4775
sg74
g4769
sg67
(lp4776
g60
(g61
g62
NtRp4777
(dp4778
g65
(dp4779
g73
I1
ssg74
g4773
sg67
(lp4780
S'http://www.web2py.com/book'
p4781
asbasbasbag60
(g76
g62
NtRp4782
(dp4783
g65
(dp4784
sg74
g4740
sg67
(lp4785
g60
(g81
g62
NtRp4786
(dp4787
g65
(dp4788
sg74
g4782
sg67
(lp4789
g60
(g61
g62
NtRp4790
(dp4791
g65
(dp4792
g73
I1
ssg74
g4786
sg67
(lp4793
(lp4794
(g4059
(S't\x07\x00\x00\x00Preface'
tRp4795
I00
S'http://www.web2py.com/book/default/chapter/00'
tp4796
a(g4059
(S't\x0c\x00\x00\x00Introduction'
tRp4797
I00
S'http://www.web2py.com/book/default/chapter/01'
tp4798
a(g4059
(S't\x06\x00\x00\x00Python'
tRp4799
I00
S'http://www.web2py.com/book/default/chapter/02'
tp4800
a(g4059
(S't\x08\x00\x00\x00Overview'
tRp4801
I00
S'http://www.web2py.com/book/default/chapter/03'
tp4802
a(g4059
(S's\x08\x00\x00\x00The Core'
tRp4803
I00
S'http://www.web2py.com/book/default/chapter/04'
tp4804
a(g4059
(S's\t\x00\x00\x00The Views'
tRp4805
I00
S'http://www.web2py.com/book/default/chapter/05'
tp4806
a(g4059
(S's\r\x00\x00\x00Base de datos'
tRp4807
I00
S'http://www.web2py.com/book/default/chapter/06'
tp4808
a(g4059
(S's\x14\x00\x00\x00Forms and Validators'
tRp4809
I00
S'http://www.web2py.com/book/default/chapter/07'
tp4810
a(g4059
(S's\x0e\x00\x00\x00Access Control'
tRp4811
I00
S'http://www.web2py.com/book/default/chapter/08'
tp4812
a(g4059
(S't\x08\x00\x00\x00Services'
tRp4813
I00
S'http://www.web2py.com/book/default/chapter/09'
tp4814
a(g4059
(S's\x0c\x00\x00\x00Ajax Recipes'
tRp4815
I00
S'http://www.web2py.com/book/default/chapter/10'
tp4816
a(g4059
(S's\x12\x00\x00\x00Deployment Recipes'
tRp4817
I00
S'http://www.web2py.com/book/default/chapter/11'
tp4818
a(g4059
(S's\r\x00\x00\x00Other Recipes'
tRp4819
I00
S'http://www.web2py.com/book/default/chapter/12'
tp4820
a(g4059
(S's\r\x00\x00\x00Buy this book'
tRp4821
I00
S'http://stores.lulu.com/web2py'
tp4822
aasbasbasbasbasbasbasbag60
(g76
g62
NtRp4823
(dp4824
g65
(dp4825
sg74
g4724
sg67
(lp4826
g60
(g81
g62
NtRp4827
(dp4828
g65
(dp4829
sg74
g4823
sg67
(lp4830
g60
(g61
g62
NtRp4831
(dp4832
g65
(dp4833
g73
I2
ssg74
g4827
sg67
(lp4834
g60
(g69
g62
NtRp4835
(dp4836
g65
(dp4837
g73
I1
ssg74
Nsg67
(lp4838
g60
(g76
g62
NtRp4839
(dp4840
g65
(dp4841
sg74
g4835
sg67
(lp4842
g60
(g81
g62
NtRp4843
(dp4844
g65
(dp4845
sg74
g4839
sg67
(lp4846
g60
(g61
g62
NtRp4847
(dp4848
g65
(dp4849
g73
I1
ssg74
g4843
sg67
(lp4850
g4059
(S't\t\x00\x00\x00Community'
tRp4851
asbasbasbag60
(g76
g62
NtRp4852
(dp4853
g65
(dp4854
sg74
g4835
sg67
(lp4855
g60
(g81
g62
NtRp4856
(dp4857
g65
(dp4858
sg74
g4852
sg67
(lp4859
g60
(g61
g62
NtRp4860
(dp4861
g65
(dp4862
g73
I1
ssg74
g4856
sg67
(lp4863
I00
asbasbasbag60
(g76
g62
NtRp4864
(dp4865
g65
(dp4866
sg74
g4835
sg67
(lp4867
g60
(g81
g62
NtRp4868
(dp4869
g65
(dp4870
sg74
g4864
sg67
(lp4871
g60
(g61
g62
NtRp4872
(dp4873
g65
(dp4874
g73
I1
ssg74
g4868
sg67
(lp4875
Nasbasbasbag60
(g76
g62
NtRp4876
(dp4877
g65
(dp4878
sg74
g4835
sg67
(lp4879
g60
(g81
g62
NtRp4880
(dp4881
g65
(dp4882
sg74
g4876
sg67
(lp4883
g60
(g61
g62
NtRp4884
(dp4885
g65
(dp4886
g73
I1
ssg74
g4880
sg67
(lp4887
(lp4888
(g4059
(S't\x06\x00\x00\x00Groups'
tRp4889
I00
S'http://www.web2py.com/examples/default/usergroups'
tp4890
a(g4059
(S't\x07\x00\x00\x00Twitter'
tRp4891
I00
S'http://twitter.com/web2py'
tp4892
a(g4059
(S's\t\x00\x00\x00Live chat'
tRp4893
I00
S'http://mibbit.com/?channel=%23web2py&server=irc.mibbit.net'
tp4894
a(g4059
(S's\n\x00\x00\x00User Voice'
tRp4895
I00
S'http://web2py.uservoice.com/'
tp4896
aasbasbasbasbasbasbasbag60
(g76
g62
NtRp4897
(dp4898
g65
(dp4899
sg74
g4724
sg67
(lp4900
g60
(g81
g62
NtRp4901
(dp4902
g65
(dp4903
sg74
g4897
sg67
(lp4904
g60
(g61
g62
NtRp4905
(dp4906
g65
(dp4907
g73
I2
ssg74
g4901
sg67
(lp4908
g60
(g69
g62
NtRp4909
(dp4910
g65
(dp4911
g73
I1
ssg74
Nsg67
(lp4912
g60
(g76
g62
NtRp4913
(dp4914
g65
(dp4915
sg74
g4909
sg67
(lp4916
g60
(g81
g62
NtRp4917
(dp4918
g65
(dp4919
sg74
g4913
sg67
(lp4920
g60
(g61
g62
NtRp4921
(dp4922
g65
(dp4923
g73
I1
ssg74
g4917
sg67
(lp4924
g4059
(S't\x06\x00\x00\x00Web2py'
tRp4925
asbasbasbag60
(g76
g62
NtRp4926
(dp4927
g65
(dp4928
sg74
g4909
sg67
(lp4929
g60
(g81
g62
NtRp4930
(dp4931
g65
(dp4932
sg74
g4926
sg67
(lp4933
g60
(g61
g62
NtRp4934
(dp4935
g65
(dp4936
g73
I1
ssg74
g4930
sg67
(lp4937
I00
asbasbasbag60
(g76
g62
NtRp4938
(dp4939
g65
(dp4940
sg74
g4909
sg67
(lp4941
g60
(g81
g62
NtRp4942
(dp4943
g65
(dp4944
sg74
g4938
sg67
(lp4945
g60
(g61
g62
NtRp4946
(dp4947
g65
(dp4948
g73
I1
ssg74
g4942
sg67
(lp4949
S'http://www.web2py.com'
p4950
asbasbasbag60
(g76
g62
NtRp4951
(dp4952
g65
(dp4953
sg74
g4909
sg67
(lp4954
g60
(g81
g62
NtRp4955
(dp4956
g65
(dp4957
sg74
g4951
sg67
(lp4958
g60
(g61
g62
NtRp4959
(dp4960
g65
(dp4961
g73
I1
ssg74
g4955
sg67
(lp4962
(lp4963
(g4059
(S't\x08\x00\x00\x00Download'
tRp4964
I00
S'http://www.web2py.com/examples/default/download'
tp4965
a(g4059
(S't\x07\x00\x00\x00Support'
tRp4966
I00
S'http://www.web2py.com/examples/default/support'
tp4967
a(g4059
(S's\x0e\x00\x00\x00Quick Examples'
tRp4968
I00
S'http://web2py.com/examples/default/examples'
tp4969
a(g4059
(S't\x03\x00\x00\x00FAQ'
tRp4970
I00
S'http://web2py.com/AlterEgo'
tp4971
a(g4059
(S's\x11\x00\x00\x00Free Applications'
tRp4972
I00
S'http://web2py.com/appliances'
tp4973
a(g4059
(S't\x07\x00\x00\x00Plugins'
tRp4974
I00
S'http://web2py.com/plugins'
tp4975
a(g4059
(S't\x07\x00\x00\x00Recipes'
tRp4976
I00
S'http://web2pyslices.com/'
tp4977
a(g4059
(S't\x04\x00\x00\x00Demo'
tRp4978
I00
S'http://web2py.com/demo_admin'
tp4979
a(g4059
(S't\x08\x00\x00\x00Semantic'
tRp4980
I00
S'http://web2py.com/semantic'
tp4981
a(g4059
(S't\x07\x00\x00\x00Layouts'
tRp4982
I00
S'http://web2py.com/layouts'
tp4983
a(g4059
(S't\x06\x00\x00\x00Videos'
tRp4984
I00
S'http://www.web2py.com/examples/default/videos/'
tp4985
aasbasbasbasbasbasbasbasbasbasbasbasbasbasbasbasbasbasbasbag60
(g76
g62
NtRp4986
(dp4987
g65
(dp4988
sg74
g3586
sg67
(lp4989
g60
(g81
g62
NtRp4990
(dp4991
g65
(dp4992
g85
g86
ssg74
g4986
sg67
(lp4993
S'meta'
p4994
asbag60
(g81
g62
NtRp4995
(dp4996
g65
(dp4997
g92
g93
ssg74
g4986
sg67
(lp4998
S':'
asbag60
(g81
g62
NtRp4999
(dp5000
g65
(dp5001
sg74
g4986
sg67
(lp5002
g60
(g61
g62
NtRp5003
(dp5004
g65
(dp5005
g73
I5
ssg74
g4999
sg67
(lp5006
g60
(g69
g62
NtRp5007
(dp5008
g65
(dp5009
g73
I4
ssg74
Nsg67
(lp5010
g60
(g76
g62
NtRp5011
(dp5012
g65
(dp5013
sg74
g5007
sg67
(lp5014
g60
(g81
g62
NtRp5015
(dp5016
g65
(dp5017
g85
g86
ssg74
g5011
sg67
(lp5018
S'author'
p5019
asbag60
(g81
g62
NtRp5020
(dp5021
g65
(dp5022
g92
g93
ssg74
g5011
sg67
(lp5023
S':'
asbag60
(g81
g62
NtRp5024
(dp5025
g65
(dp5026
sg74
g5011
sg67
(lp5027
g60
(g61
g62
NtRp5028
(dp5029
g65
(dp5030
g73
I4
ssg74
g5024
sg67
(lp5031
S'you'
p5032
asbasbasbag60
(g76
g62
NtRp5033
(dp5034
g65
(dp5035
sg74
g5007
sg67
(lp5036
g60
(g81
g62
NtRp5037
(dp5038
g65
(dp5039
g85
g86
ssg74
g5033
sg67
(lp5040
S'copyright'
p5041
asbag60
(g81
g62
NtRp5042
(dp5043
g65
(dp5044
g92
g93
ssg74
g5033
sg67
(lp5045
S':'
asbag60
(g81
g62
NtRp5046
(dp5047
g65
(dp5048
sg74
g5033
sg67
(lp5049
g60
(g61
g62
NtRp5050
(dp5051
g65
(dp5052
g73
I4
ssg74
g5046
sg67
(lp5053
S'Copyright 2007-2010'
p5054
asbasbasbag60
(g76
g62
NtRp5055
(dp5056
g65
(dp5057
sg74
g5007
sg67
(lp5058
g60
(g81
g62
NtRp5059
(dp5060
g65
(dp5061
g85
g86
ssg74
g5055
sg67
(lp5062
S'description'
p5063
asbag60
(g81
g62
NtRp5064
(dp5065
g65
(dp5066
g92
g93
ssg74
g5055
sg67
(lp5067
S':'
asbag60
(g81
g62
NtRp5068
(dp5069
g65
(dp5070
sg74
g5055
sg67
(lp5071
g60
(g61
g62
NtRp5072
(dp5073
g65
(dp5074
g73
I4
ssg74
g5068
sg67
(lp5075
S'Free and open source full-stack enterprise framework for agile development of fast, scalable, secure and portable database-driven web-based applications. Written and programmable in Python'
p5076
asbasbasbag60
(g76
g62
NtRp5077
(dp5078
g65
(dp5079
sg74
g5007
sg67
(lp5080
g60
(g81
g62
NtRp5081
(dp5082
g65
(dp5083
g85
g86
ssg74
g5077
sg67
(lp5084
S'generator'
p5085
asbag60
(g81
g62
NtRp5086
(dp5087
g65
(dp5088
g92
g93
ssg74
g5077
sg67
(lp5089
S':'
asbag60
(g81
g62
NtRp5090
(dp5091
g65
(dp5092
sg74
g5077
sg67
(lp5093
g60
(g61
g62
NtRp5094
(dp5095
g65
(dp5096
g73
I4
ssg74
g5090
sg67
(lp5097
S'Web2py Enterprise Framework'
p5098
asbasbasbag60
(g76
g62
NtRp5099
(dp5100
g65
(dp5101
sg74
g5007
sg67
(lp5102
g60
(g81
g62
NtRp5103
(dp5104
g65
(dp5105
g85
g86
ssg74
g5099
sg67
(lp5106
S'keywords'
p5107
asbag60
(g81
g62
NtRp5108
(dp5109
g65
(dp5110
g92
g93
ssg74
g5099
sg67
(lp5111
S':'
asbag60
(g81
g62
NtRp5112
(dp5113
g65
(dp5114
sg74
g5099
sg67
(lp5115
g60
(g61
g62
NtRp5116
(dp5117
g65
(dp5118
g73
I4
ssg74
g5112
sg67
(lp5119
S'web2py, python, framework'
p5120
asbasbasbasbasbasbasbag60
(g76
g62
NtRp5121
(dp5122
g65
(dp5123
sg74
g3586
sg67
(lp5124
g60
(g81
g62
NtRp5125
(dp5126
g65
(dp5127
g85
g86
ssg74
g5121
sg67
(lp5128
S'postprocessing'
p5129
asbag60
(g81
g62
NtRp5130
(dp5131
g65
(dp5132
g92
g93
ssg74
g5121
sg67
(lp5133
S':'
asbag60
(g81
g62
NtRp5134
(dp5135
g65
(dp5136
sg74
g5121
sg67
(lp5137
g60
(g61
g62
NtRp5138
(dp5139
g65
(dp5140
g73
I5
ssg74
g5134
sg67
(lp5141
g60
(g69
g62
NtRp5142
(dp5143
g65
(dp5144
g73
I4
ssg74
Nsg67
(lp5145
sbasbasbasbag60
(g76
g62
NtRp5146
(dp5147
g65
(dp5148
sg74
g3586
sg67
(lp5149
g60
(g81
g62
NtRp5150
(dp5151
g65
(dp5152
g85
g86
ssg74
g5146
sg67
(lp5153
S'session_file'
p5154
asbag60
(g81
g62
NtRp5155
(dp5156
g65
(dp5157
g92
g93
ssg74
g5146
sg67
(lp5158
S':'
asbag60
(g81
g62
NtRp5159
(dp5160
g65
(dp5161
sg74
g5146
sg67
(lp5162
g60
(g61
g62
NtRp5163
(dp5164
g65
(dp5165
g73
I5
ssg74
g5159
sg67
(lp5166
S"<open file 'C:\\Users\\Atomico\\web2py\\applications\\Desglosar_Emails\\sessions\\127.0.0.1-0a11b3b2-660c-433c-b71f-fc129286f26c', mode 'rb+' at 0x03218380>"
p5167
asbasbasbag60
(g76
g62
NtRp5168
(dp5169
g65
(dp5170
sg74
g3586
sg67
(lp5171
g60
(g81
g62
NtRp5172
(dp5173
g65
(dp5174
g85
g86
ssg74
g5168
sg67
(lp5175
S'session_filename'
p5176
asbag60
(g81
g62
NtRp5177
(dp5178
g65
(dp5179
g92
g93
ssg74
g5168
sg67
(lp5180
S':'
asbag60
(g81
g62
NtRp5181
(dp5182
g65
(dp5183
sg74
g5168
sg67
(lp5184
g60
(g61
g62
NtRp5185
(dp5186
g65
(dp5187
g73
I5
ssg74
g5181
sg67
(lp5188
S'C:\\Users\\Atomico\\web2py\\applications\\Desglosar_Emails\\sessions\\127.0.0.1-0a11b3b2-660c-433c-b71f-fc129286f26c'
p5189
asbasbasbag60
(g76
g62
NtRp5190
(dp5191
g65
(dp5192
sg74
g3586
sg67
(lp5193
g60
(g81
g62
NtRp5194
(dp5195
g65
(dp5196
g85
g86
ssg74
g5190
sg67
(lp5197
S'session_id'
p5198
asbag60
(g81
g62
NtRp5199
(dp5200
g65
(dp5201
g92
g93
ssg74
g5190
sg67
(lp5202
S':'
asbag60
(g81
g62
NtRp5203
(dp5204
g65
(dp5205
sg74
g5190
sg67
(lp5206
g60
(g61
g62
NtRp5207
(dp5208
g65
(dp5209
g73
I5
ssg74
g5203
sg67
(lp5210
S'127.0.0.1-0a11b3b2-660c-433c-b71f-fc129286f26c'
p5211
asbasbasbag60
(g76
g62
NtRp5212
(dp5213
g65
(dp5214
sg74
g3586
sg67
(lp5215
g60
(g81
g62
NtRp5216
(dp5217
g65
(dp5218
g85
g86
ssg74
g5212
sg67
(lp5219
S'session_id_name'
p5220
asbag60
(g81
g62
NtRp5221
(dp5222
g65
(dp5223
g92
g93
ssg74
g5212
sg67
(lp5224
S':'
asbag60
(g81
g62
NtRp5225
(dp5226
g65
(dp5227
sg74
g5212
sg67
(lp5228
g60
(g61
g62
NtRp5229
(dp5230
g65
(dp5231
g73
I5
ssg74
g5225
sg67
(lp5232
g3643
asbasbasbag60
(g76
g62
NtRp5233
(dp5234
g65
(dp5235
sg74
g3586
sg67
(lp5236
g60
(g81
g62
NtRp5237
(dp5238
g65
(dp5239
g85
g86
ssg74
g5233
sg67
(lp5240
S'session_locked'
p5241
asbag60
(g81
g62
NtRp5242
(dp5243
g65
(dp5244
g92
g93
ssg74
g5233
sg67
(lp5245
S':'
asbag60
(g81
g62
NtRp5246
(dp5247
g65
(dp5248
sg74
g5233
sg67
(lp5249
g60
(g61
g62
NtRp5250
(dp5251
g65
(dp5252
g73
I5
ssg74
g5246
sg67
(lp5253
g2301
asbasbasbag60
(g76
g62
NtRp5254
(dp5255
g65
(dp5256
sg74
g3586
sg67
(lp5257
g60
(g81
g62
NtRp5258
(dp5259
g65
(dp5260
g85
g86
ssg74
g5254
sg67
(lp5261
S'session_new'
p5262
asbag60
(g81
g62
NtRp5263
(dp5264
g65
(dp5265
g92
g93
ssg74
g5254
sg67
(lp5266
S':'
asbag60
(g81
g62
NtRp5267
(dp5268
g65
(dp5269
sg74
g5254
sg67
(lp5270
g60
(g61
g62
NtRp5271
(dp5272
g65
(dp5273
g73
I5
ssg74
g5267
sg67
(lp5274
g103
asbasbasbag60
(g76
g62
NtRp5275
(dp5276
g65
(dp5277
sg74
g3586
sg67
(lp5278
g60
(g81
g62
NtRp5279
(dp5280
g65
(dp5281
g85
g86
ssg74
g5275
sg67
(lp5282
S'status'
p5283
asbag60
(g81
g62
NtRp5284
(dp5285
g65
(dp5286
g92
g93
ssg74
g5275
sg67
(lp5287
S':'
asbag60
(g81
g62
NtRp5288
(dp5289
g65
(dp5290
sg74
g5275
sg67
(lp5291
g60
(g61
g62
NtRp5292
(dp5293
g65
(dp5294
g73
I5
ssg74
g5288
sg67
(lp5295
S'200'
p5296
asbasbasbag60
(g76
g62
NtRp5297
(dp5298
g65
(dp5299
sg74
g3586
sg67
(lp5300
g60
(g81
g62
NtRp5301
(dp5302
g65
(dp5303
g85
g86
ssg74
g5297
sg67
(lp5304
S'subtitle'
p5305
asbag60
(g81
g62
NtRp5306
(dp5307
g65
(dp5308
g92
g93
ssg74
g5297
sg67
(lp5309
S':'
asbag60
(g81
g62
NtRp5310
(dp5311
g65
(dp5312
sg74
g5297
sg67
(lp5313
g60
(g61
g62
NtRp5314
(dp5315
g65
(dp5316
g73
I5
ssg74
g5310
sg67
(lp5317
g4059
(S's\t\x00\x00\x00Adaptame!'
tRp5318
asbasbasbag60
(g76
g62
NtRp5319
(dp5320
g65
(dp5321
sg74
g3586
sg67
(lp5322
g60
(g81
g62
NtRp5323
(dp5324
g65
(dp5325
g85
g86
ssg74
g5319
sg67
(lp5326
S'title'
p5327
asbag60
(g81
g62
NtRp5328
(dp5329
g65
(dp5330
g92
g93
ssg74
g5319
sg67
(lp5331
S':'
asbag60
(g81
g62
NtRp5332
(dp5333
g65
(dp5334
sg74
g5319
sg67
(lp5335
g60
(g61
g62
NtRp5336
(dp5337
g65
(dp5338
g73
I5
ssg74
g5332
sg67
(lp5339
g125
asbasbasbag60
(g76
g62
NtRp5340
(dp5341
g65
(dp5342
sg74
g3586
sg67
(lp5343
g60
(g81
g62
NtRp5344
(dp5345
g65
(dp5346
g85
g86
ssg74
g5340
sg67
(lp5347
g2667
asbag60
(g81
g62
NtRp5348
(dp5349
g65
(dp5350
g92
g93
ssg74
g5340
sg67
(lp5351
S':'
asbag60
(g81
g62
NtRp5352
(dp5353
g65
(dp5354
sg74
g5340
sg67
(lp5355
g60
(g61
g62
NtRp5356
(dp5357
g65
(dp5358
g73
I5
ssg74
g5352
sg67
(lp5359
g2680
asbasbasbag60
(g76
g62
NtRp5360
(dp5361
g65
(dp5362
sg74
g3586
sg67
(lp5363
g60
(g81
g62
NtRp5364
(dp5365
g65
(dp5366
g85
g86
ssg74
g5360
sg67
(lp5367
S'view'
p5368
asbag60
(g81
g62
NtRp5369
(dp5370
g65
(dp5371
g92
g93
ssg74
g5360
sg67
(lp5372
S':'
asbag60
(g81
g62
NtRp5373
(dp5374
g65
(dp5375
sg74
g5360
sg67
(lp5376
g60
(g61
g62
NtRp5377
(dp5378
g65
(dp5379
g73
I5
ssg74
g5373
sg67
(lp5380
S'default/entrada_mod2.html'
p5381
asbasbasbasbasbsS'locals'
p5382
(dp5383
S'self'
p5384
S"<DAL {'_migrate_enabled': True, '_lastsql': '', ...'_uri_hash': '83307e19c28ada51de864a31fe97b329'}>"
p5385
sS'value'
p5386
S'0'
sS'key'
p5387
S"'info2'"
p5388
sssS'traceback'
p5389
S'Traceback (most recent call last):\n  File "gluon/restricted.py", line 192, in restricted\n  File "C:\\Users\\Atomico\\web2py\\applications\\Desglosar_Emails\\controllers/default.py", line 62, in <module>\n  File "gluon/globals.py", line 145, in <lambda>\n  File "C:\\Users\\Atomico\\web2py\\applications\\Desglosar_Emails\\controllers/default.py", line 55, in entrada_mod2\n  File "gluon/dal.py", line 4336, in __setattr__\nSyntaxError: Object info2 exists and cannot be redefined\n'
p5390
s.