(dp1
S'output'
p2
S''
sS'layer'
p3
S'C:\\Users\\Atomico\\web2py\\applications\\Desglosar_Emails\\controllers/default.py'
p4
sS'code'
p5
S'def entrada():\n    form=SQLFORM(db.info)\n    if form.accepts(request.vars,session): pass\n    \n    txt=db.info[12].texto\n    c=0\n    for i in range(len(txt)): c=c+1\n    response.write(\'el total de c es \'+str(c)+\'. \')\n   \n    import re\n    pattern=re.compile(".*a[0-5].*")\n    for i in range(len(txt)):\n    ## encontrar el primer email\n        s=txt[:i]\n        if pattern.search(s):\n            response.write(\'Se ha encontrado a1 o a2 o a3 \\r o a4 o a5 o a0\\n\')\n        elif not pattern.search(s) and i==(len(txt)-1):\n            response.write(\'Nanai contrai\')\n        \n    response.write(\'La len(txt) es \'+str(len(txt))+\' y la i es \'+str(i))\n    response.write(\'*********************\')\n\n    cont=0\n    for i in xrange(0,4):\n        cont=cont+1\n        response.write(\'Para el valor i \'+str(i)+\' el contador se pone a \'+str(cont))\n    response.write(\' y el resultado final es de i \'+str(i)+\' el contador se pone a \'+str(cont)+\'. \')\n    i=0\n    while i<len(txt):\n        response.write(txt[i]+\'-\')\n        i=i+1\n    response.write(\'. La len(txt) es de \'+str(len(txt))+\' y la i se ha quedado en \'+str(i))\n    db.info.insert(texto="Vete a Cascarla")\n    \n    return dict(form=form)\n    \ndef entrada_mod1():\n    form=SQLFORM(db.info2)\n    if form.accepts(request.vars,session): pass\n    i=0\n    # while  not db.info2[i].texto==\'\':\n    #    response.write(i)\n    #    i=i+1\n    db.info2.insert(texto=\'Vete a cascarla\')\n    \n    return dict(form=form)\n    \ndef salto():\n    for x in range (10):\n        response . write (x)\n        response . write ( \'hello<br />\' , escape=False )\n    return dict(x=x)\n    \ndef entrada_mod2():\n    form=SQLFORM(db.persona)\n    if form.accepts(request.vars,session):pass\n    \n    form2=SQLFORM(db.perro)\n    if form2.accepts(request.vars,session):pass\n    \n    return dict(form=form,form2=form2)\n    \ndef entrada_mod3():\n    form=SQLFORM(db.info4)\n    if form.accepts(request.vars,session):pass\n    \n    return dict(form=form)\n   \ndef borrardb():\n    db.contactos.dump()\n    db.info4.dump()\n    return dict(cad=\'Cagada pastoret\')\n\nresponse._vars=response._caller(borrardb)\n'
p6
sS'snapshot'
p7
(dp8
S'exception'
p9
(dp10
S'__hash__'
p11
S"<method-wrapper '__hash__' of exceptions.KeyError object at 0x0835AB98>"
p12
sS'__setattr__'
p13
S"<method-wrapper '__setattr__' of exceptions.KeyError object at 0x0835AB98>"
p14
sS'__reduce_ex__'
p15
S'<built-in method __reduce_ex__ of exceptions.KeyError object at 0x0835AB98>'
p16
sS'__getslice__'
p17
S"<method-wrapper '__getslice__' of exceptions.KeyError object at 0x0835AB98>"
p18
sS'__getitem__'
p19
S"<method-wrapper '__getitem__' of exceptions.KeyError object at 0x0835AB98>"
p20
sS'__setstate__'
p21
S'<built-in method __setstate__ of exceptions.KeyError object at 0x0835AB98>'
p22
sS'__reduce__'
p23
S'<built-in method __reduce__ of exceptions.KeyError object at 0x0835AB98>'
p24
sS'__str__'
p25
S"<method-wrapper '__str__' of exceptions.KeyError object at 0x0835AB98>"
p26
sS'args'
p27
S"('dump',)"
p28
sS'__getattribute__'
p29
S"<method-wrapper '__getattribute__' of exceptions.KeyError object at 0x0835AB98>"
p30
sS'__class__'
p31
S"<type 'exceptions.KeyError'>"
p32
sS'__delattr__'
p33
S"<method-wrapper '__delattr__' of exceptions.KeyError object at 0x0835AB98>"
p34
sS'__repr__'
p35
S"<method-wrapper '__repr__' of exceptions.KeyError object at 0x0835AB98>"
p36
sS'__dict__'
p37
S'{}'
p38
sS'__doc__'
p39
S"'Mapping key not found.'"
p40
sS'__init__'
p41
S"<method-wrapper '__init__' of exceptions.KeyError object at 0x0835AB98>"
p42
sS'__new__'
p43
S'<built-in method __new__ of type object at 0x1E1CDFB8>'
p44
ssS'evalue'
p45
S"'dump'"
p46
sS'request'
p47
ccopy_reg
_reconstructor
p48
(cgluon.html
BEAUTIFY
p49
c__builtin__
object
p50
NtRp51
(dp52
S'attributes'
p53
(dp54
sS'components'
p55
(lp56
g48
(cgluon.html
TABLE
p57
g50
NtRp58
(dp59
g53
(dp60
S'level'
p61
I5
ssS'parent'
p62
Nsg55
(lp63
g48
(cgluon.html
TR
p64
g50
NtRp65
(dp66
g53
(dp67
sg62
g58
sg55
(lp68
g48
(cgluon.html
TD
p69
g50
NtRp70
(dp71
g53
(dp72
S'_style'
p73
S'font-weight:bold;'
p74
ssg62
g65
sg55
(lp75
S'ajax'
p76
asbag48
(g69
g50
NtRp77
(dp78
g53
(dp79
S'_valign'
p80
S'top'
p81
ssg62
g65
sg55
(lp82
S':'
asbag48
(g69
g50
NtRp83
(dp84
g53
(dp85
sg62
g65
sg55
(lp86
g48
(g49
g50
NtRp87
(dp88
g53
(dp89
g61
I5
ssg62
g83
sg55
(lp90
S'False'
p91
asbasbasbag48
(g64
g50
NtRp92
(dp93
g53
(dp94
sg62
g58
sg55
(lp95
g48
(g69
g50
NtRp96
(dp97
g53
(dp98
g73
g74
ssg62
g92
sg55
(lp99
S'application'
p100
asbag48
(g69
g50
NtRp101
(dp102
g53
(dp103
g80
g81
ssg62
g92
sg55
(lp104
S':'
asbag48
(g69
g50
NtRp105
(dp106
g53
(dp107
sg62
g92
sg55
(lp108
g48
(g49
g50
NtRp109
(dp110
g53
(dp111
g61
I5
ssg62
g105
sg55
(lp112
S'Desglosar_Emails'
p113
asbasbasbag48
(g64
g50
NtRp114
(dp115
g53
(dp116
sg62
g58
sg55
(lp117
g48
(g69
g50
NtRp118
(dp119
g53
(dp120
g73
g74
ssg62
g114
sg55
(lp121
g27
asbag48
(g69
g50
NtRp122
(dp123
g53
(dp124
g80
g81
ssg62
g114
sg55
(lp125
S':'
asbag48
(g69
g50
NtRp126
(dp127
g53
(dp128
sg62
g114
sg55
(lp129
g48
(g49
g50
NtRp130
(dp131
g53
(dp132
g61
I5
ssg62
g126
sg55
(lp133
g48
(g57
g50
NtRp134
(dp135
g53
(dp136
g61
I4
ssg62
Nsg55
(lp137
sbasbasbasbag48
(g64
g50
NtRp138
(dp139
g53
(dp140
sg62
g58
sg55
(lp141
g48
(g69
g50
NtRp142
(dp143
g53
(dp144
g73
g74
ssg62
g138
sg55
(lp145
S'body'
p146
asbag48
(g69
g50
NtRp147
(dp148
g53
(dp149
g80
g81
ssg62
g138
sg55
(lp150
S':'
asbag48
(g69
g50
NtRp151
(dp152
g53
(dp153
sg62
g138
sg55
(lp154
g48
(g49
g50
NtRp155
(dp156
g53
(dp157
g61
I5
ssg62
g151
sg55
(lp158
S'<cStringIO.StringO object at 0x08411620>'
p159
asbasbasbag48
(g64
g50
NtRp160
(dp161
g53
(dp162
sg62
g58
sg55
(lp163
g48
(g69
g50
NtRp164
(dp165
g53
(dp166
g73
g74
ssg62
g160
sg55
(lp167
S'client'
p168
asbag48
(g69
g50
NtRp169
(dp170
g53
(dp171
g80
g81
ssg62
g160
sg55
(lp172
S':'
asbag48
(g69
g50
NtRp173
(dp174
g53
(dp175
sg62
g160
sg55
(lp176
g48
(g49
g50
NtRp177
(dp178
g53
(dp179
g61
I5
ssg62
g173
sg55
(lp180
S'127.0.0.1'
p181
asbasbasbag48
(g64
g50
NtRp182
(dp183
g53
(dp184
sg62
g58
sg55
(lp185
g48
(g69
g50
NtRp186
(dp187
g53
(dp188
g73
g74
ssg62
g182
sg55
(lp189
S'controller'
p190
asbag48
(g69
g50
NtRp191
(dp192
g53
(dp193
g80
g81
ssg62
g182
sg55
(lp194
S':'
asbag48
(g69
g50
NtRp195
(dp196
g53
(dp197
sg62
g182
sg55
(lp198
g48
(g49
g50
NtRp199
(dp200
g53
(dp201
g61
I5
ssg62
g195
sg55
(lp202
S'default'
p203
asbasbasbag48
(g64
g50
NtRp204
(dp205
g53
(dp206
sg62
g58
sg55
(lp207
g48
(g69
g50
NtRp208
(dp209
g53
(dp210
g73
g74
ssg62
g204
sg55
(lp211
S'cookies'
p212
asbag48
(g69
g50
NtRp213
(dp214
g53
(dp215
g80
g81
ssg62
g204
sg55
(lp216
S':'
asbag48
(g69
g50
NtRp217
(dp218
g53
(dp219
sg62
g204
sg55
(lp220
g48
(g49
g50
NtRp221
(dp222
g53
(dp223
g61
I5
ssg62
g217
sg55
(lp224
g48
(g57
g50
NtRp225
(dp226
g53
(dp227
g61
I4
ssg62
Nsg55
(lp228
g48
(g64
g50
NtRp229
(dp230
g53
(dp231
sg62
g225
sg55
(lp232
g48
(g69
g50
NtRp233
(dp234
g53
(dp235
g73
g74
ssg62
g229
sg55
(lp236
S'session_id_admin'
p237
asbag48
(g69
g50
NtRp238
(dp239
g53
(dp240
g80
g81
ssg62
g229
sg55
(lp241
S':'
asbag48
(g69
g50
NtRp242
(dp243
g53
(dp244
sg62
g229
sg55
(lp245
g48
(g49
g50
NtRp246
(dp247
g53
(dp248
g61
I4
ssg62
g242
sg55
(lp249
g48
(g57
g50
NtRp250
(dp251
g53
(dp252
g61
I3
ssg62
Nsg55
(lp253
g48
(g64
g50
NtRp254
(dp255
g53
(dp256
sg62
g250
sg55
(lp257
g48
(g69
g50
NtRp258
(dp259
g53
(dp260
g73
g74
ssg62
g254
sg55
(lp261
S'comment'
p262
asbag48
(g69
g50
NtRp263
(dp264
g53
(dp265
g80
g81
ssg62
g254
sg55
(lp266
S':'
asbag48
(g69
g50
NtRp267
(dp268
g53
(dp269
sg62
g254
sg55
(lp270
g48
(g49
g50
NtRp271
(dp272
g53
(dp273
g61
I3
ssg62
g267
sg55
(lp274
S''
asbasbasbag48
(g64
g50
NtRp275
(dp276
g53
(dp277
sg62
g250
sg55
(lp278
g48
(g69
g50
NtRp279
(dp280
g53
(dp281
g73
g74
ssg62
g275
sg55
(lp282
S'domain'
p283
asbag48
(g69
g50
NtRp284
(dp285
g53
(dp286
g80
g81
ssg62
g275
sg55
(lp287
S':'
asbag48
(g69
g50
NtRp288
(dp289
g53
(dp290
sg62
g275
sg55
(lp291
g48
(g49
g50
NtRp292
(dp293
g53
(dp294
g61
I3
ssg62
g288
sg55
(lp295
S''
asbasbasbag48
(g64
g50
NtRp296
(dp297
g53
(dp298
sg62
g250
sg55
(lp299
g48
(g69
g50
NtRp300
(dp301
g53
(dp302
g73
g74
ssg62
g296
sg55
(lp303
S'expires'
p304
asbag48
(g69
g50
NtRp305
(dp306
g53
(dp307
g80
g81
ssg62
g296
sg55
(lp308
S':'
asbag48
(g69
g50
NtRp309
(dp310
g53
(dp311
sg62
g296
sg55
(lp312
g48
(g49
g50
NtRp313
(dp314
g53
(dp315
g61
I3
ssg62
g309
sg55
(lp316
S''
asbasbasbag48
(g64
g50
NtRp317
(dp318
g53
(dp319
sg62
g250
sg55
(lp320
g48
(g69
g50
NtRp321
(dp322
g53
(dp323
g73
g74
ssg62
g317
sg55
(lp324
S'max-age'
p325
asbag48
(g69
g50
NtRp326
(dp327
g53
(dp328
g80
g81
ssg62
g317
sg55
(lp329
S':'
asbag48
(g69
g50
NtRp330
(dp331
g53
(dp332
sg62
g317
sg55
(lp333
g48
(g49
g50
NtRp334
(dp335
g53
(dp336
g61
I3
ssg62
g330
sg55
(lp337
S''
asbasbasbag48
(g64
g50
NtRp338
(dp339
g53
(dp340
sg62
g250
sg55
(lp341
g48
(g69
g50
NtRp342
(dp343
g53
(dp344
g73
g74
ssg62
g338
sg55
(lp345
S'path'
p346
asbag48
(g69
g50
NtRp347
(dp348
g53
(dp349
g80
g81
ssg62
g338
sg55
(lp350
S':'
asbag48
(g69
g50
NtRp351
(dp352
g53
(dp353
sg62
g338
sg55
(lp354
g48
(g49
g50
NtRp355
(dp356
g53
(dp357
g61
I3
ssg62
g351
sg55
(lp358
S''
asbasbasbag48
(g64
g50
NtRp359
(dp360
g53
(dp361
sg62
g250
sg55
(lp362
g48
(g69
g50
NtRp363
(dp364
g53
(dp365
g73
g74
ssg62
g359
sg55
(lp366
S'secure'
p367
asbag48
(g69
g50
NtRp368
(dp369
g53
(dp370
g80
g81
ssg62
g359
sg55
(lp371
S':'
asbag48
(g69
g50
NtRp372
(dp373
g53
(dp374
sg62
g359
sg55
(lp375
g48
(g49
g50
NtRp376
(dp377
g53
(dp378
g61
I3
ssg62
g372
sg55
(lp379
S''
asbasbasbag48
(g64
g50
NtRp380
(dp381
g53
(dp382
sg62
g250
sg55
(lp383
g48
(g69
g50
NtRp384
(dp385
g53
(dp386
g73
g74
ssg62
g380
sg55
(lp387
S'version'
p388
asbag48
(g69
g50
NtRp389
(dp390
g53
(dp391
g80
g81
ssg62
g380
sg55
(lp392
S':'
asbag48
(g69
g50
NtRp393
(dp394
g53
(dp395
sg62
g380
sg55
(lp396
g48
(g49
g50
NtRp397
(dp398
g53
(dp399
g61
I3
ssg62
g393
sg55
(lp400
S''
asbasbasbasbasbasbasbag48
(g64
g50
NtRp401
(dp402
g53
(dp403
sg62
g225
sg55
(lp404
g48
(g69
g50
NtRp405
(dp406
g53
(dp407
g73
g74
ssg62
g401
sg55
(lp408
S'session_id_desglosar_emails'
p409
asbag48
(g69
g50
NtRp410
(dp411
g53
(dp412
g80
g81
ssg62
g401
sg55
(lp413
S':'
asbag48
(g69
g50
NtRp414
(dp415
g53
(dp416
sg62
g401
sg55
(lp417
g48
(g49
g50
NtRp418
(dp419
g53
(dp420
g61
I4
ssg62
g414
sg55
(lp421
g48
(g57
g50
NtRp422
(dp423
g53
(dp424
g61
I3
ssg62
Nsg55
(lp425
g48
(g64
g50
NtRp426
(dp427
g53
(dp428
sg62
g422
sg55
(lp429
g48
(g69
g50
NtRp430
(dp431
g53
(dp432
g73
g74
ssg62
g426
sg55
(lp433
g262
asbag48
(g69
g50
NtRp434
(dp435
g53
(dp436
g80
g81
ssg62
g426
sg55
(lp437
S':'
asbag48
(g69
g50
NtRp438
(dp439
g53
(dp440
sg62
g426
sg55
(lp441
g48
(g49
g50
NtRp442
(dp443
g53
(dp444
g61
I3
ssg62
g438
sg55
(lp445
S''
asbasbasbag48
(g64
g50
NtRp446
(dp447
g53
(dp448
sg62
g422
sg55
(lp449
g48
(g69
g50
NtRp450
(dp451
g53
(dp452
g73
g74
ssg62
g446
sg55
(lp453
g283
asbag48
(g69
g50
NtRp454
(dp455
g53
(dp456
g80
g81
ssg62
g446
sg55
(lp457
S':'
asbag48
(g69
g50
NtRp458
(dp459
g53
(dp460
sg62
g446
sg55
(lp461
g48
(g49
g50
NtRp462
(dp463
g53
(dp464
g61
I3
ssg62
g458
sg55
(lp465
S''
asbasbasbag48
(g64
g50
NtRp466
(dp467
g53
(dp468
sg62
g422
sg55
(lp469
g48
(g69
g50
NtRp470
(dp471
g53
(dp472
g73
g74
ssg62
g466
sg55
(lp473
g304
asbag48
(g69
g50
NtRp474
(dp475
g53
(dp476
g80
g81
ssg62
g466
sg55
(lp477
S':'
asbag48
(g69
g50
NtRp478
(dp479
g53
(dp480
sg62
g466
sg55
(lp481
g48
(g49
g50
NtRp482
(dp483
g53
(dp484
g61
I3
ssg62
g478
sg55
(lp485
S''
asbasbasbag48
(g64
g50
NtRp486
(dp487
g53
(dp488
sg62
g422
sg55
(lp489
g48
(g69
g50
NtRp490
(dp491
g53
(dp492
g73
g74
ssg62
g486
sg55
(lp493
g325
asbag48
(g69
g50
NtRp494
(dp495
g53
(dp496
g80
g81
ssg62
g486
sg55
(lp497
S':'
asbag48
(g69
g50
NtRp498
(dp499
g53
(dp500
sg62
g486
sg55
(lp501
g48
(g49
g50
NtRp502
(dp503
g53
(dp504
g61
I3
ssg62
g498
sg55
(lp505
S''
asbasbasbag48
(g64
g50
NtRp506
(dp507
g53
(dp508
sg62
g422
sg55
(lp509
g48
(g69
g50
NtRp510
(dp511
g53
(dp512
g73
g74
ssg62
g506
sg55
(lp513
g346
asbag48
(g69
g50
NtRp514
(dp515
g53
(dp516
g80
g81
ssg62
g506
sg55
(lp517
S':'
asbag48
(g69
g50
NtRp518
(dp519
g53
(dp520
sg62
g506
sg55
(lp521
g48
(g49
g50
NtRp522
(dp523
g53
(dp524
g61
I3
ssg62
g518
sg55
(lp525
S''
asbasbasbag48
(g64
g50
NtRp526
(dp527
g53
(dp528
sg62
g422
sg55
(lp529
g48
(g69
g50
NtRp530
(dp531
g53
(dp532
g73
g74
ssg62
g526
sg55
(lp533
g367
asbag48
(g69
g50
NtRp534
(dp535
g53
(dp536
g80
g81
ssg62
g526
sg55
(lp537
S':'
asbag48
(g69
g50
NtRp538
(dp539
g53
(dp540
sg62
g526
sg55
(lp541
g48
(g49
g50
NtRp542
(dp543
g53
(dp544
g61
I3
ssg62
g538
sg55
(lp545
S''
asbasbasbag48
(g64
g50
NtRp546
(dp547
g53
(dp548
sg62
g422
sg55
(lp549
g48
(g69
g50
NtRp550
(dp551
g53
(dp552
g73
g74
ssg62
g546
sg55
(lp553
g388
asbag48
(g69
g50
NtRp554
(dp555
g53
(dp556
g80
g81
ssg62
g546
sg55
(lp557
S':'
asbag48
(g69
g50
NtRp558
(dp559
g53
(dp560
sg62
g546
sg55
(lp561
g48
(g49
g50
NtRp562
(dp563
g53
(dp564
g61
I3
ssg62
g558
sg55
(lp565
S''
asbasbasbasbasbasbasbag48
(g64
g50
NtRp566
(dp567
g53
(dp568
sg62
g225
sg55
(lp569
g48
(g69
g50
NtRp570
(dp571
g53
(dp572
g73
g74
ssg62
g566
sg55
(lp573
S'session_id_welcome'
p574
asbag48
(g69
g50
NtRp575
(dp576
g53
(dp577
g80
g81
ssg62
g566
sg55
(lp578
S':'
asbag48
(g69
g50
NtRp579
(dp580
g53
(dp581
sg62
g566
sg55
(lp582
g48
(g49
g50
NtRp583
(dp584
g53
(dp585
g61
I4
ssg62
g579
sg55
(lp586
g48
(g57
g50
NtRp587
(dp588
g53
(dp589
g61
I3
ssg62
Nsg55
(lp590
g48
(g64
g50
NtRp591
(dp592
g53
(dp593
sg62
g587
sg55
(lp594
g48
(g69
g50
NtRp595
(dp596
g53
(dp597
g73
g74
ssg62
g591
sg55
(lp598
g262
asbag48
(g69
g50
NtRp599
(dp600
g53
(dp601
g80
g81
ssg62
g591
sg55
(lp602
S':'
asbag48
(g69
g50
NtRp603
(dp604
g53
(dp605
sg62
g591
sg55
(lp606
g48
(g49
g50
NtRp607
(dp608
g53
(dp609
g61
I3
ssg62
g603
sg55
(lp610
S''
asbasbasbag48
(g64
g50
NtRp611
(dp612
g53
(dp613
sg62
g587
sg55
(lp614
g48
(g69
g50
NtRp615
(dp616
g53
(dp617
g73
g74
ssg62
g611
sg55
(lp618
g283
asbag48
(g69
g50
NtRp619
(dp620
g53
(dp621
g80
g81
ssg62
g611
sg55
(lp622
S':'
asbag48
(g69
g50
NtRp623
(dp624
g53
(dp625
sg62
g611
sg55
(lp626
g48
(g49
g50
NtRp627
(dp628
g53
(dp629
g61
I3
ssg62
g623
sg55
(lp630
S''
asbasbasbag48
(g64
g50
NtRp631
(dp632
g53
(dp633
sg62
g587
sg55
(lp634
g48
(g69
g50
NtRp635
(dp636
g53
(dp637
g73
g74
ssg62
g631
sg55
(lp638
g304
asbag48
(g69
g50
NtRp639
(dp640
g53
(dp641
g80
g81
ssg62
g631
sg55
(lp642
S':'
asbag48
(g69
g50
NtRp643
(dp644
g53
(dp645
sg62
g631
sg55
(lp646
g48
(g49
g50
NtRp647
(dp648
g53
(dp649
g61
I3
ssg62
g643
sg55
(lp650
S''
asbasbasbag48
(g64
g50
NtRp651
(dp652
g53
(dp653
sg62
g587
sg55
(lp654
g48
(g69
g50
NtRp655
(dp656
g53
(dp657
g73
g74
ssg62
g651
sg55
(lp658
g325
asbag48
(g69
g50
NtRp659
(dp660
g53
(dp661
g80
g81
ssg62
g651
sg55
(lp662
S':'
asbag48
(g69
g50
NtRp663
(dp664
g53
(dp665
sg62
g651
sg55
(lp666
g48
(g49
g50
NtRp667
(dp668
g53
(dp669
g61
I3
ssg62
g663
sg55
(lp670
S''
asbasbasbag48
(g64
g50
NtRp671
(dp672
g53
(dp673
sg62
g587
sg55
(lp674
g48
(g69
g50
NtRp675
(dp676
g53
(dp677
g73
g74
ssg62
g671
sg55
(lp678
g346
asbag48
(g69
g50
NtRp679
(dp680
g53
(dp681
g80
g81
ssg62
g671
sg55
(lp682
S':'
asbag48
(g69
g50
NtRp683
(dp684
g53
(dp685
sg62
g671
sg55
(lp686
g48
(g49
g50
NtRp687
(dp688
g53
(dp689
g61
I3
ssg62
g683
sg55
(lp690
S''
asbasbasbag48
(g64
g50
NtRp691
(dp692
g53
(dp693
sg62
g587
sg55
(lp694
g48
(g69
g50
NtRp695
(dp696
g53
(dp697
g73
g74
ssg62
g691
sg55
(lp698
g367
asbag48
(g69
g50
NtRp699
(dp700
g53
(dp701
g80
g81
ssg62
g691
sg55
(lp702
S':'
asbag48
(g69
g50
NtRp703
(dp704
g53
(dp705
sg62
g691
sg55
(lp706
g48
(g49
g50
NtRp707
(dp708
g53
(dp709
g61
I3
ssg62
g703
sg55
(lp710
S''
asbasbasbag48
(g64
g50
NtRp711
(dp712
g53
(dp713
sg62
g587
sg55
(lp714
g48
(g69
g50
NtRp715
(dp716
g53
(dp717
g73
g74
ssg62
g711
sg55
(lp718
g388
asbag48
(g69
g50
NtRp719
(dp720
g53
(dp721
g80
g81
ssg62
g711
sg55
(lp722
S':'
asbag48
(g69
g50
NtRp723
(dp724
g53
(dp725
sg62
g711
sg55
(lp726
g48
(g49
g50
NtRp727
(dp728
g53
(dp729
g61
I3
ssg62
g723
sg55
(lp730
S''
asbasbasbasbasbasbasbasbasbasbasbag48
(g64
g50
NtRp731
(dp732
g53
(dp733
sg62
g58
sg55
(lp734
g48
(g69
g50
NtRp735
(dp736
g53
(dp737
g73
g74
ssg62
g731
sg55
(lp738
S'env'
p739
asbag48
(g69
g50
NtRp740
(dp741
g53
(dp742
g80
g81
ssg62
g731
sg55
(lp743
S':'
asbag48
(g69
g50
NtRp744
(dp745
g53
(dp746
sg62
g731
sg55
(lp747
g48
(g49
g50
NtRp748
(dp749
g53
(dp750
g61
I5
ssg62
g744
sg55
(lp751
g48
(g57
g50
NtRp752
(dp753
g53
(dp754
g61
I4
ssg62
Nsg55
(lp755
g48
(g64
g50
NtRp756
(dp757
g53
(dp758
sg62
g752
sg55
(lp759
g48
(g69
g50
NtRp760
(dp761
g53
(dp762
g73
g74
ssg62
g756
sg55
(lp763
S'app_folders'
p764
asbag48
(g69
g50
NtRp765
(dp766
g53
(dp767
g80
g81
ssg62
g756
sg55
(lp768
S':'
asbag48
(g69
g50
NtRp769
(dp770
g53
(dp771
sg62
g756
sg55
(lp772
g48
(g49
g50
NtRp773
(dp774
g53
(dp775
g61
I4
ssg62
g769
sg55
(lp776
S"set(['C:\\\\Users\\\\Atomico\\\\web2py\\\\applications\\\\welcome\\\\', 'C:\\\\Users\\\\Atomico\\\\web2py\\\\applications\\\\examples\\\\', 'C:\\\\Users\\\\Atomico\\\\web2py\\\\applications\\\\Desglosar_Emails\\\\', 'C:\\\\Users\\\\Atomico\\\\web2py\\\\applications\\\\admin\\\\'])"
p777
asbasbasbag48
(g64
g50
NtRp778
(dp779
g53
(dp780
sg62
g752
sg55
(lp781
g48
(g69
g50
NtRp782
(dp783
g53
(dp784
g73
g74
ssg62
g778
sg55
(lp785
S'applications_parent'
p786
asbag48
(g69
g50
NtRp787
(dp788
g53
(dp789
g80
g81
ssg62
g778
sg55
(lp790
S':'
asbag48
(g69
g50
NtRp791
(dp792
g53
(dp793
sg62
g778
sg55
(lp794
g48
(g49
g50
NtRp795
(dp796
g53
(dp797
g61
I4
ssg62
g791
sg55
(lp798
S'C:\\Users\\Atomico\\web2py'
p799
asbasbasbag48
(g64
g50
NtRp800
(dp801
g53
(dp802
sg62
g752
sg55
(lp803
g48
(g69
g50
NtRp804
(dp805
g53
(dp806
g73
g74
ssg62
g800
sg55
(lp807
S'cmd_args'
p808
asbag48
(g69
g50
NtRp809
(dp810
g53
(dp811
g80
g81
ssg62
g800
sg55
(lp812
S':'
asbag48
(g69
g50
NtRp813
(dp814
g53
(dp815
sg62
g800
sg55
(lp816
g48
(g49
g50
NtRp817
(dp818
g53
(dp819
g61
I4
ssg62
g813
sg55
(lp820
g48
(g57
g50
NtRp821
(dp822
g53
(dp823
g61
I3
ssg62
Nsg55
(lp824
sbasbasbasbag48
(g64
g50
NtRp825
(dp826
g53
(dp827
sg62
g752
sg55
(lp828
g48
(g69
g50
NtRp829
(dp830
g53
(dp831
g73
g74
ssg62
g825
sg55
(lp832
S'cmd_options'
p833
asbag48
(g69
g50
NtRp834
(dp835
g53
(dp836
g80
g81
ssg62
g825
sg55
(lp837
S':'
asbag48
(g69
g50
NtRp838
(dp839
g53
(dp840
sg62
g825
sg55
(lp841
g48
(g49
g50
NtRp842
(dp843
g53
(dp844
g61
I4
ssg62
g838
sg55
(lp845
S"<Values at 0x30f55d0: {'verbose': False, 'ip': '127.0.0.1', 'shutdown_timeout': 5, 'taskbar': False, 'port': 8000, 'maxthreads': None, 'softcron': False, 'server_name': 'Swing', 'bpython': False, 'nogui': False, 'nocron': False, 'extcron': False, 'debuglevel': 30, 'test': None, 'folder': 'C:\\\\Users\\\\Atomico\\\\web2py', 'config': '', 'import_models': False, 'winservice': '', 'shell': None, 'run': '', 'log_filename': 'httpserver.log', 'args': [''], 'profiler_filename': None, 'ssl_private_key': '', 'password': '<ask>', 'request_queue_size': 5, 'ssl_certificate': '', 'cronjob': False, 'plain': False, 'quiet': False, 'interfaces': None, 'minthreads': None, 'timeout': 10, 'numthreads': None, 'nobanner': False, 'pid_filename': 'httpserver.pid'}>"
p846
asbasbasbag48
(g64
g50
NtRp847
(dp848
g53
(dp849
sg62
g752
sg55
(lp850
g48
(g69
g50
NtRp851
(dp852
g53
(dp853
g73
g74
ssg62
g847
sg55
(lp854
S'db_sessions'
p855
asbag48
(g69
g50
NtRp856
(dp857
g53
(dp858
g80
g81
ssg62
g847
sg55
(lp859
S':'
asbag48
(g69
g50
NtRp860
(dp861
g53
(dp862
sg62
g847
sg55
(lp863
g48
(g49
g50
NtRp864
(dp865
g53
(dp866
g61
I4
ssg62
g860
sg55
(lp867
S'set([])'
p868
asbasbasbag48
(g64
g50
NtRp869
(dp870
g53
(dp871
sg62
g752
sg55
(lp872
g48
(g69
g50
NtRp873
(dp874
g53
(dp875
g73
g74
ssg62
g869
sg55
(lp876
S'debugging'
p877
asbag48
(g69
g50
NtRp878
(dp879
g53
(dp880
g80
g81
ssg62
g869
sg55
(lp881
S':'
asbag48
(g69
g50
NtRp882
(dp883
g53
(dp884
sg62
g869
sg55
(lp885
g48
(g49
g50
NtRp886
(dp887
g53
(dp888
g61
I4
ssg62
g882
sg55
(lp889
g91
asbasbasbag48
(g64
g50
NtRp890
(dp891
g53
(dp892
sg62
g752
sg55
(lp893
g48
(g69
g50
NtRp894
(dp895
g53
(dp896
g73
g74
ssg62
g890
sg55
(lp897
S'gluon_parent'
p898
asbag48
(g69
g50
NtRp899
(dp900
g53
(dp901
g80
g81
ssg62
g890
sg55
(lp902
S':'
asbag48
(g69
g50
NtRp903
(dp904
g53
(dp905
sg62
g890
sg55
(lp906
g48
(g49
g50
NtRp907
(dp908
g53
(dp909
g61
I4
ssg62
g903
sg55
(lp910
S'C:\\Users\\Atomico\\web2py'
p911
asbasbasbag48
(g64
g50
NtRp912
(dp913
g53
(dp914
sg62
g752
sg55
(lp915
g48
(g69
g50
NtRp916
(dp917
g53
(dp918
g73
g74
ssg62
g912
sg55
(lp919
S'http_accept'
p920
asbag48
(g69
g50
NtRp921
(dp922
g53
(dp923
g80
g81
ssg62
g912
sg55
(lp924
S':'
asbag48
(g69
g50
NtRp925
(dp926
g53
(dp927
sg62
g912
sg55
(lp928
g48
(g49
g50
NtRp929
(dp930
g53
(dp931
g61
I4
ssg62
g925
sg55
(lp932
S'text/html,application/xhtml+xml,application/xml;q=0.9,*/*;q=0.8'
p933
asbasbasbag48
(g64
g50
NtRp934
(dp935
g53
(dp936
sg62
g752
sg55
(lp937
g48
(g69
g50
NtRp938
(dp939
g53
(dp940
g73
g74
ssg62
g934
sg55
(lp941
S'http_accept_charset'
p942
asbag48
(g69
g50
NtRp943
(dp944
g53
(dp945
g80
g81
ssg62
g934
sg55
(lp946
S':'
asbag48
(g69
g50
NtRp947
(dp948
g53
(dp949
sg62
g934
sg55
(lp950
g48
(g49
g50
NtRp951
(dp952
g53
(dp953
g61
I4
ssg62
g947
sg55
(lp954
S'ISO-8859-1,utf-8;q=0.7,*;q=0.7'
p955
asbasbasbag48
(g64
g50
NtRp956
(dp957
g53
(dp958
sg62
g752
sg55
(lp959
g48
(g69
g50
NtRp960
(dp961
g53
(dp962
g73
g74
ssg62
g956
sg55
(lp963
S'http_accept_encoding'
p964
asbag48
(g69
g50
NtRp965
(dp966
g53
(dp967
g80
g81
ssg62
g956
sg55
(lp968
S':'
asbag48
(g69
g50
NtRp969
(dp970
g53
(dp971
sg62
g956
sg55
(lp972
g48
(g49
g50
NtRp973
(dp974
g53
(dp975
g61
I4
ssg62
g969
sg55
(lp976
S'gzip, deflate'
p977
asbasbasbag48
(g64
g50
NtRp978
(dp979
g53
(dp980
sg62
g752
sg55
(lp981
g48
(g69
g50
NtRp982
(dp983
g53
(dp984
g73
g74
ssg62
g978
sg55
(lp985
S'http_accept_language'
p986
asbag48
(g69
g50
NtRp987
(dp988
g53
(dp989
g80
g81
ssg62
g978
sg55
(lp990
S':'
asbag48
(g69
g50
NtRp991
(dp992
g53
(dp993
sg62
g978
sg55
(lp994
g48
(g49
g50
NtRp995
(dp996
g53
(dp997
g61
I4
ssg62
g991
sg55
(lp998
S'es-es,es;q=0.8,en-us;q=0.5,en;q=0.3'
p999
asbasbasbag48
(g64
g50
NtRp1000
(dp1001
g53
(dp1002
sg62
g752
sg55
(lp1003
g48
(g69
g50
NtRp1004
(dp1005
g53
(dp1006
g73
g74
ssg62
g1000
sg55
(lp1007
S'http_connection'
p1008
asbag48
(g69
g50
NtRp1009
(dp1010
g53
(dp1011
g80
g81
ssg62
g1000
sg55
(lp1012
S':'
asbag48
(g69
g50
NtRp1013
(dp1014
g53
(dp1015
sg62
g1000
sg55
(lp1016
g48
(g49
g50
NtRp1017
(dp1018
g53
(dp1019
g61
I4
ssg62
g1013
sg55
(lp1020
S'keep-alive'
p1021
asbasbasbag48
(g64
g50
NtRp1022
(dp1023
g53
(dp1024
sg62
g752
sg55
(lp1025
g48
(g69
g50
NtRp1026
(dp1027
g53
(dp1028
g73
g74
ssg62
g1022
sg55
(lp1029
S'http_cookie'
p1030
asbag48
(g69
g50
NtRp1031
(dp1032
g53
(dp1033
g80
g81
ssg62
g1022
sg55
(lp1034
S':'
asbag48
(g69
g50
NtRp1035
(dp1036
g53
(dp1037
sg62
g1022
sg55
(lp1038
g48
(g49
g50
NtRp1039
(dp1040
g53
(dp1041
g61
I4
ssg62
g1035
sg55
(lp1042
S'session_id_welcome=127.0.0.1-376eb8b3-82de-4ca4-962a-cf914386adb5; session_id_admin=127.0.0.1-ab41072a-78d8-41d9-b0f6-43c9e78f0c91; session_id_desglosar_emails=127.0.0.1-78cf8050-df87-4502-afb9-ed0c3843b414'
p1043
asbasbasbag48
(g64
g50
NtRp1044
(dp1045
g53
(dp1046
sg62
g752
sg55
(lp1047
g48
(g69
g50
NtRp1048
(dp1049
g53
(dp1050
g73
g74
ssg62
g1044
sg55
(lp1051
S'http_host'
p1052
asbag48
(g69
g50
NtRp1053
(dp1054
g53
(dp1055
g80
g81
ssg62
g1044
sg55
(lp1056
S':'
asbag48
(g69
g50
NtRp1057
(dp1058
g53
(dp1059
sg62
g1044
sg55
(lp1060
g48
(g49
g50
NtRp1061
(dp1062
g53
(dp1063
g61
I4
ssg62
g1057
sg55
(lp1064
S'127.0.0.1:8000'
p1065
asbasbasbag48
(g64
g50
NtRp1066
(dp1067
g53
(dp1068
sg62
g752
sg55
(lp1069
g48
(g69
g50
NtRp1070
(dp1071
g53
(dp1072
g73
g74
ssg62
g1066
sg55
(lp1073
S'http_referer'
p1074
asbag48
(g69
g50
NtRp1075
(dp1076
g53
(dp1077
g80
g81
ssg62
g1066
sg55
(lp1078
S':'
asbag48
(g69
g50
NtRp1079
(dp1080
g53
(dp1081
sg62
g1066
sg55
(lp1082
g48
(g49
g50
NtRp1083
(dp1084
g53
(dp1085
g61
I4
ssg62
g1079
sg55
(lp1086
S'http://127.0.0.1:8000/admin/default/design/Desglosar_Emails'
p1087
asbasbasbag48
(g64
g50
NtRp1088
(dp1089
g53
(dp1090
sg62
g752
sg55
(lp1091
g48
(g69
g50
NtRp1092
(dp1093
g53
(dp1094
g73
g74
ssg62
g1088
sg55
(lp1095
S'http_user_agent'
p1096
asbag48
(g69
g50
NtRp1097
(dp1098
g53
(dp1099
g80
g81
ssg62
g1088
sg55
(lp1100
S':'
asbag48
(g69
g50
NtRp1101
(dp1102
g53
(dp1103
sg62
g1088
sg55
(lp1104
g48
(g49
g50
NtRp1105
(dp1106
g53
(dp1107
g61
I4
ssg62
g1101
sg55
(lp1108
S'Mozilla/5.0 (Windows NT 6.1; WOW64; rv:6.0.2) Gecko/20100101 Firefox/6.0.2'
p1109
asbasbasbag48
(g64
g50
NtRp1110
(dp1111
g53
(dp1112
sg62
g752
sg55
(lp1113
g48
(g69
g50
NtRp1114
(dp1115
g53
(dp1116
g73
g74
ssg62
g1110
sg55
(lp1117
S'is_jython'
p1118
asbag48
(g69
g50
NtRp1119
(dp1120
g53
(dp1121
g80
g81
ssg62
g1110
sg55
(lp1122
S':'
asbag48
(g69
g50
NtRp1123
(dp1124
g53
(dp1125
sg62
g1110
sg55
(lp1126
g48
(g49
g50
NtRp1127
(dp1128
g53
(dp1129
g61
I4
ssg62
g1123
sg55
(lp1130
g91
asbasbasbag48
(g64
g50
NtRp1131
(dp1132
g53
(dp1133
sg62
g752
sg55
(lp1134
g48
(g69
g50
NtRp1135
(dp1136
g53
(dp1137
g73
g74
ssg62
g1131
sg55
(lp1138
S'path_info'
p1139
asbag48
(g69
g50
NtRp1140
(dp1141
g53
(dp1142
g80
g81
ssg62
g1131
sg55
(lp1143
S':'
asbag48
(g69
g50
NtRp1144
(dp1145
g53
(dp1146
sg62
g1131
sg55
(lp1147
g48
(g49
g50
NtRp1148
(dp1149
g53
(dp1150
g61
I4
ssg62
g1144
sg55
(lp1151
S'/Desglosar_Emails/default/borrardb'
p1152
asbasbasbag48
(g64
g50
NtRp1153
(dp1154
g53
(dp1155
sg62
g752
sg55
(lp1156
g48
(g69
g50
NtRp1157
(dp1158
g53
(dp1159
g73
g74
ssg62
g1153
sg55
(lp1160
S'query_string'
p1161
asbag48
(g69
g50
NtRp1162
(dp1163
g53
(dp1164
g80
g81
ssg62
g1153
sg55
(lp1165
S':'
asbag48
(g69
g50
NtRp1166
(dp1167
g53
(dp1168
sg62
g1153
sg55
(lp1169
g48
(g49
g50
NtRp1170
(dp1171
g53
(dp1172
g61
I4
ssg62
g1166
sg55
(lp1173
S''
asbasbasbag48
(g64
g50
NtRp1174
(dp1175
g53
(dp1176
sg62
g752
sg55
(lp1177
g48
(g69
g50
NtRp1178
(dp1179
g53
(dp1180
g73
g74
ssg62
g1174
sg55
(lp1181
S'remote_addr'
p1182
asbag48
(g69
g50
NtRp1183
(dp1184
g53
(dp1185
g80
g81
ssg62
g1174
sg55
(lp1186
S':'
asbag48
(g69
g50
NtRp1187
(dp1188
g53
(dp1189
sg62
g1174
sg55
(lp1190
g48
(g49
g50
NtRp1191
(dp1192
g53
(dp1193
g61
I4
ssg62
g1187
sg55
(lp1194
g181
asbasbasbag48
(g64
g50
NtRp1195
(dp1196
g53
(dp1197
sg62
g752
sg55
(lp1198
g48
(g69
g50
NtRp1199
(dp1200
g53
(dp1201
g73
g74
ssg62
g1195
sg55
(lp1202
S'remote_port'
p1203
asbag48
(g69
g50
NtRp1204
(dp1205
g53
(dp1206
g80
g81
ssg62
g1195
sg55
(lp1207
S':'
asbag48
(g69
g50
NtRp1208
(dp1209
g53
(dp1210
sg62
g1195
sg55
(lp1211
g48
(g49
g50
NtRp1212
(dp1213
g53
(dp1214
g61
I4
ssg62
g1208
sg55
(lp1215
S'55924'
p1216
asbasbasbag48
(g64
g50
NtRp1217
(dp1218
g53
(dp1219
sg62
g752
sg55
(lp1220
g48
(g69
g50
NtRp1221
(dp1222
g53
(dp1223
g73
g74
ssg62
g1217
sg55
(lp1224
S'request_method'
p1225
asbag48
(g69
g50
NtRp1226
(dp1227
g53
(dp1228
g80
g81
ssg62
g1217
sg55
(lp1229
S':'
asbag48
(g69
g50
NtRp1230
(dp1231
g53
(dp1232
sg62
g1217
sg55
(lp1233
g48
(g49
g50
NtRp1234
(dp1235
g53
(dp1236
g61
I4
ssg62
g1230
sg55
(lp1237
S'GET'
p1238
asbasbasbag48
(g64
g50
NtRp1239
(dp1240
g53
(dp1241
sg62
g752
sg55
(lp1242
g48
(g69
g50
NtRp1243
(dp1244
g53
(dp1245
g73
g74
ssg62
g1239
sg55
(lp1246
S'script_name'
p1247
asbag48
(g69
g50
NtRp1248
(dp1249
g53
(dp1250
g80
g81
ssg62
g1239
sg55
(lp1251
S':'
asbag48
(g69
g50
NtRp1252
(dp1253
g53
(dp1254
sg62
g1239
sg55
(lp1255
g48
(g49
g50
NtRp1256
(dp1257
g53
(dp1258
g61
I4
ssg62
g1252
sg55
(lp1259
S''
asbasbasbag48
(g64
g50
NtRp1260
(dp1261
g53
(dp1262
sg62
g752
sg55
(lp1263
g48
(g69
g50
NtRp1264
(dp1265
g53
(dp1266
g73
g74
ssg62
g1260
sg55
(lp1267
S'server_name'
p1268
asbag48
(g69
g50
NtRp1269
(dp1270
g53
(dp1271
g80
g81
ssg62
g1260
sg55
(lp1272
S':'
asbag48
(g69
g50
NtRp1273
(dp1274
g53
(dp1275
sg62
g1260
sg55
(lp1276
g48
(g49
g50
NtRp1277
(dp1278
g53
(dp1279
g61
I4
ssg62
g1273
sg55
(lp1280
S'Swing'
p1281
asbasbasbag48
(g64
g50
NtRp1282
(dp1283
g53
(dp1284
sg62
g752
sg55
(lp1285
g48
(g69
g50
NtRp1286
(dp1287
g53
(dp1288
g73
g74
ssg62
g1282
sg55
(lp1289
S'server_port'
p1290
asbag48
(g69
g50
NtRp1291
(dp1292
g53
(dp1293
g80
g81
ssg62
g1282
sg55
(lp1294
S':'
asbag48
(g69
g50
NtRp1295
(dp1296
g53
(dp1297
sg62
g1282
sg55
(lp1298
g48
(g49
g50
NtRp1299
(dp1300
g53
(dp1301
g61
I4
ssg62
g1295
sg55
(lp1302
S'8000'
p1303
asbasbasbag48
(g64
g50
NtRp1304
(dp1305
g53
(dp1306
sg62
g752
sg55
(lp1307
g48
(g69
g50
NtRp1308
(dp1309
g53
(dp1310
g73
g74
ssg62
g1304
sg55
(lp1311
S'server_protocol'
p1312
asbag48
(g69
g50
NtRp1313
(dp1314
g53
(dp1315
g80
g81
ssg62
g1304
sg55
(lp1316
S':'
asbag48
(g69
g50
NtRp1317
(dp1318
g53
(dp1319
sg62
g1304
sg55
(lp1320
g48
(g49
g50
NtRp1321
(dp1322
g53
(dp1323
g61
I4
ssg62
g1317
sg55
(lp1324
S'HTTP/1.1'
p1325
asbasbasbag48
(g64
g50
NtRp1326
(dp1327
g53
(dp1328
sg62
g752
sg55
(lp1329
g48
(g69
g50
NtRp1330
(dp1331
g53
(dp1332
g73
g74
ssg62
g1326
sg55
(lp1333
S'server_software'
p1334
asbag48
(g69
g50
NtRp1335
(dp1336
g53
(dp1337
g80
g81
ssg62
g1326
sg55
(lp1338
S':'
asbag48
(g69
g50
NtRp1339
(dp1340
g53
(dp1341
sg62
g1326
sg55
(lp1342
g48
(g49
g50
NtRp1343
(dp1344
g53
(dp1345
g61
I4
ssg62
g1339
sg55
(lp1346
S'Rocket 1.2.2'
p1347
asbasbasbag48
(g64
g50
NtRp1348
(dp1349
g53
(dp1350
sg62
g752
sg55
(lp1351
g48
(g69
g50
NtRp1352
(dp1353
g53
(dp1354
g73
g74
ssg62
g1348
sg55
(lp1355
S'web2py_crontype'
p1356
asbag48
(g69
g50
NtRp1357
(dp1358
g53
(dp1359
g80
g81
ssg62
g1348
sg55
(lp1360
S':'
asbag48
(g69
g50
NtRp1361
(dp1362
g53
(dp1363
sg62
g1348
sg55
(lp1364
g48
(g49
g50
NtRp1365
(dp1366
g53
(dp1367
g61
I4
ssg62
g1361
sg55
(lp1368
S'hard'
p1369
asbasbasbag48
(g64
g50
NtRp1370
(dp1371
g53
(dp1372
sg62
g752
sg55
(lp1373
g48
(g69
g50
NtRp1374
(dp1375
g53
(dp1376
g73
g74
ssg62
g1370
sg55
(lp1377
S'web2py_path'
p1378
asbag48
(g69
g50
NtRp1379
(dp1380
g53
(dp1381
g80
g81
ssg62
g1370
sg55
(lp1382
S':'
asbag48
(g69
g50
NtRp1383
(dp1384
g53
(dp1385
sg62
g1370
sg55
(lp1386
g48
(g49
g50
NtRp1387
(dp1388
g53
(dp1389
g61
I4
ssg62
g1383
sg55
(lp1390
g799
asbasbasbag48
(g64
g50
NtRp1391
(dp1392
g53
(dp1393
sg62
g752
sg55
(lp1394
g48
(g69
g50
NtRp1395
(dp1396
g53
(dp1397
g73
g74
ssg62
g1391
sg55
(lp1398
S'web2py_version'
p1399
asbag48
(g69
g50
NtRp1400
(dp1401
g53
(dp1402
g80
g81
ssg62
g1391
sg55
(lp1403
S':'
asbag48
(g69
g50
NtRp1404
(dp1405
g53
(dp1406
sg62
g1391
sg55
(lp1407
g48
(g49
g50
NtRp1408
(dp1409
g53
(dp1410
g61
I4
ssg62
g1404
sg55
(lp1411
S'Version 1.98.2 (2011-08-04 00:47:09)\n'
p1412
asbasbasbag48
(g64
g50
NtRp1413
(dp1414
g53
(dp1415
sg62
g752
sg55
(lp1416
g48
(g69
g50
NtRp1417
(dp1418
g53
(dp1419
g73
g74
ssg62
g1413
sg55
(lp1420
S'wsgi_errors'
p1421
asbag48
(g69
g50
NtRp1422
(dp1423
g53
(dp1424
g80
g81
ssg62
g1413
sg55
(lp1425
S':'
asbag48
(g69
g50
NtRp1426
(dp1427
g53
(dp1428
sg62
g1413
sg55
(lp1429
g48
(g49
g50
NtRp1430
(dp1431
g53
(dp1432
g61
I4
ssg62
g1426
sg55
(lp1433
S"<open file '<stderr>', mode 'w' at 0x01F200B0>"
p1434
asbasbasbag48
(g64
g50
NtRp1435
(dp1436
g53
(dp1437
sg62
g752
sg55
(lp1438
g48
(g69
g50
NtRp1439
(dp1440
g53
(dp1441
g73
g74
ssg62
g1435
sg55
(lp1442
S'wsgi_file_wrapper'
p1443
asbag48
(g69
g50
NtRp1444
(dp1445
g53
(dp1446
g80
g81
ssg62
g1435
sg55
(lp1447
S':'
asbag48
(g69
g50
NtRp1448
(dp1449
g53
(dp1450
sg62
g1435
sg55
(lp1451
g48
(g49
g50
NtRp1452
(dp1453
g53
(dp1454
g61
I4
ssg62
g1448
sg55
(lp1455
S'<class gluon.rocket.FileWrapper at 0x0307F1B0>'
p1456
asbasbasbag48
(g64
g50
NtRp1457
(dp1458
g53
(dp1459
sg62
g752
sg55
(lp1460
g48
(g69
g50
NtRp1461
(dp1462
g53
(dp1463
g73
g74
ssg62
g1457
sg55
(lp1464
S'wsgi_input'
p1465
asbag48
(g69
g50
NtRp1466
(dp1467
g53
(dp1468
g80
g81
ssg62
g1457
sg55
(lp1469
S':'
asbag48
(g69
g50
NtRp1470
(dp1471
g53
(dp1472
sg62
g1457
sg55
(lp1473
g48
(g49
g50
NtRp1474
(dp1475
g53
(dp1476
g61
I4
ssg62
g1470
sg55
(lp1477
S'<socket._fileobject object at 0x03303470>'
p1478
asbasbasbag48
(g64
g50
NtRp1479
(dp1480
g53
(dp1481
sg62
g752
sg55
(lp1482
g48
(g69
g50
NtRp1483
(dp1484
g53
(dp1485
g73
g74
ssg62
g1479
sg55
(lp1486
S'wsgi_multiprocess'
p1487
asbag48
(g69
g50
NtRp1488
(dp1489
g53
(dp1490
g80
g81
ssg62
g1479
sg55
(lp1491
S':'
asbag48
(g69
g50
NtRp1492
(dp1493
g53
(dp1494
sg62
g1479
sg55
(lp1495
g48
(g49
g50
NtRp1496
(dp1497
g53
(dp1498
g61
I4
ssg62
g1492
sg55
(lp1499
g91
asbasbasbag48
(g64
g50
NtRp1500
(dp1501
g53
(dp1502
sg62
g752
sg55
(lp1503
g48
(g69
g50
NtRp1504
(dp1505
g53
(dp1506
g73
g74
ssg62
g1500
sg55
(lp1507
S'wsgi_multithread'
p1508
asbag48
(g69
g50
NtRp1509
(dp1510
g53
(dp1511
g80
g81
ssg62
g1500
sg55
(lp1512
S':'
asbag48
(g69
g50
NtRp1513
(dp1514
g53
(dp1515
sg62
g1500
sg55
(lp1516
g48
(g49
g50
NtRp1517
(dp1518
g53
(dp1519
g61
I4
ssg62
g1513
sg55
(lp1520
S'True'
p1521
asbasbasbag48
(g64
g50
NtRp1522
(dp1523
g53
(dp1524
sg62
g752
sg55
(lp1525
g48
(g69
g50
NtRp1526
(dp1527
g53
(dp1528
g73
g74
ssg62
g1522
sg55
(lp1529
S'wsgi_run_once'
p1530
asbag48
(g69
g50
NtRp1531
(dp1532
g53
(dp1533
g80
g81
ssg62
g1522
sg55
(lp1534
S':'
asbag48
(g69
g50
NtRp1535
(dp1536
g53
(dp1537
sg62
g1522
sg55
(lp1538
g48
(g49
g50
NtRp1539
(dp1540
g53
(dp1541
g61
I4
ssg62
g1535
sg55
(lp1542
g91
asbasbasbag48
(g64
g50
NtRp1543
(dp1544
g53
(dp1545
sg62
g752
sg55
(lp1546
g48
(g69
g50
NtRp1547
(dp1548
g53
(dp1549
g73
g74
ssg62
g1543
sg55
(lp1550
S'wsgi_url_scheme'
p1551
asbag48
(g69
g50
NtRp1552
(dp1553
g53
(dp1554
g80
g81
ssg62
g1543
sg55
(lp1555
S':'
asbag48
(g69
g50
NtRp1556
(dp1557
g53
(dp1558
sg62
g1543
sg55
(lp1559
g48
(g49
g50
NtRp1560
(dp1561
g53
(dp1562
g61
I4
ssg62
g1556
sg55
(lp1563
S'http'
p1564
asbasbasbag48
(g64
g50
NtRp1565
(dp1566
g53
(dp1567
sg62
g752
sg55
(lp1568
g48
(g69
g50
NtRp1569
(dp1570
g53
(dp1571
g73
g74
ssg62
g1565
sg55
(lp1572
S'wsgi_version'
p1573
asbag48
(g69
g50
NtRp1574
(dp1575
g53
(dp1576
g80
g81
ssg62
g1565
sg55
(lp1577
S':'
asbag48
(g69
g50
NtRp1578
(dp1579
g53
(dp1580
sg62
g1565
sg55
(lp1581
g48
(g49
g50
NtRp1582
(dp1583
g53
(dp1584
g61
I4
ssg62
g1578
sg55
(lp1585
g48
(g57
g50
NtRp1586
(dp1587
g53
(dp1588
g61
I3
ssg62
Nsg55
(lp1589
g48
(g64
g50
NtRp1590
(dp1591
g53
(dp1592
sg62
g1586
sg55
(lp1593
g48
(g69
g50
NtRp1594
(dp1595
g53
(dp1596
sg62
g1590
sg55
(lp1597
g48
(g49
g50
NtRp1598
(dp1599
g53
(dp1600
g61
I3
ssg62
g1594
sg55
(lp1601
S'1'
asbasbasbag48
(g64
g50
NtRp1602
(dp1603
g53
(dp1604
sg62
g1586
sg55
(lp1605
g48
(g69
g50
NtRp1606
(dp1607
g53
(dp1608
sg62
g1602
sg55
(lp1609
g48
(g49
g50
NtRp1610
(dp1611
g53
(dp1612
g61
I3
ssg62
g1606
sg55
(lp1613
S'0'
asbasbasbasbasbasbasbasbasbasbasbag48
(g64
g50
NtRp1614
(dp1615
g53
(dp1616
sg62
g58
sg55
(lp1617
g48
(g69
g50
NtRp1618
(dp1619
g53
(dp1620
g73
g74
ssg62
g1614
sg55
(lp1621
S'extension'
p1622
asbag48
(g69
g50
NtRp1623
(dp1624
g53
(dp1625
g80
g81
ssg62
g1614
sg55
(lp1626
S':'
asbag48
(g69
g50
NtRp1627
(dp1628
g53
(dp1629
sg62
g1614
sg55
(lp1630
g48
(g49
g50
NtRp1631
(dp1632
g53
(dp1633
g61
I5
ssg62
g1627
sg55
(lp1634
S'html'
p1635
asbasbasbag48
(g64
g50
NtRp1636
(dp1637
g53
(dp1638
sg62
g58
sg55
(lp1639
g48
(g69
g50
NtRp1640
(dp1641
g53
(dp1642
g73
g74
ssg62
g1636
sg55
(lp1643
S'folder'
p1644
asbag48
(g69
g50
NtRp1645
(dp1646
g53
(dp1647
g80
g81
ssg62
g1636
sg55
(lp1648
S':'
asbag48
(g69
g50
NtRp1649
(dp1650
g53
(dp1651
sg62
g1636
sg55
(lp1652
g48
(g49
g50
NtRp1653
(dp1654
g53
(dp1655
g61
I5
ssg62
g1649
sg55
(lp1656
S'C:\\Users\\Atomico\\web2py\\applications\\Desglosar_Emails\\'
p1657
asbasbasbag48
(g64
g50
NtRp1658
(dp1659
g53
(dp1660
sg62
g58
sg55
(lp1661
g48
(g69
g50
NtRp1662
(dp1663
g53
(dp1664
g73
g74
ssg62
g1658
sg55
(lp1665
S'function'
p1666
asbag48
(g69
g50
NtRp1667
(dp1668
g53
(dp1669
g80
g81
ssg62
g1658
sg55
(lp1670
S':'
asbag48
(g69
g50
NtRp1671
(dp1672
g53
(dp1673
sg62
g1658
sg55
(lp1674
g48
(g49
g50
NtRp1675
(dp1676
g53
(dp1677
g61
I5
ssg62
g1671
sg55
(lp1678
S'borrardb'
p1679
asbasbasbag48
(g64
g50
NtRp1680
(dp1681
g53
(dp1682
sg62
g58
sg55
(lp1683
g48
(g69
g50
NtRp1684
(dp1685
g53
(dp1686
g73
g74
ssg62
g1680
sg55
(lp1687
S'get_vars'
p1688
asbag48
(g69
g50
NtRp1689
(dp1690
g53
(dp1691
g80
g81
ssg62
g1680
sg55
(lp1692
S':'
asbag48
(g69
g50
NtRp1693
(dp1694
g53
(dp1695
sg62
g1680
sg55
(lp1696
g48
(g49
g50
NtRp1697
(dp1698
g53
(dp1699
g61
I5
ssg62
g1693
sg55
(lp1700
g48
(g57
g50
NtRp1701
(dp1702
g53
(dp1703
g61
I4
ssg62
Nsg55
(lp1704
sbasbasbasbag48
(g64
g50
NtRp1705
(dp1706
g53
(dp1707
sg62
g58
sg55
(lp1708
g48
(g69
g50
NtRp1709
(dp1710
g53
(dp1711
g73
g74
ssg62
g1705
sg55
(lp1712
S'is_https'
p1713
asbag48
(g69
g50
NtRp1714
(dp1715
g53
(dp1716
g80
g81
ssg62
g1705
sg55
(lp1717
S':'
asbag48
(g69
g50
NtRp1718
(dp1719
g53
(dp1720
sg62
g1705
sg55
(lp1721
g48
(g49
g50
NtRp1722
(dp1723
g53
(dp1724
g61
I5
ssg62
g1718
sg55
(lp1725
g91
asbasbasbag48
(g64
g50
NtRp1726
(dp1727
g53
(dp1728
sg62
g58
sg55
(lp1729
g48
(g69
g50
NtRp1730
(dp1731
g53
(dp1732
g73
g74
ssg62
g1726
sg55
(lp1733
S'is_local'
p1734
asbag48
(g69
g50
NtRp1735
(dp1736
g53
(dp1737
g80
g81
ssg62
g1726
sg55
(lp1738
S':'
asbag48
(g69
g50
NtRp1739
(dp1740
g53
(dp1741
sg62
g1726
sg55
(lp1742
g48
(g49
g50
NtRp1743
(dp1744
g53
(dp1745
g61
I5
ssg62
g1739
sg55
(lp1746
g1521
asbasbasbag48
(g64
g50
NtRp1747
(dp1748
g53
(dp1749
sg62
g58
sg55
(lp1750
g48
(g69
g50
NtRp1751
(dp1752
g53
(dp1753
g73
g74
ssg62
g1747
sg55
(lp1754
S'is_restful'
p1755
asbag48
(g69
g50
NtRp1756
(dp1757
g53
(dp1758
g80
g81
ssg62
g1747
sg55
(lp1759
S':'
asbag48
(g69
g50
NtRp1760
(dp1761
g53
(dp1762
sg62
g1747
sg55
(lp1763
g48
(g49
g50
NtRp1764
(dp1765
g53
(dp1766
g61
I5
ssg62
g1760
sg55
(lp1767
g91
asbasbasbag48
(g64
g50
NtRp1768
(dp1769
g53
(dp1770
sg62
g58
sg55
(lp1771
g48
(g69
g50
NtRp1772
(dp1773
g53
(dp1774
g73
g74
ssg62
g1768
sg55
(lp1775
S'now'
p1776
asbag48
(g69
g50
NtRp1777
(dp1778
g53
(dp1779
g80
g81
ssg62
g1768
sg55
(lp1780
S':'
asbag48
(g69
g50
NtRp1781
(dp1782
g53
(dp1783
sg62
g1768
sg55
(lp1784
g48
(g49
g50
NtRp1785
(dp1786
g53
(dp1787
g61
I5
ssg62
g1781
sg55
(lp1788
S'datetime.datetime(2011, 9, 20, 10, 14, 7, 273000)'
p1789
asbasbasbag48
(g64
g50
NtRp1790
(dp1791
g53
(dp1792
sg62
g58
sg55
(lp1793
g48
(g69
g50
NtRp1794
(dp1795
g53
(dp1796
g73
g74
ssg62
g1790
sg55
(lp1797
S'post_vars'
p1798
asbag48
(g69
g50
NtRp1799
(dp1800
g53
(dp1801
g80
g81
ssg62
g1790
sg55
(lp1802
S':'
asbag48
(g69
g50
NtRp1803
(dp1804
g53
(dp1805
sg62
g1790
sg55
(lp1806
g48
(g49
g50
NtRp1807
(dp1808
g53
(dp1809
g61
I5
ssg62
g1803
sg55
(lp1810
g48
(g57
g50
NtRp1811
(dp1812
g53
(dp1813
g61
I4
ssg62
Nsg55
(lp1814
sbasbasbasbag48
(g64
g50
NtRp1815
(dp1816
g53
(dp1817
sg62
g58
sg55
(lp1818
g48
(g69
g50
NtRp1819
(dp1820
g53
(dp1821
g73
g74
ssg62
g1815
sg55
(lp1822
S'url'
p1823
asbag48
(g69
g50
NtRp1824
(dp1825
g53
(dp1826
g80
g81
ssg62
g1815
sg55
(lp1827
S':'
asbag48
(g69
g50
NtRp1828
(dp1829
g53
(dp1830
sg62
g1815
sg55
(lp1831
g48
(g49
g50
NtRp1832
(dp1833
g53
(dp1834
g61
I5
ssg62
g1828
sg55
(lp1835
S'/Desglosar_Emails/default/borrardb'
p1836
asbasbasbag48
(g64
g50
NtRp1837
(dp1838
g53
(dp1839
sg62
g58
sg55
(lp1840
g48
(g69
g50
NtRp1841
(dp1842
g53
(dp1843
g73
g74
ssg62
g1837
sg55
(lp1844
S'uuid'
p1845
asbag48
(g69
g50
NtRp1846
(dp1847
g53
(dp1848
g80
g81
ssg62
g1837
sg55
(lp1849
S':'
asbag48
(g69
g50
NtRp1850
(dp1851
g53
(dp1852
sg62
g1837
sg55
(lp1853
g48
(g49
g50
NtRp1854
(dp1855
g53
(dp1856
g61
I5
ssg62
g1850
sg55
(lp1857
S'Desglosar_Emails/127.0.0.1.2011-09-20.10-14-07.8edc9400-8745-4589-a94f-cf4dbee193fd'
p1858
asbasbasbag48
(g64
g50
NtRp1859
(dp1860
g53
(dp1861
sg62
g58
sg55
(lp1862
g48
(g69
g50
NtRp1863
(dp1864
g53
(dp1865
g73
g74
ssg62
g1859
sg55
(lp1866
S'vars'
p1867
asbag48
(g69
g50
NtRp1868
(dp1869
g53
(dp1870
g80
g81
ssg62
g1859
sg55
(lp1871
S':'
asbag48
(g69
g50
NtRp1872
(dp1873
g53
(dp1874
sg62
g1859
sg55
(lp1875
g48
(g49
g50
NtRp1876
(dp1877
g53
(dp1878
g61
I5
ssg62
g1872
sg55
(lp1879
g48
(g57
g50
NtRp1880
(dp1881
g53
(dp1882
g61
I4
ssg62
Nsg55
(lp1883
sbasbasbasbag48
(g64
g50
NtRp1884
(dp1885
g53
(dp1886
sg62
g58
sg55
(lp1887
g48
(g69
g50
NtRp1888
(dp1889
g53
(dp1890
g73
g74
ssg62
g1884
sg55
(lp1891
S'wsgi'
p1892
asbag48
(g69
g50
NtRp1893
(dp1894
g53
(dp1895
g80
g81
ssg62
g1884
sg55
(lp1896
S':'
asbag48
(g69
g50
NtRp1897
(dp1898
g53
(dp1899
sg62
g1884
sg55
(lp1900
g48
(g49
g50
NtRp1901
(dp1902
g53
(dp1903
g61
I5
ssg62
g1897
sg55
(lp1904
g48
(g57
g50
NtRp1905
(dp1906
g53
(dp1907
g61
I4
ssg62
Nsg55
(lp1908
g48
(g64
g50
NtRp1909
(dp1910
g53
(dp1911
sg62
g1905
sg55
(lp1912
g48
(g69
g50
NtRp1913
(dp1914
g53
(dp1915
g73
g74
ssg62
g1909
sg55
(lp1916
S'environ'
p1917
asbag48
(g69
g50
NtRp1918
(dp1919
g53
(dp1920
g80
g81
ssg62
g1909
sg55
(lp1921
S':'
asbag48
(g69
g50
NtRp1922
(dp1923
g53
(dp1924
sg62
g1909
sg55
(lp1925
g48
(g49
g50
NtRp1926
(dp1927
g53
(dp1928
g61
I4
ssg62
g1922
sg55
(lp1929
g48
(g57
g50
NtRp1930
(dp1931
g53
(dp1932
g61
I3
ssg62
Nsg55
(lp1933
g48
(g64
g50
NtRp1934
(dp1935
g53
(dp1936
sg62
g1930
sg55
(lp1937
g48
(g69
g50
NtRp1938
(dp1939
g53
(dp1940
g73
g74
ssg62
g1934
sg55
(lp1941
S'HTTP_ACCEPT'
p1942
asbag48
(g69
g50
NtRp1943
(dp1944
g53
(dp1945
g80
g81
ssg62
g1934
sg55
(lp1946
S':'
asbag48
(g69
g50
NtRp1947
(dp1948
g53
(dp1949
sg62
g1934
sg55
(lp1950
g48
(g49
g50
NtRp1951
(dp1952
g53
(dp1953
g61
I3
ssg62
g1947
sg55
(lp1954
g933
asbasbasbag48
(g64
g50
NtRp1955
(dp1956
g53
(dp1957
sg62
g1930
sg55
(lp1958
g48
(g69
g50
NtRp1959
(dp1960
g53
(dp1961
g73
g74
ssg62
g1955
sg55
(lp1962
S'HTTP_ACCEPT_CHARSET'
p1963
asbag48
(g69
g50
NtRp1964
(dp1965
g53
(dp1966
g80
g81
ssg62
g1955
sg55
(lp1967
S':'
asbag48
(g69
g50
NtRp1968
(dp1969
g53
(dp1970
sg62
g1955
sg55
(lp1971
g48
(g49
g50
NtRp1972
(dp1973
g53
(dp1974
g61
I3
ssg62
g1968
sg55
(lp1975
g955
asbasbasbag48
(g64
g50
NtRp1976
(dp1977
g53
(dp1978
sg62
g1930
sg55
(lp1979
g48
(g69
g50
NtRp1980
(dp1981
g53
(dp1982
g73
g74
ssg62
g1976
sg55
(lp1983
S'HTTP_ACCEPT_ENCODING'
p1984
asbag48
(g69
g50
NtRp1985
(dp1986
g53
(dp1987
g80
g81
ssg62
g1976
sg55
(lp1988
S':'
asbag48
(g69
g50
NtRp1989
(dp1990
g53
(dp1991
sg62
g1976
sg55
(lp1992
g48
(g49
g50
NtRp1993
(dp1994
g53
(dp1995
g61
I3
ssg62
g1989
sg55
(lp1996
g977
asbasbasbag48
(g64
g50
NtRp1997
(dp1998
g53
(dp1999
sg62
g1930
sg55
(lp2000
g48
(g69
g50
NtRp2001
(dp2002
g53
(dp2003
g73
g74
ssg62
g1997
sg55
(lp2004
S'HTTP_ACCEPT_LANGUAGE'
p2005
asbag48
(g69
g50
NtRp2006
(dp2007
g53
(dp2008
g80
g81
ssg62
g1997
sg55
(lp2009
S':'
asbag48
(g69
g50
NtRp2010
(dp2011
g53
(dp2012
sg62
g1997
sg55
(lp2013
g48
(g49
g50
NtRp2014
(dp2015
g53
(dp2016
g61
I3
ssg62
g2010
sg55
(lp2017
g999
asbasbasbag48
(g64
g50
NtRp2018
(dp2019
g53
(dp2020
sg62
g1930
sg55
(lp2021
g48
(g69
g50
NtRp2022
(dp2023
g53
(dp2024
g73
g74
ssg62
g2018
sg55
(lp2025
S'HTTP_CONNECTION'
p2026
asbag48
(g69
g50
NtRp2027
(dp2028
g53
(dp2029
g80
g81
ssg62
g2018
sg55
(lp2030
S':'
asbag48
(g69
g50
NtRp2031
(dp2032
g53
(dp2033
sg62
g2018
sg55
(lp2034
g48
(g49
g50
NtRp2035
(dp2036
g53
(dp2037
g61
I3
ssg62
g2031
sg55
(lp2038
g1021
asbasbasbag48
(g64
g50
NtRp2039
(dp2040
g53
(dp2041
sg62
g1930
sg55
(lp2042
g48
(g69
g50
NtRp2043
(dp2044
g53
(dp2045
g73
g74
ssg62
g2039
sg55
(lp2046
S'HTTP_COOKIE'
p2047
asbag48
(g69
g50
NtRp2048
(dp2049
g53
(dp2050
g80
g81
ssg62
g2039
sg55
(lp2051
S':'
asbag48
(g69
g50
NtRp2052
(dp2053
g53
(dp2054
sg62
g2039
sg55
(lp2055
g48
(g49
g50
NtRp2056
(dp2057
g53
(dp2058
g61
I3
ssg62
g2052
sg55
(lp2059
g1043
asbasbasbag48
(g64
g50
NtRp2060
(dp2061
g53
(dp2062
sg62
g1930
sg55
(lp2063
g48
(g69
g50
NtRp2064
(dp2065
g53
(dp2066
g73
g74
ssg62
g2060
sg55
(lp2067
S'HTTP_HOST'
p2068
asbag48
(g69
g50
NtRp2069
(dp2070
g53
(dp2071
g80
g81
ssg62
g2060
sg55
(lp2072
S':'
asbag48
(g69
g50
NtRp2073
(dp2074
g53
(dp2075
sg62
g2060
sg55
(lp2076
g48
(g49
g50
NtRp2077
(dp2078
g53
(dp2079
g61
I3
ssg62
g2073
sg55
(lp2080
g1065
asbasbasbag48
(g64
g50
NtRp2081
(dp2082
g53
(dp2083
sg62
g1930
sg55
(lp2084
g48
(g69
g50
NtRp2085
(dp2086
g53
(dp2087
g73
g74
ssg62
g2081
sg55
(lp2088
S'HTTP_REFERER'
p2089
asbag48
(g69
g50
NtRp2090
(dp2091
g53
(dp2092
g80
g81
ssg62
g2081
sg55
(lp2093
S':'
asbag48
(g69
g50
NtRp2094
(dp2095
g53
(dp2096
sg62
g2081
sg55
(lp2097
g48
(g49
g50
NtRp2098
(dp2099
g53
(dp2100
g61
I3
ssg62
g2094
sg55
(lp2101
g1087
asbasbasbag48
(g64
g50
NtRp2102
(dp2103
g53
(dp2104
sg62
g1930
sg55
(lp2105
g48
(g69
g50
NtRp2106
(dp2107
g53
(dp2108
g73
g74
ssg62
g2102
sg55
(lp2109
S'HTTP_USER_AGENT'
p2110
asbag48
(g69
g50
NtRp2111
(dp2112
g53
(dp2113
g80
g81
ssg62
g2102
sg55
(lp2114
S':'
asbag48
(g69
g50
NtRp2115
(dp2116
g53
(dp2117
sg62
g2102
sg55
(lp2118
g48
(g49
g50
NtRp2119
(dp2120
g53
(dp2121
g61
I3
ssg62
g2115
sg55
(lp2122
g1109
asbasbasbag48
(g64
g50
NtRp2123
(dp2124
g53
(dp2125
sg62
g1930
sg55
(lp2126
g48
(g69
g50
NtRp2127
(dp2128
g53
(dp2129
g73
g74
ssg62
g2123
sg55
(lp2130
S'PATH_INFO'
p2131
asbag48
(g69
g50
NtRp2132
(dp2133
g53
(dp2134
g80
g81
ssg62
g2123
sg55
(lp2135
S':'
asbag48
(g69
g50
NtRp2136
(dp2137
g53
(dp2138
sg62
g2123
sg55
(lp2139
g48
(g49
g50
NtRp2140
(dp2141
g53
(dp2142
g61
I3
ssg62
g2136
sg55
(lp2143
g1152
asbasbasbag48
(g64
g50
NtRp2144
(dp2145
g53
(dp2146
sg62
g1930
sg55
(lp2147
g48
(g69
g50
NtRp2148
(dp2149
g53
(dp2150
g73
g74
ssg62
g2144
sg55
(lp2151
S'QUERY_STRING'
p2152
asbag48
(g69
g50
NtRp2153
(dp2154
g53
(dp2155
g80
g81
ssg62
g2144
sg55
(lp2156
S':'
asbag48
(g69
g50
NtRp2157
(dp2158
g53
(dp2159
sg62
g2144
sg55
(lp2160
g48
(g49
g50
NtRp2161
(dp2162
g53
(dp2163
g61
I3
ssg62
g2157
sg55
(lp2164
S''
asbasbasbag48
(g64
g50
NtRp2165
(dp2166
g53
(dp2167
sg62
g1930
sg55
(lp2168
g48
(g69
g50
NtRp2169
(dp2170
g53
(dp2171
g73
g74
ssg62
g2165
sg55
(lp2172
S'REMOTE_ADDR'
p2173
asbag48
(g69
g50
NtRp2174
(dp2175
g53
(dp2176
g80
g81
ssg62
g2165
sg55
(lp2177
S':'
asbag48
(g69
g50
NtRp2178
(dp2179
g53
(dp2180
sg62
g2165
sg55
(lp2181
g48
(g49
g50
NtRp2182
(dp2183
g53
(dp2184
g61
I3
ssg62
g2178
sg55
(lp2185
g181
asbasbasbag48
(g64
g50
NtRp2186
(dp2187
g53
(dp2188
sg62
g1930
sg55
(lp2189
g48
(g69
g50
NtRp2190
(dp2191
g53
(dp2192
g73
g74
ssg62
g2186
sg55
(lp2193
S'REMOTE_PORT'
p2194
asbag48
(g69
g50
NtRp2195
(dp2196
g53
(dp2197
g80
g81
ssg62
g2186
sg55
(lp2198
S':'
asbag48
(g69
g50
NtRp2199
(dp2200
g53
(dp2201
sg62
g2186
sg55
(lp2202
g48
(g49
g50
NtRp2203
(dp2204
g53
(dp2205
g61
I3
ssg62
g2199
sg55
(lp2206
g1216
asbasbasbag48
(g64
g50
NtRp2207
(dp2208
g53
(dp2209
sg62
g1930
sg55
(lp2210
g48
(g69
g50
NtRp2211
(dp2212
g53
(dp2213
g73
g74
ssg62
g2207
sg55
(lp2214
S'REQUEST_METHOD'
p2215
asbag48
(g69
g50
NtRp2216
(dp2217
g53
(dp2218
g80
g81
ssg62
g2207
sg55
(lp2219
S':'
asbag48
(g69
g50
NtRp2220
(dp2221
g53
(dp2222
sg62
g2207
sg55
(lp2223
g48
(g49
g50
NtRp2224
(dp2225
g53
(dp2226
g61
I3
ssg62
g2220
sg55
(lp2227
g1238
asbasbasbag48
(g64
g50
NtRp2228
(dp2229
g53
(dp2230
sg62
g1930
sg55
(lp2231
g48
(g69
g50
NtRp2232
(dp2233
g53
(dp2234
g73
g74
ssg62
g2228
sg55
(lp2235
S'SCRIPT_NAME'
p2236
asbag48
(g69
g50
NtRp2237
(dp2238
g53
(dp2239
g80
g81
ssg62
g2228
sg55
(lp2240
S':'
asbag48
(g69
g50
NtRp2241
(dp2242
g53
(dp2243
sg62
g2228
sg55
(lp2244
g48
(g49
g50
NtRp2245
(dp2246
g53
(dp2247
g61
I3
ssg62
g2241
sg55
(lp2248
S''
asbasbasbag48
(g64
g50
NtRp2249
(dp2250
g53
(dp2251
sg62
g1930
sg55
(lp2252
g48
(g69
g50
NtRp2253
(dp2254
g53
(dp2255
g73
g74
ssg62
g2249
sg55
(lp2256
S'SERVER_NAME'
p2257
asbag48
(g69
g50
NtRp2258
(dp2259
g53
(dp2260
g80
g81
ssg62
g2249
sg55
(lp2261
S':'
asbag48
(g69
g50
NtRp2262
(dp2263
g53
(dp2264
sg62
g2249
sg55
(lp2265
g48
(g49
g50
NtRp2266
(dp2267
g53
(dp2268
g61
I3
ssg62
g2262
sg55
(lp2269
g1281
asbasbasbag48
(g64
g50
NtRp2270
(dp2271
g53
(dp2272
sg62
g1930
sg55
(lp2273
g48
(g69
g50
NtRp2274
(dp2275
g53
(dp2276
g73
g74
ssg62
g2270
sg55
(lp2277
S'SERVER_PORT'
p2278
asbag48
(g69
g50
NtRp2279
(dp2280
g53
(dp2281
g80
g81
ssg62
g2270
sg55
(lp2282
S':'
asbag48
(g69
g50
NtRp2283
(dp2284
g53
(dp2285
sg62
g2270
sg55
(lp2286
g48
(g49
g50
NtRp2287
(dp2288
g53
(dp2289
g61
I3
ssg62
g2283
sg55
(lp2290
g1303
asbasbasbag48
(g64
g50
NtRp2291
(dp2292
g53
(dp2293
sg62
g1930
sg55
(lp2294
g48
(g69
g50
NtRp2295
(dp2296
g53
(dp2297
g73
g74
ssg62
g2291
sg55
(lp2298
S'SERVER_PROTOCOL'
p2299
asbag48
(g69
g50
NtRp2300
(dp2301
g53
(dp2302
g80
g81
ssg62
g2291
sg55
(lp2303
S':'
asbag48
(g69
g50
NtRp2304
(dp2305
g53
(dp2306
sg62
g2291
sg55
(lp2307
g48
(g49
g50
NtRp2308
(dp2309
g53
(dp2310
g61
I3
ssg62
g2304
sg55
(lp2311
g1325
asbasbasbag48
(g64
g50
NtRp2312
(dp2313
g53
(dp2314
sg62
g1930
sg55
(lp2315
g48
(g69
g50
NtRp2316
(dp2317
g53
(dp2318
g73
g74
ssg62
g2312
sg55
(lp2319
S'SERVER_SOFTWARE'
p2320
asbag48
(g69
g50
NtRp2321
(dp2322
g53
(dp2323
g80
g81
ssg62
g2312
sg55
(lp2324
S':'
asbag48
(g69
g50
NtRp2325
(dp2326
g53
(dp2327
sg62
g2312
sg55
(lp2328
g48
(g49
g50
NtRp2329
(dp2330
g53
(dp2331
g61
I3
ssg62
g2325
sg55
(lp2332
g1347
asbasbasbag48
(g64
g50
NtRp2333
(dp2334
g53
(dp2335
sg62
g1930
sg55
(lp2336
g48
(g69
g50
NtRp2337
(dp2338
g53
(dp2339
g73
g74
ssg62
g2333
sg55
(lp2340
S'wsgi.errors'
p2341
asbag48
(g69
g50
NtRp2342
(dp2343
g53
(dp2344
g80
g81
ssg62
g2333
sg55
(lp2345
S':'
asbag48
(g69
g50
NtRp2346
(dp2347
g53
(dp2348
sg62
g2333
sg55
(lp2349
g48
(g49
g50
NtRp2350
(dp2351
g53
(dp2352
g61
I3
ssg62
g2346
sg55
(lp2353
S"<open file '<stderr>', mode 'w' at 0x01F200B0>"
p2354
asbasbasbag48
(g64
g50
NtRp2355
(dp2356
g53
(dp2357
sg62
g1930
sg55
(lp2358
g48
(g69
g50
NtRp2359
(dp2360
g53
(dp2361
g73
g74
ssg62
g2355
sg55
(lp2362
S'wsgi.file_wrapper'
p2363
asbag48
(g69
g50
NtRp2364
(dp2365
g53
(dp2366
g80
g81
ssg62
g2355
sg55
(lp2367
S':'
asbag48
(g69
g50
NtRp2368
(dp2369
g53
(dp2370
sg62
g2355
sg55
(lp2371
g48
(g49
g50
NtRp2372
(dp2373
g53
(dp2374
g61
I3
ssg62
g2368
sg55
(lp2375
S'<class gluon.rocket.FileWrapper at 0x0307F1B0>'
p2376
asbasbasbag48
(g64
g50
NtRp2377
(dp2378
g53
(dp2379
sg62
g1930
sg55
(lp2380
g48
(g69
g50
NtRp2381
(dp2382
g53
(dp2383
g73
g74
ssg62
g2377
sg55
(lp2384
S'wsgi.input'
p2385
asbag48
(g69
g50
NtRp2386
(dp2387
g53
(dp2388
g80
g81
ssg62
g2377
sg55
(lp2389
S':'
asbag48
(g69
g50
NtRp2390
(dp2391
g53
(dp2392
sg62
g2377
sg55
(lp2393
g48
(g49
g50
NtRp2394
(dp2395
g53
(dp2396
g61
I3
ssg62
g2390
sg55
(lp2397
S'<cStringIO.StringO object at 0x08411620>'
p2398
asbasbasbag48
(g64
g50
NtRp2399
(dp2400
g53
(dp2401
sg62
g1930
sg55
(lp2402
g48
(g69
g50
NtRp2403
(dp2404
g53
(dp2405
g73
g74
ssg62
g2399
sg55
(lp2406
S'wsgi.multiprocess'
p2407
asbag48
(g69
g50
NtRp2408
(dp2409
g53
(dp2410
g80
g81
ssg62
g2399
sg55
(lp2411
S':'
asbag48
(g69
g50
NtRp2412
(dp2413
g53
(dp2414
sg62
g2399
sg55
(lp2415
g48
(g49
g50
NtRp2416
(dp2417
g53
(dp2418
g61
I3
ssg62
g2412
sg55
(lp2419
g91
asbasbasbag48
(g64
g50
NtRp2420
(dp2421
g53
(dp2422
sg62
g1930
sg55
(lp2423
g48
(g69
g50
NtRp2424
(dp2425
g53
(dp2426
g73
g74
ssg62
g2420
sg55
(lp2427
S'wsgi.multithread'
p2428
asbag48
(g69
g50
NtRp2429
(dp2430
g53
(dp2431
g80
g81
ssg62
g2420
sg55
(lp2432
S':'
asbag48
(g69
g50
NtRp2433
(dp2434
g53
(dp2435
sg62
g2420
sg55
(lp2436
g48
(g49
g50
NtRp2437
(dp2438
g53
(dp2439
g61
I3
ssg62
g2433
sg55
(lp2440
g1521
asbasbasbag48
(g64
g50
NtRp2441
(dp2442
g53
(dp2443
sg62
g1930
sg55
(lp2444
g48
(g69
g50
NtRp2445
(dp2446
g53
(dp2447
g73
g74
ssg62
g2441
sg55
(lp2448
S'wsgi.run_once'
p2449
asbag48
(g69
g50
NtRp2450
(dp2451
g53
(dp2452
g80
g81
ssg62
g2441
sg55
(lp2453
S':'
asbag48
(g69
g50
NtRp2454
(dp2455
g53
(dp2456
sg62
g2441
sg55
(lp2457
g48
(g49
g50
NtRp2458
(dp2459
g53
(dp2460
g61
I3
ssg62
g2454
sg55
(lp2461
g91
asbasbasbag48
(g64
g50
NtRp2462
(dp2463
g53
(dp2464
sg62
g1930
sg55
(lp2465
g48
(g69
g50
NtRp2466
(dp2467
g53
(dp2468
g73
g74
ssg62
g2462
sg55
(lp2469
S'wsgi.url_scheme'
p2470
asbag48
(g69
g50
NtRp2471
(dp2472
g53
(dp2473
g80
g81
ssg62
g2462
sg55
(lp2474
S':'
asbag48
(g69
g50
NtRp2475
(dp2476
g53
(dp2477
sg62
g2462
sg55
(lp2478
g48
(g49
g50
NtRp2479
(dp2480
g53
(dp2481
g61
I3
ssg62
g2475
sg55
(lp2482
g1564
asbasbasbag48
(g64
g50
NtRp2483
(dp2484
g53
(dp2485
sg62
g1930
sg55
(lp2486
g48
(g69
g50
NtRp2487
(dp2488
g53
(dp2489
g73
g74
ssg62
g2483
sg55
(lp2490
S'wsgi.version'
p2491
asbag48
(g69
g50
NtRp2492
(dp2493
g53
(dp2494
g80
g81
ssg62
g2483
sg55
(lp2495
S':'
asbag48
(g69
g50
NtRp2496
(dp2497
g53
(dp2498
sg62
g2483
sg55
(lp2499
g48
(g49
g50
NtRp2500
(dp2501
g53
(dp2502
g61
I3
ssg62
g2496
sg55
(lp2503
S'1'
asbasbasbasbasbasbasbasbasbasbasbasbasbsS'frames'
p2504
(lp2505
(dp2506
S'file'
p2507
S'C:\\Users\\Atomico\\web2py\\gluon\\restricted.py'
p2508
sS'dump'
p2509
(dp2510
sS'lnum'
p2511
I192
sS'lines'
p2512
(dp2513
sS'call'
p2514
S'(code="def entrada():\\n    form=SQLFORM(db.info)\\n    if ...ret\')\\n\\nresponse._vars=response._caller(borrardb)\\n", environment={\'A\': <class \'gluon.html.A\'>, \'B\': <class \'gluon.html.B\'>, \'BEAUTIFY\': <class \'gluon.html.BEAUTIFY\'>, \'BODY\': <class \'gluon.html.BODY\'>, \'BR\': <class \'gluon.html.BR\'>, \'BUTTON\': <class \'gluon.html.BUTTON\'>, \'CAT\': <class \'gluon.html.CAT\'>, \'CENTER\': <class \'gluon.html.CENTER\'>, \'CLEANUP\': <class \'gluon.validators.CLEANUP\'>, \'CODE\': <class \'gluon.html.CODE\'>, ...}, layer=r\'C:\\Users\\Atomico\\web2py\\applications\\Desglosar_Emails\\controllers/default.py\')'
p2515
sS'func'
p2516
S'restricted'
p2517
sa(dp2518
g2507
S'C:\\Users\\Atomico\\web2py\\applications\\Desglosar_Emails\\controllers\\default.py'
p2519
sg2509
(dp2520
sg2511
I74
sg2512
(dp2521
I64
S'    form=SQLFORM(db.info4)'
p2522
sI65
S'    if form.accepts(request.vars,session):pass'
p2523
sI66
S''
sI67
S'    return dict(form=form)'
p2524
sI68
S''
sI69
S'def borrardb():'
p2525
sI70
S'    db.contactos.dump()'
p2526
sI71
S'    db.info4.dump()'
p2527
sI72
S"    return dict(cad='Cagada pastoret')"
p2528
sI63
S'def entrada_mod3():'
p2529
ssg2514
S'()'
p2530
sg2516
S'<module>'
p2531
sa(dp2532
g2507
S'C:\\Users\\Atomico\\web2py\\gluon\\globals.py'
p2533
sg2509
(dp2534
sg2511
I145
sg2512
(dp2535
sg2514
S'(f=<function borrardb at 0x082A59F0>)'
p2536
sg2516
S'<lambda>'
p2537
sa(dp2538
g2507
S'C:\\Users\\Atomico\\web2py\\applications\\Desglosar_Emails\\controllers\\default.py'
p2539
sg2509
(dp2540
sg2511
I70
sg2512
(dp2541
I64
S'    form=SQLFORM(db.info4)'
p2542
sI65
S'    if form.accepts(request.vars,session):pass'
p2543
sI66
S''
sI67
S'    return dict(form=form)'
p2544
sI68
S''
sI69
S'def borrardb():'
p2545
sI70
S'    db.contactos.dump()'
p2546
sI71
S'    db.info4.dump()'
p2547
sI72
S"    return dict(cad='Cagada pastoret')"
p2548
sI63
S'def entrada_mod3():'
p2549
ssg2514
S'()'
p2550
sg2516
S'borrardb'
p2551
sa(dp2552
g2507
S'C:\\Users\\Atomico\\web2py\\gluon\\dal.py'
p2553
sg2509
(dp2554
sg2511
I4731
sg2512
(dp2555
sg2514
S"(self=<Table {'remitentesant': <gluon.dal.Field object...>, 'id': <gluon.dal.Field object at 0x08411330>}>, key='dump')"
p2556
sg2516
S'__getattr__'
p2557
sa(dp2558
g2507
S'C:\\Users\\Atomico\\web2py\\gluon\\dal.py'
p2559
sg2509
(dp2560
sg2511
I4675
sg2512
(dp2561
sg2514
S"(self=<Table {'remitentesant': <gluon.dal.Field object...>, 'id': <gluon.dal.Field object at 0x08411330>}>, key='dump')"
p2562
sg2516
g19
sasS'pyver'
p2563
S'Python 2.5.4: C:\\Users\\Atomico\\web2py\\web2py.exe'
p2564
sS'session'
p2565
g48
(g49
g50
NtRp2566
(dp2567
g53
(dp2568
sg55
(lp2569
g48
(g57
g50
NtRp2570
(dp2571
g53
(dp2572
g61
I5
ssg62
Nsg55
(lp2573
g48
(g64
g50
NtRp2574
(dp2575
g53
(dp2576
sg62
g2570
sg55
(lp2577
g48
(g69
g50
NtRp2578
(dp2579
g53
(dp2580
g73
g74
ssg62
g2574
sg55
(lp2581
S'last_query'
p2582
asbag48
(g69
g50
NtRp2583
(dp2584
g53
(dp2585
g80
g81
ssg62
g2574
sg55
(lp2586
S':'
asbag48
(g69
g50
NtRp2587
(dp2588
g53
(dp2589
sg62
g2574
sg55
(lp2590
g48
(g49
g50
NtRp2591
(dp2592
g53
(dp2593
g61
I5
ssg62
g2587
sg55
(lp2594
S'db.contactos.id>0'
p2595
asbasbasbasbasbsS'etype'
p2596
S"<type 'exceptions.KeyError'>"
p2597
sS'date'
p2598
S'Tue Sep 20 10:14:07 2011'
p2599
sS'response'
p2600
g48
(g49
g50
NtRp2601
(dp2602
g53
(dp2603
sg55
(lp2604
g48
(g57
g50
NtRp2605
(dp2606
g53
(dp2607
g61
I5
ssg62
Nsg55
(lp2608
g48
(g64
g50
NtRp2609
(dp2610
g53
(dp2611
sg62
g2605
sg55
(lp2612
g48
(g69
g50
NtRp2613
(dp2614
g53
(dp2615
g73
g74
ssg62
g2609
sg55
(lp2616
g146
asbag48
(g69
g50
NtRp2617
(dp2618
g53
(dp2619
g80
g81
ssg62
g2609
sg55
(lp2620
S':'
asbag48
(g69
g50
NtRp2621
(dp2622
g53
(dp2623
sg62
g2609
sg55
(lp2624
g48
(g49
g50
NtRp2625
(dp2626
g53
(dp2627
g61
I5
ssg62
g2621
sg55
(lp2628
S'<cStringIO.StringO object at 0x07EE5A80>'
p2629
asbasbasbag48
(g64
g50
NtRp2630
(dp2631
g53
(dp2632
sg62
g2605
sg55
(lp2633
g48
(g69
g50
NtRp2634
(dp2635
g53
(dp2636
g73
g74
ssg62
g2630
sg55
(lp2637
g212
asbag48
(g69
g50
NtRp2638
(dp2639
g53
(dp2640
g80
g81
ssg62
g2630
sg55
(lp2641
S':'
asbag48
(g69
g50
NtRp2642
(dp2643
g53
(dp2644
sg62
g2630
sg55
(lp2645
g48
(g49
g50
NtRp2646
(dp2647
g53
(dp2648
g61
I5
ssg62
g2642
sg55
(lp2649
g48
(g57
g50
NtRp2650
(dp2651
g53
(dp2652
g61
I4
ssg62
Nsg55
(lp2653
g48
(g64
g50
NtRp2654
(dp2655
g53
(dp2656
sg62
g2650
sg55
(lp2657
g48
(g69
g50
NtRp2658
(dp2659
g53
(dp2660
g73
g74
ssg62
g2654
sg55
(lp2661
S'session_id_desglosar_emails'
p2662
asbag48
(g69
g50
NtRp2663
(dp2664
g53
(dp2665
g80
g81
ssg62
g2654
sg55
(lp2666
S':'
asbag48
(g69
g50
NtRp2667
(dp2668
g53
(dp2669
sg62
g2654
sg55
(lp2670
g48
(g49
g50
NtRp2671
(dp2672
g53
(dp2673
g61
I4
ssg62
g2667
sg55
(lp2674
g48
(g57
g50
NtRp2675
(dp2676
g53
(dp2677
g61
I3
ssg62
Nsg55
(lp2678
g48
(g64
g50
NtRp2679
(dp2680
g53
(dp2681
sg62
g2675
sg55
(lp2682
g48
(g69
g50
NtRp2683
(dp2684
g53
(dp2685
g73
g74
ssg62
g2679
sg55
(lp2686
g262
asbag48
(g69
g50
NtRp2687
(dp2688
g53
(dp2689
g80
g81
ssg62
g2679
sg55
(lp2690
S':'
asbag48
(g69
g50
NtRp2691
(dp2692
g53
(dp2693
sg62
g2679
sg55
(lp2694
g48
(g49
g50
NtRp2695
(dp2696
g53
(dp2697
g61
I3
ssg62
g2691
sg55
(lp2698
S''
asbasbasbag48
(g64
g50
NtRp2699
(dp2700
g53
(dp2701
sg62
g2675
sg55
(lp2702
g48
(g69
g50
NtRp2703
(dp2704
g53
(dp2705
g73
g74
ssg62
g2699
sg55
(lp2706
g283
asbag48
(g69
g50
NtRp2707
(dp2708
g53
(dp2709
g80
g81
ssg62
g2699
sg55
(lp2710
S':'
asbag48
(g69
g50
NtRp2711
(dp2712
g53
(dp2713
sg62
g2699
sg55
(lp2714
g48
(g49
g50
NtRp2715
(dp2716
g53
(dp2717
g61
I3
ssg62
g2711
sg55
(lp2718
S''
asbasbasbag48
(g64
g50
NtRp2719
(dp2720
g53
(dp2721
sg62
g2675
sg55
(lp2722
g48
(g69
g50
NtRp2723
(dp2724
g53
(dp2725
g73
g74
ssg62
g2719
sg55
(lp2726
g304
asbag48
(g69
g50
NtRp2727
(dp2728
g53
(dp2729
g80
g81
ssg62
g2719
sg55
(lp2730
S':'
asbag48
(g69
g50
NtRp2731
(dp2732
g53
(dp2733
sg62
g2719
sg55
(lp2734
g48
(g49
g50
NtRp2735
(dp2736
g53
(dp2737
g61
I3
ssg62
g2731
sg55
(lp2738
S''
asbasbasbag48
(g64
g50
NtRp2739
(dp2740
g53
(dp2741
sg62
g2675
sg55
(lp2742
g48
(g69
g50
NtRp2743
(dp2744
g53
(dp2745
g73
g74
ssg62
g2739
sg55
(lp2746
g325
asbag48
(g69
g50
NtRp2747
(dp2748
g53
(dp2749
g80
g81
ssg62
g2739
sg55
(lp2750
S':'
asbag48
(g69
g50
NtRp2751
(dp2752
g53
(dp2753
sg62
g2739
sg55
(lp2754
g48
(g49
g50
NtRp2755
(dp2756
g53
(dp2757
g61
I3
ssg62
g2751
sg55
(lp2758
S''
asbasbasbag48
(g64
g50
NtRp2759
(dp2760
g53
(dp2761
sg62
g2675
sg55
(lp2762
g48
(g69
g50
NtRp2763
(dp2764
g53
(dp2765
g73
g74
ssg62
g2759
sg55
(lp2766
g346
asbag48
(g69
g50
NtRp2767
(dp2768
g53
(dp2769
g80
g81
ssg62
g2759
sg55
(lp2770
S':'
asbag48
(g69
g50
NtRp2771
(dp2772
g53
(dp2773
sg62
g2759
sg55
(lp2774
g48
(g49
g50
NtRp2775
(dp2776
g53
(dp2777
g61
I3
ssg62
g2771
sg55
(lp2778
S'/'
asbasbasbag48
(g64
g50
NtRp2779
(dp2780
g53
(dp2781
sg62
g2675
sg55
(lp2782
g48
(g69
g50
NtRp2783
(dp2784
g53
(dp2785
g73
g74
ssg62
g2779
sg55
(lp2786
g367
asbag48
(g69
g50
NtRp2787
(dp2788
g53
(dp2789
g80
g81
ssg62
g2779
sg55
(lp2790
S':'
asbag48
(g69
g50
NtRp2791
(dp2792
g53
(dp2793
sg62
g2779
sg55
(lp2794
g48
(g49
g50
NtRp2795
(dp2796
g53
(dp2797
g61
I3
ssg62
g2791
sg55
(lp2798
S''
asbasbasbag48
(g64
g50
NtRp2799
(dp2800
g53
(dp2801
sg62
g2675
sg55
(lp2802
g48
(g69
g50
NtRp2803
(dp2804
g53
(dp2805
g73
g74
ssg62
g2799
sg55
(lp2806
g388
asbag48
(g69
g50
NtRp2807
(dp2808
g53
(dp2809
g80
g81
ssg62
g2799
sg55
(lp2810
S':'
asbag48
(g69
g50
NtRp2811
(dp2812
g53
(dp2813
sg62
g2799
sg55
(lp2814
g48
(g49
g50
NtRp2815
(dp2816
g53
(dp2817
g61
I3
ssg62
g2811
sg55
(lp2818
S''
asbasbasbasbasbasbasbasbasbasbasbag48
(g64
g50
NtRp2819
(dp2820
g53
(dp2821
sg62
g2605
sg55
(lp2822
g48
(g69
g50
NtRp2823
(dp2824
g53
(dp2825
g73
g74
ssg62
g2819
sg55
(lp2826
S'files'
p2827
asbag48
(g69
g50
NtRp2828
(dp2829
g53
(dp2830
g80
g81
ssg62
g2819
sg55
(lp2831
S':'
asbag48
(g69
g50
NtRp2832
(dp2833
g53
(dp2834
sg62
g2819
sg55
(lp2835
g48
(g49
g50
NtRp2836
(dp2837
g53
(dp2838
g61
I5
ssg62
g2832
sg55
(lp2839
g48
(g57
g50
NtRp2840
(dp2841
g53
(dp2842
g61
I4
ssg62
Nsg55
(lp2843
sbasbasbasbag48
(g64
g50
NtRp2844
(dp2845
g53
(dp2846
sg62
g2605
sg55
(lp2847
g48
(g69
g50
NtRp2848
(dp2849
g53
(dp2850
g73
g74
ssg62
g2844
sg55
(lp2851
S'flash'
p2852
asbag48
(g69
g50
NtRp2853
(dp2854
g53
(dp2855
g80
g81
ssg62
g2844
sg55
(lp2856
S':'
asbag48
(g69
g50
NtRp2857
(dp2858
g53
(dp2859
sg62
g2844
sg55
(lp2860
g48
(g49
g50
NtRp2861
(dp2862
g53
(dp2863
g61
I5
ssg62
g2857
sg55
(lp2864
S''
asbasbasbag48
(g64
g50
NtRp2865
(dp2866
g53
(dp2867
sg62
g2605
sg55
(lp2868
g48
(g69
g50
NtRp2869
(dp2870
g53
(dp2871
g73
g74
ssg62
g2865
sg55
(lp2872
S'generic_patterns'
p2873
asbag48
(g69
g50
NtRp2874
(dp2875
g53
(dp2876
g80
g81
ssg62
g2865
sg55
(lp2877
S':'
asbag48
(g69
g50
NtRp2878
(dp2879
g53
(dp2880
sg62
g2865
sg55
(lp2881
g48
(g49
g50
NtRp2882
(dp2883
g53
(dp2884
g61
I5
ssg62
g2878
sg55
(lp2885
g48
(g57
g50
NtRp2886
(dp2887
g53
(dp2888
g61
I4
ssg62
Nsg55
(lp2889
sbasbasbasbag48
(g64
g50
NtRp2890
(dp2891
g53
(dp2892
sg62
g2605
sg55
(lp2893
g48
(g69
g50
NtRp2894
(dp2895
g53
(dp2896
g73
g74
ssg62
g2890
sg55
(lp2897
S'headers'
p2898
asbag48
(g69
g50
NtRp2899
(dp2900
g53
(dp2901
g80
g81
ssg62
g2890
sg55
(lp2902
S':'
asbag48
(g69
g50
NtRp2903
(dp2904
g53
(dp2905
sg62
g2890
sg55
(lp2906
g48
(g49
g50
NtRp2907
(dp2908
g53
(dp2909
g61
I5
ssg62
g2903
sg55
(lp2910
g48
(g57
g50
NtRp2911
(dp2912
g53
(dp2913
g61
I4
ssg62
Nsg55
(lp2914
g48
(g64
g50
NtRp2915
(dp2916
g53
(dp2917
sg62
g2911
sg55
(lp2918
g48
(g69
g50
NtRp2919
(dp2920
g53
(dp2921
g73
g74
ssg62
g2915
sg55
(lp2922
S'Cache-Control'
p2923
asbag48
(g69
g50
NtRp2924
(dp2925
g53
(dp2926
g80
g81
ssg62
g2915
sg55
(lp2927
S':'
asbag48
(g69
g50
NtRp2928
(dp2929
g53
(dp2930
sg62
g2915
sg55
(lp2931
g48
(g49
g50
NtRp2932
(dp2933
g53
(dp2934
g61
I4
ssg62
g2928
sg55
(lp2935
S'no-store, no-cache, must-revalidate, post-check=0, pre-check=0'
p2936
asbasbasbag48
(g64
g50
NtRp2937
(dp2938
g53
(dp2939
sg62
g2911
sg55
(lp2940
g48
(g69
g50
NtRp2941
(dp2942
g53
(dp2943
g73
g74
ssg62
g2937
sg55
(lp2944
S'Content-Type'
p2945
asbag48
(g69
g50
NtRp2946
(dp2947
g53
(dp2948
g80
g81
ssg62
g2937
sg55
(lp2949
S':'
asbag48
(g69
g50
NtRp2950
(dp2951
g53
(dp2952
sg62
g2937
sg55
(lp2953
g48
(g49
g50
NtRp2954
(dp2955
g53
(dp2956
g61
I4
ssg62
g2950
sg55
(lp2957
S'text/html; charset=utf-8'
p2958
asbasbasbag48
(g64
g50
NtRp2959
(dp2960
g53
(dp2961
sg62
g2911
sg55
(lp2962
g48
(g69
g50
NtRp2963
(dp2964
g53
(dp2965
g73
g74
ssg62
g2959
sg55
(lp2966
S'Expires'
p2967
asbag48
(g69
g50
NtRp2968
(dp2969
g53
(dp2970
g80
g81
ssg62
g2959
sg55
(lp2971
S':'
asbag48
(g69
g50
NtRp2972
(dp2973
g53
(dp2974
sg62
g2959
sg55
(lp2975
g48
(g49
g50
NtRp2976
(dp2977
g53
(dp2978
g61
I4
ssg62
g2972
sg55
(lp2979
S'Tue, 20 Sep 2011 08:14:07 GMT'
p2980
asbasbasbag48
(g64
g50
NtRp2981
(dp2982
g53
(dp2983
sg62
g2911
sg55
(lp2984
g48
(g69
g50
NtRp2985
(dp2986
g53
(dp2987
g73
g74
ssg62
g2981
sg55
(lp2988
S'Pragma'
p2989
asbag48
(g69
g50
NtRp2990
(dp2991
g53
(dp2992
g80
g81
ssg62
g2981
sg55
(lp2993
S':'
asbag48
(g69
g50
NtRp2994
(dp2995
g53
(dp2996
sg62
g2981
sg55
(lp2997
g48
(g49
g50
NtRp2998
(dp2999
g53
(dp3000
g61
I4
ssg62
g2994
sg55
(lp3001
S'no-cache'
p3002
asbasbasbag48
(g64
g50
NtRp3003
(dp3004
g53
(dp3005
sg62
g2911
sg55
(lp3006
g48
(g69
g50
NtRp3007
(dp3008
g53
(dp3009
g73
g74
ssg62
g3003
sg55
(lp3010
S'X-Powered-By'
p3011
asbag48
(g69
g50
NtRp3012
(dp3013
g53
(dp3014
g80
g81
ssg62
g3003
sg55
(lp3015
S':'
asbag48
(g69
g50
NtRp3016
(dp3017
g53
(dp3018
sg62
g3003
sg55
(lp3019
g48
(g49
g50
NtRp3020
(dp3021
g53
(dp3022
g61
I4
ssg62
g3016
sg55
(lp3023
S'web2py'
p3024
asbasbasbasbasbasbasbag48
(g64
g50
NtRp3025
(dp3026
g53
(dp3027
sg62
g2605
sg55
(lp3028
g48
(g69
g50
NtRp3029
(dp3030
g53
(dp3031
g73
g74
ssg62
g3025
sg55
(lp3032
S'menu'
p3033
asbag48
(g69
g50
NtRp3034
(dp3035
g53
(dp3036
g80
g81
ssg62
g3025
sg55
(lp3037
S':'
asbag48
(g69
g50
NtRp3038
(dp3039
g53
(dp3040
sg62
g3025
sg55
(lp3041
g48
(g49
g50
NtRp3042
(dp3043
g53
(dp3044
g61
I5
ssg62
g3038
sg55
(lp3045
g48
(g57
g50
NtRp3046
(dp3047
g53
(dp3048
g61
I4
ssg62
Nsg55
(lp3049
g48
(g64
g50
NtRp3050
(dp3051
g53
(dp3052
sg62
g3046
sg55
(lp3053
g48
(g69
g50
NtRp3054
(dp3055
g53
(dp3056
sg62
g3050
sg55
(lp3057
g48
(g49
g50
NtRp3058
(dp3059
g53
(dp3060
g61
I4
ssg62
g3054
sg55
(lp3061
g48
(g57
g50
NtRp3062
(dp3063
g53
(dp3064
g61
I3
ssg62
Nsg55
(lp3065
g48
(g64
g50
NtRp3066
(dp3067
g53
(dp3068
sg62
g3062
sg55
(lp3069
g48
(g69
g50
NtRp3070
(dp3071
g53
(dp3072
sg62
g3066
sg55
(lp3073
g48
(g49
g50
NtRp3074
(dp3075
g53
(dp3076
g61
I3
ssg62
g3070
sg55
(lp3077
cgluon.languages
lazyT_unpickle
p3078
(S't\x04\x00\x00\x00Home'
tRp3079
asbasbasbag48
(g64
g50
NtRp3080
(dp3081
g53
(dp3082
sg62
g3062
sg55
(lp3083
g48
(g69
g50
NtRp3084
(dp3085
g53
(dp3086
sg62
g3080
sg55
(lp3087
g48
(g49
g50
NtRp3088
(dp3089
g53
(dp3090
g61
I3
ssg62
g3084
sg55
(lp3091
g91
asbasbasbag48
(g64
g50
NtRp3092
(dp3093
g53
(dp3094
sg62
g3062
sg55
(lp3095
g48
(g69
g50
NtRp3096
(dp3097
g53
(dp3098
sg62
g3092
sg55
(lp3099
g48
(g49
g50
NtRp3100
(dp3101
g53
(dp3102
g61
I3
ssg62
g3096
sg55
(lp3103
S'/Desglosar_Emails/default/index'
p3104
asbasbasbag48
(g64
g50
NtRp3105
(dp3106
g53
(dp3107
sg62
g3062
sg55
(lp3108
g48
(g69
g50
NtRp3109
(dp3110
g53
(dp3111
sg62
g3105
sg55
(lp3112
g48
(g49
g50
NtRp3113
(dp3114
g53
(dp3115
g61
I3
ssg62
g3109
sg55
(lp3116
g48
(g57
g50
NtRp3117
(dp3118
g53
(dp3119
g61
I2
ssg62
Nsg55
(lp3120
sbasbasbasbasbasbasbasbag48
(g64
g50
NtRp3121
(dp3122
g53
(dp3123
sg62
g3046
sg55
(lp3124
g48
(g69
g50
NtRp3125
(dp3126
g53
(dp3127
sg62
g3121
sg55
(lp3128
g48
(g49
g50
NtRp3129
(dp3130
g53
(dp3131
g61
I4
ssg62
g3125
sg55
(lp3132
g48
(g57
g50
NtRp3133
(dp3134
g53
(dp3135
g61
I3
ssg62
Nsg55
(lp3136
g48
(g64
g50
NtRp3137
(dp3138
g53
(dp3139
sg62
g3133
sg55
(lp3140
g48
(g69
g50
NtRp3141
(dp3142
g53
(dp3143
sg62
g3137
sg55
(lp3144
g48
(g49
g50
NtRp3145
(dp3146
g53
(dp3147
g61
I3
ssg62
g3141
sg55
(lp3148
g3078
(S's\x08\x00\x00\x00This App'
tRp3149
asbasbasbag48
(g64
g50
NtRp3150
(dp3151
g53
(dp3152
sg62
g3133
sg55
(lp3153
g48
(g69
g50
NtRp3154
(dp3155
g53
(dp3156
sg62
g3150
sg55
(lp3157
g48
(g49
g50
NtRp3158
(dp3159
g53
(dp3160
g61
I3
ssg62
g3154
sg55
(lp3161
g91
asbasbasbag48
(g64
g50
NtRp3162
(dp3163
g53
(dp3164
sg62
g3133
sg55
(lp3165
g48
(g69
g50
NtRp3166
(dp3167
g53
(dp3168
sg62
g3162
sg55
(lp3169
g48
(g49
g50
NtRp3170
(dp3171
g53
(dp3172
g61
I3
ssg62
g3166
sg55
(lp3173
S'/admin/default/design/Desglosar_Emails'
p3174
asbasbasbag48
(g64
g50
NtRp3175
(dp3176
g53
(dp3177
sg62
g3133
sg55
(lp3178
g48
(g69
g50
NtRp3179
(dp3180
g53
(dp3181
sg62
g3175
sg55
(lp3182
g48
(g49
g50
NtRp3183
(dp3184
g53
(dp3185
g61
I3
ssg62
g3179
sg55
(lp3186
g48
(g57
g50
NtRp3187
(dp3188
g53
(dp3189
g61
I2
ssg62
Nsg55
(lp3190
g48
(g64
g50
NtRp3191
(dp3192
g53
(dp3193
sg62
g3187
sg55
(lp3194
g48
(g69
g50
NtRp3195
(dp3196
g53
(dp3197
sg62
g3191
sg55
(lp3198
g48
(g49
g50
NtRp3199
(dp3200
g53
(dp3201
g61
I2
ssg62
g3195
sg55
(lp3202
g48
(g57
g50
NtRp3203
(dp3204
g53
(dp3205
g61
I1
ssg62
Nsg55
(lp3206
g48
(g64
g50
NtRp3207
(dp3208
g53
(dp3209
sg62
g3203
sg55
(lp3210
g48
(g69
g50
NtRp3211
(dp3212
g53
(dp3213
sg62
g3207
sg55
(lp3214
g48
(g49
g50
NtRp3215
(dp3216
g53
(dp3217
g61
I1
ssg62
g3211
sg55
(lp3218
g3078
(S't\x0b\x00\x00\x00Controlador'
tRp3219
asbasbasbag48
(g64
g50
NtRp3220
(dp3221
g53
(dp3222
sg62
g3203
sg55
(lp3223
g48
(g69
g50
NtRp3224
(dp3225
g53
(dp3226
sg62
g3220
sg55
(lp3227
g48
(g49
g50
NtRp3228
(dp3229
g53
(dp3230
g61
I1
ssg62
g3224
sg55
(lp3231
I00
asbasbasbag48
(g64
g50
NtRp3232
(dp3233
g53
(dp3234
sg62
g3203
sg55
(lp3235
g48
(g69
g50
NtRp3236
(dp3237
g53
(dp3238
sg62
g3232
sg55
(lp3239
g48
(g49
g50
NtRp3240
(dp3241
g53
(dp3242
g61
I1
ssg62
g3236
sg55
(lp3243
S'/admin/default/edit/Desglosar_Emails/controllers/default.py'
p3244
asbasbasbasbasbasbasbag48
(g64
g50
NtRp3245
(dp3246
g53
(dp3247
sg62
g3187
sg55
(lp3248
g48
(g69
g50
NtRp3249
(dp3250
g53
(dp3251
sg62
g3245
sg55
(lp3252
g48
(g49
g50
NtRp3253
(dp3254
g53
(dp3255
g61
I2
ssg62
g3249
sg55
(lp3256
g48
(g57
g50
NtRp3257
(dp3258
g53
(dp3259
g61
I1
ssg62
Nsg55
(lp3260
g48
(g64
g50
NtRp3261
(dp3262
g53
(dp3263
sg62
g3257
sg55
(lp3264
g48
(g69
g50
NtRp3265
(dp3266
g53
(dp3267
sg62
g3261
sg55
(lp3268
g48
(g49
g50
NtRp3269
(dp3270
g53
(dp3271
g61
I1
ssg62
g3265
sg55
(lp3272
g3078
(S't\x05\x00\x00\x00Vista'
tRp3273
asbasbasbag48
(g64
g50
NtRp3274
(dp3275
g53
(dp3276
sg62
g3257
sg55
(lp3277
g48
(g69
g50
NtRp3278
(dp3279
g53
(dp3280
sg62
g3274
sg55
(lp3281
g48
(g49
g50
NtRp3282
(dp3283
g53
(dp3284
g61
I1
ssg62
g3278
sg55
(lp3285
I00
asbasbasbag48
(g64
g50
NtRp3286
(dp3287
g53
(dp3288
sg62
g3257
sg55
(lp3289
g48
(g69
g50
NtRp3290
(dp3291
g53
(dp3292
sg62
g3286
sg55
(lp3293
g48
(g49
g50
NtRp3294
(dp3295
g53
(dp3296
g61
I1
ssg62
g3290
sg55
(lp3297
S'/admin/default/edit/Desglosar_Emails/views/default/borrardb.html'
p3298
asbasbasbasbasbasbasbag48
(g64
g50
NtRp3299
(dp3300
g53
(dp3301
sg62
g3187
sg55
(lp3302
g48
(g69
g50
NtRp3303
(dp3304
g53
(dp3305
sg62
g3299
sg55
(lp3306
g48
(g49
g50
NtRp3307
(dp3308
g53
(dp3309
g61
I2
ssg62
g3303
sg55
(lp3310
g48
(g57
g50
NtRp3311
(dp3312
g53
(dp3313
g61
I1
ssg62
Nsg55
(lp3314
g48
(g64
g50
NtRp3315
(dp3316
g53
(dp3317
sg62
g3311
sg55
(lp3318
g48
(g69
g50
NtRp3319
(dp3320
g53
(dp3321
sg62
g3315
sg55
(lp3322
g48
(g49
g50
NtRp3323
(dp3324
g53
(dp3325
g61
I1
ssg62
g3319
sg55
(lp3326
g3078
(S's\x12\x00\x00\x00Dise\xc3\xb1o de p\xc3\xa1gina'
tRp3327
asbasbasbag48
(g64
g50
NtRp3328
(dp3329
g53
(dp3330
sg62
g3311
sg55
(lp3331
g48
(g69
g50
NtRp3332
(dp3333
g53
(dp3334
sg62
g3328
sg55
(lp3335
g48
(g49
g50
NtRp3336
(dp3337
g53
(dp3338
g61
I1
ssg62
g3332
sg55
(lp3339
I00
asbasbasbag48
(g64
g50
NtRp3340
(dp3341
g53
(dp3342
sg62
g3311
sg55
(lp3343
g48
(g69
g50
NtRp3344
(dp3345
g53
(dp3346
sg62
g3340
sg55
(lp3347
g48
(g49
g50
NtRp3348
(dp3349
g53
(dp3350
g61
I1
ssg62
g3344
sg55
(lp3351
S'/admin/default/edit/Desglosar_Emails/views/layout.html'
p3352
asbasbasbasbasbasbasbag48
(g64
g50
NtRp3353
(dp3354
g53
(dp3355
sg62
g3187
sg55
(lp3356
g48
(g69
g50
NtRp3357
(dp3358
g53
(dp3359
sg62
g3353
sg55
(lp3360
g48
(g49
g50
NtRp3361
(dp3362
g53
(dp3363
g61
I2
ssg62
g3357
sg55
(lp3364
g48
(g57
g50
NtRp3365
(dp3366
g53
(dp3367
g61
I1
ssg62
Nsg55
(lp3368
g48
(g64
g50
NtRp3369
(dp3370
g53
(dp3371
sg62
g3365
sg55
(lp3372
g48
(g69
g50
NtRp3373
(dp3374
g53
(dp3375
sg62
g3369
sg55
(lp3376
g48
(g49
g50
NtRp3377
(dp3378
g53
(dp3379
g61
I1
ssg62
g3373
sg55
(lp3380
g3078
(S's\x0e\x00\x00\x00Hoja de estilo'
tRp3381
asbasbasbag48
(g64
g50
NtRp3382
(dp3383
g53
(dp3384
sg62
g3365
sg55
(lp3385
g48
(g69
g50
NtRp3386
(dp3387
g53
(dp3388
sg62
g3382
sg55
(lp3389
g48
(g49
g50
NtRp3390
(dp3391
g53
(dp3392
g61
I1
ssg62
g3386
sg55
(lp3393
I00
asbasbasbag48
(g64
g50
NtRp3394
(dp3395
g53
(dp3396
sg62
g3365
sg55
(lp3397
g48
(g69
g50
NtRp3398
(dp3399
g53
(dp3400
sg62
g3394
sg55
(lp3401
g48
(g49
g50
NtRp3402
(dp3403
g53
(dp3404
g61
I1
ssg62
g3398
sg55
(lp3405
S'/admin/default/edit/Desglosar_Emails/static/base.css'
p3406
asbasbasbasbasbasbasbag48
(g64
g50
NtRp3407
(dp3408
g53
(dp3409
sg62
g3187
sg55
(lp3410
g48
(g69
g50
NtRp3411
(dp3412
g53
(dp3413
sg62
g3407
sg55
(lp3414
g48
(g49
g50
NtRp3415
(dp3416
g53
(dp3417
g61
I2
ssg62
g3411
sg55
(lp3418
g48
(g57
g50
NtRp3419
(dp3420
g53
(dp3421
g61
I1
ssg62
Nsg55
(lp3422
g48
(g64
g50
NtRp3423
(dp3424
g53
(dp3425
sg62
g3419
sg55
(lp3426
g48
(g69
g50
NtRp3427
(dp3428
g53
(dp3429
sg62
g3423
sg55
(lp3430
g48
(g49
g50
NtRp3431
(dp3432
g53
(dp3433
g61
I1
ssg62
g3427
sg55
(lp3434
g3078
(S's\x0b\x00\x00\x00Modelo "db"'
tRp3435
asbasbasbag48
(g64
g50
NtRp3436
(dp3437
g53
(dp3438
sg62
g3419
sg55
(lp3439
g48
(g69
g50
NtRp3440
(dp3441
g53
(dp3442
sg62
g3436
sg55
(lp3443
g48
(g49
g50
NtRp3444
(dp3445
g53
(dp3446
g61
I1
ssg62
g3440
sg55
(lp3447
I00
asbasbasbag48
(g64
g50
NtRp3448
(dp3449
g53
(dp3450
sg62
g3419
sg55
(lp3451
g48
(g69
g50
NtRp3452
(dp3453
g53
(dp3454
sg62
g3448
sg55
(lp3455
g48
(g49
g50
NtRp3456
(dp3457
g53
(dp3458
g61
I1
ssg62
g3452
sg55
(lp3459
S'/admin/default/edit/Desglosar_Emails/models/db.py'
p3460
asbasbasbasbasbasbasbag48
(g64
g50
NtRp3461
(dp3462
g53
(dp3463
sg62
g3187
sg55
(lp3464
g48
(g69
g50
NtRp3465
(dp3466
g53
(dp3467
sg62
g3461
sg55
(lp3468
g48
(g49
g50
NtRp3469
(dp3470
g53
(dp3471
g61
I2
ssg62
g3465
sg55
(lp3472
g48
(g57
g50
NtRp3473
(dp3474
g53
(dp3475
g61
I1
ssg62
Nsg55
(lp3476
g48
(g64
g50
NtRp3477
(dp3478
g53
(dp3479
sg62
g3473
sg55
(lp3480
g48
(g69
g50
NtRp3481
(dp3482
g53
(dp3483
sg62
g3477
sg55
(lp3484
g48
(g49
g50
NtRp3485
(dp3486
g53
(dp3487
g61
I1
ssg62
g3481
sg55
(lp3488
g3078
(S's\r\x00\x00\x00Modelo "menu"'
tRp3489
asbasbasbag48
(g64
g50
NtRp3490
(dp3491
g53
(dp3492
sg62
g3473
sg55
(lp3493
g48
(g69
g50
NtRp3494
(dp3495
g53
(dp3496
sg62
g3490
sg55
(lp3497
g48
(g49
g50
NtRp3498
(dp3499
g53
(dp3500
g61
I1
ssg62
g3494
sg55
(lp3501
I00
asbasbasbag48
(g64
g50
NtRp3502
(dp3503
g53
(dp3504
sg62
g3473
sg55
(lp3505
g48
(g69
g50
NtRp3506
(dp3507
g53
(dp3508
sg62
g3502
sg55
(lp3509
g48
(g49
g50
NtRp3510
(dp3511
g53
(dp3512
g61
I1
ssg62
g3506
sg55
(lp3513
S'/admin/default/edit/Desglosar_Emails/models/menu.py'
p3514
asbasbasbasbasbasbasbag48
(g64
g50
NtRp3515
(dp3516
g53
(dp3517
sg62
g3187
sg55
(lp3518
g48
(g69
g50
NtRp3519
(dp3520
g53
(dp3521
sg62
g3515
sg55
(lp3522
g48
(g49
g50
NtRp3523
(dp3524
g53
(dp3525
g61
I2
ssg62
g3519
sg55
(lp3526
g48
(g57
g50
NtRp3527
(dp3528
g53
(dp3529
g61
I1
ssg62
Nsg55
(lp3530
g48
(g64
g50
NtRp3531
(dp3532
g53
(dp3533
sg62
g3527
sg55
(lp3534
g48
(g69
g50
NtRp3535
(dp3536
g53
(dp3537
sg62
g3531
sg55
(lp3538
g48
(g49
g50
NtRp3539
(dp3540
g53
(dp3541
g61
I1
ssg62
g3535
sg55
(lp3542
g3078
(S's\r\x00\x00\x00Base de datos'
tRp3543
asbasbasbag48
(g64
g50
NtRp3544
(dp3545
g53
(dp3546
sg62
g3527
sg55
(lp3547
g48
(g69
g50
NtRp3548
(dp3549
g53
(dp3550
sg62
g3544
sg55
(lp3551
g48
(g49
g50
NtRp3552
(dp3553
g53
(dp3554
g61
I1
ssg62
g3548
sg55
(lp3555
I00
asbasbasbag48
(g64
g50
NtRp3556
(dp3557
g53
(dp3558
sg62
g3527
sg55
(lp3559
g48
(g69
g50
NtRp3560
(dp3561
g53
(dp3562
sg62
g3556
sg55
(lp3563
g48
(g49
g50
NtRp3564
(dp3565
g53
(dp3566
g61
I1
ssg62
g3560
sg55
(lp3567
S'/Desglosar_Emails/appadmin/index'
p3568
asbasbasbasbasbasbasbag48
(g64
g50
NtRp3569
(dp3570
g53
(dp3571
sg62
g3187
sg55
(lp3572
g48
(g69
g50
NtRp3573
(dp3574
g53
(dp3575
sg62
g3569
sg55
(lp3576
g48
(g49
g50
NtRp3577
(dp3578
g53
(dp3579
g61
I2
ssg62
g3573
sg55
(lp3580
g48
(g57
g50
NtRp3581
(dp3582
g53
(dp3583
g61
I1
ssg62
Nsg55
(lp3584
g48
(g64
g50
NtRp3585
(dp3586
g53
(dp3587
sg62
g3581
sg55
(lp3588
g48
(g69
g50
NtRp3589
(dp3590
g53
(dp3591
sg62
g3585
sg55
(lp3592
g48
(g49
g50
NtRp3593
(dp3594
g53
(dp3595
g61
I1
ssg62
g3589
sg55
(lp3596
g3078
(S't\x06\x00\x00\x00Errors'
tRp3597
asbasbasbag48
(g64
g50
NtRp3598
(dp3599
g53
(dp3600
sg62
g3581
sg55
(lp3601
g48
(g69
g50
NtRp3602
(dp3603
g53
(dp3604
sg62
g3598
sg55
(lp3605
g48
(g49
g50
NtRp3606
(dp3607
g53
(dp3608
g61
I1
ssg62
g3602
sg55
(lp3609
I00
asbasbasbag48
(g64
g50
NtRp3610
(dp3611
g53
(dp3612
sg62
g3581
sg55
(lp3613
g48
(g69
g50
NtRp3614
(dp3615
g53
(dp3616
sg62
g3610
sg55
(lp3617
g48
(g49
g50
NtRp3618
(dp3619
g53
(dp3620
g61
I1
ssg62
g3614
sg55
(lp3621
S'/admin/default/errors/Desglosar_Emails'
p3622
asbasbasbasbasbasbasbag48
(g64
g50
NtRp3623
(dp3624
g53
(dp3625
sg62
g3187
sg55
(lp3626
g48
(g69
g50
NtRp3627
(dp3628
g53
(dp3629
sg62
g3623
sg55
(lp3630
g48
(g49
g50
NtRp3631
(dp3632
g53
(dp3633
g61
I2
ssg62
g3627
sg55
(lp3634
g48
(g57
g50
NtRp3635
(dp3636
g53
(dp3637
g61
I1
ssg62
Nsg55
(lp3638
g48
(g64
g50
NtRp3639
(dp3640
g53
(dp3641
sg62
g3635
sg55
(lp3642
g48
(g69
g50
NtRp3643
(dp3644
g53
(dp3645
sg62
g3639
sg55
(lp3646
g48
(g49
g50
NtRp3647
(dp3648
g53
(dp3649
g61
I1
ssg62
g3643
sg55
(lp3650
g3078
(S's\t\x00\x00\x00Acerca de'
tRp3651
asbasbasbag48
(g64
g50
NtRp3652
(dp3653
g53
(dp3654
sg62
g3635
sg55
(lp3655
g48
(g69
g50
NtRp3656
(dp3657
g53
(dp3658
sg62
g3652
sg55
(lp3659
g48
(g49
g50
NtRp3660
(dp3661
g53
(dp3662
g61
I1
ssg62
g3656
sg55
(lp3663
I00
asbasbasbag48
(g64
g50
NtRp3664
(dp3665
g53
(dp3666
sg62
g3635
sg55
(lp3667
g48
(g69
g50
NtRp3668
(dp3669
g53
(dp3670
sg62
g3664
sg55
(lp3671
g48
(g49
g50
NtRp3672
(dp3673
g53
(dp3674
g61
I1
ssg62
g3668
sg55
(lp3675
S'/admin/default/about/Desglosar_Emails'
p3676
asbasbasbasbasbasbasbasbasbasbasbasbasbasbasbag48
(g64
g50
NtRp3677
(dp3678
g53
(dp3679
sg62
g3046
sg55
(lp3680
g48
(g69
g50
NtRp3681
(dp3682
g53
(dp3683
sg62
g3677
sg55
(lp3684
g48
(g49
g50
NtRp3685
(dp3686
g53
(dp3687
g61
I4
ssg62
g3681
sg55
(lp3688
g48
(g57
g50
NtRp3689
(dp3690
g53
(dp3691
g61
I3
ssg62
Nsg55
(lp3692
g48
(g64
g50
NtRp3693
(dp3694
g53
(dp3695
sg62
g3689
sg55
(lp3696
g48
(g69
g50
NtRp3697
(dp3698
g53
(dp3699
sg62
g3693
sg55
(lp3700
g48
(g49
g50
NtRp3701
(dp3702
g53
(dp3703
g61
I3
ssg62
g3697
sg55
(lp3704
g3078
(S't\t\x00\x00\x00Resources'
tRp3705
asbasbasbag48
(g64
g50
NtRp3706
(dp3707
g53
(dp3708
sg62
g3689
sg55
(lp3709
g48
(g69
g50
NtRp3710
(dp3711
g53
(dp3712
sg62
g3706
sg55
(lp3713
g48
(g49
g50
NtRp3714
(dp3715
g53
(dp3716
g61
I3
ssg62
g3710
sg55
(lp3717
g91
asbasbasbag48
(g64
g50
NtRp3718
(dp3719
g53
(dp3720
sg62
g3689
sg55
(lp3721
g48
(g69
g50
NtRp3722
(dp3723
g53
(dp3724
sg62
g3718
sg55
(lp3725
g48
(g49
g50
NtRp3726
(dp3727
g53
(dp3728
g61
I3
ssg62
g3722
sg55
(lp3729
S'None'
p3730
asbasbasbag48
(g64
g50
NtRp3731
(dp3732
g53
(dp3733
sg62
g3689
sg55
(lp3734
g48
(g69
g50
NtRp3735
(dp3736
g53
(dp3737
sg62
g3731
sg55
(lp3738
g48
(g49
g50
NtRp3739
(dp3740
g53
(dp3741
g61
I3
ssg62
g3735
sg55
(lp3742
g48
(g57
g50
NtRp3743
(dp3744
g53
(dp3745
g61
I2
ssg62
Nsg55
(lp3746
g48
(g64
g50
NtRp3747
(dp3748
g53
(dp3749
sg62
g3743
sg55
(lp3750
g48
(g69
g50
NtRp3751
(dp3752
g53
(dp3753
sg62
g3747
sg55
(lp3754
g48
(g49
g50
NtRp3755
(dp3756
g53
(dp3757
g61
I2
ssg62
g3751
sg55
(lp3758
g48
(g57
g50
NtRp3759
(dp3760
g53
(dp3761
g61
I1
ssg62
Nsg55
(lp3762
g48
(g64
g50
NtRp3763
(dp3764
g53
(dp3765
sg62
g3759
sg55
(lp3766
g48
(g69
g50
NtRp3767
(dp3768
g53
(dp3769
sg62
g3763
sg55
(lp3770
g48
(g49
g50
NtRp3771
(dp3772
g53
(dp3773
g61
I1
ssg62
g3767
sg55
(lp3774
g3078
(S's\x0e\x00\x00\x00Documentaci\xc3\xb3n'
tRp3775
asbasbasbag48
(g64
g50
NtRp3776
(dp3777
g53
(dp3778
sg62
g3759
sg55
(lp3779
g48
(g69
g50
NtRp3780
(dp3781
g53
(dp3782
sg62
g3776
sg55
(lp3783
g48
(g49
g50
NtRp3784
(dp3785
g53
(dp3786
g61
I1
ssg62
g3780
sg55
(lp3787
I00
asbasbasbag48
(g64
g50
NtRp3788
(dp3789
g53
(dp3790
sg62
g3759
sg55
(lp3791
g48
(g69
g50
NtRp3792
(dp3793
g53
(dp3794
sg62
g3788
sg55
(lp3795
g48
(g49
g50
NtRp3796
(dp3797
g53
(dp3798
g61
I1
ssg62
g3792
sg55
(lp3799
S'http://www.web2py.com/book'
p3800
asbasbasbag48
(g64
g50
NtRp3801
(dp3802
g53
(dp3803
sg62
g3759
sg55
(lp3804
g48
(g69
g50
NtRp3805
(dp3806
g53
(dp3807
sg62
g3801
sg55
(lp3808
g48
(g49
g50
NtRp3809
(dp3810
g53
(dp3811
g61
I1
ssg62
g3805
sg55
(lp3812
(lp3813
(g3078
(S't\x07\x00\x00\x00Preface'
tRp3814
I00
S'http://www.web2py.com/book/default/chapter/00'
tp3815
a(g3078
(S't\x0c\x00\x00\x00Introduction'
tRp3816
I00
S'http://www.web2py.com/book/default/chapter/01'
tp3817
a(g3078
(S't\x06\x00\x00\x00Python'
tRp3818
I00
S'http://www.web2py.com/book/default/chapter/02'
tp3819
a(g3078
(S't\x08\x00\x00\x00Overview'
tRp3820
I00
S'http://www.web2py.com/book/default/chapter/03'
tp3821
a(g3078
(S's\x08\x00\x00\x00The Core'
tRp3822
I00
S'http://www.web2py.com/book/default/chapter/04'
tp3823
a(g3078
(S's\t\x00\x00\x00The Views'
tRp3824
I00
S'http://www.web2py.com/book/default/chapter/05'
tp3825
a(g3078
(S's\r\x00\x00\x00Base de datos'
tRp3826
I00
S'http://www.web2py.com/book/default/chapter/06'
tp3827
a(g3078
(S's\x14\x00\x00\x00Forms and Validators'
tRp3828
I00
S'http://www.web2py.com/book/default/chapter/07'
tp3829
a(g3078
(S's\x0e\x00\x00\x00Access Control'
tRp3830
I00
S'http://www.web2py.com/book/default/chapter/08'
tp3831
a(g3078
(S't\x08\x00\x00\x00Services'
tRp3832
I00
S'http://www.web2py.com/book/default/chapter/09'
tp3833
a(g3078
(S's\x0c\x00\x00\x00Ajax Recipes'
tRp3834
I00
S'http://www.web2py.com/book/default/chapter/10'
tp3835
a(g3078
(S's\x12\x00\x00\x00Deployment Recipes'
tRp3836
I00
S'http://www.web2py.com/book/default/chapter/11'
tp3837
a(g3078
(S's\r\x00\x00\x00Other Recipes'
tRp3838
I00
S'http://www.web2py.com/book/default/chapter/12'
tp3839
a(g3078
(S's\r\x00\x00\x00Buy this book'
tRp3840
I00
S'http://stores.lulu.com/web2py'
tp3841
aasbasbasbasbasbasbasbag48
(g64
g50
NtRp3842
(dp3843
g53
(dp3844
sg62
g3743
sg55
(lp3845
g48
(g69
g50
NtRp3846
(dp3847
g53
(dp3848
sg62
g3842
sg55
(lp3849
g48
(g49
g50
NtRp3850
(dp3851
g53
(dp3852
g61
I2
ssg62
g3846
sg55
(lp3853
g48
(g57
g50
NtRp3854
(dp3855
g53
(dp3856
g61
I1
ssg62
Nsg55
(lp3857
g48
(g64
g50
NtRp3858
(dp3859
g53
(dp3860
sg62
g3854
sg55
(lp3861
g48
(g69
g50
NtRp3862
(dp3863
g53
(dp3864
sg62
g3858
sg55
(lp3865
g48
(g49
g50
NtRp3866
(dp3867
g53
(dp3868
g61
I1
ssg62
g3862
sg55
(lp3869
g3078
(S't\t\x00\x00\x00Community'
tRp3870
asbasbasbag48
(g64
g50
NtRp3871
(dp3872
g53
(dp3873
sg62
g3854
sg55
(lp3874
g48
(g69
g50
NtRp3875
(dp3876
g53
(dp3877
sg62
g3871
sg55
(lp3878
g48
(g49
g50
NtRp3879
(dp3880
g53
(dp3881
g61
I1
ssg62
g3875
sg55
(lp3882
I00
asbasbasbag48
(g64
g50
NtRp3883
(dp3884
g53
(dp3885
sg62
g3854
sg55
(lp3886
g48
(g69
g50
NtRp3887
(dp3888
g53
(dp3889
sg62
g3883
sg55
(lp3890
g48
(g49
g50
NtRp3891
(dp3892
g53
(dp3893
g61
I1
ssg62
g3887
sg55
(lp3894
Nasbasbasbag48
(g64
g50
NtRp3895
(dp3896
g53
(dp3897
sg62
g3854
sg55
(lp3898
g48
(g69
g50
NtRp3899
(dp3900
g53
(dp3901
sg62
g3895
sg55
(lp3902
g48
(g49
g50
NtRp3903
(dp3904
g53
(dp3905
g61
I1
ssg62
g3899
sg55
(lp3906
(lp3907
(g3078
(S't\x06\x00\x00\x00Groups'
tRp3908
I00
S'http://www.web2py.com/examples/default/usergroups'
tp3909
a(g3078
(S't\x07\x00\x00\x00Twitter'
tRp3910
I00
S'http://twitter.com/web2py'
tp3911
a(g3078
(S's\t\x00\x00\x00Live chat'
tRp3912
I00
S'http://mibbit.com/?channel=%23web2py&server=irc.mibbit.net'
tp3913
a(g3078
(S's\n\x00\x00\x00User Voice'
tRp3914
I00
S'http://web2py.uservoice.com/'
tp3915
aasbasbasbasbasbasbasbag48
(g64
g50
NtRp3916
(dp3917
g53
(dp3918
sg62
g3743
sg55
(lp3919
g48
(g69
g50
NtRp3920
(dp3921
g53
(dp3922
sg62
g3916
sg55
(lp3923
g48
(g49
g50
NtRp3924
(dp3925
g53
(dp3926
g61
I2
ssg62
g3920
sg55
(lp3927
g48
(g57
g50
NtRp3928
(dp3929
g53
(dp3930
g61
I1
ssg62
Nsg55
(lp3931
g48
(g64
g50
NtRp3932
(dp3933
g53
(dp3934
sg62
g3928
sg55
(lp3935
g48
(g69
g50
NtRp3936
(dp3937
g53
(dp3938
sg62
g3932
sg55
(lp3939
g48
(g49
g50
NtRp3940
(dp3941
g53
(dp3942
g61
I1
ssg62
g3936
sg55
(lp3943
g3078
(S't\x06\x00\x00\x00Web2py'
tRp3944
asbasbasbag48
(g64
g50
NtRp3945
(dp3946
g53
(dp3947
sg62
g3928
sg55
(lp3948
g48
(g69
g50
NtRp3949
(dp3950
g53
(dp3951
sg62
g3945
sg55
(lp3952
g48
(g49
g50
NtRp3953
(dp3954
g53
(dp3955
g61
I1
ssg62
g3949
sg55
(lp3956
I00
asbasbasbag48
(g64
g50
NtRp3957
(dp3958
g53
(dp3959
sg62
g3928
sg55
(lp3960
g48
(g69
g50
NtRp3961
(dp3962
g53
(dp3963
sg62
g3957
sg55
(lp3964
g48
(g49
g50
NtRp3965
(dp3966
g53
(dp3967
g61
I1
ssg62
g3961
sg55
(lp3968
S'http://www.web2py.com'
p3969
asbasbasbag48
(g64
g50
NtRp3970
(dp3971
g53
(dp3972
sg62
g3928
sg55
(lp3973
g48
(g69
g50
NtRp3974
(dp3975
g53
(dp3976
sg62
g3970
sg55
(lp3977
g48
(g49
g50
NtRp3978
(dp3979
g53
(dp3980
g61
I1
ssg62
g3974
sg55
(lp3981
(lp3982
(g3078
(S't\x08\x00\x00\x00Download'
tRp3983
I00
S'http://www.web2py.com/examples/default/download'
tp3984
a(g3078
(S't\x07\x00\x00\x00Support'
tRp3985
I00
S'http://www.web2py.com/examples/default/support'
tp3986
a(g3078
(S's\x0e\x00\x00\x00Quick Examples'
tRp3987
I00
S'http://web2py.com/examples/default/examples'
tp3988
a(g3078
(S't\x03\x00\x00\x00FAQ'
tRp3989
I00
S'http://web2py.com/AlterEgo'
tp3990
a(g3078
(S's\x11\x00\x00\x00Free Applications'
tRp3991
I00
S'http://web2py.com/appliances'
tp3992
a(g3078
(S't\x07\x00\x00\x00Plugins'
tRp3993
I00
S'http://web2py.com/plugins'
tp3994
a(g3078
(S't\x07\x00\x00\x00Recipes'
tRp3995
I00
S'http://web2pyslices.com/'
tp3996
a(g3078
(S't\x04\x00\x00\x00Demo'
tRp3997
I00
S'http://web2py.com/demo_admin'
tp3998
a(g3078
(S't\x08\x00\x00\x00Semantic'
tRp3999
I00
S'http://web2py.com/semantic'
tp4000
a(g3078
(S't\x07\x00\x00\x00Layouts'
tRp4001
I00
S'http://web2py.com/layouts'
tp4002
a(g3078
(S't\x06\x00\x00\x00Videos'
tRp4003
I00
S'http://www.web2py.com/examples/default/videos/'
tp4004
aasbasbasbasbasbasbasbasbasbasbasbasbasbasbasbasbasbasbasbag48
(g64
g50
NtRp4005
(dp4006
g53
(dp4007
sg62
g2605
sg55
(lp4008
g48
(g69
g50
NtRp4009
(dp4010
g53
(dp4011
g73
g74
ssg62
g4005
sg55
(lp4012
S'meta'
p4013
asbag48
(g69
g50
NtRp4014
(dp4015
g53
(dp4016
g80
g81
ssg62
g4005
sg55
(lp4017
S':'
asbag48
(g69
g50
NtRp4018
(dp4019
g53
(dp4020
sg62
g4005
sg55
(lp4021
g48
(g49
g50
NtRp4022
(dp4023
g53
(dp4024
g61
I5
ssg62
g4018
sg55
(lp4025
g48
(g57
g50
NtRp4026
(dp4027
g53
(dp4028
g61
I4
ssg62
Nsg55
(lp4029
g48
(g64
g50
NtRp4030
(dp4031
g53
(dp4032
sg62
g4026
sg55
(lp4033
g48
(g69
g50
NtRp4034
(dp4035
g53
(dp4036
g73
g74
ssg62
g4030
sg55
(lp4037
S'author'
p4038
asbag48
(g69
g50
NtRp4039
(dp4040
g53
(dp4041
g80
g81
ssg62
g4030
sg55
(lp4042
S':'
asbag48
(g69
g50
NtRp4043
(dp4044
g53
(dp4045
sg62
g4030
sg55
(lp4046
g48
(g49
g50
NtRp4047
(dp4048
g53
(dp4049
g61
I4
ssg62
g4043
sg55
(lp4050
S'you'
p4051
asbasbasbag48
(g64
g50
NtRp4052
(dp4053
g53
(dp4054
sg62
g4026
sg55
(lp4055
g48
(g69
g50
NtRp4056
(dp4057
g53
(dp4058
g73
g74
ssg62
g4052
sg55
(lp4059
S'copyright'
p4060
asbag48
(g69
g50
NtRp4061
(dp4062
g53
(dp4063
g80
g81
ssg62
g4052
sg55
(lp4064
S':'
asbag48
(g69
g50
NtRp4065
(dp4066
g53
(dp4067
sg62
g4052
sg55
(lp4068
g48
(g49
g50
NtRp4069
(dp4070
g53
(dp4071
g61
I4
ssg62
g4065
sg55
(lp4072
S'Copyright 2007-2010'
p4073
asbasbasbag48
(g64
g50
NtRp4074
(dp4075
g53
(dp4076
sg62
g4026
sg55
(lp4077
g48
(g69
g50
NtRp4078
(dp4079
g53
(dp4080
g73
g74
ssg62
g4074
sg55
(lp4081
S'description'
p4082
asbag48
(g69
g50
NtRp4083
(dp4084
g53
(dp4085
g80
g81
ssg62
g4074
sg55
(lp4086
S':'
asbag48
(g69
g50
NtRp4087
(dp4088
g53
(dp4089
sg62
g4074
sg55
(lp4090
g48
(g49
g50
NtRp4091
(dp4092
g53
(dp4093
g61
I4
ssg62
g4087
sg55
(lp4094
S'Free and open source full-stack enterprise framework for agile development of fast, scalable, secure and portable database-driven web-based applications. Written and programmable in Python'
p4095
asbasbasbag48
(g64
g50
NtRp4096
(dp4097
g53
(dp4098
sg62
g4026
sg55
(lp4099
g48
(g69
g50
NtRp4100
(dp4101
g53
(dp4102
g73
g74
ssg62
g4096
sg55
(lp4103
S'generator'
p4104
asbag48
(g69
g50
NtRp4105
(dp4106
g53
(dp4107
g80
g81
ssg62
g4096
sg55
(lp4108
S':'
asbag48
(g69
g50
NtRp4109
(dp4110
g53
(dp4111
sg62
g4096
sg55
(lp4112
g48
(g49
g50
NtRp4113
(dp4114
g53
(dp4115
g61
I4
ssg62
g4109
sg55
(lp4116
S'Web2py Enterprise Framework'
p4117
asbasbasbag48
(g64
g50
NtRp4118
(dp4119
g53
(dp4120
sg62
g4026
sg55
(lp4121
g48
(g69
g50
NtRp4122
(dp4123
g53
(dp4124
g73
g74
ssg62
g4118
sg55
(lp4125
S'keywords'
p4126
asbag48
(g69
g50
NtRp4127
(dp4128
g53
(dp4129
g80
g81
ssg62
g4118
sg55
(lp4130
S':'
asbag48
(g69
g50
NtRp4131
(dp4132
g53
(dp4133
sg62
g4118
sg55
(lp4134
g48
(g49
g50
NtRp4135
(dp4136
g53
(dp4137
g61
I4
ssg62
g4131
sg55
(lp4138
S'web2py, python, framework'
p4139
asbasbasbasbasbasbasbag48
(g64
g50
NtRp4140
(dp4141
g53
(dp4142
sg62
g2605
sg55
(lp4143
g48
(g69
g50
NtRp4144
(dp4145
g53
(dp4146
g73
g74
ssg62
g4140
sg55
(lp4147
S'postprocessing'
p4148
asbag48
(g69
g50
NtRp4149
(dp4150
g53
(dp4151
g80
g81
ssg62
g4140
sg55
(lp4152
S':'
asbag48
(g69
g50
NtRp4153
(dp4154
g53
(dp4155
sg62
g4140
sg55
(lp4156
g48
(g49
g50
NtRp4157
(dp4158
g53
(dp4159
g61
I5
ssg62
g4153
sg55
(lp4160
g48
(g57
g50
NtRp4161
(dp4162
g53
(dp4163
g61
I4
ssg62
Nsg55
(lp4164
sbasbasbasbag48
(g64
g50
NtRp4165
(dp4166
g53
(dp4167
sg62
g2605
sg55
(lp4168
g48
(g69
g50
NtRp4169
(dp4170
g53
(dp4171
g73
g74
ssg62
g4165
sg55
(lp4172
S'session_file'
p4173
asbag48
(g69
g50
NtRp4174
(dp4175
g53
(dp4176
g80
g81
ssg62
g4165
sg55
(lp4177
S':'
asbag48
(g69
g50
NtRp4178
(dp4179
g53
(dp4180
sg62
g4165
sg55
(lp4181
g48
(g49
g50
NtRp4182
(dp4183
g53
(dp4184
g61
I5
ssg62
g4178
sg55
(lp4185
S"<open file 'C:\\Users\\Atomico\\web2py\\applications\\Desglosar_Emails\\sessions\\127.0.0.1-78cf8050-df87-4502-afb9-ed0c3843b414', mode 'rb+' at 0x0834D458>"
p4186
asbasbasbag48
(g64
g50
NtRp4187
(dp4188
g53
(dp4189
sg62
g2605
sg55
(lp4190
g48
(g69
g50
NtRp4191
(dp4192
g53
(dp4193
g73
g74
ssg62
g4187
sg55
(lp4194
S'session_filename'
p4195
asbag48
(g69
g50
NtRp4196
(dp4197
g53
(dp4198
g80
g81
ssg62
g4187
sg55
(lp4199
S':'
asbag48
(g69
g50
NtRp4200
(dp4201
g53
(dp4202
sg62
g4187
sg55
(lp4203
g48
(g49
g50
NtRp4204
(dp4205
g53
(dp4206
g61
I5
ssg62
g4200
sg55
(lp4207
S'C:\\Users\\Atomico\\web2py\\applications\\Desglosar_Emails\\sessions\\127.0.0.1-78cf8050-df87-4502-afb9-ed0c3843b414'
p4208
asbasbasbag48
(g64
g50
NtRp4209
(dp4210
g53
(dp4211
sg62
g2605
sg55
(lp4212
g48
(g69
g50
NtRp4213
(dp4214
g53
(dp4215
g73
g74
ssg62
g4209
sg55
(lp4216
S'session_id'
p4217
asbag48
(g69
g50
NtRp4218
(dp4219
g53
(dp4220
g80
g81
ssg62
g4209
sg55
(lp4221
S':'
asbag48
(g69
g50
NtRp4222
(dp4223
g53
(dp4224
sg62
g4209
sg55
(lp4225
g48
(g49
g50
NtRp4226
(dp4227
g53
(dp4228
g61
I5
ssg62
g4222
sg55
(lp4229
S'127.0.0.1-78cf8050-df87-4502-afb9-ed0c3843b414'
p4230
asbasbasbag48
(g64
g50
NtRp4231
(dp4232
g53
(dp4233
sg62
g2605
sg55
(lp4234
g48
(g69
g50
NtRp4235
(dp4236
g53
(dp4237
g73
g74
ssg62
g4231
sg55
(lp4238
S'session_id_name'
p4239
asbag48
(g69
g50
NtRp4240
(dp4241
g53
(dp4242
g80
g81
ssg62
g4231
sg55
(lp4243
S':'
asbag48
(g69
g50
NtRp4244
(dp4245
g53
(dp4246
sg62
g4231
sg55
(lp4247
g48
(g49
g50
NtRp4248
(dp4249
g53
(dp4250
g61
I5
ssg62
g4244
sg55
(lp4251
g2662
asbasbasbag48
(g64
g50
NtRp4252
(dp4253
g53
(dp4254
sg62
g2605
sg55
(lp4255
g48
(g69
g50
NtRp4256
(dp4257
g53
(dp4258
g73
g74
ssg62
g4252
sg55
(lp4259
S'session_locked'
p4260
asbag48
(g69
g50
NtRp4261
(dp4262
g53
(dp4263
g80
g81
ssg62
g4252
sg55
(lp4264
S':'
asbag48
(g69
g50
NtRp4265
(dp4266
g53
(dp4267
sg62
g4252
sg55
(lp4268
g48
(g49
g50
NtRp4269
(dp4270
g53
(dp4271
g61
I5
ssg62
g4265
sg55
(lp4272
g1521
asbasbasbag48
(g64
g50
NtRp4273
(dp4274
g53
(dp4275
sg62
g2605
sg55
(lp4276
g48
(g69
g50
NtRp4277
(dp4278
g53
(dp4279
g73
g74
ssg62
g4273
sg55
(lp4280
S'session_new'
p4281
asbag48
(g69
g50
NtRp4282
(dp4283
g53
(dp4284
g80
g81
ssg62
g4273
sg55
(lp4285
S':'
asbag48
(g69
g50
NtRp4286
(dp4287
g53
(dp4288
sg62
g4273
sg55
(lp4289
g48
(g49
g50
NtRp4290
(dp4291
g53
(dp4292
g61
I5
ssg62
g4286
sg55
(lp4293
g91
asbasbasbag48
(g64
g50
NtRp4294
(dp4295
g53
(dp4296
sg62
g2605
sg55
(lp4297
g48
(g69
g50
NtRp4298
(dp4299
g53
(dp4300
g73
g74
ssg62
g4294
sg55
(lp4301
S'status'
p4302
asbag48
(g69
g50
NtRp4303
(dp4304
g53
(dp4305
g80
g81
ssg62
g4294
sg55
(lp4306
S':'
asbag48
(g69
g50
NtRp4307
(dp4308
g53
(dp4309
sg62
g4294
sg55
(lp4310
g48
(g49
g50
NtRp4311
(dp4312
g53
(dp4313
g61
I5
ssg62
g4307
sg55
(lp4314
S'200'
p4315
asbasbasbag48
(g64
g50
NtRp4316
(dp4317
g53
(dp4318
sg62
g2605
sg55
(lp4319
g48
(g69
g50
NtRp4320
(dp4321
g53
(dp4322
g73
g74
ssg62
g4316
sg55
(lp4323
S'subtitle'
p4324
asbag48
(g69
g50
NtRp4325
(dp4326
g53
(dp4327
g80
g81
ssg62
g4316
sg55
(lp4328
S':'
asbag48
(g69
g50
NtRp4329
(dp4330
g53
(dp4331
sg62
g4316
sg55
(lp4332
g48
(g49
g50
NtRp4333
(dp4334
g53
(dp4335
g61
I5
ssg62
g4329
sg55
(lp4336
g3078
(S's\t\x00\x00\x00Adaptame!'
tRp4337
asbasbasbag48
(g64
g50
NtRp4338
(dp4339
g53
(dp4340
sg62
g2605
sg55
(lp4341
g48
(g69
g50
NtRp4342
(dp4343
g53
(dp4344
g73
g74
ssg62
g4338
sg55
(lp4345
S'title'
p4346
asbag48
(g69
g50
NtRp4347
(dp4348
g53
(dp4349
g80
g81
ssg62
g4338
sg55
(lp4350
S':'
asbag48
(g69
g50
NtRp4351
(dp4352
g53
(dp4353
sg62
g4338
sg55
(lp4354
g48
(g49
g50
NtRp4355
(dp4356
g53
(dp4357
g61
I5
ssg62
g4351
sg55
(lp4358
g113
asbasbasbag48
(g64
g50
NtRp4359
(dp4360
g53
(dp4361
sg62
g2605
sg55
(lp4362
g48
(g69
g50
NtRp4363
(dp4364
g53
(dp4365
g73
g74
ssg62
g4359
sg55
(lp4366
g1845
asbag48
(g69
g50
NtRp4367
(dp4368
g53
(dp4369
g80
g81
ssg62
g4359
sg55
(lp4370
S':'
asbag48
(g69
g50
NtRp4371
(dp4372
g53
(dp4373
sg62
g4359
sg55
(lp4374
g48
(g49
g50
NtRp4375
(dp4376
g53
(dp4377
g61
I5
ssg62
g4371
sg55
(lp4378
g1858
asbasbasbag48
(g64
g50
NtRp4379
(dp4380
g53
(dp4381
sg62
g2605
sg55
(lp4382
g48
(g69
g50
NtRp4383
(dp4384
g53
(dp4385
g73
g74
ssg62
g4379
sg55
(lp4386
S'view'
p4387
asbag48
(g69
g50
NtRp4388
(dp4389
g53
(dp4390
g80
g81
ssg62
g4379
sg55
(lp4391
S':'
asbag48
(g69
g50
NtRp4392
(dp4393
g53
(dp4394
sg62
g4379
sg55
(lp4395
g48
(g49
g50
NtRp4396
(dp4397
g53
(dp4398
g61
I5
ssg62
g4392
sg55
(lp4399
S'default/borrardb.html'
p4400
asbasbasbasbasbsS'locals'
p4401
(dp4402
S'self'
p4403
S"<Table {'remitentesant': <gluon.dal.Field object...>, 'id': <gluon.dal.Field object at 0x08411330>}>"
p4404
sS'key'
p4405
S"'dump'"
p4406
sssS'traceback'
p4407
S'Traceback (most recent call last):\n  File "gluon/restricted.py", line 192, in restricted\n  File "C:\\Users\\Atomico\\web2py\\applications\\Desglosar_Emails\\controllers/default.py", line 74, in <module>\n  File "gluon/globals.py", line 145, in <lambda>\n  File "C:\\Users\\Atomico\\web2py\\applications\\Desglosar_Emails\\controllers/default.py", line 70, in borrardb\n  File "gluon/dal.py", line 4731, in __getattr__\n  File "gluon/dal.py", line 4675, in __getitem__\nKeyError: \'dump\'\n'
p4408
s.