(dp1
S'output'
p2
S''
sS'layer'
p3
S'C:\\Users\\Atomico\\web2py\\applications\\Desglosar_Emails\\views\\default/entrada_mod3.html'
p4
sS'code'
p5
S'response.write(\'<!DOCTYPE html>\\n<html lang="\', escape=False)\nresponse.write(T.accepted_language or \'en\')\nresponse.write(\'" class="no-js"><!-- no-js need it for modernzr -->\\n  <head>\\n    \\n    <meta charset="utf-8" />\\t  \\t\\n    <!-- www.phpied.com/conditional-comments-block-downloads/ -->\\n    <!--[if IE]><![endif]-->    \\n    <!-- Always force latest IE rendering engine \\n\\t (even in intranet) & Chrome Frame \\n\\t Remove this if you use the .htaccess -->\\n    <meta http-equiv="X-UA-Compatible" content="IE=edge,chrome=1">\\n    \\n    <title>\', escape=False)\nresponse.write(response.title or request.application)\nresponse.write(\'</title>\\n    \\n    <!-- http://dev.w3.org/html5/markup/meta.name.html -->\\n    <meta name="application-name" content="\', escape=False)\nresponse.write(request.application)\nresponse.write(\'" />\\t\\n    \\n    <!-- Speaking of Google, don\\\'t forget to set your site up: \\n\\t http://google.com/webmasters -->\\n    <meta name="google-site-verification" content="" />\\n    \\n    <!--  Mobile Viewport Fix\\n\\t  j.mp/mobileviewport & davidbcalhoun.com/2010/viewport-metatag \\n\\t  device-width: Occupy full width of the screen in its current orientation\\n\\t  initial-scale = 1.0 retains dimensions instead of zooming out if page height > device height\\n\\t  maximum-scale = 1.0 retains dimensions instead of zooming in if page width < device width\\n      -->\\n    <meta name="viewport" content="width=device-width, initial-scale=1.0, maximum-scale=1.0">\\n    \\n    <!-- Place favicon.ico and apple-touch-icon.png in the root of your domain and delete these references -->\\n    <link rel="shortcut icon" href="\', escape=False)\nresponse.write(URL(\'static\',\'favicon.ico\'))\nresponse.write(\'" type="image/x-icon">\\n    <link rel="apple-touch-icon" href="\', escape=False)\nresponse.write(URL(\'static\',\'favicon.png\'))\nresponse.write(\'">\\n\\n    <!-- For the less-enabled mobile browsers like Opera Mini -->\\n    <link rel="stylesheet" media="handheld" href="\', escape=False)\nresponse.write(URL(\'static\',\'css/handheld.css\'))\nresponse.write(\'">\\n    \\n    <!-- All JavaScript at the bottom, except for Modernizr which enables HTML5 elements & feature detects -->\\n    <script src="\', escape=False)\nresponse.write(URL(\'static\',\'js/modernizr-1.7.min.js\'))\nresponse.write(\'"></script>\\n    \\n    \', escape=False)\n#------  require CSS and JS files for this page (read info in base.css) ------\nresponse.write(\'\\n    \', escape=False)\nresponse.files.append(URL(\'static\',\'css/base.css\'))\nresponse.write(\'\\n    \', escape=False)\nresponse.files.append(URL(\'static\',\'css/superfish.css\'))\nresponse.write(\'\\n    \', escape=False)\nresponse.files.append(URL(\'static\',\'js/superfish.js\'))\nresponse.write(\'\\n    \', escape=False)\n#------ include web2py specific js code (jquery, calendar, form stuff) ------\nresponse.write(\'\\n    \', escape=False)\nresponse.files.insert(0,URL(\'static\',\'js/jquery.js\'))\nresponse.files.insert(1,URL(\'static\',\'css/calendar.css\'))\nresponse.files.insert(2,URL(\'static\',\'js/calendar.js\'))\nfor _item in response.meta or []:\n    response.write(\'\\n     <meta name="\', escape=False)\n    response.write(_item)\n    response.write(\'" content="\', escape=False)\n    response.write(response.meta[_item])\n    response.write(\'" />\', escape=False)\n    pass\nfor _k,_file in enumerate(response.files or []):\n    if _file in response.files[:_k]:\n        continue\n    _file0=_file.lower().split(\'?\')[0]\n    if _file0.endswith(\'.css\'):\n        response.write(\'\\n     <link href="\', escape=False)\n        response.write(_file)\n        response.write(\'" rel="stylesheet" type="text/css" />\', escape=False)\n    elif _file0.endswith(\'.js\'):\n        response.write(\'\\n     <script src="\', escape=False)\n        response.write(_file)\n        response.write(\'" type="text/javascript"></script>\', escape=False)\n        pass\n    pass\nresponse.write(\'\\n    <script type="text/javascript"><!--\\n    // These variables are used by the web2py_ajax_init function in web2py_ajax.js (which is loaded below).\\n    var w2p_ajax_confirm_message = "\', escape=False)\nresponse.write(T(\'Are you sure you want to delete this object?\'))\nresponse.write(\'";\\n    var w2p_ajax_date_format = "\', escape=False)\nresponse.write(T(\'%Y-%m-%d\'))\nresponse.write(\'";\\n    var w2p_ajax_datetime_format = "\', escape=False)\nresponse.write(T(\'%Y-%m-%d %H:%M:%S\'))\nresponse.write(\'";\\n    //--></script>\\n    <script src="\', escape=False)\nresponse.write(URL(\'static\',\'js/web2py_ajax.js\'))\nresponse.write(\'" type="text/javascript"></script>\\n\', escape=False)\nresponse.write(\'\\n\\n    \', escape=False)\n#using sidebars need to know what sidebar you want to use\n#prior of using it, because of static width size of content, you can use\n#left_sidebar, right_sidebar, both or none (False left and right)\nleft_sidebar_enabled = globals().get(\'left_sidebar_enabled\',False)\nright_sidebar_enabled = globals().get(\'right_sidebar_enabled\',False)\nif left_sidebar_enabled and right_sidebar_enabled: width_content=\'63%\'\nelif left_sidebar_enabled != right_sidebar_enabled: width_content=\'740px\'\nelse: width_content=\'100%\'\nif left_sidebar_enabled: left_sidebar_style = \'style="display: block;"\'\nelse: left_sidebar_style = \'style="display: none;"\'\nif right_sidebar_enabled: right_sidebar_style = \'style="display: block;"\'\nelse: right_sidebar_style = \'style="display: none;"\'\nstyle_content = \'style="width: %s"\' % width_content\nresponse.write(\'\\n  </head>\\n  \\n  <!-- paulirish.com/2008/conditional-stylesheets-vs-css-hacks-answer-neither/ -->\\t\\n  <!--[if lt IE 7 ]> <body class="ie6"> <![endif]-->\\n  <!--[if IE 7 ]>    <body class="ie7"> <![endif]-->\\n  <!--[if IE 8 ]>    <body class="ie8"> <![endif]-->\\n  <!--[if IE 9 ]>    <body class="ie9"> <![endif]-->\\n  <!--[if (gt IE 9)|!(IE)]><!--> <body> <!--<![endif]-->\\n    \\n    <div class="flash">\', escape=False)\nresponse.write(response.flash or \'\')\nresponse.write(\'</div> <!-- notification div -->\\n    \\n    <div id="container">\\t      \\t\\t      \\t\\n      \\n      <div id="wrapper">\\t\\t\\n\\t\\n\\t<div id="header"> <!-- header and login nav -->\\n\\t  \', escape=False)\nresponse.write(\' <!-- this is default header -->\\n\\t  \', escape=False)\ntry:\n    response.write(auth.navbar(action=URL(\'default\',\'user\')))\nexcept:pass\nresponse.write(\'\\t\\t          \\n\\t  <h1><span id="appname">\', escape=False)\nresponse.write(request.application.capitalize())\nresponse.write(\'</span>App</h1>\\n\\t  <div style="clear: both;"></div><!-- Clear the divs -->\\n\\t  \', escape=False)\nresponse.write(\'\\t\\t\\t\\t  \\t\\t\\t\\t\\t  \\n\\t</div><!-- header  -->\\n\\t\\n\\t<div id="statusbar"><!-- statusbar is menu zone -->\\n\\t  \', escape=False)\nresponse.write(\' <!-- this is default statusbar -->\\n\\t  \', escape=False)\n#------ superfish menu ------\nresponse.write(\'\\n\\t  \', escape=False)\nresponse.write(MENU(response.menu,_class=\'sf-menu\'))\nresponse.write(\'\\n\\t  <script type="text/javascript">\\n\\t    jQuery(document).ready(function(){\\n\\t    jQuery(\\\'ul.sf-menu\\\').superfish();});\\n\\t  </script>\\n\\t  <div style="clear: both;"></div><!-- Clear the divs -->\\t\\n\\t  \', escape=False)\nresponse.write(\'\\t\\t\\t\\t\\n\\t</div><!-- statusbar -->\\n\\t\\n\\t<div id="page"> <!-- Here my central body -->\\t  \\n\\n\\t  \', escape=False)\nif left_sidebar_enabled:\n    response.write(\'\\n          <div id="left_sidebar" \', escape=False)\n    response.write(XML(left_sidebar_style))\n    response.write(\' >\\n            <div style="padding: 4px;">\\n\\t      \', escape=False)\n    response.write(\'Content Left Sidebar\', escape=False)\n    response.write(\'\\t\\t  \\n            </div>\\n          </div><!-- left_sidebar -->\\n\\t  \', escape=False)\n    pass\nresponse.write(\'\\n\\n\\t  <!-- content -->\\n\\t  <div id="content" \', escape=False)\nresponse.write(XML(style_content))\nresponse.write(\' >\\n\\t    \', escape=False)\nresponse.write(\'\\r\\n<h1>Esta es la plantilla default/entrada_mod3.html</h1>\\r\\n<h2>Formulario</h2>\\r\\n\', escape=False)\nresponse.write(form)\nresponse.write(\'\\r\\n<br/>\\r\\n<h3>Tratamientos</h3>\\r\\n\', escape=False)\ntextual=db(db.info4.id==1).select()[0]\ntxt=textual.texto\nimport re\npattern=re.compile("\\w+.\\w+.\\w+")\npatternemail=re.compile("@\\w+[.]\\w+.\\w+")\nres=pattern.findall(txt)\nres2=patternemail.findall(txt)\nfor i in res: response.write (i+\'    \')\nresponse.write(\'En total son \', escape=False)\nresponse.write(len(res))\nresponse.write(\' nombres sueltos <br/> \', escape=False)\nfor i in res2: response.write(i+\'    \')\nresponse.write(\'En total son \', escape=False)\nresponse.write(len(res2))\nresponse.write(\' conf de emails sueltos <br/> \', escape=False)\ni=0\nwhile i<len(res):\n    if not patternemail.search(res[i]):\n        cadena=\'\'\n        while not patternemail.search(res[i]):\n            cadena=cadena+res[i]\n            i=i+1\n            pass\n        db.contactos.insert(nombre=cadena,email=res[i])\n        i=i+1\n    else:\n        db.contactos.insert(email=res[i])\n        i=i+1\n        pass\n    pass\nresponse.write(\'\\r\\n\', escape=False)\nresponse.write(db.contactos perros)\nresponse.write(\'\\r\\n\', escape=False)\nresponse.write(\'\\t\\n\\t  </div>\\n\\t  <!-- content -->\\n\\n\\t  \', escape=False)\nif right_sidebar_enabled:\n    response.write(\'\\n          <div id="right_sidebar" \', escape=False)\n    response.write(XML(right_sidebar_style))\n    response.write(\' >\\n            <div style="padding: 4px;">\\n              \', escape=False)\n    response.write(\'Content Right Sidebar\', escape=False)\n    response.write(\'\\n            </div>\\n\\t  </div><!-- right_sidebar -->\\n          \', escape=False)\n    pass\nresponse.write(\'\\n\\n\\n\\t  <div style="clear: both;"></div><!-- Clear the divs -->\\n\\t  \\n\\t</div><!-- page -->\\t\\t\\t\\t\\t\\t\\t\\n\\t\\n\\t<div id="footer">\\n\\t  \', escape=False)\nresponse.write(\' <!-- this is default footer -->\\n\\t  <a href="http://www.web2py.com/" style="float: left; padding-right: 6px;">\\n\\t    <img src="\', escape=False)\nresponse.write(URL(\'static\',\'images/poweredby.png\'))\nresponse.write(\'"/>\\n\\t  </a>\\n\\t  \', escape=False)\nresponse.write(T(\'Copyright\'))\nresponse.write(\' &#169; 2010\\t\\t\\t\\t\\n\\t  <div style="clear: both;"></div><!-- Clear the divs -->\\n\\t  \', escape=False)\nresponse.write(\'\\n\\n\\t</div><!-- footer -->\\t\\t\\t\\n      </div><!-- wrapper -->\\n    </div><!-- container -->\\t\\t\\n    \\n    <!--[if lt IE 7 ]>\\n\\t<script src="\', escape=False)\nresponse.write(URL(\'static\',\'js/dd_belatedpng.js\'))\nresponse.write(\'"></script>\\n\\t<script> DD_belatedPNG.fix(\\\'img, .png_bg\\\'); //fix any <img> or .png_bg background-images </script>\\n\\t<![endif]-->\\n    \\n    <!-- asynchronous google analytics: mathiasbynens.be/notes/async-analytics-snippet \\n\\t change the UA-XXXXX-X to be your site\\\'s ID -->\\n    <!--   \\n\\t   <script>\\n\\t     var _gaq = [[\\\'_setAccount\\\', \\\'UA-XXXXX-X\\\'], [\\\'_trackPageview\\\']];\\n\\t     (function(d, t) {\\n\\t     var g = d.createElement(t),\\n\\t     s = d.getElementsByTagName(t)[0];\\n\\t     g.async = true;\\n\\t     g.src = \\\'//www.google-analytics.com/ga.js\\\';\\n\\t     s.parentNode.insertBefore(g, s);\\n\\t     })(document, \\\'script\\\');\\n\\t   </script>\\n\\t   -->    \\n  </body>\\n</html>\\n\', escape=False)'
p6
sS'snapshot'
p7
(dp8
S'exception'
p9
(dp10
S'__getslice__'
p11
S"<method-wrapper '__getslice__' of exceptions.SyntaxError object at 0x03303430>"
p12
sS'text'
p13
S"'response.write(db.contactos perros)\\n'"
p14
sS'__str__'
p15
S"<method-wrapper '__str__' of exceptions.SyntaxError object at 0x03303430>"
p16
sS'__reduce__'
p17
S'<built-in method __reduce__ of exceptions.SyntaxError object at 0x03303430>'
p18
sS'__dict__'
p19
S'{}'
p20
sS'__init__'
p21
S"<method-wrapper '__init__' of exceptions.SyntaxError object at 0x03303430>"
p22
sS'__setattr__'
p23
S"<method-wrapper '__setattr__' of exceptions.SyntaxError object at 0x03303430>"
p24
sS'__reduce_ex__'
p25
S'<built-in method __reduce_ex__ of exceptions.SyntaxError object at 0x03303430>'
p26
sS'__new__'
p27
S'<built-in method __new__ of type object at 0x1E1CDBD0>'
p28
sS'__class__'
p29
S"<type 'exceptions.SyntaxError'>"
p30
sS'filename'
p31
S"r'C:\\Users\\Atomico\\web2py\\applications\\Desglosar_Emails\\views\\default/entrada_mod3.html'"
p32
sS'lineno'
p33
S'134'
p34
sS'msg'
p35
S"'invalid syntax'"
p36
sS'__doc__'
p37
S"'Invalid syntax.'"
p38
sS'__getitem__'
p39
S"<method-wrapper '__getitem__' of exceptions.SyntaxError object at 0x03303430>"
p40
sS'__setstate__'
p41
S'<built-in method __setstate__ of exceptions.SyntaxError object at 0x03303430>'
p42
sS'__getattribute__'
p43
S"<method-wrapper '__getattribute__' of exceptions.SyntaxError object at 0x03303430>"
p44
sS'print_file_and_line'
p45
S'None'
p46
sS'args'
p47
S"('invalid syntax', (r'C:\\Users\\Atomico\\web2py\\applications\\Desglosar_Emails\\views\\default/entrada_mod3.html', 134, 34, 'response.write(db.contactos perros)\\n'))"
p48
sS'offset'
p49
S'34'
p50
sS'__delattr__'
p51
S"<method-wrapper '__delattr__' of exceptions.SyntaxError object at 0x03303430>"
p52
sS'__repr__'
p53
S"<method-wrapper '__repr__' of exceptions.SyntaxError object at 0x03303430>"
p54
sS'__hash__'
p55
S"<method-wrapper '__hash__' of exceptions.SyntaxError object at 0x03303430>"
p56
ssS'evalue'
p57
S'invalid syntax (default/entrada_mod3.html, line 134)'
p58
sS'request'
p59
ccopy_reg
_reconstructor
p60
(cgluon.html
BEAUTIFY
p61
c__builtin__
object
p62
NtRp63
(dp64
S'attributes'
p65
(dp66
sS'components'
p67
(lp68
g60
(cgluon.html
TABLE
p69
g62
NtRp70
(dp71
g65
(dp72
S'level'
p73
I5
ssS'parent'
p74
Nsg67
(lp75
g60
(cgluon.html
TR
p76
g62
NtRp77
(dp78
g65
(dp79
sg74
g70
sg67
(lp80
g60
(cgluon.html
TD
p81
g62
NtRp82
(dp83
g65
(dp84
S'_style'
p85
S'font-weight:bold;'
p86
ssg74
g77
sg67
(lp87
S'ajax'
p88
asbag60
(g81
g62
NtRp89
(dp90
g65
(dp91
S'_valign'
p92
S'top'
p93
ssg74
g77
sg67
(lp94
S':'
asbag60
(g81
g62
NtRp95
(dp96
g65
(dp97
sg74
g77
sg67
(lp98
g60
(g61
g62
NtRp99
(dp100
g65
(dp101
g73
I5
ssg74
g95
sg67
(lp102
S'False'
p103
asbasbasbag60
(g76
g62
NtRp104
(dp105
g65
(dp106
sg74
g70
sg67
(lp107
g60
(g81
g62
NtRp108
(dp109
g65
(dp110
g85
g86
ssg74
g104
sg67
(lp111
S'application'
p112
asbag60
(g81
g62
NtRp113
(dp114
g65
(dp115
g92
g93
ssg74
g104
sg67
(lp116
S':'
asbag60
(g81
g62
NtRp117
(dp118
g65
(dp119
sg74
g104
sg67
(lp120
g60
(g61
g62
NtRp121
(dp122
g65
(dp123
g73
I5
ssg74
g117
sg67
(lp124
S'Desglosar_Emails'
p125
asbasbasbag60
(g76
g62
NtRp126
(dp127
g65
(dp128
sg74
g70
sg67
(lp129
g60
(g81
g62
NtRp130
(dp131
g65
(dp132
g85
g86
ssg74
g126
sg67
(lp133
g47
asbag60
(g81
g62
NtRp134
(dp135
g65
(dp136
g92
g93
ssg74
g126
sg67
(lp137
S':'
asbag60
(g81
g62
NtRp138
(dp139
g65
(dp140
sg74
g126
sg67
(lp141
g60
(g61
g62
NtRp142
(dp143
g65
(dp144
g73
I5
ssg74
g138
sg67
(lp145
g60
(g69
g62
NtRp146
(dp147
g65
(dp148
g73
I4
ssg74
Nsg67
(lp149
sbasbasbasbag60
(g76
g62
NtRp150
(dp151
g65
(dp152
sg74
g70
sg67
(lp153
g60
(g81
g62
NtRp154
(dp155
g65
(dp156
g85
g86
ssg74
g150
sg67
(lp157
S'body'
p158
asbag60
(g81
g62
NtRp159
(dp160
g65
(dp161
g92
g93
ssg74
g150
sg67
(lp162
S':'
asbag60
(g81
g62
NtRp163
(dp164
g65
(dp165
sg74
g150
sg67
(lp166
g60
(g61
g62
NtRp167
(dp168
g65
(dp169
g73
I5
ssg74
g163
sg67
(lp170
S'<cStringIO.StringO object at 0x079D7500>'
p171
asbasbasbag60
(g76
g62
NtRp172
(dp173
g65
(dp174
sg74
g70
sg67
(lp175
g60
(g81
g62
NtRp176
(dp177
g65
(dp178
g85
g86
ssg74
g172
sg67
(lp179
S'client'
p180
asbag60
(g81
g62
NtRp181
(dp182
g65
(dp183
g92
g93
ssg74
g172
sg67
(lp184
S':'
asbag60
(g81
g62
NtRp185
(dp186
g65
(dp187
sg74
g172
sg67
(lp188
g60
(g61
g62
NtRp189
(dp190
g65
(dp191
g73
I5
ssg74
g185
sg67
(lp192
S'127.0.0.1'
p193
asbasbasbag60
(g76
g62
NtRp194
(dp195
g65
(dp196
sg74
g70
sg67
(lp197
g60
(g81
g62
NtRp198
(dp199
g65
(dp200
g85
g86
ssg74
g194
sg67
(lp201
S'controller'
p202
asbag60
(g81
g62
NtRp203
(dp204
g65
(dp205
g92
g93
ssg74
g194
sg67
(lp206
S':'
asbag60
(g81
g62
NtRp207
(dp208
g65
(dp209
sg74
g194
sg67
(lp210
g60
(g61
g62
NtRp211
(dp212
g65
(dp213
g73
I5
ssg74
g207
sg67
(lp214
S'default'
p215
asbasbasbag60
(g76
g62
NtRp216
(dp217
g65
(dp218
sg74
g70
sg67
(lp219
g60
(g81
g62
NtRp220
(dp221
g65
(dp222
g85
g86
ssg74
g216
sg67
(lp223
S'cookies'
p224
asbag60
(g81
g62
NtRp225
(dp226
g65
(dp227
g92
g93
ssg74
g216
sg67
(lp228
S':'
asbag60
(g81
g62
NtRp229
(dp230
g65
(dp231
sg74
g216
sg67
(lp232
g60
(g61
g62
NtRp233
(dp234
g65
(dp235
g73
I5
ssg74
g229
sg67
(lp236
g60
(g69
g62
NtRp237
(dp238
g65
(dp239
g73
I4
ssg74
Nsg67
(lp240
g60
(g76
g62
NtRp241
(dp242
g65
(dp243
sg74
g237
sg67
(lp244
g60
(g81
g62
NtRp245
(dp246
g65
(dp247
g85
g86
ssg74
g241
sg67
(lp248
S'session_id_admin'
p249
asbag60
(g81
g62
NtRp250
(dp251
g65
(dp252
g92
g93
ssg74
g241
sg67
(lp253
S':'
asbag60
(g81
g62
NtRp254
(dp255
g65
(dp256
sg74
g241
sg67
(lp257
g60
(g61
g62
NtRp258
(dp259
g65
(dp260
g73
I4
ssg74
g254
sg67
(lp261
g60
(g69
g62
NtRp262
(dp263
g65
(dp264
g73
I3
ssg74
Nsg67
(lp265
g60
(g76
g62
NtRp266
(dp267
g65
(dp268
sg74
g262
sg67
(lp269
g60
(g81
g62
NtRp270
(dp271
g65
(dp272
g85
g86
ssg74
g266
sg67
(lp273
S'comment'
p274
asbag60
(g81
g62
NtRp275
(dp276
g65
(dp277
g92
g93
ssg74
g266
sg67
(lp278
S':'
asbag60
(g81
g62
NtRp279
(dp280
g65
(dp281
sg74
g266
sg67
(lp282
g60
(g61
g62
NtRp283
(dp284
g65
(dp285
g73
I3
ssg74
g279
sg67
(lp286
S''
asbasbasbag60
(g76
g62
NtRp287
(dp288
g65
(dp289
sg74
g262
sg67
(lp290
g60
(g81
g62
NtRp291
(dp292
g65
(dp293
g85
g86
ssg74
g287
sg67
(lp294
S'domain'
p295
asbag60
(g81
g62
NtRp296
(dp297
g65
(dp298
g92
g93
ssg74
g287
sg67
(lp299
S':'
asbag60
(g81
g62
NtRp300
(dp301
g65
(dp302
sg74
g287
sg67
(lp303
g60
(g61
g62
NtRp304
(dp305
g65
(dp306
g73
I3
ssg74
g300
sg67
(lp307
S''
asbasbasbag60
(g76
g62
NtRp308
(dp309
g65
(dp310
sg74
g262
sg67
(lp311
g60
(g81
g62
NtRp312
(dp313
g65
(dp314
g85
g86
ssg74
g308
sg67
(lp315
S'expires'
p316
asbag60
(g81
g62
NtRp317
(dp318
g65
(dp319
g92
g93
ssg74
g308
sg67
(lp320
S':'
asbag60
(g81
g62
NtRp321
(dp322
g65
(dp323
sg74
g308
sg67
(lp324
g60
(g61
g62
NtRp325
(dp326
g65
(dp327
g73
I3
ssg74
g321
sg67
(lp328
S''
asbasbasbag60
(g76
g62
NtRp329
(dp330
g65
(dp331
sg74
g262
sg67
(lp332
g60
(g81
g62
NtRp333
(dp334
g65
(dp335
g85
g86
ssg74
g329
sg67
(lp336
S'max-age'
p337
asbag60
(g81
g62
NtRp338
(dp339
g65
(dp340
g92
g93
ssg74
g329
sg67
(lp341
S':'
asbag60
(g81
g62
NtRp342
(dp343
g65
(dp344
sg74
g329
sg67
(lp345
g60
(g61
g62
NtRp346
(dp347
g65
(dp348
g73
I3
ssg74
g342
sg67
(lp349
S''
asbasbasbag60
(g76
g62
NtRp350
(dp351
g65
(dp352
sg74
g262
sg67
(lp353
g60
(g81
g62
NtRp354
(dp355
g65
(dp356
g85
g86
ssg74
g350
sg67
(lp357
S'path'
p358
asbag60
(g81
g62
NtRp359
(dp360
g65
(dp361
g92
g93
ssg74
g350
sg67
(lp362
S':'
asbag60
(g81
g62
NtRp363
(dp364
g65
(dp365
sg74
g350
sg67
(lp366
g60
(g61
g62
NtRp367
(dp368
g65
(dp369
g73
I3
ssg74
g363
sg67
(lp370
S''
asbasbasbag60
(g76
g62
NtRp371
(dp372
g65
(dp373
sg74
g262
sg67
(lp374
g60
(g81
g62
NtRp375
(dp376
g65
(dp377
g85
g86
ssg74
g371
sg67
(lp378
S'secure'
p379
asbag60
(g81
g62
NtRp380
(dp381
g65
(dp382
g92
g93
ssg74
g371
sg67
(lp383
S':'
asbag60
(g81
g62
NtRp384
(dp385
g65
(dp386
sg74
g371
sg67
(lp387
g60
(g61
g62
NtRp388
(dp389
g65
(dp390
g73
I3
ssg74
g384
sg67
(lp391
S''
asbasbasbag60
(g76
g62
NtRp392
(dp393
g65
(dp394
sg74
g262
sg67
(lp395
g60
(g81
g62
NtRp396
(dp397
g65
(dp398
g85
g86
ssg74
g392
sg67
(lp399
S'version'
p400
asbag60
(g81
g62
NtRp401
(dp402
g65
(dp403
g92
g93
ssg74
g392
sg67
(lp404
S':'
asbag60
(g81
g62
NtRp405
(dp406
g65
(dp407
sg74
g392
sg67
(lp408
g60
(g61
g62
NtRp409
(dp410
g65
(dp411
g73
I3
ssg74
g405
sg67
(lp412
S''
asbasbasbasbasbasbasbag60
(g76
g62
NtRp413
(dp414
g65
(dp415
sg74
g237
sg67
(lp416
g60
(g81
g62
NtRp417
(dp418
g65
(dp419
g85
g86
ssg74
g413
sg67
(lp420
S'session_id_desglosar_emails'
p421
asbag60
(g81
g62
NtRp422
(dp423
g65
(dp424
g92
g93
ssg74
g413
sg67
(lp425
S':'
asbag60
(g81
g62
NtRp426
(dp427
g65
(dp428
sg74
g413
sg67
(lp429
g60
(g61
g62
NtRp430
(dp431
g65
(dp432
g73
I4
ssg74
g426
sg67
(lp433
g60
(g69
g62
NtRp434
(dp435
g65
(dp436
g73
I3
ssg74
Nsg67
(lp437
g60
(g76
g62
NtRp438
(dp439
g65
(dp440
sg74
g434
sg67
(lp441
g60
(g81
g62
NtRp442
(dp443
g65
(dp444
g85
g86
ssg74
g438
sg67
(lp445
g274
asbag60
(g81
g62
NtRp446
(dp447
g65
(dp448
g92
g93
ssg74
g438
sg67
(lp449
S':'
asbag60
(g81
g62
NtRp450
(dp451
g65
(dp452
sg74
g438
sg67
(lp453
g60
(g61
g62
NtRp454
(dp455
g65
(dp456
g73
I3
ssg74
g450
sg67
(lp457
S''
asbasbasbag60
(g76
g62
NtRp458
(dp459
g65
(dp460
sg74
g434
sg67
(lp461
g60
(g81
g62
NtRp462
(dp463
g65
(dp464
g85
g86
ssg74
g458
sg67
(lp465
g295
asbag60
(g81
g62
NtRp466
(dp467
g65
(dp468
g92
g93
ssg74
g458
sg67
(lp469
S':'
asbag60
(g81
g62
NtRp470
(dp471
g65
(dp472
sg74
g458
sg67
(lp473
g60
(g61
g62
NtRp474
(dp475
g65
(dp476
g73
I3
ssg74
g470
sg67
(lp477
S''
asbasbasbag60
(g76
g62
NtRp478
(dp479
g65
(dp480
sg74
g434
sg67
(lp481
g60
(g81
g62
NtRp482
(dp483
g65
(dp484
g85
g86
ssg74
g478
sg67
(lp485
g316
asbag60
(g81
g62
NtRp486
(dp487
g65
(dp488
g92
g93
ssg74
g478
sg67
(lp489
S':'
asbag60
(g81
g62
NtRp490
(dp491
g65
(dp492
sg74
g478
sg67
(lp493
g60
(g61
g62
NtRp494
(dp495
g65
(dp496
g73
I3
ssg74
g490
sg67
(lp497
S''
asbasbasbag60
(g76
g62
NtRp498
(dp499
g65
(dp500
sg74
g434
sg67
(lp501
g60
(g81
g62
NtRp502
(dp503
g65
(dp504
g85
g86
ssg74
g498
sg67
(lp505
g337
asbag60
(g81
g62
NtRp506
(dp507
g65
(dp508
g92
g93
ssg74
g498
sg67
(lp509
S':'
asbag60
(g81
g62
NtRp510
(dp511
g65
(dp512
sg74
g498
sg67
(lp513
g60
(g61
g62
NtRp514
(dp515
g65
(dp516
g73
I3
ssg74
g510
sg67
(lp517
S''
asbasbasbag60
(g76
g62
NtRp518
(dp519
g65
(dp520
sg74
g434
sg67
(lp521
g60
(g81
g62
NtRp522
(dp523
g65
(dp524
g85
g86
ssg74
g518
sg67
(lp525
g358
asbag60
(g81
g62
NtRp526
(dp527
g65
(dp528
g92
g93
ssg74
g518
sg67
(lp529
S':'
asbag60
(g81
g62
NtRp530
(dp531
g65
(dp532
sg74
g518
sg67
(lp533
g60
(g61
g62
NtRp534
(dp535
g65
(dp536
g73
I3
ssg74
g530
sg67
(lp537
S''
asbasbasbag60
(g76
g62
NtRp538
(dp539
g65
(dp540
sg74
g434
sg67
(lp541
g60
(g81
g62
NtRp542
(dp543
g65
(dp544
g85
g86
ssg74
g538
sg67
(lp545
g379
asbag60
(g81
g62
NtRp546
(dp547
g65
(dp548
g92
g93
ssg74
g538
sg67
(lp549
S':'
asbag60
(g81
g62
NtRp550
(dp551
g65
(dp552
sg74
g538
sg67
(lp553
g60
(g61
g62
NtRp554
(dp555
g65
(dp556
g73
I3
ssg74
g550
sg67
(lp557
S''
asbasbasbag60
(g76
g62
NtRp558
(dp559
g65
(dp560
sg74
g434
sg67
(lp561
g60
(g81
g62
NtRp562
(dp563
g65
(dp564
g85
g86
ssg74
g558
sg67
(lp565
g400
asbag60
(g81
g62
NtRp566
(dp567
g65
(dp568
g92
g93
ssg74
g558
sg67
(lp569
S':'
asbag60
(g81
g62
NtRp570
(dp571
g65
(dp572
sg74
g558
sg67
(lp573
g60
(g61
g62
NtRp574
(dp575
g65
(dp576
g73
I3
ssg74
g570
sg67
(lp577
S''
asbasbasbasbasbasbasbag60
(g76
g62
NtRp578
(dp579
g65
(dp580
sg74
g237
sg67
(lp581
g60
(g81
g62
NtRp582
(dp583
g65
(dp584
g85
g86
ssg74
g578
sg67
(lp585
S'session_id_welcome'
p586
asbag60
(g81
g62
NtRp587
(dp588
g65
(dp589
g92
g93
ssg74
g578
sg67
(lp590
S':'
asbag60
(g81
g62
NtRp591
(dp592
g65
(dp593
sg74
g578
sg67
(lp594
g60
(g61
g62
NtRp595
(dp596
g65
(dp597
g73
I4
ssg74
g591
sg67
(lp598
g60
(g69
g62
NtRp599
(dp600
g65
(dp601
g73
I3
ssg74
Nsg67
(lp602
g60
(g76
g62
NtRp603
(dp604
g65
(dp605
sg74
g599
sg67
(lp606
g60
(g81
g62
NtRp607
(dp608
g65
(dp609
g85
g86
ssg74
g603
sg67
(lp610
g274
asbag60
(g81
g62
NtRp611
(dp612
g65
(dp613
g92
g93
ssg74
g603
sg67
(lp614
S':'
asbag60
(g81
g62
NtRp615
(dp616
g65
(dp617
sg74
g603
sg67
(lp618
g60
(g61
g62
NtRp619
(dp620
g65
(dp621
g73
I3
ssg74
g615
sg67
(lp622
S''
asbasbasbag60
(g76
g62
NtRp623
(dp624
g65
(dp625
sg74
g599
sg67
(lp626
g60
(g81
g62
NtRp627
(dp628
g65
(dp629
g85
g86
ssg74
g623
sg67
(lp630
g295
asbag60
(g81
g62
NtRp631
(dp632
g65
(dp633
g92
g93
ssg74
g623
sg67
(lp634
S':'
asbag60
(g81
g62
NtRp635
(dp636
g65
(dp637
sg74
g623
sg67
(lp638
g60
(g61
g62
NtRp639
(dp640
g65
(dp641
g73
I3
ssg74
g635
sg67
(lp642
S''
asbasbasbag60
(g76
g62
NtRp643
(dp644
g65
(dp645
sg74
g599
sg67
(lp646
g60
(g81
g62
NtRp647
(dp648
g65
(dp649
g85
g86
ssg74
g643
sg67
(lp650
g316
asbag60
(g81
g62
NtRp651
(dp652
g65
(dp653
g92
g93
ssg74
g643
sg67
(lp654
S':'
asbag60
(g81
g62
NtRp655
(dp656
g65
(dp657
sg74
g643
sg67
(lp658
g60
(g61
g62
NtRp659
(dp660
g65
(dp661
g73
I3
ssg74
g655
sg67
(lp662
S''
asbasbasbag60
(g76
g62
NtRp663
(dp664
g65
(dp665
sg74
g599
sg67
(lp666
g60
(g81
g62
NtRp667
(dp668
g65
(dp669
g85
g86
ssg74
g663
sg67
(lp670
g337
asbag60
(g81
g62
NtRp671
(dp672
g65
(dp673
g92
g93
ssg74
g663
sg67
(lp674
S':'
asbag60
(g81
g62
NtRp675
(dp676
g65
(dp677
sg74
g663
sg67
(lp678
g60
(g61
g62
NtRp679
(dp680
g65
(dp681
g73
I3
ssg74
g675
sg67
(lp682
S''
asbasbasbag60
(g76
g62
NtRp683
(dp684
g65
(dp685
sg74
g599
sg67
(lp686
g60
(g81
g62
NtRp687
(dp688
g65
(dp689
g85
g86
ssg74
g683
sg67
(lp690
g358
asbag60
(g81
g62
NtRp691
(dp692
g65
(dp693
g92
g93
ssg74
g683
sg67
(lp694
S':'
asbag60
(g81
g62
NtRp695
(dp696
g65
(dp697
sg74
g683
sg67
(lp698
g60
(g61
g62
NtRp699
(dp700
g65
(dp701
g73
I3
ssg74
g695
sg67
(lp702
S''
asbasbasbag60
(g76
g62
NtRp703
(dp704
g65
(dp705
sg74
g599
sg67
(lp706
g60
(g81
g62
NtRp707
(dp708
g65
(dp709
g85
g86
ssg74
g703
sg67
(lp710
g379
asbag60
(g81
g62
NtRp711
(dp712
g65
(dp713
g92
g93
ssg74
g703
sg67
(lp714
S':'
asbag60
(g81
g62
NtRp715
(dp716
g65
(dp717
sg74
g703
sg67
(lp718
g60
(g61
g62
NtRp719
(dp720
g65
(dp721
g73
I3
ssg74
g715
sg67
(lp722
S''
asbasbasbag60
(g76
g62
NtRp723
(dp724
g65
(dp725
sg74
g599
sg67
(lp726
g60
(g81
g62
NtRp727
(dp728
g65
(dp729
g85
g86
ssg74
g723
sg67
(lp730
g400
asbag60
(g81
g62
NtRp731
(dp732
g65
(dp733
g92
g93
ssg74
g723
sg67
(lp734
S':'
asbag60
(g81
g62
NtRp735
(dp736
g65
(dp737
sg74
g723
sg67
(lp738
g60
(g61
g62
NtRp739
(dp740
g65
(dp741
g73
I3
ssg74
g735
sg67
(lp742
S''
asbasbasbasbasbasbasbasbasbasbasbag60
(g76
g62
NtRp743
(dp744
g65
(dp745
sg74
g70
sg67
(lp746
g60
(g81
g62
NtRp747
(dp748
g65
(dp749
g85
g86
ssg74
g743
sg67
(lp750
S'env'
p751
asbag60
(g81
g62
NtRp752
(dp753
g65
(dp754
g92
g93
ssg74
g743
sg67
(lp755
S':'
asbag60
(g81
g62
NtRp756
(dp757
g65
(dp758
sg74
g743
sg67
(lp759
g60
(g61
g62
NtRp760
(dp761
g65
(dp762
g73
I5
ssg74
g756
sg67
(lp763
g60
(g69
g62
NtRp764
(dp765
g65
(dp766
g73
I4
ssg74
Nsg67
(lp767
g60
(g76
g62
NtRp768
(dp769
g65
(dp770
sg74
g764
sg67
(lp771
g60
(g81
g62
NtRp772
(dp773
g65
(dp774
g85
g86
ssg74
g768
sg67
(lp775
S'app_folders'
p776
asbag60
(g81
g62
NtRp777
(dp778
g65
(dp779
g92
g93
ssg74
g768
sg67
(lp780
S':'
asbag60
(g81
g62
NtRp781
(dp782
g65
(dp783
sg74
g768
sg67
(lp784
g60
(g61
g62
NtRp785
(dp786
g65
(dp787
g73
I4
ssg74
g781
sg67
(lp788
S"set(['C:\\\\Users\\\\Atomico\\\\web2py\\\\applications\\\\welcome\\\\', 'C:\\\\Users\\\\Atomico\\\\web2py\\\\applications\\\\examples\\\\', 'C:\\\\Users\\\\Atomico\\\\web2py\\\\applications\\\\Desglosar_Emails\\\\', 'C:\\\\Users\\\\Atomico\\\\web2py\\\\applications\\\\admin\\\\'])"
p789
asbasbasbag60
(g76
g62
NtRp790
(dp791
g65
(dp792
sg74
g764
sg67
(lp793
g60
(g81
g62
NtRp794
(dp795
g65
(dp796
g85
g86
ssg74
g790
sg67
(lp797
S'applications_parent'
p798
asbag60
(g81
g62
NtRp799
(dp800
g65
(dp801
g92
g93
ssg74
g790
sg67
(lp802
S':'
asbag60
(g81
g62
NtRp803
(dp804
g65
(dp805
sg74
g790
sg67
(lp806
g60
(g61
g62
NtRp807
(dp808
g65
(dp809
g73
I4
ssg74
g803
sg67
(lp810
S'C:\\Users\\Atomico\\web2py'
p811
asbasbasbag60
(g76
g62
NtRp812
(dp813
g65
(dp814
sg74
g764
sg67
(lp815
g60
(g81
g62
NtRp816
(dp817
g65
(dp818
g85
g86
ssg74
g812
sg67
(lp819
S'cmd_args'
p820
asbag60
(g81
g62
NtRp821
(dp822
g65
(dp823
g92
g93
ssg74
g812
sg67
(lp824
S':'
asbag60
(g81
g62
NtRp825
(dp826
g65
(dp827
sg74
g812
sg67
(lp828
g60
(g61
g62
NtRp829
(dp830
g65
(dp831
g73
I4
ssg74
g825
sg67
(lp832
g60
(g69
g62
NtRp833
(dp834
g65
(dp835
g73
I3
ssg74
Nsg67
(lp836
sbasbasbasbag60
(g76
g62
NtRp837
(dp838
g65
(dp839
sg74
g764
sg67
(lp840
g60
(g81
g62
NtRp841
(dp842
g65
(dp843
g85
g86
ssg74
g837
sg67
(lp844
S'cmd_options'
p845
asbag60
(g81
g62
NtRp846
(dp847
g65
(dp848
g92
g93
ssg74
g837
sg67
(lp849
S':'
asbag60
(g81
g62
NtRp850
(dp851
g65
(dp852
sg74
g837
sg67
(lp853
g60
(g61
g62
NtRp854
(dp855
g65
(dp856
g73
I4
ssg74
g850
sg67
(lp857
S"<Values at 0x30f55d0: {'verbose': False, 'ip': '127.0.0.1', 'shutdown_timeout': 5, 'taskbar': False, 'port': 8000, 'maxthreads': None, 'softcron': False, 'server_name': 'Swing', 'bpython': False, 'nogui': False, 'nocron': False, 'extcron': False, 'debuglevel': 30, 'test': None, 'folder': 'C:\\\\Users\\\\Atomico\\\\web2py', 'config': '', 'import_models': False, 'winservice': '', 'shell': None, 'run': '', 'log_filename': 'httpserver.log', 'args': [''], 'profiler_filename': None, 'ssl_private_key': '', 'password': '<ask>', 'request_queue_size': 5, 'ssl_certificate': '', 'cronjob': False, 'plain': False, 'quiet': False, 'interfaces': None, 'minthreads': None, 'timeout': 10, 'numthreads': None, 'nobanner': False, 'pid_filename': 'httpserver.pid'}>"
p858
asbasbasbag60
(g76
g62
NtRp859
(dp860
g65
(dp861
sg74
g764
sg67
(lp862
g60
(g81
g62
NtRp863
(dp864
g65
(dp865
g85
g86
ssg74
g859
sg67
(lp866
S'db_sessions'
p867
asbag60
(g81
g62
NtRp868
(dp869
g65
(dp870
g92
g93
ssg74
g859
sg67
(lp871
S':'
asbag60
(g81
g62
NtRp872
(dp873
g65
(dp874
sg74
g859
sg67
(lp875
g60
(g61
g62
NtRp876
(dp877
g65
(dp878
g73
I4
ssg74
g872
sg67
(lp879
S'set([])'
p880
asbasbasbag60
(g76
g62
NtRp881
(dp882
g65
(dp883
sg74
g764
sg67
(lp884
g60
(g81
g62
NtRp885
(dp886
g65
(dp887
g85
g86
ssg74
g881
sg67
(lp888
S'debugging'
p889
asbag60
(g81
g62
NtRp890
(dp891
g65
(dp892
g92
g93
ssg74
g881
sg67
(lp893
S':'
asbag60
(g81
g62
NtRp894
(dp895
g65
(dp896
sg74
g881
sg67
(lp897
g60
(g61
g62
NtRp898
(dp899
g65
(dp900
g73
I4
ssg74
g894
sg67
(lp901
g103
asbasbasbag60
(g76
g62
NtRp902
(dp903
g65
(dp904
sg74
g764
sg67
(lp905
g60
(g81
g62
NtRp906
(dp907
g65
(dp908
g85
g86
ssg74
g902
sg67
(lp909
S'gluon_parent'
p910
asbag60
(g81
g62
NtRp911
(dp912
g65
(dp913
g92
g93
ssg74
g902
sg67
(lp914
S':'
asbag60
(g81
g62
NtRp915
(dp916
g65
(dp917
sg74
g902
sg67
(lp918
g60
(g61
g62
NtRp919
(dp920
g65
(dp921
g73
I4
ssg74
g915
sg67
(lp922
S'C:\\Users\\Atomico\\web2py'
p923
asbasbasbag60
(g76
g62
NtRp924
(dp925
g65
(dp926
sg74
g764
sg67
(lp927
g60
(g81
g62
NtRp928
(dp929
g65
(dp930
g85
g86
ssg74
g924
sg67
(lp931
S'http_accept'
p932
asbag60
(g81
g62
NtRp933
(dp934
g65
(dp935
g92
g93
ssg74
g924
sg67
(lp936
S':'
asbag60
(g81
g62
NtRp937
(dp938
g65
(dp939
sg74
g924
sg67
(lp940
g60
(g61
g62
NtRp941
(dp942
g65
(dp943
g73
I4
ssg74
g937
sg67
(lp944
S'text/html,application/xhtml+xml,application/xml;q=0.9,*/*;q=0.8'
p945
asbasbasbag60
(g76
g62
NtRp946
(dp947
g65
(dp948
sg74
g764
sg67
(lp949
g60
(g81
g62
NtRp950
(dp951
g65
(dp952
g85
g86
ssg74
g946
sg67
(lp953
S'http_accept_charset'
p954
asbag60
(g81
g62
NtRp955
(dp956
g65
(dp957
g92
g93
ssg74
g946
sg67
(lp958
S':'
asbag60
(g81
g62
NtRp959
(dp960
g65
(dp961
sg74
g946
sg67
(lp962
g60
(g61
g62
NtRp963
(dp964
g65
(dp965
g73
I4
ssg74
g959
sg67
(lp966
S'ISO-8859-1,utf-8;q=0.7,*;q=0.7'
p967
asbasbasbag60
(g76
g62
NtRp968
(dp969
g65
(dp970
sg74
g764
sg67
(lp971
g60
(g81
g62
NtRp972
(dp973
g65
(dp974
g85
g86
ssg74
g968
sg67
(lp975
S'http_accept_encoding'
p976
asbag60
(g81
g62
NtRp977
(dp978
g65
(dp979
g92
g93
ssg74
g968
sg67
(lp980
S':'
asbag60
(g81
g62
NtRp981
(dp982
g65
(dp983
sg74
g968
sg67
(lp984
g60
(g61
g62
NtRp985
(dp986
g65
(dp987
g73
I4
ssg74
g981
sg67
(lp988
S'gzip, deflate'
p989
asbasbasbag60
(g76
g62
NtRp990
(dp991
g65
(dp992
sg74
g764
sg67
(lp993
g60
(g81
g62
NtRp994
(dp995
g65
(dp996
g85
g86
ssg74
g990
sg67
(lp997
S'http_accept_language'
p998
asbag60
(g81
g62
NtRp999
(dp1000
g65
(dp1001
g92
g93
ssg74
g990
sg67
(lp1002
S':'
asbag60
(g81
g62
NtRp1003
(dp1004
g65
(dp1005
sg74
g990
sg67
(lp1006
g60
(g61
g62
NtRp1007
(dp1008
g65
(dp1009
g73
I4
ssg74
g1003
sg67
(lp1010
S'es-es,es;q=0.8,en-us;q=0.5,en;q=0.3'
p1011
asbasbasbag60
(g76
g62
NtRp1012
(dp1013
g65
(dp1014
sg74
g764
sg67
(lp1015
g60
(g81
g62
NtRp1016
(dp1017
g65
(dp1018
g85
g86
ssg74
g1012
sg67
(lp1019
S'http_cache_control'
p1020
asbag60
(g81
g62
NtRp1021
(dp1022
g65
(dp1023
g92
g93
ssg74
g1012
sg67
(lp1024
S':'
asbag60
(g81
g62
NtRp1025
(dp1026
g65
(dp1027
sg74
g1012
sg67
(lp1028
g60
(g61
g62
NtRp1029
(dp1030
g65
(dp1031
g73
I4
ssg74
g1025
sg67
(lp1032
S'max-age=0'
p1033
asbasbasbag60
(g76
g62
NtRp1034
(dp1035
g65
(dp1036
sg74
g764
sg67
(lp1037
g60
(g81
g62
NtRp1038
(dp1039
g65
(dp1040
g85
g86
ssg74
g1034
sg67
(lp1041
S'http_connection'
p1042
asbag60
(g81
g62
NtRp1043
(dp1044
g65
(dp1045
g92
g93
ssg74
g1034
sg67
(lp1046
S':'
asbag60
(g81
g62
NtRp1047
(dp1048
g65
(dp1049
sg74
g1034
sg67
(lp1050
g60
(g61
g62
NtRp1051
(dp1052
g65
(dp1053
g73
I4
ssg74
g1047
sg67
(lp1054
S'keep-alive'
p1055
asbasbasbag60
(g76
g62
NtRp1056
(dp1057
g65
(dp1058
sg74
g764
sg67
(lp1059
g60
(g81
g62
NtRp1060
(dp1061
g65
(dp1062
g85
g86
ssg74
g1056
sg67
(lp1063
S'http_cookie'
p1064
asbag60
(g81
g62
NtRp1065
(dp1066
g65
(dp1067
g92
g93
ssg74
g1056
sg67
(lp1068
S':'
asbag60
(g81
g62
NtRp1069
(dp1070
g65
(dp1071
sg74
g1056
sg67
(lp1072
g60
(g61
g62
NtRp1073
(dp1074
g65
(dp1075
g73
I4
ssg74
g1069
sg67
(lp1076
S'session_id_welcome=127.0.0.1-376eb8b3-82de-4ca4-962a-cf914386adb5; session_id_admin=127.0.0.1-ab41072a-78d8-41d9-b0f6-43c9e78f0c91; session_id_desglosar_emails=127.0.0.1-78cf8050-df87-4502-afb9-ed0c3843b414'
p1077
asbasbasbag60
(g76
g62
NtRp1078
(dp1079
g65
(dp1080
sg74
g764
sg67
(lp1081
g60
(g81
g62
NtRp1082
(dp1083
g65
(dp1084
g85
g86
ssg74
g1078
sg67
(lp1085
S'http_host'
p1086
asbag60
(g81
g62
NtRp1087
(dp1088
g65
(dp1089
g92
g93
ssg74
g1078
sg67
(lp1090
S':'
asbag60
(g81
g62
NtRp1091
(dp1092
g65
(dp1093
sg74
g1078
sg67
(lp1094
g60
(g61
g62
NtRp1095
(dp1096
g65
(dp1097
g73
I4
ssg74
g1091
sg67
(lp1098
S'127.0.0.1:8000'
p1099
asbasbasbag60
(g76
g62
NtRp1100
(dp1101
g65
(dp1102
sg74
g764
sg67
(lp1103
g60
(g81
g62
NtRp1104
(dp1105
g65
(dp1106
g85
g86
ssg74
g1100
sg67
(lp1107
S'http_referer'
p1108
asbag60
(g81
g62
NtRp1109
(dp1110
g65
(dp1111
g92
g93
ssg74
g1100
sg67
(lp1112
S':'
asbag60
(g81
g62
NtRp1113
(dp1114
g65
(dp1115
sg74
g1100
sg67
(lp1116
g60
(g61
g62
NtRp1117
(dp1118
g65
(dp1119
g73
I4
ssg74
g1113
sg67
(lp1120
S'http://127.0.0.1:8000/admin/default/design/Desglosar_Emails'
p1121
asbasbasbag60
(g76
g62
NtRp1122
(dp1123
g65
(dp1124
sg74
g764
sg67
(lp1125
g60
(g81
g62
NtRp1126
(dp1127
g65
(dp1128
g85
g86
ssg74
g1122
sg67
(lp1129
S'http_user_agent'
p1130
asbag60
(g81
g62
NtRp1131
(dp1132
g65
(dp1133
g92
g93
ssg74
g1122
sg67
(lp1134
S':'
asbag60
(g81
g62
NtRp1135
(dp1136
g65
(dp1137
sg74
g1122
sg67
(lp1138
g60
(g61
g62
NtRp1139
(dp1140
g65
(dp1141
g73
I4
ssg74
g1135
sg67
(lp1142
S'Mozilla/5.0 (Windows NT 6.1; WOW64; rv:6.0.2) Gecko/20100101 Firefox/6.0.2'
p1143
asbasbasbag60
(g76
g62
NtRp1144
(dp1145
g65
(dp1146
sg74
g764
sg67
(lp1147
g60
(g81
g62
NtRp1148
(dp1149
g65
(dp1150
g85
g86
ssg74
g1144
sg67
(lp1151
S'is_jython'
p1152
asbag60
(g81
g62
NtRp1153
(dp1154
g65
(dp1155
g92
g93
ssg74
g1144
sg67
(lp1156
S':'
asbag60
(g81
g62
NtRp1157
(dp1158
g65
(dp1159
sg74
g1144
sg67
(lp1160
g60
(g61
g62
NtRp1161
(dp1162
g65
(dp1163
g73
I4
ssg74
g1157
sg67
(lp1164
g103
asbasbasbag60
(g76
g62
NtRp1165
(dp1166
g65
(dp1167
sg74
g764
sg67
(lp1168
g60
(g81
g62
NtRp1169
(dp1170
g65
(dp1171
g85
g86
ssg74
g1165
sg67
(lp1172
S'path_info'
p1173
asbag60
(g81
g62
NtRp1174
(dp1175
g65
(dp1176
g92
g93
ssg74
g1165
sg67
(lp1177
S':'
asbag60
(g81
g62
NtRp1178
(dp1179
g65
(dp1180
sg74
g1165
sg67
(lp1181
g60
(g61
g62
NtRp1182
(dp1183
g65
(dp1184
g73
I4
ssg74
g1178
sg67
(lp1185
S'/Desglosar_Emails/default/entrada_mod3'
p1186
asbasbasbag60
(g76
g62
NtRp1187
(dp1188
g65
(dp1189
sg74
g764
sg67
(lp1190
g60
(g81
g62
NtRp1191
(dp1192
g65
(dp1193
g85
g86
ssg74
g1187
sg67
(lp1194
S'query_string'
p1195
asbag60
(g81
g62
NtRp1196
(dp1197
g65
(dp1198
g92
g93
ssg74
g1187
sg67
(lp1199
S':'
asbag60
(g81
g62
NtRp1200
(dp1201
g65
(dp1202
sg74
g1187
sg67
(lp1203
g60
(g61
g62
NtRp1204
(dp1205
g65
(dp1206
g73
I4
ssg74
g1200
sg67
(lp1207
S''
asbasbasbag60
(g76
g62
NtRp1208
(dp1209
g65
(dp1210
sg74
g764
sg67
(lp1211
g60
(g81
g62
NtRp1212
(dp1213
g65
(dp1214
g85
g86
ssg74
g1208
sg67
(lp1215
S'remote_addr'
p1216
asbag60
(g81
g62
NtRp1217
(dp1218
g65
(dp1219
g92
g93
ssg74
g1208
sg67
(lp1220
S':'
asbag60
(g81
g62
NtRp1221
(dp1222
g65
(dp1223
sg74
g1208
sg67
(lp1224
g60
(g61
g62
NtRp1225
(dp1226
g65
(dp1227
g73
I4
ssg74
g1221
sg67
(lp1228
g193
asbasbasbag60
(g76
g62
NtRp1229
(dp1230
g65
(dp1231
sg74
g764
sg67
(lp1232
g60
(g81
g62
NtRp1233
(dp1234
g65
(dp1235
g85
g86
ssg74
g1229
sg67
(lp1236
S'remote_port'
p1237
asbag60
(g81
g62
NtRp1238
(dp1239
g65
(dp1240
g92
g93
ssg74
g1229
sg67
(lp1241
S':'
asbag60
(g81
g62
NtRp1242
(dp1243
g65
(dp1244
sg74
g1229
sg67
(lp1245
g60
(g61
g62
NtRp1246
(dp1247
g65
(dp1248
g73
I4
ssg74
g1242
sg67
(lp1249
S'62296'
p1250
asbasbasbag60
(g76
g62
NtRp1251
(dp1252
g65
(dp1253
sg74
g764
sg67
(lp1254
g60
(g81
g62
NtRp1255
(dp1256
g65
(dp1257
g85
g86
ssg74
g1251
sg67
(lp1258
S'request_method'
p1259
asbag60
(g81
g62
NtRp1260
(dp1261
g65
(dp1262
g92
g93
ssg74
g1251
sg67
(lp1263
S':'
asbag60
(g81
g62
NtRp1264
(dp1265
g65
(dp1266
sg74
g1251
sg67
(lp1267
g60
(g61
g62
NtRp1268
(dp1269
g65
(dp1270
g73
I4
ssg74
g1264
sg67
(lp1271
S'GET'
p1272
asbasbasbag60
(g76
g62
NtRp1273
(dp1274
g65
(dp1275
sg74
g764
sg67
(lp1276
g60
(g81
g62
NtRp1277
(dp1278
g65
(dp1279
g85
g86
ssg74
g1273
sg67
(lp1280
S'script_name'
p1281
asbag60
(g81
g62
NtRp1282
(dp1283
g65
(dp1284
g92
g93
ssg74
g1273
sg67
(lp1285
S':'
asbag60
(g81
g62
NtRp1286
(dp1287
g65
(dp1288
sg74
g1273
sg67
(lp1289
g60
(g61
g62
NtRp1290
(dp1291
g65
(dp1292
g73
I4
ssg74
g1286
sg67
(lp1293
S''
asbasbasbag60
(g76
g62
NtRp1294
(dp1295
g65
(dp1296
sg74
g764
sg67
(lp1297
g60
(g81
g62
NtRp1298
(dp1299
g65
(dp1300
g85
g86
ssg74
g1294
sg67
(lp1301
S'server_name'
p1302
asbag60
(g81
g62
NtRp1303
(dp1304
g65
(dp1305
g92
g93
ssg74
g1294
sg67
(lp1306
S':'
asbag60
(g81
g62
NtRp1307
(dp1308
g65
(dp1309
sg74
g1294
sg67
(lp1310
g60
(g61
g62
NtRp1311
(dp1312
g65
(dp1313
g73
I4
ssg74
g1307
sg67
(lp1314
S'Swing'
p1315
asbasbasbag60
(g76
g62
NtRp1316
(dp1317
g65
(dp1318
sg74
g764
sg67
(lp1319
g60
(g81
g62
NtRp1320
(dp1321
g65
(dp1322
g85
g86
ssg74
g1316
sg67
(lp1323
S'server_port'
p1324
asbag60
(g81
g62
NtRp1325
(dp1326
g65
(dp1327
g92
g93
ssg74
g1316
sg67
(lp1328
S':'
asbag60
(g81
g62
NtRp1329
(dp1330
g65
(dp1331
sg74
g1316
sg67
(lp1332
g60
(g61
g62
NtRp1333
(dp1334
g65
(dp1335
g73
I4
ssg74
g1329
sg67
(lp1336
S'8000'
p1337
asbasbasbag60
(g76
g62
NtRp1338
(dp1339
g65
(dp1340
sg74
g764
sg67
(lp1341
g60
(g81
g62
NtRp1342
(dp1343
g65
(dp1344
g85
g86
ssg74
g1338
sg67
(lp1345
S'server_protocol'
p1346
asbag60
(g81
g62
NtRp1347
(dp1348
g65
(dp1349
g92
g93
ssg74
g1338
sg67
(lp1350
S':'
asbag60
(g81
g62
NtRp1351
(dp1352
g65
(dp1353
sg74
g1338
sg67
(lp1354
g60
(g61
g62
NtRp1355
(dp1356
g65
(dp1357
g73
I4
ssg74
g1351
sg67
(lp1358
S'HTTP/1.1'
p1359
asbasbasbag60
(g76
g62
NtRp1360
(dp1361
g65
(dp1362
sg74
g764
sg67
(lp1363
g60
(g81
g62
NtRp1364
(dp1365
g65
(dp1366
g85
g86
ssg74
g1360
sg67
(lp1367
S'server_software'
p1368
asbag60
(g81
g62
NtRp1369
(dp1370
g65
(dp1371
g92
g93
ssg74
g1360
sg67
(lp1372
S':'
asbag60
(g81
g62
NtRp1373
(dp1374
g65
(dp1375
sg74
g1360
sg67
(lp1376
g60
(g61
g62
NtRp1377
(dp1378
g65
(dp1379
g73
I4
ssg74
g1373
sg67
(lp1380
S'Rocket 1.2.2'
p1381
asbasbasbag60
(g76
g62
NtRp1382
(dp1383
g65
(dp1384
sg74
g764
sg67
(lp1385
g60
(g81
g62
NtRp1386
(dp1387
g65
(dp1388
g85
g86
ssg74
g1382
sg67
(lp1389
S'web2py_crontype'
p1390
asbag60
(g81
g62
NtRp1391
(dp1392
g65
(dp1393
g92
g93
ssg74
g1382
sg67
(lp1394
S':'
asbag60
(g81
g62
NtRp1395
(dp1396
g65
(dp1397
sg74
g1382
sg67
(lp1398
g60
(g61
g62
NtRp1399
(dp1400
g65
(dp1401
g73
I4
ssg74
g1395
sg67
(lp1402
S'hard'
p1403
asbasbasbag60
(g76
g62
NtRp1404
(dp1405
g65
(dp1406
sg74
g764
sg67
(lp1407
g60
(g81
g62
NtRp1408
(dp1409
g65
(dp1410
g85
g86
ssg74
g1404
sg67
(lp1411
S'web2py_path'
p1412
asbag60
(g81
g62
NtRp1413
(dp1414
g65
(dp1415
g92
g93
ssg74
g1404
sg67
(lp1416
S':'
asbag60
(g81
g62
NtRp1417
(dp1418
g65
(dp1419
sg74
g1404
sg67
(lp1420
g60
(g61
g62
NtRp1421
(dp1422
g65
(dp1423
g73
I4
ssg74
g1417
sg67
(lp1424
g811
asbasbasbag60
(g76
g62
NtRp1425
(dp1426
g65
(dp1427
sg74
g764
sg67
(lp1428
g60
(g81
g62
NtRp1429
(dp1430
g65
(dp1431
g85
g86
ssg74
g1425
sg67
(lp1432
S'web2py_version'
p1433
asbag60
(g81
g62
NtRp1434
(dp1435
g65
(dp1436
g92
g93
ssg74
g1425
sg67
(lp1437
S':'
asbag60
(g81
g62
NtRp1438
(dp1439
g65
(dp1440
sg74
g1425
sg67
(lp1441
g60
(g61
g62
NtRp1442
(dp1443
g65
(dp1444
g73
I4
ssg74
g1438
sg67
(lp1445
S'Version 1.98.2 (2011-08-04 00:47:09)\n'
p1446
asbasbasbag60
(g76
g62
NtRp1447
(dp1448
g65
(dp1449
sg74
g764
sg67
(lp1450
g60
(g81
g62
NtRp1451
(dp1452
g65
(dp1453
g85
g86
ssg74
g1447
sg67
(lp1454
S'wsgi_errors'
p1455
asbag60
(g81
g62
NtRp1456
(dp1457
g65
(dp1458
g92
g93
ssg74
g1447
sg67
(lp1459
S':'
asbag60
(g81
g62
NtRp1460
(dp1461
g65
(dp1462
sg74
g1447
sg67
(lp1463
g60
(g61
g62
NtRp1464
(dp1465
g65
(dp1466
g73
I4
ssg74
g1460
sg67
(lp1467
S"<open file '<stderr>', mode 'w' at 0x01F200B0>"
p1468
asbasbasbag60
(g76
g62
NtRp1469
(dp1470
g65
(dp1471
sg74
g764
sg67
(lp1472
g60
(g81
g62
NtRp1473
(dp1474
g65
(dp1475
g85
g86
ssg74
g1469
sg67
(lp1476
S'wsgi_file_wrapper'
p1477
asbag60
(g81
g62
NtRp1478
(dp1479
g65
(dp1480
g92
g93
ssg74
g1469
sg67
(lp1481
S':'
asbag60
(g81
g62
NtRp1482
(dp1483
g65
(dp1484
sg74
g1469
sg67
(lp1485
g60
(g61
g62
NtRp1486
(dp1487
g65
(dp1488
g73
I4
ssg74
g1482
sg67
(lp1489
S'<class gluon.rocket.FileWrapper at 0x0307F1B0>'
p1490
asbasbasbag60
(g76
g62
NtRp1491
(dp1492
g65
(dp1493
sg74
g764
sg67
(lp1494
g60
(g81
g62
NtRp1495
(dp1496
g65
(dp1497
g85
g86
ssg74
g1491
sg67
(lp1498
S'wsgi_input'
p1499
asbag60
(g81
g62
NtRp1500
(dp1501
g65
(dp1502
g92
g93
ssg74
g1491
sg67
(lp1503
S':'
asbag60
(g81
g62
NtRp1504
(dp1505
g65
(dp1506
sg74
g1491
sg67
(lp1507
g60
(g61
g62
NtRp1508
(dp1509
g65
(dp1510
g73
I4
ssg74
g1504
sg67
(lp1511
S'<socket._fileobject object at 0x07FC5D70>'
p1512
asbasbasbag60
(g76
g62
NtRp1513
(dp1514
g65
(dp1515
sg74
g764
sg67
(lp1516
g60
(g81
g62
NtRp1517
(dp1518
g65
(dp1519
g85
g86
ssg74
g1513
sg67
(lp1520
S'wsgi_multiprocess'
p1521
asbag60
(g81
g62
NtRp1522
(dp1523
g65
(dp1524
g92
g93
ssg74
g1513
sg67
(lp1525
S':'
asbag60
(g81
g62
NtRp1526
(dp1527
g65
(dp1528
sg74
g1513
sg67
(lp1529
g60
(g61
g62
NtRp1530
(dp1531
g65
(dp1532
g73
I4
ssg74
g1526
sg67
(lp1533
g103
asbasbasbag60
(g76
g62
NtRp1534
(dp1535
g65
(dp1536
sg74
g764
sg67
(lp1537
g60
(g81
g62
NtRp1538
(dp1539
g65
(dp1540
g85
g86
ssg74
g1534
sg67
(lp1541
S'wsgi_multithread'
p1542
asbag60
(g81
g62
NtRp1543
(dp1544
g65
(dp1545
g92
g93
ssg74
g1534
sg67
(lp1546
S':'
asbag60
(g81
g62
NtRp1547
(dp1548
g65
(dp1549
sg74
g1534
sg67
(lp1550
g60
(g61
g62
NtRp1551
(dp1552
g65
(dp1553
g73
I4
ssg74
g1547
sg67
(lp1554
S'True'
p1555
asbasbasbag60
(g76
g62
NtRp1556
(dp1557
g65
(dp1558
sg74
g764
sg67
(lp1559
g60
(g81
g62
NtRp1560
(dp1561
g65
(dp1562
g85
g86
ssg74
g1556
sg67
(lp1563
S'wsgi_run_once'
p1564
asbag60
(g81
g62
NtRp1565
(dp1566
g65
(dp1567
g92
g93
ssg74
g1556
sg67
(lp1568
S':'
asbag60
(g81
g62
NtRp1569
(dp1570
g65
(dp1571
sg74
g1556
sg67
(lp1572
g60
(g61
g62
NtRp1573
(dp1574
g65
(dp1575
g73
I4
ssg74
g1569
sg67
(lp1576
g103
asbasbasbag60
(g76
g62
NtRp1577
(dp1578
g65
(dp1579
sg74
g764
sg67
(lp1580
g60
(g81
g62
NtRp1581
(dp1582
g65
(dp1583
g85
g86
ssg74
g1577
sg67
(lp1584
S'wsgi_url_scheme'
p1585
asbag60
(g81
g62
NtRp1586
(dp1587
g65
(dp1588
g92
g93
ssg74
g1577
sg67
(lp1589
S':'
asbag60
(g81
g62
NtRp1590
(dp1591
g65
(dp1592
sg74
g1577
sg67
(lp1593
g60
(g61
g62
NtRp1594
(dp1595
g65
(dp1596
g73
I4
ssg74
g1590
sg67
(lp1597
S'http'
p1598
asbasbasbag60
(g76
g62
NtRp1599
(dp1600
g65
(dp1601
sg74
g764
sg67
(lp1602
g60
(g81
g62
NtRp1603
(dp1604
g65
(dp1605
g85
g86
ssg74
g1599
sg67
(lp1606
S'wsgi_version'
p1607
asbag60
(g81
g62
NtRp1608
(dp1609
g65
(dp1610
g92
g93
ssg74
g1599
sg67
(lp1611
S':'
asbag60
(g81
g62
NtRp1612
(dp1613
g65
(dp1614
sg74
g1599
sg67
(lp1615
g60
(g61
g62
NtRp1616
(dp1617
g65
(dp1618
g73
I4
ssg74
g1612
sg67
(lp1619
g60
(g69
g62
NtRp1620
(dp1621
g65
(dp1622
g73
I3
ssg74
Nsg67
(lp1623
g60
(g76
g62
NtRp1624
(dp1625
g65
(dp1626
sg74
g1620
sg67
(lp1627
g60
(g81
g62
NtRp1628
(dp1629
g65
(dp1630
sg74
g1624
sg67
(lp1631
g60
(g61
g62
NtRp1632
(dp1633
g65
(dp1634
g73
I3
ssg74
g1628
sg67
(lp1635
S'1'
asbasbasbag60
(g76
g62
NtRp1636
(dp1637
g65
(dp1638
sg74
g1620
sg67
(lp1639
g60
(g81
g62
NtRp1640
(dp1641
g65
(dp1642
sg74
g1636
sg67
(lp1643
g60
(g61
g62
NtRp1644
(dp1645
g65
(dp1646
g73
I3
ssg74
g1640
sg67
(lp1647
S'0'
asbasbasbasbasbasbasbasbasbasbasbag60
(g76
g62
NtRp1648
(dp1649
g65
(dp1650
sg74
g70
sg67
(lp1651
g60
(g81
g62
NtRp1652
(dp1653
g65
(dp1654
g85
g86
ssg74
g1648
sg67
(lp1655
S'extension'
p1656
asbag60
(g81
g62
NtRp1657
(dp1658
g65
(dp1659
g92
g93
ssg74
g1648
sg67
(lp1660
S':'
asbag60
(g81
g62
NtRp1661
(dp1662
g65
(dp1663
sg74
g1648
sg67
(lp1664
g60
(g61
g62
NtRp1665
(dp1666
g65
(dp1667
g73
I5
ssg74
g1661
sg67
(lp1668
S'html'
p1669
asbasbasbag60
(g76
g62
NtRp1670
(dp1671
g65
(dp1672
sg74
g70
sg67
(lp1673
g60
(g81
g62
NtRp1674
(dp1675
g65
(dp1676
g85
g86
ssg74
g1670
sg67
(lp1677
S'folder'
p1678
asbag60
(g81
g62
NtRp1679
(dp1680
g65
(dp1681
g92
g93
ssg74
g1670
sg67
(lp1682
S':'
asbag60
(g81
g62
NtRp1683
(dp1684
g65
(dp1685
sg74
g1670
sg67
(lp1686
g60
(g61
g62
NtRp1687
(dp1688
g65
(dp1689
g73
I5
ssg74
g1683
sg67
(lp1690
S'C:\\Users\\Atomico\\web2py\\applications\\Desglosar_Emails\\'
p1691
asbasbasbag60
(g76
g62
NtRp1692
(dp1693
g65
(dp1694
sg74
g70
sg67
(lp1695
g60
(g81
g62
NtRp1696
(dp1697
g65
(dp1698
g85
g86
ssg74
g1692
sg67
(lp1699
S'function'
p1700
asbag60
(g81
g62
NtRp1701
(dp1702
g65
(dp1703
g92
g93
ssg74
g1692
sg67
(lp1704
S':'
asbag60
(g81
g62
NtRp1705
(dp1706
g65
(dp1707
sg74
g1692
sg67
(lp1708
g60
(g61
g62
NtRp1709
(dp1710
g65
(dp1711
g73
I5
ssg74
g1705
sg67
(lp1712
S'entrada_mod3'
p1713
asbasbasbag60
(g76
g62
NtRp1714
(dp1715
g65
(dp1716
sg74
g70
sg67
(lp1717
g60
(g81
g62
NtRp1718
(dp1719
g65
(dp1720
g85
g86
ssg74
g1714
sg67
(lp1721
S'get_vars'
p1722
asbag60
(g81
g62
NtRp1723
(dp1724
g65
(dp1725
g92
g93
ssg74
g1714
sg67
(lp1726
S':'
asbag60
(g81
g62
NtRp1727
(dp1728
g65
(dp1729
sg74
g1714
sg67
(lp1730
g60
(g61
g62
NtRp1731
(dp1732
g65
(dp1733
g73
I5
ssg74
g1727
sg67
(lp1734
g60
(g69
g62
NtRp1735
(dp1736
g65
(dp1737
g73
I4
ssg74
Nsg67
(lp1738
sbasbasbasbag60
(g76
g62
NtRp1739
(dp1740
g65
(dp1741
sg74
g70
sg67
(lp1742
g60
(g81
g62
NtRp1743
(dp1744
g65
(dp1745
g85
g86
ssg74
g1739
sg67
(lp1746
S'is_https'
p1747
asbag60
(g81
g62
NtRp1748
(dp1749
g65
(dp1750
g92
g93
ssg74
g1739
sg67
(lp1751
S':'
asbag60
(g81
g62
NtRp1752
(dp1753
g65
(dp1754
sg74
g1739
sg67
(lp1755
g60
(g61
g62
NtRp1756
(dp1757
g65
(dp1758
g73
I5
ssg74
g1752
sg67
(lp1759
g103
asbasbasbag60
(g76
g62
NtRp1760
(dp1761
g65
(dp1762
sg74
g70
sg67
(lp1763
g60
(g81
g62
NtRp1764
(dp1765
g65
(dp1766
g85
g86
ssg74
g1760
sg67
(lp1767
S'is_local'
p1768
asbag60
(g81
g62
NtRp1769
(dp1770
g65
(dp1771
g92
g93
ssg74
g1760
sg67
(lp1772
S':'
asbag60
(g81
g62
NtRp1773
(dp1774
g65
(dp1775
sg74
g1760
sg67
(lp1776
g60
(g61
g62
NtRp1777
(dp1778
g65
(dp1779
g73
I5
ssg74
g1773
sg67
(lp1780
g1555
asbasbasbag60
(g76
g62
NtRp1781
(dp1782
g65
(dp1783
sg74
g70
sg67
(lp1784
g60
(g81
g62
NtRp1785
(dp1786
g65
(dp1787
g85
g86
ssg74
g1781
sg67
(lp1788
S'is_restful'
p1789
asbag60
(g81
g62
NtRp1790
(dp1791
g65
(dp1792
g92
g93
ssg74
g1781
sg67
(lp1793
S':'
asbag60
(g81
g62
NtRp1794
(dp1795
g65
(dp1796
sg74
g1781
sg67
(lp1797
g60
(g61
g62
NtRp1798
(dp1799
g65
(dp1800
g73
I5
ssg74
g1794
sg67
(lp1801
g103
asbasbasbag60
(g76
g62
NtRp1802
(dp1803
g65
(dp1804
sg74
g70
sg67
(lp1805
g60
(g81
g62
NtRp1806
(dp1807
g65
(dp1808
g85
g86
ssg74
g1802
sg67
(lp1809
S'now'
p1810
asbag60
(g81
g62
NtRp1811
(dp1812
g65
(dp1813
g92
g93
ssg74
g1802
sg67
(lp1814
S':'
asbag60
(g81
g62
NtRp1815
(dp1816
g65
(dp1817
sg74
g1802
sg67
(lp1818
g60
(g61
g62
NtRp1819
(dp1820
g65
(dp1821
g73
I5
ssg74
g1815
sg67
(lp1822
S'datetime.datetime(2011, 9, 20, 12, 17, 58, 72000)'
p1823
asbasbasbag60
(g76
g62
NtRp1824
(dp1825
g65
(dp1826
sg74
g70
sg67
(lp1827
g60
(g81
g62
NtRp1828
(dp1829
g65
(dp1830
g85
g86
ssg74
g1824
sg67
(lp1831
S'post_vars'
p1832
asbag60
(g81
g62
NtRp1833
(dp1834
g65
(dp1835
g92
g93
ssg74
g1824
sg67
(lp1836
S':'
asbag60
(g81
g62
NtRp1837
(dp1838
g65
(dp1839
sg74
g1824
sg67
(lp1840
g60
(g61
g62
NtRp1841
(dp1842
g65
(dp1843
g73
I5
ssg74
g1837
sg67
(lp1844
g60
(g69
g62
NtRp1845
(dp1846
g65
(dp1847
g73
I4
ssg74
Nsg67
(lp1848
sbasbasbasbag60
(g76
g62
NtRp1849
(dp1850
g65
(dp1851
sg74
g70
sg67
(lp1852
g60
(g81
g62
NtRp1853
(dp1854
g65
(dp1855
g85
g86
ssg74
g1849
sg67
(lp1856
S'url'
p1857
asbag60
(g81
g62
NtRp1858
(dp1859
g65
(dp1860
g92
g93
ssg74
g1849
sg67
(lp1861
S':'
asbag60
(g81
g62
NtRp1862
(dp1863
g65
(dp1864
sg74
g1849
sg67
(lp1865
g60
(g61
g62
NtRp1866
(dp1867
g65
(dp1868
g73
I5
ssg74
g1862
sg67
(lp1869
S'/Desglosar_Emails/default/entrada_mod3'
p1870
asbasbasbag60
(g76
g62
NtRp1871
(dp1872
g65
(dp1873
sg74
g70
sg67
(lp1874
g60
(g81
g62
NtRp1875
(dp1876
g65
(dp1877
g85
g86
ssg74
g1871
sg67
(lp1878
S'uuid'
p1879
asbag60
(g81
g62
NtRp1880
(dp1881
g65
(dp1882
g92
g93
ssg74
g1871
sg67
(lp1883
S':'
asbag60
(g81
g62
NtRp1884
(dp1885
g65
(dp1886
sg74
g1871
sg67
(lp1887
g60
(g61
g62
NtRp1888
(dp1889
g65
(dp1890
g73
I5
ssg74
g1884
sg67
(lp1891
S'Desglosar_Emails/127.0.0.1.2011-09-20.12-17-58.a50c545d-9749-4966-b0ce-331bf6dbcb86'
p1892
asbasbasbag60
(g76
g62
NtRp1893
(dp1894
g65
(dp1895
sg74
g70
sg67
(lp1896
g60
(g81
g62
NtRp1897
(dp1898
g65
(dp1899
g85
g86
ssg74
g1893
sg67
(lp1900
S'vars'
p1901
asbag60
(g81
g62
NtRp1902
(dp1903
g65
(dp1904
g92
g93
ssg74
g1893
sg67
(lp1905
S':'
asbag60
(g81
g62
NtRp1906
(dp1907
g65
(dp1908
sg74
g1893
sg67
(lp1909
g60
(g61
g62
NtRp1910
(dp1911
g65
(dp1912
g73
I5
ssg74
g1906
sg67
(lp1913
g60
(g69
g62
NtRp1914
(dp1915
g65
(dp1916
g73
I4
ssg74
Nsg67
(lp1917
sbasbasbasbag60
(g76
g62
NtRp1918
(dp1919
g65
(dp1920
sg74
g70
sg67
(lp1921
g60
(g81
g62
NtRp1922
(dp1923
g65
(dp1924
g85
g86
ssg74
g1918
sg67
(lp1925
S'wsgi'
p1926
asbag60
(g81
g62
NtRp1927
(dp1928
g65
(dp1929
g92
g93
ssg74
g1918
sg67
(lp1930
S':'
asbag60
(g81
g62
NtRp1931
(dp1932
g65
(dp1933
sg74
g1918
sg67
(lp1934
g60
(g61
g62
NtRp1935
(dp1936
g65
(dp1937
g73
I5
ssg74
g1931
sg67
(lp1938
g60
(g69
g62
NtRp1939
(dp1940
g65
(dp1941
g73
I4
ssg74
Nsg67
(lp1942
g60
(g76
g62
NtRp1943
(dp1944
g65
(dp1945
sg74
g1939
sg67
(lp1946
g60
(g81
g62
NtRp1947
(dp1948
g65
(dp1949
g85
g86
ssg74
g1943
sg67
(lp1950
S'environ'
p1951
asbag60
(g81
g62
NtRp1952
(dp1953
g65
(dp1954
g92
g93
ssg74
g1943
sg67
(lp1955
S':'
asbag60
(g81
g62
NtRp1956
(dp1957
g65
(dp1958
sg74
g1943
sg67
(lp1959
g60
(g61
g62
NtRp1960
(dp1961
g65
(dp1962
g73
I4
ssg74
g1956
sg67
(lp1963
g60
(g69
g62
NtRp1964
(dp1965
g65
(dp1966
g73
I3
ssg74
Nsg67
(lp1967
g60
(g76
g62
NtRp1968
(dp1969
g65
(dp1970
sg74
g1964
sg67
(lp1971
g60
(g81
g62
NtRp1972
(dp1973
g65
(dp1974
g85
g86
ssg74
g1968
sg67
(lp1975
S'HTTP_ACCEPT'
p1976
asbag60
(g81
g62
NtRp1977
(dp1978
g65
(dp1979
g92
g93
ssg74
g1968
sg67
(lp1980
S':'
asbag60
(g81
g62
NtRp1981
(dp1982
g65
(dp1983
sg74
g1968
sg67
(lp1984
g60
(g61
g62
NtRp1985
(dp1986
g65
(dp1987
g73
I3
ssg74
g1981
sg67
(lp1988
g945
asbasbasbag60
(g76
g62
NtRp1989
(dp1990
g65
(dp1991
sg74
g1964
sg67
(lp1992
g60
(g81
g62
NtRp1993
(dp1994
g65
(dp1995
g85
g86
ssg74
g1989
sg67
(lp1996
S'HTTP_ACCEPT_CHARSET'
p1997
asbag60
(g81
g62
NtRp1998
(dp1999
g65
(dp2000
g92
g93
ssg74
g1989
sg67
(lp2001
S':'
asbag60
(g81
g62
NtRp2002
(dp2003
g65
(dp2004
sg74
g1989
sg67
(lp2005
g60
(g61
g62
NtRp2006
(dp2007
g65
(dp2008
g73
I3
ssg74
g2002
sg67
(lp2009
g967
asbasbasbag60
(g76
g62
NtRp2010
(dp2011
g65
(dp2012
sg74
g1964
sg67
(lp2013
g60
(g81
g62
NtRp2014
(dp2015
g65
(dp2016
g85
g86
ssg74
g2010
sg67
(lp2017
S'HTTP_ACCEPT_ENCODING'
p2018
asbag60
(g81
g62
NtRp2019
(dp2020
g65
(dp2021
g92
g93
ssg74
g2010
sg67
(lp2022
S':'
asbag60
(g81
g62
NtRp2023
(dp2024
g65
(dp2025
sg74
g2010
sg67
(lp2026
g60
(g61
g62
NtRp2027
(dp2028
g65
(dp2029
g73
I3
ssg74
g2023
sg67
(lp2030
g989
asbasbasbag60
(g76
g62
NtRp2031
(dp2032
g65
(dp2033
sg74
g1964
sg67
(lp2034
g60
(g81
g62
NtRp2035
(dp2036
g65
(dp2037
g85
g86
ssg74
g2031
sg67
(lp2038
S'HTTP_ACCEPT_LANGUAGE'
p2039
asbag60
(g81
g62
NtRp2040
(dp2041
g65
(dp2042
g92
g93
ssg74
g2031
sg67
(lp2043
S':'
asbag60
(g81
g62
NtRp2044
(dp2045
g65
(dp2046
sg74
g2031
sg67
(lp2047
g60
(g61
g62
NtRp2048
(dp2049
g65
(dp2050
g73
I3
ssg74
g2044
sg67
(lp2051
g1011
asbasbasbag60
(g76
g62
NtRp2052
(dp2053
g65
(dp2054
sg74
g1964
sg67
(lp2055
g60
(g81
g62
NtRp2056
(dp2057
g65
(dp2058
g85
g86
ssg74
g2052
sg67
(lp2059
S'HTTP_CACHE_CONTROL'
p2060
asbag60
(g81
g62
NtRp2061
(dp2062
g65
(dp2063
g92
g93
ssg74
g2052
sg67
(lp2064
S':'
asbag60
(g81
g62
NtRp2065
(dp2066
g65
(dp2067
sg74
g2052
sg67
(lp2068
g60
(g61
g62
NtRp2069
(dp2070
g65
(dp2071
g73
I3
ssg74
g2065
sg67
(lp2072
g1033
asbasbasbag60
(g76
g62
NtRp2073
(dp2074
g65
(dp2075
sg74
g1964
sg67
(lp2076
g60
(g81
g62
NtRp2077
(dp2078
g65
(dp2079
g85
g86
ssg74
g2073
sg67
(lp2080
S'HTTP_CONNECTION'
p2081
asbag60
(g81
g62
NtRp2082
(dp2083
g65
(dp2084
g92
g93
ssg74
g2073
sg67
(lp2085
S':'
asbag60
(g81
g62
NtRp2086
(dp2087
g65
(dp2088
sg74
g2073
sg67
(lp2089
g60
(g61
g62
NtRp2090
(dp2091
g65
(dp2092
g73
I3
ssg74
g2086
sg67
(lp2093
g1055
asbasbasbag60
(g76
g62
NtRp2094
(dp2095
g65
(dp2096
sg74
g1964
sg67
(lp2097
g60
(g81
g62
NtRp2098
(dp2099
g65
(dp2100
g85
g86
ssg74
g2094
sg67
(lp2101
S'HTTP_COOKIE'
p2102
asbag60
(g81
g62
NtRp2103
(dp2104
g65
(dp2105
g92
g93
ssg74
g2094
sg67
(lp2106
S':'
asbag60
(g81
g62
NtRp2107
(dp2108
g65
(dp2109
sg74
g2094
sg67
(lp2110
g60
(g61
g62
NtRp2111
(dp2112
g65
(dp2113
g73
I3
ssg74
g2107
sg67
(lp2114
g1077
asbasbasbag60
(g76
g62
NtRp2115
(dp2116
g65
(dp2117
sg74
g1964
sg67
(lp2118
g60
(g81
g62
NtRp2119
(dp2120
g65
(dp2121
g85
g86
ssg74
g2115
sg67
(lp2122
S'HTTP_HOST'
p2123
asbag60
(g81
g62
NtRp2124
(dp2125
g65
(dp2126
g92
g93
ssg74
g2115
sg67
(lp2127
S':'
asbag60
(g81
g62
NtRp2128
(dp2129
g65
(dp2130
sg74
g2115
sg67
(lp2131
g60
(g61
g62
NtRp2132
(dp2133
g65
(dp2134
g73
I3
ssg74
g2128
sg67
(lp2135
g1099
asbasbasbag60
(g76
g62
NtRp2136
(dp2137
g65
(dp2138
sg74
g1964
sg67
(lp2139
g60
(g81
g62
NtRp2140
(dp2141
g65
(dp2142
g85
g86
ssg74
g2136
sg67
(lp2143
S'HTTP_REFERER'
p2144
asbag60
(g81
g62
NtRp2145
(dp2146
g65
(dp2147
g92
g93
ssg74
g2136
sg67
(lp2148
S':'
asbag60
(g81
g62
NtRp2149
(dp2150
g65
(dp2151
sg74
g2136
sg67
(lp2152
g60
(g61
g62
NtRp2153
(dp2154
g65
(dp2155
g73
I3
ssg74
g2149
sg67
(lp2156
g1121
asbasbasbag60
(g76
g62
NtRp2157
(dp2158
g65
(dp2159
sg74
g1964
sg67
(lp2160
g60
(g81
g62
NtRp2161
(dp2162
g65
(dp2163
g85
g86
ssg74
g2157
sg67
(lp2164
S'HTTP_USER_AGENT'
p2165
asbag60
(g81
g62
NtRp2166
(dp2167
g65
(dp2168
g92
g93
ssg74
g2157
sg67
(lp2169
S':'
asbag60
(g81
g62
NtRp2170
(dp2171
g65
(dp2172
sg74
g2157
sg67
(lp2173
g60
(g61
g62
NtRp2174
(dp2175
g65
(dp2176
g73
I3
ssg74
g2170
sg67
(lp2177
g1143
asbasbasbag60
(g76
g62
NtRp2178
(dp2179
g65
(dp2180
sg74
g1964
sg67
(lp2181
g60
(g81
g62
NtRp2182
(dp2183
g65
(dp2184
g85
g86
ssg74
g2178
sg67
(lp2185
S'PATH_INFO'
p2186
asbag60
(g81
g62
NtRp2187
(dp2188
g65
(dp2189
g92
g93
ssg74
g2178
sg67
(lp2190
S':'
asbag60
(g81
g62
NtRp2191
(dp2192
g65
(dp2193
sg74
g2178
sg67
(lp2194
g60
(g61
g62
NtRp2195
(dp2196
g65
(dp2197
g73
I3
ssg74
g2191
sg67
(lp2198
g1186
asbasbasbag60
(g76
g62
NtRp2199
(dp2200
g65
(dp2201
sg74
g1964
sg67
(lp2202
g60
(g81
g62
NtRp2203
(dp2204
g65
(dp2205
g85
g86
ssg74
g2199
sg67
(lp2206
S'QUERY_STRING'
p2207
asbag60
(g81
g62
NtRp2208
(dp2209
g65
(dp2210
g92
g93
ssg74
g2199
sg67
(lp2211
S':'
asbag60
(g81
g62
NtRp2212
(dp2213
g65
(dp2214
sg74
g2199
sg67
(lp2215
g60
(g61
g62
NtRp2216
(dp2217
g65
(dp2218
g73
I3
ssg74
g2212
sg67
(lp2219
S''
asbasbasbag60
(g76
g62
NtRp2220
(dp2221
g65
(dp2222
sg74
g1964
sg67
(lp2223
g60
(g81
g62
NtRp2224
(dp2225
g65
(dp2226
g85
g86
ssg74
g2220
sg67
(lp2227
S'REMOTE_ADDR'
p2228
asbag60
(g81
g62
NtRp2229
(dp2230
g65
(dp2231
g92
g93
ssg74
g2220
sg67
(lp2232
S':'
asbag60
(g81
g62
NtRp2233
(dp2234
g65
(dp2235
sg74
g2220
sg67
(lp2236
g60
(g61
g62
NtRp2237
(dp2238
g65
(dp2239
g73
I3
ssg74
g2233
sg67
(lp2240
g193
asbasbasbag60
(g76
g62
NtRp2241
(dp2242
g65
(dp2243
sg74
g1964
sg67
(lp2244
g60
(g81
g62
NtRp2245
(dp2246
g65
(dp2247
g85
g86
ssg74
g2241
sg67
(lp2248
S'REMOTE_PORT'
p2249
asbag60
(g81
g62
NtRp2250
(dp2251
g65
(dp2252
g92
g93
ssg74
g2241
sg67
(lp2253
S':'
asbag60
(g81
g62
NtRp2254
(dp2255
g65
(dp2256
sg74
g2241
sg67
(lp2257
g60
(g61
g62
NtRp2258
(dp2259
g65
(dp2260
g73
I3
ssg74
g2254
sg67
(lp2261
g1250
asbasbasbag60
(g76
g62
NtRp2262
(dp2263
g65
(dp2264
sg74
g1964
sg67
(lp2265
g60
(g81
g62
NtRp2266
(dp2267
g65
(dp2268
g85
g86
ssg74
g2262
sg67
(lp2269
S'REQUEST_METHOD'
p2270
asbag60
(g81
g62
NtRp2271
(dp2272
g65
(dp2273
g92
g93
ssg74
g2262
sg67
(lp2274
S':'
asbag60
(g81
g62
NtRp2275
(dp2276
g65
(dp2277
sg74
g2262
sg67
(lp2278
g60
(g61
g62
NtRp2279
(dp2280
g65
(dp2281
g73
I3
ssg74
g2275
sg67
(lp2282
g1272
asbasbasbag60
(g76
g62
NtRp2283
(dp2284
g65
(dp2285
sg74
g1964
sg67
(lp2286
g60
(g81
g62
NtRp2287
(dp2288
g65
(dp2289
g85
g86
ssg74
g2283
sg67
(lp2290
S'SCRIPT_NAME'
p2291
asbag60
(g81
g62
NtRp2292
(dp2293
g65
(dp2294
g92
g93
ssg74
g2283
sg67
(lp2295
S':'
asbag60
(g81
g62
NtRp2296
(dp2297
g65
(dp2298
sg74
g2283
sg67
(lp2299
g60
(g61
g62
NtRp2300
(dp2301
g65
(dp2302
g73
I3
ssg74
g2296
sg67
(lp2303
S''
asbasbasbag60
(g76
g62
NtRp2304
(dp2305
g65
(dp2306
sg74
g1964
sg67
(lp2307
g60
(g81
g62
NtRp2308
(dp2309
g65
(dp2310
g85
g86
ssg74
g2304
sg67
(lp2311
S'SERVER_NAME'
p2312
asbag60
(g81
g62
NtRp2313
(dp2314
g65
(dp2315
g92
g93
ssg74
g2304
sg67
(lp2316
S':'
asbag60
(g81
g62
NtRp2317
(dp2318
g65
(dp2319
sg74
g2304
sg67
(lp2320
g60
(g61
g62
NtRp2321
(dp2322
g65
(dp2323
g73
I3
ssg74
g2317
sg67
(lp2324
g1315
asbasbasbag60
(g76
g62
NtRp2325
(dp2326
g65
(dp2327
sg74
g1964
sg67
(lp2328
g60
(g81
g62
NtRp2329
(dp2330
g65
(dp2331
g85
g86
ssg74
g2325
sg67
(lp2332
S'SERVER_PORT'
p2333
asbag60
(g81
g62
NtRp2334
(dp2335
g65
(dp2336
g92
g93
ssg74
g2325
sg67
(lp2337
S':'
asbag60
(g81
g62
NtRp2338
(dp2339
g65
(dp2340
sg74
g2325
sg67
(lp2341
g60
(g61
g62
NtRp2342
(dp2343
g65
(dp2344
g73
I3
ssg74
g2338
sg67
(lp2345
g1337
asbasbasbag60
(g76
g62
NtRp2346
(dp2347
g65
(dp2348
sg74
g1964
sg67
(lp2349
g60
(g81
g62
NtRp2350
(dp2351
g65
(dp2352
g85
g86
ssg74
g2346
sg67
(lp2353
S'SERVER_PROTOCOL'
p2354
asbag60
(g81
g62
NtRp2355
(dp2356
g65
(dp2357
g92
g93
ssg74
g2346
sg67
(lp2358
S':'
asbag60
(g81
g62
NtRp2359
(dp2360
g65
(dp2361
sg74
g2346
sg67
(lp2362
g60
(g61
g62
NtRp2363
(dp2364
g65
(dp2365
g73
I3
ssg74
g2359
sg67
(lp2366
g1359
asbasbasbag60
(g76
g62
NtRp2367
(dp2368
g65
(dp2369
sg74
g1964
sg67
(lp2370
g60
(g81
g62
NtRp2371
(dp2372
g65
(dp2373
g85
g86
ssg74
g2367
sg67
(lp2374
S'SERVER_SOFTWARE'
p2375
asbag60
(g81
g62
NtRp2376
(dp2377
g65
(dp2378
g92
g93
ssg74
g2367
sg67
(lp2379
S':'
asbag60
(g81
g62
NtRp2380
(dp2381
g65
(dp2382
sg74
g2367
sg67
(lp2383
g60
(g61
g62
NtRp2384
(dp2385
g65
(dp2386
g73
I3
ssg74
g2380
sg67
(lp2387
g1381
asbasbasbag60
(g76
g62
NtRp2388
(dp2389
g65
(dp2390
sg74
g1964
sg67
(lp2391
g60
(g81
g62
NtRp2392
(dp2393
g65
(dp2394
g85
g86
ssg74
g2388
sg67
(lp2395
S'wsgi.errors'
p2396
asbag60
(g81
g62
NtRp2397
(dp2398
g65
(dp2399
g92
g93
ssg74
g2388
sg67
(lp2400
S':'
asbag60
(g81
g62
NtRp2401
(dp2402
g65
(dp2403
sg74
g2388
sg67
(lp2404
g60
(g61
g62
NtRp2405
(dp2406
g65
(dp2407
g73
I3
ssg74
g2401
sg67
(lp2408
S"<open file '<stderr>', mode 'w' at 0x01F200B0>"
p2409
asbasbasbag60
(g76
g62
NtRp2410
(dp2411
g65
(dp2412
sg74
g1964
sg67
(lp2413
g60
(g81
g62
NtRp2414
(dp2415
g65
(dp2416
g85
g86
ssg74
g2410
sg67
(lp2417
S'wsgi.file_wrapper'
p2418
asbag60
(g81
g62
NtRp2419
(dp2420
g65
(dp2421
g92
g93
ssg74
g2410
sg67
(lp2422
S':'
asbag60
(g81
g62
NtRp2423
(dp2424
g65
(dp2425
sg74
g2410
sg67
(lp2426
g60
(g61
g62
NtRp2427
(dp2428
g65
(dp2429
g73
I3
ssg74
g2423
sg67
(lp2430
S'<class gluon.rocket.FileWrapper at 0x0307F1B0>'
p2431
asbasbasbag60
(g76
g62
NtRp2432
(dp2433
g65
(dp2434
sg74
g1964
sg67
(lp2435
g60
(g81
g62
NtRp2436
(dp2437
g65
(dp2438
g85
g86
ssg74
g2432
sg67
(lp2439
S'wsgi.input'
p2440
asbag60
(g81
g62
NtRp2441
(dp2442
g65
(dp2443
g92
g93
ssg74
g2432
sg67
(lp2444
S':'
asbag60
(g81
g62
NtRp2445
(dp2446
g65
(dp2447
sg74
g2432
sg67
(lp2448
g60
(g61
g62
NtRp2449
(dp2450
g65
(dp2451
g73
I3
ssg74
g2445
sg67
(lp2452
S'<cStringIO.StringO object at 0x079D7500>'
p2453
asbasbasbag60
(g76
g62
NtRp2454
(dp2455
g65
(dp2456
sg74
g1964
sg67
(lp2457
g60
(g81
g62
NtRp2458
(dp2459
g65
(dp2460
g85
g86
ssg74
g2454
sg67
(lp2461
S'wsgi.multiprocess'
p2462
asbag60
(g81
g62
NtRp2463
(dp2464
g65
(dp2465
g92
g93
ssg74
g2454
sg67
(lp2466
S':'
asbag60
(g81
g62
NtRp2467
(dp2468
g65
(dp2469
sg74
g2454
sg67
(lp2470
g60
(g61
g62
NtRp2471
(dp2472
g65
(dp2473
g73
I3
ssg74
g2467
sg67
(lp2474
g103
asbasbasbag60
(g76
g62
NtRp2475
(dp2476
g65
(dp2477
sg74
g1964
sg67
(lp2478
g60
(g81
g62
NtRp2479
(dp2480
g65
(dp2481
g85
g86
ssg74
g2475
sg67
(lp2482
S'wsgi.multithread'
p2483
asbag60
(g81
g62
NtRp2484
(dp2485
g65
(dp2486
g92
g93
ssg74
g2475
sg67
(lp2487
S':'
asbag60
(g81
g62
NtRp2488
(dp2489
g65
(dp2490
sg74
g2475
sg67
(lp2491
g60
(g61
g62
NtRp2492
(dp2493
g65
(dp2494
g73
I3
ssg74
g2488
sg67
(lp2495
g1555
asbasbasbag60
(g76
g62
NtRp2496
(dp2497
g65
(dp2498
sg74
g1964
sg67
(lp2499
g60
(g81
g62
NtRp2500
(dp2501
g65
(dp2502
g85
g86
ssg74
g2496
sg67
(lp2503
S'wsgi.run_once'
p2504
asbag60
(g81
g62
NtRp2505
(dp2506
g65
(dp2507
g92
g93
ssg74
g2496
sg67
(lp2508
S':'
asbag60
(g81
g62
NtRp2509
(dp2510
g65
(dp2511
sg74
g2496
sg67
(lp2512
g60
(g61
g62
NtRp2513
(dp2514
g65
(dp2515
g73
I3
ssg74
g2509
sg67
(lp2516
g103
asbasbasbag60
(g76
g62
NtRp2517
(dp2518
g65
(dp2519
sg74
g1964
sg67
(lp2520
g60
(g81
g62
NtRp2521
(dp2522
g65
(dp2523
g85
g86
ssg74
g2517
sg67
(lp2524
S'wsgi.url_scheme'
p2525
asbag60
(g81
g62
NtRp2526
(dp2527
g65
(dp2528
g92
g93
ssg74
g2517
sg67
(lp2529
S':'
asbag60
(g81
g62
NtRp2530
(dp2531
g65
(dp2532
sg74
g2517
sg67
(lp2533
g60
(g61
g62
NtRp2534
(dp2535
g65
(dp2536
g73
I3
ssg74
g2530
sg67
(lp2537
g1598
asbasbasbag60
(g76
g62
NtRp2538
(dp2539
g65
(dp2540
sg74
g1964
sg67
(lp2541
g60
(g81
g62
NtRp2542
(dp2543
g65
(dp2544
g85
g86
ssg74
g2538
sg67
(lp2545
S'wsgi.version'
p2546
asbag60
(g81
g62
NtRp2547
(dp2548
g65
(dp2549
g92
g93
ssg74
g2538
sg67
(lp2550
S':'
asbag60
(g81
g62
NtRp2551
(dp2552
g65
(dp2553
sg74
g2538
sg67
(lp2554
g60
(g61
g62
NtRp2555
(dp2556
g65
(dp2557
g73
I3
ssg74
g2551
sg67
(lp2558
S'1'
asbasbasbasbasbasbasbasbasbasbasbasbasbsS'frames'
p2559
(lp2560
(dp2561
S'file'
p2562
S'C:\\Users\\Atomico\\web2py\\gluon\\restricted.py'
p2563
sS'dump'
p2564
(dp2565
sS'lnum'
p2566
I191
sS'lines'
p2567
(dp2568
sS'call'
p2569
S'(code=\'response.write(\\\'<!DOCTYPE html>\\\\n<html lang="\\\', ...t   -->    \\\\n  </body>\\\\n</html>\\\\n\\\', escape=False)\', environment={\'A\': <class \'gluon.html.A\'>, \'B\': <class \'gluon.html.B\'>, \'BEAUTIFY\': <class \'gluon.html.BEAUTIFY\'>, \'BODY\': <class \'gluon.html.BODY\'>, \'BR\': <class \'gluon.html.BR\'>, \'BUTTON\': <class \'gluon.html.BUTTON\'>, \'CAT\': <class \'gluon.html.CAT\'>, \'CENTER\': <class \'gluon.html.CENTER\'>, \'CLEANUP\': <class \'gluon.validators.CLEANUP\'>, \'CODE\': <class \'gluon.html.CODE\'>, ...}, layer=r\'C:\\Users\\Atomico\\web2py\\applications\\Desglosar_Emails\\views\\default/entrada_mod3.html\')'
p2570
sS'func'
p2571
S'restricted'
p2572
sa(dp2573
g2562
S'C:\\Users\\Atomico\\web2py\\gluon\\restricted.py'
p2574
sg2564
(dp2575
sg2566
I178
sg2567
(dp2576
sg2569
S'(code=\'response.write(\\\'<!DOCTYPE html>\\\\n<html lang="\\\', ...t   -->    \\\\n  </body>\\\\n</html>\\\\n\\\', escape=False)\', layer=r\'C:\\Users\\Atomico\\web2py\\applications\\Desglosar_Emails\\views\\default/entrada_mod3.html\')'
p2577
sg2571
S'compile2'
p2578
sasS'pyver'
p2579
S'Python 2.5.4: C:\\Users\\Atomico\\web2py\\web2py.exe'
p2580
sS'session'
p2581
g60
(g61
g62
NtRp2582
(dp2583
g65
(dp2584
sg67
(lp2585
g60
(g69
g62
NtRp2586
(dp2587
g65
(dp2588
g73
I5
ssg74
Nsg67
(lp2589
g60
(g76
g62
NtRp2590
(dp2591
g65
(dp2592
sg74
g2586
sg67
(lp2593
g60
(g81
g62
NtRp2594
(dp2595
g65
(dp2596
g85
g86
ssg74
g2590
sg67
(lp2597
S'last_query'
p2598
asbag60
(g81
g62
NtRp2599
(dp2600
g65
(dp2601
g92
g93
ssg74
g2590
sg67
(lp2602
S':'
asbag60
(g81
g62
NtRp2603
(dp2604
g65
(dp2605
sg74
g2590
sg67
(lp2606
g60
(g61
g62
NtRp2607
(dp2608
g65
(dp2609
g73
I5
ssg74
g2603
sg67
(lp2610
S'db.contactos.id>0'
p2611
asbasbasbasbasbsS'etype'
p2612
S"<type 'exceptions.SyntaxError'>"
p2613
sS'date'
p2614
S'Tue Sep 20 12:17:58 2011'
p2615
sS'response'
p2616
g60
(g61
g62
NtRp2617
(dp2618
g65
(dp2619
sg67
(lp2620
g60
(g69
g62
NtRp2621
(dp2622
g65
(dp2623
g73
I5
ssg74
Nsg67
(lp2624
g60
(g76
g62
NtRp2625
(dp2626
g65
(dp2627
sg74
g2621
sg67
(lp2628
g60
(g81
g62
NtRp2629
(dp2630
g65
(dp2631
g85
g86
ssg74
g2625
sg67
(lp2632
g158
asbag60
(g81
g62
NtRp2633
(dp2634
g65
(dp2635
g92
g93
ssg74
g2625
sg67
(lp2636
S':'
asbag60
(g81
g62
NtRp2637
(dp2638
g65
(dp2639
sg74
g2625
sg67
(lp2640
g60
(g61
g62
NtRp2641
(dp2642
g65
(dp2643
g73
I5
ssg74
g2637
sg67
(lp2644
S'<cStringIO.StringO object at 0x079D7B80>'
p2645
asbasbasbag60
(g76
g62
NtRp2646
(dp2647
g65
(dp2648
sg74
g2621
sg67
(lp2649
g60
(g81
g62
NtRp2650
(dp2651
g65
(dp2652
g85
g86
ssg74
g2646
sg67
(lp2653
g224
asbag60
(g81
g62
NtRp2654
(dp2655
g65
(dp2656
g92
g93
ssg74
g2646
sg67
(lp2657
S':'
asbag60
(g81
g62
NtRp2658
(dp2659
g65
(dp2660
sg74
g2646
sg67
(lp2661
g60
(g61
g62
NtRp2662
(dp2663
g65
(dp2664
g73
I5
ssg74
g2658
sg67
(lp2665
g60
(g69
g62
NtRp2666
(dp2667
g65
(dp2668
g73
I4
ssg74
Nsg67
(lp2669
g60
(g76
g62
NtRp2670
(dp2671
g65
(dp2672
sg74
g2666
sg67
(lp2673
g60
(g81
g62
NtRp2674
(dp2675
g65
(dp2676
g85
g86
ssg74
g2670
sg67
(lp2677
S'session_id_desglosar_emails'
p2678
asbag60
(g81
g62
NtRp2679
(dp2680
g65
(dp2681
g92
g93
ssg74
g2670
sg67
(lp2682
S':'
asbag60
(g81
g62
NtRp2683
(dp2684
g65
(dp2685
sg74
g2670
sg67
(lp2686
g60
(g61
g62
NtRp2687
(dp2688
g65
(dp2689
g73
I4
ssg74
g2683
sg67
(lp2690
g60
(g69
g62
NtRp2691
(dp2692
g65
(dp2693
g73
I3
ssg74
Nsg67
(lp2694
g60
(g76
g62
NtRp2695
(dp2696
g65
(dp2697
sg74
g2691
sg67
(lp2698
g60
(g81
g62
NtRp2699
(dp2700
g65
(dp2701
g85
g86
ssg74
g2695
sg67
(lp2702
g274
asbag60
(g81
g62
NtRp2703
(dp2704
g65
(dp2705
g92
g93
ssg74
g2695
sg67
(lp2706
S':'
asbag60
(g81
g62
NtRp2707
(dp2708
g65
(dp2709
sg74
g2695
sg67
(lp2710
g60
(g61
g62
NtRp2711
(dp2712
g65
(dp2713
g73
I3
ssg74
g2707
sg67
(lp2714
S''
asbasbasbag60
(g76
g62
NtRp2715
(dp2716
g65
(dp2717
sg74
g2691
sg67
(lp2718
g60
(g81
g62
NtRp2719
(dp2720
g65
(dp2721
g85
g86
ssg74
g2715
sg67
(lp2722
g295
asbag60
(g81
g62
NtRp2723
(dp2724
g65
(dp2725
g92
g93
ssg74
g2715
sg67
(lp2726
S':'
asbag60
(g81
g62
NtRp2727
(dp2728
g65
(dp2729
sg74
g2715
sg67
(lp2730
g60
(g61
g62
NtRp2731
(dp2732
g65
(dp2733
g73
I3
ssg74
g2727
sg67
(lp2734
S''
asbasbasbag60
(g76
g62
NtRp2735
(dp2736
g65
(dp2737
sg74
g2691
sg67
(lp2738
g60
(g81
g62
NtRp2739
(dp2740
g65
(dp2741
g85
g86
ssg74
g2735
sg67
(lp2742
g316
asbag60
(g81
g62
NtRp2743
(dp2744
g65
(dp2745
g92
g93
ssg74
g2735
sg67
(lp2746
S':'
asbag60
(g81
g62
NtRp2747
(dp2748
g65
(dp2749
sg74
g2735
sg67
(lp2750
g60
(g61
g62
NtRp2751
(dp2752
g65
(dp2753
g73
I3
ssg74
g2747
sg67
(lp2754
S''
asbasbasbag60
(g76
g62
NtRp2755
(dp2756
g65
(dp2757
sg74
g2691
sg67
(lp2758
g60
(g81
g62
NtRp2759
(dp2760
g65
(dp2761
g85
g86
ssg74
g2755
sg67
(lp2762
g337
asbag60
(g81
g62
NtRp2763
(dp2764
g65
(dp2765
g92
g93
ssg74
g2755
sg67
(lp2766
S':'
asbag60
(g81
g62
NtRp2767
(dp2768
g65
(dp2769
sg74
g2755
sg67
(lp2770
g60
(g61
g62
NtRp2771
(dp2772
g65
(dp2773
g73
I3
ssg74
g2767
sg67
(lp2774
S''
asbasbasbag60
(g76
g62
NtRp2775
(dp2776
g65
(dp2777
sg74
g2691
sg67
(lp2778
g60
(g81
g62
NtRp2779
(dp2780
g65
(dp2781
g85
g86
ssg74
g2775
sg67
(lp2782
g358
asbag60
(g81
g62
NtRp2783
(dp2784
g65
(dp2785
g92
g93
ssg74
g2775
sg67
(lp2786
S':'
asbag60
(g81
g62
NtRp2787
(dp2788
g65
(dp2789
sg74
g2775
sg67
(lp2790
g60
(g61
g62
NtRp2791
(dp2792
g65
(dp2793
g73
I3
ssg74
g2787
sg67
(lp2794
S'/'
asbasbasbag60
(g76
g62
NtRp2795
(dp2796
g65
(dp2797
sg74
g2691
sg67
(lp2798
g60
(g81
g62
NtRp2799
(dp2800
g65
(dp2801
g85
g86
ssg74
g2795
sg67
(lp2802
g379
asbag60
(g81
g62
NtRp2803
(dp2804
g65
(dp2805
g92
g93
ssg74
g2795
sg67
(lp2806
S':'
asbag60
(g81
g62
NtRp2807
(dp2808
g65
(dp2809
sg74
g2795
sg67
(lp2810
g60
(g61
g62
NtRp2811
(dp2812
g65
(dp2813
g73
I3
ssg74
g2807
sg67
(lp2814
S''
asbasbasbag60
(g76
g62
NtRp2815
(dp2816
g65
(dp2817
sg74
g2691
sg67
(lp2818
g60
(g81
g62
NtRp2819
(dp2820
g65
(dp2821
g85
g86
ssg74
g2815
sg67
(lp2822
g400
asbag60
(g81
g62
NtRp2823
(dp2824
g65
(dp2825
g92
g93
ssg74
g2815
sg67
(lp2826
S':'
asbag60
(g81
g62
NtRp2827
(dp2828
g65
(dp2829
sg74
g2815
sg67
(lp2830
g60
(g61
g62
NtRp2831
(dp2832
g65
(dp2833
g73
I3
ssg74
g2827
sg67
(lp2834
S''
asbasbasbasbasbasbasbasbasbasbasbag60
(g76
g62
NtRp2835
(dp2836
g65
(dp2837
sg74
g2621
sg67
(lp2838
g60
(g81
g62
NtRp2839
(dp2840
g65
(dp2841
g85
g86
ssg74
g2835
sg67
(lp2842
S'files'
p2843
asbag60
(g81
g62
NtRp2844
(dp2845
g65
(dp2846
g92
g93
ssg74
g2835
sg67
(lp2847
S':'
asbag60
(g81
g62
NtRp2848
(dp2849
g65
(dp2850
sg74
g2835
sg67
(lp2851
g60
(g61
g62
NtRp2852
(dp2853
g65
(dp2854
g73
I5
ssg74
g2848
sg67
(lp2855
g60
(g69
g62
NtRp2856
(dp2857
g65
(dp2858
g73
I4
ssg74
Nsg67
(lp2859
sbasbasbasbag60
(g76
g62
NtRp2860
(dp2861
g65
(dp2862
sg74
g2621
sg67
(lp2863
g60
(g81
g62
NtRp2864
(dp2865
g65
(dp2866
g85
g86
ssg74
g2860
sg67
(lp2867
S'flash'
p2868
asbag60
(g81
g62
NtRp2869
(dp2870
g65
(dp2871
g92
g93
ssg74
g2860
sg67
(lp2872
S':'
asbag60
(g81
g62
NtRp2873
(dp2874
g65
(dp2875
sg74
g2860
sg67
(lp2876
g60
(g61
g62
NtRp2877
(dp2878
g65
(dp2879
g73
I5
ssg74
g2873
sg67
(lp2880
S''
asbasbasbag60
(g76
g62
NtRp2881
(dp2882
g65
(dp2883
sg74
g2621
sg67
(lp2884
g60
(g81
g62
NtRp2885
(dp2886
g65
(dp2887
g85
g86
ssg74
g2881
sg67
(lp2888
S'generic_patterns'
p2889
asbag60
(g81
g62
NtRp2890
(dp2891
g65
(dp2892
g92
g93
ssg74
g2881
sg67
(lp2893
S':'
asbag60
(g81
g62
NtRp2894
(dp2895
g65
(dp2896
sg74
g2881
sg67
(lp2897
g60
(g61
g62
NtRp2898
(dp2899
g65
(dp2900
g73
I5
ssg74
g2894
sg67
(lp2901
g60
(g69
g62
NtRp2902
(dp2903
g65
(dp2904
g73
I4
ssg74
Nsg67
(lp2905
sbasbasbasbag60
(g76
g62
NtRp2906
(dp2907
g65
(dp2908
sg74
g2621
sg67
(lp2909
g60
(g81
g62
NtRp2910
(dp2911
g65
(dp2912
g85
g86
ssg74
g2906
sg67
(lp2913
S'headers'
p2914
asbag60
(g81
g62
NtRp2915
(dp2916
g65
(dp2917
g92
g93
ssg74
g2906
sg67
(lp2918
S':'
asbag60
(g81
g62
NtRp2919
(dp2920
g65
(dp2921
sg74
g2906
sg67
(lp2922
g60
(g61
g62
NtRp2923
(dp2924
g65
(dp2925
g73
I5
ssg74
g2919
sg67
(lp2926
g60
(g69
g62
NtRp2927
(dp2928
g65
(dp2929
g73
I4
ssg74
Nsg67
(lp2930
g60
(g76
g62
NtRp2931
(dp2932
g65
(dp2933
sg74
g2927
sg67
(lp2934
g60
(g81
g62
NtRp2935
(dp2936
g65
(dp2937
g85
g86
ssg74
g2931
sg67
(lp2938
S'Cache-Control'
p2939
asbag60
(g81
g62
NtRp2940
(dp2941
g65
(dp2942
g92
g93
ssg74
g2931
sg67
(lp2943
S':'
asbag60
(g81
g62
NtRp2944
(dp2945
g65
(dp2946
sg74
g2931
sg67
(lp2947
g60
(g61
g62
NtRp2948
(dp2949
g65
(dp2950
g73
I4
ssg74
g2944
sg67
(lp2951
S'no-store, no-cache, must-revalidate, post-check=0, pre-check=0'
p2952
asbasbasbag60
(g76
g62
NtRp2953
(dp2954
g65
(dp2955
sg74
g2927
sg67
(lp2956
g60
(g81
g62
NtRp2957
(dp2958
g65
(dp2959
g85
g86
ssg74
g2953
sg67
(lp2960
S'Content-Type'
p2961
asbag60
(g81
g62
NtRp2962
(dp2963
g65
(dp2964
g92
g93
ssg74
g2953
sg67
(lp2965
S':'
asbag60
(g81
g62
NtRp2966
(dp2967
g65
(dp2968
sg74
g2953
sg67
(lp2969
g60
(g61
g62
NtRp2970
(dp2971
g65
(dp2972
g73
I4
ssg74
g2966
sg67
(lp2973
S'text/html; charset=utf-8'
p2974
asbasbasbag60
(g76
g62
NtRp2975
(dp2976
g65
(dp2977
sg74
g2927
sg67
(lp2978
g60
(g81
g62
NtRp2979
(dp2980
g65
(dp2981
g85
g86
ssg74
g2975
sg67
(lp2982
S'Expires'
p2983
asbag60
(g81
g62
NtRp2984
(dp2985
g65
(dp2986
g92
g93
ssg74
g2975
sg67
(lp2987
S':'
asbag60
(g81
g62
NtRp2988
(dp2989
g65
(dp2990
sg74
g2975
sg67
(lp2991
g60
(g61
g62
NtRp2992
(dp2993
g65
(dp2994
g73
I4
ssg74
g2988
sg67
(lp2995
S'Tue, 20 Sep 2011 10:17:58 GMT'
p2996
asbasbasbag60
(g76
g62
NtRp2997
(dp2998
g65
(dp2999
sg74
g2927
sg67
(lp3000
g60
(g81
g62
NtRp3001
(dp3002
g65
(dp3003
g85
g86
ssg74
g2997
sg67
(lp3004
S'Pragma'
p3005
asbag60
(g81
g62
NtRp3006
(dp3007
g65
(dp3008
g92
g93
ssg74
g2997
sg67
(lp3009
S':'
asbag60
(g81
g62
NtRp3010
(dp3011
g65
(dp3012
sg74
g2997
sg67
(lp3013
g60
(g61
g62
NtRp3014
(dp3015
g65
(dp3016
g73
I4
ssg74
g3010
sg67
(lp3017
S'no-cache'
p3018
asbasbasbag60
(g76
g62
NtRp3019
(dp3020
g65
(dp3021
sg74
g2927
sg67
(lp3022
g60
(g81
g62
NtRp3023
(dp3024
g65
(dp3025
g85
g86
ssg74
g3019
sg67
(lp3026
S'X-Powered-By'
p3027
asbag60
(g81
g62
NtRp3028
(dp3029
g65
(dp3030
g92
g93
ssg74
g3019
sg67
(lp3031
S':'
asbag60
(g81
g62
NtRp3032
(dp3033
g65
(dp3034
sg74
g3019
sg67
(lp3035
g60
(g61
g62
NtRp3036
(dp3037
g65
(dp3038
g73
I4
ssg74
g3032
sg67
(lp3039
S'web2py'
p3040
asbasbasbasbasbasbasbag60
(g76
g62
NtRp3041
(dp3042
g65
(dp3043
sg74
g2621
sg67
(lp3044
g60
(g81
g62
NtRp3045
(dp3046
g65
(dp3047
g85
g86
ssg74
g3041
sg67
(lp3048
S'menu'
p3049
asbag60
(g81
g62
NtRp3050
(dp3051
g65
(dp3052
g92
g93
ssg74
g3041
sg67
(lp3053
S':'
asbag60
(g81
g62
NtRp3054
(dp3055
g65
(dp3056
sg74
g3041
sg67
(lp3057
g60
(g61
g62
NtRp3058
(dp3059
g65
(dp3060
g73
I5
ssg74
g3054
sg67
(lp3061
g60
(g69
g62
NtRp3062
(dp3063
g65
(dp3064
g73
I4
ssg74
Nsg67
(lp3065
g60
(g76
g62
NtRp3066
(dp3067
g65
(dp3068
sg74
g3062
sg67
(lp3069
g60
(g81
g62
NtRp3070
(dp3071
g65
(dp3072
sg74
g3066
sg67
(lp3073
g60
(g61
g62
NtRp3074
(dp3075
g65
(dp3076
g73
I4
ssg74
g3070
sg67
(lp3077
g60
(g69
g62
NtRp3078
(dp3079
g65
(dp3080
g73
I3
ssg74
Nsg67
(lp3081
g60
(g76
g62
NtRp3082
(dp3083
g65
(dp3084
sg74
g3078
sg67
(lp3085
g60
(g81
g62
NtRp3086
(dp3087
g65
(dp3088
sg74
g3082
sg67
(lp3089
g60
(g61
g62
NtRp3090
(dp3091
g65
(dp3092
g73
I3
ssg74
g3086
sg67
(lp3093
cgluon.languages
lazyT_unpickle
p3094
(S't\x04\x00\x00\x00Home'
tRp3095
asbasbasbag60
(g76
g62
NtRp3096
(dp3097
g65
(dp3098
sg74
g3078
sg67
(lp3099
g60
(g81
g62
NtRp3100
(dp3101
g65
(dp3102
sg74
g3096
sg67
(lp3103
g60
(g61
g62
NtRp3104
(dp3105
g65
(dp3106
g73
I3
ssg74
g3100
sg67
(lp3107
g103
asbasbasbag60
(g76
g62
NtRp3108
(dp3109
g65
(dp3110
sg74
g3078
sg67
(lp3111
g60
(g81
g62
NtRp3112
(dp3113
g65
(dp3114
sg74
g3108
sg67
(lp3115
g60
(g61
g62
NtRp3116
(dp3117
g65
(dp3118
g73
I3
ssg74
g3112
sg67
(lp3119
S'/Desglosar_Emails/default/index'
p3120
asbasbasbag60
(g76
g62
NtRp3121
(dp3122
g65
(dp3123
sg74
g3078
sg67
(lp3124
g60
(g81
g62
NtRp3125
(dp3126
g65
(dp3127
sg74
g3121
sg67
(lp3128
g60
(g61
g62
NtRp3129
(dp3130
g65
(dp3131
g73
I3
ssg74
g3125
sg67
(lp3132
g60
(g69
g62
NtRp3133
(dp3134
g65
(dp3135
g73
I2
ssg74
Nsg67
(lp3136
sbasbasbasbasbasbasbasbag60
(g76
g62
NtRp3137
(dp3138
g65
(dp3139
sg74
g3062
sg67
(lp3140
g60
(g81
g62
NtRp3141
(dp3142
g65
(dp3143
sg74
g3137
sg67
(lp3144
g60
(g61
g62
NtRp3145
(dp3146
g65
(dp3147
g73
I4
ssg74
g3141
sg67
(lp3148
g60
(g69
g62
NtRp3149
(dp3150
g65
(dp3151
g73
I3
ssg74
Nsg67
(lp3152
g60
(g76
g62
NtRp3153
(dp3154
g65
(dp3155
sg74
g3149
sg67
(lp3156
g60
(g81
g62
NtRp3157
(dp3158
g65
(dp3159
sg74
g3153
sg67
(lp3160
g60
(g61
g62
NtRp3161
(dp3162
g65
(dp3163
g73
I3
ssg74
g3157
sg67
(lp3164
g3094
(S's\x08\x00\x00\x00This App'
tRp3165
asbasbasbag60
(g76
g62
NtRp3166
(dp3167
g65
(dp3168
sg74
g3149
sg67
(lp3169
g60
(g81
g62
NtRp3170
(dp3171
g65
(dp3172
sg74
g3166
sg67
(lp3173
g60
(g61
g62
NtRp3174
(dp3175
g65
(dp3176
g73
I3
ssg74
g3170
sg67
(lp3177
g103
asbasbasbag60
(g76
g62
NtRp3178
(dp3179
g65
(dp3180
sg74
g3149
sg67
(lp3181
g60
(g81
g62
NtRp3182
(dp3183
g65
(dp3184
sg74
g3178
sg67
(lp3185
g60
(g61
g62
NtRp3186
(dp3187
g65
(dp3188
g73
I3
ssg74
g3182
sg67
(lp3189
S'/admin/default/design/Desglosar_Emails'
p3190
asbasbasbag60
(g76
g62
NtRp3191
(dp3192
g65
(dp3193
sg74
g3149
sg67
(lp3194
g60
(g81
g62
NtRp3195
(dp3196
g65
(dp3197
sg74
g3191
sg67
(lp3198
g60
(g61
g62
NtRp3199
(dp3200
g65
(dp3201
g73
I3
ssg74
g3195
sg67
(lp3202
g60
(g69
g62
NtRp3203
(dp3204
g65
(dp3205
g73
I2
ssg74
Nsg67
(lp3206
g60
(g76
g62
NtRp3207
(dp3208
g65
(dp3209
sg74
g3203
sg67
(lp3210
g60
(g81
g62
NtRp3211
(dp3212
g65
(dp3213
sg74
g3207
sg67
(lp3214
g60
(g61
g62
NtRp3215
(dp3216
g65
(dp3217
g73
I2
ssg74
g3211
sg67
(lp3218
g60
(g69
g62
NtRp3219
(dp3220
g65
(dp3221
g73
I1
ssg74
Nsg67
(lp3222
g60
(g76
g62
NtRp3223
(dp3224
g65
(dp3225
sg74
g3219
sg67
(lp3226
g60
(g81
g62
NtRp3227
(dp3228
g65
(dp3229
sg74
g3223
sg67
(lp3230
g60
(g61
g62
NtRp3231
(dp3232
g65
(dp3233
g73
I1
ssg74
g3227
sg67
(lp3234
g3094
(S't\x0b\x00\x00\x00Controlador'
tRp3235
asbasbasbag60
(g76
g62
NtRp3236
(dp3237
g65
(dp3238
sg74
g3219
sg67
(lp3239
g60
(g81
g62
NtRp3240
(dp3241
g65
(dp3242
sg74
g3236
sg67
(lp3243
g60
(g61
g62
NtRp3244
(dp3245
g65
(dp3246
g73
I1
ssg74
g3240
sg67
(lp3247
I00
asbasbasbag60
(g76
g62
NtRp3248
(dp3249
g65
(dp3250
sg74
g3219
sg67
(lp3251
g60
(g81
g62
NtRp3252
(dp3253
g65
(dp3254
sg74
g3248
sg67
(lp3255
g60
(g61
g62
NtRp3256
(dp3257
g65
(dp3258
g73
I1
ssg74
g3252
sg67
(lp3259
S'/admin/default/edit/Desglosar_Emails/controllers/default.py'
p3260
asbasbasbasbasbasbasbag60
(g76
g62
NtRp3261
(dp3262
g65
(dp3263
sg74
g3203
sg67
(lp3264
g60
(g81
g62
NtRp3265
(dp3266
g65
(dp3267
sg74
g3261
sg67
(lp3268
g60
(g61
g62
NtRp3269
(dp3270
g65
(dp3271
g73
I2
ssg74
g3265
sg67
(lp3272
g60
(g69
g62
NtRp3273
(dp3274
g65
(dp3275
g73
I1
ssg74
Nsg67
(lp3276
g60
(g76
g62
NtRp3277
(dp3278
g65
(dp3279
sg74
g3273
sg67
(lp3280
g60
(g81
g62
NtRp3281
(dp3282
g65
(dp3283
sg74
g3277
sg67
(lp3284
g60
(g61
g62
NtRp3285
(dp3286
g65
(dp3287
g73
I1
ssg74
g3281
sg67
(lp3288
g3094
(S't\x05\x00\x00\x00Vista'
tRp3289
asbasbasbag60
(g76
g62
NtRp3290
(dp3291
g65
(dp3292
sg74
g3273
sg67
(lp3293
g60
(g81
g62
NtRp3294
(dp3295
g65
(dp3296
sg74
g3290
sg67
(lp3297
g60
(g61
g62
NtRp3298
(dp3299
g65
(dp3300
g73
I1
ssg74
g3294
sg67
(lp3301
I00
asbasbasbag60
(g76
g62
NtRp3302
(dp3303
g65
(dp3304
sg74
g3273
sg67
(lp3305
g60
(g81
g62
NtRp3306
(dp3307
g65
(dp3308
sg74
g3302
sg67
(lp3309
g60
(g61
g62
NtRp3310
(dp3311
g65
(dp3312
g73
I1
ssg74
g3306
sg67
(lp3313
S'/admin/default/edit/Desglosar_Emails/views/default/entrada_mod3.html'
p3314
asbasbasbasbasbasbasbag60
(g76
g62
NtRp3315
(dp3316
g65
(dp3317
sg74
g3203
sg67
(lp3318
g60
(g81
g62
NtRp3319
(dp3320
g65
(dp3321
sg74
g3315
sg67
(lp3322
g60
(g61
g62
NtRp3323
(dp3324
g65
(dp3325
g73
I2
ssg74
g3319
sg67
(lp3326
g60
(g69
g62
NtRp3327
(dp3328
g65
(dp3329
g73
I1
ssg74
Nsg67
(lp3330
g60
(g76
g62
NtRp3331
(dp3332
g65
(dp3333
sg74
g3327
sg67
(lp3334
g60
(g81
g62
NtRp3335
(dp3336
g65
(dp3337
sg74
g3331
sg67
(lp3338
g60
(g61
g62
NtRp3339
(dp3340
g65
(dp3341
g73
I1
ssg74
g3335
sg67
(lp3342
g3094
(S's\x12\x00\x00\x00Dise\xc3\xb1o de p\xc3\xa1gina'
tRp3343
asbasbasbag60
(g76
g62
NtRp3344
(dp3345
g65
(dp3346
sg74
g3327
sg67
(lp3347
g60
(g81
g62
NtRp3348
(dp3349
g65
(dp3350
sg74
g3344
sg67
(lp3351
g60
(g61
g62
NtRp3352
(dp3353
g65
(dp3354
g73
I1
ssg74
g3348
sg67
(lp3355
I00
asbasbasbag60
(g76
g62
NtRp3356
(dp3357
g65
(dp3358
sg74
g3327
sg67
(lp3359
g60
(g81
g62
NtRp3360
(dp3361
g65
(dp3362
sg74
g3356
sg67
(lp3363
g60
(g61
g62
NtRp3364
(dp3365
g65
(dp3366
g73
I1
ssg74
g3360
sg67
(lp3367
S'/admin/default/edit/Desglosar_Emails/views/layout.html'
p3368
asbasbasbasbasbasbasbag60
(g76
g62
NtRp3369
(dp3370
g65
(dp3371
sg74
g3203
sg67
(lp3372
g60
(g81
g62
NtRp3373
(dp3374
g65
(dp3375
sg74
g3369
sg67
(lp3376
g60
(g61
g62
NtRp3377
(dp3378
g65
(dp3379
g73
I2
ssg74
g3373
sg67
(lp3380
g60
(g69
g62
NtRp3381
(dp3382
g65
(dp3383
g73
I1
ssg74
Nsg67
(lp3384
g60
(g76
g62
NtRp3385
(dp3386
g65
(dp3387
sg74
g3381
sg67
(lp3388
g60
(g81
g62
NtRp3389
(dp3390
g65
(dp3391
sg74
g3385
sg67
(lp3392
g60
(g61
g62
NtRp3393
(dp3394
g65
(dp3395
g73
I1
ssg74
g3389
sg67
(lp3396
g3094
(S's\x0e\x00\x00\x00Hoja de estilo'
tRp3397
asbasbasbag60
(g76
g62
NtRp3398
(dp3399
g65
(dp3400
sg74
g3381
sg67
(lp3401
g60
(g81
g62
NtRp3402
(dp3403
g65
(dp3404
sg74
g3398
sg67
(lp3405
g60
(g61
g62
NtRp3406
(dp3407
g65
(dp3408
g73
I1
ssg74
g3402
sg67
(lp3409
I00
asbasbasbag60
(g76
g62
NtRp3410
(dp3411
g65
(dp3412
sg74
g3381
sg67
(lp3413
g60
(g81
g62
NtRp3414
(dp3415
g65
(dp3416
sg74
g3410
sg67
(lp3417
g60
(g61
g62
NtRp3418
(dp3419
g65
(dp3420
g73
I1
ssg74
g3414
sg67
(lp3421
S'/admin/default/edit/Desglosar_Emails/static/base.css'
p3422
asbasbasbasbasbasbasbag60
(g76
g62
NtRp3423
(dp3424
g65
(dp3425
sg74
g3203
sg67
(lp3426
g60
(g81
g62
NtRp3427
(dp3428
g65
(dp3429
sg74
g3423
sg67
(lp3430
g60
(g61
g62
NtRp3431
(dp3432
g65
(dp3433
g73
I2
ssg74
g3427
sg67
(lp3434
g60
(g69
g62
NtRp3435
(dp3436
g65
(dp3437
g73
I1
ssg74
Nsg67
(lp3438
g60
(g76
g62
NtRp3439
(dp3440
g65
(dp3441
sg74
g3435
sg67
(lp3442
g60
(g81
g62
NtRp3443
(dp3444
g65
(dp3445
sg74
g3439
sg67
(lp3446
g60
(g61
g62
NtRp3447
(dp3448
g65
(dp3449
g73
I1
ssg74
g3443
sg67
(lp3450
g3094
(S's\x0b\x00\x00\x00Modelo "db"'
tRp3451
asbasbasbag60
(g76
g62
NtRp3452
(dp3453
g65
(dp3454
sg74
g3435
sg67
(lp3455
g60
(g81
g62
NtRp3456
(dp3457
g65
(dp3458
sg74
g3452
sg67
(lp3459
g60
(g61
g62
NtRp3460
(dp3461
g65
(dp3462
g73
I1
ssg74
g3456
sg67
(lp3463
I00
asbasbasbag60
(g76
g62
NtRp3464
(dp3465
g65
(dp3466
sg74
g3435
sg67
(lp3467
g60
(g81
g62
NtRp3468
(dp3469
g65
(dp3470
sg74
g3464
sg67
(lp3471
g60
(g61
g62
NtRp3472
(dp3473
g65
(dp3474
g73
I1
ssg74
g3468
sg67
(lp3475
S'/admin/default/edit/Desglosar_Emails/models/db.py'
p3476
asbasbasbasbasbasbasbag60
(g76
g62
NtRp3477
(dp3478
g65
(dp3479
sg74
g3203
sg67
(lp3480
g60
(g81
g62
NtRp3481
(dp3482
g65
(dp3483
sg74
g3477
sg67
(lp3484
g60
(g61
g62
NtRp3485
(dp3486
g65
(dp3487
g73
I2
ssg74
g3481
sg67
(lp3488
g60
(g69
g62
NtRp3489
(dp3490
g65
(dp3491
g73
I1
ssg74
Nsg67
(lp3492
g60
(g76
g62
NtRp3493
(dp3494
g65
(dp3495
sg74
g3489
sg67
(lp3496
g60
(g81
g62
NtRp3497
(dp3498
g65
(dp3499
sg74
g3493
sg67
(lp3500
g60
(g61
g62
NtRp3501
(dp3502
g65
(dp3503
g73
I1
ssg74
g3497
sg67
(lp3504
g3094
(S's\r\x00\x00\x00Modelo "menu"'
tRp3505
asbasbasbag60
(g76
g62
NtRp3506
(dp3507
g65
(dp3508
sg74
g3489
sg67
(lp3509
g60
(g81
g62
NtRp3510
(dp3511
g65
(dp3512
sg74
g3506
sg67
(lp3513
g60
(g61
g62
NtRp3514
(dp3515
g65
(dp3516
g73
I1
ssg74
g3510
sg67
(lp3517
I00
asbasbasbag60
(g76
g62
NtRp3518
(dp3519
g65
(dp3520
sg74
g3489
sg67
(lp3521
g60
(g81
g62
NtRp3522
(dp3523
g65
(dp3524
sg74
g3518
sg67
(lp3525
g60
(g61
g62
NtRp3526
(dp3527
g65
(dp3528
g73
I1
ssg74
g3522
sg67
(lp3529
S'/admin/default/edit/Desglosar_Emails/models/menu.py'
p3530
asbasbasbasbasbasbasbag60
(g76
g62
NtRp3531
(dp3532
g65
(dp3533
sg74
g3203
sg67
(lp3534
g60
(g81
g62
NtRp3535
(dp3536
g65
(dp3537
sg74
g3531
sg67
(lp3538
g60
(g61
g62
NtRp3539
(dp3540
g65
(dp3541
g73
I2
ssg74
g3535
sg67
(lp3542
g60
(g69
g62
NtRp3543
(dp3544
g65
(dp3545
g73
I1
ssg74
Nsg67
(lp3546
g60
(g76
g62
NtRp3547
(dp3548
g65
(dp3549
sg74
g3543
sg67
(lp3550
g60
(g81
g62
NtRp3551
(dp3552
g65
(dp3553
sg74
g3547
sg67
(lp3554
g60
(g61
g62
NtRp3555
(dp3556
g65
(dp3557
g73
I1
ssg74
g3551
sg67
(lp3558
g3094
(S's\r\x00\x00\x00Base de datos'
tRp3559
asbasbasbag60
(g76
g62
NtRp3560
(dp3561
g65
(dp3562
sg74
g3543
sg67
(lp3563
g60
(g81
g62
NtRp3564
(dp3565
g65
(dp3566
sg74
g3560
sg67
(lp3567
g60
(g61
g62
NtRp3568
(dp3569
g65
(dp3570
g73
I1
ssg74
g3564
sg67
(lp3571
I00
asbasbasbag60
(g76
g62
NtRp3572
(dp3573
g65
(dp3574
sg74
g3543
sg67
(lp3575
g60
(g81
g62
NtRp3576
(dp3577
g65
(dp3578
sg74
g3572
sg67
(lp3579
g60
(g61
g62
NtRp3580
(dp3581
g65
(dp3582
g73
I1
ssg74
g3576
sg67
(lp3583
S'/Desglosar_Emails/appadmin/index'
p3584
asbasbasbasbasbasbasbag60
(g76
g62
NtRp3585
(dp3586
g65
(dp3587
sg74
g3203
sg67
(lp3588
g60
(g81
g62
NtRp3589
(dp3590
g65
(dp3591
sg74
g3585
sg67
(lp3592
g60
(g61
g62
NtRp3593
(dp3594
g65
(dp3595
g73
I2
ssg74
g3589
sg67
(lp3596
g60
(g69
g62
NtRp3597
(dp3598
g65
(dp3599
g73
I1
ssg74
Nsg67
(lp3600
g60
(g76
g62
NtRp3601
(dp3602
g65
(dp3603
sg74
g3597
sg67
(lp3604
g60
(g81
g62
NtRp3605
(dp3606
g65
(dp3607
sg74
g3601
sg67
(lp3608
g60
(g61
g62
NtRp3609
(dp3610
g65
(dp3611
g73
I1
ssg74
g3605
sg67
(lp3612
g3094
(S't\x06\x00\x00\x00Errors'
tRp3613
asbasbasbag60
(g76
g62
NtRp3614
(dp3615
g65
(dp3616
sg74
g3597
sg67
(lp3617
g60
(g81
g62
NtRp3618
(dp3619
g65
(dp3620
sg74
g3614
sg67
(lp3621
g60
(g61
g62
NtRp3622
(dp3623
g65
(dp3624
g73
I1
ssg74
g3618
sg67
(lp3625
I00
asbasbasbag60
(g76
g62
NtRp3626
(dp3627
g65
(dp3628
sg74
g3597
sg67
(lp3629
g60
(g81
g62
NtRp3630
(dp3631
g65
(dp3632
sg74
g3626
sg67
(lp3633
g60
(g61
g62
NtRp3634
(dp3635
g65
(dp3636
g73
I1
ssg74
g3630
sg67
(lp3637
S'/admin/default/errors/Desglosar_Emails'
p3638
asbasbasbasbasbasbasbag60
(g76
g62
NtRp3639
(dp3640
g65
(dp3641
sg74
g3203
sg67
(lp3642
g60
(g81
g62
NtRp3643
(dp3644
g65
(dp3645
sg74
g3639
sg67
(lp3646
g60
(g61
g62
NtRp3647
(dp3648
g65
(dp3649
g73
I2
ssg74
g3643
sg67
(lp3650
g60
(g69
g62
NtRp3651
(dp3652
g65
(dp3653
g73
I1
ssg74
Nsg67
(lp3654
g60
(g76
g62
NtRp3655
(dp3656
g65
(dp3657
sg74
g3651
sg67
(lp3658
g60
(g81
g62
NtRp3659
(dp3660
g65
(dp3661
sg74
g3655
sg67
(lp3662
g60
(g61
g62
NtRp3663
(dp3664
g65
(dp3665
g73
I1
ssg74
g3659
sg67
(lp3666
g3094
(S's\t\x00\x00\x00Acerca de'
tRp3667
asbasbasbag60
(g76
g62
NtRp3668
(dp3669
g65
(dp3670
sg74
g3651
sg67
(lp3671
g60
(g81
g62
NtRp3672
(dp3673
g65
(dp3674
sg74
g3668
sg67
(lp3675
g60
(g61
g62
NtRp3676
(dp3677
g65
(dp3678
g73
I1
ssg74
g3672
sg67
(lp3679
I00
asbasbasbag60
(g76
g62
NtRp3680
(dp3681
g65
(dp3682
sg74
g3651
sg67
(lp3683
g60
(g81
g62
NtRp3684
(dp3685
g65
(dp3686
sg74
g3680
sg67
(lp3687
g60
(g61
g62
NtRp3688
(dp3689
g65
(dp3690
g73
I1
ssg74
g3684
sg67
(lp3691
S'/admin/default/about/Desglosar_Emails'
p3692
asbasbasbasbasbasbasbasbasbasbasbasbasbasbasbag60
(g76
g62
NtRp3693
(dp3694
g65
(dp3695
sg74
g3062
sg67
(lp3696
g60
(g81
g62
NtRp3697
(dp3698
g65
(dp3699
sg74
g3693
sg67
(lp3700
g60
(g61
g62
NtRp3701
(dp3702
g65
(dp3703
g73
I4
ssg74
g3697
sg67
(lp3704
g60
(g69
g62
NtRp3705
(dp3706
g65
(dp3707
g73
I3
ssg74
Nsg67
(lp3708
g60
(g76
g62
NtRp3709
(dp3710
g65
(dp3711
sg74
g3705
sg67
(lp3712
g60
(g81
g62
NtRp3713
(dp3714
g65
(dp3715
sg74
g3709
sg67
(lp3716
g60
(g61
g62
NtRp3717
(dp3718
g65
(dp3719
g73
I3
ssg74
g3713
sg67
(lp3720
g3094
(S't\t\x00\x00\x00Resources'
tRp3721
asbasbasbag60
(g76
g62
NtRp3722
(dp3723
g65
(dp3724
sg74
g3705
sg67
(lp3725
g60
(g81
g62
NtRp3726
(dp3727
g65
(dp3728
sg74
g3722
sg67
(lp3729
g60
(g61
g62
NtRp3730
(dp3731
g65
(dp3732
g73
I3
ssg74
g3726
sg67
(lp3733
g103
asbasbasbag60
(g76
g62
NtRp3734
(dp3735
g65
(dp3736
sg74
g3705
sg67
(lp3737
g60
(g81
g62
NtRp3738
(dp3739
g65
(dp3740
sg74
g3734
sg67
(lp3741
g60
(g61
g62
NtRp3742
(dp3743
g65
(dp3744
g73
I3
ssg74
g3738
sg67
(lp3745
S'None'
p3746
asbasbasbag60
(g76
g62
NtRp3747
(dp3748
g65
(dp3749
sg74
g3705
sg67
(lp3750
g60
(g81
g62
NtRp3751
(dp3752
g65
(dp3753
sg74
g3747
sg67
(lp3754
g60
(g61
g62
NtRp3755
(dp3756
g65
(dp3757
g73
I3
ssg74
g3751
sg67
(lp3758
g60
(g69
g62
NtRp3759
(dp3760
g65
(dp3761
g73
I2
ssg74
Nsg67
(lp3762
g60
(g76
g62
NtRp3763
(dp3764
g65
(dp3765
sg74
g3759
sg67
(lp3766
g60
(g81
g62
NtRp3767
(dp3768
g65
(dp3769
sg74
g3763
sg67
(lp3770
g60
(g61
g62
NtRp3771
(dp3772
g65
(dp3773
g73
I2
ssg74
g3767
sg67
(lp3774
g60
(g69
g62
NtRp3775
(dp3776
g65
(dp3777
g73
I1
ssg74
Nsg67
(lp3778
g60
(g76
g62
NtRp3779
(dp3780
g65
(dp3781
sg74
g3775
sg67
(lp3782
g60
(g81
g62
NtRp3783
(dp3784
g65
(dp3785
sg74
g3779
sg67
(lp3786
g60
(g61
g62
NtRp3787
(dp3788
g65
(dp3789
g73
I1
ssg74
g3783
sg67
(lp3790
g3094
(S's\x0e\x00\x00\x00Documentaci\xc3\xb3n'
tRp3791
asbasbasbag60
(g76
g62
NtRp3792
(dp3793
g65
(dp3794
sg74
g3775
sg67
(lp3795
g60
(g81
g62
NtRp3796
(dp3797
g65
(dp3798
sg74
g3792
sg67
(lp3799
g60
(g61
g62
NtRp3800
(dp3801
g65
(dp3802
g73
I1
ssg74
g3796
sg67
(lp3803
I00
asbasbasbag60
(g76
g62
NtRp3804
(dp3805
g65
(dp3806
sg74
g3775
sg67
(lp3807
g60
(g81
g62
NtRp3808
(dp3809
g65
(dp3810
sg74
g3804
sg67
(lp3811
g60
(g61
g62
NtRp3812
(dp3813
g65
(dp3814
g73
I1
ssg74
g3808
sg67
(lp3815
S'http://www.web2py.com/book'
p3816
asbasbasbag60
(g76
g62
NtRp3817
(dp3818
g65
(dp3819
sg74
g3775
sg67
(lp3820
g60
(g81
g62
NtRp3821
(dp3822
g65
(dp3823
sg74
g3817
sg67
(lp3824
g60
(g61
g62
NtRp3825
(dp3826
g65
(dp3827
g73
I1
ssg74
g3821
sg67
(lp3828
(lp3829
(g3094
(S't\x07\x00\x00\x00Preface'
tRp3830
I00
S'http://www.web2py.com/book/default/chapter/00'
tp3831
a(g3094
(S't\x0c\x00\x00\x00Introduction'
tRp3832
I00
S'http://www.web2py.com/book/default/chapter/01'
tp3833
a(g3094
(S't\x06\x00\x00\x00Python'
tRp3834
I00
S'http://www.web2py.com/book/default/chapter/02'
tp3835
a(g3094
(S't\x08\x00\x00\x00Overview'
tRp3836
I00
S'http://www.web2py.com/book/default/chapter/03'
tp3837
a(g3094
(S's\x08\x00\x00\x00The Core'
tRp3838
I00
S'http://www.web2py.com/book/default/chapter/04'
tp3839
a(g3094
(S's\t\x00\x00\x00The Views'
tRp3840
I00
S'http://www.web2py.com/book/default/chapter/05'
tp3841
a(g3094
(S's\r\x00\x00\x00Base de datos'
tRp3842
I00
S'http://www.web2py.com/book/default/chapter/06'
tp3843
a(g3094
(S's\x14\x00\x00\x00Forms and Validators'
tRp3844
I00
S'http://www.web2py.com/book/default/chapter/07'
tp3845
a(g3094
(S's\x0e\x00\x00\x00Access Control'
tRp3846
I00
S'http://www.web2py.com/book/default/chapter/08'
tp3847
a(g3094
(S't\x08\x00\x00\x00Services'
tRp3848
I00
S'http://www.web2py.com/book/default/chapter/09'
tp3849
a(g3094
(S's\x0c\x00\x00\x00Ajax Recipes'
tRp3850
I00
S'http://www.web2py.com/book/default/chapter/10'
tp3851
a(g3094
(S's\x12\x00\x00\x00Deployment Recipes'
tRp3852
I00
S'http://www.web2py.com/book/default/chapter/11'
tp3853
a(g3094
(S's\r\x00\x00\x00Other Recipes'
tRp3854
I00
S'http://www.web2py.com/book/default/chapter/12'
tp3855
a(g3094
(S's\r\x00\x00\x00Buy this book'
tRp3856
I00
S'http://stores.lulu.com/web2py'
tp3857
aasbasbasbasbasbasbasbag60
(g76
g62
NtRp3858
(dp3859
g65
(dp3860
sg74
g3759
sg67
(lp3861
g60
(g81
g62
NtRp3862
(dp3863
g65
(dp3864
sg74
g3858
sg67
(lp3865
g60
(g61
g62
NtRp3866
(dp3867
g65
(dp3868
g73
I2
ssg74
g3862
sg67
(lp3869
g60
(g69
g62
NtRp3870
(dp3871
g65
(dp3872
g73
I1
ssg74
Nsg67
(lp3873
g60
(g76
g62
NtRp3874
(dp3875
g65
(dp3876
sg74
g3870
sg67
(lp3877
g60
(g81
g62
NtRp3878
(dp3879
g65
(dp3880
sg74
g3874
sg67
(lp3881
g60
(g61
g62
NtRp3882
(dp3883
g65
(dp3884
g73
I1
ssg74
g3878
sg67
(lp3885
g3094
(S't\t\x00\x00\x00Community'
tRp3886
asbasbasbag60
(g76
g62
NtRp3887
(dp3888
g65
(dp3889
sg74
g3870
sg67
(lp3890
g60
(g81
g62
NtRp3891
(dp3892
g65
(dp3893
sg74
g3887
sg67
(lp3894
g60
(g61
g62
NtRp3895
(dp3896
g65
(dp3897
g73
I1
ssg74
g3891
sg67
(lp3898
I00
asbasbasbag60
(g76
g62
NtRp3899
(dp3900
g65
(dp3901
sg74
g3870
sg67
(lp3902
g60
(g81
g62
NtRp3903
(dp3904
g65
(dp3905
sg74
g3899
sg67
(lp3906
g60
(g61
g62
NtRp3907
(dp3908
g65
(dp3909
g73
I1
ssg74
g3903
sg67
(lp3910
Nasbasbasbag60
(g76
g62
NtRp3911
(dp3912
g65
(dp3913
sg74
g3870
sg67
(lp3914
g60
(g81
g62
NtRp3915
(dp3916
g65
(dp3917
sg74
g3911
sg67
(lp3918
g60
(g61
g62
NtRp3919
(dp3920
g65
(dp3921
g73
I1
ssg74
g3915
sg67
(lp3922
(lp3923
(g3094
(S't\x06\x00\x00\x00Groups'
tRp3924
I00
S'http://www.web2py.com/examples/default/usergroups'
tp3925
a(g3094
(S't\x07\x00\x00\x00Twitter'
tRp3926
I00
S'http://twitter.com/web2py'
tp3927
a(g3094
(S's\t\x00\x00\x00Live chat'
tRp3928
I00
S'http://mibbit.com/?channel=%23web2py&server=irc.mibbit.net'
tp3929
a(g3094
(S's\n\x00\x00\x00User Voice'
tRp3930
I00
S'http://web2py.uservoice.com/'
tp3931
aasbasbasbasbasbasbasbag60
(g76
g62
NtRp3932
(dp3933
g65
(dp3934
sg74
g3759
sg67
(lp3935
g60
(g81
g62
NtRp3936
(dp3937
g65
(dp3938
sg74
g3932
sg67
(lp3939
g60
(g61
g62
NtRp3940
(dp3941
g65
(dp3942
g73
I2
ssg74
g3936
sg67
(lp3943
g60
(g69
g62
NtRp3944
(dp3945
g65
(dp3946
g73
I1
ssg74
Nsg67
(lp3947
g60
(g76
g62
NtRp3948
(dp3949
g65
(dp3950
sg74
g3944
sg67
(lp3951
g60
(g81
g62
NtRp3952
(dp3953
g65
(dp3954
sg74
g3948
sg67
(lp3955
g60
(g61
g62
NtRp3956
(dp3957
g65
(dp3958
g73
I1
ssg74
g3952
sg67
(lp3959
g3094
(S't\x06\x00\x00\x00Web2py'
tRp3960
asbasbasbag60
(g76
g62
NtRp3961
(dp3962
g65
(dp3963
sg74
g3944
sg67
(lp3964
g60
(g81
g62
NtRp3965
(dp3966
g65
(dp3967
sg74
g3961
sg67
(lp3968
g60
(g61
g62
NtRp3969
(dp3970
g65
(dp3971
g73
I1
ssg74
g3965
sg67
(lp3972
I00
asbasbasbag60
(g76
g62
NtRp3973
(dp3974
g65
(dp3975
sg74
g3944
sg67
(lp3976
g60
(g81
g62
NtRp3977
(dp3978
g65
(dp3979
sg74
g3973
sg67
(lp3980
g60
(g61
g62
NtRp3981
(dp3982
g65
(dp3983
g73
I1
ssg74
g3977
sg67
(lp3984
S'http://www.web2py.com'
p3985
asbasbasbag60
(g76
g62
NtRp3986
(dp3987
g65
(dp3988
sg74
g3944
sg67
(lp3989
g60
(g81
g62
NtRp3990
(dp3991
g65
(dp3992
sg74
g3986
sg67
(lp3993
g60
(g61
g62
NtRp3994
(dp3995
g65
(dp3996
g73
I1
ssg74
g3990
sg67
(lp3997
(lp3998
(g3094
(S't\x08\x00\x00\x00Download'
tRp3999
I00
S'http://www.web2py.com/examples/default/download'
tp4000
a(g3094
(S't\x07\x00\x00\x00Support'
tRp4001
I00
S'http://www.web2py.com/examples/default/support'
tp4002
a(g3094
(S's\x0e\x00\x00\x00Quick Examples'
tRp4003
I00
S'http://web2py.com/examples/default/examples'
tp4004
a(g3094
(S't\x03\x00\x00\x00FAQ'
tRp4005
I00
S'http://web2py.com/AlterEgo'
tp4006
a(g3094
(S's\x11\x00\x00\x00Free Applications'
tRp4007
I00
S'http://web2py.com/appliances'
tp4008
a(g3094
(S't\x07\x00\x00\x00Plugins'
tRp4009
I00
S'http://web2py.com/plugins'
tp4010
a(g3094
(S't\x07\x00\x00\x00Recipes'
tRp4011
I00
S'http://web2pyslices.com/'
tp4012
a(g3094
(S't\x04\x00\x00\x00Demo'
tRp4013
I00
S'http://web2py.com/demo_admin'
tp4014
a(g3094
(S't\x08\x00\x00\x00Semantic'
tRp4015
I00
S'http://web2py.com/semantic'
tp4016
a(g3094
(S't\x07\x00\x00\x00Layouts'
tRp4017
I00
S'http://web2py.com/layouts'
tp4018
a(g3094
(S't\x06\x00\x00\x00Videos'
tRp4019
I00
S'http://www.web2py.com/examples/default/videos/'
tp4020
aasbasbasbasbasbasbasbasbasbasbasbasbasbasbasbasbasbasbasbag60
(g76
g62
NtRp4021
(dp4022
g65
(dp4023
sg74
g2621
sg67
(lp4024
g60
(g81
g62
NtRp4025
(dp4026
g65
(dp4027
g85
g86
ssg74
g4021
sg67
(lp4028
S'meta'
p4029
asbag60
(g81
g62
NtRp4030
(dp4031
g65
(dp4032
g92
g93
ssg74
g4021
sg67
(lp4033
S':'
asbag60
(g81
g62
NtRp4034
(dp4035
g65
(dp4036
sg74
g4021
sg67
(lp4037
g60
(g61
g62
NtRp4038
(dp4039
g65
(dp4040
g73
I5
ssg74
g4034
sg67
(lp4041
g60
(g69
g62
NtRp4042
(dp4043
g65
(dp4044
g73
I4
ssg74
Nsg67
(lp4045
g60
(g76
g62
NtRp4046
(dp4047
g65
(dp4048
sg74
g4042
sg67
(lp4049
g60
(g81
g62
NtRp4050
(dp4051
g65
(dp4052
g85
g86
ssg74
g4046
sg67
(lp4053
S'author'
p4054
asbag60
(g81
g62
NtRp4055
(dp4056
g65
(dp4057
g92
g93
ssg74
g4046
sg67
(lp4058
S':'
asbag60
(g81
g62
NtRp4059
(dp4060
g65
(dp4061
sg74
g4046
sg67
(lp4062
g60
(g61
g62
NtRp4063
(dp4064
g65
(dp4065
g73
I4
ssg74
g4059
sg67
(lp4066
S'you'
p4067
asbasbasbag60
(g76
g62
NtRp4068
(dp4069
g65
(dp4070
sg74
g4042
sg67
(lp4071
g60
(g81
g62
NtRp4072
(dp4073
g65
(dp4074
g85
g86
ssg74
g4068
sg67
(lp4075
S'copyright'
p4076
asbag60
(g81
g62
NtRp4077
(dp4078
g65
(dp4079
g92
g93
ssg74
g4068
sg67
(lp4080
S':'
asbag60
(g81
g62
NtRp4081
(dp4082
g65
(dp4083
sg74
g4068
sg67
(lp4084
g60
(g61
g62
NtRp4085
(dp4086
g65
(dp4087
g73
I4
ssg74
g4081
sg67
(lp4088
S'Copyright 2007-2010'
p4089
asbasbasbag60
(g76
g62
NtRp4090
(dp4091
g65
(dp4092
sg74
g4042
sg67
(lp4093
g60
(g81
g62
NtRp4094
(dp4095
g65
(dp4096
g85
g86
ssg74
g4090
sg67
(lp4097
S'description'
p4098
asbag60
(g81
g62
NtRp4099
(dp4100
g65
(dp4101
g92
g93
ssg74
g4090
sg67
(lp4102
S':'
asbag60
(g81
g62
NtRp4103
(dp4104
g65
(dp4105
sg74
g4090
sg67
(lp4106
g60
(g61
g62
NtRp4107
(dp4108
g65
(dp4109
g73
I4
ssg74
g4103
sg67
(lp4110
S'Free and open source full-stack enterprise framework for agile development of fast, scalable, secure and portable database-driven web-based applications. Written and programmable in Python'
p4111
asbasbasbag60
(g76
g62
NtRp4112
(dp4113
g65
(dp4114
sg74
g4042
sg67
(lp4115
g60
(g81
g62
NtRp4116
(dp4117
g65
(dp4118
g85
g86
ssg74
g4112
sg67
(lp4119
S'generator'
p4120
asbag60
(g81
g62
NtRp4121
(dp4122
g65
(dp4123
g92
g93
ssg74
g4112
sg67
(lp4124
S':'
asbag60
(g81
g62
NtRp4125
(dp4126
g65
(dp4127
sg74
g4112
sg67
(lp4128
g60
(g61
g62
NtRp4129
(dp4130
g65
(dp4131
g73
I4
ssg74
g4125
sg67
(lp4132
S'Web2py Enterprise Framework'
p4133
asbasbasbag60
(g76
g62
NtRp4134
(dp4135
g65
(dp4136
sg74
g4042
sg67
(lp4137
g60
(g81
g62
NtRp4138
(dp4139
g65
(dp4140
g85
g86
ssg74
g4134
sg67
(lp4141
S'keywords'
p4142
asbag60
(g81
g62
NtRp4143
(dp4144
g65
(dp4145
g92
g93
ssg74
g4134
sg67
(lp4146
S':'
asbag60
(g81
g62
NtRp4147
(dp4148
g65
(dp4149
sg74
g4134
sg67
(lp4150
g60
(g61
g62
NtRp4151
(dp4152
g65
(dp4153
g73
I4
ssg74
g4147
sg67
(lp4154
S'web2py, python, framework'
p4155
asbasbasbasbasbasbasbag60
(g76
g62
NtRp4156
(dp4157
g65
(dp4158
sg74
g2621
sg67
(lp4159
g60
(g81
g62
NtRp4160
(dp4161
g65
(dp4162
g85
g86
ssg74
g4156
sg67
(lp4163
S'postprocessing'
p4164
asbag60
(g81
g62
NtRp4165
(dp4166
g65
(dp4167
g92
g93
ssg74
g4156
sg67
(lp4168
S':'
asbag60
(g81
g62
NtRp4169
(dp4170
g65
(dp4171
sg74
g4156
sg67
(lp4172
g60
(g61
g62
NtRp4173
(dp4174
g65
(dp4175
g73
I5
ssg74
g4169
sg67
(lp4176
g60
(g69
g62
NtRp4177
(dp4178
g65
(dp4179
g73
I4
ssg74
Nsg67
(lp4180
sbasbasbasbag60
(g76
g62
NtRp4181
(dp4182
g65
(dp4183
sg74
g2621
sg67
(lp4184
g60
(g81
g62
NtRp4185
(dp4186
g65
(dp4187
g85
g86
ssg74
g4181
sg67
(lp4188
S'session_file'
p4189
asbag60
(g81
g62
NtRp4190
(dp4191
g65
(dp4192
g92
g93
ssg74
g4181
sg67
(lp4193
S':'
asbag60
(g81
g62
NtRp4194
(dp4195
g65
(dp4196
sg74
g4181
sg67
(lp4197
g60
(g61
g62
NtRp4198
(dp4199
g65
(dp4200
g73
I5
ssg74
g4194
sg67
(lp4201
S"<open file 'C:\\Users\\Atomico\\web2py\\applications\\Desglosar_Emails\\sessions\\127.0.0.1-78cf8050-df87-4502-afb9-ed0c3843b414', mode 'rb+' at 0x08525EC0>"
p4202
asbasbasbag60
(g76
g62
NtRp4203
(dp4204
g65
(dp4205
sg74
g2621
sg67
(lp4206
g60
(g81
g62
NtRp4207
(dp4208
g65
(dp4209
g85
g86
ssg74
g4203
sg67
(lp4210
S'session_filename'
p4211
asbag60
(g81
g62
NtRp4212
(dp4213
g65
(dp4214
g92
g93
ssg74
g4203
sg67
(lp4215
S':'
asbag60
(g81
g62
NtRp4216
(dp4217
g65
(dp4218
sg74
g4203
sg67
(lp4219
g60
(g61
g62
NtRp4220
(dp4221
g65
(dp4222
g73
I5
ssg74
g4216
sg67
(lp4223
S'C:\\Users\\Atomico\\web2py\\applications\\Desglosar_Emails\\sessions\\127.0.0.1-78cf8050-df87-4502-afb9-ed0c3843b414'
p4224
asbasbasbag60
(g76
g62
NtRp4225
(dp4226
g65
(dp4227
sg74
g2621
sg67
(lp4228
g60
(g81
g62
NtRp4229
(dp4230
g65
(dp4231
g85
g86
ssg74
g4225
sg67
(lp4232
S'session_id'
p4233
asbag60
(g81
g62
NtRp4234
(dp4235
g65
(dp4236
g92
g93
ssg74
g4225
sg67
(lp4237
S':'
asbag60
(g81
g62
NtRp4238
(dp4239
g65
(dp4240
sg74
g4225
sg67
(lp4241
g60
(g61
g62
NtRp4242
(dp4243
g65
(dp4244
g73
I5
ssg74
g4238
sg67
(lp4245
S'127.0.0.1-78cf8050-df87-4502-afb9-ed0c3843b414'
p4246
asbasbasbag60
(g76
g62
NtRp4247
(dp4248
g65
(dp4249
sg74
g2621
sg67
(lp4250
g60
(g81
g62
NtRp4251
(dp4252
g65
(dp4253
g85
g86
ssg74
g4247
sg67
(lp4254
S'session_id_name'
p4255
asbag60
(g81
g62
NtRp4256
(dp4257
g65
(dp4258
g92
g93
ssg74
g4247
sg67
(lp4259
S':'
asbag60
(g81
g62
NtRp4260
(dp4261
g65
(dp4262
sg74
g4247
sg67
(lp4263
g60
(g61
g62
NtRp4264
(dp4265
g65
(dp4266
g73
I5
ssg74
g4260
sg67
(lp4267
g2678
asbasbasbag60
(g76
g62
NtRp4268
(dp4269
g65
(dp4270
sg74
g2621
sg67
(lp4271
g60
(g81
g62
NtRp4272
(dp4273
g65
(dp4274
g85
g86
ssg74
g4268
sg67
(lp4275
S'session_locked'
p4276
asbag60
(g81
g62
NtRp4277
(dp4278
g65
(dp4279
g92
g93
ssg74
g4268
sg67
(lp4280
S':'
asbag60
(g81
g62
NtRp4281
(dp4282
g65
(dp4283
sg74
g4268
sg67
(lp4284
g60
(g61
g62
NtRp4285
(dp4286
g65
(dp4287
g73
I5
ssg74
g4281
sg67
(lp4288
g1555
asbasbasbag60
(g76
g62
NtRp4289
(dp4290
g65
(dp4291
sg74
g2621
sg67
(lp4292
g60
(g81
g62
NtRp4293
(dp4294
g65
(dp4295
g85
g86
ssg74
g4289
sg67
(lp4296
S'session_new'
p4297
asbag60
(g81
g62
NtRp4298
(dp4299
g65
(dp4300
g92
g93
ssg74
g4289
sg67
(lp4301
S':'
asbag60
(g81
g62
NtRp4302
(dp4303
g65
(dp4304
sg74
g4289
sg67
(lp4305
g60
(g61
g62
NtRp4306
(dp4307
g65
(dp4308
g73
I5
ssg74
g4302
sg67
(lp4309
g103
asbasbasbag60
(g76
g62
NtRp4310
(dp4311
g65
(dp4312
sg74
g2621
sg67
(lp4313
g60
(g81
g62
NtRp4314
(dp4315
g65
(dp4316
g85
g86
ssg74
g4310
sg67
(lp4317
S'status'
p4318
asbag60
(g81
g62
NtRp4319
(dp4320
g65
(dp4321
g92
g93
ssg74
g4310
sg67
(lp4322
S':'
asbag60
(g81
g62
NtRp4323
(dp4324
g65
(dp4325
sg74
g4310
sg67
(lp4326
g60
(g61
g62
NtRp4327
(dp4328
g65
(dp4329
g73
I5
ssg74
g4323
sg67
(lp4330
S'200'
p4331
asbasbasbag60
(g76
g62
NtRp4332
(dp4333
g65
(dp4334
sg74
g2621
sg67
(lp4335
g60
(g81
g62
NtRp4336
(dp4337
g65
(dp4338
g85
g86
ssg74
g4332
sg67
(lp4339
S'subtitle'
p4340
asbag60
(g81
g62
NtRp4341
(dp4342
g65
(dp4343
g92
g93
ssg74
g4332
sg67
(lp4344
S':'
asbag60
(g81
g62
NtRp4345
(dp4346
g65
(dp4347
sg74
g4332
sg67
(lp4348
g60
(g61
g62
NtRp4349
(dp4350
g65
(dp4351
g73
I5
ssg74
g4345
sg67
(lp4352
g3094
(S's\t\x00\x00\x00Adaptame!'
tRp4353
asbasbasbag60
(g76
g62
NtRp4354
(dp4355
g65
(dp4356
sg74
g2621
sg67
(lp4357
g60
(g81
g62
NtRp4358
(dp4359
g65
(dp4360
g85
g86
ssg74
g4354
sg67
(lp4361
S'title'
p4362
asbag60
(g81
g62
NtRp4363
(dp4364
g65
(dp4365
g92
g93
ssg74
g4354
sg67
(lp4366
S':'
asbag60
(g81
g62
NtRp4367
(dp4368
g65
(dp4369
sg74
g4354
sg67
(lp4370
g60
(g61
g62
NtRp4371
(dp4372
g65
(dp4373
g73
I5
ssg74
g4367
sg67
(lp4374
g125
asbasbasbag60
(g76
g62
NtRp4375
(dp4376
g65
(dp4377
sg74
g2621
sg67
(lp4378
g60
(g81
g62
NtRp4379
(dp4380
g65
(dp4381
g85
g86
ssg74
g4375
sg67
(lp4382
g1879
asbag60
(g81
g62
NtRp4383
(dp4384
g65
(dp4385
g92
g93
ssg74
g4375
sg67
(lp4386
S':'
asbag60
(g81
g62
NtRp4387
(dp4388
g65
(dp4389
sg74
g4375
sg67
(lp4390
g60
(g61
g62
NtRp4391
(dp4392
g65
(dp4393
g73
I5
ssg74
g4387
sg67
(lp4394
g1892
asbasbasbag60
(g76
g62
NtRp4395
(dp4396
g65
(dp4397
sg74
g2621
sg67
(lp4398
g60
(g81
g62
NtRp4399
(dp4400
g65
(dp4401
g85
g86
ssg74
g4395
sg67
(lp4402
S'view'
p4403
asbag60
(g81
g62
NtRp4404
(dp4405
g65
(dp4406
g92
g93
ssg74
g4395
sg67
(lp4407
S':'
asbag60
(g81
g62
NtRp4408
(dp4409
g65
(dp4410
sg74
g4395
sg67
(lp4411
g60
(g61
g62
NtRp4412
(dp4413
g65
(dp4414
g73
I5
ssg74
g4408
sg67
(lp4415
S'default/entrada_mod3.html'
p4416
asbasbasbasbasbsS'locals'
p4417
(dp4418
g3
S"r'C:\\Users\\Atomico\\web2py\\applications\\Desglosar_Emails\\views\\default/entrada_mod3.html'"
p4419
sg5
S'\'response.write(\\\'<!DOCTYPE html>\\\\n<html lang="\\\', ...t   -->    \\\\n  </body>\\\\n</html>\\\\n\\\', escape=False)\''
p4420
sssS'traceback'
p4421
S'Traceback (most recent call last):\n  File "gluon/restricted.py", line 191, in restricted\n  File "gluon/restricted.py", line 178, in compile2\n  File "C:\\Users\\Atomico\\web2py\\applications\\Desglosar_Emails\\views\\default/entrada_mod3.html", line 134\n    response.write(db.contactos perros)\n                                     ^\nSyntaxError: invalid syntax\n'
p4422
s.