(dp1
S'output'
p2
S''
sS'layer'
p3
S'C:\\Users\\Atomico\\web2py\\applications\\Desglosar_Emails\\controllers/default.py'
p4
sS'code'
p5
S"def entrada():\n    form=SQLFORM(db.info)\n    if form.accepts(request.vars,session): pass\n\n    \n    response.write(db.info[1].texto[3])\n    response.write('claro')\n    response.write(db.info[1].texto.length)\n\n\n\n\n    return dict(form=form)\n\nresponse._vars=response._caller(entrada)\n"
p6
sS'snapshot'
p7
(dp8
S'exception'
p9
(dp10
S'__hash__'
p11
S"<method-wrapper '__hash__' of exceptions.AttributeError object at 0x07F37A80>"
p12
sS'__setattr__'
p13
S"<method-wrapper '__setattr__' of exceptions.AttributeError object at 0x07F37A80>"
p14
sS'__reduce_ex__'
p15
S'<built-in method __reduce_ex__ of exceptions.AttributeError object at 0x07F37A80>'
p16
sS'__getslice__'
p17
S"<method-wrapper '__getslice__' of exceptions.AttributeError object at 0x07F37A80>"
p18
sS'__getitem__'
p19
S"<method-wrapper '__getitem__' of exceptions.AttributeError object at 0x07F37A80>"
p20
sS'__setstate__'
p21
S'<built-in method __setstate__ of exceptions.AttributeError object at 0x07F37A80>'
p22
sS'__reduce__'
p23
S'<built-in method __reduce__ of exceptions.AttributeError object at 0x07F37A80>'
p24
sS'__str__'
p25
S"<method-wrapper '__str__' of exceptions.AttributeError object at 0x07F37A80>"
p26
sS'args'
p27
S'("\'str\' object has no attribute \'length\'",)'
p28
sS'__getattribute__'
p29
S"<method-wrapper '__getattribute__' of exceptions.AttributeError object at 0x07F37A80>"
p30
sS'__class__'
p31
S"<type 'exceptions.AttributeError'>"
p32
sS'__delattr__'
p33
S"<method-wrapper '__delattr__' of exceptions.AttributeError object at 0x07F37A80>"
p34
sS'__repr__'
p35
S"<method-wrapper '__repr__' of exceptions.AttributeError object at 0x07F37A80>"
p36
sS'__dict__'
p37
S'{}'
p38
sS'__doc__'
p39
S"'Attribute not found.'"
p40
sS'__init__'
p41
S"<method-wrapper '__init__' of exceptions.AttributeError object at 0x07F37A80>"
p42
sS'__new__'
p43
S'<built-in method __new__ of type object at 0x1E1CDA68>'
p44
ssS'evalue'
p45
S"'str' object has no attribute 'length'"
p46
sS'request'
p47
ccopy_reg
_reconstructor
p48
(cgluon.html
BEAUTIFY
p49
c__builtin__
object
p50
NtRp51
(dp52
S'attributes'
p53
(dp54
sS'components'
p55
(lp56
g48
(cgluon.html
TABLE
p57
g50
NtRp58
(dp59
g53
(dp60
S'level'
p61
I5
ssS'parent'
p62
Nsg55
(lp63
g48
(cgluon.html
TR
p64
g50
NtRp65
(dp66
g53
(dp67
sg62
g58
sg55
(lp68
g48
(cgluon.html
TD
p69
g50
NtRp70
(dp71
g53
(dp72
S'_style'
p73
S'font-weight:bold;'
p74
ssg62
g65
sg55
(lp75
S'ajax'
p76
asbag48
(g69
g50
NtRp77
(dp78
g53
(dp79
S'_valign'
p80
S'top'
p81
ssg62
g65
sg55
(lp82
S':'
asbag48
(g69
g50
NtRp83
(dp84
g53
(dp85
sg62
g65
sg55
(lp86
g48
(g49
g50
NtRp87
(dp88
g53
(dp89
g61
I5
ssg62
g83
sg55
(lp90
S'False'
p91
asbasbasbag48
(g64
g50
NtRp92
(dp93
g53
(dp94
sg62
g58
sg55
(lp95
g48
(g69
g50
NtRp96
(dp97
g53
(dp98
g73
g74
ssg62
g92
sg55
(lp99
S'application'
p100
asbag48
(g69
g50
NtRp101
(dp102
g53
(dp103
g80
g81
ssg62
g92
sg55
(lp104
S':'
asbag48
(g69
g50
NtRp105
(dp106
g53
(dp107
sg62
g92
sg55
(lp108
g48
(g49
g50
NtRp109
(dp110
g53
(dp111
g61
I5
ssg62
g105
sg55
(lp112
S'Desglosar_Emails'
p113
asbasbasbag48
(g64
g50
NtRp114
(dp115
g53
(dp116
sg62
g58
sg55
(lp117
g48
(g69
g50
NtRp118
(dp119
g53
(dp120
g73
g74
ssg62
g114
sg55
(lp121
g27
asbag48
(g69
g50
NtRp122
(dp123
g53
(dp124
g80
g81
ssg62
g114
sg55
(lp125
S':'
asbag48
(g69
g50
NtRp126
(dp127
g53
(dp128
sg62
g114
sg55
(lp129
g48
(g49
g50
NtRp130
(dp131
g53
(dp132
g61
I5
ssg62
g126
sg55
(lp133
g48
(g57
g50
NtRp134
(dp135
g53
(dp136
g61
I4
ssg62
Nsg55
(lp137
sbasbasbasbag48
(g64
g50
NtRp138
(dp139
g53
(dp140
sg62
g58
sg55
(lp141
g48
(g69
g50
NtRp142
(dp143
g53
(dp144
g73
g74
ssg62
g138
sg55
(lp145
S'body'
p146
asbag48
(g69
g50
NtRp147
(dp148
g53
(dp149
g80
g81
ssg62
g138
sg55
(lp150
S':'
asbag48
(g69
g50
NtRp151
(dp152
g53
(dp153
sg62
g138
sg55
(lp154
g48
(g49
g50
NtRp155
(dp156
g53
(dp157
g61
I5
ssg62
g151
sg55
(lp158
S'<cStringIO.StringO object at 0x079D62E0>'
p159
asbasbasbag48
(g64
g50
NtRp160
(dp161
g53
(dp162
sg62
g58
sg55
(lp163
g48
(g69
g50
NtRp164
(dp165
g53
(dp166
g73
g74
ssg62
g160
sg55
(lp167
S'client'
p168
asbag48
(g69
g50
NtRp169
(dp170
g53
(dp171
g80
g81
ssg62
g160
sg55
(lp172
S':'
asbag48
(g69
g50
NtRp173
(dp174
g53
(dp175
sg62
g160
sg55
(lp176
g48
(g49
g50
NtRp177
(dp178
g53
(dp179
g61
I5
ssg62
g173
sg55
(lp180
S'127.0.0.1'
p181
asbasbasbag48
(g64
g50
NtRp182
(dp183
g53
(dp184
sg62
g58
sg55
(lp185
g48
(g69
g50
NtRp186
(dp187
g53
(dp188
g73
g74
ssg62
g182
sg55
(lp189
S'controller'
p190
asbag48
(g69
g50
NtRp191
(dp192
g53
(dp193
g80
g81
ssg62
g182
sg55
(lp194
S':'
asbag48
(g69
g50
NtRp195
(dp196
g53
(dp197
sg62
g182
sg55
(lp198
g48
(g49
g50
NtRp199
(dp200
g53
(dp201
g61
I5
ssg62
g195
sg55
(lp202
S'default'
p203
asbasbasbag48
(g64
g50
NtRp204
(dp205
g53
(dp206
sg62
g58
sg55
(lp207
g48
(g69
g50
NtRp208
(dp209
g53
(dp210
g73
g74
ssg62
g204
sg55
(lp211
S'cookies'
p212
asbag48
(g69
g50
NtRp213
(dp214
g53
(dp215
g80
g81
ssg62
g204
sg55
(lp216
S':'
asbag48
(g69
g50
NtRp217
(dp218
g53
(dp219
sg62
g204
sg55
(lp220
g48
(g49
g50
NtRp221
(dp222
g53
(dp223
g61
I5
ssg62
g217
sg55
(lp224
g48
(g57
g50
NtRp225
(dp226
g53
(dp227
g61
I4
ssg62
Nsg55
(lp228
g48
(g64
g50
NtRp229
(dp230
g53
(dp231
sg62
g225
sg55
(lp232
g48
(g69
g50
NtRp233
(dp234
g53
(dp235
g73
g74
ssg62
g229
sg55
(lp236
S'session_id_admin'
p237
asbag48
(g69
g50
NtRp238
(dp239
g53
(dp240
g80
g81
ssg62
g229
sg55
(lp241
S':'
asbag48
(g69
g50
NtRp242
(dp243
g53
(dp244
sg62
g229
sg55
(lp245
g48
(g49
g50
NtRp246
(dp247
g53
(dp248
g61
I4
ssg62
g242
sg55
(lp249
g48
(g57
g50
NtRp250
(dp251
g53
(dp252
g61
I3
ssg62
Nsg55
(lp253
g48
(g64
g50
NtRp254
(dp255
g53
(dp256
sg62
g250
sg55
(lp257
g48
(g69
g50
NtRp258
(dp259
g53
(dp260
g73
g74
ssg62
g254
sg55
(lp261
S'comment'
p262
asbag48
(g69
g50
NtRp263
(dp264
g53
(dp265
g80
g81
ssg62
g254
sg55
(lp266
S':'
asbag48
(g69
g50
NtRp267
(dp268
g53
(dp269
sg62
g254
sg55
(lp270
g48
(g49
g50
NtRp271
(dp272
g53
(dp273
g61
I3
ssg62
g267
sg55
(lp274
S''
asbasbasbag48
(g64
g50
NtRp275
(dp276
g53
(dp277
sg62
g250
sg55
(lp278
g48
(g69
g50
NtRp279
(dp280
g53
(dp281
g73
g74
ssg62
g275
sg55
(lp282
S'domain'
p283
asbag48
(g69
g50
NtRp284
(dp285
g53
(dp286
g80
g81
ssg62
g275
sg55
(lp287
S':'
asbag48
(g69
g50
NtRp288
(dp289
g53
(dp290
sg62
g275
sg55
(lp291
g48
(g49
g50
NtRp292
(dp293
g53
(dp294
g61
I3
ssg62
g288
sg55
(lp295
S''
asbasbasbag48
(g64
g50
NtRp296
(dp297
g53
(dp298
sg62
g250
sg55
(lp299
g48
(g69
g50
NtRp300
(dp301
g53
(dp302
g73
g74
ssg62
g296
sg55
(lp303
S'expires'
p304
asbag48
(g69
g50
NtRp305
(dp306
g53
(dp307
g80
g81
ssg62
g296
sg55
(lp308
S':'
asbag48
(g69
g50
NtRp309
(dp310
g53
(dp311
sg62
g296
sg55
(lp312
g48
(g49
g50
NtRp313
(dp314
g53
(dp315
g61
I3
ssg62
g309
sg55
(lp316
S''
asbasbasbag48
(g64
g50
NtRp317
(dp318
g53
(dp319
sg62
g250
sg55
(lp320
g48
(g69
g50
NtRp321
(dp322
g53
(dp323
g73
g74
ssg62
g317
sg55
(lp324
S'max-age'
p325
asbag48
(g69
g50
NtRp326
(dp327
g53
(dp328
g80
g81
ssg62
g317
sg55
(lp329
S':'
asbag48
(g69
g50
NtRp330
(dp331
g53
(dp332
sg62
g317
sg55
(lp333
g48
(g49
g50
NtRp334
(dp335
g53
(dp336
g61
I3
ssg62
g330
sg55
(lp337
S''
asbasbasbag48
(g64
g50
NtRp338
(dp339
g53
(dp340
sg62
g250
sg55
(lp341
g48
(g69
g50
NtRp342
(dp343
g53
(dp344
g73
g74
ssg62
g338
sg55
(lp345
S'path'
p346
asbag48
(g69
g50
NtRp347
(dp348
g53
(dp349
g80
g81
ssg62
g338
sg55
(lp350
S':'
asbag48
(g69
g50
NtRp351
(dp352
g53
(dp353
sg62
g338
sg55
(lp354
g48
(g49
g50
NtRp355
(dp356
g53
(dp357
g61
I3
ssg62
g351
sg55
(lp358
S''
asbasbasbag48
(g64
g50
NtRp359
(dp360
g53
(dp361
sg62
g250
sg55
(lp362
g48
(g69
g50
NtRp363
(dp364
g53
(dp365
g73
g74
ssg62
g359
sg55
(lp366
S'secure'
p367
asbag48
(g69
g50
NtRp368
(dp369
g53
(dp370
g80
g81
ssg62
g359
sg55
(lp371
S':'
asbag48
(g69
g50
NtRp372
(dp373
g53
(dp374
sg62
g359
sg55
(lp375
g48
(g49
g50
NtRp376
(dp377
g53
(dp378
g61
I3
ssg62
g372
sg55
(lp379
S''
asbasbasbag48
(g64
g50
NtRp380
(dp381
g53
(dp382
sg62
g250
sg55
(lp383
g48
(g69
g50
NtRp384
(dp385
g53
(dp386
g73
g74
ssg62
g380
sg55
(lp387
S'version'
p388
asbag48
(g69
g50
NtRp389
(dp390
g53
(dp391
g80
g81
ssg62
g380
sg55
(lp392
S':'
asbag48
(g69
g50
NtRp393
(dp394
g53
(dp395
sg62
g380
sg55
(lp396
g48
(g49
g50
NtRp397
(dp398
g53
(dp399
g61
I3
ssg62
g393
sg55
(lp400
S''
asbasbasbasbasbasbasbag48
(g64
g50
NtRp401
(dp402
g53
(dp403
sg62
g225
sg55
(lp404
g48
(g69
g50
NtRp405
(dp406
g53
(dp407
g73
g74
ssg62
g401
sg55
(lp408
S'session_id_desglosar_emails'
p409
asbag48
(g69
g50
NtRp410
(dp411
g53
(dp412
g80
g81
ssg62
g401
sg55
(lp413
S':'
asbag48
(g69
g50
NtRp414
(dp415
g53
(dp416
sg62
g401
sg55
(lp417
g48
(g49
g50
NtRp418
(dp419
g53
(dp420
g61
I4
ssg62
g414
sg55
(lp421
g48
(g57
g50
NtRp422
(dp423
g53
(dp424
g61
I3
ssg62
Nsg55
(lp425
g48
(g64
g50
NtRp426
(dp427
g53
(dp428
sg62
g422
sg55
(lp429
g48
(g69
g50
NtRp430
(dp431
g53
(dp432
g73
g74
ssg62
g426
sg55
(lp433
g262
asbag48
(g69
g50
NtRp434
(dp435
g53
(dp436
g80
g81
ssg62
g426
sg55
(lp437
S':'
asbag48
(g69
g50
NtRp438
(dp439
g53
(dp440
sg62
g426
sg55
(lp441
g48
(g49
g50
NtRp442
(dp443
g53
(dp444
g61
I3
ssg62
g438
sg55
(lp445
S''
asbasbasbag48
(g64
g50
NtRp446
(dp447
g53
(dp448
sg62
g422
sg55
(lp449
g48
(g69
g50
NtRp450
(dp451
g53
(dp452
g73
g74
ssg62
g446
sg55
(lp453
g283
asbag48
(g69
g50
NtRp454
(dp455
g53
(dp456
g80
g81
ssg62
g446
sg55
(lp457
S':'
asbag48
(g69
g50
NtRp458
(dp459
g53
(dp460
sg62
g446
sg55
(lp461
g48
(g49
g50
NtRp462
(dp463
g53
(dp464
g61
I3
ssg62
g458
sg55
(lp465
S''
asbasbasbag48
(g64
g50
NtRp466
(dp467
g53
(dp468
sg62
g422
sg55
(lp469
g48
(g69
g50
NtRp470
(dp471
g53
(dp472
g73
g74
ssg62
g466
sg55
(lp473
g304
asbag48
(g69
g50
NtRp474
(dp475
g53
(dp476
g80
g81
ssg62
g466
sg55
(lp477
S':'
asbag48
(g69
g50
NtRp478
(dp479
g53
(dp480
sg62
g466
sg55
(lp481
g48
(g49
g50
NtRp482
(dp483
g53
(dp484
g61
I3
ssg62
g478
sg55
(lp485
S''
asbasbasbag48
(g64
g50
NtRp486
(dp487
g53
(dp488
sg62
g422
sg55
(lp489
g48
(g69
g50
NtRp490
(dp491
g53
(dp492
g73
g74
ssg62
g486
sg55
(lp493
g325
asbag48
(g69
g50
NtRp494
(dp495
g53
(dp496
g80
g81
ssg62
g486
sg55
(lp497
S':'
asbag48
(g69
g50
NtRp498
(dp499
g53
(dp500
sg62
g486
sg55
(lp501
g48
(g49
g50
NtRp502
(dp503
g53
(dp504
g61
I3
ssg62
g498
sg55
(lp505
S''
asbasbasbag48
(g64
g50
NtRp506
(dp507
g53
(dp508
sg62
g422
sg55
(lp509
g48
(g69
g50
NtRp510
(dp511
g53
(dp512
g73
g74
ssg62
g506
sg55
(lp513
g346
asbag48
(g69
g50
NtRp514
(dp515
g53
(dp516
g80
g81
ssg62
g506
sg55
(lp517
S':'
asbag48
(g69
g50
NtRp518
(dp519
g53
(dp520
sg62
g506
sg55
(lp521
g48
(g49
g50
NtRp522
(dp523
g53
(dp524
g61
I3
ssg62
g518
sg55
(lp525
S''
asbasbasbag48
(g64
g50
NtRp526
(dp527
g53
(dp528
sg62
g422
sg55
(lp529
g48
(g69
g50
NtRp530
(dp531
g53
(dp532
g73
g74
ssg62
g526
sg55
(lp533
g367
asbag48
(g69
g50
NtRp534
(dp535
g53
(dp536
g80
g81
ssg62
g526
sg55
(lp537
S':'
asbag48
(g69
g50
NtRp538
(dp539
g53
(dp540
sg62
g526
sg55
(lp541
g48
(g49
g50
NtRp542
(dp543
g53
(dp544
g61
I3
ssg62
g538
sg55
(lp545
S''
asbasbasbag48
(g64
g50
NtRp546
(dp547
g53
(dp548
sg62
g422
sg55
(lp549
g48
(g69
g50
NtRp550
(dp551
g53
(dp552
g73
g74
ssg62
g546
sg55
(lp553
g388
asbag48
(g69
g50
NtRp554
(dp555
g53
(dp556
g80
g81
ssg62
g546
sg55
(lp557
S':'
asbag48
(g69
g50
NtRp558
(dp559
g53
(dp560
sg62
g546
sg55
(lp561
g48
(g49
g50
NtRp562
(dp563
g53
(dp564
g61
I3
ssg62
g558
sg55
(lp565
S''
asbasbasbasbasbasbasbag48
(g64
g50
NtRp566
(dp567
g53
(dp568
sg62
g225
sg55
(lp569
g48
(g69
g50
NtRp570
(dp571
g53
(dp572
g73
g74
ssg62
g566
sg55
(lp573
S'session_id_listado_1'
p574
asbag48
(g69
g50
NtRp575
(dp576
g53
(dp577
g80
g81
ssg62
g566
sg55
(lp578
S':'
asbag48
(g69
g50
NtRp579
(dp580
g53
(dp581
sg62
g566
sg55
(lp582
g48
(g49
g50
NtRp583
(dp584
g53
(dp585
g61
I4
ssg62
g579
sg55
(lp586
g48
(g57
g50
NtRp587
(dp588
g53
(dp589
g61
I3
ssg62
Nsg55
(lp590
g48
(g64
g50
NtRp591
(dp592
g53
(dp593
sg62
g587
sg55
(lp594
g48
(g69
g50
NtRp595
(dp596
g53
(dp597
g73
g74
ssg62
g591
sg55
(lp598
g262
asbag48
(g69
g50
NtRp599
(dp600
g53
(dp601
g80
g81
ssg62
g591
sg55
(lp602
S':'
asbag48
(g69
g50
NtRp603
(dp604
g53
(dp605
sg62
g591
sg55
(lp606
g48
(g49
g50
NtRp607
(dp608
g53
(dp609
g61
I3
ssg62
g603
sg55
(lp610
S''
asbasbasbag48
(g64
g50
NtRp611
(dp612
g53
(dp613
sg62
g587
sg55
(lp614
g48
(g69
g50
NtRp615
(dp616
g53
(dp617
g73
g74
ssg62
g611
sg55
(lp618
g283
asbag48
(g69
g50
NtRp619
(dp620
g53
(dp621
g80
g81
ssg62
g611
sg55
(lp622
S':'
asbag48
(g69
g50
NtRp623
(dp624
g53
(dp625
sg62
g611
sg55
(lp626
g48
(g49
g50
NtRp627
(dp628
g53
(dp629
g61
I3
ssg62
g623
sg55
(lp630
S''
asbasbasbag48
(g64
g50
NtRp631
(dp632
g53
(dp633
sg62
g587
sg55
(lp634
g48
(g69
g50
NtRp635
(dp636
g53
(dp637
g73
g74
ssg62
g631
sg55
(lp638
g304
asbag48
(g69
g50
NtRp639
(dp640
g53
(dp641
g80
g81
ssg62
g631
sg55
(lp642
S':'
asbag48
(g69
g50
NtRp643
(dp644
g53
(dp645
sg62
g631
sg55
(lp646
g48
(g49
g50
NtRp647
(dp648
g53
(dp649
g61
I3
ssg62
g643
sg55
(lp650
S''
asbasbasbag48
(g64
g50
NtRp651
(dp652
g53
(dp653
sg62
g587
sg55
(lp654
g48
(g69
g50
NtRp655
(dp656
g53
(dp657
g73
g74
ssg62
g651
sg55
(lp658
g325
asbag48
(g69
g50
NtRp659
(dp660
g53
(dp661
g80
g81
ssg62
g651
sg55
(lp662
S':'
asbag48
(g69
g50
NtRp663
(dp664
g53
(dp665
sg62
g651
sg55
(lp666
g48
(g49
g50
NtRp667
(dp668
g53
(dp669
g61
I3
ssg62
g663
sg55
(lp670
S''
asbasbasbag48
(g64
g50
NtRp671
(dp672
g53
(dp673
sg62
g587
sg55
(lp674
g48
(g69
g50
NtRp675
(dp676
g53
(dp677
g73
g74
ssg62
g671
sg55
(lp678
g346
asbag48
(g69
g50
NtRp679
(dp680
g53
(dp681
g80
g81
ssg62
g671
sg55
(lp682
S':'
asbag48
(g69
g50
NtRp683
(dp684
g53
(dp685
sg62
g671
sg55
(lp686
g48
(g49
g50
NtRp687
(dp688
g53
(dp689
g61
I3
ssg62
g683
sg55
(lp690
S''
asbasbasbag48
(g64
g50
NtRp691
(dp692
g53
(dp693
sg62
g587
sg55
(lp694
g48
(g69
g50
NtRp695
(dp696
g53
(dp697
g73
g74
ssg62
g691
sg55
(lp698
g367
asbag48
(g69
g50
NtRp699
(dp700
g53
(dp701
g80
g81
ssg62
g691
sg55
(lp702
S':'
asbag48
(g69
g50
NtRp703
(dp704
g53
(dp705
sg62
g691
sg55
(lp706
g48
(g49
g50
NtRp707
(dp708
g53
(dp709
g61
I3
ssg62
g703
sg55
(lp710
S''
asbasbasbag48
(g64
g50
NtRp711
(dp712
g53
(dp713
sg62
g587
sg55
(lp714
g48
(g69
g50
NtRp715
(dp716
g53
(dp717
g73
g74
ssg62
g711
sg55
(lp718
g388
asbag48
(g69
g50
NtRp719
(dp720
g53
(dp721
g80
g81
ssg62
g711
sg55
(lp722
S':'
asbag48
(g69
g50
NtRp723
(dp724
g53
(dp725
sg62
g711
sg55
(lp726
g48
(g49
g50
NtRp727
(dp728
g53
(dp729
g61
I3
ssg62
g723
sg55
(lp730
S''
asbasbasbasbasbasbasbag48
(g64
g50
NtRp731
(dp732
g53
(dp733
sg62
g225
sg55
(lp734
g48
(g69
g50
NtRp735
(dp736
g53
(dp737
g73
g74
ssg62
g731
sg55
(lp738
S'session_id_welcome'
p739
asbag48
(g69
g50
NtRp740
(dp741
g53
(dp742
g80
g81
ssg62
g731
sg55
(lp743
S':'
asbag48
(g69
g50
NtRp744
(dp745
g53
(dp746
sg62
g731
sg55
(lp747
g48
(g49
g50
NtRp748
(dp749
g53
(dp750
g61
I4
ssg62
g744
sg55
(lp751
g48
(g57
g50
NtRp752
(dp753
g53
(dp754
g61
I3
ssg62
Nsg55
(lp755
g48
(g64
g50
NtRp756
(dp757
g53
(dp758
sg62
g752
sg55
(lp759
g48
(g69
g50
NtRp760
(dp761
g53
(dp762
g73
g74
ssg62
g756
sg55
(lp763
g262
asbag48
(g69
g50
NtRp764
(dp765
g53
(dp766
g80
g81
ssg62
g756
sg55
(lp767
S':'
asbag48
(g69
g50
NtRp768
(dp769
g53
(dp770
sg62
g756
sg55
(lp771
g48
(g49
g50
NtRp772
(dp773
g53
(dp774
g61
I3
ssg62
g768
sg55
(lp775
S''
asbasbasbag48
(g64
g50
NtRp776
(dp777
g53
(dp778
sg62
g752
sg55
(lp779
g48
(g69
g50
NtRp780
(dp781
g53
(dp782
g73
g74
ssg62
g776
sg55
(lp783
g283
asbag48
(g69
g50
NtRp784
(dp785
g53
(dp786
g80
g81
ssg62
g776
sg55
(lp787
S':'
asbag48
(g69
g50
NtRp788
(dp789
g53
(dp790
sg62
g776
sg55
(lp791
g48
(g49
g50
NtRp792
(dp793
g53
(dp794
g61
I3
ssg62
g788
sg55
(lp795
S''
asbasbasbag48
(g64
g50
NtRp796
(dp797
g53
(dp798
sg62
g752
sg55
(lp799
g48
(g69
g50
NtRp800
(dp801
g53
(dp802
g73
g74
ssg62
g796
sg55
(lp803
g304
asbag48
(g69
g50
NtRp804
(dp805
g53
(dp806
g80
g81
ssg62
g796
sg55
(lp807
S':'
asbag48
(g69
g50
NtRp808
(dp809
g53
(dp810
sg62
g796
sg55
(lp811
g48
(g49
g50
NtRp812
(dp813
g53
(dp814
g61
I3
ssg62
g808
sg55
(lp815
S''
asbasbasbag48
(g64
g50
NtRp816
(dp817
g53
(dp818
sg62
g752
sg55
(lp819
g48
(g69
g50
NtRp820
(dp821
g53
(dp822
g73
g74
ssg62
g816
sg55
(lp823
g325
asbag48
(g69
g50
NtRp824
(dp825
g53
(dp826
g80
g81
ssg62
g816
sg55
(lp827
S':'
asbag48
(g69
g50
NtRp828
(dp829
g53
(dp830
sg62
g816
sg55
(lp831
g48
(g49
g50
NtRp832
(dp833
g53
(dp834
g61
I3
ssg62
g828
sg55
(lp835
S''
asbasbasbag48
(g64
g50
NtRp836
(dp837
g53
(dp838
sg62
g752
sg55
(lp839
g48
(g69
g50
NtRp840
(dp841
g53
(dp842
g73
g74
ssg62
g836
sg55
(lp843
g346
asbag48
(g69
g50
NtRp844
(dp845
g53
(dp846
g80
g81
ssg62
g836
sg55
(lp847
S':'
asbag48
(g69
g50
NtRp848
(dp849
g53
(dp850
sg62
g836
sg55
(lp851
g48
(g49
g50
NtRp852
(dp853
g53
(dp854
g61
I3
ssg62
g848
sg55
(lp855
S''
asbasbasbag48
(g64
g50
NtRp856
(dp857
g53
(dp858
sg62
g752
sg55
(lp859
g48
(g69
g50
NtRp860
(dp861
g53
(dp862
g73
g74
ssg62
g856
sg55
(lp863
g367
asbag48
(g69
g50
NtRp864
(dp865
g53
(dp866
g80
g81
ssg62
g856
sg55
(lp867
S':'
asbag48
(g69
g50
NtRp868
(dp869
g53
(dp870
sg62
g856
sg55
(lp871
g48
(g49
g50
NtRp872
(dp873
g53
(dp874
g61
I3
ssg62
g868
sg55
(lp875
S''
asbasbasbag48
(g64
g50
NtRp876
(dp877
g53
(dp878
sg62
g752
sg55
(lp879
g48
(g69
g50
NtRp880
(dp881
g53
(dp882
g73
g74
ssg62
g876
sg55
(lp883
g388
asbag48
(g69
g50
NtRp884
(dp885
g53
(dp886
g80
g81
ssg62
g876
sg55
(lp887
S':'
asbag48
(g69
g50
NtRp888
(dp889
g53
(dp890
sg62
g876
sg55
(lp891
g48
(g49
g50
NtRp892
(dp893
g53
(dp894
g61
I3
ssg62
g888
sg55
(lp895
S''
asbasbasbasbasbasbasbasbasbasbasbag48
(g64
g50
NtRp896
(dp897
g53
(dp898
sg62
g58
sg55
(lp899
g48
(g69
g50
NtRp900
(dp901
g53
(dp902
g73
g74
ssg62
g896
sg55
(lp903
S'env'
p904
asbag48
(g69
g50
NtRp905
(dp906
g53
(dp907
g80
g81
ssg62
g896
sg55
(lp908
S':'
asbag48
(g69
g50
NtRp909
(dp910
g53
(dp911
sg62
g896
sg55
(lp912
g48
(g49
g50
NtRp913
(dp914
g53
(dp915
g61
I5
ssg62
g909
sg55
(lp916
g48
(g57
g50
NtRp917
(dp918
g53
(dp919
g61
I4
ssg62
Nsg55
(lp920
g48
(g64
g50
NtRp921
(dp922
g53
(dp923
sg62
g917
sg55
(lp924
g48
(g69
g50
NtRp925
(dp926
g53
(dp927
g73
g74
ssg62
g921
sg55
(lp928
S'app_folders'
p929
asbag48
(g69
g50
NtRp930
(dp931
g53
(dp932
g80
g81
ssg62
g921
sg55
(lp933
S':'
asbag48
(g69
g50
NtRp934
(dp935
g53
(dp936
sg62
g921
sg55
(lp937
g48
(g49
g50
NtRp938
(dp939
g53
(dp940
g61
I4
ssg62
g934
sg55
(lp941
S"set(['C:\\\\Users\\\\Atomico\\\\web2py\\\\applications\\\\welcome\\\\', 'C:\\\\Users\\\\Atomico\\\\web2py\\\\applications\\\\Desglosar_Emails\\\\', 'C:\\\\Users\\\\Atomico\\\\web2py\\\\applications\\\\listado_1\\\\', 'C:\\\\Users\\\\Atomico\\\\web2py\\\\applications\\\\admin\\\\'])"
p942
asbasbasbag48
(g64
g50
NtRp943
(dp944
g53
(dp945
sg62
g917
sg55
(lp946
g48
(g69
g50
NtRp947
(dp948
g53
(dp949
g73
g74
ssg62
g943
sg55
(lp950
S'applications_parent'
p951
asbag48
(g69
g50
NtRp952
(dp953
g53
(dp954
g80
g81
ssg62
g943
sg55
(lp955
S':'
asbag48
(g69
g50
NtRp956
(dp957
g53
(dp958
sg62
g943
sg55
(lp959
g48
(g49
g50
NtRp960
(dp961
g53
(dp962
g61
I4
ssg62
g956
sg55
(lp963
S'C:\\Users\\Atomico\\web2py'
p964
asbasbasbag48
(g64
g50
NtRp965
(dp966
g53
(dp967
sg62
g917
sg55
(lp968
g48
(g69
g50
NtRp969
(dp970
g53
(dp971
g73
g74
ssg62
g965
sg55
(lp972
S'cmd_args'
p973
asbag48
(g69
g50
NtRp974
(dp975
g53
(dp976
g80
g81
ssg62
g965
sg55
(lp977
S':'
asbag48
(g69
g50
NtRp978
(dp979
g53
(dp980
sg62
g965
sg55
(lp981
g48
(g49
g50
NtRp982
(dp983
g53
(dp984
g61
I4
ssg62
g978
sg55
(lp985
g48
(g57
g50
NtRp986
(dp987
g53
(dp988
g61
I3
ssg62
Nsg55
(lp989
sbasbasbasbag48
(g64
g50
NtRp990
(dp991
g53
(dp992
sg62
g917
sg55
(lp993
g48
(g69
g50
NtRp994
(dp995
g53
(dp996
g73
g74
ssg62
g990
sg55
(lp997
S'cmd_options'
p998
asbag48
(g69
g50
NtRp999
(dp1000
g53
(dp1001
g80
g81
ssg62
g990
sg55
(lp1002
S':'
asbag48
(g69
g50
NtRp1003
(dp1004
g53
(dp1005
sg62
g990
sg55
(lp1006
g48
(g49
g50
NtRp1007
(dp1008
g53
(dp1009
g61
I4
ssg62
g1003
sg55
(lp1010
S"<Values at 0x30fb620: {'verbose': False, 'ip': '127.0.0.1', 'shutdown_timeout': 5, 'taskbar': False, 'port': 8000, 'maxthreads': None, 'softcron': False, 'server_name': 'Swing', 'bpython': False, 'nogui': False, 'nocron': False, 'extcron': False, 'debuglevel': 30, 'test': None, 'folder': 'C:\\\\Users\\\\Atomico\\\\web2py', 'config': '', 'import_models': False, 'winservice': '', 'shell': None, 'run': '', 'log_filename': 'httpserver.log', 'args': [''], 'profiler_filename': None, 'ssl_private_key': '', 'password': '<ask>', 'request_queue_size': 5, 'ssl_certificate': '', 'cronjob': False, 'plain': False, 'quiet': False, 'interfaces': None, 'minthreads': None, 'timeout': 10, 'numthreads': None, 'nobanner': False, 'pid_filename': 'httpserver.pid'}>"
p1011
asbasbasbag48
(g64
g50
NtRp1012
(dp1013
g53
(dp1014
sg62
g917
sg55
(lp1015
g48
(g69
g50
NtRp1016
(dp1017
g53
(dp1018
g73
g74
ssg62
g1012
sg55
(lp1019
S'db_sessions'
p1020
asbag48
(g69
g50
NtRp1021
(dp1022
g53
(dp1023
g80
g81
ssg62
g1012
sg55
(lp1024
S':'
asbag48
(g69
g50
NtRp1025
(dp1026
g53
(dp1027
sg62
g1012
sg55
(lp1028
g48
(g49
g50
NtRp1029
(dp1030
g53
(dp1031
g61
I4
ssg62
g1025
sg55
(lp1032
S'set([])'
p1033
asbasbasbag48
(g64
g50
NtRp1034
(dp1035
g53
(dp1036
sg62
g917
sg55
(lp1037
g48
(g69
g50
NtRp1038
(dp1039
g53
(dp1040
g73
g74
ssg62
g1034
sg55
(lp1041
S'debugging'
p1042
asbag48
(g69
g50
NtRp1043
(dp1044
g53
(dp1045
g80
g81
ssg62
g1034
sg55
(lp1046
S':'
asbag48
(g69
g50
NtRp1047
(dp1048
g53
(dp1049
sg62
g1034
sg55
(lp1050
g48
(g49
g50
NtRp1051
(dp1052
g53
(dp1053
g61
I4
ssg62
g1047
sg55
(lp1054
g91
asbasbasbag48
(g64
g50
NtRp1055
(dp1056
g53
(dp1057
sg62
g917
sg55
(lp1058
g48
(g69
g50
NtRp1059
(dp1060
g53
(dp1061
g73
g74
ssg62
g1055
sg55
(lp1062
S'gluon_parent'
p1063
asbag48
(g69
g50
NtRp1064
(dp1065
g53
(dp1066
g80
g81
ssg62
g1055
sg55
(lp1067
S':'
asbag48
(g69
g50
NtRp1068
(dp1069
g53
(dp1070
sg62
g1055
sg55
(lp1071
g48
(g49
g50
NtRp1072
(dp1073
g53
(dp1074
g61
I4
ssg62
g1068
sg55
(lp1075
S'C:\\Users\\Atomico\\web2py'
p1076
asbasbasbag48
(g64
g50
NtRp1077
(dp1078
g53
(dp1079
sg62
g917
sg55
(lp1080
g48
(g69
g50
NtRp1081
(dp1082
g53
(dp1083
g73
g74
ssg62
g1077
sg55
(lp1084
S'http_accept'
p1085
asbag48
(g69
g50
NtRp1086
(dp1087
g53
(dp1088
g80
g81
ssg62
g1077
sg55
(lp1089
S':'
asbag48
(g69
g50
NtRp1090
(dp1091
g53
(dp1092
sg62
g1077
sg55
(lp1093
g48
(g49
g50
NtRp1094
(dp1095
g53
(dp1096
g61
I4
ssg62
g1090
sg55
(lp1097
S'text/html,application/xhtml+xml,application/xml;q=0.9,*/*;q=0.8'
p1098
asbasbasbag48
(g64
g50
NtRp1099
(dp1100
g53
(dp1101
sg62
g917
sg55
(lp1102
g48
(g69
g50
NtRp1103
(dp1104
g53
(dp1105
g73
g74
ssg62
g1099
sg55
(lp1106
S'http_accept_charset'
p1107
asbag48
(g69
g50
NtRp1108
(dp1109
g53
(dp1110
g80
g81
ssg62
g1099
sg55
(lp1111
S':'
asbag48
(g69
g50
NtRp1112
(dp1113
g53
(dp1114
sg62
g1099
sg55
(lp1115
g48
(g49
g50
NtRp1116
(dp1117
g53
(dp1118
g61
I4
ssg62
g1112
sg55
(lp1119
S'ISO-8859-1,utf-8;q=0.7,*;q=0.7'
p1120
asbasbasbag48
(g64
g50
NtRp1121
(dp1122
g53
(dp1123
sg62
g917
sg55
(lp1124
g48
(g69
g50
NtRp1125
(dp1126
g53
(dp1127
g73
g74
ssg62
g1121
sg55
(lp1128
S'http_accept_encoding'
p1129
asbag48
(g69
g50
NtRp1130
(dp1131
g53
(dp1132
g80
g81
ssg62
g1121
sg55
(lp1133
S':'
asbag48
(g69
g50
NtRp1134
(dp1135
g53
(dp1136
sg62
g1121
sg55
(lp1137
g48
(g49
g50
NtRp1138
(dp1139
g53
(dp1140
g61
I4
ssg62
g1134
sg55
(lp1141
S'gzip, deflate'
p1142
asbasbasbag48
(g64
g50
NtRp1143
(dp1144
g53
(dp1145
sg62
g917
sg55
(lp1146
g48
(g69
g50
NtRp1147
(dp1148
g53
(dp1149
g73
g74
ssg62
g1143
sg55
(lp1150
S'http_accept_language'
p1151
asbag48
(g69
g50
NtRp1152
(dp1153
g53
(dp1154
g80
g81
ssg62
g1143
sg55
(lp1155
S':'
asbag48
(g69
g50
NtRp1156
(dp1157
g53
(dp1158
sg62
g1143
sg55
(lp1159
g48
(g49
g50
NtRp1160
(dp1161
g53
(dp1162
g61
I4
ssg62
g1156
sg55
(lp1163
S'es-es,es;q=0.8,en-us;q=0.5,en;q=0.3'
p1164
asbasbasbag48
(g64
g50
NtRp1165
(dp1166
g53
(dp1167
sg62
g917
sg55
(lp1168
g48
(g69
g50
NtRp1169
(dp1170
g53
(dp1171
g73
g74
ssg62
g1165
sg55
(lp1172
S'http_connection'
p1173
asbag48
(g69
g50
NtRp1174
(dp1175
g53
(dp1176
g80
g81
ssg62
g1165
sg55
(lp1177
S':'
asbag48
(g69
g50
NtRp1178
(dp1179
g53
(dp1180
sg62
g1165
sg55
(lp1181
g48
(g49
g50
NtRp1182
(dp1183
g53
(dp1184
g61
I4
ssg62
g1178
sg55
(lp1185
S'keep-alive'
p1186
asbasbasbag48
(g64
g50
NtRp1187
(dp1188
g53
(dp1189
sg62
g917
sg55
(lp1190
g48
(g69
g50
NtRp1191
(dp1192
g53
(dp1193
g73
g74
ssg62
g1187
sg55
(lp1194
S'http_cookie'
p1195
asbag48
(g69
g50
NtRp1196
(dp1197
g53
(dp1198
g80
g81
ssg62
g1187
sg55
(lp1199
S':'
asbag48
(g69
g50
NtRp1200
(dp1201
g53
(dp1202
sg62
g1187
sg55
(lp1203
g48
(g49
g50
NtRp1204
(dp1205
g53
(dp1206
g61
I4
ssg62
g1200
sg55
(lp1207
S'session_id_welcome=127.0.0.1-082a2830-9bb6-4bfb-b2e2-4857b06c191e; session_id_admin=127.0.0.1-c7466ffc-af7a-4e04-a40d-5c71f3f606fb; session_id_listado_1=127.0.0.1-477ec098-5436-4f6e-bfee-1a0bd88f6f9e; session_id_desglosar_emails=127.0.0.1-0a11b3b2-660c-433c-b71f-fc129286f26c'
p1208
asbasbasbag48
(g64
g50
NtRp1209
(dp1210
g53
(dp1211
sg62
g917
sg55
(lp1212
g48
(g69
g50
NtRp1213
(dp1214
g53
(dp1215
g73
g74
ssg62
g1209
sg55
(lp1216
S'http_host'
p1217
asbag48
(g69
g50
NtRp1218
(dp1219
g53
(dp1220
g80
g81
ssg62
g1209
sg55
(lp1221
S':'
asbag48
(g69
g50
NtRp1222
(dp1223
g53
(dp1224
sg62
g1209
sg55
(lp1225
g48
(g49
g50
NtRp1226
(dp1227
g53
(dp1228
g61
I4
ssg62
g1222
sg55
(lp1229
S'127.0.0.1:8000'
p1230
asbasbasbag48
(g64
g50
NtRp1231
(dp1232
g53
(dp1233
sg62
g917
sg55
(lp1234
g48
(g69
g50
NtRp1235
(dp1236
g53
(dp1237
g73
g74
ssg62
g1231
sg55
(lp1238
S'http_user_agent'
p1239
asbag48
(g69
g50
NtRp1240
(dp1241
g53
(dp1242
g80
g81
ssg62
g1231
sg55
(lp1243
S':'
asbag48
(g69
g50
NtRp1244
(dp1245
g53
(dp1246
sg62
g1231
sg55
(lp1247
g48
(g49
g50
NtRp1248
(dp1249
g53
(dp1250
g61
I4
ssg62
g1244
sg55
(lp1251
S'Mozilla/5.0 (Windows NT 6.1; WOW64; rv:6.0.2) Gecko/20100101 Firefox/6.0.2'
p1252
asbasbasbag48
(g64
g50
NtRp1253
(dp1254
g53
(dp1255
sg62
g917
sg55
(lp1256
g48
(g69
g50
NtRp1257
(dp1258
g53
(dp1259
g73
g74
ssg62
g1253
sg55
(lp1260
S'is_jython'
p1261
asbag48
(g69
g50
NtRp1262
(dp1263
g53
(dp1264
g80
g81
ssg62
g1253
sg55
(lp1265
S':'
asbag48
(g69
g50
NtRp1266
(dp1267
g53
(dp1268
sg62
g1253
sg55
(lp1269
g48
(g49
g50
NtRp1270
(dp1271
g53
(dp1272
g61
I4
ssg62
g1266
sg55
(lp1273
g91
asbasbasbag48
(g64
g50
NtRp1274
(dp1275
g53
(dp1276
sg62
g917
sg55
(lp1277
g48
(g69
g50
NtRp1278
(dp1279
g53
(dp1280
g73
g74
ssg62
g1274
sg55
(lp1281
S'path_info'
p1282
asbag48
(g69
g50
NtRp1283
(dp1284
g53
(dp1285
g80
g81
ssg62
g1274
sg55
(lp1286
S':'
asbag48
(g69
g50
NtRp1287
(dp1288
g53
(dp1289
sg62
g1274
sg55
(lp1290
g48
(g49
g50
NtRp1291
(dp1292
g53
(dp1293
g61
I4
ssg62
g1287
sg55
(lp1294
S'/Desglosar_Emails/default/entrada'
p1295
asbasbasbag48
(g64
g50
NtRp1296
(dp1297
g53
(dp1298
sg62
g917
sg55
(lp1299
g48
(g69
g50
NtRp1300
(dp1301
g53
(dp1302
g73
g74
ssg62
g1296
sg55
(lp1303
S'query_string'
p1304
asbag48
(g69
g50
NtRp1305
(dp1306
g53
(dp1307
g80
g81
ssg62
g1296
sg55
(lp1308
S':'
asbag48
(g69
g50
NtRp1309
(dp1310
g53
(dp1311
sg62
g1296
sg55
(lp1312
g48
(g49
g50
NtRp1313
(dp1314
g53
(dp1315
g61
I4
ssg62
g1309
sg55
(lp1316
S''
asbasbasbag48
(g64
g50
NtRp1317
(dp1318
g53
(dp1319
sg62
g917
sg55
(lp1320
g48
(g69
g50
NtRp1321
(dp1322
g53
(dp1323
g73
g74
ssg62
g1317
sg55
(lp1324
S'remote_addr'
p1325
asbag48
(g69
g50
NtRp1326
(dp1327
g53
(dp1328
g80
g81
ssg62
g1317
sg55
(lp1329
S':'
asbag48
(g69
g50
NtRp1330
(dp1331
g53
(dp1332
sg62
g1317
sg55
(lp1333
g48
(g49
g50
NtRp1334
(dp1335
g53
(dp1336
g61
I4
ssg62
g1330
sg55
(lp1337
g181
asbasbasbag48
(g64
g50
NtRp1338
(dp1339
g53
(dp1340
sg62
g917
sg55
(lp1341
g48
(g69
g50
NtRp1342
(dp1343
g53
(dp1344
g73
g74
ssg62
g1338
sg55
(lp1345
S'remote_port'
p1346
asbag48
(g69
g50
NtRp1347
(dp1348
g53
(dp1349
g80
g81
ssg62
g1338
sg55
(lp1350
S':'
asbag48
(g69
g50
NtRp1351
(dp1352
g53
(dp1353
sg62
g1338
sg55
(lp1354
g48
(g49
g50
NtRp1355
(dp1356
g53
(dp1357
g61
I4
ssg62
g1351
sg55
(lp1358
S'57366'
p1359
asbasbasbag48
(g64
g50
NtRp1360
(dp1361
g53
(dp1362
sg62
g917
sg55
(lp1363
g48
(g69
g50
NtRp1364
(dp1365
g53
(dp1366
g73
g74
ssg62
g1360
sg55
(lp1367
S'request_method'
p1368
asbag48
(g69
g50
NtRp1369
(dp1370
g53
(dp1371
g80
g81
ssg62
g1360
sg55
(lp1372
S':'
asbag48
(g69
g50
NtRp1373
(dp1374
g53
(dp1375
sg62
g1360
sg55
(lp1376
g48
(g49
g50
NtRp1377
(dp1378
g53
(dp1379
g61
I4
ssg62
g1373
sg55
(lp1380
S'GET'
p1381
asbasbasbag48
(g64
g50
NtRp1382
(dp1383
g53
(dp1384
sg62
g917
sg55
(lp1385
g48
(g69
g50
NtRp1386
(dp1387
g53
(dp1388
g73
g74
ssg62
g1382
sg55
(lp1389
S'script_name'
p1390
asbag48
(g69
g50
NtRp1391
(dp1392
g53
(dp1393
g80
g81
ssg62
g1382
sg55
(lp1394
S':'
asbag48
(g69
g50
NtRp1395
(dp1396
g53
(dp1397
sg62
g1382
sg55
(lp1398
g48
(g49
g50
NtRp1399
(dp1400
g53
(dp1401
g61
I4
ssg62
g1395
sg55
(lp1402
S''
asbasbasbag48
(g64
g50
NtRp1403
(dp1404
g53
(dp1405
sg62
g917
sg55
(lp1406
g48
(g69
g50
NtRp1407
(dp1408
g53
(dp1409
g73
g74
ssg62
g1403
sg55
(lp1410
S'server_name'
p1411
asbag48
(g69
g50
NtRp1412
(dp1413
g53
(dp1414
g80
g81
ssg62
g1403
sg55
(lp1415
S':'
asbag48
(g69
g50
NtRp1416
(dp1417
g53
(dp1418
sg62
g1403
sg55
(lp1419
g48
(g49
g50
NtRp1420
(dp1421
g53
(dp1422
g61
I4
ssg62
g1416
sg55
(lp1423
S'Swing'
p1424
asbasbasbag48
(g64
g50
NtRp1425
(dp1426
g53
(dp1427
sg62
g917
sg55
(lp1428
g48
(g69
g50
NtRp1429
(dp1430
g53
(dp1431
g73
g74
ssg62
g1425
sg55
(lp1432
S'server_port'
p1433
asbag48
(g69
g50
NtRp1434
(dp1435
g53
(dp1436
g80
g81
ssg62
g1425
sg55
(lp1437
S':'
asbag48
(g69
g50
NtRp1438
(dp1439
g53
(dp1440
sg62
g1425
sg55
(lp1441
g48
(g49
g50
NtRp1442
(dp1443
g53
(dp1444
g61
I4
ssg62
g1438
sg55
(lp1445
S'8000'
p1446
asbasbasbag48
(g64
g50
NtRp1447
(dp1448
g53
(dp1449
sg62
g917
sg55
(lp1450
g48
(g69
g50
NtRp1451
(dp1452
g53
(dp1453
g73
g74
ssg62
g1447
sg55
(lp1454
S'server_protocol'
p1455
asbag48
(g69
g50
NtRp1456
(dp1457
g53
(dp1458
g80
g81
ssg62
g1447
sg55
(lp1459
S':'
asbag48
(g69
g50
NtRp1460
(dp1461
g53
(dp1462
sg62
g1447
sg55
(lp1463
g48
(g49
g50
NtRp1464
(dp1465
g53
(dp1466
g61
I4
ssg62
g1460
sg55
(lp1467
S'HTTP/1.1'
p1468
asbasbasbag48
(g64
g50
NtRp1469
(dp1470
g53
(dp1471
sg62
g917
sg55
(lp1472
g48
(g69
g50
NtRp1473
(dp1474
g53
(dp1475
g73
g74
ssg62
g1469
sg55
(lp1476
S'server_software'
p1477
asbag48
(g69
g50
NtRp1478
(dp1479
g53
(dp1480
g80
g81
ssg62
g1469
sg55
(lp1481
S':'
asbag48
(g69
g50
NtRp1482
(dp1483
g53
(dp1484
sg62
g1469
sg55
(lp1485
g48
(g49
g50
NtRp1486
(dp1487
g53
(dp1488
g61
I4
ssg62
g1482
sg55
(lp1489
S'Rocket 1.2.2'
p1490
asbasbasbag48
(g64
g50
NtRp1491
(dp1492
g53
(dp1493
sg62
g917
sg55
(lp1494
g48
(g69
g50
NtRp1495
(dp1496
g53
(dp1497
g73
g74
ssg62
g1491
sg55
(lp1498
S'web2py_crontype'
p1499
asbag48
(g69
g50
NtRp1500
(dp1501
g53
(dp1502
g80
g81
ssg62
g1491
sg55
(lp1503
S':'
asbag48
(g69
g50
NtRp1504
(dp1505
g53
(dp1506
sg62
g1491
sg55
(lp1507
g48
(g49
g50
NtRp1508
(dp1509
g53
(dp1510
g61
I4
ssg62
g1504
sg55
(lp1511
S'hard'
p1512
asbasbasbag48
(g64
g50
NtRp1513
(dp1514
g53
(dp1515
sg62
g917
sg55
(lp1516
g48
(g69
g50
NtRp1517
(dp1518
g53
(dp1519
g73
g74
ssg62
g1513
sg55
(lp1520
S'web2py_path'
p1521
asbag48
(g69
g50
NtRp1522
(dp1523
g53
(dp1524
g80
g81
ssg62
g1513
sg55
(lp1525
S':'
asbag48
(g69
g50
NtRp1526
(dp1527
g53
(dp1528
sg62
g1513
sg55
(lp1529
g48
(g49
g50
NtRp1530
(dp1531
g53
(dp1532
g61
I4
ssg62
g1526
sg55
(lp1533
g964
asbasbasbag48
(g64
g50
NtRp1534
(dp1535
g53
(dp1536
sg62
g917
sg55
(lp1537
g48
(g69
g50
NtRp1538
(dp1539
g53
(dp1540
g73
g74
ssg62
g1534
sg55
(lp1541
S'web2py_version'
p1542
asbag48
(g69
g50
NtRp1543
(dp1544
g53
(dp1545
g80
g81
ssg62
g1534
sg55
(lp1546
S':'
asbag48
(g69
g50
NtRp1547
(dp1548
g53
(dp1549
sg62
g1534
sg55
(lp1550
g48
(g49
g50
NtRp1551
(dp1552
g53
(dp1553
g61
I4
ssg62
g1547
sg55
(lp1554
S'Version 1.98.2 (2011-08-04 00:47:09)\n'
p1555
asbasbasbag48
(g64
g50
NtRp1556
(dp1557
g53
(dp1558
sg62
g917
sg55
(lp1559
g48
(g69
g50
NtRp1560
(dp1561
g53
(dp1562
g73
g74
ssg62
g1556
sg55
(lp1563
S'wsgi_errors'
p1564
asbag48
(g69
g50
NtRp1565
(dp1566
g53
(dp1567
g80
g81
ssg62
g1556
sg55
(lp1568
S':'
asbag48
(g69
g50
NtRp1569
(dp1570
g53
(dp1571
sg62
g1556
sg55
(lp1572
g48
(g49
g50
NtRp1573
(dp1574
g53
(dp1575
g61
I4
ssg62
g1569
sg55
(lp1576
S"<open file '<stderr>', mode 'w' at 0x01F500B0>"
p1577
asbasbasbag48
(g64
g50
NtRp1578
(dp1579
g53
(dp1580
sg62
g917
sg55
(lp1581
g48
(g69
g50
NtRp1582
(dp1583
g53
(dp1584
g73
g74
ssg62
g1578
sg55
(lp1585
S'wsgi_file_wrapper'
p1586
asbag48
(g69
g50
NtRp1587
(dp1588
g53
(dp1589
g80
g81
ssg62
g1578
sg55
(lp1590
S':'
asbag48
(g69
g50
NtRp1591
(dp1592
g53
(dp1593
sg62
g1578
sg55
(lp1594
g48
(g49
g50
NtRp1595
(dp1596
g53
(dp1597
g61
I4
ssg62
g1591
sg55
(lp1598
S'<class gluon.rocket.FileWrapper at 0x0308C1B0>'
p1599
asbasbasbag48
(g64
g50
NtRp1600
(dp1601
g53
(dp1602
sg62
g917
sg55
(lp1603
g48
(g69
g50
NtRp1604
(dp1605
g53
(dp1606
g73
g74
ssg62
g1600
sg55
(lp1607
S'wsgi_input'
p1608
asbag48
(g69
g50
NtRp1609
(dp1610
g53
(dp1611
g80
g81
ssg62
g1600
sg55
(lp1612
S':'
asbag48
(g69
g50
NtRp1613
(dp1614
g53
(dp1615
sg62
g1600
sg55
(lp1616
g48
(g49
g50
NtRp1617
(dp1618
g53
(dp1619
g61
I4
ssg62
g1613
sg55
(lp1620
S'<socket._fileobject object at 0x075AD6F0>'
p1621
asbasbasbag48
(g64
g50
NtRp1622
(dp1623
g53
(dp1624
sg62
g917
sg55
(lp1625
g48
(g69
g50
NtRp1626
(dp1627
g53
(dp1628
g73
g74
ssg62
g1622
sg55
(lp1629
S'wsgi_multiprocess'
p1630
asbag48
(g69
g50
NtRp1631
(dp1632
g53
(dp1633
g80
g81
ssg62
g1622
sg55
(lp1634
S':'
asbag48
(g69
g50
NtRp1635
(dp1636
g53
(dp1637
sg62
g1622
sg55
(lp1638
g48
(g49
g50
NtRp1639
(dp1640
g53
(dp1641
g61
I4
ssg62
g1635
sg55
(lp1642
g91
asbasbasbag48
(g64
g50
NtRp1643
(dp1644
g53
(dp1645
sg62
g917
sg55
(lp1646
g48
(g69
g50
NtRp1647
(dp1648
g53
(dp1649
g73
g74
ssg62
g1643
sg55
(lp1650
S'wsgi_multithread'
p1651
asbag48
(g69
g50
NtRp1652
(dp1653
g53
(dp1654
g80
g81
ssg62
g1643
sg55
(lp1655
S':'
asbag48
(g69
g50
NtRp1656
(dp1657
g53
(dp1658
sg62
g1643
sg55
(lp1659
g48
(g49
g50
NtRp1660
(dp1661
g53
(dp1662
g61
I4
ssg62
g1656
sg55
(lp1663
S'True'
p1664
asbasbasbag48
(g64
g50
NtRp1665
(dp1666
g53
(dp1667
sg62
g917
sg55
(lp1668
g48
(g69
g50
NtRp1669
(dp1670
g53
(dp1671
g73
g74
ssg62
g1665
sg55
(lp1672
S'wsgi_run_once'
p1673
asbag48
(g69
g50
NtRp1674
(dp1675
g53
(dp1676
g80
g81
ssg62
g1665
sg55
(lp1677
S':'
asbag48
(g69
g50
NtRp1678
(dp1679
g53
(dp1680
sg62
g1665
sg55
(lp1681
g48
(g49
g50
NtRp1682
(dp1683
g53
(dp1684
g61
I4
ssg62
g1678
sg55
(lp1685
g91
asbasbasbag48
(g64
g50
NtRp1686
(dp1687
g53
(dp1688
sg62
g917
sg55
(lp1689
g48
(g69
g50
NtRp1690
(dp1691
g53
(dp1692
g73
g74
ssg62
g1686
sg55
(lp1693
S'wsgi_url_scheme'
p1694
asbag48
(g69
g50
NtRp1695
(dp1696
g53
(dp1697
g80
g81
ssg62
g1686
sg55
(lp1698
S':'
asbag48
(g69
g50
NtRp1699
(dp1700
g53
(dp1701
sg62
g1686
sg55
(lp1702
g48
(g49
g50
NtRp1703
(dp1704
g53
(dp1705
g61
I4
ssg62
g1699
sg55
(lp1706
S'http'
p1707
asbasbasbag48
(g64
g50
NtRp1708
(dp1709
g53
(dp1710
sg62
g917
sg55
(lp1711
g48
(g69
g50
NtRp1712
(dp1713
g53
(dp1714
g73
g74
ssg62
g1708
sg55
(lp1715
S'wsgi_version'
p1716
asbag48
(g69
g50
NtRp1717
(dp1718
g53
(dp1719
g80
g81
ssg62
g1708
sg55
(lp1720
S':'
asbag48
(g69
g50
NtRp1721
(dp1722
g53
(dp1723
sg62
g1708
sg55
(lp1724
g48
(g49
g50
NtRp1725
(dp1726
g53
(dp1727
g61
I4
ssg62
g1721
sg55
(lp1728
g48
(g57
g50
NtRp1729
(dp1730
g53
(dp1731
g61
I3
ssg62
Nsg55
(lp1732
g48
(g64
g50
NtRp1733
(dp1734
g53
(dp1735
sg62
g1729
sg55
(lp1736
g48
(g69
g50
NtRp1737
(dp1738
g53
(dp1739
sg62
g1733
sg55
(lp1740
g48
(g49
g50
NtRp1741
(dp1742
g53
(dp1743
g61
I3
ssg62
g1737
sg55
(lp1744
S'1'
asbasbasbag48
(g64
g50
NtRp1745
(dp1746
g53
(dp1747
sg62
g1729
sg55
(lp1748
g48
(g69
g50
NtRp1749
(dp1750
g53
(dp1751
sg62
g1745
sg55
(lp1752
g48
(g49
g50
NtRp1753
(dp1754
g53
(dp1755
g61
I3
ssg62
g1749
sg55
(lp1756
S'0'
asbasbasbasbasbasbasbasbasbasbasbag48
(g64
g50
NtRp1757
(dp1758
g53
(dp1759
sg62
g58
sg55
(lp1760
g48
(g69
g50
NtRp1761
(dp1762
g53
(dp1763
g73
g74
ssg62
g1757
sg55
(lp1764
S'extension'
p1765
asbag48
(g69
g50
NtRp1766
(dp1767
g53
(dp1768
g80
g81
ssg62
g1757
sg55
(lp1769
S':'
asbag48
(g69
g50
NtRp1770
(dp1771
g53
(dp1772
sg62
g1757
sg55
(lp1773
g48
(g49
g50
NtRp1774
(dp1775
g53
(dp1776
g61
I5
ssg62
g1770
sg55
(lp1777
S'html'
p1778
asbasbasbag48
(g64
g50
NtRp1779
(dp1780
g53
(dp1781
sg62
g58
sg55
(lp1782
g48
(g69
g50
NtRp1783
(dp1784
g53
(dp1785
g73
g74
ssg62
g1779
sg55
(lp1786
S'folder'
p1787
asbag48
(g69
g50
NtRp1788
(dp1789
g53
(dp1790
g80
g81
ssg62
g1779
sg55
(lp1791
S':'
asbag48
(g69
g50
NtRp1792
(dp1793
g53
(dp1794
sg62
g1779
sg55
(lp1795
g48
(g49
g50
NtRp1796
(dp1797
g53
(dp1798
g61
I5
ssg62
g1792
sg55
(lp1799
S'C:\\Users\\Atomico\\web2py\\applications\\Desglosar_Emails\\'
p1800
asbasbasbag48
(g64
g50
NtRp1801
(dp1802
g53
(dp1803
sg62
g58
sg55
(lp1804
g48
(g69
g50
NtRp1805
(dp1806
g53
(dp1807
g73
g74
ssg62
g1801
sg55
(lp1808
S'function'
p1809
asbag48
(g69
g50
NtRp1810
(dp1811
g53
(dp1812
g80
g81
ssg62
g1801
sg55
(lp1813
S':'
asbag48
(g69
g50
NtRp1814
(dp1815
g53
(dp1816
sg62
g1801
sg55
(lp1817
g48
(g49
g50
NtRp1818
(dp1819
g53
(dp1820
g61
I5
ssg62
g1814
sg55
(lp1821
S'entrada'
p1822
asbasbasbag48
(g64
g50
NtRp1823
(dp1824
g53
(dp1825
sg62
g58
sg55
(lp1826
g48
(g69
g50
NtRp1827
(dp1828
g53
(dp1829
g73
g74
ssg62
g1823
sg55
(lp1830
S'get_vars'
p1831
asbag48
(g69
g50
NtRp1832
(dp1833
g53
(dp1834
g80
g81
ssg62
g1823
sg55
(lp1835
S':'
asbag48
(g69
g50
NtRp1836
(dp1837
g53
(dp1838
sg62
g1823
sg55
(lp1839
g48
(g49
g50
NtRp1840
(dp1841
g53
(dp1842
g61
I5
ssg62
g1836
sg55
(lp1843
g48
(g57
g50
NtRp1844
(dp1845
g53
(dp1846
g61
I4
ssg62
Nsg55
(lp1847
sbasbasbasbag48
(g64
g50
NtRp1848
(dp1849
g53
(dp1850
sg62
g58
sg55
(lp1851
g48
(g69
g50
NtRp1852
(dp1853
g53
(dp1854
g73
g74
ssg62
g1848
sg55
(lp1855
S'is_https'
p1856
asbag48
(g69
g50
NtRp1857
(dp1858
g53
(dp1859
g80
g81
ssg62
g1848
sg55
(lp1860
S':'
asbag48
(g69
g50
NtRp1861
(dp1862
g53
(dp1863
sg62
g1848
sg55
(lp1864
g48
(g49
g50
NtRp1865
(dp1866
g53
(dp1867
g61
I5
ssg62
g1861
sg55
(lp1868
g91
asbasbasbag48
(g64
g50
NtRp1869
(dp1870
g53
(dp1871
sg62
g58
sg55
(lp1872
g48
(g69
g50
NtRp1873
(dp1874
g53
(dp1875
g73
g74
ssg62
g1869
sg55
(lp1876
S'is_local'
p1877
asbag48
(g69
g50
NtRp1878
(dp1879
g53
(dp1880
g80
g81
ssg62
g1869
sg55
(lp1881
S':'
asbag48
(g69
g50
NtRp1882
(dp1883
g53
(dp1884
sg62
g1869
sg55
(lp1885
g48
(g49
g50
NtRp1886
(dp1887
g53
(dp1888
g61
I5
ssg62
g1882
sg55
(lp1889
g1664
asbasbasbag48
(g64
g50
NtRp1890
(dp1891
g53
(dp1892
sg62
g58
sg55
(lp1893
g48
(g69
g50
NtRp1894
(dp1895
g53
(dp1896
g73
g74
ssg62
g1890
sg55
(lp1897
S'is_restful'
p1898
asbag48
(g69
g50
NtRp1899
(dp1900
g53
(dp1901
g80
g81
ssg62
g1890
sg55
(lp1902
S':'
asbag48
(g69
g50
NtRp1903
(dp1904
g53
(dp1905
sg62
g1890
sg55
(lp1906
g48
(g49
g50
NtRp1907
(dp1908
g53
(dp1909
g61
I5
ssg62
g1903
sg55
(lp1910
g91
asbasbasbag48
(g64
g50
NtRp1911
(dp1912
g53
(dp1913
sg62
g58
sg55
(lp1914
g48
(g69
g50
NtRp1915
(dp1916
g53
(dp1917
g73
g74
ssg62
g1911
sg55
(lp1918
S'now'
p1919
asbag48
(g69
g50
NtRp1920
(dp1921
g53
(dp1922
g80
g81
ssg62
g1911
sg55
(lp1923
S':'
asbag48
(g69
g50
NtRp1924
(dp1925
g53
(dp1926
sg62
g1911
sg55
(lp1927
g48
(g49
g50
NtRp1928
(dp1929
g53
(dp1930
g61
I5
ssg62
g1924
sg55
(lp1931
S'datetime.datetime(2011, 9, 18, 9, 56, 50, 983000)'
p1932
asbasbasbag48
(g64
g50
NtRp1933
(dp1934
g53
(dp1935
sg62
g58
sg55
(lp1936
g48
(g69
g50
NtRp1937
(dp1938
g53
(dp1939
g73
g74
ssg62
g1933
sg55
(lp1940
S'post_vars'
p1941
asbag48
(g69
g50
NtRp1942
(dp1943
g53
(dp1944
g80
g81
ssg62
g1933
sg55
(lp1945
S':'
asbag48
(g69
g50
NtRp1946
(dp1947
g53
(dp1948
sg62
g1933
sg55
(lp1949
g48
(g49
g50
NtRp1950
(dp1951
g53
(dp1952
g61
I5
ssg62
g1946
sg55
(lp1953
g48
(g57
g50
NtRp1954
(dp1955
g53
(dp1956
g61
I4
ssg62
Nsg55
(lp1957
sbasbasbasbag48
(g64
g50
NtRp1958
(dp1959
g53
(dp1960
sg62
g58
sg55
(lp1961
g48
(g69
g50
NtRp1962
(dp1963
g53
(dp1964
g73
g74
ssg62
g1958
sg55
(lp1965
S'url'
p1966
asbag48
(g69
g50
NtRp1967
(dp1968
g53
(dp1969
g80
g81
ssg62
g1958
sg55
(lp1970
S':'
asbag48
(g69
g50
NtRp1971
(dp1972
g53
(dp1973
sg62
g1958
sg55
(lp1974
g48
(g49
g50
NtRp1975
(dp1976
g53
(dp1977
g61
I5
ssg62
g1971
sg55
(lp1978
S'/Desglosar_Emails/default/entrada'
p1979
asbasbasbag48
(g64
g50
NtRp1980
(dp1981
g53
(dp1982
sg62
g58
sg55
(lp1983
g48
(g69
g50
NtRp1984
(dp1985
g53
(dp1986
g73
g74
ssg62
g1980
sg55
(lp1987
S'uuid'
p1988
asbag48
(g69
g50
NtRp1989
(dp1990
g53
(dp1991
g80
g81
ssg62
g1980
sg55
(lp1992
S':'
asbag48
(g69
g50
NtRp1993
(dp1994
g53
(dp1995
sg62
g1980
sg55
(lp1996
g48
(g49
g50
NtRp1997
(dp1998
g53
(dp1999
g61
I5
ssg62
g1993
sg55
(lp2000
S'Desglosar_Emails/127.0.0.1.2011-09-18.09-56-50.cb682a68-0b0a-4daa-97d3-667218fc7a2c'
p2001
asbasbasbag48
(g64
g50
NtRp2002
(dp2003
g53
(dp2004
sg62
g58
sg55
(lp2005
g48
(g69
g50
NtRp2006
(dp2007
g53
(dp2008
g73
g74
ssg62
g2002
sg55
(lp2009
S'vars'
p2010
asbag48
(g69
g50
NtRp2011
(dp2012
g53
(dp2013
g80
g81
ssg62
g2002
sg55
(lp2014
S':'
asbag48
(g69
g50
NtRp2015
(dp2016
g53
(dp2017
sg62
g2002
sg55
(lp2018
g48
(g49
g50
NtRp2019
(dp2020
g53
(dp2021
g61
I5
ssg62
g2015
sg55
(lp2022
g48
(g57
g50
NtRp2023
(dp2024
g53
(dp2025
g61
I4
ssg62
Nsg55
(lp2026
sbasbasbasbag48
(g64
g50
NtRp2027
(dp2028
g53
(dp2029
sg62
g58
sg55
(lp2030
g48
(g69
g50
NtRp2031
(dp2032
g53
(dp2033
g73
g74
ssg62
g2027
sg55
(lp2034
S'wsgi'
p2035
asbag48
(g69
g50
NtRp2036
(dp2037
g53
(dp2038
g80
g81
ssg62
g2027
sg55
(lp2039
S':'
asbag48
(g69
g50
NtRp2040
(dp2041
g53
(dp2042
sg62
g2027
sg55
(lp2043
g48
(g49
g50
NtRp2044
(dp2045
g53
(dp2046
g61
I5
ssg62
g2040
sg55
(lp2047
g48
(g57
g50
NtRp2048
(dp2049
g53
(dp2050
g61
I4
ssg62
Nsg55
(lp2051
g48
(g64
g50
NtRp2052
(dp2053
g53
(dp2054
sg62
g2048
sg55
(lp2055
g48
(g69
g50
NtRp2056
(dp2057
g53
(dp2058
g73
g74
ssg62
g2052
sg55
(lp2059
S'environ'
p2060
asbag48
(g69
g50
NtRp2061
(dp2062
g53
(dp2063
g80
g81
ssg62
g2052
sg55
(lp2064
S':'
asbag48
(g69
g50
NtRp2065
(dp2066
g53
(dp2067
sg62
g2052
sg55
(lp2068
g48
(g49
g50
NtRp2069
(dp2070
g53
(dp2071
g61
I4
ssg62
g2065
sg55
(lp2072
g48
(g57
g50
NtRp2073
(dp2074
g53
(dp2075
g61
I3
ssg62
Nsg55
(lp2076
g48
(g64
g50
NtRp2077
(dp2078
g53
(dp2079
sg62
g2073
sg55
(lp2080
g48
(g69
g50
NtRp2081
(dp2082
g53
(dp2083
g73
g74
ssg62
g2077
sg55
(lp2084
S'HTTP_ACCEPT'
p2085
asbag48
(g69
g50
NtRp2086
(dp2087
g53
(dp2088
g80
g81
ssg62
g2077
sg55
(lp2089
S':'
asbag48
(g69
g50
NtRp2090
(dp2091
g53
(dp2092
sg62
g2077
sg55
(lp2093
g48
(g49
g50
NtRp2094
(dp2095
g53
(dp2096
g61
I3
ssg62
g2090
sg55
(lp2097
g1098
asbasbasbag48
(g64
g50
NtRp2098
(dp2099
g53
(dp2100
sg62
g2073
sg55
(lp2101
g48
(g69
g50
NtRp2102
(dp2103
g53
(dp2104
g73
g74
ssg62
g2098
sg55
(lp2105
S'HTTP_ACCEPT_CHARSET'
p2106
asbag48
(g69
g50
NtRp2107
(dp2108
g53
(dp2109
g80
g81
ssg62
g2098
sg55
(lp2110
S':'
asbag48
(g69
g50
NtRp2111
(dp2112
g53
(dp2113
sg62
g2098
sg55
(lp2114
g48
(g49
g50
NtRp2115
(dp2116
g53
(dp2117
g61
I3
ssg62
g2111
sg55
(lp2118
g1120
asbasbasbag48
(g64
g50
NtRp2119
(dp2120
g53
(dp2121
sg62
g2073
sg55
(lp2122
g48
(g69
g50
NtRp2123
(dp2124
g53
(dp2125
g73
g74
ssg62
g2119
sg55
(lp2126
S'HTTP_ACCEPT_ENCODING'
p2127
asbag48
(g69
g50
NtRp2128
(dp2129
g53
(dp2130
g80
g81
ssg62
g2119
sg55
(lp2131
S':'
asbag48
(g69
g50
NtRp2132
(dp2133
g53
(dp2134
sg62
g2119
sg55
(lp2135
g48
(g49
g50
NtRp2136
(dp2137
g53
(dp2138
g61
I3
ssg62
g2132
sg55
(lp2139
g1142
asbasbasbag48
(g64
g50
NtRp2140
(dp2141
g53
(dp2142
sg62
g2073
sg55
(lp2143
g48
(g69
g50
NtRp2144
(dp2145
g53
(dp2146
g73
g74
ssg62
g2140
sg55
(lp2147
S'HTTP_ACCEPT_LANGUAGE'
p2148
asbag48
(g69
g50
NtRp2149
(dp2150
g53
(dp2151
g80
g81
ssg62
g2140
sg55
(lp2152
S':'
asbag48
(g69
g50
NtRp2153
(dp2154
g53
(dp2155
sg62
g2140
sg55
(lp2156
g48
(g49
g50
NtRp2157
(dp2158
g53
(dp2159
g61
I3
ssg62
g2153
sg55
(lp2160
g1164
asbasbasbag48
(g64
g50
NtRp2161
(dp2162
g53
(dp2163
sg62
g2073
sg55
(lp2164
g48
(g69
g50
NtRp2165
(dp2166
g53
(dp2167
g73
g74
ssg62
g2161
sg55
(lp2168
S'HTTP_CONNECTION'
p2169
asbag48
(g69
g50
NtRp2170
(dp2171
g53
(dp2172
g80
g81
ssg62
g2161
sg55
(lp2173
S':'
asbag48
(g69
g50
NtRp2174
(dp2175
g53
(dp2176
sg62
g2161
sg55
(lp2177
g48
(g49
g50
NtRp2178
(dp2179
g53
(dp2180
g61
I3
ssg62
g2174
sg55
(lp2181
g1186
asbasbasbag48
(g64
g50
NtRp2182
(dp2183
g53
(dp2184
sg62
g2073
sg55
(lp2185
g48
(g69
g50
NtRp2186
(dp2187
g53
(dp2188
g73
g74
ssg62
g2182
sg55
(lp2189
S'HTTP_COOKIE'
p2190
asbag48
(g69
g50
NtRp2191
(dp2192
g53
(dp2193
g80
g81
ssg62
g2182
sg55
(lp2194
S':'
asbag48
(g69
g50
NtRp2195
(dp2196
g53
(dp2197
sg62
g2182
sg55
(lp2198
g48
(g49
g50
NtRp2199
(dp2200
g53
(dp2201
g61
I3
ssg62
g2195
sg55
(lp2202
g1208
asbasbasbag48
(g64
g50
NtRp2203
(dp2204
g53
(dp2205
sg62
g2073
sg55
(lp2206
g48
(g69
g50
NtRp2207
(dp2208
g53
(dp2209
g73
g74
ssg62
g2203
sg55
(lp2210
S'HTTP_HOST'
p2211
asbag48
(g69
g50
NtRp2212
(dp2213
g53
(dp2214
g80
g81
ssg62
g2203
sg55
(lp2215
S':'
asbag48
(g69
g50
NtRp2216
(dp2217
g53
(dp2218
sg62
g2203
sg55
(lp2219
g48
(g49
g50
NtRp2220
(dp2221
g53
(dp2222
g61
I3
ssg62
g2216
sg55
(lp2223
g1230
asbasbasbag48
(g64
g50
NtRp2224
(dp2225
g53
(dp2226
sg62
g2073
sg55
(lp2227
g48
(g69
g50
NtRp2228
(dp2229
g53
(dp2230
g73
g74
ssg62
g2224
sg55
(lp2231
S'HTTP_USER_AGENT'
p2232
asbag48
(g69
g50
NtRp2233
(dp2234
g53
(dp2235
g80
g81
ssg62
g2224
sg55
(lp2236
S':'
asbag48
(g69
g50
NtRp2237
(dp2238
g53
(dp2239
sg62
g2224
sg55
(lp2240
g48
(g49
g50
NtRp2241
(dp2242
g53
(dp2243
g61
I3
ssg62
g2237
sg55
(lp2244
g1252
asbasbasbag48
(g64
g50
NtRp2245
(dp2246
g53
(dp2247
sg62
g2073
sg55
(lp2248
g48
(g69
g50
NtRp2249
(dp2250
g53
(dp2251
g73
g74
ssg62
g2245
sg55
(lp2252
S'PATH_INFO'
p2253
asbag48
(g69
g50
NtRp2254
(dp2255
g53
(dp2256
g80
g81
ssg62
g2245
sg55
(lp2257
S':'
asbag48
(g69
g50
NtRp2258
(dp2259
g53
(dp2260
sg62
g2245
sg55
(lp2261
g48
(g49
g50
NtRp2262
(dp2263
g53
(dp2264
g61
I3
ssg62
g2258
sg55
(lp2265
g1295
asbasbasbag48
(g64
g50
NtRp2266
(dp2267
g53
(dp2268
sg62
g2073
sg55
(lp2269
g48
(g69
g50
NtRp2270
(dp2271
g53
(dp2272
g73
g74
ssg62
g2266
sg55
(lp2273
S'QUERY_STRING'
p2274
asbag48
(g69
g50
NtRp2275
(dp2276
g53
(dp2277
g80
g81
ssg62
g2266
sg55
(lp2278
S':'
asbag48
(g69
g50
NtRp2279
(dp2280
g53
(dp2281
sg62
g2266
sg55
(lp2282
g48
(g49
g50
NtRp2283
(dp2284
g53
(dp2285
g61
I3
ssg62
g2279
sg55
(lp2286
S''
asbasbasbag48
(g64
g50
NtRp2287
(dp2288
g53
(dp2289
sg62
g2073
sg55
(lp2290
g48
(g69
g50
NtRp2291
(dp2292
g53
(dp2293
g73
g74
ssg62
g2287
sg55
(lp2294
S'REMOTE_ADDR'
p2295
asbag48
(g69
g50
NtRp2296
(dp2297
g53
(dp2298
g80
g81
ssg62
g2287
sg55
(lp2299
S':'
asbag48
(g69
g50
NtRp2300
(dp2301
g53
(dp2302
sg62
g2287
sg55
(lp2303
g48
(g49
g50
NtRp2304
(dp2305
g53
(dp2306
g61
I3
ssg62
g2300
sg55
(lp2307
g181
asbasbasbag48
(g64
g50
NtRp2308
(dp2309
g53
(dp2310
sg62
g2073
sg55
(lp2311
g48
(g69
g50
NtRp2312
(dp2313
g53
(dp2314
g73
g74
ssg62
g2308
sg55
(lp2315
S'REMOTE_PORT'
p2316
asbag48
(g69
g50
NtRp2317
(dp2318
g53
(dp2319
g80
g81
ssg62
g2308
sg55
(lp2320
S':'
asbag48
(g69
g50
NtRp2321
(dp2322
g53
(dp2323
sg62
g2308
sg55
(lp2324
g48
(g49
g50
NtRp2325
(dp2326
g53
(dp2327
g61
I3
ssg62
g2321
sg55
(lp2328
g1359
asbasbasbag48
(g64
g50
NtRp2329
(dp2330
g53
(dp2331
sg62
g2073
sg55
(lp2332
g48
(g69
g50
NtRp2333
(dp2334
g53
(dp2335
g73
g74
ssg62
g2329
sg55
(lp2336
S'REQUEST_METHOD'
p2337
asbag48
(g69
g50
NtRp2338
(dp2339
g53
(dp2340
g80
g81
ssg62
g2329
sg55
(lp2341
S':'
asbag48
(g69
g50
NtRp2342
(dp2343
g53
(dp2344
sg62
g2329
sg55
(lp2345
g48
(g49
g50
NtRp2346
(dp2347
g53
(dp2348
g61
I3
ssg62
g2342
sg55
(lp2349
g1381
asbasbasbag48
(g64
g50
NtRp2350
(dp2351
g53
(dp2352
sg62
g2073
sg55
(lp2353
g48
(g69
g50
NtRp2354
(dp2355
g53
(dp2356
g73
g74
ssg62
g2350
sg55
(lp2357
S'SCRIPT_NAME'
p2358
asbag48
(g69
g50
NtRp2359
(dp2360
g53
(dp2361
g80
g81
ssg62
g2350
sg55
(lp2362
S':'
asbag48
(g69
g50
NtRp2363
(dp2364
g53
(dp2365
sg62
g2350
sg55
(lp2366
g48
(g49
g50
NtRp2367
(dp2368
g53
(dp2369
g61
I3
ssg62
g2363
sg55
(lp2370
S''
asbasbasbag48
(g64
g50
NtRp2371
(dp2372
g53
(dp2373
sg62
g2073
sg55
(lp2374
g48
(g69
g50
NtRp2375
(dp2376
g53
(dp2377
g73
g74
ssg62
g2371
sg55
(lp2378
S'SERVER_NAME'
p2379
asbag48
(g69
g50
NtRp2380
(dp2381
g53
(dp2382
g80
g81
ssg62
g2371
sg55
(lp2383
S':'
asbag48
(g69
g50
NtRp2384
(dp2385
g53
(dp2386
sg62
g2371
sg55
(lp2387
g48
(g49
g50
NtRp2388
(dp2389
g53
(dp2390
g61
I3
ssg62
g2384
sg55
(lp2391
g1424
asbasbasbag48
(g64
g50
NtRp2392
(dp2393
g53
(dp2394
sg62
g2073
sg55
(lp2395
g48
(g69
g50
NtRp2396
(dp2397
g53
(dp2398
g73
g74
ssg62
g2392
sg55
(lp2399
S'SERVER_PORT'
p2400
asbag48
(g69
g50
NtRp2401
(dp2402
g53
(dp2403
g80
g81
ssg62
g2392
sg55
(lp2404
S':'
asbag48
(g69
g50
NtRp2405
(dp2406
g53
(dp2407
sg62
g2392
sg55
(lp2408
g48
(g49
g50
NtRp2409
(dp2410
g53
(dp2411
g61
I3
ssg62
g2405
sg55
(lp2412
g1446
asbasbasbag48
(g64
g50
NtRp2413
(dp2414
g53
(dp2415
sg62
g2073
sg55
(lp2416
g48
(g69
g50
NtRp2417
(dp2418
g53
(dp2419
g73
g74
ssg62
g2413
sg55
(lp2420
S'SERVER_PROTOCOL'
p2421
asbag48
(g69
g50
NtRp2422
(dp2423
g53
(dp2424
g80
g81
ssg62
g2413
sg55
(lp2425
S':'
asbag48
(g69
g50
NtRp2426
(dp2427
g53
(dp2428
sg62
g2413
sg55
(lp2429
g48
(g49
g50
NtRp2430
(dp2431
g53
(dp2432
g61
I3
ssg62
g2426
sg55
(lp2433
g1468
asbasbasbag48
(g64
g50
NtRp2434
(dp2435
g53
(dp2436
sg62
g2073
sg55
(lp2437
g48
(g69
g50
NtRp2438
(dp2439
g53
(dp2440
g73
g74
ssg62
g2434
sg55
(lp2441
S'SERVER_SOFTWARE'
p2442
asbag48
(g69
g50
NtRp2443
(dp2444
g53
(dp2445
g80
g81
ssg62
g2434
sg55
(lp2446
S':'
asbag48
(g69
g50
NtRp2447
(dp2448
g53
(dp2449
sg62
g2434
sg55
(lp2450
g48
(g49
g50
NtRp2451
(dp2452
g53
(dp2453
g61
I3
ssg62
g2447
sg55
(lp2454
g1490
asbasbasbag48
(g64
g50
NtRp2455
(dp2456
g53
(dp2457
sg62
g2073
sg55
(lp2458
g48
(g69
g50
NtRp2459
(dp2460
g53
(dp2461
g73
g74
ssg62
g2455
sg55
(lp2462
S'wsgi.errors'
p2463
asbag48
(g69
g50
NtRp2464
(dp2465
g53
(dp2466
g80
g81
ssg62
g2455
sg55
(lp2467
S':'
asbag48
(g69
g50
NtRp2468
(dp2469
g53
(dp2470
sg62
g2455
sg55
(lp2471
g48
(g49
g50
NtRp2472
(dp2473
g53
(dp2474
g61
I3
ssg62
g2468
sg55
(lp2475
S"<open file '<stderr>', mode 'w' at 0x01F500B0>"
p2476
asbasbasbag48
(g64
g50
NtRp2477
(dp2478
g53
(dp2479
sg62
g2073
sg55
(lp2480
g48
(g69
g50
NtRp2481
(dp2482
g53
(dp2483
g73
g74
ssg62
g2477
sg55
(lp2484
S'wsgi.file_wrapper'
p2485
asbag48
(g69
g50
NtRp2486
(dp2487
g53
(dp2488
g80
g81
ssg62
g2477
sg55
(lp2489
S':'
asbag48
(g69
g50
NtRp2490
(dp2491
g53
(dp2492
sg62
g2477
sg55
(lp2493
g48
(g49
g50
NtRp2494
(dp2495
g53
(dp2496
g61
I3
ssg62
g2490
sg55
(lp2497
S'<class gluon.rocket.FileWrapper at 0x0308C1B0>'
p2498
asbasbasbag48
(g64
g50
NtRp2499
(dp2500
g53
(dp2501
sg62
g2073
sg55
(lp2502
g48
(g69
g50
NtRp2503
(dp2504
g53
(dp2505
g73
g74
ssg62
g2499
sg55
(lp2506
S'wsgi.input'
p2507
asbag48
(g69
g50
NtRp2508
(dp2509
g53
(dp2510
g80
g81
ssg62
g2499
sg55
(lp2511
S':'
asbag48
(g69
g50
NtRp2512
(dp2513
g53
(dp2514
sg62
g2499
sg55
(lp2515
g48
(g49
g50
NtRp2516
(dp2517
g53
(dp2518
g61
I3
ssg62
g2512
sg55
(lp2519
S'<cStringIO.StringO object at 0x079D62E0>'
p2520
asbasbasbag48
(g64
g50
NtRp2521
(dp2522
g53
(dp2523
sg62
g2073
sg55
(lp2524
g48
(g69
g50
NtRp2525
(dp2526
g53
(dp2527
g73
g74
ssg62
g2521
sg55
(lp2528
S'wsgi.multiprocess'
p2529
asbag48
(g69
g50
NtRp2530
(dp2531
g53
(dp2532
g80
g81
ssg62
g2521
sg55
(lp2533
S':'
asbag48
(g69
g50
NtRp2534
(dp2535
g53
(dp2536
sg62
g2521
sg55
(lp2537
g48
(g49
g50
NtRp2538
(dp2539
g53
(dp2540
g61
I3
ssg62
g2534
sg55
(lp2541
g91
asbasbasbag48
(g64
g50
NtRp2542
(dp2543
g53
(dp2544
sg62
g2073
sg55
(lp2545
g48
(g69
g50
NtRp2546
(dp2547
g53
(dp2548
g73
g74
ssg62
g2542
sg55
(lp2549
S'wsgi.multithread'
p2550
asbag48
(g69
g50
NtRp2551
(dp2552
g53
(dp2553
g80
g81
ssg62
g2542
sg55
(lp2554
S':'
asbag48
(g69
g50
NtRp2555
(dp2556
g53
(dp2557
sg62
g2542
sg55
(lp2558
g48
(g49
g50
NtRp2559
(dp2560
g53
(dp2561
g61
I3
ssg62
g2555
sg55
(lp2562
g1664
asbasbasbag48
(g64
g50
NtRp2563
(dp2564
g53
(dp2565
sg62
g2073
sg55
(lp2566
g48
(g69
g50
NtRp2567
(dp2568
g53
(dp2569
g73
g74
ssg62
g2563
sg55
(lp2570
S'wsgi.run_once'
p2571
asbag48
(g69
g50
NtRp2572
(dp2573
g53
(dp2574
g80
g81
ssg62
g2563
sg55
(lp2575
S':'
asbag48
(g69
g50
NtRp2576
(dp2577
g53
(dp2578
sg62
g2563
sg55
(lp2579
g48
(g49
g50
NtRp2580
(dp2581
g53
(dp2582
g61
I3
ssg62
g2576
sg55
(lp2583
g91
asbasbasbag48
(g64
g50
NtRp2584
(dp2585
g53
(dp2586
sg62
g2073
sg55
(lp2587
g48
(g69
g50
NtRp2588
(dp2589
g53
(dp2590
g73
g74
ssg62
g2584
sg55
(lp2591
S'wsgi.url_scheme'
p2592
asbag48
(g69
g50
NtRp2593
(dp2594
g53
(dp2595
g80
g81
ssg62
g2584
sg55
(lp2596
S':'
asbag48
(g69
g50
NtRp2597
(dp2598
g53
(dp2599
sg62
g2584
sg55
(lp2600
g48
(g49
g50
NtRp2601
(dp2602
g53
(dp2603
g61
I3
ssg62
g2597
sg55
(lp2604
g1707
asbasbasbag48
(g64
g50
NtRp2605
(dp2606
g53
(dp2607
sg62
g2073
sg55
(lp2608
g48
(g69
g50
NtRp2609
(dp2610
g53
(dp2611
g73
g74
ssg62
g2605
sg55
(lp2612
S'wsgi.version'
p2613
asbag48
(g69
g50
NtRp2614
(dp2615
g53
(dp2616
g80
g81
ssg62
g2605
sg55
(lp2617
S':'
asbag48
(g69
g50
NtRp2618
(dp2619
g53
(dp2620
sg62
g2605
sg55
(lp2621
g48
(g49
g50
NtRp2622
(dp2623
g53
(dp2624
g61
I3
ssg62
g2618
sg55
(lp2625
S'1'
asbasbasbasbasbasbasbasbasbasbasbasbasbsS'frames'
p2626
(lp2627
(dp2628
S'file'
p2629
S'C:\\Users\\Atomico\\web2py\\gluon\\restricted.py'
p2630
sS'dump'
p2631
(dp2632
sS'lnum'
p2633
I192
sS'lines'
p2634
(dp2635
sS'call'
p2636
S"(code='def entrada():\\n    form=SQLFORM(db.info)\\n    if ...=form)\\n\\nresponse._vars=response._caller(entrada)\\n', environment={'A': <class 'gluon.html.A'>, 'B': <class 'gluon.html.B'>, 'BEAUTIFY': <class 'gluon.html.BEAUTIFY'>, 'BODY': <class 'gluon.html.BODY'>, 'BR': <class 'gluon.html.BR'>, 'BUTTON': <class 'gluon.html.BUTTON'>, 'CAT': <class 'gluon.html.CAT'>, 'CENTER': <class 'gluon.html.CENTER'>, 'CLEANUP': <class 'gluon.validators.CLEANUP'>, 'CODE': <class 'gluon.html.CODE'>, ...}, layer=r'C:\\Users\\Atomico\\web2py\\applications\\Desglosar_Emails\\controllers/default.py')"
p2637
sS'func'
p2638
S'restricted'
p2639
sa(dp2640
g2629
S'C:\\Users\\Atomico\\web2py\\applications\\Desglosar_Emails\\controllers\\default.py'
p2641
sg2631
(dp2642
sg2633
I15
sg2634
(dp2643
I4
S''
sI5
S''
sI6
S'    response.write(db.info[1].texto[3])'
p2644
sI7
S"    response.write('claro')"
p2645
sI8
S'    response.write(db.info[1].texto.length)'
p2646
sI9
S''
sI10
S''
sI11
S''
sI12
S''
sI13
S'    return dict(form=form)'
p2647
ssg2636
S'()'
p2648
sg2638
S'<module>'
p2649
sa(dp2650
g2629
S'C:\\Users\\Atomico\\web2py\\gluon\\globals.py'
p2651
sg2631
(dp2652
sg2633
I145
sg2634
(dp2653
sg2636
S'(f=<function entrada at 0x074C8930>)'
p2654
sg2638
S'<lambda>'
p2655
sa(dp2656
g2629
S'C:\\Users\\Atomico\\web2py\\applications\\Desglosar_Emails\\controllers\\default.py'
p2657
sg2631
(dp2658
sg2633
I8
sg2634
(dp2659
I3
S'    if form.accepts(request.vars,session): pass'
p2660
sI4
S''
sI5
S''
sI6
S'    response.write(db.info[1].texto[3])'
p2661
sI7
S"    response.write('claro')"
p2662
sI8
S'    response.write(db.info[1].texto.length)'
p2663
sI9
S''
sI10
S''
sI11
S''
sI12
S''
ssg2636
S'()'
p2664
sg2638
S'entrada'
p2665
sasS'pyver'
p2666
S'Python 2.5.4: C:\\Users\\Atomico\\web2py\\web2py.exe'
p2667
sS'session'
p2668
g48
(g49
g50
NtRp2669
(dp2670
g53
(dp2671
sg55
(lp2672
g48
(g57
g50
NtRp2673
(dp2674
g53
(dp2675
g61
I5
ssg62
Nsg55
(lp2676
g48
(g64
g50
NtRp2677
(dp2678
g53
(dp2679
sg62
g2673
sg55
(lp2680
g48
(g69
g50
NtRp2681
(dp2682
g53
(dp2683
g73
g74
ssg62
g2677
sg55
(lp2684
S'last_query'
p2685
asbag48
(g69
g50
NtRp2686
(dp2687
g53
(dp2688
g80
g81
ssg62
g2677
sg55
(lp2689
S':'
asbag48
(g69
g50
NtRp2690
(dp2691
g53
(dp2692
sg62
g2677
sg55
(lp2693
g48
(g49
g50
NtRp2694
(dp2695
g53
(dp2696
g61
I5
ssg62
g2690
sg55
(lp2697
S'db.info.id>0'
p2698
asbasbasbasbasbsS'etype'
p2699
S"<type 'exceptions.AttributeError'>"
p2700
sS'date'
p2701
S'Sun Sep 18 09:56:51 2011'
p2702
sS'response'
p2703
g48
(g49
g50
NtRp2704
(dp2705
g53
(dp2706
sg55
(lp2707
g48
(g57
g50
NtRp2708
(dp2709
g53
(dp2710
g61
I5
ssg62
Nsg55
(lp2711
g48
(g64
g50
NtRp2712
(dp2713
g53
(dp2714
sg62
g2708
sg55
(lp2715
g48
(g69
g50
NtRp2716
(dp2717
g53
(dp2718
g73
g74
ssg62
g2712
sg55
(lp2719
g146
asbag48
(g69
g50
NtRp2720
(dp2721
g53
(dp2722
g80
g81
ssg62
g2712
sg55
(lp2723
S':'
asbag48
(g69
g50
NtRp2724
(dp2725
g53
(dp2726
sg62
g2712
sg55
(lp2727
g48
(g49
g50
NtRp2728
(dp2729
g53
(dp2730
g61
I5
ssg62
g2724
sg55
(lp2731
S'<cStringIO.StringO object at 0x07B22DE0>'
p2732
asbasbasbag48
(g64
g50
NtRp2733
(dp2734
g53
(dp2735
sg62
g2708
sg55
(lp2736
g48
(g69
g50
NtRp2737
(dp2738
g53
(dp2739
g73
g74
ssg62
g2733
sg55
(lp2740
g212
asbag48
(g69
g50
NtRp2741
(dp2742
g53
(dp2743
g80
g81
ssg62
g2733
sg55
(lp2744
S':'
asbag48
(g69
g50
NtRp2745
(dp2746
g53
(dp2747
sg62
g2733
sg55
(lp2748
g48
(g49
g50
NtRp2749
(dp2750
g53
(dp2751
g61
I5
ssg62
g2745
sg55
(lp2752
g48
(g57
g50
NtRp2753
(dp2754
g53
(dp2755
g61
I4
ssg62
Nsg55
(lp2756
g48
(g64
g50
NtRp2757
(dp2758
g53
(dp2759
sg62
g2753
sg55
(lp2760
g48
(g69
g50
NtRp2761
(dp2762
g53
(dp2763
g73
g74
ssg62
g2757
sg55
(lp2764
S'session_id_desglosar_emails'
p2765
asbag48
(g69
g50
NtRp2766
(dp2767
g53
(dp2768
g80
g81
ssg62
g2757
sg55
(lp2769
S':'
asbag48
(g69
g50
NtRp2770
(dp2771
g53
(dp2772
sg62
g2757
sg55
(lp2773
g48
(g49
g50
NtRp2774
(dp2775
g53
(dp2776
g61
I4
ssg62
g2770
sg55
(lp2777
g48
(g57
g50
NtRp2778
(dp2779
g53
(dp2780
g61
I3
ssg62
Nsg55
(lp2781
g48
(g64
g50
NtRp2782
(dp2783
g53
(dp2784
sg62
g2778
sg55
(lp2785
g48
(g69
g50
NtRp2786
(dp2787
g53
(dp2788
g73
g74
ssg62
g2782
sg55
(lp2789
g262
asbag48
(g69
g50
NtRp2790
(dp2791
g53
(dp2792
g80
g81
ssg62
g2782
sg55
(lp2793
S':'
asbag48
(g69
g50
NtRp2794
(dp2795
g53
(dp2796
sg62
g2782
sg55
(lp2797
g48
(g49
g50
NtRp2798
(dp2799
g53
(dp2800
g61
I3
ssg62
g2794
sg55
(lp2801
S''
asbasbasbag48
(g64
g50
NtRp2802
(dp2803
g53
(dp2804
sg62
g2778
sg55
(lp2805
g48
(g69
g50
NtRp2806
(dp2807
g53
(dp2808
g73
g74
ssg62
g2802
sg55
(lp2809
g283
asbag48
(g69
g50
NtRp2810
(dp2811
g53
(dp2812
g80
g81
ssg62
g2802
sg55
(lp2813
S':'
asbag48
(g69
g50
NtRp2814
(dp2815
g53
(dp2816
sg62
g2802
sg55
(lp2817
g48
(g49
g50
NtRp2818
(dp2819
g53
(dp2820
g61
I3
ssg62
g2814
sg55
(lp2821
S''
asbasbasbag48
(g64
g50
NtRp2822
(dp2823
g53
(dp2824
sg62
g2778
sg55
(lp2825
g48
(g69
g50
NtRp2826
(dp2827
g53
(dp2828
g73
g74
ssg62
g2822
sg55
(lp2829
g304
asbag48
(g69
g50
NtRp2830
(dp2831
g53
(dp2832
g80
g81
ssg62
g2822
sg55
(lp2833
S':'
asbag48
(g69
g50
NtRp2834
(dp2835
g53
(dp2836
sg62
g2822
sg55
(lp2837
g48
(g49
g50
NtRp2838
(dp2839
g53
(dp2840
g61
I3
ssg62
g2834
sg55
(lp2841
S''
asbasbasbag48
(g64
g50
NtRp2842
(dp2843
g53
(dp2844
sg62
g2778
sg55
(lp2845
g48
(g69
g50
NtRp2846
(dp2847
g53
(dp2848
g73
g74
ssg62
g2842
sg55
(lp2849
g325
asbag48
(g69
g50
NtRp2850
(dp2851
g53
(dp2852
g80
g81
ssg62
g2842
sg55
(lp2853
S':'
asbag48
(g69
g50
NtRp2854
(dp2855
g53
(dp2856
sg62
g2842
sg55
(lp2857
g48
(g49
g50
NtRp2858
(dp2859
g53
(dp2860
g61
I3
ssg62
g2854
sg55
(lp2861
S''
asbasbasbag48
(g64
g50
NtRp2862
(dp2863
g53
(dp2864
sg62
g2778
sg55
(lp2865
g48
(g69
g50
NtRp2866
(dp2867
g53
(dp2868
g73
g74
ssg62
g2862
sg55
(lp2869
g346
asbag48
(g69
g50
NtRp2870
(dp2871
g53
(dp2872
g80
g81
ssg62
g2862
sg55
(lp2873
S':'
asbag48
(g69
g50
NtRp2874
(dp2875
g53
(dp2876
sg62
g2862
sg55
(lp2877
g48
(g49
g50
NtRp2878
(dp2879
g53
(dp2880
g61
I3
ssg62
g2874
sg55
(lp2881
S'/'
asbasbasbag48
(g64
g50
NtRp2882
(dp2883
g53
(dp2884
sg62
g2778
sg55
(lp2885
g48
(g69
g50
NtRp2886
(dp2887
g53
(dp2888
g73
g74
ssg62
g2882
sg55
(lp2889
g367
asbag48
(g69
g50
NtRp2890
(dp2891
g53
(dp2892
g80
g81
ssg62
g2882
sg55
(lp2893
S':'
asbag48
(g69
g50
NtRp2894
(dp2895
g53
(dp2896
sg62
g2882
sg55
(lp2897
g48
(g49
g50
NtRp2898
(dp2899
g53
(dp2900
g61
I3
ssg62
g2894
sg55
(lp2901
S''
asbasbasbag48
(g64
g50
NtRp2902
(dp2903
g53
(dp2904
sg62
g2778
sg55
(lp2905
g48
(g69
g50
NtRp2906
(dp2907
g53
(dp2908
g73
g74
ssg62
g2902
sg55
(lp2909
g388
asbag48
(g69
g50
NtRp2910
(dp2911
g53
(dp2912
g80
g81
ssg62
g2902
sg55
(lp2913
S':'
asbag48
(g69
g50
NtRp2914
(dp2915
g53
(dp2916
sg62
g2902
sg55
(lp2917
g48
(g49
g50
NtRp2918
(dp2919
g53
(dp2920
g61
I3
ssg62
g2914
sg55
(lp2921
S''
asbasbasbasbasbasbasbasbasbasbasbag48
(g64
g50
NtRp2922
(dp2923
g53
(dp2924
sg62
g2708
sg55
(lp2925
g48
(g69
g50
NtRp2926
(dp2927
g53
(dp2928
g73
g74
ssg62
g2922
sg55
(lp2929
S'files'
p2930
asbag48
(g69
g50
NtRp2931
(dp2932
g53
(dp2933
g80
g81
ssg62
g2922
sg55
(lp2934
S':'
asbag48
(g69
g50
NtRp2935
(dp2936
g53
(dp2937
sg62
g2922
sg55
(lp2938
g48
(g49
g50
NtRp2939
(dp2940
g53
(dp2941
g61
I5
ssg62
g2935
sg55
(lp2942
g48
(g57
g50
NtRp2943
(dp2944
g53
(dp2945
g61
I4
ssg62
Nsg55
(lp2946
sbasbasbasbag48
(g64
g50
NtRp2947
(dp2948
g53
(dp2949
sg62
g2708
sg55
(lp2950
g48
(g69
g50
NtRp2951
(dp2952
g53
(dp2953
g73
g74
ssg62
g2947
sg55
(lp2954
S'flash'
p2955
asbag48
(g69
g50
NtRp2956
(dp2957
g53
(dp2958
g80
g81
ssg62
g2947
sg55
(lp2959
S':'
asbag48
(g69
g50
NtRp2960
(dp2961
g53
(dp2962
sg62
g2947
sg55
(lp2963
g48
(g49
g50
NtRp2964
(dp2965
g53
(dp2966
g61
I5
ssg62
g2960
sg55
(lp2967
S''
asbasbasbag48
(g64
g50
NtRp2968
(dp2969
g53
(dp2970
sg62
g2708
sg55
(lp2971
g48
(g69
g50
NtRp2972
(dp2973
g53
(dp2974
g73
g74
ssg62
g2968
sg55
(lp2975
S'generic_patterns'
p2976
asbag48
(g69
g50
NtRp2977
(dp2978
g53
(dp2979
g80
g81
ssg62
g2968
sg55
(lp2980
S':'
asbag48
(g69
g50
NtRp2981
(dp2982
g53
(dp2983
sg62
g2968
sg55
(lp2984
g48
(g49
g50
NtRp2985
(dp2986
g53
(dp2987
g61
I5
ssg62
g2981
sg55
(lp2988
g48
(g57
g50
NtRp2989
(dp2990
g53
(dp2991
g61
I4
ssg62
Nsg55
(lp2992
sbasbasbasbag48
(g64
g50
NtRp2993
(dp2994
g53
(dp2995
sg62
g2708
sg55
(lp2996
g48
(g69
g50
NtRp2997
(dp2998
g53
(dp2999
g73
g74
ssg62
g2993
sg55
(lp3000
S'headers'
p3001
asbag48
(g69
g50
NtRp3002
(dp3003
g53
(dp3004
g80
g81
ssg62
g2993
sg55
(lp3005
S':'
asbag48
(g69
g50
NtRp3006
(dp3007
g53
(dp3008
sg62
g2993
sg55
(lp3009
g48
(g49
g50
NtRp3010
(dp3011
g53
(dp3012
g61
I5
ssg62
g3006
sg55
(lp3013
g48
(g57
g50
NtRp3014
(dp3015
g53
(dp3016
g61
I4
ssg62
Nsg55
(lp3017
g48
(g64
g50
NtRp3018
(dp3019
g53
(dp3020
sg62
g3014
sg55
(lp3021
g48
(g69
g50
NtRp3022
(dp3023
g53
(dp3024
g73
g74
ssg62
g3018
sg55
(lp3025
S'Cache-Control'
p3026
asbag48
(g69
g50
NtRp3027
(dp3028
g53
(dp3029
g80
g81
ssg62
g3018
sg55
(lp3030
S':'
asbag48
(g69
g50
NtRp3031
(dp3032
g53
(dp3033
sg62
g3018
sg55
(lp3034
g48
(g49
g50
NtRp3035
(dp3036
g53
(dp3037
g61
I4
ssg62
g3031
sg55
(lp3038
S'no-store, no-cache, must-revalidate, post-check=0, pre-check=0'
p3039
asbasbasbag48
(g64
g50
NtRp3040
(dp3041
g53
(dp3042
sg62
g3014
sg55
(lp3043
g48
(g69
g50
NtRp3044
(dp3045
g53
(dp3046
g73
g74
ssg62
g3040
sg55
(lp3047
S'Content-Type'
p3048
asbag48
(g69
g50
NtRp3049
(dp3050
g53
(dp3051
g80
g81
ssg62
g3040
sg55
(lp3052
S':'
asbag48
(g69
g50
NtRp3053
(dp3054
g53
(dp3055
sg62
g3040
sg55
(lp3056
g48
(g49
g50
NtRp3057
(dp3058
g53
(dp3059
g61
I4
ssg62
g3053
sg55
(lp3060
S'text/html; charset=utf-8'
p3061
asbasbasbag48
(g64
g50
NtRp3062
(dp3063
g53
(dp3064
sg62
g3014
sg55
(lp3065
g48
(g69
g50
NtRp3066
(dp3067
g53
(dp3068
g73
g74
ssg62
g3062
sg55
(lp3069
S'Expires'
p3070
asbag48
(g69
g50
NtRp3071
(dp3072
g53
(dp3073
g80
g81
ssg62
g3062
sg55
(lp3074
S':'
asbag48
(g69
g50
NtRp3075
(dp3076
g53
(dp3077
sg62
g3062
sg55
(lp3078
g48
(g49
g50
NtRp3079
(dp3080
g53
(dp3081
g61
I4
ssg62
g3075
sg55
(lp3082
S'Sun, 18 Sep 2011 07:56:50 GMT'
p3083
asbasbasbag48
(g64
g50
NtRp3084
(dp3085
g53
(dp3086
sg62
g3014
sg55
(lp3087
g48
(g69
g50
NtRp3088
(dp3089
g53
(dp3090
g73
g74
ssg62
g3084
sg55
(lp3091
S'Pragma'
p3092
asbag48
(g69
g50
NtRp3093
(dp3094
g53
(dp3095
g80
g81
ssg62
g3084
sg55
(lp3096
S':'
asbag48
(g69
g50
NtRp3097
(dp3098
g53
(dp3099
sg62
g3084
sg55
(lp3100
g48
(g49
g50
NtRp3101
(dp3102
g53
(dp3103
g61
I4
ssg62
g3097
sg55
(lp3104
S'no-cache'
p3105
asbasbasbag48
(g64
g50
NtRp3106
(dp3107
g53
(dp3108
sg62
g3014
sg55
(lp3109
g48
(g69
g50
NtRp3110
(dp3111
g53
(dp3112
g73
g74
ssg62
g3106
sg55
(lp3113
S'X-Powered-By'
p3114
asbag48
(g69
g50
NtRp3115
(dp3116
g53
(dp3117
g80
g81
ssg62
g3106
sg55
(lp3118
S':'
asbag48
(g69
g50
NtRp3119
(dp3120
g53
(dp3121
sg62
g3106
sg55
(lp3122
g48
(g49
g50
NtRp3123
(dp3124
g53
(dp3125
g61
I4
ssg62
g3119
sg55
(lp3126
S'web2py'
p3127
asbasbasbasbasbasbasbag48
(g64
g50
NtRp3128
(dp3129
g53
(dp3130
sg62
g2708
sg55
(lp3131
g48
(g69
g50
NtRp3132
(dp3133
g53
(dp3134
g73
g74
ssg62
g3128
sg55
(lp3135
S'menu'
p3136
asbag48
(g69
g50
NtRp3137
(dp3138
g53
(dp3139
g80
g81
ssg62
g3128
sg55
(lp3140
S':'
asbag48
(g69
g50
NtRp3141
(dp3142
g53
(dp3143
sg62
g3128
sg55
(lp3144
g48
(g49
g50
NtRp3145
(dp3146
g53
(dp3147
g61
I5
ssg62
g3141
sg55
(lp3148
g48
(g57
g50
NtRp3149
(dp3150
g53
(dp3151
g61
I4
ssg62
Nsg55
(lp3152
g48
(g64
g50
NtRp3153
(dp3154
g53
(dp3155
sg62
g3149
sg55
(lp3156
g48
(g69
g50
NtRp3157
(dp3158
g53
(dp3159
sg62
g3153
sg55
(lp3160
g48
(g49
g50
NtRp3161
(dp3162
g53
(dp3163
g61
I4
ssg62
g3157
sg55
(lp3164
g48
(g57
g50
NtRp3165
(dp3166
g53
(dp3167
g61
I3
ssg62
Nsg55
(lp3168
g48
(g64
g50
NtRp3169
(dp3170
g53
(dp3171
sg62
g3165
sg55
(lp3172
g48
(g69
g50
NtRp3173
(dp3174
g53
(dp3175
sg62
g3169
sg55
(lp3176
g48
(g49
g50
NtRp3177
(dp3178
g53
(dp3179
g61
I3
ssg62
g3173
sg55
(lp3180
cgluon.languages
lazyT_unpickle
p3181
(S't\x04\x00\x00\x00Home'
tRp3182
asbasbasbag48
(g64
g50
NtRp3183
(dp3184
g53
(dp3185
sg62
g3165
sg55
(lp3186
g48
(g69
g50
NtRp3187
(dp3188
g53
(dp3189
sg62
g3183
sg55
(lp3190
g48
(g49
g50
NtRp3191
(dp3192
g53
(dp3193
g61
I3
ssg62
g3187
sg55
(lp3194
g91
asbasbasbag48
(g64
g50
NtRp3195
(dp3196
g53
(dp3197
sg62
g3165
sg55
(lp3198
g48
(g69
g50
NtRp3199
(dp3200
g53
(dp3201
sg62
g3195
sg55
(lp3202
g48
(g49
g50
NtRp3203
(dp3204
g53
(dp3205
g61
I3
ssg62
g3199
sg55
(lp3206
S'/Desglosar_Emails/default/index'
p3207
asbasbasbag48
(g64
g50
NtRp3208
(dp3209
g53
(dp3210
sg62
g3165
sg55
(lp3211
g48
(g69
g50
NtRp3212
(dp3213
g53
(dp3214
sg62
g3208
sg55
(lp3215
g48
(g49
g50
NtRp3216
(dp3217
g53
(dp3218
g61
I3
ssg62
g3212
sg55
(lp3219
g48
(g57
g50
NtRp3220
(dp3221
g53
(dp3222
g61
I2
ssg62
Nsg55
(lp3223
sbasbasbasbasbasbasbasbag48
(g64
g50
NtRp3224
(dp3225
g53
(dp3226
sg62
g3149
sg55
(lp3227
g48
(g69
g50
NtRp3228
(dp3229
g53
(dp3230
sg62
g3224
sg55
(lp3231
g48
(g49
g50
NtRp3232
(dp3233
g53
(dp3234
g61
I4
ssg62
g3228
sg55
(lp3235
g48
(g57
g50
NtRp3236
(dp3237
g53
(dp3238
g61
I3
ssg62
Nsg55
(lp3239
g48
(g64
g50
NtRp3240
(dp3241
g53
(dp3242
sg62
g3236
sg55
(lp3243
g48
(g69
g50
NtRp3244
(dp3245
g53
(dp3246
sg62
g3240
sg55
(lp3247
g48
(g49
g50
NtRp3248
(dp3249
g53
(dp3250
g61
I3
ssg62
g3244
sg55
(lp3251
g3181
(S's\x08\x00\x00\x00This App'
tRp3252
asbasbasbag48
(g64
g50
NtRp3253
(dp3254
g53
(dp3255
sg62
g3236
sg55
(lp3256
g48
(g69
g50
NtRp3257
(dp3258
g53
(dp3259
sg62
g3253
sg55
(lp3260
g48
(g49
g50
NtRp3261
(dp3262
g53
(dp3263
g61
I3
ssg62
g3257
sg55
(lp3264
g91
asbasbasbag48
(g64
g50
NtRp3265
(dp3266
g53
(dp3267
sg62
g3236
sg55
(lp3268
g48
(g69
g50
NtRp3269
(dp3270
g53
(dp3271
sg62
g3265
sg55
(lp3272
g48
(g49
g50
NtRp3273
(dp3274
g53
(dp3275
g61
I3
ssg62
g3269
sg55
(lp3276
S'/admin/default/design/Desglosar_Emails'
p3277
asbasbasbag48
(g64
g50
NtRp3278
(dp3279
g53
(dp3280
sg62
g3236
sg55
(lp3281
g48
(g69
g50
NtRp3282
(dp3283
g53
(dp3284
sg62
g3278
sg55
(lp3285
g48
(g49
g50
NtRp3286
(dp3287
g53
(dp3288
g61
I3
ssg62
g3282
sg55
(lp3289
g48
(g57
g50
NtRp3290
(dp3291
g53
(dp3292
g61
I2
ssg62
Nsg55
(lp3293
g48
(g64
g50
NtRp3294
(dp3295
g53
(dp3296
sg62
g3290
sg55
(lp3297
g48
(g69
g50
NtRp3298
(dp3299
g53
(dp3300
sg62
g3294
sg55
(lp3301
g48
(g49
g50
NtRp3302
(dp3303
g53
(dp3304
g61
I2
ssg62
g3298
sg55
(lp3305
g48
(g57
g50
NtRp3306
(dp3307
g53
(dp3308
g61
I1
ssg62
Nsg55
(lp3309
g48
(g64
g50
NtRp3310
(dp3311
g53
(dp3312
sg62
g3306
sg55
(lp3313
g48
(g69
g50
NtRp3314
(dp3315
g53
(dp3316
sg62
g3310
sg55
(lp3317
g48
(g49
g50
NtRp3318
(dp3319
g53
(dp3320
g61
I1
ssg62
g3314
sg55
(lp3321
g3181
(S't\x0b\x00\x00\x00Controlador'
tRp3322
asbasbasbag48
(g64
g50
NtRp3323
(dp3324
g53
(dp3325
sg62
g3306
sg55
(lp3326
g48
(g69
g50
NtRp3327
(dp3328
g53
(dp3329
sg62
g3323
sg55
(lp3330
g48
(g49
g50
NtRp3331
(dp3332
g53
(dp3333
g61
I1
ssg62
g3327
sg55
(lp3334
I00
asbasbasbag48
(g64
g50
NtRp3335
(dp3336
g53
(dp3337
sg62
g3306
sg55
(lp3338
g48
(g69
g50
NtRp3339
(dp3340
g53
(dp3341
sg62
g3335
sg55
(lp3342
g48
(g49
g50
NtRp3343
(dp3344
g53
(dp3345
g61
I1
ssg62
g3339
sg55
(lp3346
S'/admin/default/edit/Desglosar_Emails/controllers/default.py'
p3347
asbasbasbasbasbasbasbag48
(g64
g50
NtRp3348
(dp3349
g53
(dp3350
sg62
g3290
sg55
(lp3351
g48
(g69
g50
NtRp3352
(dp3353
g53
(dp3354
sg62
g3348
sg55
(lp3355
g48
(g49
g50
NtRp3356
(dp3357
g53
(dp3358
g61
I2
ssg62
g3352
sg55
(lp3359
g48
(g57
g50
NtRp3360
(dp3361
g53
(dp3362
g61
I1
ssg62
Nsg55
(lp3363
g48
(g64
g50
NtRp3364
(dp3365
g53
(dp3366
sg62
g3360
sg55
(lp3367
g48
(g69
g50
NtRp3368
(dp3369
g53
(dp3370
sg62
g3364
sg55
(lp3371
g48
(g49
g50
NtRp3372
(dp3373
g53
(dp3374
g61
I1
ssg62
g3368
sg55
(lp3375
g3181
(S't\x05\x00\x00\x00Vista'
tRp3376
asbasbasbag48
(g64
g50
NtRp3377
(dp3378
g53
(dp3379
sg62
g3360
sg55
(lp3380
g48
(g69
g50
NtRp3381
(dp3382
g53
(dp3383
sg62
g3377
sg55
(lp3384
g48
(g49
g50
NtRp3385
(dp3386
g53
(dp3387
g61
I1
ssg62
g3381
sg55
(lp3388
I00
asbasbasbag48
(g64
g50
NtRp3389
(dp3390
g53
(dp3391
sg62
g3360
sg55
(lp3392
g48
(g69
g50
NtRp3393
(dp3394
g53
(dp3395
sg62
g3389
sg55
(lp3396
g48
(g49
g50
NtRp3397
(dp3398
g53
(dp3399
g61
I1
ssg62
g3393
sg55
(lp3400
S'/admin/default/edit/Desglosar_Emails/views/default/entrada.html'
p3401
asbasbasbasbasbasbasbag48
(g64
g50
NtRp3402
(dp3403
g53
(dp3404
sg62
g3290
sg55
(lp3405
g48
(g69
g50
NtRp3406
(dp3407
g53
(dp3408
sg62
g3402
sg55
(lp3409
g48
(g49
g50
NtRp3410
(dp3411
g53
(dp3412
g61
I2
ssg62
g3406
sg55
(lp3413
g48
(g57
g50
NtRp3414
(dp3415
g53
(dp3416
g61
I1
ssg62
Nsg55
(lp3417
g48
(g64
g50
NtRp3418
(dp3419
g53
(dp3420
sg62
g3414
sg55
(lp3421
g48
(g69
g50
NtRp3422
(dp3423
g53
(dp3424
sg62
g3418
sg55
(lp3425
g48
(g49
g50
NtRp3426
(dp3427
g53
(dp3428
g61
I1
ssg62
g3422
sg55
(lp3429
g3181
(S's\x12\x00\x00\x00Dise\xc3\xb1o de p\xc3\xa1gina'
tRp3430
asbasbasbag48
(g64
g50
NtRp3431
(dp3432
g53
(dp3433
sg62
g3414
sg55
(lp3434
g48
(g69
g50
NtRp3435
(dp3436
g53
(dp3437
sg62
g3431
sg55
(lp3438
g48
(g49
g50
NtRp3439
(dp3440
g53
(dp3441
g61
I1
ssg62
g3435
sg55
(lp3442
I00
asbasbasbag48
(g64
g50
NtRp3443
(dp3444
g53
(dp3445
sg62
g3414
sg55
(lp3446
g48
(g69
g50
NtRp3447
(dp3448
g53
(dp3449
sg62
g3443
sg55
(lp3450
g48
(g49
g50
NtRp3451
(dp3452
g53
(dp3453
g61
I1
ssg62
g3447
sg55
(lp3454
S'/admin/default/edit/Desglosar_Emails/views/layout.html'
p3455
asbasbasbasbasbasbasbag48
(g64
g50
NtRp3456
(dp3457
g53
(dp3458
sg62
g3290
sg55
(lp3459
g48
(g69
g50
NtRp3460
(dp3461
g53
(dp3462
sg62
g3456
sg55
(lp3463
g48
(g49
g50
NtRp3464
(dp3465
g53
(dp3466
g61
I2
ssg62
g3460
sg55
(lp3467
g48
(g57
g50
NtRp3468
(dp3469
g53
(dp3470
g61
I1
ssg62
Nsg55
(lp3471
g48
(g64
g50
NtRp3472
(dp3473
g53
(dp3474
sg62
g3468
sg55
(lp3475
g48
(g69
g50
NtRp3476
(dp3477
g53
(dp3478
sg62
g3472
sg55
(lp3479
g48
(g49
g50
NtRp3480
(dp3481
g53
(dp3482
g61
I1
ssg62
g3476
sg55
(lp3483
g3181
(S's\x0e\x00\x00\x00Hoja de estilo'
tRp3484
asbasbasbag48
(g64
g50
NtRp3485
(dp3486
g53
(dp3487
sg62
g3468
sg55
(lp3488
g48
(g69
g50
NtRp3489
(dp3490
g53
(dp3491
sg62
g3485
sg55
(lp3492
g48
(g49
g50
NtRp3493
(dp3494
g53
(dp3495
g61
I1
ssg62
g3489
sg55
(lp3496
I00
asbasbasbag48
(g64
g50
NtRp3497
(dp3498
g53
(dp3499
sg62
g3468
sg55
(lp3500
g48
(g69
g50
NtRp3501
(dp3502
g53
(dp3503
sg62
g3497
sg55
(lp3504
g48
(g49
g50
NtRp3505
(dp3506
g53
(dp3507
g61
I1
ssg62
g3501
sg55
(lp3508
S'/admin/default/edit/Desglosar_Emails/static/base.css'
p3509
asbasbasbasbasbasbasbag48
(g64
g50
NtRp3510
(dp3511
g53
(dp3512
sg62
g3290
sg55
(lp3513
g48
(g69
g50
NtRp3514
(dp3515
g53
(dp3516
sg62
g3510
sg55
(lp3517
g48
(g49
g50
NtRp3518
(dp3519
g53
(dp3520
g61
I2
ssg62
g3514
sg55
(lp3521
g48
(g57
g50
NtRp3522
(dp3523
g53
(dp3524
g61
I1
ssg62
Nsg55
(lp3525
g48
(g64
g50
NtRp3526
(dp3527
g53
(dp3528
sg62
g3522
sg55
(lp3529
g48
(g69
g50
NtRp3530
(dp3531
g53
(dp3532
sg62
g3526
sg55
(lp3533
g48
(g49
g50
NtRp3534
(dp3535
g53
(dp3536
g61
I1
ssg62
g3530
sg55
(lp3537
g3181
(S's\x0b\x00\x00\x00Modelo "db"'
tRp3538
asbasbasbag48
(g64
g50
NtRp3539
(dp3540
g53
(dp3541
sg62
g3522
sg55
(lp3542
g48
(g69
g50
NtRp3543
(dp3544
g53
(dp3545
sg62
g3539
sg55
(lp3546
g48
(g49
g50
NtRp3547
(dp3548
g53
(dp3549
g61
I1
ssg62
g3543
sg55
(lp3550
I00
asbasbasbag48
(g64
g50
NtRp3551
(dp3552
g53
(dp3553
sg62
g3522
sg55
(lp3554
g48
(g69
g50
NtRp3555
(dp3556
g53
(dp3557
sg62
g3551
sg55
(lp3558
g48
(g49
g50
NtRp3559
(dp3560
g53
(dp3561
g61
I1
ssg62
g3555
sg55
(lp3562
S'/admin/default/edit/Desglosar_Emails/models/db.py'
p3563
asbasbasbasbasbasbasbag48
(g64
g50
NtRp3564
(dp3565
g53
(dp3566
sg62
g3290
sg55
(lp3567
g48
(g69
g50
NtRp3568
(dp3569
g53
(dp3570
sg62
g3564
sg55
(lp3571
g48
(g49
g50
NtRp3572
(dp3573
g53
(dp3574
g61
I2
ssg62
g3568
sg55
(lp3575
g48
(g57
g50
NtRp3576
(dp3577
g53
(dp3578
g61
I1
ssg62
Nsg55
(lp3579
g48
(g64
g50
NtRp3580
(dp3581
g53
(dp3582
sg62
g3576
sg55
(lp3583
g48
(g69
g50
NtRp3584
(dp3585
g53
(dp3586
sg62
g3580
sg55
(lp3587
g48
(g49
g50
NtRp3588
(dp3589
g53
(dp3590
g61
I1
ssg62
g3584
sg55
(lp3591
g3181
(S's\r\x00\x00\x00Modelo "menu"'
tRp3592
asbasbasbag48
(g64
g50
NtRp3593
(dp3594
g53
(dp3595
sg62
g3576
sg55
(lp3596
g48
(g69
g50
NtRp3597
(dp3598
g53
(dp3599
sg62
g3593
sg55
(lp3600
g48
(g49
g50
NtRp3601
(dp3602
g53
(dp3603
g61
I1
ssg62
g3597
sg55
(lp3604
I00
asbasbasbag48
(g64
g50
NtRp3605
(dp3606
g53
(dp3607
sg62
g3576
sg55
(lp3608
g48
(g69
g50
NtRp3609
(dp3610
g53
(dp3611
sg62
g3605
sg55
(lp3612
g48
(g49
g50
NtRp3613
(dp3614
g53
(dp3615
g61
I1
ssg62
g3609
sg55
(lp3616
S'/admin/default/edit/Desglosar_Emails/models/menu.py'
p3617
asbasbasbasbasbasbasbag48
(g64
g50
NtRp3618
(dp3619
g53
(dp3620
sg62
g3290
sg55
(lp3621
g48
(g69
g50
NtRp3622
(dp3623
g53
(dp3624
sg62
g3618
sg55
(lp3625
g48
(g49
g50
NtRp3626
(dp3627
g53
(dp3628
g61
I2
ssg62
g3622
sg55
(lp3629
g48
(g57
g50
NtRp3630
(dp3631
g53
(dp3632
g61
I1
ssg62
Nsg55
(lp3633
g48
(g64
g50
NtRp3634
(dp3635
g53
(dp3636
sg62
g3630
sg55
(lp3637
g48
(g69
g50
NtRp3638
(dp3639
g53
(dp3640
sg62
g3634
sg55
(lp3641
g48
(g49
g50
NtRp3642
(dp3643
g53
(dp3644
g61
I1
ssg62
g3638
sg55
(lp3645
g3181
(S's\r\x00\x00\x00Base de datos'
tRp3646
asbasbasbag48
(g64
g50
NtRp3647
(dp3648
g53
(dp3649
sg62
g3630
sg55
(lp3650
g48
(g69
g50
NtRp3651
(dp3652
g53
(dp3653
sg62
g3647
sg55
(lp3654
g48
(g49
g50
NtRp3655
(dp3656
g53
(dp3657
g61
I1
ssg62
g3651
sg55
(lp3658
I00
asbasbasbag48
(g64
g50
NtRp3659
(dp3660
g53
(dp3661
sg62
g3630
sg55
(lp3662
g48
(g69
g50
NtRp3663
(dp3664
g53
(dp3665
sg62
g3659
sg55
(lp3666
g48
(g49
g50
NtRp3667
(dp3668
g53
(dp3669
g61
I1
ssg62
g3663
sg55
(lp3670
S'/Desglosar_Emails/appadmin/index'
p3671
asbasbasbasbasbasbasbag48
(g64
g50
NtRp3672
(dp3673
g53
(dp3674
sg62
g3290
sg55
(lp3675
g48
(g69
g50
NtRp3676
(dp3677
g53
(dp3678
sg62
g3672
sg55
(lp3679
g48
(g49
g50
NtRp3680
(dp3681
g53
(dp3682
g61
I2
ssg62
g3676
sg55
(lp3683
g48
(g57
g50
NtRp3684
(dp3685
g53
(dp3686
g61
I1
ssg62
Nsg55
(lp3687
g48
(g64
g50
NtRp3688
(dp3689
g53
(dp3690
sg62
g3684
sg55
(lp3691
g48
(g69
g50
NtRp3692
(dp3693
g53
(dp3694
sg62
g3688
sg55
(lp3695
g48
(g49
g50
NtRp3696
(dp3697
g53
(dp3698
g61
I1
ssg62
g3692
sg55
(lp3699
g3181
(S't\x06\x00\x00\x00Errors'
tRp3700
asbasbasbag48
(g64
g50
NtRp3701
(dp3702
g53
(dp3703
sg62
g3684
sg55
(lp3704
g48
(g69
g50
NtRp3705
(dp3706
g53
(dp3707
sg62
g3701
sg55
(lp3708
g48
(g49
g50
NtRp3709
(dp3710
g53
(dp3711
g61
I1
ssg62
g3705
sg55
(lp3712
I00
asbasbasbag48
(g64
g50
NtRp3713
(dp3714
g53
(dp3715
sg62
g3684
sg55
(lp3716
g48
(g69
g50
NtRp3717
(dp3718
g53
(dp3719
sg62
g3713
sg55
(lp3720
g48
(g49
g50
NtRp3721
(dp3722
g53
(dp3723
g61
I1
ssg62
g3717
sg55
(lp3724
S'/admin/default/errors/Desglosar_Emails'
p3725
asbasbasbasbasbasbasbag48
(g64
g50
NtRp3726
(dp3727
g53
(dp3728
sg62
g3290
sg55
(lp3729
g48
(g69
g50
NtRp3730
(dp3731
g53
(dp3732
sg62
g3726
sg55
(lp3733
g48
(g49
g50
NtRp3734
(dp3735
g53
(dp3736
g61
I2
ssg62
g3730
sg55
(lp3737
g48
(g57
g50
NtRp3738
(dp3739
g53
(dp3740
g61
I1
ssg62
Nsg55
(lp3741
g48
(g64
g50
NtRp3742
(dp3743
g53
(dp3744
sg62
g3738
sg55
(lp3745
g48
(g69
g50
NtRp3746
(dp3747
g53
(dp3748
sg62
g3742
sg55
(lp3749
g48
(g49
g50
NtRp3750
(dp3751
g53
(dp3752
g61
I1
ssg62
g3746
sg55
(lp3753
g3181
(S's\t\x00\x00\x00Acerca de'
tRp3754
asbasbasbag48
(g64
g50
NtRp3755
(dp3756
g53
(dp3757
sg62
g3738
sg55
(lp3758
g48
(g69
g50
NtRp3759
(dp3760
g53
(dp3761
sg62
g3755
sg55
(lp3762
g48
(g49
g50
NtRp3763
(dp3764
g53
(dp3765
g61
I1
ssg62
g3759
sg55
(lp3766
I00
asbasbasbag48
(g64
g50
NtRp3767
(dp3768
g53
(dp3769
sg62
g3738
sg55
(lp3770
g48
(g69
g50
NtRp3771
(dp3772
g53
(dp3773
sg62
g3767
sg55
(lp3774
g48
(g49
g50
NtRp3775
(dp3776
g53
(dp3777
g61
I1
ssg62
g3771
sg55
(lp3778
S'/admin/default/about/Desglosar_Emails'
p3779
asbasbasbasbasbasbasbasbasbasbasbasbasbasbasbag48
(g64
g50
NtRp3780
(dp3781
g53
(dp3782
sg62
g3149
sg55
(lp3783
g48
(g69
g50
NtRp3784
(dp3785
g53
(dp3786
sg62
g3780
sg55
(lp3787
g48
(g49
g50
NtRp3788
(dp3789
g53
(dp3790
g61
I4
ssg62
g3784
sg55
(lp3791
g48
(g57
g50
NtRp3792
(dp3793
g53
(dp3794
g61
I3
ssg62
Nsg55
(lp3795
g48
(g64
g50
NtRp3796
(dp3797
g53
(dp3798
sg62
g3792
sg55
(lp3799
g48
(g69
g50
NtRp3800
(dp3801
g53
(dp3802
sg62
g3796
sg55
(lp3803
g48
(g49
g50
NtRp3804
(dp3805
g53
(dp3806
g61
I3
ssg62
g3800
sg55
(lp3807
g3181
(S't\t\x00\x00\x00Resources'
tRp3808
asbasbasbag48
(g64
g50
NtRp3809
(dp3810
g53
(dp3811
sg62
g3792
sg55
(lp3812
g48
(g69
g50
NtRp3813
(dp3814
g53
(dp3815
sg62
g3809
sg55
(lp3816
g48
(g49
g50
NtRp3817
(dp3818
g53
(dp3819
g61
I3
ssg62
g3813
sg55
(lp3820
g91
asbasbasbag48
(g64
g50
NtRp3821
(dp3822
g53
(dp3823
sg62
g3792
sg55
(lp3824
g48
(g69
g50
NtRp3825
(dp3826
g53
(dp3827
sg62
g3821
sg55
(lp3828
g48
(g49
g50
NtRp3829
(dp3830
g53
(dp3831
g61
I3
ssg62
g3825
sg55
(lp3832
S'None'
p3833
asbasbasbag48
(g64
g50
NtRp3834
(dp3835
g53
(dp3836
sg62
g3792
sg55
(lp3837
g48
(g69
g50
NtRp3838
(dp3839
g53
(dp3840
sg62
g3834
sg55
(lp3841
g48
(g49
g50
NtRp3842
(dp3843
g53
(dp3844
g61
I3
ssg62
g3838
sg55
(lp3845
g48
(g57
g50
NtRp3846
(dp3847
g53
(dp3848
g61
I2
ssg62
Nsg55
(lp3849
g48
(g64
g50
NtRp3850
(dp3851
g53
(dp3852
sg62
g3846
sg55
(lp3853
g48
(g69
g50
NtRp3854
(dp3855
g53
(dp3856
sg62
g3850
sg55
(lp3857
g48
(g49
g50
NtRp3858
(dp3859
g53
(dp3860
g61
I2
ssg62
g3854
sg55
(lp3861
g48
(g57
g50
NtRp3862
(dp3863
g53
(dp3864
g61
I1
ssg62
Nsg55
(lp3865
g48
(g64
g50
NtRp3866
(dp3867
g53
(dp3868
sg62
g3862
sg55
(lp3869
g48
(g69
g50
NtRp3870
(dp3871
g53
(dp3872
sg62
g3866
sg55
(lp3873
g48
(g49
g50
NtRp3874
(dp3875
g53
(dp3876
g61
I1
ssg62
g3870
sg55
(lp3877
g3181
(S's\x0e\x00\x00\x00Documentaci\xc3\xb3n'
tRp3878
asbasbasbag48
(g64
g50
NtRp3879
(dp3880
g53
(dp3881
sg62
g3862
sg55
(lp3882
g48
(g69
g50
NtRp3883
(dp3884
g53
(dp3885
sg62
g3879
sg55
(lp3886
g48
(g49
g50
NtRp3887
(dp3888
g53
(dp3889
g61
I1
ssg62
g3883
sg55
(lp3890
I00
asbasbasbag48
(g64
g50
NtRp3891
(dp3892
g53
(dp3893
sg62
g3862
sg55
(lp3894
g48
(g69
g50
NtRp3895
(dp3896
g53
(dp3897
sg62
g3891
sg55
(lp3898
g48
(g49
g50
NtRp3899
(dp3900
g53
(dp3901
g61
I1
ssg62
g3895
sg55
(lp3902
S'http://www.web2py.com/book'
p3903
asbasbasbag48
(g64
g50
NtRp3904
(dp3905
g53
(dp3906
sg62
g3862
sg55
(lp3907
g48
(g69
g50
NtRp3908
(dp3909
g53
(dp3910
sg62
g3904
sg55
(lp3911
g48
(g49
g50
NtRp3912
(dp3913
g53
(dp3914
g61
I1
ssg62
g3908
sg55
(lp3915
(lp3916
(g3181
(S't\x07\x00\x00\x00Preface'
tRp3917
I00
S'http://www.web2py.com/book/default/chapter/00'
tp3918
a(g3181
(S't\x0c\x00\x00\x00Introduction'
tRp3919
I00
S'http://www.web2py.com/book/default/chapter/01'
tp3920
a(g3181
(S't\x06\x00\x00\x00Python'
tRp3921
I00
S'http://www.web2py.com/book/default/chapter/02'
tp3922
a(g3181
(S't\x08\x00\x00\x00Overview'
tRp3923
I00
S'http://www.web2py.com/book/default/chapter/03'
tp3924
a(g3181
(S's\x08\x00\x00\x00The Core'
tRp3925
I00
S'http://www.web2py.com/book/default/chapter/04'
tp3926
a(g3181
(S's\t\x00\x00\x00The Views'
tRp3927
I00
S'http://www.web2py.com/book/default/chapter/05'
tp3928
a(g3181
(S's\r\x00\x00\x00Base de datos'
tRp3929
I00
S'http://www.web2py.com/book/default/chapter/06'
tp3930
a(g3181
(S's\x14\x00\x00\x00Forms and Validators'
tRp3931
I00
S'http://www.web2py.com/book/default/chapter/07'
tp3932
a(g3181
(S's\x0e\x00\x00\x00Access Control'
tRp3933
I00
S'http://www.web2py.com/book/default/chapter/08'
tp3934
a(g3181
(S't\x08\x00\x00\x00Services'
tRp3935
I00
S'http://www.web2py.com/book/default/chapter/09'
tp3936
a(g3181
(S's\x0c\x00\x00\x00Ajax Recipes'
tRp3937
I00
S'http://www.web2py.com/book/default/chapter/10'
tp3938
a(g3181
(S's\x12\x00\x00\x00Deployment Recipes'
tRp3939
I00
S'http://www.web2py.com/book/default/chapter/11'
tp3940
a(g3181
(S's\r\x00\x00\x00Other Recipes'
tRp3941
I00
S'http://www.web2py.com/book/default/chapter/12'
tp3942
a(g3181
(S's\r\x00\x00\x00Buy this book'
tRp3943
I00
S'http://stores.lulu.com/web2py'
tp3944
aasbasbasbasbasbasbasbag48
(g64
g50
NtRp3945
(dp3946
g53
(dp3947
sg62
g3846
sg55
(lp3948
g48
(g69
g50
NtRp3949
(dp3950
g53
(dp3951
sg62
g3945
sg55
(lp3952
g48
(g49
g50
NtRp3953
(dp3954
g53
(dp3955
g61
I2
ssg62
g3949
sg55
(lp3956
g48
(g57
g50
NtRp3957
(dp3958
g53
(dp3959
g61
I1
ssg62
Nsg55
(lp3960
g48
(g64
g50
NtRp3961
(dp3962
g53
(dp3963
sg62
g3957
sg55
(lp3964
g48
(g69
g50
NtRp3965
(dp3966
g53
(dp3967
sg62
g3961
sg55
(lp3968
g48
(g49
g50
NtRp3969
(dp3970
g53
(dp3971
g61
I1
ssg62
g3965
sg55
(lp3972
g3181
(S't\t\x00\x00\x00Community'
tRp3973
asbasbasbag48
(g64
g50
NtRp3974
(dp3975
g53
(dp3976
sg62
g3957
sg55
(lp3977
g48
(g69
g50
NtRp3978
(dp3979
g53
(dp3980
sg62
g3974
sg55
(lp3981
g48
(g49
g50
NtRp3982
(dp3983
g53
(dp3984
g61
I1
ssg62
g3978
sg55
(lp3985
I00
asbasbasbag48
(g64
g50
NtRp3986
(dp3987
g53
(dp3988
sg62
g3957
sg55
(lp3989
g48
(g69
g50
NtRp3990
(dp3991
g53
(dp3992
sg62
g3986
sg55
(lp3993
g48
(g49
g50
NtRp3994
(dp3995
g53
(dp3996
g61
I1
ssg62
g3990
sg55
(lp3997
Nasbasbasbag48
(g64
g50
NtRp3998
(dp3999
g53
(dp4000
sg62
g3957
sg55
(lp4001
g48
(g69
g50
NtRp4002
(dp4003
g53
(dp4004
sg62
g3998
sg55
(lp4005
g48
(g49
g50
NtRp4006
(dp4007
g53
(dp4008
g61
I1
ssg62
g4002
sg55
(lp4009
(lp4010
(g3181
(S't\x06\x00\x00\x00Groups'
tRp4011
I00
S'http://www.web2py.com/examples/default/usergroups'
tp4012
a(g3181
(S't\x07\x00\x00\x00Twitter'
tRp4013
I00
S'http://twitter.com/web2py'
tp4014
a(g3181
(S's\t\x00\x00\x00Live chat'
tRp4015
I00
S'http://mibbit.com/?channel=%23web2py&server=irc.mibbit.net'
tp4016
a(g3181
(S's\n\x00\x00\x00User Voice'
tRp4017
I00
S'http://web2py.uservoice.com/'
tp4018
aasbasbasbasbasbasbasbag48
(g64
g50
NtRp4019
(dp4020
g53
(dp4021
sg62
g3846
sg55
(lp4022
g48
(g69
g50
NtRp4023
(dp4024
g53
(dp4025
sg62
g4019
sg55
(lp4026
g48
(g49
g50
NtRp4027
(dp4028
g53
(dp4029
g61
I2
ssg62
g4023
sg55
(lp4030
g48
(g57
g50
NtRp4031
(dp4032
g53
(dp4033
g61
I1
ssg62
Nsg55
(lp4034
g48
(g64
g50
NtRp4035
(dp4036
g53
(dp4037
sg62
g4031
sg55
(lp4038
g48
(g69
g50
NtRp4039
(dp4040
g53
(dp4041
sg62
g4035
sg55
(lp4042
g48
(g49
g50
NtRp4043
(dp4044
g53
(dp4045
g61
I1
ssg62
g4039
sg55
(lp4046
g3181
(S't\x06\x00\x00\x00Web2py'
tRp4047
asbasbasbag48
(g64
g50
NtRp4048
(dp4049
g53
(dp4050
sg62
g4031
sg55
(lp4051
g48
(g69
g50
NtRp4052
(dp4053
g53
(dp4054
sg62
g4048
sg55
(lp4055
g48
(g49
g50
NtRp4056
(dp4057
g53
(dp4058
g61
I1
ssg62
g4052
sg55
(lp4059
I00
asbasbasbag48
(g64
g50
NtRp4060
(dp4061
g53
(dp4062
sg62
g4031
sg55
(lp4063
g48
(g69
g50
NtRp4064
(dp4065
g53
(dp4066
sg62
g4060
sg55
(lp4067
g48
(g49
g50
NtRp4068
(dp4069
g53
(dp4070
g61
I1
ssg62
g4064
sg55
(lp4071
S'http://www.web2py.com'
p4072
asbasbasbag48
(g64
g50
NtRp4073
(dp4074
g53
(dp4075
sg62
g4031
sg55
(lp4076
g48
(g69
g50
NtRp4077
(dp4078
g53
(dp4079
sg62
g4073
sg55
(lp4080
g48
(g49
g50
NtRp4081
(dp4082
g53
(dp4083
g61
I1
ssg62
g4077
sg55
(lp4084
(lp4085
(g3181
(S't\x08\x00\x00\x00Download'
tRp4086
I00
S'http://www.web2py.com/examples/default/download'
tp4087
a(g3181
(S't\x07\x00\x00\x00Support'
tRp4088
I00
S'http://www.web2py.com/examples/default/support'
tp4089
a(g3181
(S's\x0e\x00\x00\x00Quick Examples'
tRp4090
I00
S'http://web2py.com/examples/default/examples'
tp4091
a(g3181
(S't\x03\x00\x00\x00FAQ'
tRp4092
I00
S'http://web2py.com/AlterEgo'
tp4093
a(g3181
(S's\x11\x00\x00\x00Free Applications'
tRp4094
I00
S'http://web2py.com/appliances'
tp4095
a(g3181
(S't\x07\x00\x00\x00Plugins'
tRp4096
I00
S'http://web2py.com/plugins'
tp4097
a(g3181
(S't\x07\x00\x00\x00Recipes'
tRp4098
I00
S'http://web2pyslices.com/'
tp4099
a(g3181
(S't\x04\x00\x00\x00Demo'
tRp4100
I00
S'http://web2py.com/demo_admin'
tp4101
a(g3181
(S't\x08\x00\x00\x00Semantic'
tRp4102
I00
S'http://web2py.com/semantic'
tp4103
a(g3181
(S't\x07\x00\x00\x00Layouts'
tRp4104
I00
S'http://web2py.com/layouts'
tp4105
a(g3181
(S't\x06\x00\x00\x00Videos'
tRp4106
I00
S'http://www.web2py.com/examples/default/videos/'
tp4107
aasbasbasbasbasbasbasbasbasbasbasbasbasbasbasbasbasbasbasbag48
(g64
g50
NtRp4108
(dp4109
g53
(dp4110
sg62
g2708
sg55
(lp4111
g48
(g69
g50
NtRp4112
(dp4113
g53
(dp4114
g73
g74
ssg62
g4108
sg55
(lp4115
S'meta'
p4116
asbag48
(g69
g50
NtRp4117
(dp4118
g53
(dp4119
g80
g81
ssg62
g4108
sg55
(lp4120
S':'
asbag48
(g69
g50
NtRp4121
(dp4122
g53
(dp4123
sg62
g4108
sg55
(lp4124
g48
(g49
g50
NtRp4125
(dp4126
g53
(dp4127
g61
I5
ssg62
g4121
sg55
(lp4128
g48
(g57
g50
NtRp4129
(dp4130
g53
(dp4131
g61
I4
ssg62
Nsg55
(lp4132
g48
(g64
g50
NtRp4133
(dp4134
g53
(dp4135
sg62
g4129
sg55
(lp4136
g48
(g69
g50
NtRp4137
(dp4138
g53
(dp4139
g73
g74
ssg62
g4133
sg55
(lp4140
S'author'
p4141
asbag48
(g69
g50
NtRp4142
(dp4143
g53
(dp4144
g80
g81
ssg62
g4133
sg55
(lp4145
S':'
asbag48
(g69
g50
NtRp4146
(dp4147
g53
(dp4148
sg62
g4133
sg55
(lp4149
g48
(g49
g50
NtRp4150
(dp4151
g53
(dp4152
g61
I4
ssg62
g4146
sg55
(lp4153
S'you'
p4154
asbasbasbag48
(g64
g50
NtRp4155
(dp4156
g53
(dp4157
sg62
g4129
sg55
(lp4158
g48
(g69
g50
NtRp4159
(dp4160
g53
(dp4161
g73
g74
ssg62
g4155
sg55
(lp4162
S'copyright'
p4163
asbag48
(g69
g50
NtRp4164
(dp4165
g53
(dp4166
g80
g81
ssg62
g4155
sg55
(lp4167
S':'
asbag48
(g69
g50
NtRp4168
(dp4169
g53
(dp4170
sg62
g4155
sg55
(lp4171
g48
(g49
g50
NtRp4172
(dp4173
g53
(dp4174
g61
I4
ssg62
g4168
sg55
(lp4175
S'Copyright 2007-2010'
p4176
asbasbasbag48
(g64
g50
NtRp4177
(dp4178
g53
(dp4179
sg62
g4129
sg55
(lp4180
g48
(g69
g50
NtRp4181
(dp4182
g53
(dp4183
g73
g74
ssg62
g4177
sg55
(lp4184
S'description'
p4185
asbag48
(g69
g50
NtRp4186
(dp4187
g53
(dp4188
g80
g81
ssg62
g4177
sg55
(lp4189
S':'
asbag48
(g69
g50
NtRp4190
(dp4191
g53
(dp4192
sg62
g4177
sg55
(lp4193
g48
(g49
g50
NtRp4194
(dp4195
g53
(dp4196
g61
I4
ssg62
g4190
sg55
(lp4197
S'Free and open source full-stack enterprise framework for agile development of fast, scalable, secure and portable database-driven web-based applications. Written and programmable in Python'
p4198
asbasbasbag48
(g64
g50
NtRp4199
(dp4200
g53
(dp4201
sg62
g4129
sg55
(lp4202
g48
(g69
g50
NtRp4203
(dp4204
g53
(dp4205
g73
g74
ssg62
g4199
sg55
(lp4206
S'generator'
p4207
asbag48
(g69
g50
NtRp4208
(dp4209
g53
(dp4210
g80
g81
ssg62
g4199
sg55
(lp4211
S':'
asbag48
(g69
g50
NtRp4212
(dp4213
g53
(dp4214
sg62
g4199
sg55
(lp4215
g48
(g49
g50
NtRp4216
(dp4217
g53
(dp4218
g61
I4
ssg62
g4212
sg55
(lp4219
S'Web2py Enterprise Framework'
p4220
asbasbasbag48
(g64
g50
NtRp4221
(dp4222
g53
(dp4223
sg62
g4129
sg55
(lp4224
g48
(g69
g50
NtRp4225
(dp4226
g53
(dp4227
g73
g74
ssg62
g4221
sg55
(lp4228
S'keywords'
p4229
asbag48
(g69
g50
NtRp4230
(dp4231
g53
(dp4232
g80
g81
ssg62
g4221
sg55
(lp4233
S':'
asbag48
(g69
g50
NtRp4234
(dp4235
g53
(dp4236
sg62
g4221
sg55
(lp4237
g48
(g49
g50
NtRp4238
(dp4239
g53
(dp4240
g61
I4
ssg62
g4234
sg55
(lp4241
S'web2py, python, framework'
p4242
asbasbasbasbasbasbasbag48
(g64
g50
NtRp4243
(dp4244
g53
(dp4245
sg62
g2708
sg55
(lp4246
g48
(g69
g50
NtRp4247
(dp4248
g53
(dp4249
g73
g74
ssg62
g4243
sg55
(lp4250
S'postprocessing'
p4251
asbag48
(g69
g50
NtRp4252
(dp4253
g53
(dp4254
g80
g81
ssg62
g4243
sg55
(lp4255
S':'
asbag48
(g69
g50
NtRp4256
(dp4257
g53
(dp4258
sg62
g4243
sg55
(lp4259
g48
(g49
g50
NtRp4260
(dp4261
g53
(dp4262
g61
I5
ssg62
g4256
sg55
(lp4263
g48
(g57
g50
NtRp4264
(dp4265
g53
(dp4266
g61
I4
ssg62
Nsg55
(lp4267
sbasbasbasbag48
(g64
g50
NtRp4268
(dp4269
g53
(dp4270
sg62
g2708
sg55
(lp4271
g48
(g69
g50
NtRp4272
(dp4273
g53
(dp4274
g73
g74
ssg62
g4268
sg55
(lp4275
S'session_file'
p4276
asbag48
(g69
g50
NtRp4277
(dp4278
g53
(dp4279
g80
g81
ssg62
g4268
sg55
(lp4280
S':'
asbag48
(g69
g50
NtRp4281
(dp4282
g53
(dp4283
sg62
g4268
sg55
(lp4284
g48
(g49
g50
NtRp4285
(dp4286
g53
(dp4287
g61
I5
ssg62
g4281
sg55
(lp4288
S"<open file 'C:\\Users\\Atomico\\web2py\\applications\\Desglosar_Emails\\sessions\\127.0.0.1-0a11b3b2-660c-433c-b71f-fc129286f26c', mode 'rb+' at 0x07711F08>"
p4289
asbasbasbag48
(g64
g50
NtRp4290
(dp4291
g53
(dp4292
sg62
g2708
sg55
(lp4293
g48
(g69
g50
NtRp4294
(dp4295
g53
(dp4296
g73
g74
ssg62
g4290
sg55
(lp4297
S'session_filename'
p4298
asbag48
(g69
g50
NtRp4299
(dp4300
g53
(dp4301
g80
g81
ssg62
g4290
sg55
(lp4302
S':'
asbag48
(g69
g50
NtRp4303
(dp4304
g53
(dp4305
sg62
g4290
sg55
(lp4306
g48
(g49
g50
NtRp4307
(dp4308
g53
(dp4309
g61
I5
ssg62
g4303
sg55
(lp4310
S'C:\\Users\\Atomico\\web2py\\applications\\Desglosar_Emails\\sessions\\127.0.0.1-0a11b3b2-660c-433c-b71f-fc129286f26c'
p4311
asbasbasbag48
(g64
g50
NtRp4312
(dp4313
g53
(dp4314
sg62
g2708
sg55
(lp4315
g48
(g69
g50
NtRp4316
(dp4317
g53
(dp4318
g73
g74
ssg62
g4312
sg55
(lp4319
S'session_id'
p4320
asbag48
(g69
g50
NtRp4321
(dp4322
g53
(dp4323
g80
g81
ssg62
g4312
sg55
(lp4324
S':'
asbag48
(g69
g50
NtRp4325
(dp4326
g53
(dp4327
sg62
g4312
sg55
(lp4328
g48
(g49
g50
NtRp4329
(dp4330
g53
(dp4331
g61
I5
ssg62
g4325
sg55
(lp4332
S'127.0.0.1-0a11b3b2-660c-433c-b71f-fc129286f26c'
p4333
asbasbasbag48
(g64
g50
NtRp4334
(dp4335
g53
(dp4336
sg62
g2708
sg55
(lp4337
g48
(g69
g50
NtRp4338
(dp4339
g53
(dp4340
g73
g74
ssg62
g4334
sg55
(lp4341
S'session_id_name'
p4342
asbag48
(g69
g50
NtRp4343
(dp4344
g53
(dp4345
g80
g81
ssg62
g4334
sg55
(lp4346
S':'
asbag48
(g69
g50
NtRp4347
(dp4348
g53
(dp4349
sg62
g4334
sg55
(lp4350
g48
(g49
g50
NtRp4351
(dp4352
g53
(dp4353
g61
I5
ssg62
g4347
sg55
(lp4354
g2765
asbasbasbag48
(g64
g50
NtRp4355
(dp4356
g53
(dp4357
sg62
g2708
sg55
(lp4358
g48
(g69
g50
NtRp4359
(dp4360
g53
(dp4361
g73
g74
ssg62
g4355
sg55
(lp4362
S'session_locked'
p4363
asbag48
(g69
g50
NtRp4364
(dp4365
g53
(dp4366
g80
g81
ssg62
g4355
sg55
(lp4367
S':'
asbag48
(g69
g50
NtRp4368
(dp4369
g53
(dp4370
sg62
g4355
sg55
(lp4371
g48
(g49
g50
NtRp4372
(dp4373
g53
(dp4374
g61
I5
ssg62
g4368
sg55
(lp4375
g1664
asbasbasbag48
(g64
g50
NtRp4376
(dp4377
g53
(dp4378
sg62
g2708
sg55
(lp4379
g48
(g69
g50
NtRp4380
(dp4381
g53
(dp4382
g73
g74
ssg62
g4376
sg55
(lp4383
S'session_new'
p4384
asbag48
(g69
g50
NtRp4385
(dp4386
g53
(dp4387
g80
g81
ssg62
g4376
sg55
(lp4388
S':'
asbag48
(g69
g50
NtRp4389
(dp4390
g53
(dp4391
sg62
g4376
sg55
(lp4392
g48
(g49
g50
NtRp4393
(dp4394
g53
(dp4395
g61
I5
ssg62
g4389
sg55
(lp4396
g91
asbasbasbag48
(g64
g50
NtRp4397
(dp4398
g53
(dp4399
sg62
g2708
sg55
(lp4400
g48
(g69
g50
NtRp4401
(dp4402
g53
(dp4403
g73
g74
ssg62
g4397
sg55
(lp4404
S'status'
p4405
asbag48
(g69
g50
NtRp4406
(dp4407
g53
(dp4408
g80
g81
ssg62
g4397
sg55
(lp4409
S':'
asbag48
(g69
g50
NtRp4410
(dp4411
g53
(dp4412
sg62
g4397
sg55
(lp4413
g48
(g49
g50
NtRp4414
(dp4415
g53
(dp4416
g61
I5
ssg62
g4410
sg55
(lp4417
S'200'
p4418
asbasbasbag48
(g64
g50
NtRp4419
(dp4420
g53
(dp4421
sg62
g2708
sg55
(lp4422
g48
(g69
g50
NtRp4423
(dp4424
g53
(dp4425
g73
g74
ssg62
g4419
sg55
(lp4426
S'subtitle'
p4427
asbag48
(g69
g50
NtRp4428
(dp4429
g53
(dp4430
g80
g81
ssg62
g4419
sg55
(lp4431
S':'
asbag48
(g69
g50
NtRp4432
(dp4433
g53
(dp4434
sg62
g4419
sg55
(lp4435
g48
(g49
g50
NtRp4436
(dp4437
g53
(dp4438
g61
I5
ssg62
g4432
sg55
(lp4439
g3181
(S's\t\x00\x00\x00Adaptame!'
tRp4440
asbasbasbag48
(g64
g50
NtRp4441
(dp4442
g53
(dp4443
sg62
g2708
sg55
(lp4444
g48
(g69
g50
NtRp4445
(dp4446
g53
(dp4447
g73
g74
ssg62
g4441
sg55
(lp4448
S'title'
p4449
asbag48
(g69
g50
NtRp4450
(dp4451
g53
(dp4452
g80
g81
ssg62
g4441
sg55
(lp4453
S':'
asbag48
(g69
g50
NtRp4454
(dp4455
g53
(dp4456
sg62
g4441
sg55
(lp4457
g48
(g49
g50
NtRp4458
(dp4459
g53
(dp4460
g61
I5
ssg62
g4454
sg55
(lp4461
g113
asbasbasbag48
(g64
g50
NtRp4462
(dp4463
g53
(dp4464
sg62
g2708
sg55
(lp4465
g48
(g69
g50
NtRp4466
(dp4467
g53
(dp4468
g73
g74
ssg62
g4462
sg55
(lp4469
g1988
asbag48
(g69
g50
NtRp4470
(dp4471
g53
(dp4472
g80
g81
ssg62
g4462
sg55
(lp4473
S':'
asbag48
(g69
g50
NtRp4474
(dp4475
g53
(dp4476
sg62
g4462
sg55
(lp4477
g48
(g49
g50
NtRp4478
(dp4479
g53
(dp4480
g61
I5
ssg62
g4474
sg55
(lp4481
g2001
asbasbasbag48
(g64
g50
NtRp4482
(dp4483
g53
(dp4484
sg62
g2708
sg55
(lp4485
g48
(g69
g50
NtRp4486
(dp4487
g53
(dp4488
g73
g74
ssg62
g4482
sg55
(lp4489
S'view'
p4490
asbag48
(g69
g50
NtRp4491
(dp4492
g53
(dp4493
g80
g81
ssg62
g4482
sg55
(lp4494
S':'
asbag48
(g69
g50
NtRp4495
(dp4496
g53
(dp4497
sg62
g4482
sg55
(lp4498
g48
(g49
g50
NtRp4499
(dp4500
g53
(dp4501
g61
I5
ssg62
g4495
sg55
(lp4502
S'default/entrada.html'
p4503
asbasbasbasbasbsS'locals'
p4504
(dp4505
S'form'
p4506
S'<gluon.sqlhtml.SQLFORM object at 0x07D70810>'
p4507
sssS'traceback'
p4508
S'Traceback (most recent call last):\n  File "gluon/restricted.py", line 192, in restricted\n  File "C:\\Users\\Atomico\\web2py\\applications\\Desglosar_Emails\\controllers/default.py", line 15, in <module>\n  File "gluon/globals.py", line 145, in <lambda>\n  File "C:\\Users\\Atomico\\web2py\\applications\\Desglosar_Emails\\controllers/default.py", line 8, in entrada\nAttributeError: \'str\' object has no attribute \'length\'\n'
p4509
s.