(dp1
S'output'
p2
S''
sS'layer'
p3
S'C:\\Users\\Atomico\\web2py\\applications\\Desglosar_Emails\\controllers/default.py'
p4
sS'code'
p5
S"def entrada():\n    form=SQLFORM(db.info)\n    if form.accepts(request.vars,session): pass\n\n    \n    response.write(db.info[1].texto[3])\n    response.write('claro')\n    longitud=len(db.info[2].texto)\n    response.write(longitud)\n    for i in range(len(db.info[1].texto)):\n        b=b+1\n    response.write('El total de b es: ')\n    response.write(b)\n    \n    \n\n\n\n\n    return dict(form=form)\n\nresponse._vars=response._caller(entrada)\n"
p6
sS'snapshot'
p7
(dp8
S'exception'
p9
(dp10
S'__hash__'
p11
S"<method-wrapper '__hash__' of exceptions.UnboundLocalError object at 0x07B9F508>"
p12
sS'__setattr__'
p13
S"<method-wrapper '__setattr__' of exceptions.UnboundLocalError object at 0x07B9F508>"
p14
sS'__reduce_ex__'
p15
S'<built-in method __reduce_ex__ of exceptions.UnboundLocalError object at 0x07B9F508>'
p16
sS'__getslice__'
p17
S"<method-wrapper '__getslice__' of exceptions.UnboundLocalError object at 0x07B9F508>"
p18
sS'__getitem__'
p19
S"<method-wrapper '__getitem__' of exceptions.UnboundLocalError object at 0x07B9F508>"
p20
sS'__setstate__'
p21
S'<built-in method __setstate__ of exceptions.UnboundLocalError object at 0x07B9F508>'
p22
sS'__reduce__'
p23
S'<built-in method __reduce__ of exceptions.UnboundLocalError object at 0x07B9F508>'
p24
sS'__str__'
p25
S"<method-wrapper '__str__' of exceptions.UnboundLocalError object at 0x07B9F508>"
p26
sS'args'
p27
S'("local variable \'b\' referenced before assignment",)'
p28
sS'__getattribute__'
p29
S"<method-wrapper '__getattribute__' of exceptions.UnboundLocalError object at 0x07B9F508>"
p30
sS'__class__'
p31
S"<type 'exceptions.UnboundLocalError'>"
p32
sS'__delattr__'
p33
S"<method-wrapper '__delattr__' of exceptions.UnboundLocalError object at 0x07B9F508>"
p34
sS'__repr__'
p35
S"<method-wrapper '__repr__' of exceptions.UnboundLocalError object at 0x07B9F508>"
p36
sS'__dict__'
p37
S'{}'
p38
sS'__doc__'
p39
S"'Local name referenced but not bound to a value.'"
p40
sS'__init__'
p41
S"<method-wrapper '__init__' of exceptions.UnboundLocalError object at 0x07B9F508>"
p42
sS'__new__'
p43
S'<built-in method __new__ of type object at 0x1E1CD9A0>'
p44
ssS'evalue'
p45
S"local variable 'b' referenced before assignment"
p46
sS'request'
p47
ccopy_reg
_reconstructor
p48
(cgluon.html
BEAUTIFY
p49
c__builtin__
object
p50
NtRp51
(dp52
S'attributes'
p53
(dp54
sS'components'
p55
(lp56
g48
(cgluon.html
TABLE
p57
g50
NtRp58
(dp59
g53
(dp60
S'level'
p61
I5
ssS'parent'
p62
Nsg55
(lp63
g48
(cgluon.html
TR
p64
g50
NtRp65
(dp66
g53
(dp67
sg62
g58
sg55
(lp68
g48
(cgluon.html
TD
p69
g50
NtRp70
(dp71
g53
(dp72
S'_style'
p73
S'font-weight:bold;'
p74
ssg62
g65
sg55
(lp75
S'ajax'
p76
asbag48
(g69
g50
NtRp77
(dp78
g53
(dp79
S'_valign'
p80
S'top'
p81
ssg62
g65
sg55
(lp82
S':'
asbag48
(g69
g50
NtRp83
(dp84
g53
(dp85
sg62
g65
sg55
(lp86
g48
(g49
g50
NtRp87
(dp88
g53
(dp89
g61
I5
ssg62
g83
sg55
(lp90
S'False'
p91
asbasbasbag48
(g64
g50
NtRp92
(dp93
g53
(dp94
sg62
g58
sg55
(lp95
g48
(g69
g50
NtRp96
(dp97
g53
(dp98
g73
g74
ssg62
g92
sg55
(lp99
S'application'
p100
asbag48
(g69
g50
NtRp101
(dp102
g53
(dp103
g80
g81
ssg62
g92
sg55
(lp104
S':'
asbag48
(g69
g50
NtRp105
(dp106
g53
(dp107
sg62
g92
sg55
(lp108
g48
(g49
g50
NtRp109
(dp110
g53
(dp111
g61
I5
ssg62
g105
sg55
(lp112
S'Desglosar_Emails'
p113
asbasbasbag48
(g64
g50
NtRp114
(dp115
g53
(dp116
sg62
g58
sg55
(lp117
g48
(g69
g50
NtRp118
(dp119
g53
(dp120
g73
g74
ssg62
g114
sg55
(lp121
g27
asbag48
(g69
g50
NtRp122
(dp123
g53
(dp124
g80
g81
ssg62
g114
sg55
(lp125
S':'
asbag48
(g69
g50
NtRp126
(dp127
g53
(dp128
sg62
g114
sg55
(lp129
g48
(g49
g50
NtRp130
(dp131
g53
(dp132
g61
I5
ssg62
g126
sg55
(lp133
g48
(g57
g50
NtRp134
(dp135
g53
(dp136
g61
I4
ssg62
Nsg55
(lp137
sbasbasbasbag48
(g64
g50
NtRp138
(dp139
g53
(dp140
sg62
g58
sg55
(lp141
g48
(g69
g50
NtRp142
(dp143
g53
(dp144
g73
g74
ssg62
g138
sg55
(lp145
S'body'
p146
asbag48
(g69
g50
NtRp147
(dp148
g53
(dp149
g80
g81
ssg62
g138
sg55
(lp150
S':'
asbag48
(g69
g50
NtRp151
(dp152
g53
(dp153
sg62
g138
sg55
(lp154
g48
(g49
g50
NtRp155
(dp156
g53
(dp157
g61
I5
ssg62
g151
sg55
(lp158
S"<open file '<fdopen>', mode 'w+b' at 0x0764A338>"
p159
asbasbasbag48
(g64
g50
NtRp160
(dp161
g53
(dp162
sg62
g58
sg55
(lp163
g48
(g69
g50
NtRp164
(dp165
g53
(dp166
g73
g74
ssg62
g160
sg55
(lp167
S'client'
p168
asbag48
(g69
g50
NtRp169
(dp170
g53
(dp171
g80
g81
ssg62
g160
sg55
(lp172
S':'
asbag48
(g69
g50
NtRp173
(dp174
g53
(dp175
sg62
g160
sg55
(lp176
g48
(g49
g50
NtRp177
(dp178
g53
(dp179
g61
I5
ssg62
g173
sg55
(lp180
S'127.0.0.1'
p181
asbasbasbag48
(g64
g50
NtRp182
(dp183
g53
(dp184
sg62
g58
sg55
(lp185
g48
(g69
g50
NtRp186
(dp187
g53
(dp188
g73
g74
ssg62
g182
sg55
(lp189
S'controller'
p190
asbag48
(g69
g50
NtRp191
(dp192
g53
(dp193
g80
g81
ssg62
g182
sg55
(lp194
S':'
asbag48
(g69
g50
NtRp195
(dp196
g53
(dp197
sg62
g182
sg55
(lp198
g48
(g49
g50
NtRp199
(dp200
g53
(dp201
g61
I5
ssg62
g195
sg55
(lp202
S'default'
p203
asbasbasbag48
(g64
g50
NtRp204
(dp205
g53
(dp206
sg62
g58
sg55
(lp207
g48
(g69
g50
NtRp208
(dp209
g53
(dp210
g73
g74
ssg62
g204
sg55
(lp211
S'cookies'
p212
asbag48
(g69
g50
NtRp213
(dp214
g53
(dp215
g80
g81
ssg62
g204
sg55
(lp216
S':'
asbag48
(g69
g50
NtRp217
(dp218
g53
(dp219
sg62
g204
sg55
(lp220
g48
(g49
g50
NtRp221
(dp222
g53
(dp223
g61
I5
ssg62
g217
sg55
(lp224
g48
(g57
g50
NtRp225
(dp226
g53
(dp227
g61
I4
ssg62
Nsg55
(lp228
g48
(g64
g50
NtRp229
(dp230
g53
(dp231
sg62
g225
sg55
(lp232
g48
(g69
g50
NtRp233
(dp234
g53
(dp235
g73
g74
ssg62
g229
sg55
(lp236
S'session_id_admin'
p237
asbag48
(g69
g50
NtRp238
(dp239
g53
(dp240
g80
g81
ssg62
g229
sg55
(lp241
S':'
asbag48
(g69
g50
NtRp242
(dp243
g53
(dp244
sg62
g229
sg55
(lp245
g48
(g49
g50
NtRp246
(dp247
g53
(dp248
g61
I4
ssg62
g242
sg55
(lp249
g48
(g57
g50
NtRp250
(dp251
g53
(dp252
g61
I3
ssg62
Nsg55
(lp253
g48
(g64
g50
NtRp254
(dp255
g53
(dp256
sg62
g250
sg55
(lp257
g48
(g69
g50
NtRp258
(dp259
g53
(dp260
g73
g74
ssg62
g254
sg55
(lp261
S'comment'
p262
asbag48
(g69
g50
NtRp263
(dp264
g53
(dp265
g80
g81
ssg62
g254
sg55
(lp266
S':'
asbag48
(g69
g50
NtRp267
(dp268
g53
(dp269
sg62
g254
sg55
(lp270
g48
(g49
g50
NtRp271
(dp272
g53
(dp273
g61
I3
ssg62
g267
sg55
(lp274
S''
asbasbasbag48
(g64
g50
NtRp275
(dp276
g53
(dp277
sg62
g250
sg55
(lp278
g48
(g69
g50
NtRp279
(dp280
g53
(dp281
g73
g74
ssg62
g275
sg55
(lp282
S'domain'
p283
asbag48
(g69
g50
NtRp284
(dp285
g53
(dp286
g80
g81
ssg62
g275
sg55
(lp287
S':'
asbag48
(g69
g50
NtRp288
(dp289
g53
(dp290
sg62
g275
sg55
(lp291
g48
(g49
g50
NtRp292
(dp293
g53
(dp294
g61
I3
ssg62
g288
sg55
(lp295
S''
asbasbasbag48
(g64
g50
NtRp296
(dp297
g53
(dp298
sg62
g250
sg55
(lp299
g48
(g69
g50
NtRp300
(dp301
g53
(dp302
g73
g74
ssg62
g296
sg55
(lp303
S'expires'
p304
asbag48
(g69
g50
NtRp305
(dp306
g53
(dp307
g80
g81
ssg62
g296
sg55
(lp308
S':'
asbag48
(g69
g50
NtRp309
(dp310
g53
(dp311
sg62
g296
sg55
(lp312
g48
(g49
g50
NtRp313
(dp314
g53
(dp315
g61
I3
ssg62
g309
sg55
(lp316
S''
asbasbasbag48
(g64
g50
NtRp317
(dp318
g53
(dp319
sg62
g250
sg55
(lp320
g48
(g69
g50
NtRp321
(dp322
g53
(dp323
g73
g74
ssg62
g317
sg55
(lp324
S'max-age'
p325
asbag48
(g69
g50
NtRp326
(dp327
g53
(dp328
g80
g81
ssg62
g317
sg55
(lp329
S':'
asbag48
(g69
g50
NtRp330
(dp331
g53
(dp332
sg62
g317
sg55
(lp333
g48
(g49
g50
NtRp334
(dp335
g53
(dp336
g61
I3
ssg62
g330
sg55
(lp337
S''
asbasbasbag48
(g64
g50
NtRp338
(dp339
g53
(dp340
sg62
g250
sg55
(lp341
g48
(g69
g50
NtRp342
(dp343
g53
(dp344
g73
g74
ssg62
g338
sg55
(lp345
S'path'
p346
asbag48
(g69
g50
NtRp347
(dp348
g53
(dp349
g80
g81
ssg62
g338
sg55
(lp350
S':'
asbag48
(g69
g50
NtRp351
(dp352
g53
(dp353
sg62
g338
sg55
(lp354
g48
(g49
g50
NtRp355
(dp356
g53
(dp357
g61
I3
ssg62
g351
sg55
(lp358
S''
asbasbasbag48
(g64
g50
NtRp359
(dp360
g53
(dp361
sg62
g250
sg55
(lp362
g48
(g69
g50
NtRp363
(dp364
g53
(dp365
g73
g74
ssg62
g359
sg55
(lp366
S'secure'
p367
asbag48
(g69
g50
NtRp368
(dp369
g53
(dp370
g80
g81
ssg62
g359
sg55
(lp371
S':'
asbag48
(g69
g50
NtRp372
(dp373
g53
(dp374
sg62
g359
sg55
(lp375
g48
(g49
g50
NtRp376
(dp377
g53
(dp378
g61
I3
ssg62
g372
sg55
(lp379
S''
asbasbasbag48
(g64
g50
NtRp380
(dp381
g53
(dp382
sg62
g250
sg55
(lp383
g48
(g69
g50
NtRp384
(dp385
g53
(dp386
g73
g74
ssg62
g380
sg55
(lp387
S'version'
p388
asbag48
(g69
g50
NtRp389
(dp390
g53
(dp391
g80
g81
ssg62
g380
sg55
(lp392
S':'
asbag48
(g69
g50
NtRp393
(dp394
g53
(dp395
sg62
g380
sg55
(lp396
g48
(g49
g50
NtRp397
(dp398
g53
(dp399
g61
I3
ssg62
g393
sg55
(lp400
S''
asbasbasbasbasbasbasbag48
(g64
g50
NtRp401
(dp402
g53
(dp403
sg62
g225
sg55
(lp404
g48
(g69
g50
NtRp405
(dp406
g53
(dp407
g73
g74
ssg62
g401
sg55
(lp408
S'session_id_desglosar_emails'
p409
asbag48
(g69
g50
NtRp410
(dp411
g53
(dp412
g80
g81
ssg62
g401
sg55
(lp413
S':'
asbag48
(g69
g50
NtRp414
(dp415
g53
(dp416
sg62
g401
sg55
(lp417
g48
(g49
g50
NtRp418
(dp419
g53
(dp420
g61
I4
ssg62
g414
sg55
(lp421
g48
(g57
g50
NtRp422
(dp423
g53
(dp424
g61
I3
ssg62
Nsg55
(lp425
g48
(g64
g50
NtRp426
(dp427
g53
(dp428
sg62
g422
sg55
(lp429
g48
(g69
g50
NtRp430
(dp431
g53
(dp432
g73
g74
ssg62
g426
sg55
(lp433
g262
asbag48
(g69
g50
NtRp434
(dp435
g53
(dp436
g80
g81
ssg62
g426
sg55
(lp437
S':'
asbag48
(g69
g50
NtRp438
(dp439
g53
(dp440
sg62
g426
sg55
(lp441
g48
(g49
g50
NtRp442
(dp443
g53
(dp444
g61
I3
ssg62
g438
sg55
(lp445
S''
asbasbasbag48
(g64
g50
NtRp446
(dp447
g53
(dp448
sg62
g422
sg55
(lp449
g48
(g69
g50
NtRp450
(dp451
g53
(dp452
g73
g74
ssg62
g446
sg55
(lp453
g283
asbag48
(g69
g50
NtRp454
(dp455
g53
(dp456
g80
g81
ssg62
g446
sg55
(lp457
S':'
asbag48
(g69
g50
NtRp458
(dp459
g53
(dp460
sg62
g446
sg55
(lp461
g48
(g49
g50
NtRp462
(dp463
g53
(dp464
g61
I3
ssg62
g458
sg55
(lp465
S''
asbasbasbag48
(g64
g50
NtRp466
(dp467
g53
(dp468
sg62
g422
sg55
(lp469
g48
(g69
g50
NtRp470
(dp471
g53
(dp472
g73
g74
ssg62
g466
sg55
(lp473
g304
asbag48
(g69
g50
NtRp474
(dp475
g53
(dp476
g80
g81
ssg62
g466
sg55
(lp477
S':'
asbag48
(g69
g50
NtRp478
(dp479
g53
(dp480
sg62
g466
sg55
(lp481
g48
(g49
g50
NtRp482
(dp483
g53
(dp484
g61
I3
ssg62
g478
sg55
(lp485
S''
asbasbasbag48
(g64
g50
NtRp486
(dp487
g53
(dp488
sg62
g422
sg55
(lp489
g48
(g69
g50
NtRp490
(dp491
g53
(dp492
g73
g74
ssg62
g486
sg55
(lp493
g325
asbag48
(g69
g50
NtRp494
(dp495
g53
(dp496
g80
g81
ssg62
g486
sg55
(lp497
S':'
asbag48
(g69
g50
NtRp498
(dp499
g53
(dp500
sg62
g486
sg55
(lp501
g48
(g49
g50
NtRp502
(dp503
g53
(dp504
g61
I3
ssg62
g498
sg55
(lp505
S''
asbasbasbag48
(g64
g50
NtRp506
(dp507
g53
(dp508
sg62
g422
sg55
(lp509
g48
(g69
g50
NtRp510
(dp511
g53
(dp512
g73
g74
ssg62
g506
sg55
(lp513
g346
asbag48
(g69
g50
NtRp514
(dp515
g53
(dp516
g80
g81
ssg62
g506
sg55
(lp517
S':'
asbag48
(g69
g50
NtRp518
(dp519
g53
(dp520
sg62
g506
sg55
(lp521
g48
(g49
g50
NtRp522
(dp523
g53
(dp524
g61
I3
ssg62
g518
sg55
(lp525
S''
asbasbasbag48
(g64
g50
NtRp526
(dp527
g53
(dp528
sg62
g422
sg55
(lp529
g48
(g69
g50
NtRp530
(dp531
g53
(dp532
g73
g74
ssg62
g526
sg55
(lp533
g367
asbag48
(g69
g50
NtRp534
(dp535
g53
(dp536
g80
g81
ssg62
g526
sg55
(lp537
S':'
asbag48
(g69
g50
NtRp538
(dp539
g53
(dp540
sg62
g526
sg55
(lp541
g48
(g49
g50
NtRp542
(dp543
g53
(dp544
g61
I3
ssg62
g538
sg55
(lp545
S''
asbasbasbag48
(g64
g50
NtRp546
(dp547
g53
(dp548
sg62
g422
sg55
(lp549
g48
(g69
g50
NtRp550
(dp551
g53
(dp552
g73
g74
ssg62
g546
sg55
(lp553
g388
asbag48
(g69
g50
NtRp554
(dp555
g53
(dp556
g80
g81
ssg62
g546
sg55
(lp557
S':'
asbag48
(g69
g50
NtRp558
(dp559
g53
(dp560
sg62
g546
sg55
(lp561
g48
(g49
g50
NtRp562
(dp563
g53
(dp564
g61
I3
ssg62
g558
sg55
(lp565
S''
asbasbasbasbasbasbasbag48
(g64
g50
NtRp566
(dp567
g53
(dp568
sg62
g225
sg55
(lp569
g48
(g69
g50
NtRp570
(dp571
g53
(dp572
g73
g74
ssg62
g566
sg55
(lp573
S'session_id_listado_1'
p574
asbag48
(g69
g50
NtRp575
(dp576
g53
(dp577
g80
g81
ssg62
g566
sg55
(lp578
S':'
asbag48
(g69
g50
NtRp579
(dp580
g53
(dp581
sg62
g566
sg55
(lp582
g48
(g49
g50
NtRp583
(dp584
g53
(dp585
g61
I4
ssg62
g579
sg55
(lp586
g48
(g57
g50
NtRp587
(dp588
g53
(dp589
g61
I3
ssg62
Nsg55
(lp590
g48
(g64
g50
NtRp591
(dp592
g53
(dp593
sg62
g587
sg55
(lp594
g48
(g69
g50
NtRp595
(dp596
g53
(dp597
g73
g74
ssg62
g591
sg55
(lp598
g262
asbag48
(g69
g50
NtRp599
(dp600
g53
(dp601
g80
g81
ssg62
g591
sg55
(lp602
S':'
asbag48
(g69
g50
NtRp603
(dp604
g53
(dp605
sg62
g591
sg55
(lp606
g48
(g49
g50
NtRp607
(dp608
g53
(dp609
g61
I3
ssg62
g603
sg55
(lp610
S''
asbasbasbag48
(g64
g50
NtRp611
(dp612
g53
(dp613
sg62
g587
sg55
(lp614
g48
(g69
g50
NtRp615
(dp616
g53
(dp617
g73
g74
ssg62
g611
sg55
(lp618
g283
asbag48
(g69
g50
NtRp619
(dp620
g53
(dp621
g80
g81
ssg62
g611
sg55
(lp622
S':'
asbag48
(g69
g50
NtRp623
(dp624
g53
(dp625
sg62
g611
sg55
(lp626
g48
(g49
g50
NtRp627
(dp628
g53
(dp629
g61
I3
ssg62
g623
sg55
(lp630
S''
asbasbasbag48
(g64
g50
NtRp631
(dp632
g53
(dp633
sg62
g587
sg55
(lp634
g48
(g69
g50
NtRp635
(dp636
g53
(dp637
g73
g74
ssg62
g631
sg55
(lp638
g304
asbag48
(g69
g50
NtRp639
(dp640
g53
(dp641
g80
g81
ssg62
g631
sg55
(lp642
S':'
asbag48
(g69
g50
NtRp643
(dp644
g53
(dp645
sg62
g631
sg55
(lp646
g48
(g49
g50
NtRp647
(dp648
g53
(dp649
g61
I3
ssg62
g643
sg55
(lp650
S''
asbasbasbag48
(g64
g50
NtRp651
(dp652
g53
(dp653
sg62
g587
sg55
(lp654
g48
(g69
g50
NtRp655
(dp656
g53
(dp657
g73
g74
ssg62
g651
sg55
(lp658
g325
asbag48
(g69
g50
NtRp659
(dp660
g53
(dp661
g80
g81
ssg62
g651
sg55
(lp662
S':'
asbag48
(g69
g50
NtRp663
(dp664
g53
(dp665
sg62
g651
sg55
(lp666
g48
(g49
g50
NtRp667
(dp668
g53
(dp669
g61
I3
ssg62
g663
sg55
(lp670
S''
asbasbasbag48
(g64
g50
NtRp671
(dp672
g53
(dp673
sg62
g587
sg55
(lp674
g48
(g69
g50
NtRp675
(dp676
g53
(dp677
g73
g74
ssg62
g671
sg55
(lp678
g346
asbag48
(g69
g50
NtRp679
(dp680
g53
(dp681
g80
g81
ssg62
g671
sg55
(lp682
S':'
asbag48
(g69
g50
NtRp683
(dp684
g53
(dp685
sg62
g671
sg55
(lp686
g48
(g49
g50
NtRp687
(dp688
g53
(dp689
g61
I3
ssg62
g683
sg55
(lp690
S''
asbasbasbag48
(g64
g50
NtRp691
(dp692
g53
(dp693
sg62
g587
sg55
(lp694
g48
(g69
g50
NtRp695
(dp696
g53
(dp697
g73
g74
ssg62
g691
sg55
(lp698
g367
asbag48
(g69
g50
NtRp699
(dp700
g53
(dp701
g80
g81
ssg62
g691
sg55
(lp702
S':'
asbag48
(g69
g50
NtRp703
(dp704
g53
(dp705
sg62
g691
sg55
(lp706
g48
(g49
g50
NtRp707
(dp708
g53
(dp709
g61
I3
ssg62
g703
sg55
(lp710
S''
asbasbasbag48
(g64
g50
NtRp711
(dp712
g53
(dp713
sg62
g587
sg55
(lp714
g48
(g69
g50
NtRp715
(dp716
g53
(dp717
g73
g74
ssg62
g711
sg55
(lp718
g388
asbag48
(g69
g50
NtRp719
(dp720
g53
(dp721
g80
g81
ssg62
g711
sg55
(lp722
S':'
asbag48
(g69
g50
NtRp723
(dp724
g53
(dp725
sg62
g711
sg55
(lp726
g48
(g49
g50
NtRp727
(dp728
g53
(dp729
g61
I3
ssg62
g723
sg55
(lp730
S''
asbasbasbasbasbasbasbag48
(g64
g50
NtRp731
(dp732
g53
(dp733
sg62
g225
sg55
(lp734
g48
(g69
g50
NtRp735
(dp736
g53
(dp737
g73
g74
ssg62
g731
sg55
(lp738
S'session_id_welcome'
p739
asbag48
(g69
g50
NtRp740
(dp741
g53
(dp742
g80
g81
ssg62
g731
sg55
(lp743
S':'
asbag48
(g69
g50
NtRp744
(dp745
g53
(dp746
sg62
g731
sg55
(lp747
g48
(g49
g50
NtRp748
(dp749
g53
(dp750
g61
I4
ssg62
g744
sg55
(lp751
g48
(g57
g50
NtRp752
(dp753
g53
(dp754
g61
I3
ssg62
Nsg55
(lp755
g48
(g64
g50
NtRp756
(dp757
g53
(dp758
sg62
g752
sg55
(lp759
g48
(g69
g50
NtRp760
(dp761
g53
(dp762
g73
g74
ssg62
g756
sg55
(lp763
g262
asbag48
(g69
g50
NtRp764
(dp765
g53
(dp766
g80
g81
ssg62
g756
sg55
(lp767
S':'
asbag48
(g69
g50
NtRp768
(dp769
g53
(dp770
sg62
g756
sg55
(lp771
g48
(g49
g50
NtRp772
(dp773
g53
(dp774
g61
I3
ssg62
g768
sg55
(lp775
S''
asbasbasbag48
(g64
g50
NtRp776
(dp777
g53
(dp778
sg62
g752
sg55
(lp779
g48
(g69
g50
NtRp780
(dp781
g53
(dp782
g73
g74
ssg62
g776
sg55
(lp783
g283
asbag48
(g69
g50
NtRp784
(dp785
g53
(dp786
g80
g81
ssg62
g776
sg55
(lp787
S':'
asbag48
(g69
g50
NtRp788
(dp789
g53
(dp790
sg62
g776
sg55
(lp791
g48
(g49
g50
NtRp792
(dp793
g53
(dp794
g61
I3
ssg62
g788
sg55
(lp795
S''
asbasbasbag48
(g64
g50
NtRp796
(dp797
g53
(dp798
sg62
g752
sg55
(lp799
g48
(g69
g50
NtRp800
(dp801
g53
(dp802
g73
g74
ssg62
g796
sg55
(lp803
g304
asbag48
(g69
g50
NtRp804
(dp805
g53
(dp806
g80
g81
ssg62
g796
sg55
(lp807
S':'
asbag48
(g69
g50
NtRp808
(dp809
g53
(dp810
sg62
g796
sg55
(lp811
g48
(g49
g50
NtRp812
(dp813
g53
(dp814
g61
I3
ssg62
g808
sg55
(lp815
S''
asbasbasbag48
(g64
g50
NtRp816
(dp817
g53
(dp818
sg62
g752
sg55
(lp819
g48
(g69
g50
NtRp820
(dp821
g53
(dp822
g73
g74
ssg62
g816
sg55
(lp823
g325
asbag48
(g69
g50
NtRp824
(dp825
g53
(dp826
g80
g81
ssg62
g816
sg55
(lp827
S':'
asbag48
(g69
g50
NtRp828
(dp829
g53
(dp830
sg62
g816
sg55
(lp831
g48
(g49
g50
NtRp832
(dp833
g53
(dp834
g61
I3
ssg62
g828
sg55
(lp835
S''
asbasbasbag48
(g64
g50
NtRp836
(dp837
g53
(dp838
sg62
g752
sg55
(lp839
g48
(g69
g50
NtRp840
(dp841
g53
(dp842
g73
g74
ssg62
g836
sg55
(lp843
g346
asbag48
(g69
g50
NtRp844
(dp845
g53
(dp846
g80
g81
ssg62
g836
sg55
(lp847
S':'
asbag48
(g69
g50
NtRp848
(dp849
g53
(dp850
sg62
g836
sg55
(lp851
g48
(g49
g50
NtRp852
(dp853
g53
(dp854
g61
I3
ssg62
g848
sg55
(lp855
S''
asbasbasbag48
(g64
g50
NtRp856
(dp857
g53
(dp858
sg62
g752
sg55
(lp859
g48
(g69
g50
NtRp860
(dp861
g53
(dp862
g73
g74
ssg62
g856
sg55
(lp863
g367
asbag48
(g69
g50
NtRp864
(dp865
g53
(dp866
g80
g81
ssg62
g856
sg55
(lp867
S':'
asbag48
(g69
g50
NtRp868
(dp869
g53
(dp870
sg62
g856
sg55
(lp871
g48
(g49
g50
NtRp872
(dp873
g53
(dp874
g61
I3
ssg62
g868
sg55
(lp875
S''
asbasbasbag48
(g64
g50
NtRp876
(dp877
g53
(dp878
sg62
g752
sg55
(lp879
g48
(g69
g50
NtRp880
(dp881
g53
(dp882
g73
g74
ssg62
g876
sg55
(lp883
g388
asbag48
(g69
g50
NtRp884
(dp885
g53
(dp886
g80
g81
ssg62
g876
sg55
(lp887
S':'
asbag48
(g69
g50
NtRp888
(dp889
g53
(dp890
sg62
g876
sg55
(lp891
g48
(g49
g50
NtRp892
(dp893
g53
(dp894
g61
I3
ssg62
g888
sg55
(lp895
S''
asbasbasbasbasbasbasbasbasbasbasbag48
(g64
g50
NtRp896
(dp897
g53
(dp898
sg62
g58
sg55
(lp899
g48
(g69
g50
NtRp900
(dp901
g53
(dp902
g73
g74
ssg62
g896
sg55
(lp903
S'env'
p904
asbag48
(g69
g50
NtRp905
(dp906
g53
(dp907
g80
g81
ssg62
g896
sg55
(lp908
S':'
asbag48
(g69
g50
NtRp909
(dp910
g53
(dp911
sg62
g896
sg55
(lp912
g48
(g49
g50
NtRp913
(dp914
g53
(dp915
g61
I5
ssg62
g909
sg55
(lp916
g48
(g57
g50
NtRp917
(dp918
g53
(dp919
g61
I4
ssg62
Nsg55
(lp920
g48
(g64
g50
NtRp921
(dp922
g53
(dp923
sg62
g917
sg55
(lp924
g48
(g69
g50
NtRp925
(dp926
g53
(dp927
g73
g74
ssg62
g921
sg55
(lp928
S'app_folders'
p929
asbag48
(g69
g50
NtRp930
(dp931
g53
(dp932
g80
g81
ssg62
g921
sg55
(lp933
S':'
asbag48
(g69
g50
NtRp934
(dp935
g53
(dp936
sg62
g921
sg55
(lp937
g48
(g49
g50
NtRp938
(dp939
g53
(dp940
g61
I4
ssg62
g934
sg55
(lp941
S"set(['C:\\\\Users\\\\Atomico\\\\web2py\\\\applications\\\\welcome\\\\', 'C:\\\\Users\\\\Atomico\\\\web2py\\\\applications\\\\Desglosar_Emails\\\\', 'C:\\\\Users\\\\Atomico\\\\web2py\\\\applications\\\\listado_1\\\\', 'C:\\\\Users\\\\Atomico\\\\web2py\\\\applications\\\\admin\\\\'])"
p942
asbasbasbag48
(g64
g50
NtRp943
(dp944
g53
(dp945
sg62
g917
sg55
(lp946
g48
(g69
g50
NtRp947
(dp948
g53
(dp949
g73
g74
ssg62
g943
sg55
(lp950
S'applications_parent'
p951
asbag48
(g69
g50
NtRp952
(dp953
g53
(dp954
g80
g81
ssg62
g943
sg55
(lp955
S':'
asbag48
(g69
g50
NtRp956
(dp957
g53
(dp958
sg62
g943
sg55
(lp959
g48
(g49
g50
NtRp960
(dp961
g53
(dp962
g61
I4
ssg62
g956
sg55
(lp963
S'C:\\Users\\Atomico\\web2py'
p964
asbasbasbag48
(g64
g50
NtRp965
(dp966
g53
(dp967
sg62
g917
sg55
(lp968
g48
(g69
g50
NtRp969
(dp970
g53
(dp971
g73
g74
ssg62
g965
sg55
(lp972
S'cmd_args'
p973
asbag48
(g69
g50
NtRp974
(dp975
g53
(dp976
g80
g81
ssg62
g965
sg55
(lp977
S':'
asbag48
(g69
g50
NtRp978
(dp979
g53
(dp980
sg62
g965
sg55
(lp981
g48
(g49
g50
NtRp982
(dp983
g53
(dp984
g61
I4
ssg62
g978
sg55
(lp985
g48
(g57
g50
NtRp986
(dp987
g53
(dp988
g61
I3
ssg62
Nsg55
(lp989
sbasbasbasbag48
(g64
g50
NtRp990
(dp991
g53
(dp992
sg62
g917
sg55
(lp993
g48
(g69
g50
NtRp994
(dp995
g53
(dp996
g73
g74
ssg62
g990
sg55
(lp997
S'cmd_options'
p998
asbag48
(g69
g50
NtRp999
(dp1000
g53
(dp1001
g80
g81
ssg62
g990
sg55
(lp1002
S':'
asbag48
(g69
g50
NtRp1003
(dp1004
g53
(dp1005
sg62
g990
sg55
(lp1006
g48
(g49
g50
NtRp1007
(dp1008
g53
(dp1009
g61
I4
ssg62
g1003
sg55
(lp1010
S"<Values at 0x30fb620: {'verbose': False, 'ip': '127.0.0.1', 'shutdown_timeout': 5, 'taskbar': False, 'port': 8000, 'maxthreads': None, 'softcron': False, 'server_name': 'Swing', 'bpython': False, 'nogui': False, 'nocron': False, 'extcron': False, 'debuglevel': 30, 'test': None, 'folder': 'C:\\\\Users\\\\Atomico\\\\web2py', 'config': '', 'import_models': False, 'winservice': '', 'shell': None, 'run': '', 'log_filename': 'httpserver.log', 'args': [''], 'profiler_filename': None, 'ssl_private_key': '', 'password': '<ask>', 'request_queue_size': 5, 'ssl_certificate': '', 'cronjob': False, 'plain': False, 'quiet': False, 'interfaces': None, 'minthreads': None, 'timeout': 10, 'numthreads': None, 'nobanner': False, 'pid_filename': 'httpserver.pid'}>"
p1011
asbasbasbag48
(g64
g50
NtRp1012
(dp1013
g53
(dp1014
sg62
g917
sg55
(lp1015
g48
(g69
g50
NtRp1016
(dp1017
g53
(dp1018
g73
g74
ssg62
g1012
sg55
(lp1019
S'content_length'
p1020
asbag48
(g69
g50
NtRp1021
(dp1022
g53
(dp1023
g80
g81
ssg62
g1012
sg55
(lp1024
S':'
asbag48
(g69
g50
NtRp1025
(dp1026
g53
(dp1027
sg62
g1012
sg55
(lp1028
g48
(g49
g50
NtRp1029
(dp1030
g53
(dp1031
g61
I4
ssg62
g1025
sg55
(lp1032
S'1924'
p1033
asbasbasbag48
(g64
g50
NtRp1034
(dp1035
g53
(dp1036
sg62
g917
sg55
(lp1037
g48
(g69
g50
NtRp1038
(dp1039
g53
(dp1040
g73
g74
ssg62
g1034
sg55
(lp1041
S'content_type'
p1042
asbag48
(g69
g50
NtRp1043
(dp1044
g53
(dp1045
g80
g81
ssg62
g1034
sg55
(lp1046
S':'
asbag48
(g69
g50
NtRp1047
(dp1048
g53
(dp1049
sg62
g1034
sg55
(lp1050
g48
(g49
g50
NtRp1051
(dp1052
g53
(dp1053
g61
I4
ssg62
g1047
sg55
(lp1054
S'multipart/form-data; boundary=---------------------------288011472313490'
p1055
asbasbasbag48
(g64
g50
NtRp1056
(dp1057
g53
(dp1058
sg62
g917
sg55
(lp1059
g48
(g69
g50
NtRp1060
(dp1061
g53
(dp1062
g73
g74
ssg62
g1056
sg55
(lp1063
S'db_sessions'
p1064
asbag48
(g69
g50
NtRp1065
(dp1066
g53
(dp1067
g80
g81
ssg62
g1056
sg55
(lp1068
S':'
asbag48
(g69
g50
NtRp1069
(dp1070
g53
(dp1071
sg62
g1056
sg55
(lp1072
g48
(g49
g50
NtRp1073
(dp1074
g53
(dp1075
g61
I4
ssg62
g1069
sg55
(lp1076
S'set([])'
p1077
asbasbasbag48
(g64
g50
NtRp1078
(dp1079
g53
(dp1080
sg62
g917
sg55
(lp1081
g48
(g69
g50
NtRp1082
(dp1083
g53
(dp1084
g73
g74
ssg62
g1078
sg55
(lp1085
S'debugging'
p1086
asbag48
(g69
g50
NtRp1087
(dp1088
g53
(dp1089
g80
g81
ssg62
g1078
sg55
(lp1090
S':'
asbag48
(g69
g50
NtRp1091
(dp1092
g53
(dp1093
sg62
g1078
sg55
(lp1094
g48
(g49
g50
NtRp1095
(dp1096
g53
(dp1097
g61
I4
ssg62
g1091
sg55
(lp1098
g91
asbasbasbag48
(g64
g50
NtRp1099
(dp1100
g53
(dp1101
sg62
g917
sg55
(lp1102
g48
(g69
g50
NtRp1103
(dp1104
g53
(dp1105
g73
g74
ssg62
g1099
sg55
(lp1106
S'gluon_parent'
p1107
asbag48
(g69
g50
NtRp1108
(dp1109
g53
(dp1110
g80
g81
ssg62
g1099
sg55
(lp1111
S':'
asbag48
(g69
g50
NtRp1112
(dp1113
g53
(dp1114
sg62
g1099
sg55
(lp1115
g48
(g49
g50
NtRp1116
(dp1117
g53
(dp1118
g61
I4
ssg62
g1112
sg55
(lp1119
S'C:\\Users\\Atomico\\web2py'
p1120
asbasbasbag48
(g64
g50
NtRp1121
(dp1122
g53
(dp1123
sg62
g917
sg55
(lp1124
g48
(g69
g50
NtRp1125
(dp1126
g53
(dp1127
g73
g74
ssg62
g1121
sg55
(lp1128
S'http_accept'
p1129
asbag48
(g69
g50
NtRp1130
(dp1131
g53
(dp1132
g80
g81
ssg62
g1121
sg55
(lp1133
S':'
asbag48
(g69
g50
NtRp1134
(dp1135
g53
(dp1136
sg62
g1121
sg55
(lp1137
g48
(g49
g50
NtRp1138
(dp1139
g53
(dp1140
g61
I4
ssg62
g1134
sg55
(lp1141
S'text/html,application/xhtml+xml,application/xml;q=0.9,*/*;q=0.8'
p1142
asbasbasbag48
(g64
g50
NtRp1143
(dp1144
g53
(dp1145
sg62
g917
sg55
(lp1146
g48
(g69
g50
NtRp1147
(dp1148
g53
(dp1149
g73
g74
ssg62
g1143
sg55
(lp1150
S'http_accept_charset'
p1151
asbag48
(g69
g50
NtRp1152
(dp1153
g53
(dp1154
g80
g81
ssg62
g1143
sg55
(lp1155
S':'
asbag48
(g69
g50
NtRp1156
(dp1157
g53
(dp1158
sg62
g1143
sg55
(lp1159
g48
(g49
g50
NtRp1160
(dp1161
g53
(dp1162
g61
I4
ssg62
g1156
sg55
(lp1163
S'ISO-8859-1,utf-8;q=0.7,*;q=0.7'
p1164
asbasbasbag48
(g64
g50
NtRp1165
(dp1166
g53
(dp1167
sg62
g917
sg55
(lp1168
g48
(g69
g50
NtRp1169
(dp1170
g53
(dp1171
g73
g74
ssg62
g1165
sg55
(lp1172
S'http_accept_encoding'
p1173
asbag48
(g69
g50
NtRp1174
(dp1175
g53
(dp1176
g80
g81
ssg62
g1165
sg55
(lp1177
S':'
asbag48
(g69
g50
NtRp1178
(dp1179
g53
(dp1180
sg62
g1165
sg55
(lp1181
g48
(g49
g50
NtRp1182
(dp1183
g53
(dp1184
g61
I4
ssg62
g1178
sg55
(lp1185
S'gzip, deflate'
p1186
asbasbasbag48
(g64
g50
NtRp1187
(dp1188
g53
(dp1189
sg62
g917
sg55
(lp1190
g48
(g69
g50
NtRp1191
(dp1192
g53
(dp1193
g73
g74
ssg62
g1187
sg55
(lp1194
S'http_accept_language'
p1195
asbag48
(g69
g50
NtRp1196
(dp1197
g53
(dp1198
g80
g81
ssg62
g1187
sg55
(lp1199
S':'
asbag48
(g69
g50
NtRp1200
(dp1201
g53
(dp1202
sg62
g1187
sg55
(lp1203
g48
(g49
g50
NtRp1204
(dp1205
g53
(dp1206
g61
I4
ssg62
g1200
sg55
(lp1207
S'es-es,es;q=0.8,en-us;q=0.5,en;q=0.3'
p1208
asbasbasbag48
(g64
g50
NtRp1209
(dp1210
g53
(dp1211
sg62
g917
sg55
(lp1212
g48
(g69
g50
NtRp1213
(dp1214
g53
(dp1215
g73
g74
ssg62
g1209
sg55
(lp1216
S'http_cache_control'
p1217
asbag48
(g69
g50
NtRp1218
(dp1219
g53
(dp1220
g80
g81
ssg62
g1209
sg55
(lp1221
S':'
asbag48
(g69
g50
NtRp1222
(dp1223
g53
(dp1224
sg62
g1209
sg55
(lp1225
g48
(g49
g50
NtRp1226
(dp1227
g53
(dp1228
g61
I4
ssg62
g1222
sg55
(lp1229
S'no-cache'
p1230
asbasbasbag48
(g64
g50
NtRp1231
(dp1232
g53
(dp1233
sg62
g917
sg55
(lp1234
g48
(g69
g50
NtRp1235
(dp1236
g53
(dp1237
g73
g74
ssg62
g1231
sg55
(lp1238
S'http_connection'
p1239
asbag48
(g69
g50
NtRp1240
(dp1241
g53
(dp1242
g80
g81
ssg62
g1231
sg55
(lp1243
S':'
asbag48
(g69
g50
NtRp1244
(dp1245
g53
(dp1246
sg62
g1231
sg55
(lp1247
g48
(g49
g50
NtRp1248
(dp1249
g53
(dp1250
g61
I4
ssg62
g1244
sg55
(lp1251
S'keep-alive'
p1252
asbasbasbag48
(g64
g50
NtRp1253
(dp1254
g53
(dp1255
sg62
g917
sg55
(lp1256
g48
(g69
g50
NtRp1257
(dp1258
g53
(dp1259
g73
g74
ssg62
g1253
sg55
(lp1260
S'http_content_length'
p1261
asbag48
(g69
g50
NtRp1262
(dp1263
g53
(dp1264
g80
g81
ssg62
g1253
sg55
(lp1265
S':'
asbag48
(g69
g50
NtRp1266
(dp1267
g53
(dp1268
sg62
g1253
sg55
(lp1269
g48
(g49
g50
NtRp1270
(dp1271
g53
(dp1272
g61
I4
ssg62
g1266
sg55
(lp1273
g1033
asbasbasbag48
(g64
g50
NtRp1274
(dp1275
g53
(dp1276
sg62
g917
sg55
(lp1277
g48
(g69
g50
NtRp1278
(dp1279
g53
(dp1280
g73
g74
ssg62
g1274
sg55
(lp1281
S'http_content_type'
p1282
asbag48
(g69
g50
NtRp1283
(dp1284
g53
(dp1285
g80
g81
ssg62
g1274
sg55
(lp1286
S':'
asbag48
(g69
g50
NtRp1287
(dp1288
g53
(dp1289
sg62
g1274
sg55
(lp1290
g48
(g49
g50
NtRp1291
(dp1292
g53
(dp1293
g61
I4
ssg62
g1287
sg55
(lp1294
g1055
asbasbasbag48
(g64
g50
NtRp1295
(dp1296
g53
(dp1297
sg62
g917
sg55
(lp1298
g48
(g69
g50
NtRp1299
(dp1300
g53
(dp1301
g73
g74
ssg62
g1295
sg55
(lp1302
S'http_cookie'
p1303
asbag48
(g69
g50
NtRp1304
(dp1305
g53
(dp1306
g80
g81
ssg62
g1295
sg55
(lp1307
S':'
asbag48
(g69
g50
NtRp1308
(dp1309
g53
(dp1310
sg62
g1295
sg55
(lp1311
g48
(g49
g50
NtRp1312
(dp1313
g53
(dp1314
g61
I4
ssg62
g1308
sg55
(lp1315
S'session_id_welcome=127.0.0.1-082a2830-9bb6-4bfb-b2e2-4857b06c191e; session_id_admin=127.0.0.1-c7466ffc-af7a-4e04-a40d-5c71f3f606fb; session_id_listado_1=127.0.0.1-477ec098-5436-4f6e-bfee-1a0bd88f6f9e; session_id_desglosar_emails=127.0.0.1-0a11b3b2-660c-433c-b71f-fc129286f26c'
p1316
asbasbasbag48
(g64
g50
NtRp1317
(dp1318
g53
(dp1319
sg62
g917
sg55
(lp1320
g48
(g69
g50
NtRp1321
(dp1322
g53
(dp1323
g73
g74
ssg62
g1317
sg55
(lp1324
S'http_host'
p1325
asbag48
(g69
g50
NtRp1326
(dp1327
g53
(dp1328
g80
g81
ssg62
g1317
sg55
(lp1329
S':'
asbag48
(g69
g50
NtRp1330
(dp1331
g53
(dp1332
sg62
g1317
sg55
(lp1333
g48
(g49
g50
NtRp1334
(dp1335
g53
(dp1336
g61
I4
ssg62
g1330
sg55
(lp1337
S'127.0.0.1:8000'
p1338
asbasbasbag48
(g64
g50
NtRp1339
(dp1340
g53
(dp1341
sg62
g917
sg55
(lp1342
g48
(g69
g50
NtRp1343
(dp1344
g53
(dp1345
g73
g74
ssg62
g1339
sg55
(lp1346
S'http_pragma'
p1347
asbag48
(g69
g50
NtRp1348
(dp1349
g53
(dp1350
g80
g81
ssg62
g1339
sg55
(lp1351
S':'
asbag48
(g69
g50
NtRp1352
(dp1353
g53
(dp1354
sg62
g1339
sg55
(lp1355
g48
(g49
g50
NtRp1356
(dp1357
g53
(dp1358
g61
I4
ssg62
g1352
sg55
(lp1359
S'no-cache'
p1360
asbasbasbag48
(g64
g50
NtRp1361
(dp1362
g53
(dp1363
sg62
g917
sg55
(lp1364
g48
(g69
g50
NtRp1365
(dp1366
g53
(dp1367
g73
g74
ssg62
g1361
sg55
(lp1368
S'http_referer'
p1369
asbag48
(g69
g50
NtRp1370
(dp1371
g53
(dp1372
g80
g81
ssg62
g1361
sg55
(lp1373
S':'
asbag48
(g69
g50
NtRp1374
(dp1375
g53
(dp1376
sg62
g1361
sg55
(lp1377
g48
(g49
g50
NtRp1378
(dp1379
g53
(dp1380
g61
I4
ssg62
g1374
sg55
(lp1381
S'http://127.0.0.1:8000/Desglosar_Emails/default/entrada'
p1382
asbasbasbag48
(g64
g50
NtRp1383
(dp1384
g53
(dp1385
sg62
g917
sg55
(lp1386
g48
(g69
g50
NtRp1387
(dp1388
g53
(dp1389
g73
g74
ssg62
g1383
sg55
(lp1390
S'http_user_agent'
p1391
asbag48
(g69
g50
NtRp1392
(dp1393
g53
(dp1394
g80
g81
ssg62
g1383
sg55
(lp1395
S':'
asbag48
(g69
g50
NtRp1396
(dp1397
g53
(dp1398
sg62
g1383
sg55
(lp1399
g48
(g49
g50
NtRp1400
(dp1401
g53
(dp1402
g61
I4
ssg62
g1396
sg55
(lp1403
S'Mozilla/5.0 (Windows NT 6.1; WOW64; rv:6.0.2) Gecko/20100101 Firefox/6.0.2'
p1404
asbasbasbag48
(g64
g50
NtRp1405
(dp1406
g53
(dp1407
sg62
g917
sg55
(lp1408
g48
(g69
g50
NtRp1409
(dp1410
g53
(dp1411
g73
g74
ssg62
g1405
sg55
(lp1412
S'is_jython'
p1413
asbag48
(g69
g50
NtRp1414
(dp1415
g53
(dp1416
g80
g81
ssg62
g1405
sg55
(lp1417
S':'
asbag48
(g69
g50
NtRp1418
(dp1419
g53
(dp1420
sg62
g1405
sg55
(lp1421
g48
(g49
g50
NtRp1422
(dp1423
g53
(dp1424
g61
I4
ssg62
g1418
sg55
(lp1425
g91
asbasbasbag48
(g64
g50
NtRp1426
(dp1427
g53
(dp1428
sg62
g917
sg55
(lp1429
g48
(g69
g50
NtRp1430
(dp1431
g53
(dp1432
g73
g74
ssg62
g1426
sg55
(lp1433
S'path_info'
p1434
asbag48
(g69
g50
NtRp1435
(dp1436
g53
(dp1437
g80
g81
ssg62
g1426
sg55
(lp1438
S':'
asbag48
(g69
g50
NtRp1439
(dp1440
g53
(dp1441
sg62
g1426
sg55
(lp1442
g48
(g49
g50
NtRp1443
(dp1444
g53
(dp1445
g61
I4
ssg62
g1439
sg55
(lp1446
S'/Desglosar_Emails/default/entrada'
p1447
asbasbasbag48
(g64
g50
NtRp1448
(dp1449
g53
(dp1450
sg62
g917
sg55
(lp1451
g48
(g69
g50
NtRp1452
(dp1453
g53
(dp1454
g73
g74
ssg62
g1448
sg55
(lp1455
S'query_string'
p1456
asbag48
(g69
g50
NtRp1457
(dp1458
g53
(dp1459
g80
g81
ssg62
g1448
sg55
(lp1460
S':'
asbag48
(g69
g50
NtRp1461
(dp1462
g53
(dp1463
sg62
g1448
sg55
(lp1464
g48
(g49
g50
NtRp1465
(dp1466
g53
(dp1467
g61
I4
ssg62
g1461
sg55
(lp1468
S''
asbasbasbag48
(g64
g50
NtRp1469
(dp1470
g53
(dp1471
sg62
g917
sg55
(lp1472
g48
(g69
g50
NtRp1473
(dp1474
g53
(dp1475
g73
g74
ssg62
g1469
sg55
(lp1476
S'remote_addr'
p1477
asbag48
(g69
g50
NtRp1478
(dp1479
g53
(dp1480
g80
g81
ssg62
g1469
sg55
(lp1481
S':'
asbag48
(g69
g50
NtRp1482
(dp1483
g53
(dp1484
sg62
g1469
sg55
(lp1485
g48
(g49
g50
NtRp1486
(dp1487
g53
(dp1488
g61
I4
ssg62
g1482
sg55
(lp1489
g181
asbasbasbag48
(g64
g50
NtRp1490
(dp1491
g53
(dp1492
sg62
g917
sg55
(lp1493
g48
(g69
g50
NtRp1494
(dp1495
g53
(dp1496
g73
g74
ssg62
g1490
sg55
(lp1497
S'remote_port'
p1498
asbag48
(g69
g50
NtRp1499
(dp1500
g53
(dp1501
g80
g81
ssg62
g1490
sg55
(lp1502
S':'
asbag48
(g69
g50
NtRp1503
(dp1504
g53
(dp1505
sg62
g1490
sg55
(lp1506
g48
(g49
g50
NtRp1507
(dp1508
g53
(dp1509
g61
I4
ssg62
g1503
sg55
(lp1510
S'57640'
p1511
asbasbasbag48
(g64
g50
NtRp1512
(dp1513
g53
(dp1514
sg62
g917
sg55
(lp1515
g48
(g69
g50
NtRp1516
(dp1517
g53
(dp1518
g73
g74
ssg62
g1512
sg55
(lp1519
S'request_method'
p1520
asbag48
(g69
g50
NtRp1521
(dp1522
g53
(dp1523
g80
g81
ssg62
g1512
sg55
(lp1524
S':'
asbag48
(g69
g50
NtRp1525
(dp1526
g53
(dp1527
sg62
g1512
sg55
(lp1528
g48
(g49
g50
NtRp1529
(dp1530
g53
(dp1531
g61
I4
ssg62
g1525
sg55
(lp1532
S'POST'
p1533
asbasbasbag48
(g64
g50
NtRp1534
(dp1535
g53
(dp1536
sg62
g917
sg55
(lp1537
g48
(g69
g50
NtRp1538
(dp1539
g53
(dp1540
g73
g74
ssg62
g1534
sg55
(lp1541
S'script_name'
p1542
asbag48
(g69
g50
NtRp1543
(dp1544
g53
(dp1545
g80
g81
ssg62
g1534
sg55
(lp1546
S':'
asbag48
(g69
g50
NtRp1547
(dp1548
g53
(dp1549
sg62
g1534
sg55
(lp1550
g48
(g49
g50
NtRp1551
(dp1552
g53
(dp1553
g61
I4
ssg62
g1547
sg55
(lp1554
S''
asbasbasbag48
(g64
g50
NtRp1555
(dp1556
g53
(dp1557
sg62
g917
sg55
(lp1558
g48
(g69
g50
NtRp1559
(dp1560
g53
(dp1561
g73
g74
ssg62
g1555
sg55
(lp1562
S'server_name'
p1563
asbag48
(g69
g50
NtRp1564
(dp1565
g53
(dp1566
g80
g81
ssg62
g1555
sg55
(lp1567
S':'
asbag48
(g69
g50
NtRp1568
(dp1569
g53
(dp1570
sg62
g1555
sg55
(lp1571
g48
(g49
g50
NtRp1572
(dp1573
g53
(dp1574
g61
I4
ssg62
g1568
sg55
(lp1575
S'Swing'
p1576
asbasbasbag48
(g64
g50
NtRp1577
(dp1578
g53
(dp1579
sg62
g917
sg55
(lp1580
g48
(g69
g50
NtRp1581
(dp1582
g53
(dp1583
g73
g74
ssg62
g1577
sg55
(lp1584
S'server_port'
p1585
asbag48
(g69
g50
NtRp1586
(dp1587
g53
(dp1588
g80
g81
ssg62
g1577
sg55
(lp1589
S':'
asbag48
(g69
g50
NtRp1590
(dp1591
g53
(dp1592
sg62
g1577
sg55
(lp1593
g48
(g49
g50
NtRp1594
(dp1595
g53
(dp1596
g61
I4
ssg62
g1590
sg55
(lp1597
S'8000'
p1598
asbasbasbag48
(g64
g50
NtRp1599
(dp1600
g53
(dp1601
sg62
g917
sg55
(lp1602
g48
(g69
g50
NtRp1603
(dp1604
g53
(dp1605
g73
g74
ssg62
g1599
sg55
(lp1606
S'server_protocol'
p1607
asbag48
(g69
g50
NtRp1608
(dp1609
g53
(dp1610
g80
g81
ssg62
g1599
sg55
(lp1611
S':'
asbag48
(g69
g50
NtRp1612
(dp1613
g53
(dp1614
sg62
g1599
sg55
(lp1615
g48
(g49
g50
NtRp1616
(dp1617
g53
(dp1618
g61
I4
ssg62
g1612
sg55
(lp1619
S'HTTP/1.1'
p1620
asbasbasbag48
(g64
g50
NtRp1621
(dp1622
g53
(dp1623
sg62
g917
sg55
(lp1624
g48
(g69
g50
NtRp1625
(dp1626
g53
(dp1627
g73
g74
ssg62
g1621
sg55
(lp1628
S'server_software'
p1629
asbag48
(g69
g50
NtRp1630
(dp1631
g53
(dp1632
g80
g81
ssg62
g1621
sg55
(lp1633
S':'
asbag48
(g69
g50
NtRp1634
(dp1635
g53
(dp1636
sg62
g1621
sg55
(lp1637
g48
(g49
g50
NtRp1638
(dp1639
g53
(dp1640
g61
I4
ssg62
g1634
sg55
(lp1641
S'Rocket 1.2.2'
p1642
asbasbasbag48
(g64
g50
NtRp1643
(dp1644
g53
(dp1645
sg62
g917
sg55
(lp1646
g48
(g69
g50
NtRp1647
(dp1648
g53
(dp1649
g73
g74
ssg62
g1643
sg55
(lp1650
S'web2py_crontype'
p1651
asbag48
(g69
g50
NtRp1652
(dp1653
g53
(dp1654
g80
g81
ssg62
g1643
sg55
(lp1655
S':'
asbag48
(g69
g50
NtRp1656
(dp1657
g53
(dp1658
sg62
g1643
sg55
(lp1659
g48
(g49
g50
NtRp1660
(dp1661
g53
(dp1662
g61
I4
ssg62
g1656
sg55
(lp1663
S'hard'
p1664
asbasbasbag48
(g64
g50
NtRp1665
(dp1666
g53
(dp1667
sg62
g917
sg55
(lp1668
g48
(g69
g50
NtRp1669
(dp1670
g53
(dp1671
g73
g74
ssg62
g1665
sg55
(lp1672
S'web2py_path'
p1673
asbag48
(g69
g50
NtRp1674
(dp1675
g53
(dp1676
g80
g81
ssg62
g1665
sg55
(lp1677
S':'
asbag48
(g69
g50
NtRp1678
(dp1679
g53
(dp1680
sg62
g1665
sg55
(lp1681
g48
(g49
g50
NtRp1682
(dp1683
g53
(dp1684
g61
I4
ssg62
g1678
sg55
(lp1685
g964
asbasbasbag48
(g64
g50
NtRp1686
(dp1687
g53
(dp1688
sg62
g917
sg55
(lp1689
g48
(g69
g50
NtRp1690
(dp1691
g53
(dp1692
g73
g74
ssg62
g1686
sg55
(lp1693
S'web2py_version'
p1694
asbag48
(g69
g50
NtRp1695
(dp1696
g53
(dp1697
g80
g81
ssg62
g1686
sg55
(lp1698
S':'
asbag48
(g69
g50
NtRp1699
(dp1700
g53
(dp1701
sg62
g1686
sg55
(lp1702
g48
(g49
g50
NtRp1703
(dp1704
g53
(dp1705
g61
I4
ssg62
g1699
sg55
(lp1706
S'Version 1.98.2 (2011-08-04 00:47:09)\n'
p1707
asbasbasbag48
(g64
g50
NtRp1708
(dp1709
g53
(dp1710
sg62
g917
sg55
(lp1711
g48
(g69
g50
NtRp1712
(dp1713
g53
(dp1714
g73
g74
ssg62
g1708
sg55
(lp1715
S'wsgi_errors'
p1716
asbag48
(g69
g50
NtRp1717
(dp1718
g53
(dp1719
g80
g81
ssg62
g1708
sg55
(lp1720
S':'
asbag48
(g69
g50
NtRp1721
(dp1722
g53
(dp1723
sg62
g1708
sg55
(lp1724
g48
(g49
g50
NtRp1725
(dp1726
g53
(dp1727
g61
I4
ssg62
g1721
sg55
(lp1728
S"<open file '<stderr>', mode 'w' at 0x01F500B0>"
p1729
asbasbasbag48
(g64
g50
NtRp1730
(dp1731
g53
(dp1732
sg62
g917
sg55
(lp1733
g48
(g69
g50
NtRp1734
(dp1735
g53
(dp1736
g73
g74
ssg62
g1730
sg55
(lp1737
S'wsgi_file_wrapper'
p1738
asbag48
(g69
g50
NtRp1739
(dp1740
g53
(dp1741
g80
g81
ssg62
g1730
sg55
(lp1742
S':'
asbag48
(g69
g50
NtRp1743
(dp1744
g53
(dp1745
sg62
g1730
sg55
(lp1746
g48
(g49
g50
NtRp1747
(dp1748
g53
(dp1749
g61
I4
ssg62
g1743
sg55
(lp1750
S'<class gluon.rocket.FileWrapper at 0x0308C1B0>'
p1751
asbasbasbag48
(g64
g50
NtRp1752
(dp1753
g53
(dp1754
sg62
g917
sg55
(lp1755
g48
(g69
g50
NtRp1756
(dp1757
g53
(dp1758
g73
g74
ssg62
g1752
sg55
(lp1759
S'wsgi_input'
p1760
asbag48
(g69
g50
NtRp1761
(dp1762
g53
(dp1763
g80
g81
ssg62
g1752
sg55
(lp1764
S':'
asbag48
(g69
g50
NtRp1765
(dp1766
g53
(dp1767
sg62
g1752
sg55
(lp1768
g48
(g49
g50
NtRp1769
(dp1770
g53
(dp1771
g61
I4
ssg62
g1765
sg55
(lp1772
S'<socket._fileobject object at 0x075E7E70>'
p1773
asbasbasbag48
(g64
g50
NtRp1774
(dp1775
g53
(dp1776
sg62
g917
sg55
(lp1777
g48
(g69
g50
NtRp1778
(dp1779
g53
(dp1780
g73
g74
ssg62
g1774
sg55
(lp1781
S'wsgi_multiprocess'
p1782
asbag48
(g69
g50
NtRp1783
(dp1784
g53
(dp1785
g80
g81
ssg62
g1774
sg55
(lp1786
S':'
asbag48
(g69
g50
NtRp1787
(dp1788
g53
(dp1789
sg62
g1774
sg55
(lp1790
g48
(g49
g50
NtRp1791
(dp1792
g53
(dp1793
g61
I4
ssg62
g1787
sg55
(lp1794
g91
asbasbasbag48
(g64
g50
NtRp1795
(dp1796
g53
(dp1797
sg62
g917
sg55
(lp1798
g48
(g69
g50
NtRp1799
(dp1800
g53
(dp1801
g73
g74
ssg62
g1795
sg55
(lp1802
S'wsgi_multithread'
p1803
asbag48
(g69
g50
NtRp1804
(dp1805
g53
(dp1806
g80
g81
ssg62
g1795
sg55
(lp1807
S':'
asbag48
(g69
g50
NtRp1808
(dp1809
g53
(dp1810
sg62
g1795
sg55
(lp1811
g48
(g49
g50
NtRp1812
(dp1813
g53
(dp1814
g61
I4
ssg62
g1808
sg55
(lp1815
S'True'
p1816
asbasbasbag48
(g64
g50
NtRp1817
(dp1818
g53
(dp1819
sg62
g917
sg55
(lp1820
g48
(g69
g50
NtRp1821
(dp1822
g53
(dp1823
g73
g74
ssg62
g1817
sg55
(lp1824
S'wsgi_run_once'
p1825
asbag48
(g69
g50
NtRp1826
(dp1827
g53
(dp1828
g80
g81
ssg62
g1817
sg55
(lp1829
S':'
asbag48
(g69
g50
NtRp1830
(dp1831
g53
(dp1832
sg62
g1817
sg55
(lp1833
g48
(g49
g50
NtRp1834
(dp1835
g53
(dp1836
g61
I4
ssg62
g1830
sg55
(lp1837
g91
asbasbasbag48
(g64
g50
NtRp1838
(dp1839
g53
(dp1840
sg62
g917
sg55
(lp1841
g48
(g69
g50
NtRp1842
(dp1843
g53
(dp1844
g73
g74
ssg62
g1838
sg55
(lp1845
S'wsgi_url_scheme'
p1846
asbag48
(g69
g50
NtRp1847
(dp1848
g53
(dp1849
g80
g81
ssg62
g1838
sg55
(lp1850
S':'
asbag48
(g69
g50
NtRp1851
(dp1852
g53
(dp1853
sg62
g1838
sg55
(lp1854
g48
(g49
g50
NtRp1855
(dp1856
g53
(dp1857
g61
I4
ssg62
g1851
sg55
(lp1858
S'http'
p1859
asbasbasbag48
(g64
g50
NtRp1860
(dp1861
g53
(dp1862
sg62
g917
sg55
(lp1863
g48
(g69
g50
NtRp1864
(dp1865
g53
(dp1866
g73
g74
ssg62
g1860
sg55
(lp1867
S'wsgi_version'
p1868
asbag48
(g69
g50
NtRp1869
(dp1870
g53
(dp1871
g80
g81
ssg62
g1860
sg55
(lp1872
S':'
asbag48
(g69
g50
NtRp1873
(dp1874
g53
(dp1875
sg62
g1860
sg55
(lp1876
g48
(g49
g50
NtRp1877
(dp1878
g53
(dp1879
g61
I4
ssg62
g1873
sg55
(lp1880
g48
(g57
g50
NtRp1881
(dp1882
g53
(dp1883
g61
I3
ssg62
Nsg55
(lp1884
g48
(g64
g50
NtRp1885
(dp1886
g53
(dp1887
sg62
g1881
sg55
(lp1888
g48
(g69
g50
NtRp1889
(dp1890
g53
(dp1891
sg62
g1885
sg55
(lp1892
g48
(g49
g50
NtRp1893
(dp1894
g53
(dp1895
g61
I3
ssg62
g1889
sg55
(lp1896
S'1'
asbasbasbag48
(g64
g50
NtRp1897
(dp1898
g53
(dp1899
sg62
g1881
sg55
(lp1900
g48
(g69
g50
NtRp1901
(dp1902
g53
(dp1903
sg62
g1897
sg55
(lp1904
g48
(g49
g50
NtRp1905
(dp1906
g53
(dp1907
g61
I3
ssg62
g1901
sg55
(lp1908
S'0'
asbasbasbasbasbasbasbasbasbasbasbag48
(g64
g50
NtRp1909
(dp1910
g53
(dp1911
sg62
g58
sg55
(lp1912
g48
(g69
g50
NtRp1913
(dp1914
g53
(dp1915
g73
g74
ssg62
g1909
sg55
(lp1916
S'extension'
p1917
asbag48
(g69
g50
NtRp1918
(dp1919
g53
(dp1920
g80
g81
ssg62
g1909
sg55
(lp1921
S':'
asbag48
(g69
g50
NtRp1922
(dp1923
g53
(dp1924
sg62
g1909
sg55
(lp1925
g48
(g49
g50
NtRp1926
(dp1927
g53
(dp1928
g61
I5
ssg62
g1922
sg55
(lp1929
S'html'
p1930
asbasbasbag48
(g64
g50
NtRp1931
(dp1932
g53
(dp1933
sg62
g58
sg55
(lp1934
g48
(g69
g50
NtRp1935
(dp1936
g53
(dp1937
g73
g74
ssg62
g1931
sg55
(lp1938
S'folder'
p1939
asbag48
(g69
g50
NtRp1940
(dp1941
g53
(dp1942
g80
g81
ssg62
g1931
sg55
(lp1943
S':'
asbag48
(g69
g50
NtRp1944
(dp1945
g53
(dp1946
sg62
g1931
sg55
(lp1947
g48
(g49
g50
NtRp1948
(dp1949
g53
(dp1950
g61
I5
ssg62
g1944
sg55
(lp1951
S'C:\\Users\\Atomico\\web2py\\applications\\Desglosar_Emails\\'
p1952
asbasbasbag48
(g64
g50
NtRp1953
(dp1954
g53
(dp1955
sg62
g58
sg55
(lp1956
g48
(g69
g50
NtRp1957
(dp1958
g53
(dp1959
g73
g74
ssg62
g1953
sg55
(lp1960
S'function'
p1961
asbag48
(g69
g50
NtRp1962
(dp1963
g53
(dp1964
g80
g81
ssg62
g1953
sg55
(lp1965
S':'
asbag48
(g69
g50
NtRp1966
(dp1967
g53
(dp1968
sg62
g1953
sg55
(lp1969
g48
(g49
g50
NtRp1970
(dp1971
g53
(dp1972
g61
I5
ssg62
g1966
sg55
(lp1973
S'entrada'
p1974
asbasbasbag48
(g64
g50
NtRp1975
(dp1976
g53
(dp1977
sg62
g58
sg55
(lp1978
g48
(g69
g50
NtRp1979
(dp1980
g53
(dp1981
g73
g74
ssg62
g1975
sg55
(lp1982
S'get_vars'
p1983
asbag48
(g69
g50
NtRp1984
(dp1985
g53
(dp1986
g80
g81
ssg62
g1975
sg55
(lp1987
S':'
asbag48
(g69
g50
NtRp1988
(dp1989
g53
(dp1990
sg62
g1975
sg55
(lp1991
g48
(g49
g50
NtRp1992
(dp1993
g53
(dp1994
g61
I5
ssg62
g1988
sg55
(lp1995
g48
(g57
g50
NtRp1996
(dp1997
g53
(dp1998
g61
I4
ssg62
Nsg55
(lp1999
sbasbasbasbag48
(g64
g50
NtRp2000
(dp2001
g53
(dp2002
sg62
g58
sg55
(lp2003
g48
(g69
g50
NtRp2004
(dp2005
g53
(dp2006
g73
g74
ssg62
g2000
sg55
(lp2007
S'is_https'
p2008
asbag48
(g69
g50
NtRp2009
(dp2010
g53
(dp2011
g80
g81
ssg62
g2000
sg55
(lp2012
S':'
asbag48
(g69
g50
NtRp2013
(dp2014
g53
(dp2015
sg62
g2000
sg55
(lp2016
g48
(g49
g50
NtRp2017
(dp2018
g53
(dp2019
g61
I5
ssg62
g2013
sg55
(lp2020
g91
asbasbasbag48
(g64
g50
NtRp2021
(dp2022
g53
(dp2023
sg62
g58
sg55
(lp2024
g48
(g69
g50
NtRp2025
(dp2026
g53
(dp2027
g73
g74
ssg62
g2021
sg55
(lp2028
S'is_local'
p2029
asbag48
(g69
g50
NtRp2030
(dp2031
g53
(dp2032
g80
g81
ssg62
g2021
sg55
(lp2033
S':'
asbag48
(g69
g50
NtRp2034
(dp2035
g53
(dp2036
sg62
g2021
sg55
(lp2037
g48
(g49
g50
NtRp2038
(dp2039
g53
(dp2040
g61
I5
ssg62
g2034
sg55
(lp2041
g1816
asbasbasbag48
(g64
g50
NtRp2042
(dp2043
g53
(dp2044
sg62
g58
sg55
(lp2045
g48
(g69
g50
NtRp2046
(dp2047
g53
(dp2048
g73
g74
ssg62
g2042
sg55
(lp2049
S'is_restful'
p2050
asbag48
(g69
g50
NtRp2051
(dp2052
g53
(dp2053
g80
g81
ssg62
g2042
sg55
(lp2054
S':'
asbag48
(g69
g50
NtRp2055
(dp2056
g53
(dp2057
sg62
g2042
sg55
(lp2058
g48
(g49
g50
NtRp2059
(dp2060
g53
(dp2061
g61
I5
ssg62
g2055
sg55
(lp2062
g91
asbasbasbag48
(g64
g50
NtRp2063
(dp2064
g53
(dp2065
sg62
g58
sg55
(lp2066
g48
(g69
g50
NtRp2067
(dp2068
g53
(dp2069
g73
g74
ssg62
g2063
sg55
(lp2070
S'now'
p2071
asbag48
(g69
g50
NtRp2072
(dp2073
g53
(dp2074
g80
g81
ssg62
g2063
sg55
(lp2075
S':'
asbag48
(g69
g50
NtRp2076
(dp2077
g53
(dp2078
sg62
g2063
sg55
(lp2079
g48
(g49
g50
NtRp2080
(dp2081
g53
(dp2082
g61
I5
ssg62
g2076
sg55
(lp2083
S'datetime.datetime(2011, 9, 18, 10, 9, 29, 87000)'
p2084
asbasbasbag48
(g64
g50
NtRp2085
(dp2086
g53
(dp2087
sg62
g58
sg55
(lp2088
g48
(g69
g50
NtRp2089
(dp2090
g53
(dp2091
g73
g74
ssg62
g2085
sg55
(lp2092
S'post_vars'
p2093
asbag48
(g69
g50
NtRp2094
(dp2095
g53
(dp2096
g80
g81
ssg62
g2085
sg55
(lp2097
S':'
asbag48
(g69
g50
NtRp2098
(dp2099
g53
(dp2100
sg62
g2085
sg55
(lp2101
g48
(g49
g50
NtRp2102
(dp2103
g53
(dp2104
g61
I5
ssg62
g2098
sg55
(lp2105
g48
(g57
g50
NtRp2106
(dp2107
g53
(dp2108
g61
I4
ssg62
Nsg55
(lp2109
g48
(g64
g50
NtRp2110
(dp2111
g53
(dp2112
sg62
g2106
sg55
(lp2113
g48
(g69
g50
NtRp2114
(dp2115
g53
(dp2116
g73
g74
ssg62
g2110
sg55
(lp2117
S'texto'
p2118
asbag48
(g69
g50
NtRp2119
(dp2120
g53
(dp2121
g80
g81
ssg62
g2110
sg55
(lp2122
S':'
asbag48
(g69
g50
NtRp2123
(dp2124
g53
(dp2125
sg62
g2110
sg55
(lp2126
g48
(g49
g50
NtRp2127
(dp2128
g53
(dp2129
g61
I4
ssg62
g2123
sg55
(lp2130
S'onkicaronki@hotmail.com, cecilia.prada@fastwebnet.it, gallo.moa@gmail.com, ferrer_chinchilla@yahoo.es  RESTI (restign@hotmail.com); Natacion, Luis (enebel1@euskalnet.net); Natacion, Jose Manuel (jmprieto@ashland.com); Natacion, club (cdnmeatzaldea@hotmail.com); Mikel (mikelvitores7@hotmail.com); Maite (maitemoran1@hotmail.com); Luisma (lmfullaondo@hotmail.com); Luis Angel (labengoetxea@hotmail.com); i\xc3\xb1aki vitores pascual (ivitorespascual@hotmail.com); I\xc3\xb1aki (zitrofulmi@hotmail.com); I\xc3\xb1aki - euskaltel (ivitores@euskaltel.net); Gaizka (gaiz_tami@hotmail.com); G. Yoli (bizkaitar@yahoo.es); G. Vicente (dimeqsikballero1967@hotmail.com); G. Txomin (txominsanchez@hotmail.com); G. Sergio (sergirgutierrez@hotmail.com); G. Luis (drtedio@hotmail.com); G. Lucio (instri@hotmail.com); G. Koldo (atilanoh@hotmail.com); G. Jesus (kurru@euskalnet.net); G. Javi (soka_sestao@hotmail.com); G. Jasone (bizkuter@hotmail.es); G. Iban (askatasun_bideak@hotmail.com); G. Gorka (gorkitarob@gmail.com); G Alejandro (ajavier@euskalnet.net); Clarisa (clarisa_palomar@hotmail.com); Carolina Fullaondo (caryto73@hotmail.com); C. MANU@MONTSE (PORTU) (manu.mrnd@gmail.com); C. KE\xc3\x91O&AVELI (PORTU) (eu_cortes@yahoo.es); C. Javi Tamayo (Portu) (jtamayoe@msn.com); C. I\xc3\x91AKI&MAITE (PORTU) (ivitores@euskalnet.net); C. I\xc3\x91AKI&ANA (PORTU) (ialonso@euskalnet.net); C. EMILIO&CRISTINA (PORTU) (emilioanero@telefonica.net); C. ANDONI&ASCEN (PORTU) (andonibas@teleline.es); C. ANDONI @ISABEL (PORTU) (andysa@euskalnet.net); Bibi (bibianaperezsolano@hotmail.com)'
p2131
asbasbasbasbasbasbasbag48
(g64
g50
NtRp2132
(dp2133
g53
(dp2134
sg62
g58
sg55
(lp2135
g48
(g69
g50
NtRp2136
(dp2137
g53
(dp2138
g73
g74
ssg62
g2132
sg55
(lp2139
S'url'
p2140
asbag48
(g69
g50
NtRp2141
(dp2142
g53
(dp2143
g80
g81
ssg62
g2132
sg55
(lp2144
S':'
asbag48
(g69
g50
NtRp2145
(dp2146
g53
(dp2147
sg62
g2132
sg55
(lp2148
g48
(g49
g50
NtRp2149
(dp2150
g53
(dp2151
g61
I5
ssg62
g2145
sg55
(lp2152
S'/Desglosar_Emails/default/entrada'
p2153
asbasbasbag48
(g64
g50
NtRp2154
(dp2155
g53
(dp2156
sg62
g58
sg55
(lp2157
g48
(g69
g50
NtRp2158
(dp2159
g53
(dp2160
g73
g74
ssg62
g2154
sg55
(lp2161
S'uuid'
p2162
asbag48
(g69
g50
NtRp2163
(dp2164
g53
(dp2165
g80
g81
ssg62
g2154
sg55
(lp2166
S':'
asbag48
(g69
g50
NtRp2167
(dp2168
g53
(dp2169
sg62
g2154
sg55
(lp2170
g48
(g49
g50
NtRp2171
(dp2172
g53
(dp2173
g61
I5
ssg62
g2167
sg55
(lp2174
S'Desglosar_Emails/127.0.0.1.2011-09-18.10-09-29.abeb1eb4-9396-43b7-a736-ad93362bc9f3'
p2175
asbasbasbag48
(g64
g50
NtRp2176
(dp2177
g53
(dp2178
sg62
g58
sg55
(lp2179
g48
(g69
g50
NtRp2180
(dp2181
g53
(dp2182
g73
g74
ssg62
g2176
sg55
(lp2183
S'vars'
p2184
asbag48
(g69
g50
NtRp2185
(dp2186
g53
(dp2187
g80
g81
ssg62
g2176
sg55
(lp2188
S':'
asbag48
(g69
g50
NtRp2189
(dp2190
g53
(dp2191
sg62
g2176
sg55
(lp2192
g48
(g49
g50
NtRp2193
(dp2194
g53
(dp2195
g61
I5
ssg62
g2189
sg55
(lp2196
g48
(g57
g50
NtRp2197
(dp2198
g53
(dp2199
g61
I4
ssg62
Nsg55
(lp2200
g48
(g64
g50
NtRp2201
(dp2202
g53
(dp2203
sg62
g2197
sg55
(lp2204
g48
(g69
g50
NtRp2205
(dp2206
g53
(dp2207
g73
g74
ssg62
g2201
sg55
(lp2208
g2118
asbag48
(g69
g50
NtRp2209
(dp2210
g53
(dp2211
g80
g81
ssg62
g2201
sg55
(lp2212
S':'
asbag48
(g69
g50
NtRp2213
(dp2214
g53
(dp2215
sg62
g2201
sg55
(lp2216
g48
(g49
g50
NtRp2217
(dp2218
g53
(dp2219
g61
I4
ssg62
g2213
sg55
(lp2220
g2131
asbasbasbasbasbasbasbag48
(g64
g50
NtRp2221
(dp2222
g53
(dp2223
sg62
g58
sg55
(lp2224
g48
(g69
g50
NtRp2225
(dp2226
g53
(dp2227
g73
g74
ssg62
g2221
sg55
(lp2228
S'wsgi'
p2229
asbag48
(g69
g50
NtRp2230
(dp2231
g53
(dp2232
g80
g81
ssg62
g2221
sg55
(lp2233
S':'
asbag48
(g69
g50
NtRp2234
(dp2235
g53
(dp2236
sg62
g2221
sg55
(lp2237
g48
(g49
g50
NtRp2238
(dp2239
g53
(dp2240
g61
I5
ssg62
g2234
sg55
(lp2241
g48
(g57
g50
NtRp2242
(dp2243
g53
(dp2244
g61
I4
ssg62
Nsg55
(lp2245
g48
(g64
g50
NtRp2246
(dp2247
g53
(dp2248
sg62
g2242
sg55
(lp2249
g48
(g69
g50
NtRp2250
(dp2251
g53
(dp2252
g73
g74
ssg62
g2246
sg55
(lp2253
S'environ'
p2254
asbag48
(g69
g50
NtRp2255
(dp2256
g53
(dp2257
g80
g81
ssg62
g2246
sg55
(lp2258
S':'
asbag48
(g69
g50
NtRp2259
(dp2260
g53
(dp2261
sg62
g2246
sg55
(lp2262
g48
(g49
g50
NtRp2263
(dp2264
g53
(dp2265
g61
I4
ssg62
g2259
sg55
(lp2266
g48
(g57
g50
NtRp2267
(dp2268
g53
(dp2269
g61
I3
ssg62
Nsg55
(lp2270
g48
(g64
g50
NtRp2271
(dp2272
g53
(dp2273
sg62
g2267
sg55
(lp2274
g48
(g69
g50
NtRp2275
(dp2276
g53
(dp2277
g73
g74
ssg62
g2271
sg55
(lp2278
S'CONTENT_LENGTH'
p2279
asbag48
(g69
g50
NtRp2280
(dp2281
g53
(dp2282
g80
g81
ssg62
g2271
sg55
(lp2283
S':'
asbag48
(g69
g50
NtRp2284
(dp2285
g53
(dp2286
sg62
g2271
sg55
(lp2287
g48
(g49
g50
NtRp2288
(dp2289
g53
(dp2290
g61
I3
ssg62
g2284
sg55
(lp2291
g1033
asbasbasbag48
(g64
g50
NtRp2292
(dp2293
g53
(dp2294
sg62
g2267
sg55
(lp2295
g48
(g69
g50
NtRp2296
(dp2297
g53
(dp2298
g73
g74
ssg62
g2292
sg55
(lp2299
S'CONTENT_TYPE'
p2300
asbag48
(g69
g50
NtRp2301
(dp2302
g53
(dp2303
g80
g81
ssg62
g2292
sg55
(lp2304
S':'
asbag48
(g69
g50
NtRp2305
(dp2306
g53
(dp2307
sg62
g2292
sg55
(lp2308
g48
(g49
g50
NtRp2309
(dp2310
g53
(dp2311
g61
I3
ssg62
g2305
sg55
(lp2312
g1055
asbasbasbag48
(g64
g50
NtRp2313
(dp2314
g53
(dp2315
sg62
g2267
sg55
(lp2316
g48
(g69
g50
NtRp2317
(dp2318
g53
(dp2319
g73
g74
ssg62
g2313
sg55
(lp2320
S'HTTP_ACCEPT'
p2321
asbag48
(g69
g50
NtRp2322
(dp2323
g53
(dp2324
g80
g81
ssg62
g2313
sg55
(lp2325
S':'
asbag48
(g69
g50
NtRp2326
(dp2327
g53
(dp2328
sg62
g2313
sg55
(lp2329
g48
(g49
g50
NtRp2330
(dp2331
g53
(dp2332
g61
I3
ssg62
g2326
sg55
(lp2333
g1142
asbasbasbag48
(g64
g50
NtRp2334
(dp2335
g53
(dp2336
sg62
g2267
sg55
(lp2337
g48
(g69
g50
NtRp2338
(dp2339
g53
(dp2340
g73
g74
ssg62
g2334
sg55
(lp2341
S'HTTP_ACCEPT_CHARSET'
p2342
asbag48
(g69
g50
NtRp2343
(dp2344
g53
(dp2345
g80
g81
ssg62
g2334
sg55
(lp2346
S':'
asbag48
(g69
g50
NtRp2347
(dp2348
g53
(dp2349
sg62
g2334
sg55
(lp2350
g48
(g49
g50
NtRp2351
(dp2352
g53
(dp2353
g61
I3
ssg62
g2347
sg55
(lp2354
g1164
asbasbasbag48
(g64
g50
NtRp2355
(dp2356
g53
(dp2357
sg62
g2267
sg55
(lp2358
g48
(g69
g50
NtRp2359
(dp2360
g53
(dp2361
g73
g74
ssg62
g2355
sg55
(lp2362
S'HTTP_ACCEPT_ENCODING'
p2363
asbag48
(g69
g50
NtRp2364
(dp2365
g53
(dp2366
g80
g81
ssg62
g2355
sg55
(lp2367
S':'
asbag48
(g69
g50
NtRp2368
(dp2369
g53
(dp2370
sg62
g2355
sg55
(lp2371
g48
(g49
g50
NtRp2372
(dp2373
g53
(dp2374
g61
I3
ssg62
g2368
sg55
(lp2375
g1186
asbasbasbag48
(g64
g50
NtRp2376
(dp2377
g53
(dp2378
sg62
g2267
sg55
(lp2379
g48
(g69
g50
NtRp2380
(dp2381
g53
(dp2382
g73
g74
ssg62
g2376
sg55
(lp2383
S'HTTP_ACCEPT_LANGUAGE'
p2384
asbag48
(g69
g50
NtRp2385
(dp2386
g53
(dp2387
g80
g81
ssg62
g2376
sg55
(lp2388
S':'
asbag48
(g69
g50
NtRp2389
(dp2390
g53
(dp2391
sg62
g2376
sg55
(lp2392
g48
(g49
g50
NtRp2393
(dp2394
g53
(dp2395
g61
I3
ssg62
g2389
sg55
(lp2396
g1208
asbasbasbag48
(g64
g50
NtRp2397
(dp2398
g53
(dp2399
sg62
g2267
sg55
(lp2400
g48
(g69
g50
NtRp2401
(dp2402
g53
(dp2403
g73
g74
ssg62
g2397
sg55
(lp2404
S'HTTP_CACHE_CONTROL'
p2405
asbag48
(g69
g50
NtRp2406
(dp2407
g53
(dp2408
g80
g81
ssg62
g2397
sg55
(lp2409
S':'
asbag48
(g69
g50
NtRp2410
(dp2411
g53
(dp2412
sg62
g2397
sg55
(lp2413
g48
(g49
g50
NtRp2414
(dp2415
g53
(dp2416
g61
I3
ssg62
g2410
sg55
(lp2417
g1230
asbasbasbag48
(g64
g50
NtRp2418
(dp2419
g53
(dp2420
sg62
g2267
sg55
(lp2421
g48
(g69
g50
NtRp2422
(dp2423
g53
(dp2424
g73
g74
ssg62
g2418
sg55
(lp2425
S'HTTP_CONNECTION'
p2426
asbag48
(g69
g50
NtRp2427
(dp2428
g53
(dp2429
g80
g81
ssg62
g2418
sg55
(lp2430
S':'
asbag48
(g69
g50
NtRp2431
(dp2432
g53
(dp2433
sg62
g2418
sg55
(lp2434
g48
(g49
g50
NtRp2435
(dp2436
g53
(dp2437
g61
I3
ssg62
g2431
sg55
(lp2438
g1252
asbasbasbag48
(g64
g50
NtRp2439
(dp2440
g53
(dp2441
sg62
g2267
sg55
(lp2442
g48
(g69
g50
NtRp2443
(dp2444
g53
(dp2445
g73
g74
ssg62
g2439
sg55
(lp2446
S'HTTP_CONTENT_LENGTH'
p2447
asbag48
(g69
g50
NtRp2448
(dp2449
g53
(dp2450
g80
g81
ssg62
g2439
sg55
(lp2451
S':'
asbag48
(g69
g50
NtRp2452
(dp2453
g53
(dp2454
sg62
g2439
sg55
(lp2455
g48
(g49
g50
NtRp2456
(dp2457
g53
(dp2458
g61
I3
ssg62
g2452
sg55
(lp2459
g1033
asbasbasbag48
(g64
g50
NtRp2460
(dp2461
g53
(dp2462
sg62
g2267
sg55
(lp2463
g48
(g69
g50
NtRp2464
(dp2465
g53
(dp2466
g73
g74
ssg62
g2460
sg55
(lp2467
S'HTTP_CONTENT_TYPE'
p2468
asbag48
(g69
g50
NtRp2469
(dp2470
g53
(dp2471
g80
g81
ssg62
g2460
sg55
(lp2472
S':'
asbag48
(g69
g50
NtRp2473
(dp2474
g53
(dp2475
sg62
g2460
sg55
(lp2476
g48
(g49
g50
NtRp2477
(dp2478
g53
(dp2479
g61
I3
ssg62
g2473
sg55
(lp2480
g1055
asbasbasbag48
(g64
g50
NtRp2481
(dp2482
g53
(dp2483
sg62
g2267
sg55
(lp2484
g48
(g69
g50
NtRp2485
(dp2486
g53
(dp2487
g73
g74
ssg62
g2481
sg55
(lp2488
S'HTTP_COOKIE'
p2489
asbag48
(g69
g50
NtRp2490
(dp2491
g53
(dp2492
g80
g81
ssg62
g2481
sg55
(lp2493
S':'
asbag48
(g69
g50
NtRp2494
(dp2495
g53
(dp2496
sg62
g2481
sg55
(lp2497
g48
(g49
g50
NtRp2498
(dp2499
g53
(dp2500
g61
I3
ssg62
g2494
sg55
(lp2501
g1316
asbasbasbag48
(g64
g50
NtRp2502
(dp2503
g53
(dp2504
sg62
g2267
sg55
(lp2505
g48
(g69
g50
NtRp2506
(dp2507
g53
(dp2508
g73
g74
ssg62
g2502
sg55
(lp2509
S'HTTP_HOST'
p2510
asbag48
(g69
g50
NtRp2511
(dp2512
g53
(dp2513
g80
g81
ssg62
g2502
sg55
(lp2514
S':'
asbag48
(g69
g50
NtRp2515
(dp2516
g53
(dp2517
sg62
g2502
sg55
(lp2518
g48
(g49
g50
NtRp2519
(dp2520
g53
(dp2521
g61
I3
ssg62
g2515
sg55
(lp2522
g1338
asbasbasbag48
(g64
g50
NtRp2523
(dp2524
g53
(dp2525
sg62
g2267
sg55
(lp2526
g48
(g69
g50
NtRp2527
(dp2528
g53
(dp2529
g73
g74
ssg62
g2523
sg55
(lp2530
S'HTTP_PRAGMA'
p2531
asbag48
(g69
g50
NtRp2532
(dp2533
g53
(dp2534
g80
g81
ssg62
g2523
sg55
(lp2535
S':'
asbag48
(g69
g50
NtRp2536
(dp2537
g53
(dp2538
sg62
g2523
sg55
(lp2539
g48
(g49
g50
NtRp2540
(dp2541
g53
(dp2542
g61
I3
ssg62
g2536
sg55
(lp2543
g1360
asbasbasbag48
(g64
g50
NtRp2544
(dp2545
g53
(dp2546
sg62
g2267
sg55
(lp2547
g48
(g69
g50
NtRp2548
(dp2549
g53
(dp2550
g73
g74
ssg62
g2544
sg55
(lp2551
S'HTTP_REFERER'
p2552
asbag48
(g69
g50
NtRp2553
(dp2554
g53
(dp2555
g80
g81
ssg62
g2544
sg55
(lp2556
S':'
asbag48
(g69
g50
NtRp2557
(dp2558
g53
(dp2559
sg62
g2544
sg55
(lp2560
g48
(g49
g50
NtRp2561
(dp2562
g53
(dp2563
g61
I3
ssg62
g2557
sg55
(lp2564
g1382
asbasbasbag48
(g64
g50
NtRp2565
(dp2566
g53
(dp2567
sg62
g2267
sg55
(lp2568
g48
(g69
g50
NtRp2569
(dp2570
g53
(dp2571
g73
g74
ssg62
g2565
sg55
(lp2572
S'HTTP_USER_AGENT'
p2573
asbag48
(g69
g50
NtRp2574
(dp2575
g53
(dp2576
g80
g81
ssg62
g2565
sg55
(lp2577
S':'
asbag48
(g69
g50
NtRp2578
(dp2579
g53
(dp2580
sg62
g2565
sg55
(lp2581
g48
(g49
g50
NtRp2582
(dp2583
g53
(dp2584
g61
I3
ssg62
g2578
sg55
(lp2585
g1404
asbasbasbag48
(g64
g50
NtRp2586
(dp2587
g53
(dp2588
sg62
g2267
sg55
(lp2589
g48
(g69
g50
NtRp2590
(dp2591
g53
(dp2592
g73
g74
ssg62
g2586
sg55
(lp2593
S'PATH_INFO'
p2594
asbag48
(g69
g50
NtRp2595
(dp2596
g53
(dp2597
g80
g81
ssg62
g2586
sg55
(lp2598
S':'
asbag48
(g69
g50
NtRp2599
(dp2600
g53
(dp2601
sg62
g2586
sg55
(lp2602
g48
(g49
g50
NtRp2603
(dp2604
g53
(dp2605
g61
I3
ssg62
g2599
sg55
(lp2606
g1447
asbasbasbag48
(g64
g50
NtRp2607
(dp2608
g53
(dp2609
sg62
g2267
sg55
(lp2610
g48
(g69
g50
NtRp2611
(dp2612
g53
(dp2613
g73
g74
ssg62
g2607
sg55
(lp2614
S'QUERY_STRING'
p2615
asbag48
(g69
g50
NtRp2616
(dp2617
g53
(dp2618
g80
g81
ssg62
g2607
sg55
(lp2619
S':'
asbag48
(g69
g50
NtRp2620
(dp2621
g53
(dp2622
sg62
g2607
sg55
(lp2623
g48
(g49
g50
NtRp2624
(dp2625
g53
(dp2626
g61
I3
ssg62
g2620
sg55
(lp2627
S''
asbasbasbag48
(g64
g50
NtRp2628
(dp2629
g53
(dp2630
sg62
g2267
sg55
(lp2631
g48
(g69
g50
NtRp2632
(dp2633
g53
(dp2634
g73
g74
ssg62
g2628
sg55
(lp2635
S'REMOTE_ADDR'
p2636
asbag48
(g69
g50
NtRp2637
(dp2638
g53
(dp2639
g80
g81
ssg62
g2628
sg55
(lp2640
S':'
asbag48
(g69
g50
NtRp2641
(dp2642
g53
(dp2643
sg62
g2628
sg55
(lp2644
g48
(g49
g50
NtRp2645
(dp2646
g53
(dp2647
g61
I3
ssg62
g2641
sg55
(lp2648
g181
asbasbasbag48
(g64
g50
NtRp2649
(dp2650
g53
(dp2651
sg62
g2267
sg55
(lp2652
g48
(g69
g50
NtRp2653
(dp2654
g53
(dp2655
g73
g74
ssg62
g2649
sg55
(lp2656
S'REMOTE_PORT'
p2657
asbag48
(g69
g50
NtRp2658
(dp2659
g53
(dp2660
g80
g81
ssg62
g2649
sg55
(lp2661
S':'
asbag48
(g69
g50
NtRp2662
(dp2663
g53
(dp2664
sg62
g2649
sg55
(lp2665
g48
(g49
g50
NtRp2666
(dp2667
g53
(dp2668
g61
I3
ssg62
g2662
sg55
(lp2669
g1511
asbasbasbag48
(g64
g50
NtRp2670
(dp2671
g53
(dp2672
sg62
g2267
sg55
(lp2673
g48
(g69
g50
NtRp2674
(dp2675
g53
(dp2676
g73
g74
ssg62
g2670
sg55
(lp2677
S'REQUEST_METHOD'
p2678
asbag48
(g69
g50
NtRp2679
(dp2680
g53
(dp2681
g80
g81
ssg62
g2670
sg55
(lp2682
S':'
asbag48
(g69
g50
NtRp2683
(dp2684
g53
(dp2685
sg62
g2670
sg55
(lp2686
g48
(g49
g50
NtRp2687
(dp2688
g53
(dp2689
g61
I3
ssg62
g2683
sg55
(lp2690
g1533
asbasbasbag48
(g64
g50
NtRp2691
(dp2692
g53
(dp2693
sg62
g2267
sg55
(lp2694
g48
(g69
g50
NtRp2695
(dp2696
g53
(dp2697
g73
g74
ssg62
g2691
sg55
(lp2698
S'SCRIPT_NAME'
p2699
asbag48
(g69
g50
NtRp2700
(dp2701
g53
(dp2702
g80
g81
ssg62
g2691
sg55
(lp2703
S':'
asbag48
(g69
g50
NtRp2704
(dp2705
g53
(dp2706
sg62
g2691
sg55
(lp2707
g48
(g49
g50
NtRp2708
(dp2709
g53
(dp2710
g61
I3
ssg62
g2704
sg55
(lp2711
S''
asbasbasbag48
(g64
g50
NtRp2712
(dp2713
g53
(dp2714
sg62
g2267
sg55
(lp2715
g48
(g69
g50
NtRp2716
(dp2717
g53
(dp2718
g73
g74
ssg62
g2712
sg55
(lp2719
S'SERVER_NAME'
p2720
asbag48
(g69
g50
NtRp2721
(dp2722
g53
(dp2723
g80
g81
ssg62
g2712
sg55
(lp2724
S':'
asbag48
(g69
g50
NtRp2725
(dp2726
g53
(dp2727
sg62
g2712
sg55
(lp2728
g48
(g49
g50
NtRp2729
(dp2730
g53
(dp2731
g61
I3
ssg62
g2725
sg55
(lp2732
g1576
asbasbasbag48
(g64
g50
NtRp2733
(dp2734
g53
(dp2735
sg62
g2267
sg55
(lp2736
g48
(g69
g50
NtRp2737
(dp2738
g53
(dp2739
g73
g74
ssg62
g2733
sg55
(lp2740
S'SERVER_PORT'
p2741
asbag48
(g69
g50
NtRp2742
(dp2743
g53
(dp2744
g80
g81
ssg62
g2733
sg55
(lp2745
S':'
asbag48
(g69
g50
NtRp2746
(dp2747
g53
(dp2748
sg62
g2733
sg55
(lp2749
g48
(g49
g50
NtRp2750
(dp2751
g53
(dp2752
g61
I3
ssg62
g2746
sg55
(lp2753
g1598
asbasbasbag48
(g64
g50
NtRp2754
(dp2755
g53
(dp2756
sg62
g2267
sg55
(lp2757
g48
(g69
g50
NtRp2758
(dp2759
g53
(dp2760
g73
g74
ssg62
g2754
sg55
(lp2761
S'SERVER_PROTOCOL'
p2762
asbag48
(g69
g50
NtRp2763
(dp2764
g53
(dp2765
g80
g81
ssg62
g2754
sg55
(lp2766
S':'
asbag48
(g69
g50
NtRp2767
(dp2768
g53
(dp2769
sg62
g2754
sg55
(lp2770
g48
(g49
g50
NtRp2771
(dp2772
g53
(dp2773
g61
I3
ssg62
g2767
sg55
(lp2774
g1620
asbasbasbag48
(g64
g50
NtRp2775
(dp2776
g53
(dp2777
sg62
g2267
sg55
(lp2778
g48
(g69
g50
NtRp2779
(dp2780
g53
(dp2781
g73
g74
ssg62
g2775
sg55
(lp2782
S'SERVER_SOFTWARE'
p2783
asbag48
(g69
g50
NtRp2784
(dp2785
g53
(dp2786
g80
g81
ssg62
g2775
sg55
(lp2787
S':'
asbag48
(g69
g50
NtRp2788
(dp2789
g53
(dp2790
sg62
g2775
sg55
(lp2791
g48
(g49
g50
NtRp2792
(dp2793
g53
(dp2794
g61
I3
ssg62
g2788
sg55
(lp2795
g1642
asbasbasbag48
(g64
g50
NtRp2796
(dp2797
g53
(dp2798
sg62
g2267
sg55
(lp2799
g48
(g69
g50
NtRp2800
(dp2801
g53
(dp2802
g73
g74
ssg62
g2796
sg55
(lp2803
S'wsgi.errors'
p2804
asbag48
(g69
g50
NtRp2805
(dp2806
g53
(dp2807
g80
g81
ssg62
g2796
sg55
(lp2808
S':'
asbag48
(g69
g50
NtRp2809
(dp2810
g53
(dp2811
sg62
g2796
sg55
(lp2812
g48
(g49
g50
NtRp2813
(dp2814
g53
(dp2815
g61
I3
ssg62
g2809
sg55
(lp2816
S"<open file '<stderr>', mode 'w' at 0x01F500B0>"
p2817
asbasbasbag48
(g64
g50
NtRp2818
(dp2819
g53
(dp2820
sg62
g2267
sg55
(lp2821
g48
(g69
g50
NtRp2822
(dp2823
g53
(dp2824
g73
g74
ssg62
g2818
sg55
(lp2825
S'wsgi.file_wrapper'
p2826
asbag48
(g69
g50
NtRp2827
(dp2828
g53
(dp2829
g80
g81
ssg62
g2818
sg55
(lp2830
S':'
asbag48
(g69
g50
NtRp2831
(dp2832
g53
(dp2833
sg62
g2818
sg55
(lp2834
g48
(g49
g50
NtRp2835
(dp2836
g53
(dp2837
g61
I3
ssg62
g2831
sg55
(lp2838
S'<class gluon.rocket.FileWrapper at 0x0308C1B0>'
p2839
asbasbasbag48
(g64
g50
NtRp2840
(dp2841
g53
(dp2842
sg62
g2267
sg55
(lp2843
g48
(g69
g50
NtRp2844
(dp2845
g53
(dp2846
g73
g74
ssg62
g2840
sg55
(lp2847
S'wsgi.input'
p2848
asbag48
(g69
g50
NtRp2849
(dp2850
g53
(dp2851
g80
g81
ssg62
g2840
sg55
(lp2852
S':'
asbag48
(g69
g50
NtRp2853
(dp2854
g53
(dp2855
sg62
g2840
sg55
(lp2856
g48
(g49
g50
NtRp2857
(dp2858
g53
(dp2859
g61
I3
ssg62
g2853
sg55
(lp2860
S"<open file '<fdopen>', mode 'w+b' at 0x0764A338>"
p2861
asbasbasbag48
(g64
g50
NtRp2862
(dp2863
g53
(dp2864
sg62
g2267
sg55
(lp2865
g48
(g69
g50
NtRp2866
(dp2867
g53
(dp2868
g73
g74
ssg62
g2862
sg55
(lp2869
S'wsgi.multiprocess'
p2870
asbag48
(g69
g50
NtRp2871
(dp2872
g53
(dp2873
g80
g81
ssg62
g2862
sg55
(lp2874
S':'
asbag48
(g69
g50
NtRp2875
(dp2876
g53
(dp2877
sg62
g2862
sg55
(lp2878
g48
(g49
g50
NtRp2879
(dp2880
g53
(dp2881
g61
I3
ssg62
g2875
sg55
(lp2882
g91
asbasbasbag48
(g64
g50
NtRp2883
(dp2884
g53
(dp2885
sg62
g2267
sg55
(lp2886
g48
(g69
g50
NtRp2887
(dp2888
g53
(dp2889
g73
g74
ssg62
g2883
sg55
(lp2890
S'wsgi.multithread'
p2891
asbag48
(g69
g50
NtRp2892
(dp2893
g53
(dp2894
g80
g81
ssg62
g2883
sg55
(lp2895
S':'
asbag48
(g69
g50
NtRp2896
(dp2897
g53
(dp2898
sg62
g2883
sg55
(lp2899
g48
(g49
g50
NtRp2900
(dp2901
g53
(dp2902
g61
I3
ssg62
g2896
sg55
(lp2903
g1816
asbasbasbag48
(g64
g50
NtRp2904
(dp2905
g53
(dp2906
sg62
g2267
sg55
(lp2907
g48
(g69
g50
NtRp2908
(dp2909
g53
(dp2910
g73
g74
ssg62
g2904
sg55
(lp2911
S'wsgi.run_once'
p2912
asbag48
(g69
g50
NtRp2913
(dp2914
g53
(dp2915
g80
g81
ssg62
g2904
sg55
(lp2916
S':'
asbag48
(g69
g50
NtRp2917
(dp2918
g53
(dp2919
sg62
g2904
sg55
(lp2920
g48
(g49
g50
NtRp2921
(dp2922
g53
(dp2923
g61
I3
ssg62
g2917
sg55
(lp2924
g91
asbasbasbag48
(g64
g50
NtRp2925
(dp2926
g53
(dp2927
sg62
g2267
sg55
(lp2928
g48
(g69
g50
NtRp2929
(dp2930
g53
(dp2931
g73
g74
ssg62
g2925
sg55
(lp2932
S'wsgi.url_scheme'
p2933
asbag48
(g69
g50
NtRp2934
(dp2935
g53
(dp2936
g80
g81
ssg62
g2925
sg55
(lp2937
S':'
asbag48
(g69
g50
NtRp2938
(dp2939
g53
(dp2940
sg62
g2925
sg55
(lp2941
g48
(g49
g50
NtRp2942
(dp2943
g53
(dp2944
g61
I3
ssg62
g2938
sg55
(lp2945
g1859
asbasbasbag48
(g64
g50
NtRp2946
(dp2947
g53
(dp2948
sg62
g2267
sg55
(lp2949
g48
(g69
g50
NtRp2950
(dp2951
g53
(dp2952
g73
g74
ssg62
g2946
sg55
(lp2953
S'wsgi.version'
p2954
asbag48
(g69
g50
NtRp2955
(dp2956
g53
(dp2957
g80
g81
ssg62
g2946
sg55
(lp2958
S':'
asbag48
(g69
g50
NtRp2959
(dp2960
g53
(dp2961
sg62
g2946
sg55
(lp2962
g48
(g49
g50
NtRp2963
(dp2964
g53
(dp2965
g61
I3
ssg62
g2959
sg55
(lp2966
S'1'
asbasbasbasbasbasbasbasbasbasbasbasbasbsS'frames'
p2967
(lp2968
(dp2969
S'file'
p2970
S'C:\\Users\\Atomico\\web2py\\gluon\\restricted.py'
p2971
sS'dump'
p2972
(dp2973
sS'lnum'
p2974
I192
sS'lines'
p2975
(dp2976
sS'call'
p2977
S"(code='def entrada():\\n    form=SQLFORM(db.info)\\n    if ...=form)\\n\\nresponse._vars=response._caller(entrada)\\n', environment={'A': <class 'gluon.html.A'>, 'B': <class 'gluon.html.B'>, 'BEAUTIFY': <class 'gluon.html.BEAUTIFY'>, 'BODY': <class 'gluon.html.BODY'>, 'BR': <class 'gluon.html.BR'>, 'BUTTON': <class 'gluon.html.BUTTON'>, 'CAT': <class 'gluon.html.CAT'>, 'CENTER': <class 'gluon.html.CENTER'>, 'CLEANUP': <class 'gluon.validators.CLEANUP'>, 'CODE': <class 'gluon.html.CODE'>, ...}, layer=r'C:\\Users\\Atomico\\web2py\\applications\\Desglosar_Emails\\controllers/default.py')"
p2978
sS'func'
p2979
S'restricted'
p2980
sa(dp2981
g2970
S'C:\\Users\\Atomico\\web2py\\applications\\Desglosar_Emails\\controllers\\default.py'
p2982
sg2972
(dp2983
sg2974
I22
sg2975
(dp2984
I11
S'        b=b+1'
p2985
sI12
S"    response.write('El total de b es: ')"
p2986
sI13
S'    response.write(b)'
p2987
sI14
S''
sI15
S''
sI16
S''
sI17
S''
sI18
S''
sI19
S''
sI20
S'    return dict(form=form)'
p2988
ssg2977
S'()'
p2989
sg2979
S'<module>'
p2990
sa(dp2991
g2970
S'C:\\Users\\Atomico\\web2py\\gluon\\globals.py'
p2992
sg2972
(dp2993
sg2974
I145
sg2975
(dp2994
sg2977
S'(f=<function entrada at 0x07654FB0>)'
p2995
sg2979
S'<lambda>'
p2996
sa(dp2997
g2970
S'C:\\Users\\Atomico\\web2py\\applications\\Desglosar_Emails\\controllers\\default.py'
p2998
sg2972
(dp2999
sg2974
I11
sg2975
(dp3000
I6
S'    response.write(db.info[1].texto[3])'
p3001
sI7
S"    response.write('claro')"
p3002
sI8
S'    longitud=len(db.info[2].texto)'
p3003
sI9
S'    response.write(longitud)'
p3004
sI10
S'    for i in range(len(db.info[1].texto)):'
p3005
sI11
S'        b=b+1'
p3006
sI12
S"    response.write('El total de b es: ')"
p3007
sI13
S'    response.write(b)'
p3008
sI14
S''
sI15
S''
ssg2977
S'()'
p3009
sg2979
S'entrada'
p3010
sasS'pyver'
p3011
S'Python 2.5.4: C:\\Users\\Atomico\\web2py\\web2py.exe'
p3012
sS'session'
p3013
g48
(g49
g50
NtRp3014
(dp3015
g53
(dp3016
sg55
(lp3017
g48
(g57
g50
NtRp3018
(dp3019
g53
(dp3020
g61
I5
ssg62
Nsg55
(lp3021
g48
(g64
g50
NtRp3022
(dp3023
g53
(dp3024
sg62
g3018
sg55
(lp3025
g48
(g69
g50
NtRp3026
(dp3027
g53
(dp3028
g73
g74
ssg62
g3022
sg55
(lp3029
S'last_query'
p3030
asbag48
(g69
g50
NtRp3031
(dp3032
g53
(dp3033
g80
g81
ssg62
g3022
sg55
(lp3034
S':'
asbag48
(g69
g50
NtRp3035
(dp3036
g53
(dp3037
sg62
g3022
sg55
(lp3038
g48
(g49
g50
NtRp3039
(dp3040
g53
(dp3041
g61
I5
ssg62
g3035
sg55
(lp3042
S'db.info.id>0'
p3043
asbasbasbasbasbsS'etype'
p3044
S"<type 'exceptions.UnboundLocalError'>"
p3045
sS'date'
p3046
S'Sun Sep 18 10:09:29 2011'
p3047
sS'response'
p3048
g48
(g49
g50
NtRp3049
(dp3050
g53
(dp3051
sg55
(lp3052
g48
(g57
g50
NtRp3053
(dp3054
g53
(dp3055
g61
I5
ssg62
Nsg55
(lp3056
g48
(g64
g50
NtRp3057
(dp3058
g53
(dp3059
sg62
g3053
sg55
(lp3060
g48
(g69
g50
NtRp3061
(dp3062
g53
(dp3063
g73
g74
ssg62
g3057
sg55
(lp3064
g146
asbag48
(g69
g50
NtRp3065
(dp3066
g53
(dp3067
g80
g81
ssg62
g3057
sg55
(lp3068
S':'
asbag48
(g69
g50
NtRp3069
(dp3070
g53
(dp3071
sg62
g3057
sg55
(lp3072
g48
(g49
g50
NtRp3073
(dp3074
g53
(dp3075
g61
I5
ssg62
g3069
sg55
(lp3076
S'<cStringIO.StringO object at 0x078B78E0>'
p3077
asbasbasbag48
(g64
g50
NtRp3078
(dp3079
g53
(dp3080
sg62
g3053
sg55
(lp3081
g48
(g69
g50
NtRp3082
(dp3083
g53
(dp3084
g73
g74
ssg62
g3078
sg55
(lp3085
g212
asbag48
(g69
g50
NtRp3086
(dp3087
g53
(dp3088
g80
g81
ssg62
g3078
sg55
(lp3089
S':'
asbag48
(g69
g50
NtRp3090
(dp3091
g53
(dp3092
sg62
g3078
sg55
(lp3093
g48
(g49
g50
NtRp3094
(dp3095
g53
(dp3096
g61
I5
ssg62
g3090
sg55
(lp3097
g48
(g57
g50
NtRp3098
(dp3099
g53
(dp3100
g61
I4
ssg62
Nsg55
(lp3101
g48
(g64
g50
NtRp3102
(dp3103
g53
(dp3104
sg62
g3098
sg55
(lp3105
g48
(g69
g50
NtRp3106
(dp3107
g53
(dp3108
g73
g74
ssg62
g3102
sg55
(lp3109
S'session_id_desglosar_emails'
p3110
asbag48
(g69
g50
NtRp3111
(dp3112
g53
(dp3113
g80
g81
ssg62
g3102
sg55
(lp3114
S':'
asbag48
(g69
g50
NtRp3115
(dp3116
g53
(dp3117
sg62
g3102
sg55
(lp3118
g48
(g49
g50
NtRp3119
(dp3120
g53
(dp3121
g61
I4
ssg62
g3115
sg55
(lp3122
g48
(g57
g50
NtRp3123
(dp3124
g53
(dp3125
g61
I3
ssg62
Nsg55
(lp3126
g48
(g64
g50
NtRp3127
(dp3128
g53
(dp3129
sg62
g3123
sg55
(lp3130
g48
(g69
g50
NtRp3131
(dp3132
g53
(dp3133
g73
g74
ssg62
g3127
sg55
(lp3134
g262
asbag48
(g69
g50
NtRp3135
(dp3136
g53
(dp3137
g80
g81
ssg62
g3127
sg55
(lp3138
S':'
asbag48
(g69
g50
NtRp3139
(dp3140
g53
(dp3141
sg62
g3127
sg55
(lp3142
g48
(g49
g50
NtRp3143
(dp3144
g53
(dp3145
g61
I3
ssg62
g3139
sg55
(lp3146
S''
asbasbasbag48
(g64
g50
NtRp3147
(dp3148
g53
(dp3149
sg62
g3123
sg55
(lp3150
g48
(g69
g50
NtRp3151
(dp3152
g53
(dp3153
g73
g74
ssg62
g3147
sg55
(lp3154
g283
asbag48
(g69
g50
NtRp3155
(dp3156
g53
(dp3157
g80
g81
ssg62
g3147
sg55
(lp3158
S':'
asbag48
(g69
g50
NtRp3159
(dp3160
g53
(dp3161
sg62
g3147
sg55
(lp3162
g48
(g49
g50
NtRp3163
(dp3164
g53
(dp3165
g61
I3
ssg62
g3159
sg55
(lp3166
S''
asbasbasbag48
(g64
g50
NtRp3167
(dp3168
g53
(dp3169
sg62
g3123
sg55
(lp3170
g48
(g69
g50
NtRp3171
(dp3172
g53
(dp3173
g73
g74
ssg62
g3167
sg55
(lp3174
g304
asbag48
(g69
g50
NtRp3175
(dp3176
g53
(dp3177
g80
g81
ssg62
g3167
sg55
(lp3178
S':'
asbag48
(g69
g50
NtRp3179
(dp3180
g53
(dp3181
sg62
g3167
sg55
(lp3182
g48
(g49
g50
NtRp3183
(dp3184
g53
(dp3185
g61
I3
ssg62
g3179
sg55
(lp3186
S''
asbasbasbag48
(g64
g50
NtRp3187
(dp3188
g53
(dp3189
sg62
g3123
sg55
(lp3190
g48
(g69
g50
NtRp3191
(dp3192
g53
(dp3193
g73
g74
ssg62
g3187
sg55
(lp3194
g325
asbag48
(g69
g50
NtRp3195
(dp3196
g53
(dp3197
g80
g81
ssg62
g3187
sg55
(lp3198
S':'
asbag48
(g69
g50
NtRp3199
(dp3200
g53
(dp3201
sg62
g3187
sg55
(lp3202
g48
(g49
g50
NtRp3203
(dp3204
g53
(dp3205
g61
I3
ssg62
g3199
sg55
(lp3206
S''
asbasbasbag48
(g64
g50
NtRp3207
(dp3208
g53
(dp3209
sg62
g3123
sg55
(lp3210
g48
(g69
g50
NtRp3211
(dp3212
g53
(dp3213
g73
g74
ssg62
g3207
sg55
(lp3214
g346
asbag48
(g69
g50
NtRp3215
(dp3216
g53
(dp3217
g80
g81
ssg62
g3207
sg55
(lp3218
S':'
asbag48
(g69
g50
NtRp3219
(dp3220
g53
(dp3221
sg62
g3207
sg55
(lp3222
g48
(g49
g50
NtRp3223
(dp3224
g53
(dp3225
g61
I3
ssg62
g3219
sg55
(lp3226
S'/'
asbasbasbag48
(g64
g50
NtRp3227
(dp3228
g53
(dp3229
sg62
g3123
sg55
(lp3230
g48
(g69
g50
NtRp3231
(dp3232
g53
(dp3233
g73
g74
ssg62
g3227
sg55
(lp3234
g367
asbag48
(g69
g50
NtRp3235
(dp3236
g53
(dp3237
g80
g81
ssg62
g3227
sg55
(lp3238
S':'
asbag48
(g69
g50
NtRp3239
(dp3240
g53
(dp3241
sg62
g3227
sg55
(lp3242
g48
(g49
g50
NtRp3243
(dp3244
g53
(dp3245
g61
I3
ssg62
g3239
sg55
(lp3246
S''
asbasbasbag48
(g64
g50
NtRp3247
(dp3248
g53
(dp3249
sg62
g3123
sg55
(lp3250
g48
(g69
g50
NtRp3251
(dp3252
g53
(dp3253
g73
g74
ssg62
g3247
sg55
(lp3254
g388
asbag48
(g69
g50
NtRp3255
(dp3256
g53
(dp3257
g80
g81
ssg62
g3247
sg55
(lp3258
S':'
asbag48
(g69
g50
NtRp3259
(dp3260
g53
(dp3261
sg62
g3247
sg55
(lp3262
g48
(g49
g50
NtRp3263
(dp3264
g53
(dp3265
g61
I3
ssg62
g3259
sg55
(lp3266
S''
asbasbasbasbasbasbasbasbasbasbasbag48
(g64
g50
NtRp3267
(dp3268
g53
(dp3269
sg62
g3053
sg55
(lp3270
g48
(g69
g50
NtRp3271
(dp3272
g53
(dp3273
g73
g74
ssg62
g3267
sg55
(lp3274
S'files'
p3275
asbag48
(g69
g50
NtRp3276
(dp3277
g53
(dp3278
g80
g81
ssg62
g3267
sg55
(lp3279
S':'
asbag48
(g69
g50
NtRp3280
(dp3281
g53
(dp3282
sg62
g3267
sg55
(lp3283
g48
(g49
g50
NtRp3284
(dp3285
g53
(dp3286
g61
I5
ssg62
g3280
sg55
(lp3287
g48
(g57
g50
NtRp3288
(dp3289
g53
(dp3290
g61
I4
ssg62
Nsg55
(lp3291
sbasbasbasbag48
(g64
g50
NtRp3292
(dp3293
g53
(dp3294
sg62
g3053
sg55
(lp3295
g48
(g69
g50
NtRp3296
(dp3297
g53
(dp3298
g73
g74
ssg62
g3292
sg55
(lp3299
S'flash'
p3300
asbag48
(g69
g50
NtRp3301
(dp3302
g53
(dp3303
g80
g81
ssg62
g3292
sg55
(lp3304
S':'
asbag48
(g69
g50
NtRp3305
(dp3306
g53
(dp3307
sg62
g3292
sg55
(lp3308
g48
(g49
g50
NtRp3309
(dp3310
g53
(dp3311
g61
I5
ssg62
g3305
sg55
(lp3312
S''
asbasbasbag48
(g64
g50
NtRp3313
(dp3314
g53
(dp3315
sg62
g3053
sg55
(lp3316
g48
(g69
g50
NtRp3317
(dp3318
g53
(dp3319
g73
g74
ssg62
g3313
sg55
(lp3320
S'generic_patterns'
p3321
asbag48
(g69
g50
NtRp3322
(dp3323
g53
(dp3324
g80
g81
ssg62
g3313
sg55
(lp3325
S':'
asbag48
(g69
g50
NtRp3326
(dp3327
g53
(dp3328
sg62
g3313
sg55
(lp3329
g48
(g49
g50
NtRp3330
(dp3331
g53
(dp3332
g61
I5
ssg62
g3326
sg55
(lp3333
g48
(g57
g50
NtRp3334
(dp3335
g53
(dp3336
g61
I4
ssg62
Nsg55
(lp3337
sbasbasbasbag48
(g64
g50
NtRp3338
(dp3339
g53
(dp3340
sg62
g3053
sg55
(lp3341
g48
(g69
g50
NtRp3342
(dp3343
g53
(dp3344
g73
g74
ssg62
g3338
sg55
(lp3345
S'headers'
p3346
asbag48
(g69
g50
NtRp3347
(dp3348
g53
(dp3349
g80
g81
ssg62
g3338
sg55
(lp3350
S':'
asbag48
(g69
g50
NtRp3351
(dp3352
g53
(dp3353
sg62
g3338
sg55
(lp3354
g48
(g49
g50
NtRp3355
(dp3356
g53
(dp3357
g61
I5
ssg62
g3351
sg55
(lp3358
g48
(g57
g50
NtRp3359
(dp3360
g53
(dp3361
g61
I4
ssg62
Nsg55
(lp3362
g48
(g64
g50
NtRp3363
(dp3364
g53
(dp3365
sg62
g3359
sg55
(lp3366
g48
(g69
g50
NtRp3367
(dp3368
g53
(dp3369
g73
g74
ssg62
g3363
sg55
(lp3370
S'Cache-Control'
p3371
asbag48
(g69
g50
NtRp3372
(dp3373
g53
(dp3374
g80
g81
ssg62
g3363
sg55
(lp3375
S':'
asbag48
(g69
g50
NtRp3376
(dp3377
g53
(dp3378
sg62
g3363
sg55
(lp3379
g48
(g49
g50
NtRp3380
(dp3381
g53
(dp3382
g61
I4
ssg62
g3376
sg55
(lp3383
S'no-store, no-cache, must-revalidate, post-check=0, pre-check=0'
p3384
asbasbasbag48
(g64
g50
NtRp3385
(dp3386
g53
(dp3387
sg62
g3359
sg55
(lp3388
g48
(g69
g50
NtRp3389
(dp3390
g53
(dp3391
g73
g74
ssg62
g3385
sg55
(lp3392
S'Content-Type'
p3393
asbag48
(g69
g50
NtRp3394
(dp3395
g53
(dp3396
g80
g81
ssg62
g3385
sg55
(lp3397
S':'
asbag48
(g69
g50
NtRp3398
(dp3399
g53
(dp3400
sg62
g3385
sg55
(lp3401
g48
(g49
g50
NtRp3402
(dp3403
g53
(dp3404
g61
I4
ssg62
g3398
sg55
(lp3405
S'text/html; charset=utf-8'
p3406
asbasbasbag48
(g64
g50
NtRp3407
(dp3408
g53
(dp3409
sg62
g3359
sg55
(lp3410
g48
(g69
g50
NtRp3411
(dp3412
g53
(dp3413
g73
g74
ssg62
g3407
sg55
(lp3414
S'Expires'
p3415
asbag48
(g69
g50
NtRp3416
(dp3417
g53
(dp3418
g80
g81
ssg62
g3407
sg55
(lp3419
S':'
asbag48
(g69
g50
NtRp3420
(dp3421
g53
(dp3422
sg62
g3407
sg55
(lp3423
g48
(g49
g50
NtRp3424
(dp3425
g53
(dp3426
g61
I4
ssg62
g3420
sg55
(lp3427
S'Sun, 18 Sep 2011 08:09:29 GMT'
p3428
asbasbasbag48
(g64
g50
NtRp3429
(dp3430
g53
(dp3431
sg62
g3359
sg55
(lp3432
g48
(g69
g50
NtRp3433
(dp3434
g53
(dp3435
g73
g74
ssg62
g3429
sg55
(lp3436
S'Pragma'
p3437
asbag48
(g69
g50
NtRp3438
(dp3439
g53
(dp3440
g80
g81
ssg62
g3429
sg55
(lp3441
S':'
asbag48
(g69
g50
NtRp3442
(dp3443
g53
(dp3444
sg62
g3429
sg55
(lp3445
g48
(g49
g50
NtRp3446
(dp3447
g53
(dp3448
g61
I4
ssg62
g3442
sg55
(lp3449
S'no-cache'
p3450
asbasbasbag48
(g64
g50
NtRp3451
(dp3452
g53
(dp3453
sg62
g3359
sg55
(lp3454
g48
(g69
g50
NtRp3455
(dp3456
g53
(dp3457
g73
g74
ssg62
g3451
sg55
(lp3458
S'X-Powered-By'
p3459
asbag48
(g69
g50
NtRp3460
(dp3461
g53
(dp3462
g80
g81
ssg62
g3451
sg55
(lp3463
S':'
asbag48
(g69
g50
NtRp3464
(dp3465
g53
(dp3466
sg62
g3451
sg55
(lp3467
g48
(g49
g50
NtRp3468
(dp3469
g53
(dp3470
g61
I4
ssg62
g3464
sg55
(lp3471
S'web2py'
p3472
asbasbasbasbasbasbasbag48
(g64
g50
NtRp3473
(dp3474
g53
(dp3475
sg62
g3053
sg55
(lp3476
g48
(g69
g50
NtRp3477
(dp3478
g53
(dp3479
g73
g74
ssg62
g3473
sg55
(lp3480
S'menu'
p3481
asbag48
(g69
g50
NtRp3482
(dp3483
g53
(dp3484
g80
g81
ssg62
g3473
sg55
(lp3485
S':'
asbag48
(g69
g50
NtRp3486
(dp3487
g53
(dp3488
sg62
g3473
sg55
(lp3489
g48
(g49
g50
NtRp3490
(dp3491
g53
(dp3492
g61
I5
ssg62
g3486
sg55
(lp3493
g48
(g57
g50
NtRp3494
(dp3495
g53
(dp3496
g61
I4
ssg62
Nsg55
(lp3497
g48
(g64
g50
NtRp3498
(dp3499
g53
(dp3500
sg62
g3494
sg55
(lp3501
g48
(g69
g50
NtRp3502
(dp3503
g53
(dp3504
sg62
g3498
sg55
(lp3505
g48
(g49
g50
NtRp3506
(dp3507
g53
(dp3508
g61
I4
ssg62
g3502
sg55
(lp3509
g48
(g57
g50
NtRp3510
(dp3511
g53
(dp3512
g61
I3
ssg62
Nsg55
(lp3513
g48
(g64
g50
NtRp3514
(dp3515
g53
(dp3516
sg62
g3510
sg55
(lp3517
g48
(g69
g50
NtRp3518
(dp3519
g53
(dp3520
sg62
g3514
sg55
(lp3521
g48
(g49
g50
NtRp3522
(dp3523
g53
(dp3524
g61
I3
ssg62
g3518
sg55
(lp3525
cgluon.languages
lazyT_unpickle
p3526
(S't\x04\x00\x00\x00Home'
tRp3527
asbasbasbag48
(g64
g50
NtRp3528
(dp3529
g53
(dp3530
sg62
g3510
sg55
(lp3531
g48
(g69
g50
NtRp3532
(dp3533
g53
(dp3534
sg62
g3528
sg55
(lp3535
g48
(g49
g50
NtRp3536
(dp3537
g53
(dp3538
g61
I3
ssg62
g3532
sg55
(lp3539
g91
asbasbasbag48
(g64
g50
NtRp3540
(dp3541
g53
(dp3542
sg62
g3510
sg55
(lp3543
g48
(g69
g50
NtRp3544
(dp3545
g53
(dp3546
sg62
g3540
sg55
(lp3547
g48
(g49
g50
NtRp3548
(dp3549
g53
(dp3550
g61
I3
ssg62
g3544
sg55
(lp3551
S'/Desglosar_Emails/default/index'
p3552
asbasbasbag48
(g64
g50
NtRp3553
(dp3554
g53
(dp3555
sg62
g3510
sg55
(lp3556
g48
(g69
g50
NtRp3557
(dp3558
g53
(dp3559
sg62
g3553
sg55
(lp3560
g48
(g49
g50
NtRp3561
(dp3562
g53
(dp3563
g61
I3
ssg62
g3557
sg55
(lp3564
g48
(g57
g50
NtRp3565
(dp3566
g53
(dp3567
g61
I2
ssg62
Nsg55
(lp3568
sbasbasbasbasbasbasbasbag48
(g64
g50
NtRp3569
(dp3570
g53
(dp3571
sg62
g3494
sg55
(lp3572
g48
(g69
g50
NtRp3573
(dp3574
g53
(dp3575
sg62
g3569
sg55
(lp3576
g48
(g49
g50
NtRp3577
(dp3578
g53
(dp3579
g61
I4
ssg62
g3573
sg55
(lp3580
g48
(g57
g50
NtRp3581
(dp3582
g53
(dp3583
g61
I3
ssg62
Nsg55
(lp3584
g48
(g64
g50
NtRp3585
(dp3586
g53
(dp3587
sg62
g3581
sg55
(lp3588
g48
(g69
g50
NtRp3589
(dp3590
g53
(dp3591
sg62
g3585
sg55
(lp3592
g48
(g49
g50
NtRp3593
(dp3594
g53
(dp3595
g61
I3
ssg62
g3589
sg55
(lp3596
g3526
(S's\x08\x00\x00\x00This App'
tRp3597
asbasbasbag48
(g64
g50
NtRp3598
(dp3599
g53
(dp3600
sg62
g3581
sg55
(lp3601
g48
(g69
g50
NtRp3602
(dp3603
g53
(dp3604
sg62
g3598
sg55
(lp3605
g48
(g49
g50
NtRp3606
(dp3607
g53
(dp3608
g61
I3
ssg62
g3602
sg55
(lp3609
g91
asbasbasbag48
(g64
g50
NtRp3610
(dp3611
g53
(dp3612
sg62
g3581
sg55
(lp3613
g48
(g69
g50
NtRp3614
(dp3615
g53
(dp3616
sg62
g3610
sg55
(lp3617
g48
(g49
g50
NtRp3618
(dp3619
g53
(dp3620
g61
I3
ssg62
g3614
sg55
(lp3621
S'/admin/default/design/Desglosar_Emails'
p3622
asbasbasbag48
(g64
g50
NtRp3623
(dp3624
g53
(dp3625
sg62
g3581
sg55
(lp3626
g48
(g69
g50
NtRp3627
(dp3628
g53
(dp3629
sg62
g3623
sg55
(lp3630
g48
(g49
g50
NtRp3631
(dp3632
g53
(dp3633
g61
I3
ssg62
g3627
sg55
(lp3634
g48
(g57
g50
NtRp3635
(dp3636
g53
(dp3637
g61
I2
ssg62
Nsg55
(lp3638
g48
(g64
g50
NtRp3639
(dp3640
g53
(dp3641
sg62
g3635
sg55
(lp3642
g48
(g69
g50
NtRp3643
(dp3644
g53
(dp3645
sg62
g3639
sg55
(lp3646
g48
(g49
g50
NtRp3647
(dp3648
g53
(dp3649
g61
I2
ssg62
g3643
sg55
(lp3650
g48
(g57
g50
NtRp3651
(dp3652
g53
(dp3653
g61
I1
ssg62
Nsg55
(lp3654
g48
(g64
g50
NtRp3655
(dp3656
g53
(dp3657
sg62
g3651
sg55
(lp3658
g48
(g69
g50
NtRp3659
(dp3660
g53
(dp3661
sg62
g3655
sg55
(lp3662
g48
(g49
g50
NtRp3663
(dp3664
g53
(dp3665
g61
I1
ssg62
g3659
sg55
(lp3666
g3526
(S't\x0b\x00\x00\x00Controlador'
tRp3667
asbasbasbag48
(g64
g50
NtRp3668
(dp3669
g53
(dp3670
sg62
g3651
sg55
(lp3671
g48
(g69
g50
NtRp3672
(dp3673
g53
(dp3674
sg62
g3668
sg55
(lp3675
g48
(g49
g50
NtRp3676
(dp3677
g53
(dp3678
g61
I1
ssg62
g3672
sg55
(lp3679
I00
asbasbasbag48
(g64
g50
NtRp3680
(dp3681
g53
(dp3682
sg62
g3651
sg55
(lp3683
g48
(g69
g50
NtRp3684
(dp3685
g53
(dp3686
sg62
g3680
sg55
(lp3687
g48
(g49
g50
NtRp3688
(dp3689
g53
(dp3690
g61
I1
ssg62
g3684
sg55
(lp3691
S'/admin/default/edit/Desglosar_Emails/controllers/default.py'
p3692
asbasbasbasbasbasbasbag48
(g64
g50
NtRp3693
(dp3694
g53
(dp3695
sg62
g3635
sg55
(lp3696
g48
(g69
g50
NtRp3697
(dp3698
g53
(dp3699
sg62
g3693
sg55
(lp3700
g48
(g49
g50
NtRp3701
(dp3702
g53
(dp3703
g61
I2
ssg62
g3697
sg55
(lp3704
g48
(g57
g50
NtRp3705
(dp3706
g53
(dp3707
g61
I1
ssg62
Nsg55
(lp3708
g48
(g64
g50
NtRp3709
(dp3710
g53
(dp3711
sg62
g3705
sg55
(lp3712
g48
(g69
g50
NtRp3713
(dp3714
g53
(dp3715
sg62
g3709
sg55
(lp3716
g48
(g49
g50
NtRp3717
(dp3718
g53
(dp3719
g61
I1
ssg62
g3713
sg55
(lp3720
g3526
(S't\x05\x00\x00\x00Vista'
tRp3721
asbasbasbag48
(g64
g50
NtRp3722
(dp3723
g53
(dp3724
sg62
g3705
sg55
(lp3725
g48
(g69
g50
NtRp3726
(dp3727
g53
(dp3728
sg62
g3722
sg55
(lp3729
g48
(g49
g50
NtRp3730
(dp3731
g53
(dp3732
g61
I1
ssg62
g3726
sg55
(lp3733
I00
asbasbasbag48
(g64
g50
NtRp3734
(dp3735
g53
(dp3736
sg62
g3705
sg55
(lp3737
g48
(g69
g50
NtRp3738
(dp3739
g53
(dp3740
sg62
g3734
sg55
(lp3741
g48
(g49
g50
NtRp3742
(dp3743
g53
(dp3744
g61
I1
ssg62
g3738
sg55
(lp3745
S'/admin/default/edit/Desglosar_Emails/views/default/entrada.html'
p3746
asbasbasbasbasbasbasbag48
(g64
g50
NtRp3747
(dp3748
g53
(dp3749
sg62
g3635
sg55
(lp3750
g48
(g69
g50
NtRp3751
(dp3752
g53
(dp3753
sg62
g3747
sg55
(lp3754
g48
(g49
g50
NtRp3755
(dp3756
g53
(dp3757
g61
I2
ssg62
g3751
sg55
(lp3758
g48
(g57
g50
NtRp3759
(dp3760
g53
(dp3761
g61
I1
ssg62
Nsg55
(lp3762
g48
(g64
g50
NtRp3763
(dp3764
g53
(dp3765
sg62
g3759
sg55
(lp3766
g48
(g69
g50
NtRp3767
(dp3768
g53
(dp3769
sg62
g3763
sg55
(lp3770
g48
(g49
g50
NtRp3771
(dp3772
g53
(dp3773
g61
I1
ssg62
g3767
sg55
(lp3774
g3526
(S's\x12\x00\x00\x00Dise\xc3\xb1o de p\xc3\xa1gina'
tRp3775
asbasbasbag48
(g64
g50
NtRp3776
(dp3777
g53
(dp3778
sg62
g3759
sg55
(lp3779
g48
(g69
g50
NtRp3780
(dp3781
g53
(dp3782
sg62
g3776
sg55
(lp3783
g48
(g49
g50
NtRp3784
(dp3785
g53
(dp3786
g61
I1
ssg62
g3780
sg55
(lp3787
I00
asbasbasbag48
(g64
g50
NtRp3788
(dp3789
g53
(dp3790
sg62
g3759
sg55
(lp3791
g48
(g69
g50
NtRp3792
(dp3793
g53
(dp3794
sg62
g3788
sg55
(lp3795
g48
(g49
g50
NtRp3796
(dp3797
g53
(dp3798
g61
I1
ssg62
g3792
sg55
(lp3799
S'/admin/default/edit/Desglosar_Emails/views/layout.html'
p3800
asbasbasbasbasbasbasbag48
(g64
g50
NtRp3801
(dp3802
g53
(dp3803
sg62
g3635
sg55
(lp3804
g48
(g69
g50
NtRp3805
(dp3806
g53
(dp3807
sg62
g3801
sg55
(lp3808
g48
(g49
g50
NtRp3809
(dp3810
g53
(dp3811
g61
I2
ssg62
g3805
sg55
(lp3812
g48
(g57
g50
NtRp3813
(dp3814
g53
(dp3815
g61
I1
ssg62
Nsg55
(lp3816
g48
(g64
g50
NtRp3817
(dp3818
g53
(dp3819
sg62
g3813
sg55
(lp3820
g48
(g69
g50
NtRp3821
(dp3822
g53
(dp3823
sg62
g3817
sg55
(lp3824
g48
(g49
g50
NtRp3825
(dp3826
g53
(dp3827
g61
I1
ssg62
g3821
sg55
(lp3828
g3526
(S's\x0e\x00\x00\x00Hoja de estilo'
tRp3829
asbasbasbag48
(g64
g50
NtRp3830
(dp3831
g53
(dp3832
sg62
g3813
sg55
(lp3833
g48
(g69
g50
NtRp3834
(dp3835
g53
(dp3836
sg62
g3830
sg55
(lp3837
g48
(g49
g50
NtRp3838
(dp3839
g53
(dp3840
g61
I1
ssg62
g3834
sg55
(lp3841
I00
asbasbasbag48
(g64
g50
NtRp3842
(dp3843
g53
(dp3844
sg62
g3813
sg55
(lp3845
g48
(g69
g50
NtRp3846
(dp3847
g53
(dp3848
sg62
g3842
sg55
(lp3849
g48
(g49
g50
NtRp3850
(dp3851
g53
(dp3852
g61
I1
ssg62
g3846
sg55
(lp3853
S'/admin/default/edit/Desglosar_Emails/static/base.css'
p3854
asbasbasbasbasbasbasbag48
(g64
g50
NtRp3855
(dp3856
g53
(dp3857
sg62
g3635
sg55
(lp3858
g48
(g69
g50
NtRp3859
(dp3860
g53
(dp3861
sg62
g3855
sg55
(lp3862
g48
(g49
g50
NtRp3863
(dp3864
g53
(dp3865
g61
I2
ssg62
g3859
sg55
(lp3866
g48
(g57
g50
NtRp3867
(dp3868
g53
(dp3869
g61
I1
ssg62
Nsg55
(lp3870
g48
(g64
g50
NtRp3871
(dp3872
g53
(dp3873
sg62
g3867
sg55
(lp3874
g48
(g69
g50
NtRp3875
(dp3876
g53
(dp3877
sg62
g3871
sg55
(lp3878
g48
(g49
g50
NtRp3879
(dp3880
g53
(dp3881
g61
I1
ssg62
g3875
sg55
(lp3882
g3526
(S's\x0b\x00\x00\x00Modelo "db"'
tRp3883
asbasbasbag48
(g64
g50
NtRp3884
(dp3885
g53
(dp3886
sg62
g3867
sg55
(lp3887
g48
(g69
g50
NtRp3888
(dp3889
g53
(dp3890
sg62
g3884
sg55
(lp3891
g48
(g49
g50
NtRp3892
(dp3893
g53
(dp3894
g61
I1
ssg62
g3888
sg55
(lp3895
I00
asbasbasbag48
(g64
g50
NtRp3896
(dp3897
g53
(dp3898
sg62
g3867
sg55
(lp3899
g48
(g69
g50
NtRp3900
(dp3901
g53
(dp3902
sg62
g3896
sg55
(lp3903
g48
(g49
g50
NtRp3904
(dp3905
g53
(dp3906
g61
I1
ssg62
g3900
sg55
(lp3907
S'/admin/default/edit/Desglosar_Emails/models/db.py'
p3908
asbasbasbasbasbasbasbag48
(g64
g50
NtRp3909
(dp3910
g53
(dp3911
sg62
g3635
sg55
(lp3912
g48
(g69
g50
NtRp3913
(dp3914
g53
(dp3915
sg62
g3909
sg55
(lp3916
g48
(g49
g50
NtRp3917
(dp3918
g53
(dp3919
g61
I2
ssg62
g3913
sg55
(lp3920
g48
(g57
g50
NtRp3921
(dp3922
g53
(dp3923
g61
I1
ssg62
Nsg55
(lp3924
g48
(g64
g50
NtRp3925
(dp3926
g53
(dp3927
sg62
g3921
sg55
(lp3928
g48
(g69
g50
NtRp3929
(dp3930
g53
(dp3931
sg62
g3925
sg55
(lp3932
g48
(g49
g50
NtRp3933
(dp3934
g53
(dp3935
g61
I1
ssg62
g3929
sg55
(lp3936
g3526
(S's\r\x00\x00\x00Modelo "menu"'
tRp3937
asbasbasbag48
(g64
g50
NtRp3938
(dp3939
g53
(dp3940
sg62
g3921
sg55
(lp3941
g48
(g69
g50
NtRp3942
(dp3943
g53
(dp3944
sg62
g3938
sg55
(lp3945
g48
(g49
g50
NtRp3946
(dp3947
g53
(dp3948
g61
I1
ssg62
g3942
sg55
(lp3949
I00
asbasbasbag48
(g64
g50
NtRp3950
(dp3951
g53
(dp3952
sg62
g3921
sg55
(lp3953
g48
(g69
g50
NtRp3954
(dp3955
g53
(dp3956
sg62
g3950
sg55
(lp3957
g48
(g49
g50
NtRp3958
(dp3959
g53
(dp3960
g61
I1
ssg62
g3954
sg55
(lp3961
S'/admin/default/edit/Desglosar_Emails/models/menu.py'
p3962
asbasbasbasbasbasbasbag48
(g64
g50
NtRp3963
(dp3964
g53
(dp3965
sg62
g3635
sg55
(lp3966
g48
(g69
g50
NtRp3967
(dp3968
g53
(dp3969
sg62
g3963
sg55
(lp3970
g48
(g49
g50
NtRp3971
(dp3972
g53
(dp3973
g61
I2
ssg62
g3967
sg55
(lp3974
g48
(g57
g50
NtRp3975
(dp3976
g53
(dp3977
g61
I1
ssg62
Nsg55
(lp3978
g48
(g64
g50
NtRp3979
(dp3980
g53
(dp3981
sg62
g3975
sg55
(lp3982
g48
(g69
g50
NtRp3983
(dp3984
g53
(dp3985
sg62
g3979
sg55
(lp3986
g48
(g49
g50
NtRp3987
(dp3988
g53
(dp3989
g61
I1
ssg62
g3983
sg55
(lp3990
g3526
(S's\r\x00\x00\x00Base de datos'
tRp3991
asbasbasbag48
(g64
g50
NtRp3992
(dp3993
g53
(dp3994
sg62
g3975
sg55
(lp3995
g48
(g69
g50
NtRp3996
(dp3997
g53
(dp3998
sg62
g3992
sg55
(lp3999
g48
(g49
g50
NtRp4000
(dp4001
g53
(dp4002
g61
I1
ssg62
g3996
sg55
(lp4003
I00
asbasbasbag48
(g64
g50
NtRp4004
(dp4005
g53
(dp4006
sg62
g3975
sg55
(lp4007
g48
(g69
g50
NtRp4008
(dp4009
g53
(dp4010
sg62
g4004
sg55
(lp4011
g48
(g49
g50
NtRp4012
(dp4013
g53
(dp4014
g61
I1
ssg62
g4008
sg55
(lp4015
S'/Desglosar_Emails/appadmin/index'
p4016
asbasbasbasbasbasbasbag48
(g64
g50
NtRp4017
(dp4018
g53
(dp4019
sg62
g3635
sg55
(lp4020
g48
(g69
g50
NtRp4021
(dp4022
g53
(dp4023
sg62
g4017
sg55
(lp4024
g48
(g49
g50
NtRp4025
(dp4026
g53
(dp4027
g61
I2
ssg62
g4021
sg55
(lp4028
g48
(g57
g50
NtRp4029
(dp4030
g53
(dp4031
g61
I1
ssg62
Nsg55
(lp4032
g48
(g64
g50
NtRp4033
(dp4034
g53
(dp4035
sg62
g4029
sg55
(lp4036
g48
(g69
g50
NtRp4037
(dp4038
g53
(dp4039
sg62
g4033
sg55
(lp4040
g48
(g49
g50
NtRp4041
(dp4042
g53
(dp4043
g61
I1
ssg62
g4037
sg55
(lp4044
g3526
(S't\x06\x00\x00\x00Errors'
tRp4045
asbasbasbag48
(g64
g50
NtRp4046
(dp4047
g53
(dp4048
sg62
g4029
sg55
(lp4049
g48
(g69
g50
NtRp4050
(dp4051
g53
(dp4052
sg62
g4046
sg55
(lp4053
g48
(g49
g50
NtRp4054
(dp4055
g53
(dp4056
g61
I1
ssg62
g4050
sg55
(lp4057
I00
asbasbasbag48
(g64
g50
NtRp4058
(dp4059
g53
(dp4060
sg62
g4029
sg55
(lp4061
g48
(g69
g50
NtRp4062
(dp4063
g53
(dp4064
sg62
g4058
sg55
(lp4065
g48
(g49
g50
NtRp4066
(dp4067
g53
(dp4068
g61
I1
ssg62
g4062
sg55
(lp4069
S'/admin/default/errors/Desglosar_Emails'
p4070
asbasbasbasbasbasbasbag48
(g64
g50
NtRp4071
(dp4072
g53
(dp4073
sg62
g3635
sg55
(lp4074
g48
(g69
g50
NtRp4075
(dp4076
g53
(dp4077
sg62
g4071
sg55
(lp4078
g48
(g49
g50
NtRp4079
(dp4080
g53
(dp4081
g61
I2
ssg62
g4075
sg55
(lp4082
g48
(g57
g50
NtRp4083
(dp4084
g53
(dp4085
g61
I1
ssg62
Nsg55
(lp4086
g48
(g64
g50
NtRp4087
(dp4088
g53
(dp4089
sg62
g4083
sg55
(lp4090
g48
(g69
g50
NtRp4091
(dp4092
g53
(dp4093
sg62
g4087
sg55
(lp4094
g48
(g49
g50
NtRp4095
(dp4096
g53
(dp4097
g61
I1
ssg62
g4091
sg55
(lp4098
g3526
(S's\t\x00\x00\x00Acerca de'
tRp4099
asbasbasbag48
(g64
g50
NtRp4100
(dp4101
g53
(dp4102
sg62
g4083
sg55
(lp4103
g48
(g69
g50
NtRp4104
(dp4105
g53
(dp4106
sg62
g4100
sg55
(lp4107
g48
(g49
g50
NtRp4108
(dp4109
g53
(dp4110
g61
I1
ssg62
g4104
sg55
(lp4111
I00
asbasbasbag48
(g64
g50
NtRp4112
(dp4113
g53
(dp4114
sg62
g4083
sg55
(lp4115
g48
(g69
g50
NtRp4116
(dp4117
g53
(dp4118
sg62
g4112
sg55
(lp4119
g48
(g49
g50
NtRp4120
(dp4121
g53
(dp4122
g61
I1
ssg62
g4116
sg55
(lp4123
S'/admin/default/about/Desglosar_Emails'
p4124
asbasbasbasbasbasbasbasbasbasbasbasbasbasbasbag48
(g64
g50
NtRp4125
(dp4126
g53
(dp4127
sg62
g3494
sg55
(lp4128
g48
(g69
g50
NtRp4129
(dp4130
g53
(dp4131
sg62
g4125
sg55
(lp4132
g48
(g49
g50
NtRp4133
(dp4134
g53
(dp4135
g61
I4
ssg62
g4129
sg55
(lp4136
g48
(g57
g50
NtRp4137
(dp4138
g53
(dp4139
g61
I3
ssg62
Nsg55
(lp4140
g48
(g64
g50
NtRp4141
(dp4142
g53
(dp4143
sg62
g4137
sg55
(lp4144
g48
(g69
g50
NtRp4145
(dp4146
g53
(dp4147
sg62
g4141
sg55
(lp4148
g48
(g49
g50
NtRp4149
(dp4150
g53
(dp4151
g61
I3
ssg62
g4145
sg55
(lp4152
g3526
(S't\t\x00\x00\x00Resources'
tRp4153
asbasbasbag48
(g64
g50
NtRp4154
(dp4155
g53
(dp4156
sg62
g4137
sg55
(lp4157
g48
(g69
g50
NtRp4158
(dp4159
g53
(dp4160
sg62
g4154
sg55
(lp4161
g48
(g49
g50
NtRp4162
(dp4163
g53
(dp4164
g61
I3
ssg62
g4158
sg55
(lp4165
g91
asbasbasbag48
(g64
g50
NtRp4166
(dp4167
g53
(dp4168
sg62
g4137
sg55
(lp4169
g48
(g69
g50
NtRp4170
(dp4171
g53
(dp4172
sg62
g4166
sg55
(lp4173
g48
(g49
g50
NtRp4174
(dp4175
g53
(dp4176
g61
I3
ssg62
g4170
sg55
(lp4177
S'None'
p4178
asbasbasbag48
(g64
g50
NtRp4179
(dp4180
g53
(dp4181
sg62
g4137
sg55
(lp4182
g48
(g69
g50
NtRp4183
(dp4184
g53
(dp4185
sg62
g4179
sg55
(lp4186
g48
(g49
g50
NtRp4187
(dp4188
g53
(dp4189
g61
I3
ssg62
g4183
sg55
(lp4190
g48
(g57
g50
NtRp4191
(dp4192
g53
(dp4193
g61
I2
ssg62
Nsg55
(lp4194
g48
(g64
g50
NtRp4195
(dp4196
g53
(dp4197
sg62
g4191
sg55
(lp4198
g48
(g69
g50
NtRp4199
(dp4200
g53
(dp4201
sg62
g4195
sg55
(lp4202
g48
(g49
g50
NtRp4203
(dp4204
g53
(dp4205
g61
I2
ssg62
g4199
sg55
(lp4206
g48
(g57
g50
NtRp4207
(dp4208
g53
(dp4209
g61
I1
ssg62
Nsg55
(lp4210
g48
(g64
g50
NtRp4211
(dp4212
g53
(dp4213
sg62
g4207
sg55
(lp4214
g48
(g69
g50
NtRp4215
(dp4216
g53
(dp4217
sg62
g4211
sg55
(lp4218
g48
(g49
g50
NtRp4219
(dp4220
g53
(dp4221
g61
I1
ssg62
g4215
sg55
(lp4222
g3526
(S's\x0e\x00\x00\x00Documentaci\xc3\xb3n'
tRp4223
asbasbasbag48
(g64
g50
NtRp4224
(dp4225
g53
(dp4226
sg62
g4207
sg55
(lp4227
g48
(g69
g50
NtRp4228
(dp4229
g53
(dp4230
sg62
g4224
sg55
(lp4231
g48
(g49
g50
NtRp4232
(dp4233
g53
(dp4234
g61
I1
ssg62
g4228
sg55
(lp4235
I00
asbasbasbag48
(g64
g50
NtRp4236
(dp4237
g53
(dp4238
sg62
g4207
sg55
(lp4239
g48
(g69
g50
NtRp4240
(dp4241
g53
(dp4242
sg62
g4236
sg55
(lp4243
g48
(g49
g50
NtRp4244
(dp4245
g53
(dp4246
g61
I1
ssg62
g4240
sg55
(lp4247
S'http://www.web2py.com/book'
p4248
asbasbasbag48
(g64
g50
NtRp4249
(dp4250
g53
(dp4251
sg62
g4207
sg55
(lp4252
g48
(g69
g50
NtRp4253
(dp4254
g53
(dp4255
sg62
g4249
sg55
(lp4256
g48
(g49
g50
NtRp4257
(dp4258
g53
(dp4259
g61
I1
ssg62
g4253
sg55
(lp4260
(lp4261
(g3526
(S't\x07\x00\x00\x00Preface'
tRp4262
I00
S'http://www.web2py.com/book/default/chapter/00'
tp4263
a(g3526
(S't\x0c\x00\x00\x00Introduction'
tRp4264
I00
S'http://www.web2py.com/book/default/chapter/01'
tp4265
a(g3526
(S't\x06\x00\x00\x00Python'
tRp4266
I00
S'http://www.web2py.com/book/default/chapter/02'
tp4267
a(g3526
(S't\x08\x00\x00\x00Overview'
tRp4268
I00
S'http://www.web2py.com/book/default/chapter/03'
tp4269
a(g3526
(S's\x08\x00\x00\x00The Core'
tRp4270
I00
S'http://www.web2py.com/book/default/chapter/04'
tp4271
a(g3526
(S's\t\x00\x00\x00The Views'
tRp4272
I00
S'http://www.web2py.com/book/default/chapter/05'
tp4273
a(g3526
(S's\r\x00\x00\x00Base de datos'
tRp4274
I00
S'http://www.web2py.com/book/default/chapter/06'
tp4275
a(g3526
(S's\x14\x00\x00\x00Forms and Validators'
tRp4276
I00
S'http://www.web2py.com/book/default/chapter/07'
tp4277
a(g3526
(S's\x0e\x00\x00\x00Access Control'
tRp4278
I00
S'http://www.web2py.com/book/default/chapter/08'
tp4279
a(g3526
(S't\x08\x00\x00\x00Services'
tRp4280
I00
S'http://www.web2py.com/book/default/chapter/09'
tp4281
a(g3526
(S's\x0c\x00\x00\x00Ajax Recipes'
tRp4282
I00
S'http://www.web2py.com/book/default/chapter/10'
tp4283
a(g3526
(S's\x12\x00\x00\x00Deployment Recipes'
tRp4284
I00
S'http://www.web2py.com/book/default/chapter/11'
tp4285
a(g3526
(S's\r\x00\x00\x00Other Recipes'
tRp4286
I00
S'http://www.web2py.com/book/default/chapter/12'
tp4287
a(g3526
(S's\r\x00\x00\x00Buy this book'
tRp4288
I00
S'http://stores.lulu.com/web2py'
tp4289
aasbasbasbasbasbasbasbag48
(g64
g50
NtRp4290
(dp4291
g53
(dp4292
sg62
g4191
sg55
(lp4293
g48
(g69
g50
NtRp4294
(dp4295
g53
(dp4296
sg62
g4290
sg55
(lp4297
g48
(g49
g50
NtRp4298
(dp4299
g53
(dp4300
g61
I2
ssg62
g4294
sg55
(lp4301
g48
(g57
g50
NtRp4302
(dp4303
g53
(dp4304
g61
I1
ssg62
Nsg55
(lp4305
g48
(g64
g50
NtRp4306
(dp4307
g53
(dp4308
sg62
g4302
sg55
(lp4309
g48
(g69
g50
NtRp4310
(dp4311
g53
(dp4312
sg62
g4306
sg55
(lp4313
g48
(g49
g50
NtRp4314
(dp4315
g53
(dp4316
g61
I1
ssg62
g4310
sg55
(lp4317
g3526
(S't\t\x00\x00\x00Community'
tRp4318
asbasbasbag48
(g64
g50
NtRp4319
(dp4320
g53
(dp4321
sg62
g4302
sg55
(lp4322
g48
(g69
g50
NtRp4323
(dp4324
g53
(dp4325
sg62
g4319
sg55
(lp4326
g48
(g49
g50
NtRp4327
(dp4328
g53
(dp4329
g61
I1
ssg62
g4323
sg55
(lp4330
I00
asbasbasbag48
(g64
g50
NtRp4331
(dp4332
g53
(dp4333
sg62
g4302
sg55
(lp4334
g48
(g69
g50
NtRp4335
(dp4336
g53
(dp4337
sg62
g4331
sg55
(lp4338
g48
(g49
g50
NtRp4339
(dp4340
g53
(dp4341
g61
I1
ssg62
g4335
sg55
(lp4342
Nasbasbasbag48
(g64
g50
NtRp4343
(dp4344
g53
(dp4345
sg62
g4302
sg55
(lp4346
g48
(g69
g50
NtRp4347
(dp4348
g53
(dp4349
sg62
g4343
sg55
(lp4350
g48
(g49
g50
NtRp4351
(dp4352
g53
(dp4353
g61
I1
ssg62
g4347
sg55
(lp4354
(lp4355
(g3526
(S't\x06\x00\x00\x00Groups'
tRp4356
I00
S'http://www.web2py.com/examples/default/usergroups'
tp4357
a(g3526
(S't\x07\x00\x00\x00Twitter'
tRp4358
I00
S'http://twitter.com/web2py'
tp4359
a(g3526
(S's\t\x00\x00\x00Live chat'
tRp4360
I00
S'http://mibbit.com/?channel=%23web2py&server=irc.mibbit.net'
tp4361
a(g3526
(S's\n\x00\x00\x00User Voice'
tRp4362
I00
S'http://web2py.uservoice.com/'
tp4363
aasbasbasbasbasbasbasbag48
(g64
g50
NtRp4364
(dp4365
g53
(dp4366
sg62
g4191
sg55
(lp4367
g48
(g69
g50
NtRp4368
(dp4369
g53
(dp4370
sg62
g4364
sg55
(lp4371
g48
(g49
g50
NtRp4372
(dp4373
g53
(dp4374
g61
I2
ssg62
g4368
sg55
(lp4375
g48
(g57
g50
NtRp4376
(dp4377
g53
(dp4378
g61
I1
ssg62
Nsg55
(lp4379
g48
(g64
g50
NtRp4380
(dp4381
g53
(dp4382
sg62
g4376
sg55
(lp4383
g48
(g69
g50
NtRp4384
(dp4385
g53
(dp4386
sg62
g4380
sg55
(lp4387
g48
(g49
g50
NtRp4388
(dp4389
g53
(dp4390
g61
I1
ssg62
g4384
sg55
(lp4391
g3526
(S't\x06\x00\x00\x00Web2py'
tRp4392
asbasbasbag48
(g64
g50
NtRp4393
(dp4394
g53
(dp4395
sg62
g4376
sg55
(lp4396
g48
(g69
g50
NtRp4397
(dp4398
g53
(dp4399
sg62
g4393
sg55
(lp4400
g48
(g49
g50
NtRp4401
(dp4402
g53
(dp4403
g61
I1
ssg62
g4397
sg55
(lp4404
I00
asbasbasbag48
(g64
g50
NtRp4405
(dp4406
g53
(dp4407
sg62
g4376
sg55
(lp4408
g48
(g69
g50
NtRp4409
(dp4410
g53
(dp4411
sg62
g4405
sg55
(lp4412
g48
(g49
g50
NtRp4413
(dp4414
g53
(dp4415
g61
I1
ssg62
g4409
sg55
(lp4416
S'http://www.web2py.com'
p4417
asbasbasbag48
(g64
g50
NtRp4418
(dp4419
g53
(dp4420
sg62
g4376
sg55
(lp4421
g48
(g69
g50
NtRp4422
(dp4423
g53
(dp4424
sg62
g4418
sg55
(lp4425
g48
(g49
g50
NtRp4426
(dp4427
g53
(dp4428
g61
I1
ssg62
g4422
sg55
(lp4429
(lp4430
(g3526
(S't\x08\x00\x00\x00Download'
tRp4431
I00
S'http://www.web2py.com/examples/default/download'
tp4432
a(g3526
(S't\x07\x00\x00\x00Support'
tRp4433
I00
S'http://www.web2py.com/examples/default/support'
tp4434
a(g3526
(S's\x0e\x00\x00\x00Quick Examples'
tRp4435
I00
S'http://web2py.com/examples/default/examples'
tp4436
a(g3526
(S't\x03\x00\x00\x00FAQ'
tRp4437
I00
S'http://web2py.com/AlterEgo'
tp4438
a(g3526
(S's\x11\x00\x00\x00Free Applications'
tRp4439
I00
S'http://web2py.com/appliances'
tp4440
a(g3526
(S't\x07\x00\x00\x00Plugins'
tRp4441
I00
S'http://web2py.com/plugins'
tp4442
a(g3526
(S't\x07\x00\x00\x00Recipes'
tRp4443
I00
S'http://web2pyslices.com/'
tp4444
a(g3526
(S't\x04\x00\x00\x00Demo'
tRp4445
I00
S'http://web2py.com/demo_admin'
tp4446
a(g3526
(S't\x08\x00\x00\x00Semantic'
tRp4447
I00
S'http://web2py.com/semantic'
tp4448
a(g3526
(S't\x07\x00\x00\x00Layouts'
tRp4449
I00
S'http://web2py.com/layouts'
tp4450
a(g3526
(S't\x06\x00\x00\x00Videos'
tRp4451
I00
S'http://www.web2py.com/examples/default/videos/'
tp4452
aasbasbasbasbasbasbasbasbasbasbasbasbasbasbasbasbasbasbasbag48
(g64
g50
NtRp4453
(dp4454
g53
(dp4455
sg62
g3053
sg55
(lp4456
g48
(g69
g50
NtRp4457
(dp4458
g53
(dp4459
g73
g74
ssg62
g4453
sg55
(lp4460
S'meta'
p4461
asbag48
(g69
g50
NtRp4462
(dp4463
g53
(dp4464
g80
g81
ssg62
g4453
sg55
(lp4465
S':'
asbag48
(g69
g50
NtRp4466
(dp4467
g53
(dp4468
sg62
g4453
sg55
(lp4469
g48
(g49
g50
NtRp4470
(dp4471
g53
(dp4472
g61
I5
ssg62
g4466
sg55
(lp4473
g48
(g57
g50
NtRp4474
(dp4475
g53
(dp4476
g61
I4
ssg62
Nsg55
(lp4477
g48
(g64
g50
NtRp4478
(dp4479
g53
(dp4480
sg62
g4474
sg55
(lp4481
g48
(g69
g50
NtRp4482
(dp4483
g53
(dp4484
g73
g74
ssg62
g4478
sg55
(lp4485
S'author'
p4486
asbag48
(g69
g50
NtRp4487
(dp4488
g53
(dp4489
g80
g81
ssg62
g4478
sg55
(lp4490
S':'
asbag48
(g69
g50
NtRp4491
(dp4492
g53
(dp4493
sg62
g4478
sg55
(lp4494
g48
(g49
g50
NtRp4495
(dp4496
g53
(dp4497
g61
I4
ssg62
g4491
sg55
(lp4498
S'you'
p4499
asbasbasbag48
(g64
g50
NtRp4500
(dp4501
g53
(dp4502
sg62
g4474
sg55
(lp4503
g48
(g69
g50
NtRp4504
(dp4505
g53
(dp4506
g73
g74
ssg62
g4500
sg55
(lp4507
S'copyright'
p4508
asbag48
(g69
g50
NtRp4509
(dp4510
g53
(dp4511
g80
g81
ssg62
g4500
sg55
(lp4512
S':'
asbag48
(g69
g50
NtRp4513
(dp4514
g53
(dp4515
sg62
g4500
sg55
(lp4516
g48
(g49
g50
NtRp4517
(dp4518
g53
(dp4519
g61
I4
ssg62
g4513
sg55
(lp4520
S'Copyright 2007-2010'
p4521
asbasbasbag48
(g64
g50
NtRp4522
(dp4523
g53
(dp4524
sg62
g4474
sg55
(lp4525
g48
(g69
g50
NtRp4526
(dp4527
g53
(dp4528
g73
g74
ssg62
g4522
sg55
(lp4529
S'description'
p4530
asbag48
(g69
g50
NtRp4531
(dp4532
g53
(dp4533
g80
g81
ssg62
g4522
sg55
(lp4534
S':'
asbag48
(g69
g50
NtRp4535
(dp4536
g53
(dp4537
sg62
g4522
sg55
(lp4538
g48
(g49
g50
NtRp4539
(dp4540
g53
(dp4541
g61
I4
ssg62
g4535
sg55
(lp4542
S'Free and open source full-stack enterprise framework for agile development of fast, scalable, secure and portable database-driven web-based applications. Written and programmable in Python'
p4543
asbasbasbag48
(g64
g50
NtRp4544
(dp4545
g53
(dp4546
sg62
g4474
sg55
(lp4547
g48
(g69
g50
NtRp4548
(dp4549
g53
(dp4550
g73
g74
ssg62
g4544
sg55
(lp4551
S'generator'
p4552
asbag48
(g69
g50
NtRp4553
(dp4554
g53
(dp4555
g80
g81
ssg62
g4544
sg55
(lp4556
S':'
asbag48
(g69
g50
NtRp4557
(dp4558
g53
(dp4559
sg62
g4544
sg55
(lp4560
g48
(g49
g50
NtRp4561
(dp4562
g53
(dp4563
g61
I4
ssg62
g4557
sg55
(lp4564
S'Web2py Enterprise Framework'
p4565
asbasbasbag48
(g64
g50
NtRp4566
(dp4567
g53
(dp4568
sg62
g4474
sg55
(lp4569
g48
(g69
g50
NtRp4570
(dp4571
g53
(dp4572
g73
g74
ssg62
g4566
sg55
(lp4573
S'keywords'
p4574
asbag48
(g69
g50
NtRp4575
(dp4576
g53
(dp4577
g80
g81
ssg62
g4566
sg55
(lp4578
S':'
asbag48
(g69
g50
NtRp4579
(dp4580
g53
(dp4581
sg62
g4566
sg55
(lp4582
g48
(g49
g50
NtRp4583
(dp4584
g53
(dp4585
g61
I4
ssg62
g4579
sg55
(lp4586
S'web2py, python, framework'
p4587
asbasbasbasbasbasbasbag48
(g64
g50
NtRp4588
(dp4589
g53
(dp4590
sg62
g3053
sg55
(lp4591
g48
(g69
g50
NtRp4592
(dp4593
g53
(dp4594
g73
g74
ssg62
g4588
sg55
(lp4595
S'postprocessing'
p4596
asbag48
(g69
g50
NtRp4597
(dp4598
g53
(dp4599
g80
g81
ssg62
g4588
sg55
(lp4600
S':'
asbag48
(g69
g50
NtRp4601
(dp4602
g53
(dp4603
sg62
g4588
sg55
(lp4604
g48
(g49
g50
NtRp4605
(dp4606
g53
(dp4607
g61
I5
ssg62
g4601
sg55
(lp4608
g48
(g57
g50
NtRp4609
(dp4610
g53
(dp4611
g61
I4
ssg62
Nsg55
(lp4612
sbasbasbasbag48
(g64
g50
NtRp4613
(dp4614
g53
(dp4615
sg62
g3053
sg55
(lp4616
g48
(g69
g50
NtRp4617
(dp4618
g53
(dp4619
g73
g74
ssg62
g4613
sg55
(lp4620
S'session_file'
p4621
asbag48
(g69
g50
NtRp4622
(dp4623
g53
(dp4624
g80
g81
ssg62
g4613
sg55
(lp4625
S':'
asbag48
(g69
g50
NtRp4626
(dp4627
g53
(dp4628
sg62
g4613
sg55
(lp4629
g48
(g49
g50
NtRp4630
(dp4631
g53
(dp4632
g61
I5
ssg62
g4626
sg55
(lp4633
S"<open file 'C:\\Users\\Atomico\\web2py\\applications\\Desglosar_Emails\\sessions\\127.0.0.1-0a11b3b2-660c-433c-b71f-fc129286f26c', mode 'rb+' at 0x076F9C80>"
p4634
asbasbasbag48
(g64
g50
NtRp4635
(dp4636
g53
(dp4637
sg62
g3053
sg55
(lp4638
g48
(g69
g50
NtRp4639
(dp4640
g53
(dp4641
g73
g74
ssg62
g4635
sg55
(lp4642
S'session_filename'
p4643
asbag48
(g69
g50
NtRp4644
(dp4645
g53
(dp4646
g80
g81
ssg62
g4635
sg55
(lp4647
S':'
asbag48
(g69
g50
NtRp4648
(dp4649
g53
(dp4650
sg62
g4635
sg55
(lp4651
g48
(g49
g50
NtRp4652
(dp4653
g53
(dp4654
g61
I5
ssg62
g4648
sg55
(lp4655
S'C:\\Users\\Atomico\\web2py\\applications\\Desglosar_Emails\\sessions\\127.0.0.1-0a11b3b2-660c-433c-b71f-fc129286f26c'
p4656
asbasbasbag48
(g64
g50
NtRp4657
(dp4658
g53
(dp4659
sg62
g3053
sg55
(lp4660
g48
(g69
g50
NtRp4661
(dp4662
g53
(dp4663
g73
g74
ssg62
g4657
sg55
(lp4664
S'session_id'
p4665
asbag48
(g69
g50
NtRp4666
(dp4667
g53
(dp4668
g80
g81
ssg62
g4657
sg55
(lp4669
S':'
asbag48
(g69
g50
NtRp4670
(dp4671
g53
(dp4672
sg62
g4657
sg55
(lp4673
g48
(g49
g50
NtRp4674
(dp4675
g53
(dp4676
g61
I5
ssg62
g4670
sg55
(lp4677
S'127.0.0.1-0a11b3b2-660c-433c-b71f-fc129286f26c'
p4678
asbasbasbag48
(g64
g50
NtRp4679
(dp4680
g53
(dp4681
sg62
g3053
sg55
(lp4682
g48
(g69
g50
NtRp4683
(dp4684
g53
(dp4685
g73
g74
ssg62
g4679
sg55
(lp4686
S'session_id_name'
p4687
asbag48
(g69
g50
NtRp4688
(dp4689
g53
(dp4690
g80
g81
ssg62
g4679
sg55
(lp4691
S':'
asbag48
(g69
g50
NtRp4692
(dp4693
g53
(dp4694
sg62
g4679
sg55
(lp4695
g48
(g49
g50
NtRp4696
(dp4697
g53
(dp4698
g61
I5
ssg62
g4692
sg55
(lp4699
g3110
asbasbasbag48
(g64
g50
NtRp4700
(dp4701
g53
(dp4702
sg62
g3053
sg55
(lp4703
g48
(g69
g50
NtRp4704
(dp4705
g53
(dp4706
g73
g74
ssg62
g4700
sg55
(lp4707
S'session_locked'
p4708
asbag48
(g69
g50
NtRp4709
(dp4710
g53
(dp4711
g80
g81
ssg62
g4700
sg55
(lp4712
S':'
asbag48
(g69
g50
NtRp4713
(dp4714
g53
(dp4715
sg62
g4700
sg55
(lp4716
g48
(g49
g50
NtRp4717
(dp4718
g53
(dp4719
g61
I5
ssg62
g4713
sg55
(lp4720
g1816
asbasbasbag48
(g64
g50
NtRp4721
(dp4722
g53
(dp4723
sg62
g3053
sg55
(lp4724
g48
(g69
g50
NtRp4725
(dp4726
g53
(dp4727
g73
g74
ssg62
g4721
sg55
(lp4728
S'session_new'
p4729
asbag48
(g69
g50
NtRp4730
(dp4731
g53
(dp4732
g80
g81
ssg62
g4721
sg55
(lp4733
S':'
asbag48
(g69
g50
NtRp4734
(dp4735
g53
(dp4736
sg62
g4721
sg55
(lp4737
g48
(g49
g50
NtRp4738
(dp4739
g53
(dp4740
g61
I5
ssg62
g4734
sg55
(lp4741
g91
asbasbasbag48
(g64
g50
NtRp4742
(dp4743
g53
(dp4744
sg62
g3053
sg55
(lp4745
g48
(g69
g50
NtRp4746
(dp4747
g53
(dp4748
g73
g74
ssg62
g4742
sg55
(lp4749
S'status'
p4750
asbag48
(g69
g50
NtRp4751
(dp4752
g53
(dp4753
g80
g81
ssg62
g4742
sg55
(lp4754
S':'
asbag48
(g69
g50
NtRp4755
(dp4756
g53
(dp4757
sg62
g4742
sg55
(lp4758
g48
(g49
g50
NtRp4759
(dp4760
g53
(dp4761
g61
I5
ssg62
g4755
sg55
(lp4762
S'200'
p4763
asbasbasbag48
(g64
g50
NtRp4764
(dp4765
g53
(dp4766
sg62
g3053
sg55
(lp4767
g48
(g69
g50
NtRp4768
(dp4769
g53
(dp4770
g73
g74
ssg62
g4764
sg55
(lp4771
S'subtitle'
p4772
asbag48
(g69
g50
NtRp4773
(dp4774
g53
(dp4775
g80
g81
ssg62
g4764
sg55
(lp4776
S':'
asbag48
(g69
g50
NtRp4777
(dp4778
g53
(dp4779
sg62
g4764
sg55
(lp4780
g48
(g49
g50
NtRp4781
(dp4782
g53
(dp4783
g61
I5
ssg62
g4777
sg55
(lp4784
g3526
(S's\t\x00\x00\x00Adaptame!'
tRp4785
asbasbasbag48
(g64
g50
NtRp4786
(dp4787
g53
(dp4788
sg62
g3053
sg55
(lp4789
g48
(g69
g50
NtRp4790
(dp4791
g53
(dp4792
g73
g74
ssg62
g4786
sg55
(lp4793
S'title'
p4794
asbag48
(g69
g50
NtRp4795
(dp4796
g53
(dp4797
g80
g81
ssg62
g4786
sg55
(lp4798
S':'
asbag48
(g69
g50
NtRp4799
(dp4800
g53
(dp4801
sg62
g4786
sg55
(lp4802
g48
(g49
g50
NtRp4803
(dp4804
g53
(dp4805
g61
I5
ssg62
g4799
sg55
(lp4806
g113
asbasbasbag48
(g64
g50
NtRp4807
(dp4808
g53
(dp4809
sg62
g3053
sg55
(lp4810
g48
(g69
g50
NtRp4811
(dp4812
g53
(dp4813
g73
g74
ssg62
g4807
sg55
(lp4814
g2162
asbag48
(g69
g50
NtRp4815
(dp4816
g53
(dp4817
g80
g81
ssg62
g4807
sg55
(lp4818
S':'
asbag48
(g69
g50
NtRp4819
(dp4820
g53
(dp4821
sg62
g4807
sg55
(lp4822
g48
(g49
g50
NtRp4823
(dp4824
g53
(dp4825
g61
I5
ssg62
g4819
sg55
(lp4826
g2175
asbasbasbag48
(g64
g50
NtRp4827
(dp4828
g53
(dp4829
sg62
g3053
sg55
(lp4830
g48
(g69
g50
NtRp4831
(dp4832
g53
(dp4833
g73
g74
ssg62
g4827
sg55
(lp4834
S'view'
p4835
asbag48
(g69
g50
NtRp4836
(dp4837
g53
(dp4838
g80
g81
ssg62
g4827
sg55
(lp4839
S':'
asbag48
(g69
g50
NtRp4840
(dp4841
g53
(dp4842
sg62
g4827
sg55
(lp4843
g48
(g49
g50
NtRp4844
(dp4845
g53
(dp4846
g61
I5
ssg62
g4840
sg55
(lp4847
S'default/entrada.html'
p4848
asbasbasbasbasbsS'locals'
p4849
(dp4850
S'i'
S'0'
sS'longitud'
p4851
S'26'
p4852
sS'form'
p4853
S'<gluon.sqlhtml.SQLFORM object at 0x07F2E3F0>'
p4854
sssS'traceback'
p4855
S'Traceback (most recent call last):\n  File "gluon/restricted.py", line 192, in restricted\n  File "C:\\Users\\Atomico\\web2py\\applications\\Desglosar_Emails\\controllers/default.py", line 22, in <module>\n  File "gluon/globals.py", line 145, in <lambda>\n  File "C:\\Users\\Atomico\\web2py\\applications\\Desglosar_Emails\\controllers/default.py", line 11, in entrada\nUnboundLocalError: local variable \'b\' referenced before assignment\n'
p4856
s.