(dp1
S'output'
p2
S''
sS'layer'
p3
S'C:\\Users\\Atomico\\web2py\\applications\\Desglosar_Emails\\controllers/default.py'
p4
sS'code'
p5
S'def entrada():\n    form=SQLFORM(db.info)\n    if form.accepts(request.vars,session): pass\n    \n    txt=db.info[12].texto\n    c=0\n    for i in range(len(txt)): c=c+1\n    response.write(\'el total de c es \'+str(c)+\'. \')\n   \n    import re\n    pattern=re.compile(".*a[0-5].*")\n    for i in range(len(txt)):\n    ## encontrar el primer email\n        s=txt[:i]\n        if pattern.search(s):\n            response.write(\'Se ha encontrado a1 o a2 o a3 o a4 o a5 o a0\')\n        elif not pattern.search(s) and i==(len(txt)-1):\n            response.write(\'Nanai contrai\')\n        \n    response.write(\'La len(txt) es \'+str(len(txt))+\' y la i es \'+str(i))\n    response.write(\'*********************\')\n\n    cont=0\n    for i in xrange(0,4):\n        cont=cont+1\n        response.write(\'Para el valor i \'+str(i)+\' el contador se pone a \'+str(cont))\n    response.write(\' y el resultado final es de i \'+str(i)+\' el contador se pone a \'+str(cont)+\'. \')\n    i=0\n    while i<len(txt):\n        response.write(txt[i]+\'-\')\n        i=i+1\n    response.write(\'. La len(txt) es de \'+str(len(txt))+\' y la i se ha quedado en \'+str(i))\n    \n    return dict(form=form)\n    \ndef entrada_mod1():\n    form=SQLFORM(db.info2)\n    if form.accepts(request.vars,session): pass\n    for i in db.info2.id:\n        response.write(i)\n        \n    \n       \n\n    return form\n\nresponse._vars=response._caller(entrada_mod1)\n'
p6
sS'snapshot'
p7
(dp8
S'exception'
p9
(dp10
S'__hash__'
p11
S"<method-wrapper '__hash__' of exceptions.MemoryError object at 0x07B4F210>"
p12
sS'__setattr__'
p13
S"<method-wrapper '__setattr__' of exceptions.MemoryError object at 0x07B4F210>"
p14
sS'__reduce_ex__'
p15
S'<built-in method __reduce_ex__ of exceptions.MemoryError object at 0x07B4F210>'
p16
sS'__getslice__'
p17
S"<method-wrapper '__getslice__' of exceptions.MemoryError object at 0x07B4F210>"
p18
sS'__getitem__'
p19
S"<method-wrapper '__getitem__' of exceptions.MemoryError object at 0x07B4F210>"
p20
sS'__setstate__'
p21
S'<built-in method __setstate__ of exceptions.MemoryError object at 0x07B4F210>'
p22
sS'__reduce__'
p23
S'<built-in method __reduce__ of exceptions.MemoryError object at 0x07B4F210>'
p24
sS'__str__'
p25
S"<method-wrapper '__str__' of exceptions.MemoryError object at 0x07B4F210>"
p26
sS'args'
p27
S"('out of memory',)"
p28
sS'__getattribute__'
p29
S"<method-wrapper '__getattribute__' of exceptions.MemoryError object at 0x07B4F210>"
p30
sS'__class__'
p31
S"<type 'exceptions.MemoryError'>"
p32
sS'__delattr__'
p33
S"<method-wrapper '__delattr__' of exceptions.MemoryError object at 0x07B4F210>"
p34
sS'__repr__'
p35
S"<method-wrapper '__repr__' of exceptions.MemoryError object at 0x07B4F210>"
p36
sS'__dict__'
p37
S'{}'
p38
sS'__doc__'
p39
S"'Out of memory.'"
p40
sS'__init__'
p41
S"<method-wrapper '__init__' of exceptions.MemoryError object at 0x07B4F210>"
p42
sS'__new__'
p43
S'<built-in method __new__ of type object at 0x1E1CEA70>'
p44
ssS'evalue'
p45
S'out of memory'
p46
sS'request'
p47
ccopy_reg
_reconstructor
p48
(cgluon.html
BEAUTIFY
p49
c__builtin__
object
p50
NtRp51
(dp52
S'attributes'
p53
(dp54
sS'components'
p55
(lp56
g48
(cgluon.html
TABLE
p57
g50
NtRp58
(dp59
g53
(dp60
S'level'
p61
I5
ssS'parent'
p62
Nsg55
(lp63
g48
(cgluon.html
TR
p64
g50
NtRp65
(dp66
g53
(dp67
sg62
g58
sg55
(lp68
g48
(cgluon.html
TD
p69
g50
NtRp70
(dp71
g53
(dp72
S'_style'
p73
S'font-weight:bold;'
p74
ssg62
g65
sg55
(lp75
S'ajax'
p76
asbag48
(g69
g50
NtRp77
(dp78
g53
(dp79
S'_valign'
p80
S'top'
p81
ssg62
g65
sg55
(lp82
S':'
asbag48
(g69
g50
NtRp83
(dp84
g53
(dp85
sg62
g65
sg55
(lp86
g48
(g49
g50
NtRp87
(dp88
g53
(dp89
g61
I5
ssg62
g83
sg55
(lp90
S'False'
p91
asbasbasbag48
(g64
g50
NtRp92
(dp93
g53
(dp94
sg62
g58
sg55
(lp95
g48
(g69
g50
NtRp96
(dp97
g53
(dp98
g73
g74
ssg62
g92
sg55
(lp99
S'application'
p100
asbag48
(g69
g50
NtRp101
(dp102
g53
(dp103
g80
g81
ssg62
g92
sg55
(lp104
S':'
asbag48
(g69
g50
NtRp105
(dp106
g53
(dp107
sg62
g92
sg55
(lp108
g48
(g49
g50
NtRp109
(dp110
g53
(dp111
g61
I5
ssg62
g105
sg55
(lp112
S'Desglosar_Emails'
p113
asbasbasbag48
(g64
g50
NtRp114
(dp115
g53
(dp116
sg62
g58
sg55
(lp117
g48
(g69
g50
NtRp118
(dp119
g53
(dp120
g73
g74
ssg62
g114
sg55
(lp121
g27
asbag48
(g69
g50
NtRp122
(dp123
g53
(dp124
g80
g81
ssg62
g114
sg55
(lp125
S':'
asbag48
(g69
g50
NtRp126
(dp127
g53
(dp128
sg62
g114
sg55
(lp129
g48
(g49
g50
NtRp130
(dp131
g53
(dp132
g61
I5
ssg62
g126
sg55
(lp133
g48
(g57
g50
NtRp134
(dp135
g53
(dp136
g61
I4
ssg62
Nsg55
(lp137
sbasbasbasbag48
(g64
g50
NtRp138
(dp139
g53
(dp140
sg62
g58
sg55
(lp141
g48
(g69
g50
NtRp142
(dp143
g53
(dp144
g73
g74
ssg62
g138
sg55
(lp145
S'body'
p146
asbag48
(g69
g50
NtRp147
(dp148
g53
(dp149
g80
g81
ssg62
g138
sg55
(lp150
S':'
asbag48
(g69
g50
NtRp151
(dp152
g53
(dp153
sg62
g138
sg55
(lp154
g48
(g49
g50
NtRp155
(dp156
g53
(dp157
g61
I5
ssg62
g151
sg55
(lp158
S'<cStringIO.StringO object at 0x075E00C0>'
p159
asbasbasbag48
(g64
g50
NtRp160
(dp161
g53
(dp162
sg62
g58
sg55
(lp163
g48
(g69
g50
NtRp164
(dp165
g53
(dp166
g73
g74
ssg62
g160
sg55
(lp167
S'client'
p168
asbag48
(g69
g50
NtRp169
(dp170
g53
(dp171
g80
g81
ssg62
g160
sg55
(lp172
S':'
asbag48
(g69
g50
NtRp173
(dp174
g53
(dp175
sg62
g160
sg55
(lp176
g48
(g49
g50
NtRp177
(dp178
g53
(dp179
g61
I5
ssg62
g173
sg55
(lp180
S'127.0.0.1'
p181
asbasbasbag48
(g64
g50
NtRp182
(dp183
g53
(dp184
sg62
g58
sg55
(lp185
g48
(g69
g50
NtRp186
(dp187
g53
(dp188
g73
g74
ssg62
g182
sg55
(lp189
S'controller'
p190
asbag48
(g69
g50
NtRp191
(dp192
g53
(dp193
g80
g81
ssg62
g182
sg55
(lp194
S':'
asbag48
(g69
g50
NtRp195
(dp196
g53
(dp197
sg62
g182
sg55
(lp198
g48
(g49
g50
NtRp199
(dp200
g53
(dp201
g61
I5
ssg62
g195
sg55
(lp202
S'default'
p203
asbasbasbag48
(g64
g50
NtRp204
(dp205
g53
(dp206
sg62
g58
sg55
(lp207
g48
(g69
g50
NtRp208
(dp209
g53
(dp210
g73
g74
ssg62
g204
sg55
(lp211
S'cookies'
p212
asbag48
(g69
g50
NtRp213
(dp214
g53
(dp215
g80
g81
ssg62
g204
sg55
(lp216
S':'
asbag48
(g69
g50
NtRp217
(dp218
g53
(dp219
sg62
g204
sg55
(lp220
g48
(g49
g50
NtRp221
(dp222
g53
(dp223
g61
I5
ssg62
g217
sg55
(lp224
g48
(g57
g50
NtRp225
(dp226
g53
(dp227
g61
I4
ssg62
Nsg55
(lp228
g48
(g64
g50
NtRp229
(dp230
g53
(dp231
sg62
g225
sg55
(lp232
g48
(g69
g50
NtRp233
(dp234
g53
(dp235
g73
g74
ssg62
g229
sg55
(lp236
S'session_id_admin'
p237
asbag48
(g69
g50
NtRp238
(dp239
g53
(dp240
g80
g81
ssg62
g229
sg55
(lp241
S':'
asbag48
(g69
g50
NtRp242
(dp243
g53
(dp244
sg62
g229
sg55
(lp245
g48
(g49
g50
NtRp246
(dp247
g53
(dp248
g61
I4
ssg62
g242
sg55
(lp249
g48
(g57
g50
NtRp250
(dp251
g53
(dp252
g61
I3
ssg62
Nsg55
(lp253
g48
(g64
g50
NtRp254
(dp255
g53
(dp256
sg62
g250
sg55
(lp257
g48
(g69
g50
NtRp258
(dp259
g53
(dp260
g73
g74
ssg62
g254
sg55
(lp261
S'comment'
p262
asbag48
(g69
g50
NtRp263
(dp264
g53
(dp265
g80
g81
ssg62
g254
sg55
(lp266
S':'
asbag48
(g69
g50
NtRp267
(dp268
g53
(dp269
sg62
g254
sg55
(lp270
g48
(g49
g50
NtRp271
(dp272
g53
(dp273
g61
I3
ssg62
g267
sg55
(lp274
S''
asbasbasbag48
(g64
g50
NtRp275
(dp276
g53
(dp277
sg62
g250
sg55
(lp278
g48
(g69
g50
NtRp279
(dp280
g53
(dp281
g73
g74
ssg62
g275
sg55
(lp282
S'domain'
p283
asbag48
(g69
g50
NtRp284
(dp285
g53
(dp286
g80
g81
ssg62
g275
sg55
(lp287
S':'
asbag48
(g69
g50
NtRp288
(dp289
g53
(dp290
sg62
g275
sg55
(lp291
g48
(g49
g50
NtRp292
(dp293
g53
(dp294
g61
I3
ssg62
g288
sg55
(lp295
S''
asbasbasbag48
(g64
g50
NtRp296
(dp297
g53
(dp298
sg62
g250
sg55
(lp299
g48
(g69
g50
NtRp300
(dp301
g53
(dp302
g73
g74
ssg62
g296
sg55
(lp303
S'expires'
p304
asbag48
(g69
g50
NtRp305
(dp306
g53
(dp307
g80
g81
ssg62
g296
sg55
(lp308
S':'
asbag48
(g69
g50
NtRp309
(dp310
g53
(dp311
sg62
g296
sg55
(lp312
g48
(g49
g50
NtRp313
(dp314
g53
(dp315
g61
I3
ssg62
g309
sg55
(lp316
S''
asbasbasbag48
(g64
g50
NtRp317
(dp318
g53
(dp319
sg62
g250
sg55
(lp320
g48
(g69
g50
NtRp321
(dp322
g53
(dp323
g73
g74
ssg62
g317
sg55
(lp324
S'max-age'
p325
asbag48
(g69
g50
NtRp326
(dp327
g53
(dp328
g80
g81
ssg62
g317
sg55
(lp329
S':'
asbag48
(g69
g50
NtRp330
(dp331
g53
(dp332
sg62
g317
sg55
(lp333
g48
(g49
g50
NtRp334
(dp335
g53
(dp336
g61
I3
ssg62
g330
sg55
(lp337
S''
asbasbasbag48
(g64
g50
NtRp338
(dp339
g53
(dp340
sg62
g250
sg55
(lp341
g48
(g69
g50
NtRp342
(dp343
g53
(dp344
g73
g74
ssg62
g338
sg55
(lp345
S'path'
p346
asbag48
(g69
g50
NtRp347
(dp348
g53
(dp349
g80
g81
ssg62
g338
sg55
(lp350
S':'
asbag48
(g69
g50
NtRp351
(dp352
g53
(dp353
sg62
g338
sg55
(lp354
g48
(g49
g50
NtRp355
(dp356
g53
(dp357
g61
I3
ssg62
g351
sg55
(lp358
S''
asbasbasbag48
(g64
g50
NtRp359
(dp360
g53
(dp361
sg62
g250
sg55
(lp362
g48
(g69
g50
NtRp363
(dp364
g53
(dp365
g73
g74
ssg62
g359
sg55
(lp366
S'secure'
p367
asbag48
(g69
g50
NtRp368
(dp369
g53
(dp370
g80
g81
ssg62
g359
sg55
(lp371
S':'
asbag48
(g69
g50
NtRp372
(dp373
g53
(dp374
sg62
g359
sg55
(lp375
g48
(g49
g50
NtRp376
(dp377
g53
(dp378
g61
I3
ssg62
g372
sg55
(lp379
S''
asbasbasbag48
(g64
g50
NtRp380
(dp381
g53
(dp382
sg62
g250
sg55
(lp383
g48
(g69
g50
NtRp384
(dp385
g53
(dp386
g73
g74
ssg62
g380
sg55
(lp387
S'version'
p388
asbag48
(g69
g50
NtRp389
(dp390
g53
(dp391
g80
g81
ssg62
g380
sg55
(lp392
S':'
asbag48
(g69
g50
NtRp393
(dp394
g53
(dp395
sg62
g380
sg55
(lp396
g48
(g49
g50
NtRp397
(dp398
g53
(dp399
g61
I3
ssg62
g393
sg55
(lp400
S''
asbasbasbasbasbasbasbag48
(g64
g50
NtRp401
(dp402
g53
(dp403
sg62
g225
sg55
(lp404
g48
(g69
g50
NtRp405
(dp406
g53
(dp407
g73
g74
ssg62
g401
sg55
(lp408
S'session_id_desglosar_emails'
p409
asbag48
(g69
g50
NtRp410
(dp411
g53
(dp412
g80
g81
ssg62
g401
sg55
(lp413
S':'
asbag48
(g69
g50
NtRp414
(dp415
g53
(dp416
sg62
g401
sg55
(lp417
g48
(g49
g50
NtRp418
(dp419
g53
(dp420
g61
I4
ssg62
g414
sg55
(lp421
g48
(g57
g50
NtRp422
(dp423
g53
(dp424
g61
I3
ssg62
Nsg55
(lp425
g48
(g64
g50
NtRp426
(dp427
g53
(dp428
sg62
g422
sg55
(lp429
g48
(g69
g50
NtRp430
(dp431
g53
(dp432
g73
g74
ssg62
g426
sg55
(lp433
g262
asbag48
(g69
g50
NtRp434
(dp435
g53
(dp436
g80
g81
ssg62
g426
sg55
(lp437
S':'
asbag48
(g69
g50
NtRp438
(dp439
g53
(dp440
sg62
g426
sg55
(lp441
g48
(g49
g50
NtRp442
(dp443
g53
(dp444
g61
I3
ssg62
g438
sg55
(lp445
S''
asbasbasbag48
(g64
g50
NtRp446
(dp447
g53
(dp448
sg62
g422
sg55
(lp449
g48
(g69
g50
NtRp450
(dp451
g53
(dp452
g73
g74
ssg62
g446
sg55
(lp453
g283
asbag48
(g69
g50
NtRp454
(dp455
g53
(dp456
g80
g81
ssg62
g446
sg55
(lp457
S':'
asbag48
(g69
g50
NtRp458
(dp459
g53
(dp460
sg62
g446
sg55
(lp461
g48
(g49
g50
NtRp462
(dp463
g53
(dp464
g61
I3
ssg62
g458
sg55
(lp465
S''
asbasbasbag48
(g64
g50
NtRp466
(dp467
g53
(dp468
sg62
g422
sg55
(lp469
g48
(g69
g50
NtRp470
(dp471
g53
(dp472
g73
g74
ssg62
g466
sg55
(lp473
g304
asbag48
(g69
g50
NtRp474
(dp475
g53
(dp476
g80
g81
ssg62
g466
sg55
(lp477
S':'
asbag48
(g69
g50
NtRp478
(dp479
g53
(dp480
sg62
g466
sg55
(lp481
g48
(g49
g50
NtRp482
(dp483
g53
(dp484
g61
I3
ssg62
g478
sg55
(lp485
S''
asbasbasbag48
(g64
g50
NtRp486
(dp487
g53
(dp488
sg62
g422
sg55
(lp489
g48
(g69
g50
NtRp490
(dp491
g53
(dp492
g73
g74
ssg62
g486
sg55
(lp493
g325
asbag48
(g69
g50
NtRp494
(dp495
g53
(dp496
g80
g81
ssg62
g486
sg55
(lp497
S':'
asbag48
(g69
g50
NtRp498
(dp499
g53
(dp500
sg62
g486
sg55
(lp501
g48
(g49
g50
NtRp502
(dp503
g53
(dp504
g61
I3
ssg62
g498
sg55
(lp505
S''
asbasbasbag48
(g64
g50
NtRp506
(dp507
g53
(dp508
sg62
g422
sg55
(lp509
g48
(g69
g50
NtRp510
(dp511
g53
(dp512
g73
g74
ssg62
g506
sg55
(lp513
g346
asbag48
(g69
g50
NtRp514
(dp515
g53
(dp516
g80
g81
ssg62
g506
sg55
(lp517
S':'
asbag48
(g69
g50
NtRp518
(dp519
g53
(dp520
sg62
g506
sg55
(lp521
g48
(g49
g50
NtRp522
(dp523
g53
(dp524
g61
I3
ssg62
g518
sg55
(lp525
S''
asbasbasbag48
(g64
g50
NtRp526
(dp527
g53
(dp528
sg62
g422
sg55
(lp529
g48
(g69
g50
NtRp530
(dp531
g53
(dp532
g73
g74
ssg62
g526
sg55
(lp533
g367
asbag48
(g69
g50
NtRp534
(dp535
g53
(dp536
g80
g81
ssg62
g526
sg55
(lp537
S':'
asbag48
(g69
g50
NtRp538
(dp539
g53
(dp540
sg62
g526
sg55
(lp541
g48
(g49
g50
NtRp542
(dp543
g53
(dp544
g61
I3
ssg62
g538
sg55
(lp545
S''
asbasbasbag48
(g64
g50
NtRp546
(dp547
g53
(dp548
sg62
g422
sg55
(lp549
g48
(g69
g50
NtRp550
(dp551
g53
(dp552
g73
g74
ssg62
g546
sg55
(lp553
g388
asbag48
(g69
g50
NtRp554
(dp555
g53
(dp556
g80
g81
ssg62
g546
sg55
(lp557
S':'
asbag48
(g69
g50
NtRp558
(dp559
g53
(dp560
sg62
g546
sg55
(lp561
g48
(g49
g50
NtRp562
(dp563
g53
(dp564
g61
I3
ssg62
g558
sg55
(lp565
S''
asbasbasbasbasbasbasbag48
(g64
g50
NtRp566
(dp567
g53
(dp568
sg62
g225
sg55
(lp569
g48
(g69
g50
NtRp570
(dp571
g53
(dp572
g73
g74
ssg62
g566
sg55
(lp573
S'session_id_hemoal'
p574
asbag48
(g69
g50
NtRp575
(dp576
g53
(dp577
g80
g81
ssg62
g566
sg55
(lp578
S':'
asbag48
(g69
g50
NtRp579
(dp580
g53
(dp581
sg62
g566
sg55
(lp582
g48
(g49
g50
NtRp583
(dp584
g53
(dp585
g61
I4
ssg62
g579
sg55
(lp586
g48
(g57
g50
NtRp587
(dp588
g53
(dp589
g61
I3
ssg62
Nsg55
(lp590
g48
(g64
g50
NtRp591
(dp592
g53
(dp593
sg62
g587
sg55
(lp594
g48
(g69
g50
NtRp595
(dp596
g53
(dp597
g73
g74
ssg62
g591
sg55
(lp598
g262
asbag48
(g69
g50
NtRp599
(dp600
g53
(dp601
g80
g81
ssg62
g591
sg55
(lp602
S':'
asbag48
(g69
g50
NtRp603
(dp604
g53
(dp605
sg62
g591
sg55
(lp606
g48
(g49
g50
NtRp607
(dp608
g53
(dp609
g61
I3
ssg62
g603
sg55
(lp610
S''
asbasbasbag48
(g64
g50
NtRp611
(dp612
g53
(dp613
sg62
g587
sg55
(lp614
g48
(g69
g50
NtRp615
(dp616
g53
(dp617
g73
g74
ssg62
g611
sg55
(lp618
g283
asbag48
(g69
g50
NtRp619
(dp620
g53
(dp621
g80
g81
ssg62
g611
sg55
(lp622
S':'
asbag48
(g69
g50
NtRp623
(dp624
g53
(dp625
sg62
g611
sg55
(lp626
g48
(g49
g50
NtRp627
(dp628
g53
(dp629
g61
I3
ssg62
g623
sg55
(lp630
S''
asbasbasbag48
(g64
g50
NtRp631
(dp632
g53
(dp633
sg62
g587
sg55
(lp634
g48
(g69
g50
NtRp635
(dp636
g53
(dp637
g73
g74
ssg62
g631
sg55
(lp638
g304
asbag48
(g69
g50
NtRp639
(dp640
g53
(dp641
g80
g81
ssg62
g631
sg55
(lp642
S':'
asbag48
(g69
g50
NtRp643
(dp644
g53
(dp645
sg62
g631
sg55
(lp646
g48
(g49
g50
NtRp647
(dp648
g53
(dp649
g61
I3
ssg62
g643
sg55
(lp650
S''
asbasbasbag48
(g64
g50
NtRp651
(dp652
g53
(dp653
sg62
g587
sg55
(lp654
g48
(g69
g50
NtRp655
(dp656
g53
(dp657
g73
g74
ssg62
g651
sg55
(lp658
g325
asbag48
(g69
g50
NtRp659
(dp660
g53
(dp661
g80
g81
ssg62
g651
sg55
(lp662
S':'
asbag48
(g69
g50
NtRp663
(dp664
g53
(dp665
sg62
g651
sg55
(lp666
g48
(g49
g50
NtRp667
(dp668
g53
(dp669
g61
I3
ssg62
g663
sg55
(lp670
S''
asbasbasbag48
(g64
g50
NtRp671
(dp672
g53
(dp673
sg62
g587
sg55
(lp674
g48
(g69
g50
NtRp675
(dp676
g53
(dp677
g73
g74
ssg62
g671
sg55
(lp678
g346
asbag48
(g69
g50
NtRp679
(dp680
g53
(dp681
g80
g81
ssg62
g671
sg55
(lp682
S':'
asbag48
(g69
g50
NtRp683
(dp684
g53
(dp685
sg62
g671
sg55
(lp686
g48
(g49
g50
NtRp687
(dp688
g53
(dp689
g61
I3
ssg62
g683
sg55
(lp690
S''
asbasbasbag48
(g64
g50
NtRp691
(dp692
g53
(dp693
sg62
g587
sg55
(lp694
g48
(g69
g50
NtRp695
(dp696
g53
(dp697
g73
g74
ssg62
g691
sg55
(lp698
g367
asbag48
(g69
g50
NtRp699
(dp700
g53
(dp701
g80
g81
ssg62
g691
sg55
(lp702
S':'
asbag48
(g69
g50
NtRp703
(dp704
g53
(dp705
sg62
g691
sg55
(lp706
g48
(g49
g50
NtRp707
(dp708
g53
(dp709
g61
I3
ssg62
g703
sg55
(lp710
S''
asbasbasbag48
(g64
g50
NtRp711
(dp712
g53
(dp713
sg62
g587
sg55
(lp714
g48
(g69
g50
NtRp715
(dp716
g53
(dp717
g73
g74
ssg62
g711
sg55
(lp718
g388
asbag48
(g69
g50
NtRp719
(dp720
g53
(dp721
g80
g81
ssg62
g711
sg55
(lp722
S':'
asbag48
(g69
g50
NtRp723
(dp724
g53
(dp725
sg62
g711
sg55
(lp726
g48
(g49
g50
NtRp727
(dp728
g53
(dp729
g61
I3
ssg62
g723
sg55
(lp730
S''
asbasbasbasbasbasbasbag48
(g64
g50
NtRp731
(dp732
g53
(dp733
sg62
g225
sg55
(lp734
g48
(g69
g50
NtRp735
(dp736
g53
(dp737
g73
g74
ssg62
g731
sg55
(lp738
S'session_id_listado_1'
p739
asbag48
(g69
g50
NtRp740
(dp741
g53
(dp742
g80
g81
ssg62
g731
sg55
(lp743
S':'
asbag48
(g69
g50
NtRp744
(dp745
g53
(dp746
sg62
g731
sg55
(lp747
g48
(g49
g50
NtRp748
(dp749
g53
(dp750
g61
I4
ssg62
g744
sg55
(lp751
g48
(g57
g50
NtRp752
(dp753
g53
(dp754
g61
I3
ssg62
Nsg55
(lp755
g48
(g64
g50
NtRp756
(dp757
g53
(dp758
sg62
g752
sg55
(lp759
g48
(g69
g50
NtRp760
(dp761
g53
(dp762
g73
g74
ssg62
g756
sg55
(lp763
g262
asbag48
(g69
g50
NtRp764
(dp765
g53
(dp766
g80
g81
ssg62
g756
sg55
(lp767
S':'
asbag48
(g69
g50
NtRp768
(dp769
g53
(dp770
sg62
g756
sg55
(lp771
g48
(g49
g50
NtRp772
(dp773
g53
(dp774
g61
I3
ssg62
g768
sg55
(lp775
S''
asbasbasbag48
(g64
g50
NtRp776
(dp777
g53
(dp778
sg62
g752
sg55
(lp779
g48
(g69
g50
NtRp780
(dp781
g53
(dp782
g73
g74
ssg62
g776
sg55
(lp783
g283
asbag48
(g69
g50
NtRp784
(dp785
g53
(dp786
g80
g81
ssg62
g776
sg55
(lp787
S':'
asbag48
(g69
g50
NtRp788
(dp789
g53
(dp790
sg62
g776
sg55
(lp791
g48
(g49
g50
NtRp792
(dp793
g53
(dp794
g61
I3
ssg62
g788
sg55
(lp795
S''
asbasbasbag48
(g64
g50
NtRp796
(dp797
g53
(dp798
sg62
g752
sg55
(lp799
g48
(g69
g50
NtRp800
(dp801
g53
(dp802
g73
g74
ssg62
g796
sg55
(lp803
g304
asbag48
(g69
g50
NtRp804
(dp805
g53
(dp806
g80
g81
ssg62
g796
sg55
(lp807
S':'
asbag48
(g69
g50
NtRp808
(dp809
g53
(dp810
sg62
g796
sg55
(lp811
g48
(g49
g50
NtRp812
(dp813
g53
(dp814
g61
I3
ssg62
g808
sg55
(lp815
S''
asbasbasbag48
(g64
g50
NtRp816
(dp817
g53
(dp818
sg62
g752
sg55
(lp819
g48
(g69
g50
NtRp820
(dp821
g53
(dp822
g73
g74
ssg62
g816
sg55
(lp823
g325
asbag48
(g69
g50
NtRp824
(dp825
g53
(dp826
g80
g81
ssg62
g816
sg55
(lp827
S':'
asbag48
(g69
g50
NtRp828
(dp829
g53
(dp830
sg62
g816
sg55
(lp831
g48
(g49
g50
NtRp832
(dp833
g53
(dp834
g61
I3
ssg62
g828
sg55
(lp835
S''
asbasbasbag48
(g64
g50
NtRp836
(dp837
g53
(dp838
sg62
g752
sg55
(lp839
g48
(g69
g50
NtRp840
(dp841
g53
(dp842
g73
g74
ssg62
g836
sg55
(lp843
g346
asbag48
(g69
g50
NtRp844
(dp845
g53
(dp846
g80
g81
ssg62
g836
sg55
(lp847
S':'
asbag48
(g69
g50
NtRp848
(dp849
g53
(dp850
sg62
g836
sg55
(lp851
g48
(g49
g50
NtRp852
(dp853
g53
(dp854
g61
I3
ssg62
g848
sg55
(lp855
S''
asbasbasbag48
(g64
g50
NtRp856
(dp857
g53
(dp858
sg62
g752
sg55
(lp859
g48
(g69
g50
NtRp860
(dp861
g53
(dp862
g73
g74
ssg62
g856
sg55
(lp863
g367
asbag48
(g69
g50
NtRp864
(dp865
g53
(dp866
g80
g81
ssg62
g856
sg55
(lp867
S':'
asbag48
(g69
g50
NtRp868
(dp869
g53
(dp870
sg62
g856
sg55
(lp871
g48
(g49
g50
NtRp872
(dp873
g53
(dp874
g61
I3
ssg62
g868
sg55
(lp875
S''
asbasbasbag48
(g64
g50
NtRp876
(dp877
g53
(dp878
sg62
g752
sg55
(lp879
g48
(g69
g50
NtRp880
(dp881
g53
(dp882
g73
g74
ssg62
g876
sg55
(lp883
g388
asbag48
(g69
g50
NtRp884
(dp885
g53
(dp886
g80
g81
ssg62
g876
sg55
(lp887
S':'
asbag48
(g69
g50
NtRp888
(dp889
g53
(dp890
sg62
g876
sg55
(lp891
g48
(g49
g50
NtRp892
(dp893
g53
(dp894
g61
I3
ssg62
g888
sg55
(lp895
S''
asbasbasbasbasbasbasbag48
(g64
g50
NtRp896
(dp897
g53
(dp898
sg62
g225
sg55
(lp899
g48
(g69
g50
NtRp900
(dp901
g53
(dp902
g73
g74
ssg62
g896
sg55
(lp903
S'session_id_welcome'
p904
asbag48
(g69
g50
NtRp905
(dp906
g53
(dp907
g80
g81
ssg62
g896
sg55
(lp908
S':'
asbag48
(g69
g50
NtRp909
(dp910
g53
(dp911
sg62
g896
sg55
(lp912
g48
(g49
g50
NtRp913
(dp914
g53
(dp915
g61
I4
ssg62
g909
sg55
(lp916
g48
(g57
g50
NtRp917
(dp918
g53
(dp919
g61
I3
ssg62
Nsg55
(lp920
g48
(g64
g50
NtRp921
(dp922
g53
(dp923
sg62
g917
sg55
(lp924
g48
(g69
g50
NtRp925
(dp926
g53
(dp927
g73
g74
ssg62
g921
sg55
(lp928
g262
asbag48
(g69
g50
NtRp929
(dp930
g53
(dp931
g80
g81
ssg62
g921
sg55
(lp932
S':'
asbag48
(g69
g50
NtRp933
(dp934
g53
(dp935
sg62
g921
sg55
(lp936
g48
(g49
g50
NtRp937
(dp938
g53
(dp939
g61
I3
ssg62
g933
sg55
(lp940
S''
asbasbasbag48
(g64
g50
NtRp941
(dp942
g53
(dp943
sg62
g917
sg55
(lp944
g48
(g69
g50
NtRp945
(dp946
g53
(dp947
g73
g74
ssg62
g941
sg55
(lp948
g283
asbag48
(g69
g50
NtRp949
(dp950
g53
(dp951
g80
g81
ssg62
g941
sg55
(lp952
S':'
asbag48
(g69
g50
NtRp953
(dp954
g53
(dp955
sg62
g941
sg55
(lp956
g48
(g49
g50
NtRp957
(dp958
g53
(dp959
g61
I3
ssg62
g953
sg55
(lp960
S''
asbasbasbag48
(g64
g50
NtRp961
(dp962
g53
(dp963
sg62
g917
sg55
(lp964
g48
(g69
g50
NtRp965
(dp966
g53
(dp967
g73
g74
ssg62
g961
sg55
(lp968
g304
asbag48
(g69
g50
NtRp969
(dp970
g53
(dp971
g80
g81
ssg62
g961
sg55
(lp972
S':'
asbag48
(g69
g50
NtRp973
(dp974
g53
(dp975
sg62
g961
sg55
(lp976
g48
(g49
g50
NtRp977
(dp978
g53
(dp979
g61
I3
ssg62
g973
sg55
(lp980
S''
asbasbasbag48
(g64
g50
NtRp981
(dp982
g53
(dp983
sg62
g917
sg55
(lp984
g48
(g69
g50
NtRp985
(dp986
g53
(dp987
g73
g74
ssg62
g981
sg55
(lp988
g325
asbag48
(g69
g50
NtRp989
(dp990
g53
(dp991
g80
g81
ssg62
g981
sg55
(lp992
S':'
asbag48
(g69
g50
NtRp993
(dp994
g53
(dp995
sg62
g981
sg55
(lp996
g48
(g49
g50
NtRp997
(dp998
g53
(dp999
g61
I3
ssg62
g993
sg55
(lp1000
S''
asbasbasbag48
(g64
g50
NtRp1001
(dp1002
g53
(dp1003
sg62
g917
sg55
(lp1004
g48
(g69
g50
NtRp1005
(dp1006
g53
(dp1007
g73
g74
ssg62
g1001
sg55
(lp1008
g346
asbag48
(g69
g50
NtRp1009
(dp1010
g53
(dp1011
g80
g81
ssg62
g1001
sg55
(lp1012
S':'
asbag48
(g69
g50
NtRp1013
(dp1014
g53
(dp1015
sg62
g1001
sg55
(lp1016
g48
(g49
g50
NtRp1017
(dp1018
g53
(dp1019
g61
I3
ssg62
g1013
sg55
(lp1020
S''
asbasbasbag48
(g64
g50
NtRp1021
(dp1022
g53
(dp1023
sg62
g917
sg55
(lp1024
g48
(g69
g50
NtRp1025
(dp1026
g53
(dp1027
g73
g74
ssg62
g1021
sg55
(lp1028
g367
asbag48
(g69
g50
NtRp1029
(dp1030
g53
(dp1031
g80
g81
ssg62
g1021
sg55
(lp1032
S':'
asbag48
(g69
g50
NtRp1033
(dp1034
g53
(dp1035
sg62
g1021
sg55
(lp1036
g48
(g49
g50
NtRp1037
(dp1038
g53
(dp1039
g61
I3
ssg62
g1033
sg55
(lp1040
S''
asbasbasbag48
(g64
g50
NtRp1041
(dp1042
g53
(dp1043
sg62
g917
sg55
(lp1044
g48
(g69
g50
NtRp1045
(dp1046
g53
(dp1047
g73
g74
ssg62
g1041
sg55
(lp1048
g388
asbag48
(g69
g50
NtRp1049
(dp1050
g53
(dp1051
g80
g81
ssg62
g1041
sg55
(lp1052
S':'
asbag48
(g69
g50
NtRp1053
(dp1054
g53
(dp1055
sg62
g1041
sg55
(lp1056
g48
(g49
g50
NtRp1057
(dp1058
g53
(dp1059
g61
I3
ssg62
g1053
sg55
(lp1060
S''
asbasbasbasbasbasbasbasbasbasbasbag48
(g64
g50
NtRp1061
(dp1062
g53
(dp1063
sg62
g58
sg55
(lp1064
g48
(g69
g50
NtRp1065
(dp1066
g53
(dp1067
g73
g74
ssg62
g1061
sg55
(lp1068
S'env'
p1069
asbag48
(g69
g50
NtRp1070
(dp1071
g53
(dp1072
g80
g81
ssg62
g1061
sg55
(lp1073
S':'
asbag48
(g69
g50
NtRp1074
(dp1075
g53
(dp1076
sg62
g1061
sg55
(lp1077
g48
(g49
g50
NtRp1078
(dp1079
g53
(dp1080
g61
I5
ssg62
g1074
sg55
(lp1081
g48
(g57
g50
NtRp1082
(dp1083
g53
(dp1084
g61
I4
ssg62
Nsg55
(lp1085
g48
(g64
g50
NtRp1086
(dp1087
g53
(dp1088
sg62
g1082
sg55
(lp1089
g48
(g69
g50
NtRp1090
(dp1091
g53
(dp1092
g73
g74
ssg62
g1086
sg55
(lp1093
S'app_folders'
p1094
asbag48
(g69
g50
NtRp1095
(dp1096
g53
(dp1097
g80
g81
ssg62
g1086
sg55
(lp1098
S':'
asbag48
(g69
g50
NtRp1099
(dp1100
g53
(dp1101
sg62
g1086
sg55
(lp1102
g48
(g49
g50
NtRp1103
(dp1104
g53
(dp1105
g61
I4
ssg62
g1099
sg55
(lp1106
S"set(['C:\\\\Users\\\\Atomico\\\\web2py\\\\applications\\\\welcome\\\\', 'C:\\\\Users\\\\Atomico\\\\web2py\\\\applications\\\\hemoal\\\\', 'C:\\\\Users\\\\Atomico\\\\web2py\\\\applications\\\\Desglosar_Emails\\\\', 'C:\\\\Users\\\\Atomico\\\\web2py\\\\applications\\\\admin\\\\'])"
p1107
asbasbasbag48
(g64
g50
NtRp1108
(dp1109
g53
(dp1110
sg62
g1082
sg55
(lp1111
g48
(g69
g50
NtRp1112
(dp1113
g53
(dp1114
g73
g74
ssg62
g1108
sg55
(lp1115
S'applications_parent'
p1116
asbag48
(g69
g50
NtRp1117
(dp1118
g53
(dp1119
g80
g81
ssg62
g1108
sg55
(lp1120
S':'
asbag48
(g69
g50
NtRp1121
(dp1122
g53
(dp1123
sg62
g1108
sg55
(lp1124
g48
(g49
g50
NtRp1125
(dp1126
g53
(dp1127
g61
I4
ssg62
g1121
sg55
(lp1128
S'C:\\Users\\Atomico\\web2py'
p1129
asbasbasbag48
(g64
g50
NtRp1130
(dp1131
g53
(dp1132
sg62
g1082
sg55
(lp1133
g48
(g69
g50
NtRp1134
(dp1135
g53
(dp1136
g73
g74
ssg62
g1130
sg55
(lp1137
S'cmd_args'
p1138
asbag48
(g69
g50
NtRp1139
(dp1140
g53
(dp1141
g80
g81
ssg62
g1130
sg55
(lp1142
S':'
asbag48
(g69
g50
NtRp1143
(dp1144
g53
(dp1145
sg62
g1130
sg55
(lp1146
g48
(g49
g50
NtRp1147
(dp1148
g53
(dp1149
g61
I4
ssg62
g1143
sg55
(lp1150
g48
(g57
g50
NtRp1151
(dp1152
g53
(dp1153
g61
I3
ssg62
Nsg55
(lp1154
sbasbasbasbag48
(g64
g50
NtRp1155
(dp1156
g53
(dp1157
sg62
g1082
sg55
(lp1158
g48
(g69
g50
NtRp1159
(dp1160
g53
(dp1161
g73
g74
ssg62
g1155
sg55
(lp1162
S'cmd_options'
p1163
asbag48
(g69
g50
NtRp1164
(dp1165
g53
(dp1166
g80
g81
ssg62
g1155
sg55
(lp1167
S':'
asbag48
(g69
g50
NtRp1168
(dp1169
g53
(dp1170
sg62
g1155
sg55
(lp1171
g48
(g49
g50
NtRp1172
(dp1173
g53
(dp1174
g61
I4
ssg62
g1168
sg55
(lp1175
S"<Values at 0x304b620: {'verbose': False, 'ip': '127.0.0.1', 'shutdown_timeout': 5, 'taskbar': False, 'port': 8000, 'maxthreads': None, 'softcron': False, 'server_name': 'Swing', 'bpython': False, 'nogui': False, 'nocron': False, 'extcron': False, 'debuglevel': 30, 'test': None, 'folder': 'C:\\\\Users\\\\Atomico\\\\web2py', 'config': '', 'import_models': False, 'winservice': '', 'shell': None, 'run': '', 'log_filename': 'httpserver.log', 'args': [''], 'profiler_filename': None, 'ssl_private_key': '', 'password': '<ask>', 'request_queue_size': 5, 'ssl_certificate': '', 'cronjob': False, 'plain': False, 'quiet': False, 'interfaces': None, 'minthreads': None, 'timeout': 10, 'numthreads': None, 'nobanner': False, 'pid_filename': 'httpserver.pid'}>"
p1176
asbasbasbag48
(g64
g50
NtRp1177
(dp1178
g53
(dp1179
sg62
g1082
sg55
(lp1180
g48
(g69
g50
NtRp1181
(dp1182
g53
(dp1183
g73
g74
ssg62
g1177
sg55
(lp1184
S'db_sessions'
p1185
asbag48
(g69
g50
NtRp1186
(dp1187
g53
(dp1188
g80
g81
ssg62
g1177
sg55
(lp1189
S':'
asbag48
(g69
g50
NtRp1190
(dp1191
g53
(dp1192
sg62
g1177
sg55
(lp1193
g48
(g49
g50
NtRp1194
(dp1195
g53
(dp1196
g61
I4
ssg62
g1190
sg55
(lp1197
S'set([])'
p1198
asbasbasbag48
(g64
g50
NtRp1199
(dp1200
g53
(dp1201
sg62
g1082
sg55
(lp1202
g48
(g69
g50
NtRp1203
(dp1204
g53
(dp1205
g73
g74
ssg62
g1199
sg55
(lp1206
S'debugging'
p1207
asbag48
(g69
g50
NtRp1208
(dp1209
g53
(dp1210
g80
g81
ssg62
g1199
sg55
(lp1211
S':'
asbag48
(g69
g50
NtRp1212
(dp1213
g53
(dp1214
sg62
g1199
sg55
(lp1215
g48
(g49
g50
NtRp1216
(dp1217
g53
(dp1218
g61
I4
ssg62
g1212
sg55
(lp1219
g91
asbasbasbag48
(g64
g50
NtRp1220
(dp1221
g53
(dp1222
sg62
g1082
sg55
(lp1223
g48
(g69
g50
NtRp1224
(dp1225
g53
(dp1226
g73
g74
ssg62
g1220
sg55
(lp1227
S'gluon_parent'
p1228
asbag48
(g69
g50
NtRp1229
(dp1230
g53
(dp1231
g80
g81
ssg62
g1220
sg55
(lp1232
S':'
asbag48
(g69
g50
NtRp1233
(dp1234
g53
(dp1235
sg62
g1220
sg55
(lp1236
g48
(g49
g50
NtRp1237
(dp1238
g53
(dp1239
g61
I4
ssg62
g1233
sg55
(lp1240
S'C:\\Users\\Atomico\\web2py'
p1241
asbasbasbag48
(g64
g50
NtRp1242
(dp1243
g53
(dp1244
sg62
g1082
sg55
(lp1245
g48
(g69
g50
NtRp1246
(dp1247
g53
(dp1248
g73
g74
ssg62
g1242
sg55
(lp1249
S'http_accept'
p1250
asbag48
(g69
g50
NtRp1251
(dp1252
g53
(dp1253
g80
g81
ssg62
g1242
sg55
(lp1254
S':'
asbag48
(g69
g50
NtRp1255
(dp1256
g53
(dp1257
sg62
g1242
sg55
(lp1258
g48
(g49
g50
NtRp1259
(dp1260
g53
(dp1261
g61
I4
ssg62
g1255
sg55
(lp1262
S'text/html,application/xhtml+xml,application/xml;q=0.9,*/*;q=0.8'
p1263
asbasbasbag48
(g64
g50
NtRp1264
(dp1265
g53
(dp1266
sg62
g1082
sg55
(lp1267
g48
(g69
g50
NtRp1268
(dp1269
g53
(dp1270
g73
g74
ssg62
g1264
sg55
(lp1271
S'http_accept_charset'
p1272
asbag48
(g69
g50
NtRp1273
(dp1274
g53
(dp1275
g80
g81
ssg62
g1264
sg55
(lp1276
S':'
asbag48
(g69
g50
NtRp1277
(dp1278
g53
(dp1279
sg62
g1264
sg55
(lp1280
g48
(g49
g50
NtRp1281
(dp1282
g53
(dp1283
g61
I4
ssg62
g1277
sg55
(lp1284
S'ISO-8859-1,utf-8;q=0.7,*;q=0.7'
p1285
asbasbasbag48
(g64
g50
NtRp1286
(dp1287
g53
(dp1288
sg62
g1082
sg55
(lp1289
g48
(g69
g50
NtRp1290
(dp1291
g53
(dp1292
g73
g74
ssg62
g1286
sg55
(lp1293
S'http_accept_encoding'
p1294
asbag48
(g69
g50
NtRp1295
(dp1296
g53
(dp1297
g80
g81
ssg62
g1286
sg55
(lp1298
S':'
asbag48
(g69
g50
NtRp1299
(dp1300
g53
(dp1301
sg62
g1286
sg55
(lp1302
g48
(g49
g50
NtRp1303
(dp1304
g53
(dp1305
g61
I4
ssg62
g1299
sg55
(lp1306
S'gzip, deflate'
p1307
asbasbasbag48
(g64
g50
NtRp1308
(dp1309
g53
(dp1310
sg62
g1082
sg55
(lp1311
g48
(g69
g50
NtRp1312
(dp1313
g53
(dp1314
g73
g74
ssg62
g1308
sg55
(lp1315
S'http_accept_language'
p1316
asbag48
(g69
g50
NtRp1317
(dp1318
g53
(dp1319
g80
g81
ssg62
g1308
sg55
(lp1320
S':'
asbag48
(g69
g50
NtRp1321
(dp1322
g53
(dp1323
sg62
g1308
sg55
(lp1324
g48
(g49
g50
NtRp1325
(dp1326
g53
(dp1327
g61
I4
ssg62
g1321
sg55
(lp1328
S'es-es,es;q=0.8,en-us;q=0.5,en;q=0.3'
p1329
asbasbasbag48
(g64
g50
NtRp1330
(dp1331
g53
(dp1332
sg62
g1082
sg55
(lp1333
g48
(g69
g50
NtRp1334
(dp1335
g53
(dp1336
g73
g74
ssg62
g1330
sg55
(lp1337
S'http_connection'
p1338
asbag48
(g69
g50
NtRp1339
(dp1340
g53
(dp1341
g80
g81
ssg62
g1330
sg55
(lp1342
S':'
asbag48
(g69
g50
NtRp1343
(dp1344
g53
(dp1345
sg62
g1330
sg55
(lp1346
g48
(g49
g50
NtRp1347
(dp1348
g53
(dp1349
g61
I4
ssg62
g1343
sg55
(lp1350
S'keep-alive'
p1351
asbasbasbag48
(g64
g50
NtRp1352
(dp1353
g53
(dp1354
sg62
g1082
sg55
(lp1355
g48
(g69
g50
NtRp1356
(dp1357
g53
(dp1358
g73
g74
ssg62
g1352
sg55
(lp1359
S'http_cookie'
p1360
asbag48
(g69
g50
NtRp1361
(dp1362
g53
(dp1363
g80
g81
ssg62
g1352
sg55
(lp1364
S':'
asbag48
(g69
g50
NtRp1365
(dp1366
g53
(dp1367
sg62
g1352
sg55
(lp1368
g48
(g49
g50
NtRp1369
(dp1370
g53
(dp1371
g61
I4
ssg62
g1365
sg55
(lp1372
S'session_id_welcome=127.0.0.1-082a2830-9bb6-4bfb-b2e2-4857b06c191e; session_id_admin=127.0.0.1-47fb3a34-c5d7-4353-b3ad-9fae00359bf6; session_id_listado_1=127.0.0.1-477ec098-5436-4f6e-bfee-1a0bd88f6f9e; session_id_desglosar_emails=127.0.0.1-0a11b3b2-660c-433c-b71f-fc129286f26c; session_id_hemoal=127.0.0.1-fac57c68-2711-42d2-802b-d0c993966ce9'
p1373
asbasbasbag48
(g64
g50
NtRp1374
(dp1375
g53
(dp1376
sg62
g1082
sg55
(lp1377
g48
(g69
g50
NtRp1378
(dp1379
g53
(dp1380
g73
g74
ssg62
g1374
sg55
(lp1381
S'http_host'
p1382
asbag48
(g69
g50
NtRp1383
(dp1384
g53
(dp1385
g80
g81
ssg62
g1374
sg55
(lp1386
S':'
asbag48
(g69
g50
NtRp1387
(dp1388
g53
(dp1389
sg62
g1374
sg55
(lp1390
g48
(g49
g50
NtRp1391
(dp1392
g53
(dp1393
g61
I4
ssg62
g1387
sg55
(lp1394
S'127.0.0.1:8000'
p1395
asbasbasbag48
(g64
g50
NtRp1396
(dp1397
g53
(dp1398
sg62
g1082
sg55
(lp1399
g48
(g69
g50
NtRp1400
(dp1401
g53
(dp1402
g73
g74
ssg62
g1396
sg55
(lp1403
S'http_referer'
p1404
asbag48
(g69
g50
NtRp1405
(dp1406
g53
(dp1407
g80
g81
ssg62
g1396
sg55
(lp1408
S':'
asbag48
(g69
g50
NtRp1409
(dp1410
g53
(dp1411
sg62
g1396
sg55
(lp1412
g48
(g49
g50
NtRp1413
(dp1414
g53
(dp1415
g61
I4
ssg62
g1409
sg55
(lp1416
S'http://127.0.0.1:8000/admin/default/design/Desglosar_Emails'
p1417
asbasbasbag48
(g64
g50
NtRp1418
(dp1419
g53
(dp1420
sg62
g1082
sg55
(lp1421
g48
(g69
g50
NtRp1422
(dp1423
g53
(dp1424
g73
g74
ssg62
g1418
sg55
(lp1425
S'http_user_agent'
p1426
asbag48
(g69
g50
NtRp1427
(dp1428
g53
(dp1429
g80
g81
ssg62
g1418
sg55
(lp1430
S':'
asbag48
(g69
g50
NtRp1431
(dp1432
g53
(dp1433
sg62
g1418
sg55
(lp1434
g48
(g49
g50
NtRp1435
(dp1436
g53
(dp1437
g61
I4
ssg62
g1431
sg55
(lp1438
S'Mozilla/5.0 (Windows NT 6.1; WOW64; rv:6.0.2) Gecko/20100101 Firefox/6.0.2'
p1439
asbasbasbag48
(g64
g50
NtRp1440
(dp1441
g53
(dp1442
sg62
g1082
sg55
(lp1443
g48
(g69
g50
NtRp1444
(dp1445
g53
(dp1446
g73
g74
ssg62
g1440
sg55
(lp1447
S'is_jython'
p1448
asbag48
(g69
g50
NtRp1449
(dp1450
g53
(dp1451
g80
g81
ssg62
g1440
sg55
(lp1452
S':'
asbag48
(g69
g50
NtRp1453
(dp1454
g53
(dp1455
sg62
g1440
sg55
(lp1456
g48
(g49
g50
NtRp1457
(dp1458
g53
(dp1459
g61
I4
ssg62
g1453
sg55
(lp1460
g91
asbasbasbag48
(g64
g50
NtRp1461
(dp1462
g53
(dp1463
sg62
g1082
sg55
(lp1464
g48
(g69
g50
NtRp1465
(dp1466
g53
(dp1467
g73
g74
ssg62
g1461
sg55
(lp1468
S'path_info'
p1469
asbag48
(g69
g50
NtRp1470
(dp1471
g53
(dp1472
g80
g81
ssg62
g1461
sg55
(lp1473
S':'
asbag48
(g69
g50
NtRp1474
(dp1475
g53
(dp1476
sg62
g1461
sg55
(lp1477
g48
(g49
g50
NtRp1478
(dp1479
g53
(dp1480
g61
I4
ssg62
g1474
sg55
(lp1481
S'/Desglosar_Emails/default/entrada_mod1'
p1482
asbasbasbag48
(g64
g50
NtRp1483
(dp1484
g53
(dp1485
sg62
g1082
sg55
(lp1486
g48
(g69
g50
NtRp1487
(dp1488
g53
(dp1489
g73
g74
ssg62
g1483
sg55
(lp1490
S'query_string'
p1491
asbag48
(g69
g50
NtRp1492
(dp1493
g53
(dp1494
g80
g81
ssg62
g1483
sg55
(lp1495
S':'
asbag48
(g69
g50
NtRp1496
(dp1497
g53
(dp1498
sg62
g1483
sg55
(lp1499
g48
(g49
g50
NtRp1500
(dp1501
g53
(dp1502
g61
I4
ssg62
g1496
sg55
(lp1503
S''
asbasbasbag48
(g64
g50
NtRp1504
(dp1505
g53
(dp1506
sg62
g1082
sg55
(lp1507
g48
(g69
g50
NtRp1508
(dp1509
g53
(dp1510
g73
g74
ssg62
g1504
sg55
(lp1511
S'remote_addr'
p1512
asbag48
(g69
g50
NtRp1513
(dp1514
g53
(dp1515
g80
g81
ssg62
g1504
sg55
(lp1516
S':'
asbag48
(g69
g50
NtRp1517
(dp1518
g53
(dp1519
sg62
g1504
sg55
(lp1520
g48
(g49
g50
NtRp1521
(dp1522
g53
(dp1523
g61
I4
ssg62
g1517
sg55
(lp1524
g181
asbasbasbag48
(g64
g50
NtRp1525
(dp1526
g53
(dp1527
sg62
g1082
sg55
(lp1528
g48
(g69
g50
NtRp1529
(dp1530
g53
(dp1531
g73
g74
ssg62
g1525
sg55
(lp1532
S'remote_port'
p1533
asbag48
(g69
g50
NtRp1534
(dp1535
g53
(dp1536
g80
g81
ssg62
g1525
sg55
(lp1537
S':'
asbag48
(g69
g50
NtRp1538
(dp1539
g53
(dp1540
sg62
g1525
sg55
(lp1541
g48
(g49
g50
NtRp1542
(dp1543
g53
(dp1544
g61
I4
ssg62
g1538
sg55
(lp1545
S'62231'
p1546
asbasbasbag48
(g64
g50
NtRp1547
(dp1548
g53
(dp1549
sg62
g1082
sg55
(lp1550
g48
(g69
g50
NtRp1551
(dp1552
g53
(dp1553
g73
g74
ssg62
g1547
sg55
(lp1554
S'request_method'
p1555
asbag48
(g69
g50
NtRp1556
(dp1557
g53
(dp1558
g80
g81
ssg62
g1547
sg55
(lp1559
S':'
asbag48
(g69
g50
NtRp1560
(dp1561
g53
(dp1562
sg62
g1547
sg55
(lp1563
g48
(g49
g50
NtRp1564
(dp1565
g53
(dp1566
g61
I4
ssg62
g1560
sg55
(lp1567
S'GET'
p1568
asbasbasbag48
(g64
g50
NtRp1569
(dp1570
g53
(dp1571
sg62
g1082
sg55
(lp1572
g48
(g69
g50
NtRp1573
(dp1574
g53
(dp1575
g73
g74
ssg62
g1569
sg55
(lp1576
S'script_name'
p1577
asbag48
(g69
g50
NtRp1578
(dp1579
g53
(dp1580
g80
g81
ssg62
g1569
sg55
(lp1581
S':'
asbag48
(g69
g50
NtRp1582
(dp1583
g53
(dp1584
sg62
g1569
sg55
(lp1585
g48
(g49
g50
NtRp1586
(dp1587
g53
(dp1588
g61
I4
ssg62
g1582
sg55
(lp1589
S''
asbasbasbag48
(g64
g50
NtRp1590
(dp1591
g53
(dp1592
sg62
g1082
sg55
(lp1593
g48
(g69
g50
NtRp1594
(dp1595
g53
(dp1596
g73
g74
ssg62
g1590
sg55
(lp1597
S'server_name'
p1598
asbag48
(g69
g50
NtRp1599
(dp1600
g53
(dp1601
g80
g81
ssg62
g1590
sg55
(lp1602
S':'
asbag48
(g69
g50
NtRp1603
(dp1604
g53
(dp1605
sg62
g1590
sg55
(lp1606
g48
(g49
g50
NtRp1607
(dp1608
g53
(dp1609
g61
I4
ssg62
g1603
sg55
(lp1610
S'Swing'
p1611
asbasbasbag48
(g64
g50
NtRp1612
(dp1613
g53
(dp1614
sg62
g1082
sg55
(lp1615
g48
(g69
g50
NtRp1616
(dp1617
g53
(dp1618
g73
g74
ssg62
g1612
sg55
(lp1619
S'server_port'
p1620
asbag48
(g69
g50
NtRp1621
(dp1622
g53
(dp1623
g80
g81
ssg62
g1612
sg55
(lp1624
S':'
asbag48
(g69
g50
NtRp1625
(dp1626
g53
(dp1627
sg62
g1612
sg55
(lp1628
g48
(g49
g50
NtRp1629
(dp1630
g53
(dp1631
g61
I4
ssg62
g1625
sg55
(lp1632
S'8000'
p1633
asbasbasbag48
(g64
g50
NtRp1634
(dp1635
g53
(dp1636
sg62
g1082
sg55
(lp1637
g48
(g69
g50
NtRp1638
(dp1639
g53
(dp1640
g73
g74
ssg62
g1634
sg55
(lp1641
S'server_protocol'
p1642
asbag48
(g69
g50
NtRp1643
(dp1644
g53
(dp1645
g80
g81
ssg62
g1634
sg55
(lp1646
S':'
asbag48
(g69
g50
NtRp1647
(dp1648
g53
(dp1649
sg62
g1634
sg55
(lp1650
g48
(g49
g50
NtRp1651
(dp1652
g53
(dp1653
g61
I4
ssg62
g1647
sg55
(lp1654
S'HTTP/1.1'
p1655
asbasbasbag48
(g64
g50
NtRp1656
(dp1657
g53
(dp1658
sg62
g1082
sg55
(lp1659
g48
(g69
g50
NtRp1660
(dp1661
g53
(dp1662
g73
g74
ssg62
g1656
sg55
(lp1663
S'server_software'
p1664
asbag48
(g69
g50
NtRp1665
(dp1666
g53
(dp1667
g80
g81
ssg62
g1656
sg55
(lp1668
S':'
asbag48
(g69
g50
NtRp1669
(dp1670
g53
(dp1671
sg62
g1656
sg55
(lp1672
g48
(g49
g50
NtRp1673
(dp1674
g53
(dp1675
g61
I4
ssg62
g1669
sg55
(lp1676
S'Rocket 1.2.2'
p1677
asbasbasbag48
(g64
g50
NtRp1678
(dp1679
g53
(dp1680
sg62
g1082
sg55
(lp1681
g48
(g69
g50
NtRp1682
(dp1683
g53
(dp1684
g73
g74
ssg62
g1678
sg55
(lp1685
S'web2py_crontype'
p1686
asbag48
(g69
g50
NtRp1687
(dp1688
g53
(dp1689
g80
g81
ssg62
g1678
sg55
(lp1690
S':'
asbag48
(g69
g50
NtRp1691
(dp1692
g53
(dp1693
sg62
g1678
sg55
(lp1694
g48
(g49
g50
NtRp1695
(dp1696
g53
(dp1697
g61
I4
ssg62
g1691
sg55
(lp1698
S'hard'
p1699
asbasbasbag48
(g64
g50
NtRp1700
(dp1701
g53
(dp1702
sg62
g1082
sg55
(lp1703
g48
(g69
g50
NtRp1704
(dp1705
g53
(dp1706
g73
g74
ssg62
g1700
sg55
(lp1707
S'web2py_path'
p1708
asbag48
(g69
g50
NtRp1709
(dp1710
g53
(dp1711
g80
g81
ssg62
g1700
sg55
(lp1712
S':'
asbag48
(g69
g50
NtRp1713
(dp1714
g53
(dp1715
sg62
g1700
sg55
(lp1716
g48
(g49
g50
NtRp1717
(dp1718
g53
(dp1719
g61
I4
ssg62
g1713
sg55
(lp1720
g1129
asbasbasbag48
(g64
g50
NtRp1721
(dp1722
g53
(dp1723
sg62
g1082
sg55
(lp1724
g48
(g69
g50
NtRp1725
(dp1726
g53
(dp1727
g73
g74
ssg62
g1721
sg55
(lp1728
S'web2py_version'
p1729
asbag48
(g69
g50
NtRp1730
(dp1731
g53
(dp1732
g80
g81
ssg62
g1721
sg55
(lp1733
S':'
asbag48
(g69
g50
NtRp1734
(dp1735
g53
(dp1736
sg62
g1721
sg55
(lp1737
g48
(g49
g50
NtRp1738
(dp1739
g53
(dp1740
g61
I4
ssg62
g1734
sg55
(lp1741
S'Version 1.98.2 (2011-08-04 00:47:09)\n'
p1742
asbasbasbag48
(g64
g50
NtRp1743
(dp1744
g53
(dp1745
sg62
g1082
sg55
(lp1746
g48
(g69
g50
NtRp1747
(dp1748
g53
(dp1749
g73
g74
ssg62
g1743
sg55
(lp1750
S'wsgi_errors'
p1751
asbag48
(g69
g50
NtRp1752
(dp1753
g53
(dp1754
g80
g81
ssg62
g1743
sg55
(lp1755
S':'
asbag48
(g69
g50
NtRp1756
(dp1757
g53
(dp1758
sg62
g1743
sg55
(lp1759
g48
(g49
g50
NtRp1760
(dp1761
g53
(dp1762
g61
I4
ssg62
g1756
sg55
(lp1763
S"<open file '<stderr>', mode 'w' at 0x004800B0>"
p1764
asbasbasbag48
(g64
g50
NtRp1765
(dp1766
g53
(dp1767
sg62
g1082
sg55
(lp1768
g48
(g69
g50
NtRp1769
(dp1770
g53
(dp1771
g73
g74
ssg62
g1765
sg55
(lp1772
S'wsgi_file_wrapper'
p1773
asbag48
(g69
g50
NtRp1774
(dp1775
g53
(dp1776
g80
g81
ssg62
g1765
sg55
(lp1777
S':'
asbag48
(g69
g50
NtRp1778
(dp1779
g53
(dp1780
sg62
g1765
sg55
(lp1781
g48
(g49
g50
NtRp1782
(dp1783
g53
(dp1784
g61
I4
ssg62
g1778
sg55
(lp1785
S'<class gluon.rocket.FileWrapper at 0x02FDC1B0>'
p1786
asbasbasbag48
(g64
g50
NtRp1787
(dp1788
g53
(dp1789
sg62
g1082
sg55
(lp1790
g48
(g69
g50
NtRp1791
(dp1792
g53
(dp1793
g73
g74
ssg62
g1787
sg55
(lp1794
S'wsgi_input'
p1795
asbag48
(g69
g50
NtRp1796
(dp1797
g53
(dp1798
g80
g81
ssg62
g1787
sg55
(lp1799
S':'
asbag48
(g69
g50
NtRp1800
(dp1801
g53
(dp1802
sg62
g1787
sg55
(lp1803
g48
(g49
g50
NtRp1804
(dp1805
g53
(dp1806
g61
I4
ssg62
g1800
sg55
(lp1807
S'<socket._fileobject object at 0x031FAD30>'
p1808
asbasbasbag48
(g64
g50
NtRp1809
(dp1810
g53
(dp1811
sg62
g1082
sg55
(lp1812
g48
(g69
g50
NtRp1813
(dp1814
g53
(dp1815
g73
g74
ssg62
g1809
sg55
(lp1816
S'wsgi_multiprocess'
p1817
asbag48
(g69
g50
NtRp1818
(dp1819
g53
(dp1820
g80
g81
ssg62
g1809
sg55
(lp1821
S':'
asbag48
(g69
g50
NtRp1822
(dp1823
g53
(dp1824
sg62
g1809
sg55
(lp1825
g48
(g49
g50
NtRp1826
(dp1827
g53
(dp1828
g61
I4
ssg62
g1822
sg55
(lp1829
g91
asbasbasbag48
(g64
g50
NtRp1830
(dp1831
g53
(dp1832
sg62
g1082
sg55
(lp1833
g48
(g69
g50
NtRp1834
(dp1835
g53
(dp1836
g73
g74
ssg62
g1830
sg55
(lp1837
S'wsgi_multithread'
p1838
asbag48
(g69
g50
NtRp1839
(dp1840
g53
(dp1841
g80
g81
ssg62
g1830
sg55
(lp1842
S':'
asbag48
(g69
g50
NtRp1843
(dp1844
g53
(dp1845
sg62
g1830
sg55
(lp1846
g48
(g49
g50
NtRp1847
(dp1848
g53
(dp1849
g61
I4
ssg62
g1843
sg55
(lp1850
S'True'
p1851
asbasbasbag48
(g64
g50
NtRp1852
(dp1853
g53
(dp1854
sg62
g1082
sg55
(lp1855
g48
(g69
g50
NtRp1856
(dp1857
g53
(dp1858
g73
g74
ssg62
g1852
sg55
(lp1859
S'wsgi_run_once'
p1860
asbag48
(g69
g50
NtRp1861
(dp1862
g53
(dp1863
g80
g81
ssg62
g1852
sg55
(lp1864
S':'
asbag48
(g69
g50
NtRp1865
(dp1866
g53
(dp1867
sg62
g1852
sg55
(lp1868
g48
(g49
g50
NtRp1869
(dp1870
g53
(dp1871
g61
I4
ssg62
g1865
sg55
(lp1872
g91
asbasbasbag48
(g64
g50
NtRp1873
(dp1874
g53
(dp1875
sg62
g1082
sg55
(lp1876
g48
(g69
g50
NtRp1877
(dp1878
g53
(dp1879
g73
g74
ssg62
g1873
sg55
(lp1880
S'wsgi_url_scheme'
p1881
asbag48
(g69
g50
NtRp1882
(dp1883
g53
(dp1884
g80
g81
ssg62
g1873
sg55
(lp1885
S':'
asbag48
(g69
g50
NtRp1886
(dp1887
g53
(dp1888
sg62
g1873
sg55
(lp1889
g48
(g49
g50
NtRp1890
(dp1891
g53
(dp1892
g61
I4
ssg62
g1886
sg55
(lp1893
S'http'
p1894
asbasbasbag48
(g64
g50
NtRp1895
(dp1896
g53
(dp1897
sg62
g1082
sg55
(lp1898
g48
(g69
g50
NtRp1899
(dp1900
g53
(dp1901
g73
g74
ssg62
g1895
sg55
(lp1902
S'wsgi_version'
p1903
asbag48
(g69
g50
NtRp1904
(dp1905
g53
(dp1906
g80
g81
ssg62
g1895
sg55
(lp1907
S':'
asbag48
(g69
g50
NtRp1908
(dp1909
g53
(dp1910
sg62
g1895
sg55
(lp1911
g48
(g49
g50
NtRp1912
(dp1913
g53
(dp1914
g61
I4
ssg62
g1908
sg55
(lp1915
g48
(g57
g50
NtRp1916
(dp1917
g53
(dp1918
g61
I3
ssg62
Nsg55
(lp1919
g48
(g64
g50
NtRp1920
(dp1921
g53
(dp1922
sg62
g1916
sg55
(lp1923
g48
(g69
g50
NtRp1924
(dp1925
g53
(dp1926
sg62
g1920
sg55
(lp1927
g48
(g49
g50
NtRp1928
(dp1929
g53
(dp1930
g61
I3
ssg62
g1924
sg55
(lp1931
S'1'
asbasbasbag48
(g64
g50
NtRp1932
(dp1933
g53
(dp1934
sg62
g1916
sg55
(lp1935
g48
(g69
g50
NtRp1936
(dp1937
g53
(dp1938
sg62
g1932
sg55
(lp1939
g48
(g49
g50
NtRp1940
(dp1941
g53
(dp1942
g61
I3
ssg62
g1936
sg55
(lp1943
S'0'
asbasbasbasbasbasbasbasbasbasbasbag48
(g64
g50
NtRp1944
(dp1945
g53
(dp1946
sg62
g58
sg55
(lp1947
g48
(g69
g50
NtRp1948
(dp1949
g53
(dp1950
g73
g74
ssg62
g1944
sg55
(lp1951
S'extension'
p1952
asbag48
(g69
g50
NtRp1953
(dp1954
g53
(dp1955
g80
g81
ssg62
g1944
sg55
(lp1956
S':'
asbag48
(g69
g50
NtRp1957
(dp1958
g53
(dp1959
sg62
g1944
sg55
(lp1960
g48
(g49
g50
NtRp1961
(dp1962
g53
(dp1963
g61
I5
ssg62
g1957
sg55
(lp1964
S'html'
p1965
asbasbasbag48
(g64
g50
NtRp1966
(dp1967
g53
(dp1968
sg62
g58
sg55
(lp1969
g48
(g69
g50
NtRp1970
(dp1971
g53
(dp1972
g73
g74
ssg62
g1966
sg55
(lp1973
S'folder'
p1974
asbag48
(g69
g50
NtRp1975
(dp1976
g53
(dp1977
g80
g81
ssg62
g1966
sg55
(lp1978
S':'
asbag48
(g69
g50
NtRp1979
(dp1980
g53
(dp1981
sg62
g1966
sg55
(lp1982
g48
(g49
g50
NtRp1983
(dp1984
g53
(dp1985
g61
I5
ssg62
g1979
sg55
(lp1986
S'C:\\Users\\Atomico\\web2py\\applications\\Desglosar_Emails\\'
p1987
asbasbasbag48
(g64
g50
NtRp1988
(dp1989
g53
(dp1990
sg62
g58
sg55
(lp1991
g48
(g69
g50
NtRp1992
(dp1993
g53
(dp1994
g73
g74
ssg62
g1988
sg55
(lp1995
S'function'
p1996
asbag48
(g69
g50
NtRp1997
(dp1998
g53
(dp1999
g80
g81
ssg62
g1988
sg55
(lp2000
S':'
asbag48
(g69
g50
NtRp2001
(dp2002
g53
(dp2003
sg62
g1988
sg55
(lp2004
g48
(g49
g50
NtRp2005
(dp2006
g53
(dp2007
g61
I5
ssg62
g2001
sg55
(lp2008
S'entrada_mod1'
p2009
asbasbasbag48
(g64
g50
NtRp2010
(dp2011
g53
(dp2012
sg62
g58
sg55
(lp2013
g48
(g69
g50
NtRp2014
(dp2015
g53
(dp2016
g73
g74
ssg62
g2010
sg55
(lp2017
S'get_vars'
p2018
asbag48
(g69
g50
NtRp2019
(dp2020
g53
(dp2021
g80
g81
ssg62
g2010
sg55
(lp2022
S':'
asbag48
(g69
g50
NtRp2023
(dp2024
g53
(dp2025
sg62
g2010
sg55
(lp2026
g48
(g49
g50
NtRp2027
(dp2028
g53
(dp2029
g61
I5
ssg62
g2023
sg55
(lp2030
g48
(g57
g50
NtRp2031
(dp2032
g53
(dp2033
g61
I4
ssg62
Nsg55
(lp2034
sbasbasbasbag48
(g64
g50
NtRp2035
(dp2036
g53
(dp2037
sg62
g58
sg55
(lp2038
g48
(g69
g50
NtRp2039
(dp2040
g53
(dp2041
g73
g74
ssg62
g2035
sg55
(lp2042
S'is_https'
p2043
asbag48
(g69
g50
NtRp2044
(dp2045
g53
(dp2046
g80
g81
ssg62
g2035
sg55
(lp2047
S':'
asbag48
(g69
g50
NtRp2048
(dp2049
g53
(dp2050
sg62
g2035
sg55
(lp2051
g48
(g49
g50
NtRp2052
(dp2053
g53
(dp2054
g61
I5
ssg62
g2048
sg55
(lp2055
g91
asbasbasbag48
(g64
g50
NtRp2056
(dp2057
g53
(dp2058
sg62
g58
sg55
(lp2059
g48
(g69
g50
NtRp2060
(dp2061
g53
(dp2062
g73
g74
ssg62
g2056
sg55
(lp2063
S'is_local'
p2064
asbag48
(g69
g50
NtRp2065
(dp2066
g53
(dp2067
g80
g81
ssg62
g2056
sg55
(lp2068
S':'
asbag48
(g69
g50
NtRp2069
(dp2070
g53
(dp2071
sg62
g2056
sg55
(lp2072
g48
(g49
g50
NtRp2073
(dp2074
g53
(dp2075
g61
I5
ssg62
g2069
sg55
(lp2076
g1851
asbasbasbag48
(g64
g50
NtRp2077
(dp2078
g53
(dp2079
sg62
g58
sg55
(lp2080
g48
(g69
g50
NtRp2081
(dp2082
g53
(dp2083
g73
g74
ssg62
g2077
sg55
(lp2084
S'is_restful'
p2085
asbag48
(g69
g50
NtRp2086
(dp2087
g53
(dp2088
g80
g81
ssg62
g2077
sg55
(lp2089
S':'
asbag48
(g69
g50
NtRp2090
(dp2091
g53
(dp2092
sg62
g2077
sg55
(lp2093
g48
(g49
g50
NtRp2094
(dp2095
g53
(dp2096
g61
I5
ssg62
g2090
sg55
(lp2097
g91
asbasbasbag48
(g64
g50
NtRp2098
(dp2099
g53
(dp2100
sg62
g58
sg55
(lp2101
g48
(g69
g50
NtRp2102
(dp2103
g53
(dp2104
g73
g74
ssg62
g2098
sg55
(lp2105
S'now'
p2106
asbag48
(g69
g50
NtRp2107
(dp2108
g53
(dp2109
g80
g81
ssg62
g2098
sg55
(lp2110
S':'
asbag48
(g69
g50
NtRp2111
(dp2112
g53
(dp2113
sg62
g2098
sg55
(lp2114
g48
(g49
g50
NtRp2115
(dp2116
g53
(dp2117
g61
I5
ssg62
g2111
sg55
(lp2118
S'datetime.datetime(2011, 9, 18, 21, 55, 3, 571000)'
p2119
asbasbasbag48
(g64
g50
NtRp2120
(dp2121
g53
(dp2122
sg62
g58
sg55
(lp2123
g48
(g69
g50
NtRp2124
(dp2125
g53
(dp2126
g73
g74
ssg62
g2120
sg55
(lp2127
S'post_vars'
p2128
asbag48
(g69
g50
NtRp2129
(dp2130
g53
(dp2131
g80
g81
ssg62
g2120
sg55
(lp2132
S':'
asbag48
(g69
g50
NtRp2133
(dp2134
g53
(dp2135
sg62
g2120
sg55
(lp2136
g48
(g49
g50
NtRp2137
(dp2138
g53
(dp2139
g61
I5
ssg62
g2133
sg55
(lp2140
g48
(g57
g50
NtRp2141
(dp2142
g53
(dp2143
g61
I4
ssg62
Nsg55
(lp2144
sbasbasbasbag48
(g64
g50
NtRp2145
(dp2146
g53
(dp2147
sg62
g58
sg55
(lp2148
g48
(g69
g50
NtRp2149
(dp2150
g53
(dp2151
g73
g74
ssg62
g2145
sg55
(lp2152
S'url'
p2153
asbag48
(g69
g50
NtRp2154
(dp2155
g53
(dp2156
g80
g81
ssg62
g2145
sg55
(lp2157
S':'
asbag48
(g69
g50
NtRp2158
(dp2159
g53
(dp2160
sg62
g2145
sg55
(lp2161
g48
(g49
g50
NtRp2162
(dp2163
g53
(dp2164
g61
I5
ssg62
g2158
sg55
(lp2165
S'/Desglosar_Emails/default/entrada_mod1'
p2166
asbasbasbag48
(g64
g50
NtRp2167
(dp2168
g53
(dp2169
sg62
g58
sg55
(lp2170
g48
(g69
g50
NtRp2171
(dp2172
g53
(dp2173
g73
g74
ssg62
g2167
sg55
(lp2174
S'uuid'
p2175
asbag48
(g69
g50
NtRp2176
(dp2177
g53
(dp2178
g80
g81
ssg62
g2167
sg55
(lp2179
S':'
asbag48
(g69
g50
NtRp2180
(dp2181
g53
(dp2182
sg62
g2167
sg55
(lp2183
g48
(g49
g50
NtRp2184
(dp2185
g53
(dp2186
g61
I5
ssg62
g2180
sg55
(lp2187
S'Desglosar_Emails/127.0.0.1.2011-09-18.21-55-03.ac222305-a749-4e7a-b4ed-2323341526f7'
p2188
asbasbasbag48
(g64
g50
NtRp2189
(dp2190
g53
(dp2191
sg62
g58
sg55
(lp2192
g48
(g69
g50
NtRp2193
(dp2194
g53
(dp2195
g73
g74
ssg62
g2189
sg55
(lp2196
S'vars'
p2197
asbag48
(g69
g50
NtRp2198
(dp2199
g53
(dp2200
g80
g81
ssg62
g2189
sg55
(lp2201
S':'
asbag48
(g69
g50
NtRp2202
(dp2203
g53
(dp2204
sg62
g2189
sg55
(lp2205
g48
(g49
g50
NtRp2206
(dp2207
g53
(dp2208
g61
I5
ssg62
g2202
sg55
(lp2209
g48
(g57
g50
NtRp2210
(dp2211
g53
(dp2212
g61
I4
ssg62
Nsg55
(lp2213
sbasbasbasbag48
(g64
g50
NtRp2214
(dp2215
g53
(dp2216
sg62
g58
sg55
(lp2217
g48
(g69
g50
NtRp2218
(dp2219
g53
(dp2220
g73
g74
ssg62
g2214
sg55
(lp2221
S'wsgi'
p2222
asbag48
(g69
g50
NtRp2223
(dp2224
g53
(dp2225
g80
g81
ssg62
g2214
sg55
(lp2226
S':'
asbag48
(g69
g50
NtRp2227
(dp2228
g53
(dp2229
sg62
g2214
sg55
(lp2230
g48
(g49
g50
NtRp2231
(dp2232
g53
(dp2233
g61
I5
ssg62
g2227
sg55
(lp2234
g48
(g57
g50
NtRp2235
(dp2236
g53
(dp2237
g61
I4
ssg62
Nsg55
(lp2238
g48
(g64
g50
NtRp2239
(dp2240
g53
(dp2241
sg62
g2235
sg55
(lp2242
g48
(g69
g50
NtRp2243
(dp2244
g53
(dp2245
g73
g74
ssg62
g2239
sg55
(lp2246
S'environ'
p2247
asbag48
(g69
g50
NtRp2248
(dp2249
g53
(dp2250
g80
g81
ssg62
g2239
sg55
(lp2251
S':'
asbag48
(g69
g50
NtRp2252
(dp2253
g53
(dp2254
sg62
g2239
sg55
(lp2255
g48
(g49
g50
NtRp2256
(dp2257
g53
(dp2258
g61
I4
ssg62
g2252
sg55
(lp2259
g48
(g57
g50
NtRp2260
(dp2261
g53
(dp2262
g61
I3
ssg62
Nsg55
(lp2263
g48
(g64
g50
NtRp2264
(dp2265
g53
(dp2266
sg62
g2260
sg55
(lp2267
g48
(g69
g50
NtRp2268
(dp2269
g53
(dp2270
g73
g74
ssg62
g2264
sg55
(lp2271
S'HTTP_ACCEPT'
p2272
asbag48
(g69
g50
NtRp2273
(dp2274
g53
(dp2275
g80
g81
ssg62
g2264
sg55
(lp2276
S':'
asbag48
(g69
g50
NtRp2277
(dp2278
g53
(dp2279
sg62
g2264
sg55
(lp2280
g48
(g49
g50
NtRp2281
(dp2282
g53
(dp2283
g61
I3
ssg62
g2277
sg55
(lp2284
g1263
asbasbasbag48
(g64
g50
NtRp2285
(dp2286
g53
(dp2287
sg62
g2260
sg55
(lp2288
g48
(g69
g50
NtRp2289
(dp2290
g53
(dp2291
g73
g74
ssg62
g2285
sg55
(lp2292
S'HTTP_ACCEPT_CHARSET'
p2293
asbag48
(g69
g50
NtRp2294
(dp2295
g53
(dp2296
g80
g81
ssg62
g2285
sg55
(lp2297
S':'
asbag48
(g69
g50
NtRp2298
(dp2299
g53
(dp2300
sg62
g2285
sg55
(lp2301
g48
(g49
g50
NtRp2302
(dp2303
g53
(dp2304
g61
I3
ssg62
g2298
sg55
(lp2305
g1285
asbasbasbag48
(g64
g50
NtRp2306
(dp2307
g53
(dp2308
sg62
g2260
sg55
(lp2309
g48
(g69
g50
NtRp2310
(dp2311
g53
(dp2312
g73
g74
ssg62
g2306
sg55
(lp2313
S'HTTP_ACCEPT_ENCODING'
p2314
asbag48
(g69
g50
NtRp2315
(dp2316
g53
(dp2317
g80
g81
ssg62
g2306
sg55
(lp2318
S':'
asbag48
(g69
g50
NtRp2319
(dp2320
g53
(dp2321
sg62
g2306
sg55
(lp2322
g48
(g49
g50
NtRp2323
(dp2324
g53
(dp2325
g61
I3
ssg62
g2319
sg55
(lp2326
g1307
asbasbasbag48
(g64
g50
NtRp2327
(dp2328
g53
(dp2329
sg62
g2260
sg55
(lp2330
g48
(g69
g50
NtRp2331
(dp2332
g53
(dp2333
g73
g74
ssg62
g2327
sg55
(lp2334
S'HTTP_ACCEPT_LANGUAGE'
p2335
asbag48
(g69
g50
NtRp2336
(dp2337
g53
(dp2338
g80
g81
ssg62
g2327
sg55
(lp2339
S':'
asbag48
(g69
g50
NtRp2340
(dp2341
g53
(dp2342
sg62
g2327
sg55
(lp2343
g48
(g49
g50
NtRp2344
(dp2345
g53
(dp2346
g61
I3
ssg62
g2340
sg55
(lp2347
g1329
asbasbasbag48
(g64
g50
NtRp2348
(dp2349
g53
(dp2350
sg62
g2260
sg55
(lp2351
g48
(g69
g50
NtRp2352
(dp2353
g53
(dp2354
g73
g74
ssg62
g2348
sg55
(lp2355
S'HTTP_CONNECTION'
p2356
asbag48
(g69
g50
NtRp2357
(dp2358
g53
(dp2359
g80
g81
ssg62
g2348
sg55
(lp2360
S':'
asbag48
(g69
g50
NtRp2361
(dp2362
g53
(dp2363
sg62
g2348
sg55
(lp2364
g48
(g49
g50
NtRp2365
(dp2366
g53
(dp2367
g61
I3
ssg62
g2361
sg55
(lp2368
g1351
asbasbasbag48
(g64
g50
NtRp2369
(dp2370
g53
(dp2371
sg62
g2260
sg55
(lp2372
g48
(g69
g50
NtRp2373
(dp2374
g53
(dp2375
g73
g74
ssg62
g2369
sg55
(lp2376
S'HTTP_COOKIE'
p2377
asbag48
(g69
g50
NtRp2378
(dp2379
g53
(dp2380
g80
g81
ssg62
g2369
sg55
(lp2381
S':'
asbag48
(g69
g50
NtRp2382
(dp2383
g53
(dp2384
sg62
g2369
sg55
(lp2385
g48
(g49
g50
NtRp2386
(dp2387
g53
(dp2388
g61
I3
ssg62
g2382
sg55
(lp2389
g1373
asbasbasbag48
(g64
g50
NtRp2390
(dp2391
g53
(dp2392
sg62
g2260
sg55
(lp2393
g48
(g69
g50
NtRp2394
(dp2395
g53
(dp2396
g73
g74
ssg62
g2390
sg55
(lp2397
S'HTTP_HOST'
p2398
asbag48
(g69
g50
NtRp2399
(dp2400
g53
(dp2401
g80
g81
ssg62
g2390
sg55
(lp2402
S':'
asbag48
(g69
g50
NtRp2403
(dp2404
g53
(dp2405
sg62
g2390
sg55
(lp2406
g48
(g49
g50
NtRp2407
(dp2408
g53
(dp2409
g61
I3
ssg62
g2403
sg55
(lp2410
g1395
asbasbasbag48
(g64
g50
NtRp2411
(dp2412
g53
(dp2413
sg62
g2260
sg55
(lp2414
g48
(g69
g50
NtRp2415
(dp2416
g53
(dp2417
g73
g74
ssg62
g2411
sg55
(lp2418
S'HTTP_REFERER'
p2419
asbag48
(g69
g50
NtRp2420
(dp2421
g53
(dp2422
g80
g81
ssg62
g2411
sg55
(lp2423
S':'
asbag48
(g69
g50
NtRp2424
(dp2425
g53
(dp2426
sg62
g2411
sg55
(lp2427
g48
(g49
g50
NtRp2428
(dp2429
g53
(dp2430
g61
I3
ssg62
g2424
sg55
(lp2431
g1417
asbasbasbag48
(g64
g50
NtRp2432
(dp2433
g53
(dp2434
sg62
g2260
sg55
(lp2435
g48
(g69
g50
NtRp2436
(dp2437
g53
(dp2438
g73
g74
ssg62
g2432
sg55
(lp2439
S'HTTP_USER_AGENT'
p2440
asbag48
(g69
g50
NtRp2441
(dp2442
g53
(dp2443
g80
g81
ssg62
g2432
sg55
(lp2444
S':'
asbag48
(g69
g50
NtRp2445
(dp2446
g53
(dp2447
sg62
g2432
sg55
(lp2448
g48
(g49
g50
NtRp2449
(dp2450
g53
(dp2451
g61
I3
ssg62
g2445
sg55
(lp2452
g1439
asbasbasbag48
(g64
g50
NtRp2453
(dp2454
g53
(dp2455
sg62
g2260
sg55
(lp2456
g48
(g69
g50
NtRp2457
(dp2458
g53
(dp2459
g73
g74
ssg62
g2453
sg55
(lp2460
S'PATH_INFO'
p2461
asbag48
(g69
g50
NtRp2462
(dp2463
g53
(dp2464
g80
g81
ssg62
g2453
sg55
(lp2465
S':'
asbag48
(g69
g50
NtRp2466
(dp2467
g53
(dp2468
sg62
g2453
sg55
(lp2469
g48
(g49
g50
NtRp2470
(dp2471
g53
(dp2472
g61
I3
ssg62
g2466
sg55
(lp2473
g1482
asbasbasbag48
(g64
g50
NtRp2474
(dp2475
g53
(dp2476
sg62
g2260
sg55
(lp2477
g48
(g69
g50
NtRp2478
(dp2479
g53
(dp2480
g73
g74
ssg62
g2474
sg55
(lp2481
S'QUERY_STRING'
p2482
asbag48
(g69
g50
NtRp2483
(dp2484
g53
(dp2485
g80
g81
ssg62
g2474
sg55
(lp2486
S':'
asbag48
(g69
g50
NtRp2487
(dp2488
g53
(dp2489
sg62
g2474
sg55
(lp2490
g48
(g49
g50
NtRp2491
(dp2492
g53
(dp2493
g61
I3
ssg62
g2487
sg55
(lp2494
S''
asbasbasbag48
(g64
g50
NtRp2495
(dp2496
g53
(dp2497
sg62
g2260
sg55
(lp2498
g48
(g69
g50
NtRp2499
(dp2500
g53
(dp2501
g73
g74
ssg62
g2495
sg55
(lp2502
S'REMOTE_ADDR'
p2503
asbag48
(g69
g50
NtRp2504
(dp2505
g53
(dp2506
g80
g81
ssg62
g2495
sg55
(lp2507
S':'
asbag48
(g69
g50
NtRp2508
(dp2509
g53
(dp2510
sg62
g2495
sg55
(lp2511
g48
(g49
g50
NtRp2512
(dp2513
g53
(dp2514
g61
I3
ssg62
g2508
sg55
(lp2515
g181
asbasbasbag48
(g64
g50
NtRp2516
(dp2517
g53
(dp2518
sg62
g2260
sg55
(lp2519
g48
(g69
g50
NtRp2520
(dp2521
g53
(dp2522
g73
g74
ssg62
g2516
sg55
(lp2523
S'REMOTE_PORT'
p2524
asbag48
(g69
g50
NtRp2525
(dp2526
g53
(dp2527
g80
g81
ssg62
g2516
sg55
(lp2528
S':'
asbag48
(g69
g50
NtRp2529
(dp2530
g53
(dp2531
sg62
g2516
sg55
(lp2532
g48
(g49
g50
NtRp2533
(dp2534
g53
(dp2535
g61
I3
ssg62
g2529
sg55
(lp2536
g1546
asbasbasbag48
(g64
g50
NtRp2537
(dp2538
g53
(dp2539
sg62
g2260
sg55
(lp2540
g48
(g69
g50
NtRp2541
(dp2542
g53
(dp2543
g73
g74
ssg62
g2537
sg55
(lp2544
S'REQUEST_METHOD'
p2545
asbag48
(g69
g50
NtRp2546
(dp2547
g53
(dp2548
g80
g81
ssg62
g2537
sg55
(lp2549
S':'
asbag48
(g69
g50
NtRp2550
(dp2551
g53
(dp2552
sg62
g2537
sg55
(lp2553
g48
(g49
g50
NtRp2554
(dp2555
g53
(dp2556
g61
I3
ssg62
g2550
sg55
(lp2557
g1568
asbasbasbag48
(g64
g50
NtRp2558
(dp2559
g53
(dp2560
sg62
g2260
sg55
(lp2561
g48
(g69
g50
NtRp2562
(dp2563
g53
(dp2564
g73
g74
ssg62
g2558
sg55
(lp2565
S'SCRIPT_NAME'
p2566
asbag48
(g69
g50
NtRp2567
(dp2568
g53
(dp2569
g80
g81
ssg62
g2558
sg55
(lp2570
S':'
asbag48
(g69
g50
NtRp2571
(dp2572
g53
(dp2573
sg62
g2558
sg55
(lp2574
g48
(g49
g50
NtRp2575
(dp2576
g53
(dp2577
g61
I3
ssg62
g2571
sg55
(lp2578
S''
asbasbasbag48
(g64
g50
NtRp2579
(dp2580
g53
(dp2581
sg62
g2260
sg55
(lp2582
g48
(g69
g50
NtRp2583
(dp2584
g53
(dp2585
g73
g74
ssg62
g2579
sg55
(lp2586
S'SERVER_NAME'
p2587
asbag48
(g69
g50
NtRp2588
(dp2589
g53
(dp2590
g80
g81
ssg62
g2579
sg55
(lp2591
S':'
asbag48
(g69
g50
NtRp2592
(dp2593
g53
(dp2594
sg62
g2579
sg55
(lp2595
g48
(g49
g50
NtRp2596
(dp2597
g53
(dp2598
g61
I3
ssg62
g2592
sg55
(lp2599
g1611
asbasbasbag48
(g64
g50
NtRp2600
(dp2601
g53
(dp2602
sg62
g2260
sg55
(lp2603
g48
(g69
g50
NtRp2604
(dp2605
g53
(dp2606
g73
g74
ssg62
g2600
sg55
(lp2607
S'SERVER_PORT'
p2608
asbag48
(g69
g50
NtRp2609
(dp2610
g53
(dp2611
g80
g81
ssg62
g2600
sg55
(lp2612
S':'
asbag48
(g69
g50
NtRp2613
(dp2614
g53
(dp2615
sg62
g2600
sg55
(lp2616
g48
(g49
g50
NtRp2617
(dp2618
g53
(dp2619
g61
I3
ssg62
g2613
sg55
(lp2620
g1633
asbasbasbag48
(g64
g50
NtRp2621
(dp2622
g53
(dp2623
sg62
g2260
sg55
(lp2624
g48
(g69
g50
NtRp2625
(dp2626
g53
(dp2627
g73
g74
ssg62
g2621
sg55
(lp2628
S'SERVER_PROTOCOL'
p2629
asbag48
(g69
g50
NtRp2630
(dp2631
g53
(dp2632
g80
g81
ssg62
g2621
sg55
(lp2633
S':'
asbag48
(g69
g50
NtRp2634
(dp2635
g53
(dp2636
sg62
g2621
sg55
(lp2637
g48
(g49
g50
NtRp2638
(dp2639
g53
(dp2640
g61
I3
ssg62
g2634
sg55
(lp2641
g1655
asbasbasbag48
(g64
g50
NtRp2642
(dp2643
g53
(dp2644
sg62
g2260
sg55
(lp2645
g48
(g69
g50
NtRp2646
(dp2647
g53
(dp2648
g73
g74
ssg62
g2642
sg55
(lp2649
S'SERVER_SOFTWARE'
p2650
asbag48
(g69
g50
NtRp2651
(dp2652
g53
(dp2653
g80
g81
ssg62
g2642
sg55
(lp2654
S':'
asbag48
(g69
g50
NtRp2655
(dp2656
g53
(dp2657
sg62
g2642
sg55
(lp2658
g48
(g49
g50
NtRp2659
(dp2660
g53
(dp2661
g61
I3
ssg62
g2655
sg55
(lp2662
g1677
asbasbasbag48
(g64
g50
NtRp2663
(dp2664
g53
(dp2665
sg62
g2260
sg55
(lp2666
g48
(g69
g50
NtRp2667
(dp2668
g53
(dp2669
g73
g74
ssg62
g2663
sg55
(lp2670
S'wsgi.errors'
p2671
asbag48
(g69
g50
NtRp2672
(dp2673
g53
(dp2674
g80
g81
ssg62
g2663
sg55
(lp2675
S':'
asbag48
(g69
g50
NtRp2676
(dp2677
g53
(dp2678
sg62
g2663
sg55
(lp2679
g48
(g49
g50
NtRp2680
(dp2681
g53
(dp2682
g61
I3
ssg62
g2676
sg55
(lp2683
S"<open file '<stderr>', mode 'w' at 0x004800B0>"
p2684
asbasbasbag48
(g64
g50
NtRp2685
(dp2686
g53
(dp2687
sg62
g2260
sg55
(lp2688
g48
(g69
g50
NtRp2689
(dp2690
g53
(dp2691
g73
g74
ssg62
g2685
sg55
(lp2692
S'wsgi.file_wrapper'
p2693
asbag48
(g69
g50
NtRp2694
(dp2695
g53
(dp2696
g80
g81
ssg62
g2685
sg55
(lp2697
S':'
asbag48
(g69
g50
NtRp2698
(dp2699
g53
(dp2700
sg62
g2685
sg55
(lp2701
g48
(g49
g50
NtRp2702
(dp2703
g53
(dp2704
g61
I3
ssg62
g2698
sg55
(lp2705
S'<class gluon.rocket.FileWrapper at 0x02FDC1B0>'
p2706
asbasbasbag48
(g64
g50
NtRp2707
(dp2708
g53
(dp2709
sg62
g2260
sg55
(lp2710
g48
(g69
g50
NtRp2711
(dp2712
g53
(dp2713
g73
g74
ssg62
g2707
sg55
(lp2714
S'wsgi.input'
p2715
asbag48
(g69
g50
NtRp2716
(dp2717
g53
(dp2718
g80
g81
ssg62
g2707
sg55
(lp2719
S':'
asbag48
(g69
g50
NtRp2720
(dp2721
g53
(dp2722
sg62
g2707
sg55
(lp2723
g48
(g49
g50
NtRp2724
(dp2725
g53
(dp2726
g61
I3
ssg62
g2720
sg55
(lp2727
S'<cStringIO.StringO object at 0x075E00C0>'
p2728
asbasbasbag48
(g64
g50
NtRp2729
(dp2730
g53
(dp2731
sg62
g2260
sg55
(lp2732
g48
(g69
g50
NtRp2733
(dp2734
g53
(dp2735
g73
g74
ssg62
g2729
sg55
(lp2736
S'wsgi.multiprocess'
p2737
asbag48
(g69
g50
NtRp2738
(dp2739
g53
(dp2740
g80
g81
ssg62
g2729
sg55
(lp2741
S':'
asbag48
(g69
g50
NtRp2742
(dp2743
g53
(dp2744
sg62
g2729
sg55
(lp2745
g48
(g49
g50
NtRp2746
(dp2747
g53
(dp2748
g61
I3
ssg62
g2742
sg55
(lp2749
g91
asbasbasbag48
(g64
g50
NtRp2750
(dp2751
g53
(dp2752
sg62
g2260
sg55
(lp2753
g48
(g69
g50
NtRp2754
(dp2755
g53
(dp2756
g73
g74
ssg62
g2750
sg55
(lp2757
S'wsgi.multithread'
p2758
asbag48
(g69
g50
NtRp2759
(dp2760
g53
(dp2761
g80
g81
ssg62
g2750
sg55
(lp2762
S':'
asbag48
(g69
g50
NtRp2763
(dp2764
g53
(dp2765
sg62
g2750
sg55
(lp2766
g48
(g49
g50
NtRp2767
(dp2768
g53
(dp2769
g61
I3
ssg62
g2763
sg55
(lp2770
g1851
asbasbasbag48
(g64
g50
NtRp2771
(dp2772
g53
(dp2773
sg62
g2260
sg55
(lp2774
g48
(g69
g50
NtRp2775
(dp2776
g53
(dp2777
g73
g74
ssg62
g2771
sg55
(lp2778
S'wsgi.run_once'
p2779
asbag48
(g69
g50
NtRp2780
(dp2781
g53
(dp2782
g80
g81
ssg62
g2771
sg55
(lp2783
S':'
asbag48
(g69
g50
NtRp2784
(dp2785
g53
(dp2786
sg62
g2771
sg55
(lp2787
g48
(g49
g50
NtRp2788
(dp2789
g53
(dp2790
g61
I3
ssg62
g2784
sg55
(lp2791
g91
asbasbasbag48
(g64
g50
NtRp2792
(dp2793
g53
(dp2794
sg62
g2260
sg55
(lp2795
g48
(g69
g50
NtRp2796
(dp2797
g53
(dp2798
g73
g74
ssg62
g2792
sg55
(lp2799
S'wsgi.url_scheme'
p2800
asbag48
(g69
g50
NtRp2801
(dp2802
g53
(dp2803
g80
g81
ssg62
g2792
sg55
(lp2804
S':'
asbag48
(g69
g50
NtRp2805
(dp2806
g53
(dp2807
sg62
g2792
sg55
(lp2808
g48
(g49
g50
NtRp2809
(dp2810
g53
(dp2811
g61
I3
ssg62
g2805
sg55
(lp2812
g1894
asbasbasbag48
(g64
g50
NtRp2813
(dp2814
g53
(dp2815
sg62
g2260
sg55
(lp2816
g48
(g69
g50
NtRp2817
(dp2818
g53
(dp2819
g73
g74
ssg62
g2813
sg55
(lp2820
S'wsgi.version'
p2821
asbag48
(g69
g50
NtRp2822
(dp2823
g53
(dp2824
g80
g81
ssg62
g2813
sg55
(lp2825
S':'
asbag48
(g69
g50
NtRp2826
(dp2827
g53
(dp2828
sg62
g2813
sg55
(lp2829
g48
(g49
g50
NtRp2830
(dp2831
g53
(dp2832
g61
I3
ssg62
g2826
sg55
(lp2833
S'1'
asbasbasbasbasbasbasbasbasbasbasbasbasbsS'frames'
p2834
(lp2835
(dp2836
S'file'
p2837
S'C:\\Users\\Atomico\\web2py\\gluon\\restricted.py'
p2838
sS'dump'
p2839
(dp2840
sS'lnum'
p2841
I192
sS'lines'
p2842
(dp2843
sS'call'
p2844
S"(code='def entrada():\\n    form=SQLFORM(db.info)\\n    if ...m\\n\\nresponse._vars=response._caller(entrada_mod1)\\n', environment={'A': <class 'gluon.html.A'>, 'B': <class 'gluon.html.B'>, 'BEAUTIFY': <class 'gluon.html.BEAUTIFY'>, 'BODY': <class 'gluon.html.BODY'>, 'BR': <class 'gluon.html.BR'>, 'BUTTON': <class 'gluon.html.BUTTON'>, 'CAT': <class 'gluon.html.CAT'>, 'CENTER': <class 'gluon.html.CENTER'>, 'CLEANUP': <class 'gluon.validators.CLEANUP'>, 'CODE': <class 'gluon.html.CODE'>, ...}, layer=r'C:\\Users\\Atomico\\web2py\\applications\\Desglosar_Emails\\controllers/default.py')"
p2845
sS'func'
p2846
S'restricted'
p2847
sa(dp2848
g2837
S'C:\\Users\\Atomico\\web2py\\applications\\Desglosar_Emails\\controllers\\default.py'
p2849
sg2839
(dp2850
sg2841
I47
sg2842
(dp2851
I38
S'    if form.accepts(request.vars,session): pass'
p2852
sI39
S'    i=0'
p2853
sI40
S'    while not db.info2[i]==None:'
p2854
sI41
S'        response.write(i)'
p2855
sI42
S'        i=i+1'
p2856
sI43
S''
sI44
S''
sI45
S''
sI46
S''
sI47
S'   return form'
p2857
ssg2844
S'()'
p2858
sg2846
S'<module>'
p2859
sa(dp2860
g2837
S'C:\\Users\\Atomico\\web2py\\gluon\\globals.py'
p2861
sg2839
(dp2862
sg2841
I145
sg2842
(dp2863
sg2844
S'(f=<function entrada_mod1 at 0x074076B0>)'
p2864
sg2846
S'<lambda>'
p2865
sa(dp2866
g2837
S'C:\\Users\\Atomico\\web2py\\applications\\Desglosar_Emails\\controllers\\default.py'
p2867
sg2839
(dp2868
sg2841
I40
sg2842
(dp2869
I35
S''
sI36
S'def entrada_mod1():'
p2870
sI37
S'    form=SQLFORM(db.info2)'
p2871
sI38
S'    if form.accepts(request.vars,session): pass'
p2872
sI39
S'    i=0'
p2873
sI40
S'    while not db.info2[i]==None:'
p2874
sI41
S'        response.write(i)'
p2875
sI42
S'        i=i+1'
p2876
sI43
S''
sI44
S''
ssg2844
S'()'
p2877
sg2846
S'entrada_mod1'
p2878
sa(dp2879
g2837
S'C:\\Users\\Atomico\\web2py\\gluon\\globals.py'
p2880
sg2839
(dp2881
sg2841
I154
sg2842
(dp2882
sg2844
S"(self=<Storage {'body': <cStringIO.StringO object at 0...x07613F30>, 'view': 'default/entrada_mod1.html'}>, data=<gluon.dal.Expression object at 0x07474FB0>, escape=True)"
p2883
sg2846
S'write'
p2884
sasS'pyver'
p2885
S'Python 2.5.4: C:\\Users\\Atomico\\web2py\\web2py.exe'
p2886
sS'session'
p2887
g48
(g49
g50
NtRp2888
(dp2889
g53
(dp2890
sg55
(lp2891
g48
(g57
g50
NtRp2892
(dp2893
g53
(dp2894
g61
I5
ssg62
Nsg55
(lp2895
g48
(g64
g50
NtRp2896
(dp2897
g53
(dp2898
sg62
g2892
sg55
(lp2899
g48
(g69
g50
NtRp2900
(dp2901
g53
(dp2902
g73
g74
ssg62
g2896
sg55
(lp2903
S'last_query'
p2904
asbag48
(g69
g50
NtRp2905
(dp2906
g53
(dp2907
g80
g81
ssg62
g2896
sg55
(lp2908
S':'
asbag48
(g69
g50
NtRp2909
(dp2910
g53
(dp2911
sg62
g2896
sg55
(lp2912
g48
(g49
g50
NtRp2913
(dp2914
g53
(dp2915
g61
I5
ssg62
g2909
sg55
(lp2916
S'db.info2.id>0'
p2917
asbasbasbasbasbsS'etype'
p2918
S"<type 'exceptions.MemoryError'>"
p2919
sS'date'
p2920
S'Sun Sep 18 22:01:58 2011'
p2921
sS'response'
p2922
g48
(g49
g50
NtRp2923
(dp2924
g53
(dp2925
sg55
(lp2926
g48
(g57
g50
NtRp2927
(dp2928
g53
(dp2929
g61
I5
ssg62
Nsg55
(lp2930
g48
(g64
g50
NtRp2931
(dp2932
g53
(dp2933
sg62
g2927
sg55
(lp2934
g48
(g69
g50
NtRp2935
(dp2936
g53
(dp2937
g73
g74
ssg62
g2931
sg55
(lp2938
g146
asbag48
(g69
g50
NtRp2939
(dp2940
g53
(dp2941
g80
g81
ssg62
g2931
sg55
(lp2942
S':'
asbag48
(g69
g50
NtRp2943
(dp2944
g53
(dp2945
sg62
g2931
sg55
(lp2946
g48
(g49
g50
NtRp2947
(dp2948
g53
(dp2949
g61
I5
ssg62
g2943
sg55
(lp2950
S'<cStringIO.StringO object at 0x031F64C0>'
p2951
asbasbasbag48
(g64
g50
NtRp2952
(dp2953
g53
(dp2954
sg62
g2927
sg55
(lp2955
g48
(g69
g50
NtRp2956
(dp2957
g53
(dp2958
g73
g74
ssg62
g2952
sg55
(lp2959
g212
asbag48
(g69
g50
NtRp2960
(dp2961
g53
(dp2962
g80
g81
ssg62
g2952
sg55
(lp2963
S':'
asbag48
(g69
g50
NtRp2964
(dp2965
g53
(dp2966
sg62
g2952
sg55
(lp2967
g48
(g49
g50
NtRp2968
(dp2969
g53
(dp2970
g61
I5
ssg62
g2964
sg55
(lp2971
g48
(g57
g50
NtRp2972
(dp2973
g53
(dp2974
g61
I4
ssg62
Nsg55
(lp2975
g48
(g64
g50
NtRp2976
(dp2977
g53
(dp2978
sg62
g2972
sg55
(lp2979
g48
(g69
g50
NtRp2980
(dp2981
g53
(dp2982
g73
g74
ssg62
g2976
sg55
(lp2983
S'session_id_desglosar_emails'
p2984
asbag48
(g69
g50
NtRp2985
(dp2986
g53
(dp2987
g80
g81
ssg62
g2976
sg55
(lp2988
S':'
asbag48
(g69
g50
NtRp2989
(dp2990
g53
(dp2991
sg62
g2976
sg55
(lp2992
g48
(g49
g50
NtRp2993
(dp2994
g53
(dp2995
g61
I4
ssg62
g2989
sg55
(lp2996
g48
(g57
g50
NtRp2997
(dp2998
g53
(dp2999
g61
I3
ssg62
Nsg55
(lp3000
g48
(g64
g50
NtRp3001
(dp3002
g53
(dp3003
sg62
g2997
sg55
(lp3004
g48
(g69
g50
NtRp3005
(dp3006
g53
(dp3007
g73
g74
ssg62
g3001
sg55
(lp3008
g262
asbag48
(g69
g50
NtRp3009
(dp3010
g53
(dp3011
g80
g81
ssg62
g3001
sg55
(lp3012
S':'
asbag48
(g69
g50
NtRp3013
(dp3014
g53
(dp3015
sg62
g3001
sg55
(lp3016
g48
(g49
g50
NtRp3017
(dp3018
g53
(dp3019
g61
I3
ssg62
g3013
sg55
(lp3020
S''
asbasbasbag48
(g64
g50
NtRp3021
(dp3022
g53
(dp3023
sg62
g2997
sg55
(lp3024
g48
(g69
g50
NtRp3025
(dp3026
g53
(dp3027
g73
g74
ssg62
g3021
sg55
(lp3028
g283
asbag48
(g69
g50
NtRp3029
(dp3030
g53
(dp3031
g80
g81
ssg62
g3021
sg55
(lp3032
S':'
asbag48
(g69
g50
NtRp3033
(dp3034
g53
(dp3035
sg62
g3021
sg55
(lp3036
g48
(g49
g50
NtRp3037
(dp3038
g53
(dp3039
g61
I3
ssg62
g3033
sg55
(lp3040
S''
asbasbasbag48
(g64
g50
NtRp3041
(dp3042
g53
(dp3043
sg62
g2997
sg55
(lp3044
g48
(g69
g50
NtRp3045
(dp3046
g53
(dp3047
g73
g74
ssg62
g3041
sg55
(lp3048
g304
asbag48
(g69
g50
NtRp3049
(dp3050
g53
(dp3051
g80
g81
ssg62
g3041
sg55
(lp3052
S':'
asbag48
(g69
g50
NtRp3053
(dp3054
g53
(dp3055
sg62
g3041
sg55
(lp3056
g48
(g49
g50
NtRp3057
(dp3058
g53
(dp3059
g61
I3
ssg62
g3053
sg55
(lp3060
S''
asbasbasbag48
(g64
g50
NtRp3061
(dp3062
g53
(dp3063
sg62
g2997
sg55
(lp3064
g48
(g69
g50
NtRp3065
(dp3066
g53
(dp3067
g73
g74
ssg62
g3061
sg55
(lp3068
g325
asbag48
(g69
g50
NtRp3069
(dp3070
g53
(dp3071
g80
g81
ssg62
g3061
sg55
(lp3072
S':'
asbag48
(g69
g50
NtRp3073
(dp3074
g53
(dp3075
sg62
g3061
sg55
(lp3076
g48
(g49
g50
NtRp3077
(dp3078
g53
(dp3079
g61
I3
ssg62
g3073
sg55
(lp3080
S''
asbasbasbag48
(g64
g50
NtRp3081
(dp3082
g53
(dp3083
sg62
g2997
sg55
(lp3084
g48
(g69
g50
NtRp3085
(dp3086
g53
(dp3087
g73
g74
ssg62
g3081
sg55
(lp3088
g346
asbag48
(g69
g50
NtRp3089
(dp3090
g53
(dp3091
g80
g81
ssg62
g3081
sg55
(lp3092
S':'
asbag48
(g69
g50
NtRp3093
(dp3094
g53
(dp3095
sg62
g3081
sg55
(lp3096
g48
(g49
g50
NtRp3097
(dp3098
g53
(dp3099
g61
I3
ssg62
g3093
sg55
(lp3100
S'/'
asbasbasbag48
(g64
g50
NtRp3101
(dp3102
g53
(dp3103
sg62
g2997
sg55
(lp3104
g48
(g69
g50
NtRp3105
(dp3106
g53
(dp3107
g73
g74
ssg62
g3101
sg55
(lp3108
g367
asbag48
(g69
g50
NtRp3109
(dp3110
g53
(dp3111
g80
g81
ssg62
g3101
sg55
(lp3112
S':'
asbag48
(g69
g50
NtRp3113
(dp3114
g53
(dp3115
sg62
g3101
sg55
(lp3116
g48
(g49
g50
NtRp3117
(dp3118
g53
(dp3119
g61
I3
ssg62
g3113
sg55
(lp3120
S''
asbasbasbag48
(g64
g50
NtRp3121
(dp3122
g53
(dp3123
sg62
g2997
sg55
(lp3124
g48
(g69
g50
NtRp3125
(dp3126
g53
(dp3127
g73
g74
ssg62
g3121
sg55
(lp3128
g388
asbag48
(g69
g50
NtRp3129
(dp3130
g53
(dp3131
g80
g81
ssg62
g3121
sg55
(lp3132
S':'
asbag48
(g69
g50
NtRp3133
(dp3134
g53
(dp3135
sg62
g3121
sg55
(lp3136
g48
(g49
g50
NtRp3137
(dp3138
g53
(dp3139
g61
I3
ssg62
g3133
sg55
(lp3140
S''
asbasbasbasbasbasbasbasbasbasbasbag48
(g64
g50
NtRp3141
(dp3142
g53
(dp3143
sg62
g2927
sg55
(lp3144
g48
(g69
g50
NtRp3145
(dp3146
g53
(dp3147
g73
g74
ssg62
g3141
sg55
(lp3148
S'files'
p3149
asbag48
(g69
g50
NtRp3150
(dp3151
g53
(dp3152
g80
g81
ssg62
g3141
sg55
(lp3153
S':'
asbag48
(g69
g50
NtRp3154
(dp3155
g53
(dp3156
sg62
g3141
sg55
(lp3157
g48
(g49
g50
NtRp3158
(dp3159
g53
(dp3160
g61
I5
ssg62
g3154
sg55
(lp3161
g48
(g57
g50
NtRp3162
(dp3163
g53
(dp3164
g61
I4
ssg62
Nsg55
(lp3165
sbasbasbasbag48
(g64
g50
NtRp3166
(dp3167
g53
(dp3168
sg62
g2927
sg55
(lp3169
g48
(g69
g50
NtRp3170
(dp3171
g53
(dp3172
g73
g74
ssg62
g3166
sg55
(lp3173
S'flash'
p3174
asbag48
(g69
g50
NtRp3175
(dp3176
g53
(dp3177
g80
g81
ssg62
g3166
sg55
(lp3178
S':'
asbag48
(g69
g50
NtRp3179
(dp3180
g53
(dp3181
sg62
g3166
sg55
(lp3182
g48
(g49
g50
NtRp3183
(dp3184
g53
(dp3185
g61
I5
ssg62
g3179
sg55
(lp3186
S''
asbasbasbag48
(g64
g50
NtRp3187
(dp3188
g53
(dp3189
sg62
g2927
sg55
(lp3190
g48
(g69
g50
NtRp3191
(dp3192
g53
(dp3193
g73
g74
ssg62
g3187
sg55
(lp3194
S'generic_patterns'
p3195
asbag48
(g69
g50
NtRp3196
(dp3197
g53
(dp3198
g80
g81
ssg62
g3187
sg55
(lp3199
S':'
asbag48
(g69
g50
NtRp3200
(dp3201
g53
(dp3202
sg62
g3187
sg55
(lp3203
g48
(g49
g50
NtRp3204
(dp3205
g53
(dp3206
g61
I5
ssg62
g3200
sg55
(lp3207
g48
(g57
g50
NtRp3208
(dp3209
g53
(dp3210
g61
I4
ssg62
Nsg55
(lp3211
sbasbasbasbag48
(g64
g50
NtRp3212
(dp3213
g53
(dp3214
sg62
g2927
sg55
(lp3215
g48
(g69
g50
NtRp3216
(dp3217
g53
(dp3218
g73
g74
ssg62
g3212
sg55
(lp3219
S'headers'
p3220
asbag48
(g69
g50
NtRp3221
(dp3222
g53
(dp3223
g80
g81
ssg62
g3212
sg55
(lp3224
S':'
asbag48
(g69
g50
NtRp3225
(dp3226
g53
(dp3227
sg62
g3212
sg55
(lp3228
g48
(g49
g50
NtRp3229
(dp3230
g53
(dp3231
g61
I5
ssg62
g3225
sg55
(lp3232
g48
(g57
g50
NtRp3233
(dp3234
g53
(dp3235
g61
I4
ssg62
Nsg55
(lp3236
g48
(g64
g50
NtRp3237
(dp3238
g53
(dp3239
sg62
g3233
sg55
(lp3240
g48
(g69
g50
NtRp3241
(dp3242
g53
(dp3243
g73
g74
ssg62
g3237
sg55
(lp3244
S'Cache-Control'
p3245
asbag48
(g69
g50
NtRp3246
(dp3247
g53
(dp3248
g80
g81
ssg62
g3237
sg55
(lp3249
S':'
asbag48
(g69
g50
NtRp3250
(dp3251
g53
(dp3252
sg62
g3237
sg55
(lp3253
g48
(g49
g50
NtRp3254
(dp3255
g53
(dp3256
g61
I4
ssg62
g3250
sg55
(lp3257
S'no-store, no-cache, must-revalidate, post-check=0, pre-check=0'
p3258
asbasbasbag48
(g64
g50
NtRp3259
(dp3260
g53
(dp3261
sg62
g3233
sg55
(lp3262
g48
(g69
g50
NtRp3263
(dp3264
g53
(dp3265
g73
g74
ssg62
g3259
sg55
(lp3266
S'Content-Type'
p3267
asbag48
(g69
g50
NtRp3268
(dp3269
g53
(dp3270
g80
g81
ssg62
g3259
sg55
(lp3271
S':'
asbag48
(g69
g50
NtRp3272
(dp3273
g53
(dp3274
sg62
g3259
sg55
(lp3275
g48
(g49
g50
NtRp3276
(dp3277
g53
(dp3278
g61
I4
ssg62
g3272
sg55
(lp3279
S'text/html; charset=utf-8'
p3280
asbasbasbag48
(g64
g50
NtRp3281
(dp3282
g53
(dp3283
sg62
g3233
sg55
(lp3284
g48
(g69
g50
NtRp3285
(dp3286
g53
(dp3287
g73
g74
ssg62
g3281
sg55
(lp3288
S'Expires'
p3289
asbag48
(g69
g50
NtRp3290
(dp3291
g53
(dp3292
g80
g81
ssg62
g3281
sg55
(lp3293
S':'
asbag48
(g69
g50
NtRp3294
(dp3295
g53
(dp3296
sg62
g3281
sg55
(lp3297
g48
(g49
g50
NtRp3298
(dp3299
g53
(dp3300
g61
I4
ssg62
g3294
sg55
(lp3301
S'Sun, 18 Sep 2011 19:55:03 GMT'
p3302
asbasbasbag48
(g64
g50
NtRp3303
(dp3304
g53
(dp3305
sg62
g3233
sg55
(lp3306
g48
(g69
g50
NtRp3307
(dp3308
g53
(dp3309
g73
g74
ssg62
g3303
sg55
(lp3310
S'Pragma'
p3311
asbag48
(g69
g50
NtRp3312
(dp3313
g53
(dp3314
g80
g81
ssg62
g3303
sg55
(lp3315
S':'
asbag48
(g69
g50
NtRp3316
(dp3317
g53
(dp3318
sg62
g3303
sg55
(lp3319
g48
(g49
g50
NtRp3320
(dp3321
g53
(dp3322
g61
I4
ssg62
g3316
sg55
(lp3323
S'no-cache'
p3324
asbasbasbag48
(g64
g50
NtRp3325
(dp3326
g53
(dp3327
sg62
g3233
sg55
(lp3328
g48
(g69
g50
NtRp3329
(dp3330
g53
(dp3331
g73
g74
ssg62
g3325
sg55
(lp3332
S'X-Powered-By'
p3333
asbag48
(g69
g50
NtRp3334
(dp3335
g53
(dp3336
g80
g81
ssg62
g3325
sg55
(lp3337
S':'
asbag48
(g69
g50
NtRp3338
(dp3339
g53
(dp3340
sg62
g3325
sg55
(lp3341
g48
(g49
g50
NtRp3342
(dp3343
g53
(dp3344
g61
I4
ssg62
g3338
sg55
(lp3345
S'web2py'
p3346
asbasbasbasbasbasbasbag48
(g64
g50
NtRp3347
(dp3348
g53
(dp3349
sg62
g2927
sg55
(lp3350
g48
(g69
g50
NtRp3351
(dp3352
g53
(dp3353
g73
g74
ssg62
g3347
sg55
(lp3354
S'menu'
p3355
asbag48
(g69
g50
NtRp3356
(dp3357
g53
(dp3358
g80
g81
ssg62
g3347
sg55
(lp3359
S':'
asbag48
(g69
g50
NtRp3360
(dp3361
g53
(dp3362
sg62
g3347
sg55
(lp3363
g48
(g49
g50
NtRp3364
(dp3365
g53
(dp3366
g61
I5
ssg62
g3360
sg55
(lp3367
g48
(g57
g50
NtRp3368
(dp3369
g53
(dp3370
g61
I4
ssg62
Nsg55
(lp3371
g48
(g64
g50
NtRp3372
(dp3373
g53
(dp3374
sg62
g3368
sg55
(lp3375
g48
(g69
g50
NtRp3376
(dp3377
g53
(dp3378
sg62
g3372
sg55
(lp3379
g48
(g49
g50
NtRp3380
(dp3381
g53
(dp3382
g61
I4
ssg62
g3376
sg55
(lp3383
g48
(g57
g50
NtRp3384
(dp3385
g53
(dp3386
g61
I3
ssg62
Nsg55
(lp3387
g48
(g64
g50
NtRp3388
(dp3389
g53
(dp3390
sg62
g3384
sg55
(lp3391
g48
(g69
g50
NtRp3392
(dp3393
g53
(dp3394
sg62
g3388
sg55
(lp3395
g48
(g49
g50
NtRp3396
(dp3397
g53
(dp3398
g61
I3
ssg62
g3392
sg55
(lp3399
cgluon.languages
lazyT_unpickle
p3400
(S't\x04\x00\x00\x00Home'
tRp3401
asbasbasbag48
(g64
g50
NtRp3402
(dp3403
g53
(dp3404
sg62
g3384
sg55
(lp3405
g48
(g69
g50
NtRp3406
(dp3407
g53
(dp3408
sg62
g3402
sg55
(lp3409
g48
(g49
g50
NtRp3410
(dp3411
g53
(dp3412
g61
I3
ssg62
g3406
sg55
(lp3413
g91
asbasbasbag48
(g64
g50
NtRp3414
(dp3415
g53
(dp3416
sg62
g3384
sg55
(lp3417
g48
(g69
g50
NtRp3418
(dp3419
g53
(dp3420
sg62
g3414
sg55
(lp3421
g48
(g49
g50
NtRp3422
(dp3423
g53
(dp3424
g61
I3
ssg62
g3418
sg55
(lp3425
S'/Desglosar_Emails/default/index'
p3426
asbasbasbag48
(g64
g50
NtRp3427
(dp3428
g53
(dp3429
sg62
g3384
sg55
(lp3430
g48
(g69
g50
NtRp3431
(dp3432
g53
(dp3433
sg62
g3427
sg55
(lp3434
g48
(g49
g50
NtRp3435
(dp3436
g53
(dp3437
g61
I3
ssg62
g3431
sg55
(lp3438
g48
(g57
g50
NtRp3439
(dp3440
g53
(dp3441
g61
I2
ssg62
Nsg55
(lp3442
sbasbasbasbasbasbasbasbag48
(g64
g50
NtRp3443
(dp3444
g53
(dp3445
sg62
g3368
sg55
(lp3446
g48
(g69
g50
NtRp3447
(dp3448
g53
(dp3449
sg62
g3443
sg55
(lp3450
g48
(g49
g50
NtRp3451
(dp3452
g53
(dp3453
g61
I4
ssg62
g3447
sg55
(lp3454
g48
(g57
g50
NtRp3455
(dp3456
g53
(dp3457
g61
I3
ssg62
Nsg55
(lp3458
g48
(g64
g50
NtRp3459
(dp3460
g53
(dp3461
sg62
g3455
sg55
(lp3462
g48
(g69
g50
NtRp3463
(dp3464
g53
(dp3465
sg62
g3459
sg55
(lp3466
g48
(g49
g50
NtRp3467
(dp3468
g53
(dp3469
g61
I3
ssg62
g3463
sg55
(lp3470
g3400
(S's\x08\x00\x00\x00This App'
tRp3471
asbasbasbag48
(g64
g50
NtRp3472
(dp3473
g53
(dp3474
sg62
g3455
sg55
(lp3475
g48
(g69
g50
NtRp3476
(dp3477
g53
(dp3478
sg62
g3472
sg55
(lp3479
g48
(g49
g50
NtRp3480
(dp3481
g53
(dp3482
g61
I3
ssg62
g3476
sg55
(lp3483
g91
asbasbasbag48
(g64
g50
NtRp3484
(dp3485
g53
(dp3486
sg62
g3455
sg55
(lp3487
g48
(g69
g50
NtRp3488
(dp3489
g53
(dp3490
sg62
g3484
sg55
(lp3491
g48
(g49
g50
NtRp3492
(dp3493
g53
(dp3494
g61
I3
ssg62
g3488
sg55
(lp3495
S'/admin/default/design/Desglosar_Emails'
p3496
asbasbasbag48
(g64
g50
NtRp3497
(dp3498
g53
(dp3499
sg62
g3455
sg55
(lp3500
g48
(g69
g50
NtRp3501
(dp3502
g53
(dp3503
sg62
g3497
sg55
(lp3504
g48
(g49
g50
NtRp3505
(dp3506
g53
(dp3507
g61
I3
ssg62
g3501
sg55
(lp3508
g48
(g57
g50
NtRp3509
(dp3510
g53
(dp3511
g61
I2
ssg62
Nsg55
(lp3512
g48
(g64
g50
NtRp3513
(dp3514
g53
(dp3515
sg62
g3509
sg55
(lp3516
g48
(g69
g50
NtRp3517
(dp3518
g53
(dp3519
sg62
g3513
sg55
(lp3520
g48
(g49
g50
NtRp3521
(dp3522
g53
(dp3523
g61
I2
ssg62
g3517
sg55
(lp3524
g48
(g57
g50
NtRp3525
(dp3526
g53
(dp3527
g61
I1
ssg62
Nsg55
(lp3528
g48
(g64
g50
NtRp3529
(dp3530
g53
(dp3531
sg62
g3525
sg55
(lp3532
g48
(g69
g50
NtRp3533
(dp3534
g53
(dp3535
sg62
g3529
sg55
(lp3536
g48
(g49
g50
NtRp3537
(dp3538
g53
(dp3539
g61
I1
ssg62
g3533
sg55
(lp3540
g3400
(S't\x0b\x00\x00\x00Controlador'
tRp3541
asbasbasbag48
(g64
g50
NtRp3542
(dp3543
g53
(dp3544
sg62
g3525
sg55
(lp3545
g48
(g69
g50
NtRp3546
(dp3547
g53
(dp3548
sg62
g3542
sg55
(lp3549
g48
(g49
g50
NtRp3550
(dp3551
g53
(dp3552
g61
I1
ssg62
g3546
sg55
(lp3553
I00
asbasbasbag48
(g64
g50
NtRp3554
(dp3555
g53
(dp3556
sg62
g3525
sg55
(lp3557
g48
(g69
g50
NtRp3558
(dp3559
g53
(dp3560
sg62
g3554
sg55
(lp3561
g48
(g49
g50
NtRp3562
(dp3563
g53
(dp3564
g61
I1
ssg62
g3558
sg55
(lp3565
S'/admin/default/edit/Desglosar_Emails/controllers/default.py'
p3566
asbasbasbasbasbasbasbag48
(g64
g50
NtRp3567
(dp3568
g53
(dp3569
sg62
g3509
sg55
(lp3570
g48
(g69
g50
NtRp3571
(dp3572
g53
(dp3573
sg62
g3567
sg55
(lp3574
g48
(g49
g50
NtRp3575
(dp3576
g53
(dp3577
g61
I2
ssg62
g3571
sg55
(lp3578
g48
(g57
g50
NtRp3579
(dp3580
g53
(dp3581
g61
I1
ssg62
Nsg55
(lp3582
g48
(g64
g50
NtRp3583
(dp3584
g53
(dp3585
sg62
g3579
sg55
(lp3586
g48
(g69
g50
NtRp3587
(dp3588
g53
(dp3589
sg62
g3583
sg55
(lp3590
g48
(g49
g50
NtRp3591
(dp3592
g53
(dp3593
g61
I1
ssg62
g3587
sg55
(lp3594
g3400
(S't\x05\x00\x00\x00Vista'
tRp3595
asbasbasbag48
(g64
g50
NtRp3596
(dp3597
g53
(dp3598
sg62
g3579
sg55
(lp3599
g48
(g69
g50
NtRp3600
(dp3601
g53
(dp3602
sg62
g3596
sg55
(lp3603
g48
(g49
g50
NtRp3604
(dp3605
g53
(dp3606
g61
I1
ssg62
g3600
sg55
(lp3607
I00
asbasbasbag48
(g64
g50
NtRp3608
(dp3609
g53
(dp3610
sg62
g3579
sg55
(lp3611
g48
(g69
g50
NtRp3612
(dp3613
g53
(dp3614
sg62
g3608
sg55
(lp3615
g48
(g49
g50
NtRp3616
(dp3617
g53
(dp3618
g61
I1
ssg62
g3612
sg55
(lp3619
S'/admin/default/edit/Desglosar_Emails/views/default/entrada_mod1.html'
p3620
asbasbasbasbasbasbasbag48
(g64
g50
NtRp3621
(dp3622
g53
(dp3623
sg62
g3509
sg55
(lp3624
g48
(g69
g50
NtRp3625
(dp3626
g53
(dp3627
sg62
g3621
sg55
(lp3628
g48
(g49
g50
NtRp3629
(dp3630
g53
(dp3631
g61
I2
ssg62
g3625
sg55
(lp3632
g48
(g57
g50
NtRp3633
(dp3634
g53
(dp3635
g61
I1
ssg62
Nsg55
(lp3636
g48
(g64
g50
NtRp3637
(dp3638
g53
(dp3639
sg62
g3633
sg55
(lp3640
g48
(g69
g50
NtRp3641
(dp3642
g53
(dp3643
sg62
g3637
sg55
(lp3644
g48
(g49
g50
NtRp3645
(dp3646
g53
(dp3647
g61
I1
ssg62
g3641
sg55
(lp3648
g3400
(S's\x12\x00\x00\x00Dise\xc3\xb1o de p\xc3\xa1gina'
tRp3649
asbasbasbag48
(g64
g50
NtRp3650
(dp3651
g53
(dp3652
sg62
g3633
sg55
(lp3653
g48
(g69
g50
NtRp3654
(dp3655
g53
(dp3656
sg62
g3650
sg55
(lp3657
g48
(g49
g50
NtRp3658
(dp3659
g53
(dp3660
g61
I1
ssg62
g3654
sg55
(lp3661
I00
asbasbasbag48
(g64
g50
NtRp3662
(dp3663
g53
(dp3664
sg62
g3633
sg55
(lp3665
g48
(g69
g50
NtRp3666
(dp3667
g53
(dp3668
sg62
g3662
sg55
(lp3669
g48
(g49
g50
NtRp3670
(dp3671
g53
(dp3672
g61
I1
ssg62
g3666
sg55
(lp3673
S'/admin/default/edit/Desglosar_Emails/views/layout.html'
p3674
asbasbasbasbasbasbasbag48
(g64
g50
NtRp3675
(dp3676
g53
(dp3677
sg62
g3509
sg55
(lp3678
g48
(g69
g50
NtRp3679
(dp3680
g53
(dp3681
sg62
g3675
sg55
(lp3682
g48
(g49
g50
NtRp3683
(dp3684
g53
(dp3685
g61
I2
ssg62
g3679
sg55
(lp3686
g48
(g57
g50
NtRp3687
(dp3688
g53
(dp3689
g61
I1
ssg62
Nsg55
(lp3690
g48
(g64
g50
NtRp3691
(dp3692
g53
(dp3693
sg62
g3687
sg55
(lp3694
g48
(g69
g50
NtRp3695
(dp3696
g53
(dp3697
sg62
g3691
sg55
(lp3698
g48
(g49
g50
NtRp3699
(dp3700
g53
(dp3701
g61
I1
ssg62
g3695
sg55
(lp3702
g3400
(S's\x0e\x00\x00\x00Hoja de estilo'
tRp3703
asbasbasbag48
(g64
g50
NtRp3704
(dp3705
g53
(dp3706
sg62
g3687
sg55
(lp3707
g48
(g69
g50
NtRp3708
(dp3709
g53
(dp3710
sg62
g3704
sg55
(lp3711
g48
(g49
g50
NtRp3712
(dp3713
g53
(dp3714
g61
I1
ssg62
g3708
sg55
(lp3715
I00
asbasbasbag48
(g64
g50
NtRp3716
(dp3717
g53
(dp3718
sg62
g3687
sg55
(lp3719
g48
(g69
g50
NtRp3720
(dp3721
g53
(dp3722
sg62
g3716
sg55
(lp3723
g48
(g49
g50
NtRp3724
(dp3725
g53
(dp3726
g61
I1
ssg62
g3720
sg55
(lp3727
S'/admin/default/edit/Desglosar_Emails/static/base.css'
p3728
asbasbasbasbasbasbasbag48
(g64
g50
NtRp3729
(dp3730
g53
(dp3731
sg62
g3509
sg55
(lp3732
g48
(g69
g50
NtRp3733
(dp3734
g53
(dp3735
sg62
g3729
sg55
(lp3736
g48
(g49
g50
NtRp3737
(dp3738
g53
(dp3739
g61
I2
ssg62
g3733
sg55
(lp3740
g48
(g57
g50
NtRp3741
(dp3742
g53
(dp3743
g61
I1
ssg62
Nsg55
(lp3744
g48
(g64
g50
NtRp3745
(dp3746
g53
(dp3747
sg62
g3741
sg55
(lp3748
g48
(g69
g50
NtRp3749
(dp3750
g53
(dp3751
sg62
g3745
sg55
(lp3752
g48
(g49
g50
NtRp3753
(dp3754
g53
(dp3755
g61
I1
ssg62
g3749
sg55
(lp3756
g3400
(S's\x0b\x00\x00\x00Modelo "db"'
tRp3757
asbasbasbag48
(g64
g50
NtRp3758
(dp3759
g53
(dp3760
sg62
g3741
sg55
(lp3761
g48
(g69
g50
NtRp3762
(dp3763
g53
(dp3764
sg62
g3758
sg55
(lp3765
g48
(g49
g50
NtRp3766
(dp3767
g53
(dp3768
g61
I1
ssg62
g3762
sg55
(lp3769
I00
asbasbasbag48
(g64
g50
NtRp3770
(dp3771
g53
(dp3772
sg62
g3741
sg55
(lp3773
g48
(g69
g50
NtRp3774
(dp3775
g53
(dp3776
sg62
g3770
sg55
(lp3777
g48
(g49
g50
NtRp3778
(dp3779
g53
(dp3780
g61
I1
ssg62
g3774
sg55
(lp3781
S'/admin/default/edit/Desglosar_Emails/models/db.py'
p3782
asbasbasbasbasbasbasbag48
(g64
g50
NtRp3783
(dp3784
g53
(dp3785
sg62
g3509
sg55
(lp3786
g48
(g69
g50
NtRp3787
(dp3788
g53
(dp3789
sg62
g3783
sg55
(lp3790
g48
(g49
g50
NtRp3791
(dp3792
g53
(dp3793
g61
I2
ssg62
g3787
sg55
(lp3794
g48
(g57
g50
NtRp3795
(dp3796
g53
(dp3797
g61
I1
ssg62
Nsg55
(lp3798
g48
(g64
g50
NtRp3799
(dp3800
g53
(dp3801
sg62
g3795
sg55
(lp3802
g48
(g69
g50
NtRp3803
(dp3804
g53
(dp3805
sg62
g3799
sg55
(lp3806
g48
(g49
g50
NtRp3807
(dp3808
g53
(dp3809
g61
I1
ssg62
g3803
sg55
(lp3810
g3400
(S's\r\x00\x00\x00Modelo "menu"'
tRp3811
asbasbasbag48
(g64
g50
NtRp3812
(dp3813
g53
(dp3814
sg62
g3795
sg55
(lp3815
g48
(g69
g50
NtRp3816
(dp3817
g53
(dp3818
sg62
g3812
sg55
(lp3819
g48
(g49
g50
NtRp3820
(dp3821
g53
(dp3822
g61
I1
ssg62
g3816
sg55
(lp3823
I00
asbasbasbag48
(g64
g50
NtRp3824
(dp3825
g53
(dp3826
sg62
g3795
sg55
(lp3827
g48
(g69
g50
NtRp3828
(dp3829
g53
(dp3830
sg62
g3824
sg55
(lp3831
g48
(g49
g50
NtRp3832
(dp3833
g53
(dp3834
g61
I1
ssg62
g3828
sg55
(lp3835
S'/admin/default/edit/Desglosar_Emails/models/menu.py'
p3836
asbasbasbasbasbasbasbag48
(g64
g50
NtRp3837
(dp3838
g53
(dp3839
sg62
g3509
sg55
(lp3840
g48
(g69
g50
NtRp3841
(dp3842
g53
(dp3843
sg62
g3837
sg55
(lp3844
g48
(g49
g50
NtRp3845
(dp3846
g53
(dp3847
g61
I2
ssg62
g3841
sg55
(lp3848
g48
(g57
g50
NtRp3849
(dp3850
g53
(dp3851
g61
I1
ssg62
Nsg55
(lp3852
g48
(g64
g50
NtRp3853
(dp3854
g53
(dp3855
sg62
g3849
sg55
(lp3856
g48
(g69
g50
NtRp3857
(dp3858
g53
(dp3859
sg62
g3853
sg55
(lp3860
g48
(g49
g50
NtRp3861
(dp3862
g53
(dp3863
g61
I1
ssg62
g3857
sg55
(lp3864
g3400
(S's\r\x00\x00\x00Base de datos'
tRp3865
asbasbasbag48
(g64
g50
NtRp3866
(dp3867
g53
(dp3868
sg62
g3849
sg55
(lp3869
g48
(g69
g50
NtRp3870
(dp3871
g53
(dp3872
sg62
g3866
sg55
(lp3873
g48
(g49
g50
NtRp3874
(dp3875
g53
(dp3876
g61
I1
ssg62
g3870
sg55
(lp3877
I00
asbasbasbag48
(g64
g50
NtRp3878
(dp3879
g53
(dp3880
sg62
g3849
sg55
(lp3881
g48
(g69
g50
NtRp3882
(dp3883
g53
(dp3884
sg62
g3878
sg55
(lp3885
g48
(g49
g50
NtRp3886
(dp3887
g53
(dp3888
g61
I1
ssg62
g3882
sg55
(lp3889
S'/Desglosar_Emails/appadmin/index'
p3890
asbasbasbasbasbasbasbag48
(g64
g50
NtRp3891
(dp3892
g53
(dp3893
sg62
g3509
sg55
(lp3894
g48
(g69
g50
NtRp3895
(dp3896
g53
(dp3897
sg62
g3891
sg55
(lp3898
g48
(g49
g50
NtRp3899
(dp3900
g53
(dp3901
g61
I2
ssg62
g3895
sg55
(lp3902
g48
(g57
g50
NtRp3903
(dp3904
g53
(dp3905
g61
I1
ssg62
Nsg55
(lp3906
g48
(g64
g50
NtRp3907
(dp3908
g53
(dp3909
sg62
g3903
sg55
(lp3910
g48
(g69
g50
NtRp3911
(dp3912
g53
(dp3913
sg62
g3907
sg55
(lp3914
g48
(g49
g50
NtRp3915
(dp3916
g53
(dp3917
g61
I1
ssg62
g3911
sg55
(lp3918
g3400
(S't\x06\x00\x00\x00Errors'
tRp3919
asbasbasbag48
(g64
g50
NtRp3920
(dp3921
g53
(dp3922
sg62
g3903
sg55
(lp3923
g48
(g69
g50
NtRp3924
(dp3925
g53
(dp3926
sg62
g3920
sg55
(lp3927
g48
(g49
g50
NtRp3928
(dp3929
g53
(dp3930
g61
I1
ssg62
g3924
sg55
(lp3931
I00
asbasbasbag48
(g64
g50
NtRp3932
(dp3933
g53
(dp3934
sg62
g3903
sg55
(lp3935
g48
(g69
g50
NtRp3936
(dp3937
g53
(dp3938
sg62
g3932
sg55
(lp3939
g48
(g49
g50
NtRp3940
(dp3941
g53
(dp3942
g61
I1
ssg62
g3936
sg55
(lp3943
S'/admin/default/errors/Desglosar_Emails'
p3944
asbasbasbasbasbasbasbag48
(g64
g50
NtRp3945
(dp3946
g53
(dp3947
sg62
g3509
sg55
(lp3948
g48
(g69
g50
NtRp3949
(dp3950
g53
(dp3951
sg62
g3945
sg55
(lp3952
g48
(g49
g50
NtRp3953
(dp3954
g53
(dp3955
g61
I2
ssg62
g3949
sg55
(lp3956
g48
(g57
g50
NtRp3957
(dp3958
g53
(dp3959
g61
I1
ssg62
Nsg55
(lp3960
g48
(g64
g50
NtRp3961
(dp3962
g53
(dp3963
sg62
g3957
sg55
(lp3964
g48
(g69
g50
NtRp3965
(dp3966
g53
(dp3967
sg62
g3961
sg55
(lp3968
g48
(g49
g50
NtRp3969
(dp3970
g53
(dp3971
g61
I1
ssg62
g3965
sg55
(lp3972
g3400
(S's\t\x00\x00\x00Acerca de'
tRp3973
asbasbasbag48
(g64
g50
NtRp3974
(dp3975
g53
(dp3976
sg62
g3957
sg55
(lp3977
g48
(g69
g50
NtRp3978
(dp3979
g53
(dp3980
sg62
g3974
sg55
(lp3981
g48
(g49
g50
NtRp3982
(dp3983
g53
(dp3984
g61
I1
ssg62
g3978
sg55
(lp3985
I00
asbasbasbag48
(g64
g50
NtRp3986
(dp3987
g53
(dp3988
sg62
g3957
sg55
(lp3989
g48
(g69
g50
NtRp3990
(dp3991
g53
(dp3992
sg62
g3986
sg55
(lp3993
g48
(g49
g50
NtRp3994
(dp3995
g53
(dp3996
g61
I1
ssg62
g3990
sg55
(lp3997
S'/admin/default/about/Desglosar_Emails'
p3998
asbasbasbasbasbasbasbasbasbasbasbasbasbasbasbag48
(g64
g50
NtRp3999
(dp4000
g53
(dp4001
sg62
g3368
sg55
(lp4002
g48
(g69
g50
NtRp4003
(dp4004
g53
(dp4005
sg62
g3999
sg55
(lp4006
g48
(g49
g50
NtRp4007
(dp4008
g53
(dp4009
g61
I4
ssg62
g4003
sg55
(lp4010
g48
(g57
g50
NtRp4011
(dp4012
g53
(dp4013
g61
I3
ssg62
Nsg55
(lp4014
g48
(g64
g50
NtRp4015
(dp4016
g53
(dp4017
sg62
g4011
sg55
(lp4018
g48
(g69
g50
NtRp4019
(dp4020
g53
(dp4021
sg62
g4015
sg55
(lp4022
g48
(g49
g50
NtRp4023
(dp4024
g53
(dp4025
g61
I3
ssg62
g4019
sg55
(lp4026
g3400
(S't\t\x00\x00\x00Resources'
tRp4027
asbasbasbag48
(g64
g50
NtRp4028
(dp4029
g53
(dp4030
sg62
g4011
sg55
(lp4031
g48
(g69
g50
NtRp4032
(dp4033
g53
(dp4034
sg62
g4028
sg55
(lp4035
g48
(g49
g50
NtRp4036
(dp4037
g53
(dp4038
g61
I3
ssg62
g4032
sg55
(lp4039
g91
asbasbasbag48
(g64
g50
NtRp4040
(dp4041
g53
(dp4042
sg62
g4011
sg55
(lp4043
g48
(g69
g50
NtRp4044
(dp4045
g53
(dp4046
sg62
g4040
sg55
(lp4047
g48
(g49
g50
NtRp4048
(dp4049
g53
(dp4050
g61
I3
ssg62
g4044
sg55
(lp4051
S'None'
p4052
asbasbasbag48
(g64
g50
NtRp4053
(dp4054
g53
(dp4055
sg62
g4011
sg55
(lp4056
g48
(g69
g50
NtRp4057
(dp4058
g53
(dp4059
sg62
g4053
sg55
(lp4060
g48
(g49
g50
NtRp4061
(dp4062
g53
(dp4063
g61
I3
ssg62
g4057
sg55
(lp4064
g48
(g57
g50
NtRp4065
(dp4066
g53
(dp4067
g61
I2
ssg62
Nsg55
(lp4068
g48
(g64
g50
NtRp4069
(dp4070
g53
(dp4071
sg62
g4065
sg55
(lp4072
g48
(g69
g50
NtRp4073
(dp4074
g53
(dp4075
sg62
g4069
sg55
(lp4076
g48
(g49
g50
NtRp4077
(dp4078
g53
(dp4079
g61
I2
ssg62
g4073
sg55
(lp4080
g48
(g57
g50
NtRp4081
(dp4082
g53
(dp4083
g61
I1
ssg62
Nsg55
(lp4084
g48
(g64
g50
NtRp4085
(dp4086
g53
(dp4087
sg62
g4081
sg55
(lp4088
g48
(g69
g50
NtRp4089
(dp4090
g53
(dp4091
sg62
g4085
sg55
(lp4092
g48
(g49
g50
NtRp4093
(dp4094
g53
(dp4095
g61
I1
ssg62
g4089
sg55
(lp4096
g3400
(S's\x0e\x00\x00\x00Documentaci\xc3\xb3n'
tRp4097
asbasbasbag48
(g64
g50
NtRp4098
(dp4099
g53
(dp4100
sg62
g4081
sg55
(lp4101
g48
(g69
g50
NtRp4102
(dp4103
g53
(dp4104
sg62
g4098
sg55
(lp4105
g48
(g49
g50
NtRp4106
(dp4107
g53
(dp4108
g61
I1
ssg62
g4102
sg55
(lp4109
I00
asbasbasbag48
(g64
g50
NtRp4110
(dp4111
g53
(dp4112
sg62
g4081
sg55
(lp4113
g48
(g69
g50
NtRp4114
(dp4115
g53
(dp4116
sg62
g4110
sg55
(lp4117
g48
(g49
g50
NtRp4118
(dp4119
g53
(dp4120
g61
I1
ssg62
g4114
sg55
(lp4121
S'http://www.web2py.com/book'
p4122
asbasbasbag48
(g64
g50
NtRp4123
(dp4124
g53
(dp4125
sg62
g4081
sg55
(lp4126
g48
(g69
g50
NtRp4127
(dp4128
g53
(dp4129
sg62
g4123
sg55
(lp4130
g48
(g49
g50
NtRp4131
(dp4132
g53
(dp4133
g61
I1
ssg62
g4127
sg55
(lp4134
(lp4135
(g3400
(S't\x07\x00\x00\x00Preface'
tRp4136
I00
S'http://www.web2py.com/book/default/chapter/00'
tp4137
a(g3400
(S't\x0c\x00\x00\x00Introduction'
tRp4138
I00
S'http://www.web2py.com/book/default/chapter/01'
tp4139
a(g3400
(S't\x06\x00\x00\x00Python'
tRp4140
I00
S'http://www.web2py.com/book/default/chapter/02'
tp4141
a(g3400
(S't\x08\x00\x00\x00Overview'
tRp4142
I00
S'http://www.web2py.com/book/default/chapter/03'
tp4143
a(g3400
(S's\x08\x00\x00\x00The Core'
tRp4144
I00
S'http://www.web2py.com/book/default/chapter/04'
tp4145
a(g3400
(S's\t\x00\x00\x00The Views'
tRp4146
I00
S'http://www.web2py.com/book/default/chapter/05'
tp4147
a(g3400
(S's\r\x00\x00\x00Base de datos'
tRp4148
I00
S'http://www.web2py.com/book/default/chapter/06'
tp4149
a(g3400
(S's\x14\x00\x00\x00Forms and Validators'
tRp4150
I00
S'http://www.web2py.com/book/default/chapter/07'
tp4151
a(g3400
(S's\x0e\x00\x00\x00Access Control'
tRp4152
I00
S'http://www.web2py.com/book/default/chapter/08'
tp4153
a(g3400
(S't\x08\x00\x00\x00Services'
tRp4154
I00
S'http://www.web2py.com/book/default/chapter/09'
tp4155
a(g3400
(S's\x0c\x00\x00\x00Ajax Recipes'
tRp4156
I00
S'http://www.web2py.com/book/default/chapter/10'
tp4157
a(g3400
(S's\x12\x00\x00\x00Deployment Recipes'
tRp4158
I00
S'http://www.web2py.com/book/default/chapter/11'
tp4159
a(g3400
(S's\r\x00\x00\x00Other Recipes'
tRp4160
I00
S'http://www.web2py.com/book/default/chapter/12'
tp4161
a(g3400
(S's\r\x00\x00\x00Buy this book'
tRp4162
I00
S'http://stores.lulu.com/web2py'
tp4163
aasbasbasbasbasbasbasbag48
(g64
g50
NtRp4164
(dp4165
g53
(dp4166
sg62
g4065
sg55
(lp4167
g48
(g69
g50
NtRp4168
(dp4169
g53
(dp4170
sg62
g4164
sg55
(lp4171
g48
(g49
g50
NtRp4172
(dp4173
g53
(dp4174
g61
I2
ssg62
g4168
sg55
(lp4175
g48
(g57
g50
NtRp4176
(dp4177
g53
(dp4178
g61
I1
ssg62
Nsg55
(lp4179
g48
(g64
g50
NtRp4180
(dp4181
g53
(dp4182
sg62
g4176
sg55
(lp4183
g48
(g69
g50
NtRp4184
(dp4185
g53
(dp4186
sg62
g4180
sg55
(lp4187
g48
(g49
g50
NtRp4188
(dp4189
g53
(dp4190
g61
I1
ssg62
g4184
sg55
(lp4191
g3400
(S't\t\x00\x00\x00Community'
tRp4192
asbasbasbag48
(g64
g50
NtRp4193
(dp4194
g53
(dp4195
sg62
g4176
sg55
(lp4196
g48
(g69
g50
NtRp4197
(dp4198
g53
(dp4199
sg62
g4193
sg55
(lp4200
g48
(g49
g50
NtRp4201
(dp4202
g53
(dp4203
g61
I1
ssg62
g4197
sg55
(lp4204
I00
asbasbasbag48
(g64
g50
NtRp4205
(dp4206
g53
(dp4207
sg62
g4176
sg55
(lp4208
g48
(g69
g50
NtRp4209
(dp4210
g53
(dp4211
sg62
g4205
sg55
(lp4212
g48
(g49
g50
NtRp4213
(dp4214
g53
(dp4215
g61
I1
ssg62
g4209
sg55
(lp4216
Nasbasbasbag48
(g64
g50
NtRp4217
(dp4218
g53
(dp4219
sg62
g4176
sg55
(lp4220
g48
(g69
g50
NtRp4221
(dp4222
g53
(dp4223
sg62
g4217
sg55
(lp4224
g48
(g49
g50
NtRp4225
(dp4226
g53
(dp4227
g61
I1
ssg62
g4221
sg55
(lp4228
(lp4229
(g3400
(S't\x06\x00\x00\x00Groups'
tRp4230
I00
S'http://www.web2py.com/examples/default/usergroups'
tp4231
a(g3400
(S't\x07\x00\x00\x00Twitter'
tRp4232
I00
S'http://twitter.com/web2py'
tp4233
a(g3400
(S's\t\x00\x00\x00Live chat'
tRp4234
I00
S'http://mibbit.com/?channel=%23web2py&server=irc.mibbit.net'
tp4235
a(g3400
(S's\n\x00\x00\x00User Voice'
tRp4236
I00
S'http://web2py.uservoice.com/'
tp4237
aasbasbasbasbasbasbasbag48
(g64
g50
NtRp4238
(dp4239
g53
(dp4240
sg62
g4065
sg55
(lp4241
g48
(g69
g50
NtRp4242
(dp4243
g53
(dp4244
sg62
g4238
sg55
(lp4245
g48
(g49
g50
NtRp4246
(dp4247
g53
(dp4248
g61
I2
ssg62
g4242
sg55
(lp4249
g48
(g57
g50
NtRp4250
(dp4251
g53
(dp4252
g61
I1
ssg62
Nsg55
(lp4253
g48
(g64
g50
NtRp4254
(dp4255
g53
(dp4256
sg62
g4250
sg55
(lp4257
g48
(g69
g50
NtRp4258
(dp4259
g53
(dp4260
sg62
g4254
sg55
(lp4261
g48
(g49
g50
NtRp4262
(dp4263
g53
(dp4264
g61
I1
ssg62
g4258
sg55
(lp4265
g3400
(S't\x06\x00\x00\x00Web2py'
tRp4266
asbasbasbag48
(g64
g50
NtRp4267
(dp4268
g53
(dp4269
sg62
g4250
sg55
(lp4270
g48
(g69
g50
NtRp4271
(dp4272
g53
(dp4273
sg62
g4267
sg55
(lp4274
g48
(g49
g50
NtRp4275
(dp4276
g53
(dp4277
g61
I1
ssg62
g4271
sg55
(lp4278
I00
asbasbasbag48
(g64
g50
NtRp4279
(dp4280
g53
(dp4281
sg62
g4250
sg55
(lp4282
g48
(g69
g50
NtRp4283
(dp4284
g53
(dp4285
sg62
g4279
sg55
(lp4286
g48
(g49
g50
NtRp4287
(dp4288
g53
(dp4289
g61
I1
ssg62
g4283
sg55
(lp4290
S'http://www.web2py.com'
p4291
asbasbasbag48
(g64
g50
NtRp4292
(dp4293
g53
(dp4294
sg62
g4250
sg55
(lp4295
g48
(g69
g50
NtRp4296
(dp4297
g53
(dp4298
sg62
g4292
sg55
(lp4299
g48
(g49
g50
NtRp4300
(dp4301
g53
(dp4302
g61
I1
ssg62
g4296
sg55
(lp4303
(lp4304
(g3400
(S't\x08\x00\x00\x00Download'
tRp4305
I00
S'http://www.web2py.com/examples/default/download'
tp4306
a(g3400
(S't\x07\x00\x00\x00Support'
tRp4307
I00
S'http://www.web2py.com/examples/default/support'
tp4308
a(g3400
(S's\x0e\x00\x00\x00Quick Examples'
tRp4309
I00
S'http://web2py.com/examples/default/examples'
tp4310
a(g3400
(S't\x03\x00\x00\x00FAQ'
tRp4311
I00
S'http://web2py.com/AlterEgo'
tp4312
a(g3400
(S's\x11\x00\x00\x00Free Applications'
tRp4313
I00
S'http://web2py.com/appliances'
tp4314
a(g3400
(S't\x07\x00\x00\x00Plugins'
tRp4315
I00
S'http://web2py.com/plugins'
tp4316
a(g3400
(S't\x07\x00\x00\x00Recipes'
tRp4317
I00
S'http://web2pyslices.com/'
tp4318
a(g3400
(S't\x04\x00\x00\x00Demo'
tRp4319
I00
S'http://web2py.com/demo_admin'
tp4320
a(g3400
(S't\x08\x00\x00\x00Semantic'
tRp4321
I00
S'http://web2py.com/semantic'
tp4322
a(g3400
(S't\x07\x00\x00\x00Layouts'
tRp4323
I00
S'http://web2py.com/layouts'
tp4324
a(g3400
(S't\x06\x00\x00\x00Videos'
tRp4325
I00
S'http://www.web2py.com/examples/default/videos/'
tp4326
aasbasbasbasbasbasbasbasbasbasbasbasbasbasbasbasbasbasbasbag48
(g64
g50
NtRp4327
(dp4328
g53
(dp4329
sg62
g2927
sg55
(lp4330
g48
(g69
g50
NtRp4331
(dp4332
g53
(dp4333
g73
g74
ssg62
g4327
sg55
(lp4334
S'meta'
p4335
asbag48
(g69
g50
NtRp4336
(dp4337
g53
(dp4338
g80
g81
ssg62
g4327
sg55
(lp4339
S':'
asbag48
(g69
g50
NtRp4340
(dp4341
g53
(dp4342
sg62
g4327
sg55
(lp4343
g48
(g49
g50
NtRp4344
(dp4345
g53
(dp4346
g61
I5
ssg62
g4340
sg55
(lp4347
g48
(g57
g50
NtRp4348
(dp4349
g53
(dp4350
g61
I4
ssg62
Nsg55
(lp4351
g48
(g64
g50
NtRp4352
(dp4353
g53
(dp4354
sg62
g4348
sg55
(lp4355
g48
(g69
g50
NtRp4356
(dp4357
g53
(dp4358
g73
g74
ssg62
g4352
sg55
(lp4359
S'author'
p4360
asbag48
(g69
g50
NtRp4361
(dp4362
g53
(dp4363
g80
g81
ssg62
g4352
sg55
(lp4364
S':'
asbag48
(g69
g50
NtRp4365
(dp4366
g53
(dp4367
sg62
g4352
sg55
(lp4368
g48
(g49
g50
NtRp4369
(dp4370
g53
(dp4371
g61
I4
ssg62
g4365
sg55
(lp4372
S'you'
p4373
asbasbasbag48
(g64
g50
NtRp4374
(dp4375
g53
(dp4376
sg62
g4348
sg55
(lp4377
g48
(g69
g50
NtRp4378
(dp4379
g53
(dp4380
g73
g74
ssg62
g4374
sg55
(lp4381
S'copyright'
p4382
asbag48
(g69
g50
NtRp4383
(dp4384
g53
(dp4385
g80
g81
ssg62
g4374
sg55
(lp4386
S':'
asbag48
(g69
g50
NtRp4387
(dp4388
g53
(dp4389
sg62
g4374
sg55
(lp4390
g48
(g49
g50
NtRp4391
(dp4392
g53
(dp4393
g61
I4
ssg62
g4387
sg55
(lp4394
S'Copyright 2007-2010'
p4395
asbasbasbag48
(g64
g50
NtRp4396
(dp4397
g53
(dp4398
sg62
g4348
sg55
(lp4399
g48
(g69
g50
NtRp4400
(dp4401
g53
(dp4402
g73
g74
ssg62
g4396
sg55
(lp4403
S'description'
p4404
asbag48
(g69
g50
NtRp4405
(dp4406
g53
(dp4407
g80
g81
ssg62
g4396
sg55
(lp4408
S':'
asbag48
(g69
g50
NtRp4409
(dp4410
g53
(dp4411
sg62
g4396
sg55
(lp4412
g48
(g49
g50
NtRp4413
(dp4414
g53
(dp4415
g61
I4
ssg62
g4409
sg55
(lp4416
S'Free and open source full-stack enterprise framework for agile development of fast, scalable, secure and portable database-driven web-based applications. Written and programmable in Python'
p4417
asbasbasbag48
(g64
g50
NtRp4418
(dp4419
g53
(dp4420
sg62
g4348
sg55
(lp4421
g48
(g69
g50
NtRp4422
(dp4423
g53
(dp4424
g73
g74
ssg62
g4418
sg55
(lp4425
S'generator'
p4426
asbag48
(g69
g50
NtRp4427
(dp4428
g53
(dp4429
g80
g81
ssg62
g4418
sg55
(lp4430
S':'
asbag48
(g69
g50
NtRp4431
(dp4432
g53
(dp4433
sg62
g4418
sg55
(lp4434
g48
(g49
g50
NtRp4435
(dp4436
g53
(dp4437
g61
I4
ssg62
g4431
sg55
(lp4438
S'Web2py Enterprise Framework'
p4439
asbasbasbag48
(g64
g50
NtRp4440
(dp4441
g53
(dp4442
sg62
g4348
sg55
(lp4443
g48
(g69
g50
NtRp4444
(dp4445
g53
(dp4446
g73
g74
ssg62
g4440
sg55
(lp4447
S'keywords'
p4448
asbag48
(g69
g50
NtRp4449
(dp4450
g53
(dp4451
g80
g81
ssg62
g4440
sg55
(lp4452
S':'
asbag48
(g69
g50
NtRp4453
(dp4454
g53
(dp4455
sg62
g4440
sg55
(lp4456
g48
(g49
g50
NtRp4457
(dp4458
g53
(dp4459
g61
I4
ssg62
g4453
sg55
(lp4460
S'web2py, python, framework'
p4461
asbasbasbasbasbasbasbag48
(g64
g50
NtRp4462
(dp4463
g53
(dp4464
sg62
g2927
sg55
(lp4465
g48
(g69
g50
NtRp4466
(dp4467
g53
(dp4468
g73
g74
ssg62
g4462
sg55
(lp4469
S'postprocessing'
p4470
asbag48
(g69
g50
NtRp4471
(dp4472
g53
(dp4473
g80
g81
ssg62
g4462
sg55
(lp4474
S':'
asbag48
(g69
g50
NtRp4475
(dp4476
g53
(dp4477
sg62
g4462
sg55
(lp4478
g48
(g49
g50
NtRp4479
(dp4480
g53
(dp4481
g61
I5
ssg62
g4475
sg55
(lp4482
g48
(g57
g50
NtRp4483
(dp4484
g53
(dp4485
g61
I4
ssg62
Nsg55
(lp4486
sbasbasbasbag48
(g64
g50
NtRp4487
(dp4488
g53
(dp4489
sg62
g2927
sg55
(lp4490
g48
(g69
g50
NtRp4491
(dp4492
g53
(dp4493
g73
g74
ssg62
g4487
sg55
(lp4494
S'session_file'
p4495
asbag48
(g69
g50
NtRp4496
(dp4497
g53
(dp4498
g80
g81
ssg62
g4487
sg55
(lp4499
S':'
asbag48
(g69
g50
NtRp4500
(dp4501
g53
(dp4502
sg62
g4487
sg55
(lp4503
g48
(g49
g50
NtRp4504
(dp4505
g53
(dp4506
g61
I5
ssg62
g4500
sg55
(lp4507
S"<open file 'C:\\Users\\Atomico\\web2py\\applications\\Desglosar_Emails\\sessions\\127.0.0.1-0a11b3b2-660c-433c-b71f-fc129286f26c', mode 'rb+' at 0x03218F50>"
p4508
asbasbasbag48
(g64
g50
NtRp4509
(dp4510
g53
(dp4511
sg62
g2927
sg55
(lp4512
g48
(g69
g50
NtRp4513
(dp4514
g53
(dp4515
g73
g74
ssg62
g4509
sg55
(lp4516
S'session_filename'
p4517
asbag48
(g69
g50
NtRp4518
(dp4519
g53
(dp4520
g80
g81
ssg62
g4509
sg55
(lp4521
S':'
asbag48
(g69
g50
NtRp4522
(dp4523
g53
(dp4524
sg62
g4509
sg55
(lp4525
g48
(g49
g50
NtRp4526
(dp4527
g53
(dp4528
g61
I5
ssg62
g4522
sg55
(lp4529
S'C:\\Users\\Atomico\\web2py\\applications\\Desglosar_Emails\\sessions\\127.0.0.1-0a11b3b2-660c-433c-b71f-fc129286f26c'
p4530
asbasbasbag48
(g64
g50
NtRp4531
(dp4532
g53
(dp4533
sg62
g2927
sg55
(lp4534
g48
(g69
g50
NtRp4535
(dp4536
g53
(dp4537
g73
g74
ssg62
g4531
sg55
(lp4538
S'session_id'
p4539
asbag48
(g69
g50
NtRp4540
(dp4541
g53
(dp4542
g80
g81
ssg62
g4531
sg55
(lp4543
S':'
asbag48
(g69
g50
NtRp4544
(dp4545
g53
(dp4546
sg62
g4531
sg55
(lp4547
g48
(g49
g50
NtRp4548
(dp4549
g53
(dp4550
g61
I5
ssg62
g4544
sg55
(lp4551
S'127.0.0.1-0a11b3b2-660c-433c-b71f-fc129286f26c'
p4552
asbasbasbag48
(g64
g50
NtRp4553
(dp4554
g53
(dp4555
sg62
g2927
sg55
(lp4556
g48
(g69
g50
NtRp4557
(dp4558
g53
(dp4559
g73
g74
ssg62
g4553
sg55
(lp4560
S'session_id_name'
p4561
asbag48
(g69
g50
NtRp4562
(dp4563
g53
(dp4564
g80
g81
ssg62
g4553
sg55
(lp4565
S':'
asbag48
(g69
g50
NtRp4566
(dp4567
g53
(dp4568
sg62
g4553
sg55
(lp4569
g48
(g49
g50
NtRp4570
(dp4571
g53
(dp4572
g61
I5
ssg62
g4566
sg55
(lp4573
g2984
asbasbasbag48
(g64
g50
NtRp4574
(dp4575
g53
(dp4576
sg62
g2927
sg55
(lp4577
g48
(g69
g50
NtRp4578
(dp4579
g53
(dp4580
g73
g74
ssg62
g4574
sg55
(lp4581
S'session_locked'
p4582
asbag48
(g69
g50
NtRp4583
(dp4584
g53
(dp4585
g80
g81
ssg62
g4574
sg55
(lp4586
S':'
asbag48
(g69
g50
NtRp4587
(dp4588
g53
(dp4589
sg62
g4574
sg55
(lp4590
g48
(g49
g50
NtRp4591
(dp4592
g53
(dp4593
g61
I5
ssg62
g4587
sg55
(lp4594
g1851
asbasbasbag48
(g64
g50
NtRp4595
(dp4596
g53
(dp4597
sg62
g2927
sg55
(lp4598
g48
(g69
g50
NtRp4599
(dp4600
g53
(dp4601
g73
g74
ssg62
g4595
sg55
(lp4602
S'session_new'
p4603
asbag48
(g69
g50
NtRp4604
(dp4605
g53
(dp4606
g80
g81
ssg62
g4595
sg55
(lp4607
S':'
asbag48
(g69
g50
NtRp4608
(dp4609
g53
(dp4610
sg62
g4595
sg55
(lp4611
g48
(g49
g50
NtRp4612
(dp4613
g53
(dp4614
g61
I5
ssg62
g4608
sg55
(lp4615
g91
asbasbasbag48
(g64
g50
NtRp4616
(dp4617
g53
(dp4618
sg62
g2927
sg55
(lp4619
g48
(g69
g50
NtRp4620
(dp4621
g53
(dp4622
g73
g74
ssg62
g4616
sg55
(lp4623
S'status'
p4624
asbag48
(g69
g50
NtRp4625
(dp4626
g53
(dp4627
g80
g81
ssg62
g4616
sg55
(lp4628
S':'
asbag48
(g69
g50
NtRp4629
(dp4630
g53
(dp4631
sg62
g4616
sg55
(lp4632
g48
(g49
g50
NtRp4633
(dp4634
g53
(dp4635
g61
I5
ssg62
g4629
sg55
(lp4636
S'200'
p4637
asbasbasbag48
(g64
g50
NtRp4638
(dp4639
g53
(dp4640
sg62
g2927
sg55
(lp4641
g48
(g69
g50
NtRp4642
(dp4643
g53
(dp4644
g73
g74
ssg62
g4638
sg55
(lp4645
S'subtitle'
p4646
asbag48
(g69
g50
NtRp4647
(dp4648
g53
(dp4649
g80
g81
ssg62
g4638
sg55
(lp4650
S':'
asbag48
(g69
g50
NtRp4651
(dp4652
g53
(dp4653
sg62
g4638
sg55
(lp4654
g48
(g49
g50
NtRp4655
(dp4656
g53
(dp4657
g61
I5
ssg62
g4651
sg55
(lp4658
g3400
(S's\t\x00\x00\x00Adaptame!'
tRp4659
asbasbasbag48
(g64
g50
NtRp4660
(dp4661
g53
(dp4662
sg62
g2927
sg55
(lp4663
g48
(g69
g50
NtRp4664
(dp4665
g53
(dp4666
g73
g74
ssg62
g4660
sg55
(lp4667
S'title'
p4668
asbag48
(g69
g50
NtRp4669
(dp4670
g53
(dp4671
g80
g81
ssg62
g4660
sg55
(lp4672
S':'
asbag48
(g69
g50
NtRp4673
(dp4674
g53
(dp4675
sg62
g4660
sg55
(lp4676
g48
(g49
g50
NtRp4677
(dp4678
g53
(dp4679
g61
I5
ssg62
g4673
sg55
(lp4680
g113
asbasbasbag48
(g64
g50
NtRp4681
(dp4682
g53
(dp4683
sg62
g2927
sg55
(lp4684
g48
(g69
g50
NtRp4685
(dp4686
g53
(dp4687
g73
g74
ssg62
g4681
sg55
(lp4688
g2175
asbag48
(g69
g50
NtRp4689
(dp4690
g53
(dp4691
g80
g81
ssg62
g4681
sg55
(lp4692
S':'
asbag48
(g69
g50
NtRp4693
(dp4694
g53
(dp4695
sg62
g4681
sg55
(lp4696
g48
(g49
g50
NtRp4697
(dp4698
g53
(dp4699
g61
I5
ssg62
g4693
sg55
(lp4700
g2188
asbasbasbag48
(g64
g50
NtRp4701
(dp4702
g53
(dp4703
sg62
g2927
sg55
(lp4704
g48
(g69
g50
NtRp4705
(dp4706
g53
(dp4707
g73
g74
ssg62
g4701
sg55
(lp4708
S'view'
p4709
asbag48
(g69
g50
NtRp4710
(dp4711
g53
(dp4712
g80
g81
ssg62
g4701
sg55
(lp4713
S':'
asbag48
(g69
g50
NtRp4714
(dp4715
g53
(dp4716
sg62
g4701
sg55
(lp4717
g48
(g49
g50
NtRp4718
(dp4719
g53
(dp4720
g61
I5
ssg62
g4714
sg55
(lp4721
S'default/entrada_mod1.html'
p4722
asbasbasbasbasbsS'locals'
p4723
(dp4724
S'self'
p4725
S"<Storage {'body': <cStringIO.StringO object at 0...x07613F30>, 'view': 'default/entrada_mod1.html'}>"
p4726
sS'data'
p4727
S'<gluon.dal.Expression object at 0x07474FB0>'
p4728
sS'escape'
p4729
g1851
sssS'traceback'
p4730
S'Traceback (most recent call last):\n  File "gluon/restricted.py", line 192, in restricted\n  File "C:\\Users\\Atomico\\web2py\\applications\\Desglosar_Emails\\controllers/default.py", line 47, in <module>\n  File "gluon/globals.py", line 145, in <lambda>\n  File "C:\\Users\\Atomico\\web2py\\applications\\Desglosar_Emails\\controllers/default.py", line 40, in entrada_mod1\n  File "gluon/globals.py", line 154, in write\nMemoryError: out of memory\n'
p4731
s.